ARM GAS  C:\Users\jason\AppData\Local\Temp\ccZj8gMh.s 			page 1


   1              		.syntax unified
   2              		.cpu cortex-m3
   3              		.fpu softvfp
   4              		.eabi_attribute 20, 1
   5              		.eabi_attribute 21, 1
   6              		.eabi_attribute 23, 3
   7              		.eabi_attribute 24, 1
   8              		.eabi_attribute 25, 1
   9              		.eabi_attribute 26, 1
  10              		.eabi_attribute 30, 1
  11              		.eabi_attribute 34, 1
  12              		.eabi_attribute 18, 4
  13              		.thumb
  14              		.file	"ADC_SAR_1.c"
  15              		.text
  16              	.Ltext0:
  17              		.cfi_sections	.debug_frame
  18              		.section	.text.ADC_SAR_1_CalcGain,"ax",%progbits
  19              		.align	2
  20              		.thumb
  21              		.thumb_func
  22              		.type	ADC_SAR_1_CalcGain, %function
  23              	ADC_SAR_1_CalcGain:
  24              	.LFB12:
  25              		.file 1 ".\\Generated_Source\\PSoC5\\ADC_SAR_1.c"
   1:.\Generated_Source\PSoC5/ADC_SAR_1.c **** /*******************************************************************************
   2:.\Generated_Source\PSoC5/ADC_SAR_1.c **** * File Name: ADC_SAR_1.c
   3:.\Generated_Source\PSoC5/ADC_SAR_1.c **** * Version 3.0
   4:.\Generated_Source\PSoC5/ADC_SAR_1.c **** *
   5:.\Generated_Source\PSoC5/ADC_SAR_1.c **** * Description:
   6:.\Generated_Source\PSoC5/ADC_SAR_1.c **** *  This file provides the source code to the API for the Successive
   7:.\Generated_Source\PSoC5/ADC_SAR_1.c **** *  approximation ADC Component.
   8:.\Generated_Source\PSoC5/ADC_SAR_1.c **** *
   9:.\Generated_Source\PSoC5/ADC_SAR_1.c **** * Note:
  10:.\Generated_Source\PSoC5/ADC_SAR_1.c **** *
  11:.\Generated_Source\PSoC5/ADC_SAR_1.c **** ********************************************************************************
  12:.\Generated_Source\PSoC5/ADC_SAR_1.c **** * Copyright 2008-2015, Cypress Semiconductor Corporation.  All rights reserved.
  13:.\Generated_Source\PSoC5/ADC_SAR_1.c **** * You may use this file only in accordance with the license, terms, conditions,
  14:.\Generated_Source\PSoC5/ADC_SAR_1.c **** * disclaimers, and limitations in the end user license agreement accompanying
  15:.\Generated_Source\PSoC5/ADC_SAR_1.c **** * the software package with which this file was provided.
  16:.\Generated_Source\PSoC5/ADC_SAR_1.c **** *******************************************************************************/
  17:.\Generated_Source\PSoC5/ADC_SAR_1.c **** 
  18:.\Generated_Source\PSoC5/ADC_SAR_1.c **** #include "CyLib.h"
  19:.\Generated_Source\PSoC5/ADC_SAR_1.c **** #include "ADC_SAR_1.h"
  20:.\Generated_Source\PSoC5/ADC_SAR_1.c **** 
  21:.\Generated_Source\PSoC5/ADC_SAR_1.c **** #if(ADC_SAR_1_DEFAULT_INTERNAL_CLK)
  22:.\Generated_Source\PSoC5/ADC_SAR_1.c ****     #include "ADC_SAR_1_theACLK.h"
  23:.\Generated_Source\PSoC5/ADC_SAR_1.c **** #endif /* End ADC_SAR_1_DEFAULT_INTERNAL_CLK */
  24:.\Generated_Source\PSoC5/ADC_SAR_1.c **** 
  25:.\Generated_Source\PSoC5/ADC_SAR_1.c **** 
  26:.\Generated_Source\PSoC5/ADC_SAR_1.c **** /***************************************
  27:.\Generated_Source\PSoC5/ADC_SAR_1.c **** * Forward function references
  28:.\Generated_Source\PSoC5/ADC_SAR_1.c **** ***************************************/
  29:.\Generated_Source\PSoC5/ADC_SAR_1.c **** static void ADC_SAR_1_CalcGain(uint8 resolution);
  30:.\Generated_Source\PSoC5/ADC_SAR_1.c **** 
  31:.\Generated_Source\PSoC5/ADC_SAR_1.c **** 
  32:.\Generated_Source\PSoC5/ADC_SAR_1.c **** /***************************************
ARM GAS  C:\Users\jason\AppData\Local\Temp\ccZj8gMh.s 			page 2


  33:.\Generated_Source\PSoC5/ADC_SAR_1.c **** * Global data allocation
  34:.\Generated_Source\PSoC5/ADC_SAR_1.c **** ***************************************/
  35:.\Generated_Source\PSoC5/ADC_SAR_1.c **** uint8 ADC_SAR_1_initVar = 0u;
  36:.\Generated_Source\PSoC5/ADC_SAR_1.c **** volatile int16 ADC_SAR_1_offset;
  37:.\Generated_Source\PSoC5/ADC_SAR_1.c **** volatile int16 ADC_SAR_1_countsPerVolt;     /* Obsolete Gain compensation */
  38:.\Generated_Source\PSoC5/ADC_SAR_1.c **** volatile int32 ADC_SAR_1_countsPer10Volt;   /* Gain compensation */
  39:.\Generated_Source\PSoC5/ADC_SAR_1.c **** volatile int16 ADC_SAR_1_shift;
  40:.\Generated_Source\PSoC5/ADC_SAR_1.c **** 
  41:.\Generated_Source\PSoC5/ADC_SAR_1.c **** 
  42:.\Generated_Source\PSoC5/ADC_SAR_1.c **** /*******************************************************************************
  43:.\Generated_Source\PSoC5/ADC_SAR_1.c **** * Function Name: ADC_SAR_1_Start
  44:.\Generated_Source\PSoC5/ADC_SAR_1.c **** ********************************************************************************
  45:.\Generated_Source\PSoC5/ADC_SAR_1.c **** *
  46:.\Generated_Source\PSoC5/ADC_SAR_1.c **** * Summary:
  47:.\Generated_Source\PSoC5/ADC_SAR_1.c **** *  This is the preferred method to begin component operation.
  48:.\Generated_Source\PSoC5/ADC_SAR_1.c **** *  ADC_SAR_1_Start() sets the initVar variable, calls the
  49:.\Generated_Source\PSoC5/ADC_SAR_1.c **** *  ADC_SAR_1_Init() function, and then calls the
  50:.\Generated_Source\PSoC5/ADC_SAR_1.c **** *  ADC_SAR_1_Enable() function.
  51:.\Generated_Source\PSoC5/ADC_SAR_1.c **** *
  52:.\Generated_Source\PSoC5/ADC_SAR_1.c **** * Parameters:
  53:.\Generated_Source\PSoC5/ADC_SAR_1.c **** *  None.
  54:.\Generated_Source\PSoC5/ADC_SAR_1.c **** *
  55:.\Generated_Source\PSoC5/ADC_SAR_1.c **** * Return:
  56:.\Generated_Source\PSoC5/ADC_SAR_1.c **** *  None.
  57:.\Generated_Source\PSoC5/ADC_SAR_1.c **** *
  58:.\Generated_Source\PSoC5/ADC_SAR_1.c **** * Global variables:
  59:.\Generated_Source\PSoC5/ADC_SAR_1.c **** *  The ADC_SAR_1_initVar variable is used to indicate when/if initial
  60:.\Generated_Source\PSoC5/ADC_SAR_1.c **** *  configuration of this component has happened. The variable is initialized to
  61:.\Generated_Source\PSoC5/ADC_SAR_1.c **** *  zero and set to 1 the first time ADC_Start() is called. This allows for
  62:.\Generated_Source\PSoC5/ADC_SAR_1.c **** *  component Re-Start without re-initialization in all subsequent calls to the
  63:.\Generated_Source\PSoC5/ADC_SAR_1.c **** *  ADC_SAR_1_Start() routine.
  64:.\Generated_Source\PSoC5/ADC_SAR_1.c **** *  If re-initialization of the component is required the variable should be set
  65:.\Generated_Source\PSoC5/ADC_SAR_1.c **** *  to zero before call of ADC_SAR_1_Start() routine, or the user may call
  66:.\Generated_Source\PSoC5/ADC_SAR_1.c **** *  ADC_SAR_1_Init() and ADC_SAR_1_Enable() as done in the
  67:.\Generated_Source\PSoC5/ADC_SAR_1.c **** *  ADC_SAR_1_Start() routine.
  68:.\Generated_Source\PSoC5/ADC_SAR_1.c **** *
  69:.\Generated_Source\PSoC5/ADC_SAR_1.c **** * Side Effect:
  70:.\Generated_Source\PSoC5/ADC_SAR_1.c **** *  If the initVar variable is already set, this function only calls the
  71:.\Generated_Source\PSoC5/ADC_SAR_1.c **** *  ADC_SAR_1_Enable() function.
  72:.\Generated_Source\PSoC5/ADC_SAR_1.c **** *
  73:.\Generated_Source\PSoC5/ADC_SAR_1.c **** *******************************************************************************/
  74:.\Generated_Source\PSoC5/ADC_SAR_1.c **** void ADC_SAR_1_Start(void)
  75:.\Generated_Source\PSoC5/ADC_SAR_1.c **** {
  76:.\Generated_Source\PSoC5/ADC_SAR_1.c **** 
  77:.\Generated_Source\PSoC5/ADC_SAR_1.c ****     /* If not Initialized then initialize all required hardware and software */
  78:.\Generated_Source\PSoC5/ADC_SAR_1.c ****     if(ADC_SAR_1_initVar == 0u)
  79:.\Generated_Source\PSoC5/ADC_SAR_1.c ****     {
  80:.\Generated_Source\PSoC5/ADC_SAR_1.c ****         ADC_SAR_1_Init();
  81:.\Generated_Source\PSoC5/ADC_SAR_1.c ****         ADC_SAR_1_initVar = 1u;
  82:.\Generated_Source\PSoC5/ADC_SAR_1.c ****     }
  83:.\Generated_Source\PSoC5/ADC_SAR_1.c ****     ADC_SAR_1_Enable();
  84:.\Generated_Source\PSoC5/ADC_SAR_1.c **** }
  85:.\Generated_Source\PSoC5/ADC_SAR_1.c **** 
  86:.\Generated_Source\PSoC5/ADC_SAR_1.c **** 
  87:.\Generated_Source\PSoC5/ADC_SAR_1.c **** /*******************************************************************************
  88:.\Generated_Source\PSoC5/ADC_SAR_1.c **** * Function Name: ADC_SAR_1_Init
  89:.\Generated_Source\PSoC5/ADC_SAR_1.c **** ********************************************************************************
ARM GAS  C:\Users\jason\AppData\Local\Temp\ccZj8gMh.s 			page 3


  90:.\Generated_Source\PSoC5/ADC_SAR_1.c **** *
  91:.\Generated_Source\PSoC5/ADC_SAR_1.c **** * Summary:
  92:.\Generated_Source\PSoC5/ADC_SAR_1.c **** *  Initialize component's parameters to the parameters set by user in the
  93:.\Generated_Source\PSoC5/ADC_SAR_1.c **** *  customizer of the component placed onto schematic. Usually called in
  94:.\Generated_Source\PSoC5/ADC_SAR_1.c **** *  ADC_SAR_1_Start().
  95:.\Generated_Source\PSoC5/ADC_SAR_1.c **** *
  96:.\Generated_Source\PSoC5/ADC_SAR_1.c **** * Parameters:
  97:.\Generated_Source\PSoC5/ADC_SAR_1.c **** *  None.
  98:.\Generated_Source\PSoC5/ADC_SAR_1.c **** *
  99:.\Generated_Source\PSoC5/ADC_SAR_1.c **** * Return:
 100:.\Generated_Source\PSoC5/ADC_SAR_1.c **** *  None.
 101:.\Generated_Source\PSoC5/ADC_SAR_1.c **** *
 102:.\Generated_Source\PSoC5/ADC_SAR_1.c **** * Global variables:
 103:.\Generated_Source\PSoC5/ADC_SAR_1.c **** *  The ADC_SAR_1_offset variable is initialized to 0.
 104:.\Generated_Source\PSoC5/ADC_SAR_1.c **** *
 105:.\Generated_Source\PSoC5/ADC_SAR_1.c **** *******************************************************************************/
 106:.\Generated_Source\PSoC5/ADC_SAR_1.c **** void ADC_SAR_1_Init(void)
 107:.\Generated_Source\PSoC5/ADC_SAR_1.c **** {
 108:.\Generated_Source\PSoC5/ADC_SAR_1.c **** 
 109:.\Generated_Source\PSoC5/ADC_SAR_1.c ****     /* This is only valid if there is an internal clock */
 110:.\Generated_Source\PSoC5/ADC_SAR_1.c ****     #if(ADC_SAR_1_DEFAULT_INTERNAL_CLK)
 111:.\Generated_Source\PSoC5/ADC_SAR_1.c ****         ADC_SAR_1_theACLK_SetMode(CYCLK_DUTY);
 112:.\Generated_Source\PSoC5/ADC_SAR_1.c ****     #endif /* End ADC_SAR_1_DEFAULT_INTERNAL_CLK */
 113:.\Generated_Source\PSoC5/ADC_SAR_1.c **** 
 114:.\Generated_Source\PSoC5/ADC_SAR_1.c ****     #if(ADC_SAR_1_IRQ_REMOVE == 0u)
 115:.\Generated_Source\PSoC5/ADC_SAR_1.c ****         /* Start and set interrupt vector */
 116:.\Generated_Source\PSoC5/ADC_SAR_1.c ****         CyIntSetPriority(ADC_SAR_1_INTC_NUMBER, ADC_SAR_1_INTC_PRIOR_NUMBER);
 117:.\Generated_Source\PSoC5/ADC_SAR_1.c ****         (void)CyIntSetVector(ADC_SAR_1_INTC_NUMBER, &ADC_SAR_1_ISR);
 118:.\Generated_Source\PSoC5/ADC_SAR_1.c ****     #endif   /* End ADC_SAR_1_IRQ_REMOVE */
 119:.\Generated_Source\PSoC5/ADC_SAR_1.c **** 
 120:.\Generated_Source\PSoC5/ADC_SAR_1.c ****     /* Enable IRQ mode*/
 121:.\Generated_Source\PSoC5/ADC_SAR_1.c ****     ADC_SAR_1_SAR_CSR1_REG |= ADC_SAR_1_SAR_IRQ_MASK_EN | ADC_SAR_1_SAR_IRQ_MODE_EDGE;
 122:.\Generated_Source\PSoC5/ADC_SAR_1.c **** 
 123:.\Generated_Source\PSoC5/ADC_SAR_1.c ****     /*Set SAR ADC resolution ADC */
 124:.\Generated_Source\PSoC5/ADC_SAR_1.c ****     ADC_SAR_1_SetResolution(ADC_SAR_1_DEFAULT_RESOLUTION);
 125:.\Generated_Source\PSoC5/ADC_SAR_1.c ****     ADC_SAR_1_offset = 0;
 126:.\Generated_Source\PSoC5/ADC_SAR_1.c **** }
 127:.\Generated_Source\PSoC5/ADC_SAR_1.c **** 
 128:.\Generated_Source\PSoC5/ADC_SAR_1.c **** 
 129:.\Generated_Source\PSoC5/ADC_SAR_1.c **** /*******************************************************************************
 130:.\Generated_Source\PSoC5/ADC_SAR_1.c **** * Function Name: ADC_SAR_1_Enable
 131:.\Generated_Source\PSoC5/ADC_SAR_1.c **** ********************************************************************************
 132:.\Generated_Source\PSoC5/ADC_SAR_1.c **** *
 133:.\Generated_Source\PSoC5/ADC_SAR_1.c **** * Summary:
 134:.\Generated_Source\PSoC5/ADC_SAR_1.c **** *  Enables the reference, clock and power for SAR ADC.
 135:.\Generated_Source\PSoC5/ADC_SAR_1.c **** *
 136:.\Generated_Source\PSoC5/ADC_SAR_1.c **** * Parameters:
 137:.\Generated_Source\PSoC5/ADC_SAR_1.c **** *  None.
 138:.\Generated_Source\PSoC5/ADC_SAR_1.c **** *
 139:.\Generated_Source\PSoC5/ADC_SAR_1.c **** * Return:
 140:.\Generated_Source\PSoC5/ADC_SAR_1.c **** *  None.
 141:.\Generated_Source\PSoC5/ADC_SAR_1.c **** *
 142:.\Generated_Source\PSoC5/ADC_SAR_1.c **** *******************************************************************************/
 143:.\Generated_Source\PSoC5/ADC_SAR_1.c **** void ADC_SAR_1_Enable(void)
 144:.\Generated_Source\PSoC5/ADC_SAR_1.c **** {
 145:.\Generated_Source\PSoC5/ADC_SAR_1.c ****     uint8 tmpReg;
 146:.\Generated_Source\PSoC5/ADC_SAR_1.c ****     uint8 enableInterrupts;
ARM GAS  C:\Users\jason\AppData\Local\Temp\ccZj8gMh.s 			page 4


 147:.\Generated_Source\PSoC5/ADC_SAR_1.c ****     enableInterrupts = CyEnterCriticalSection();
 148:.\Generated_Source\PSoC5/ADC_SAR_1.c **** 
 149:.\Generated_Source\PSoC5/ADC_SAR_1.c ****     /* Enable the SAR ADC block in Active Power Mode */
 150:.\Generated_Source\PSoC5/ADC_SAR_1.c ****     ADC_SAR_1_PWRMGR_SAR_REG |= ADC_SAR_1_ACT_PWR_SAR_EN;
 151:.\Generated_Source\PSoC5/ADC_SAR_1.c **** 
 152:.\Generated_Source\PSoC5/ADC_SAR_1.c ****      /* Enable the SAR ADC in Standby Power Mode*/
 153:.\Generated_Source\PSoC5/ADC_SAR_1.c ****     ADC_SAR_1_STBY_PWRMGR_SAR_REG |= ADC_SAR_1_STBY_PWR_SAR_EN;
 154:.\Generated_Source\PSoC5/ADC_SAR_1.c **** 
 155:.\Generated_Source\PSoC5/ADC_SAR_1.c ****     /* This is only valid if there is an internal clock */
 156:.\Generated_Source\PSoC5/ADC_SAR_1.c ****     #if(ADC_SAR_1_DEFAULT_INTERNAL_CLK)
 157:.\Generated_Source\PSoC5/ADC_SAR_1.c ****         ADC_SAR_1_PWRMGR_CLK_REG |= ADC_SAR_1_ACT_PWR_CLK_EN;
 158:.\Generated_Source\PSoC5/ADC_SAR_1.c ****         ADC_SAR_1_STBY_PWRMGR_CLK_REG |= ADC_SAR_1_STBY_PWR_CLK_EN;
 159:.\Generated_Source\PSoC5/ADC_SAR_1.c ****     #endif /* End ADC_SAR_1_DEFAULT_INTERNAL_CLK */
 160:.\Generated_Source\PSoC5/ADC_SAR_1.c **** 
 161:.\Generated_Source\PSoC5/ADC_SAR_1.c ****     /* Enable VCM buffer and Enable Int Ref Amp */
 162:.\Generated_Source\PSoC5/ADC_SAR_1.c ****     tmpReg = ADC_SAR_1_SAR_CSR3_REG;
 163:.\Generated_Source\PSoC5/ADC_SAR_1.c ****     tmpReg |= ADC_SAR_1_SAR_EN_BUF_VCM_EN;
 164:.\Generated_Source\PSoC5/ADC_SAR_1.c ****     /* PD_BUF_VREF is OFF in External reference or Vdda reference mode */
 165:.\Generated_Source\PSoC5/ADC_SAR_1.c ****     #if((ADC_SAR_1_DEFAULT_REFERENCE == ADC_SAR_1__EXT_REF) || \
 166:.\Generated_Source\PSoC5/ADC_SAR_1.c ****         (ADC_SAR_1_DEFAULT_RANGE == ADC_SAR_1__VNEG_VDDA_DIFF))
 167:.\Generated_Source\PSoC5/ADC_SAR_1.c ****         tmpReg &= (uint8)~ADC_SAR_1_SAR_EN_BUF_VREF_EN;
 168:.\Generated_Source\PSoC5/ADC_SAR_1.c ****     #else /* In INTREF or INTREF Bypassed this buffer is ON */
 169:.\Generated_Source\PSoC5/ADC_SAR_1.c ****         tmpReg |= ADC_SAR_1_SAR_EN_BUF_VREF_EN;
 170:.\Generated_Source\PSoC5/ADC_SAR_1.c ****     #endif /* ADC_SAR_1_DEFAULT_REFERENCE == ADC_SAR_1__EXT_REF */
 171:.\Generated_Source\PSoC5/ADC_SAR_1.c ****     ADC_SAR_1_SAR_CSR3_REG = tmpReg;
 172:.\Generated_Source\PSoC5/ADC_SAR_1.c **** 
 173:.\Generated_Source\PSoC5/ADC_SAR_1.c ****     /* Set reference for ADC */
 174:.\Generated_Source\PSoC5/ADC_SAR_1.c ****     #if(ADC_SAR_1_DEFAULT_RANGE == ADC_SAR_1__VNEG_VDDA_DIFF)
 175:.\Generated_Source\PSoC5/ADC_SAR_1.c ****         #if(ADC_SAR_1_DEFAULT_REFERENCE == ADC_SAR_1__EXT_REF)
 176:.\Generated_Source\PSoC5/ADC_SAR_1.c ****             ADC_SAR_1_SAR_CSR6_REG = ADC_SAR_1_INT_BYPASS_EXT_VREF; /* S2 */
 177:.\Generated_Source\PSoC5/ADC_SAR_1.c ****         #else /* Internal Vdda reference or obsolete bypass mode */
 178:.\Generated_Source\PSoC5/ADC_SAR_1.c ****             ADC_SAR_1_SAR_CSR6_REG = ADC_SAR_1_VDDA_VREF;           /* S7 */
 179:.\Generated_Source\PSoC5/ADC_SAR_1.c ****         #endif /* ADC_SAR_1_DEFAULT_REFERENCE == ADC_SAR_1__EXT_REF */
 180:.\Generated_Source\PSoC5/ADC_SAR_1.c ****     #else  /* Reference goes through internal buffer */
 181:.\Generated_Source\PSoC5/ADC_SAR_1.c ****         #if(ADC_SAR_1_DEFAULT_REFERENCE == ADC_SAR_1__INT_REF_NOT_BYPASSED)
 182:.\Generated_Source\PSoC5/ADC_SAR_1.c ****             ADC_SAR_1_SAR_CSR6_REG = ADC_SAR_1_INT_VREF;            /* S3 + S4 */
 183:.\Generated_Source\PSoC5/ADC_SAR_1.c ****         #else /* INTREF Bypassed of External */
 184:.\Generated_Source\PSoC5/ADC_SAR_1.c ****             ADC_SAR_1_SAR_CSR6_REG = ADC_SAR_1_INT_BYPASS_EXT_VREF; /* S2 */
 185:.\Generated_Source\PSoC5/ADC_SAR_1.c ****         #endif /* ADC_SAR_1_DEFAULT_REFERENCE == ADC_SAR_1__INT_REF_NOT_BYPASSED */
 186:.\Generated_Source\PSoC5/ADC_SAR_1.c ****     #endif /* VNEG_VDDA_DIFF */
 187:.\Generated_Source\PSoC5/ADC_SAR_1.c **** 
 188:.\Generated_Source\PSoC5/ADC_SAR_1.c ****     /* Low non-overlap delay for sampling clock signals (for 1MSPS) */
 189:.\Generated_Source\PSoC5/ADC_SAR_1.c ****     #if(ADC_SAR_1_HIGH_POWER_PULSE == 0u) /* MinPulseWidth <= 50 ns */
 190:.\Generated_Source\PSoC5/ADC_SAR_1.c ****         ADC_SAR_1_SAR_CSR5_REG &= (uint8)~ADC_SAR_1_SAR_DLY_INC;
 191:.\Generated_Source\PSoC5/ADC_SAR_1.c ****     #else /* Set High non-overlap delay for sampling clock signals (for <500KSPS)*/
 192:.\Generated_Source\PSoC5/ADC_SAR_1.c ****         ADC_SAR_1_SAR_CSR5_REG |= ADC_SAR_1_SAR_DLY_INC;
 193:.\Generated_Source\PSoC5/ADC_SAR_1.c ****     #endif /* ADC_SAR_1_HIGH_POWER_PULSE == 0u */
 194:.\Generated_Source\PSoC5/ADC_SAR_1.c **** 
 195:.\Generated_Source\PSoC5/ADC_SAR_1.c ****     /* Increase comparator latch enable delay by 20%, 
 196:.\Generated_Source\PSoC5/ADC_SAR_1.c ****     *  Increase comparator bias current by 30% without impacting delaysDelay 
 197:.\Generated_Source\PSoC5/ADC_SAR_1.c ****     *  Default for 1MSPS) 
 198:.\Generated_Source\PSoC5/ADC_SAR_1.c ****     */
 199:.\Generated_Source\PSoC5/ADC_SAR_1.c ****     #if(ADC_SAR_1_HIGH_POWER_PULSE == 0u)    /* MinPulseWidth <= 50 ns */
 200:.\Generated_Source\PSoC5/ADC_SAR_1.c ****         ADC_SAR_1_SAR_CSR5_REG |= ADC_SAR_1_SAR_SEL_CSEL_DFT_CHAR;
 201:.\Generated_Source\PSoC5/ADC_SAR_1.c ****     #else /* for <500ksps */
 202:.\Generated_Source\PSoC5/ADC_SAR_1.c ****         ADC_SAR_1_SAR_CSR5_REG &= (uint8)~ADC_SAR_1_SAR_SEL_CSEL_DFT_CHAR;
 203:.\Generated_Source\PSoC5/ADC_SAR_1.c ****     #endif /* ADC_SAR_1_HIGH_POWER_PULSE == 0u */
ARM GAS  C:\Users\jason\AppData\Local\Temp\ccZj8gMh.s 			page 5


 204:.\Generated_Source\PSoC5/ADC_SAR_1.c **** 
 205:.\Generated_Source\PSoC5/ADC_SAR_1.c ****     /* Set default power and other configurations for control register 0 in multiple lines */
 206:.\Generated_Source\PSoC5/ADC_SAR_1.c ****     ADC_SAR_1_SAR_CSR0_REG = (uint8)((uint8)ADC_SAR_1_DEFAULT_POWER << ADC_SAR_1_SAR_POWER_SHIFT)
 207:.\Generated_Source\PSoC5/ADC_SAR_1.c ****     /* SAR_HIZ_CLEAR:   Should not be used for LP */
 208:.\Generated_Source\PSoC5/ADC_SAR_1.c ****     #if ((CY_PSOC5LP) || (ADC_SAR_1_DEFAULT_REFERENCE != ADC_SAR_1__EXT_REF))
 209:.\Generated_Source\PSoC5/ADC_SAR_1.c ****         | ADC_SAR_1_SAR_HIZ_CLEAR
 210:.\Generated_Source\PSoC5/ADC_SAR_1.c ****     #endif /* SAR_HIZ_CLEAR */
 211:.\Generated_Source\PSoC5/ADC_SAR_1.c ****     /*Set Convertion mode */
 212:.\Generated_Source\PSoC5/ADC_SAR_1.c ****     #if(ADC_SAR_1_DEFAULT_CONV_MODE != ADC_SAR_1__FREE_RUNNING)      /* If triggered mode */
 213:.\Generated_Source\PSoC5/ADC_SAR_1.c ****         | ADC_SAR_1_SAR_MX_SOF_UDB           /* source: UDB */
 214:.\Generated_Source\PSoC5/ADC_SAR_1.c ****         | ADC_SAR_1_SAR_SOF_MODE_EDGE        /* Set edge-sensitive sof source */
 215:.\Generated_Source\PSoC5/ADC_SAR_1.c ****     #endif /* ADC_SAR_1_DEFAULT_CONV_MODE */
 216:.\Generated_Source\PSoC5/ADC_SAR_1.c ****     ; /* end of multiple line initialization */
 217:.\Generated_Source\PSoC5/ADC_SAR_1.c **** 
 218:.\Generated_Source\PSoC5/ADC_SAR_1.c ****     ADC_SAR_1_SAR_TR0_REG = ADC_SAR_1_SAR_CAP_TRIM_2;
 219:.\Generated_Source\PSoC5/ADC_SAR_1.c **** 
 220:.\Generated_Source\PSoC5/ADC_SAR_1.c ****     /* Enable clock for SAR ADC*/
 221:.\Generated_Source\PSoC5/ADC_SAR_1.c ****     ADC_SAR_1_SAR_CLK_REG |= ADC_SAR_1_SAR_MX_CLK_EN;
 222:.\Generated_Source\PSoC5/ADC_SAR_1.c **** 
 223:.\Generated_Source\PSoC5/ADC_SAR_1.c ****     CyDelayUs(10u); /* The block is ready to use 10 us after the enable signal is set high. */
 224:.\Generated_Source\PSoC5/ADC_SAR_1.c **** 
 225:.\Generated_Source\PSoC5/ADC_SAR_1.c ****     #if(ADC_SAR_1_IRQ_REMOVE == 0u)
 226:.\Generated_Source\PSoC5/ADC_SAR_1.c ****         /* Clear a pending interrupt */
 227:.\Generated_Source\PSoC5/ADC_SAR_1.c ****         CyIntClearPending(ADC_SAR_1_INTC_NUMBER);
 228:.\Generated_Source\PSoC5/ADC_SAR_1.c ****     #endif   /* End ADC_SAR_1_IRQ_REMOVE */
 229:.\Generated_Source\PSoC5/ADC_SAR_1.c **** 
 230:.\Generated_Source\PSoC5/ADC_SAR_1.c ****     CyExitCriticalSection(enableInterrupts);
 231:.\Generated_Source\PSoC5/ADC_SAR_1.c **** }
 232:.\Generated_Source\PSoC5/ADC_SAR_1.c **** 
 233:.\Generated_Source\PSoC5/ADC_SAR_1.c **** 
 234:.\Generated_Source\PSoC5/ADC_SAR_1.c **** /*******************************************************************************
 235:.\Generated_Source\PSoC5/ADC_SAR_1.c **** * Function Name: ADC_SAR_1_Stop
 236:.\Generated_Source\PSoC5/ADC_SAR_1.c **** ********************************************************************************
 237:.\Generated_Source\PSoC5/ADC_SAR_1.c **** *
 238:.\Generated_Source\PSoC5/ADC_SAR_1.c **** * Summary:
 239:.\Generated_Source\PSoC5/ADC_SAR_1.c **** *  Stops ADC conversions and puts the ADC into its lowest power mode.
 240:.\Generated_Source\PSoC5/ADC_SAR_1.c **** *
 241:.\Generated_Source\PSoC5/ADC_SAR_1.c **** * Parameters:
 242:.\Generated_Source\PSoC5/ADC_SAR_1.c **** *  None.
 243:.\Generated_Source\PSoC5/ADC_SAR_1.c **** *
 244:.\Generated_Source\PSoC5/ADC_SAR_1.c **** * Return:
 245:.\Generated_Source\PSoC5/ADC_SAR_1.c **** *  None.
 246:.\Generated_Source\PSoC5/ADC_SAR_1.c **** *
 247:.\Generated_Source\PSoC5/ADC_SAR_1.c **** *******************************************************************************/
 248:.\Generated_Source\PSoC5/ADC_SAR_1.c **** void ADC_SAR_1_Stop(void)
 249:.\Generated_Source\PSoC5/ADC_SAR_1.c **** {
 250:.\Generated_Source\PSoC5/ADC_SAR_1.c ****     uint8 enableInterrupts;
 251:.\Generated_Source\PSoC5/ADC_SAR_1.c ****     enableInterrupts = CyEnterCriticalSection();
 252:.\Generated_Source\PSoC5/ADC_SAR_1.c **** 
 253:.\Generated_Source\PSoC5/ADC_SAR_1.c ****     /* Stop all conversions */
 254:.\Generated_Source\PSoC5/ADC_SAR_1.c ****     ADC_SAR_1_SAR_CSR0_REG &= (uint8)~ADC_SAR_1_SAR_SOF_START_CONV;
 255:.\Generated_Source\PSoC5/ADC_SAR_1.c ****     /* Disable the SAR ADC block in Active Power Mode */
 256:.\Generated_Source\PSoC5/ADC_SAR_1.c ****     ADC_SAR_1_PWRMGR_SAR_REG &= (uint8)~ADC_SAR_1_ACT_PWR_SAR_EN;
 257:.\Generated_Source\PSoC5/ADC_SAR_1.c ****     /* Disable the SAR ADC in Standby Power Mode */
 258:.\Generated_Source\PSoC5/ADC_SAR_1.c ****     ADC_SAR_1_STBY_PWRMGR_SAR_REG &= (uint8)~ADC_SAR_1_STBY_PWR_SAR_EN;
 259:.\Generated_Source\PSoC5/ADC_SAR_1.c **** 
 260:.\Generated_Source\PSoC5/ADC_SAR_1.c ****     /* This is only valid if there is an internal clock */
ARM GAS  C:\Users\jason\AppData\Local\Temp\ccZj8gMh.s 			page 6


 261:.\Generated_Source\PSoC5/ADC_SAR_1.c ****     #if(ADC_SAR_1_DEFAULT_INTERNAL_CLK)
 262:.\Generated_Source\PSoC5/ADC_SAR_1.c ****         ADC_SAR_1_PWRMGR_CLK_REG &= (uint8)~ADC_SAR_1_ACT_PWR_CLK_EN;
 263:.\Generated_Source\PSoC5/ADC_SAR_1.c ****         ADC_SAR_1_STBY_PWRMGR_CLK_REG &= (uint8)~ADC_SAR_1_STBY_PWR_CLK_EN;
 264:.\Generated_Source\PSoC5/ADC_SAR_1.c ****     #endif /* End ADC_SAR_1_DEFAULT_INTERNAL_CLK */
 265:.\Generated_Source\PSoC5/ADC_SAR_1.c **** 
 266:.\Generated_Source\PSoC5/ADC_SAR_1.c ****     CyExitCriticalSection(enableInterrupts);
 267:.\Generated_Source\PSoC5/ADC_SAR_1.c **** 
 268:.\Generated_Source\PSoC5/ADC_SAR_1.c **** }
 269:.\Generated_Source\PSoC5/ADC_SAR_1.c **** 
 270:.\Generated_Source\PSoC5/ADC_SAR_1.c **** 
 271:.\Generated_Source\PSoC5/ADC_SAR_1.c **** /*******************************************************************************
 272:.\Generated_Source\PSoC5/ADC_SAR_1.c **** * Function Name: ADC_SAR_1_SetPower
 273:.\Generated_Source\PSoC5/ADC_SAR_1.c **** ********************************************************************************
 274:.\Generated_Source\PSoC5/ADC_SAR_1.c **** *
 275:.\Generated_Source\PSoC5/ADC_SAR_1.c **** * Summary:
 276:.\Generated_Source\PSoC5/ADC_SAR_1.c **** *  Sets the operational power of the ADC. You should use the higher power
 277:.\Generated_Source\PSoC5/ADC_SAR_1.c **** *  settings with faster clock speeds.
 278:.\Generated_Source\PSoC5/ADC_SAR_1.c **** *
 279:.\Generated_Source\PSoC5/ADC_SAR_1.c **** * Parameters:
 280:.\Generated_Source\PSoC5/ADC_SAR_1.c **** *  power:  Power setting for ADC
 281:.\Generated_Source\PSoC5/ADC_SAR_1.c **** *  0 ->    Normal
 282:.\Generated_Source\PSoC5/ADC_SAR_1.c **** *  1 ->    Medium power
 283:.\Generated_Source\PSoC5/ADC_SAR_1.c **** *  2 ->    1.25 power
 284:.\Generated_Source\PSoC5/ADC_SAR_1.c **** *  3 ->    Minimum power.
 285:.\Generated_Source\PSoC5/ADC_SAR_1.c **** *
 286:.\Generated_Source\PSoC5/ADC_SAR_1.c **** * Return:
 287:.\Generated_Source\PSoC5/ADC_SAR_1.c **** *  None.
 288:.\Generated_Source\PSoC5/ADC_SAR_1.c **** *
 289:.\Generated_Source\PSoC5/ADC_SAR_1.c **** *******************************************************************************/
 290:.\Generated_Source\PSoC5/ADC_SAR_1.c **** void ADC_SAR_1_SetPower(uint8 power)
 291:.\Generated_Source\PSoC5/ADC_SAR_1.c **** {
 292:.\Generated_Source\PSoC5/ADC_SAR_1.c ****     uint8 tmpReg;
 293:.\Generated_Source\PSoC5/ADC_SAR_1.c **** 
 294:.\Generated_Source\PSoC5/ADC_SAR_1.c ****     /* mask off invalid power settings */
 295:.\Generated_Source\PSoC5/ADC_SAR_1.c ****     power &= ADC_SAR_1_SAR_API_POWER_MASK;
 296:.\Generated_Source\PSoC5/ADC_SAR_1.c **** 
 297:.\Generated_Source\PSoC5/ADC_SAR_1.c ****     /* Set Power parameter  */
 298:.\Generated_Source\PSoC5/ADC_SAR_1.c ****     tmpReg = ADC_SAR_1_SAR_CSR0_REG & (uint8)~ADC_SAR_1_SAR_POWER_MASK;
 299:.\Generated_Source\PSoC5/ADC_SAR_1.c ****     tmpReg |= (uint8)(power << ADC_SAR_1_SAR_POWER_SHIFT);
 300:.\Generated_Source\PSoC5/ADC_SAR_1.c ****     ADC_SAR_1_SAR_CSR0_REG = tmpReg;
 301:.\Generated_Source\PSoC5/ADC_SAR_1.c **** }
 302:.\Generated_Source\PSoC5/ADC_SAR_1.c **** 
 303:.\Generated_Source\PSoC5/ADC_SAR_1.c **** 
 304:.\Generated_Source\PSoC5/ADC_SAR_1.c **** /*******************************************************************************
 305:.\Generated_Source\PSoC5/ADC_SAR_1.c **** * Function Name: ADC_SAR_1_SetResolution
 306:.\Generated_Source\PSoC5/ADC_SAR_1.c **** ********************************************************************************
 307:.\Generated_Source\PSoC5/ADC_SAR_1.c **** *
 308:.\Generated_Source\PSoC5/ADC_SAR_1.c **** * Summary:
 309:.\Generated_Source\PSoC5/ADC_SAR_1.c **** *  Sets the Relution of the SAR.
 310:.\Generated_Source\PSoC5/ADC_SAR_1.c **** *
 311:.\Generated_Source\PSoC5/ADC_SAR_1.c **** * Parameters:
 312:.\Generated_Source\PSoC5/ADC_SAR_1.c **** *  resolution:
 313:.\Generated_Source\PSoC5/ADC_SAR_1.c **** *  12 ->    RES12
 314:.\Generated_Source\PSoC5/ADC_SAR_1.c **** *  10 ->    RES10
 315:.\Generated_Source\PSoC5/ADC_SAR_1.c **** *  8  ->    RES8
 316:.\Generated_Source\PSoC5/ADC_SAR_1.c **** *
 317:.\Generated_Source\PSoC5/ADC_SAR_1.c **** * Return:
ARM GAS  C:\Users\jason\AppData\Local\Temp\ccZj8gMh.s 			page 7


 318:.\Generated_Source\PSoC5/ADC_SAR_1.c **** *  None.
 319:.\Generated_Source\PSoC5/ADC_SAR_1.c **** *
 320:.\Generated_Source\PSoC5/ADC_SAR_1.c **** * Side Effects:
 321:.\Generated_Source\PSoC5/ADC_SAR_1.c **** *  The ADC resolution cannot be changed during a conversion cycle. The
 322:.\Generated_Source\PSoC5/ADC_SAR_1.c **** *  recommended best practice is to stop conversions with
 323:.\Generated_Source\PSoC5/ADC_SAR_1.c **** *  ADC_StopConvert(), change the resolution, then restart the
 324:.\Generated_Source\PSoC5/ADC_SAR_1.c **** *  conversions with ADC_StartConvert().
 325:.\Generated_Source\PSoC5/ADC_SAR_1.c **** *  If you decide not to stop conversions before calling this API, you
 326:.\Generated_Source\PSoC5/ADC_SAR_1.c **** *  should use ADC_IsEndConversion() to wait until conversion is complete
 327:.\Generated_Source\PSoC5/ADC_SAR_1.c **** *  before changing the resolution.
 328:.\Generated_Source\PSoC5/ADC_SAR_1.c **** *  If you call ADC_SetResolution() during a conversion, the resolution will
 329:.\Generated_Source\PSoC5/ADC_SAR_1.c **** *  not be changed until the current conversion is complete. Data will not be
 330:.\Generated_Source\PSoC5/ADC_SAR_1.c **** *  available in the new resolution for another 6 + "New Resolution(in bits)"
 331:.\Generated_Source\PSoC5/ADC_SAR_1.c **** *  clock cycles.
 332:.\Generated_Source\PSoC5/ADC_SAR_1.c **** *  You may need add a delay of this number of clock cycles after
 333:.\Generated_Source\PSoC5/ADC_SAR_1.c **** *  ADC_SetResolution() is called before data is valid again.
 334:.\Generated_Source\PSoC5/ADC_SAR_1.c **** *  Affects ADC_CountsTo_Volts(), ADC_CountsTo_mVolts(), and
 335:.\Generated_Source\PSoC5/ADC_SAR_1.c **** *  ADC_CountsTo_uVolts() by calculating the correct conversion between ADC
 336:.\Generated_Source\PSoC5/ADC_SAR_1.c **** *  counts and the applied input voltage. Calculation depends on resolution,
 337:.\Generated_Source\PSoC5/ADC_SAR_1.c **** *  input range, and voltage reference.
 338:.\Generated_Source\PSoC5/ADC_SAR_1.c **** *
 339:.\Generated_Source\PSoC5/ADC_SAR_1.c **** *******************************************************************************/
 340:.\Generated_Source\PSoC5/ADC_SAR_1.c **** void ADC_SAR_1_SetResolution(uint8 resolution)
 341:.\Generated_Source\PSoC5/ADC_SAR_1.c **** {
 342:.\Generated_Source\PSoC5/ADC_SAR_1.c ****     uint8 tmpReg;
 343:.\Generated_Source\PSoC5/ADC_SAR_1.c **** 
 344:.\Generated_Source\PSoC5/ADC_SAR_1.c ****     /* Set SAR ADC resolution and sample width: 18 conversion cycles at 12bits + 1 gap */
 345:.\Generated_Source\PSoC5/ADC_SAR_1.c ****     switch (resolution)
 346:.\Generated_Source\PSoC5/ADC_SAR_1.c ****     {
 347:.\Generated_Source\PSoC5/ADC_SAR_1.c ****         case (uint8)ADC_SAR_1__BITS_12:
 348:.\Generated_Source\PSoC5/ADC_SAR_1.c ****             tmpReg = ADC_SAR_1_SAR_RESOLUTION_12BIT | ADC_SAR_1_SAR_SAMPLE_WIDTH;
 349:.\Generated_Source\PSoC5/ADC_SAR_1.c ****             break;
 350:.\Generated_Source\PSoC5/ADC_SAR_1.c ****         case (uint8)ADC_SAR_1__BITS_10:
 351:.\Generated_Source\PSoC5/ADC_SAR_1.c ****             tmpReg = ADC_SAR_1_SAR_RESOLUTION_10BIT | ADC_SAR_1_SAR_SAMPLE_WIDTH;
 352:.\Generated_Source\PSoC5/ADC_SAR_1.c ****             break;
 353:.\Generated_Source\PSoC5/ADC_SAR_1.c ****         case (uint8)ADC_SAR_1__BITS_8:
 354:.\Generated_Source\PSoC5/ADC_SAR_1.c ****             tmpReg = ADC_SAR_1_SAR_RESOLUTION_8BIT | ADC_SAR_1_SAR_SAMPLE_WIDTH;
 355:.\Generated_Source\PSoC5/ADC_SAR_1.c ****             break;
 356:.\Generated_Source\PSoC5/ADC_SAR_1.c ****         default:
 357:.\Generated_Source\PSoC5/ADC_SAR_1.c ****             tmpReg = ADC_SAR_1_SAR_RESOLUTION_12BIT | ADC_SAR_1_SAR_SAMPLE_WIDTH;
 358:.\Generated_Source\PSoC5/ADC_SAR_1.c ****             /* Halt CPU in debug mode if resolution is out of valid range */
 359:.\Generated_Source\PSoC5/ADC_SAR_1.c ****             CYASSERT(0u != 0u);
 360:.\Generated_Source\PSoC5/ADC_SAR_1.c ****             break;
 361:.\Generated_Source\PSoC5/ADC_SAR_1.c ****     }
 362:.\Generated_Source\PSoC5/ADC_SAR_1.c ****     ADC_SAR_1_SAR_CSR2_REG = tmpReg;
 363:.\Generated_Source\PSoC5/ADC_SAR_1.c **** 
 364:.\Generated_Source\PSoC5/ADC_SAR_1.c ****      /* Calculate gain for convert counts to volts */
 365:.\Generated_Source\PSoC5/ADC_SAR_1.c ****     ADC_SAR_1_CalcGain(resolution);
 366:.\Generated_Source\PSoC5/ADC_SAR_1.c **** }
 367:.\Generated_Source\PSoC5/ADC_SAR_1.c **** 
 368:.\Generated_Source\PSoC5/ADC_SAR_1.c **** 
 369:.\Generated_Source\PSoC5/ADC_SAR_1.c **** #if(ADC_SAR_1_DEFAULT_CONV_MODE != ADC_SAR_1__HARDWARE_TRIGGER)
 370:.\Generated_Source\PSoC5/ADC_SAR_1.c **** 
 371:.\Generated_Source\PSoC5/ADC_SAR_1.c **** 
 372:.\Generated_Source\PSoC5/ADC_SAR_1.c ****     /*******************************************************************************
 373:.\Generated_Source\PSoC5/ADC_SAR_1.c ****     * Function Name: ADC_SAR_1_StartConvert
 374:.\Generated_Source\PSoC5/ADC_SAR_1.c ****     ********************************************************************************
ARM GAS  C:\Users\jason\AppData\Local\Temp\ccZj8gMh.s 			page 8


 375:.\Generated_Source\PSoC5/ADC_SAR_1.c ****     *
 376:.\Generated_Source\PSoC5/ADC_SAR_1.c ****     * Summary:
 377:.\Generated_Source\PSoC5/ADC_SAR_1.c ****     *  Forces the ADC to initiate a conversion. In free-running mode, the ADC runs
 378:.\Generated_Source\PSoC5/ADC_SAR_1.c ****     *  continuously. In software trigger mode, the function also acts as a software
 379:.\Generated_Source\PSoC5/ADC_SAR_1.c ****     *  version of the SOC and every conversion must be triggered by
 380:.\Generated_Source\PSoC5/ADC_SAR_1.c ****     *  ADC_SAR_1_StartConvert(). This function is not available when the
 381:.\Generated_Source\PSoC5/ADC_SAR_1.c ****     *  Hardware Trigger sample mode is selected.
 382:.\Generated_Source\PSoC5/ADC_SAR_1.c ****     *
 383:.\Generated_Source\PSoC5/ADC_SAR_1.c ****     * Parameters:
 384:.\Generated_Source\PSoC5/ADC_SAR_1.c ****     *  None.
 385:.\Generated_Source\PSoC5/ADC_SAR_1.c ****     *
 386:.\Generated_Source\PSoC5/ADC_SAR_1.c ****     * Return:
 387:.\Generated_Source\PSoC5/ADC_SAR_1.c ****     *  None.
 388:.\Generated_Source\PSoC5/ADC_SAR_1.c ****     *
 389:.\Generated_Source\PSoC5/ADC_SAR_1.c ****     * Theory:
 390:.\Generated_Source\PSoC5/ADC_SAR_1.c ****     *  Forces the ADC to initiate a conversion. In Free Running mode, the ADC will
 391:.\Generated_Source\PSoC5/ADC_SAR_1.c ****     *  run continuously. In a software trigger mode the function also acts as a
 392:.\Generated_Source\PSoC5/ADC_SAR_1.c ****     *  software version of the SOC. Here every conversion has to be triggered by
 393:.\Generated_Source\PSoC5/ADC_SAR_1.c ****     *  the routine. This writes into the SOC bit in SAR_CTRL reg.
 394:.\Generated_Source\PSoC5/ADC_SAR_1.c ****     *
 395:.\Generated_Source\PSoC5/ADC_SAR_1.c ****     * Side Effects:
 396:.\Generated_Source\PSoC5/ADC_SAR_1.c ****     *  In a software trigger mode the function switches source for SOF from the
 397:.\Generated_Source\PSoC5/ADC_SAR_1.c ****     *  external pin to the internal SOF generation. Application should not call
 398:.\Generated_Source\PSoC5/ADC_SAR_1.c ****     *  StartConvert if external source used for SOF.
 399:.\Generated_Source\PSoC5/ADC_SAR_1.c ****     *
 400:.\Generated_Source\PSoC5/ADC_SAR_1.c ****     *******************************************************************************/
 401:.\Generated_Source\PSoC5/ADC_SAR_1.c ****     void ADC_SAR_1_StartConvert(void)
 402:.\Generated_Source\PSoC5/ADC_SAR_1.c ****     {
 403:.\Generated_Source\PSoC5/ADC_SAR_1.c ****         #if(ADC_SAR_1_DEFAULT_CONV_MODE != ADC_SAR_1__FREE_RUNNING)  /* If software triggered mode 
 404:.\Generated_Source\PSoC5/ADC_SAR_1.c ****             ADC_SAR_1_SAR_CSR0_REG &= (uint8)~ADC_SAR_1_SAR_MX_SOF_UDB;   /* source: SOF bit */
 405:.\Generated_Source\PSoC5/ADC_SAR_1.c ****         #endif /* End ADC_SAR_1_DEFAULT_CONV_MODE */
 406:.\Generated_Source\PSoC5/ADC_SAR_1.c **** 
 407:.\Generated_Source\PSoC5/ADC_SAR_1.c ****         /* Start the conversion */
 408:.\Generated_Source\PSoC5/ADC_SAR_1.c ****         ADC_SAR_1_SAR_CSR0_REG |= ADC_SAR_1_SAR_SOF_START_CONV;
 409:.\Generated_Source\PSoC5/ADC_SAR_1.c ****     }
 410:.\Generated_Source\PSoC5/ADC_SAR_1.c **** 
 411:.\Generated_Source\PSoC5/ADC_SAR_1.c **** 
 412:.\Generated_Source\PSoC5/ADC_SAR_1.c ****     /*******************************************************************************
 413:.\Generated_Source\PSoC5/ADC_SAR_1.c ****     * Function Name: ADC_SAR_1_StopConvert
 414:.\Generated_Source\PSoC5/ADC_SAR_1.c ****     ********************************************************************************
 415:.\Generated_Source\PSoC5/ADC_SAR_1.c ****     *
 416:.\Generated_Source\PSoC5/ADC_SAR_1.c ****     * Summary:
 417:.\Generated_Source\PSoC5/ADC_SAR_1.c ****     *  Forces the ADC to stop conversions. If a conversion is currently executing,
 418:.\Generated_Source\PSoC5/ADC_SAR_1.c ****     *  that conversion will complete, but no further conversions will occur. This
 419:.\Generated_Source\PSoC5/ADC_SAR_1.c ****     *  function is not available when the Hardware Trigger sample mode is selected.
 420:.\Generated_Source\PSoC5/ADC_SAR_1.c ****     *
 421:.\Generated_Source\PSoC5/ADC_SAR_1.c ****     * Parameters:
 422:.\Generated_Source\PSoC5/ADC_SAR_1.c ****     *  None.
 423:.\Generated_Source\PSoC5/ADC_SAR_1.c ****     *
 424:.\Generated_Source\PSoC5/ADC_SAR_1.c ****     * Return:
 425:.\Generated_Source\PSoC5/ADC_SAR_1.c ****     *  None.
 426:.\Generated_Source\PSoC5/ADC_SAR_1.c ****     *
 427:.\Generated_Source\PSoC5/ADC_SAR_1.c ****     * Theory:
 428:.\Generated_Source\PSoC5/ADC_SAR_1.c ****     *  Stops ADC conversion in Free Running mode.
 429:.\Generated_Source\PSoC5/ADC_SAR_1.c ****     *
 430:.\Generated_Source\PSoC5/ADC_SAR_1.c ****     * Side Effects:
 431:.\Generated_Source\PSoC5/ADC_SAR_1.c ****     *  In Software Trigger sample mode, this function sets a software version of the
ARM GAS  C:\Users\jason\AppData\Local\Temp\ccZj8gMh.s 			page 9


 432:.\Generated_Source\PSoC5/ADC_SAR_1.c ****     *  SOC to low level and switches the SOC source to hardware SOC input.
 433:.\Generated_Source\PSoC5/ADC_SAR_1.c ****     *
 434:.\Generated_Source\PSoC5/ADC_SAR_1.c ****     *******************************************************************************/
 435:.\Generated_Source\PSoC5/ADC_SAR_1.c ****     void ADC_SAR_1_StopConvert(void)
 436:.\Generated_Source\PSoC5/ADC_SAR_1.c ****     {
 437:.\Generated_Source\PSoC5/ADC_SAR_1.c ****         /* Stop all conversions */
 438:.\Generated_Source\PSoC5/ADC_SAR_1.c ****         ADC_SAR_1_SAR_CSR0_REG &= (uint8)~ADC_SAR_1_SAR_SOF_START_CONV;
 439:.\Generated_Source\PSoC5/ADC_SAR_1.c **** 
 440:.\Generated_Source\PSoC5/ADC_SAR_1.c ****         #if(ADC_SAR_1_DEFAULT_CONV_MODE != ADC_SAR_1__FREE_RUNNING)  /* If software triggered mode 
 441:.\Generated_Source\PSoC5/ADC_SAR_1.c ****             /* Return source to UDB for hardware SOF signal */
 442:.\Generated_Source\PSoC5/ADC_SAR_1.c ****             ADC_SAR_1_SAR_CSR0_REG |= ADC_SAR_1_SAR_MX_SOF_UDB;    /* source: UDB */
 443:.\Generated_Source\PSoC5/ADC_SAR_1.c ****         #endif /* End ADC_SAR_1_DEFAULT_CONV_MODE */
 444:.\Generated_Source\PSoC5/ADC_SAR_1.c **** 
 445:.\Generated_Source\PSoC5/ADC_SAR_1.c ****     }
 446:.\Generated_Source\PSoC5/ADC_SAR_1.c **** 
 447:.\Generated_Source\PSoC5/ADC_SAR_1.c **** #endif /* End ADC_SAR_1_DEFAULT_CONV_MODE != ADC_SAR_1__HARDWARE_TRIGGER */
 448:.\Generated_Source\PSoC5/ADC_SAR_1.c **** 
 449:.\Generated_Source\PSoC5/ADC_SAR_1.c **** 
 450:.\Generated_Source\PSoC5/ADC_SAR_1.c **** /*******************************************************************************
 451:.\Generated_Source\PSoC5/ADC_SAR_1.c **** * Function Name: ADC_SAR_1_IsEndConversion
 452:.\Generated_Source\PSoC5/ADC_SAR_1.c **** ********************************************************************************
 453:.\Generated_Source\PSoC5/ADC_SAR_1.c **** *
 454:.\Generated_Source\PSoC5/ADC_SAR_1.c **** * Summary:
 455:.\Generated_Source\PSoC5/ADC_SAR_1.c **** *  Immediately returns the status of the conversion or does not return
 456:.\Generated_Source\PSoC5/ADC_SAR_1.c **** *  (blocking) until the conversion completes, depending on the retMode
 457:.\Generated_Source\PSoC5/ADC_SAR_1.c **** *  parameter.
 458:.\Generated_Source\PSoC5/ADC_SAR_1.c **** *
 459:.\Generated_Source\PSoC5/ADC_SAR_1.c **** * Parameters:
 460:.\Generated_Source\PSoC5/ADC_SAR_1.c **** *  retMode:  Check conversion return mode.
 461:.\Generated_Source\PSoC5/ADC_SAR_1.c **** *   ADC_SAR_1_RETURN_STATUS: Immediately returns the status. If the
 462:.\Generated_Source\PSoC5/ADC_SAR_1.c **** *     value returned is zero, the conversion is not complete, and this function
 463:.\Generated_Source\PSoC5/ADC_SAR_1.c **** *     should be retried until a nonzero result is returned.
 464:.\Generated_Source\PSoC5/ADC_SAR_1.c **** *   ADC_SAR_1_WAIT_FOR_RESULT: Does not return a result until the ADC
 465:.\Generated_Source\PSoC5/ADC_SAR_1.c **** *     conversion is complete.
 466:.\Generated_Source\PSoC5/ADC_SAR_1.c **** *
 467:.\Generated_Source\PSoC5/ADC_SAR_1.c **** * Return:
 468:.\Generated_Source\PSoC5/ADC_SAR_1.c **** *  (uint8)  0 =>  The ADC is still calculating the last result.
 469:.\Generated_Source\PSoC5/ADC_SAR_1.c **** *           1 =>  The last conversion is complete.
 470:.\Generated_Source\PSoC5/ADC_SAR_1.c **** *
 471:.\Generated_Source\PSoC5/ADC_SAR_1.c **** * Side Effects:
 472:.\Generated_Source\PSoC5/ADC_SAR_1.c **** *  This function reads the end of conversion status, which is cleared on read.
 473:.\Generated_Source\PSoC5/ADC_SAR_1.c **** *
 474:.\Generated_Source\PSoC5/ADC_SAR_1.c **** *******************************************************************************/
 475:.\Generated_Source\PSoC5/ADC_SAR_1.c **** uint8 ADC_SAR_1_IsEndConversion(uint8 retMode)
 476:.\Generated_Source\PSoC5/ADC_SAR_1.c **** {
 477:.\Generated_Source\PSoC5/ADC_SAR_1.c ****     uint8 status;
 478:.\Generated_Source\PSoC5/ADC_SAR_1.c **** 
 479:.\Generated_Source\PSoC5/ADC_SAR_1.c ****     do
 480:.\Generated_Source\PSoC5/ADC_SAR_1.c ****     {
 481:.\Generated_Source\PSoC5/ADC_SAR_1.c ****         status = ADC_SAR_1_SAR_CSR1_REG & ADC_SAR_1_SAR_EOF_1;
 482:.\Generated_Source\PSoC5/ADC_SAR_1.c ****     } while ((status != ADC_SAR_1_SAR_EOF_1) && (retMode == ADC_SAR_1_WAIT_FOR_RESULT));
 483:.\Generated_Source\PSoC5/ADC_SAR_1.c ****     /* If convertion complete, wait until EOF bit released */
 484:.\Generated_Source\PSoC5/ADC_SAR_1.c ****     if(status == ADC_SAR_1_SAR_EOF_1)
 485:.\Generated_Source\PSoC5/ADC_SAR_1.c ****     {
 486:.\Generated_Source\PSoC5/ADC_SAR_1.c ****         /* wait one ADC clock to let the EOC status bit release */
 487:.\Generated_Source\PSoC5/ADC_SAR_1.c ****         CyDelayUs(1u);
 488:.\Generated_Source\PSoC5/ADC_SAR_1.c ****         /* Do the unconditional read operation of the CSR1 register to make sure the EOC bit has be
ARM GAS  C:\Users\jason\AppData\Local\Temp\ccZj8gMh.s 			page 10


 489:.\Generated_Source\PSoC5/ADC_SAR_1.c ****         CY_GET_REG8(ADC_SAR_1_SAR_CSR1_PTR);
 490:.\Generated_Source\PSoC5/ADC_SAR_1.c ****     }
 491:.\Generated_Source\PSoC5/ADC_SAR_1.c **** 
 492:.\Generated_Source\PSoC5/ADC_SAR_1.c ****     return(status);
 493:.\Generated_Source\PSoC5/ADC_SAR_1.c **** }
 494:.\Generated_Source\PSoC5/ADC_SAR_1.c **** 
 495:.\Generated_Source\PSoC5/ADC_SAR_1.c **** 
 496:.\Generated_Source\PSoC5/ADC_SAR_1.c **** /*******************************************************************************
 497:.\Generated_Source\PSoC5/ADC_SAR_1.c **** * Function Name: ADC_SAR_1_GetResult8
 498:.\Generated_Source\PSoC5/ADC_SAR_1.c **** ********************************************************************************
 499:.\Generated_Source\PSoC5/ADC_SAR_1.c **** *
 500:.\Generated_Source\PSoC5/ADC_SAR_1.c **** * Summary:
 501:.\Generated_Source\PSoC5/ADC_SAR_1.c **** *  Returns the result of an 8-bit conversion. If the resolution is set greater
 502:.\Generated_Source\PSoC5/ADC_SAR_1.c **** *  than 8 bits, the function returns the LSB of the result.
 503:.\Generated_Source\PSoC5/ADC_SAR_1.c **** *  ADC_SAR_1_IsEndConversion() should be called to verify that the data
 504:.\Generated_Source\PSoC5/ADC_SAR_1.c **** *   sample is ready.
 505:.\Generated_Source\PSoC5/ADC_SAR_1.c **** *
 506:.\Generated_Source\PSoC5/ADC_SAR_1.c **** * Parameters:
 507:.\Generated_Source\PSoC5/ADC_SAR_1.c **** *  None.
 508:.\Generated_Source\PSoC5/ADC_SAR_1.c **** *
 509:.\Generated_Source\PSoC5/ADC_SAR_1.c **** * Return:
 510:.\Generated_Source\PSoC5/ADC_SAR_1.c **** *  The LSB of the last ADC conversion.
 511:.\Generated_Source\PSoC5/ADC_SAR_1.c **** *
 512:.\Generated_Source\PSoC5/ADC_SAR_1.c **** * Global Variables:
 513:.\Generated_Source\PSoC5/ADC_SAR_1.c **** *  ADC_SAR_1_shift - used to convert the ADC counts to the 2s
 514:.\Generated_Source\PSoC5/ADC_SAR_1.c **** *  compliment form.
 515:.\Generated_Source\PSoC5/ADC_SAR_1.c **** *
 516:.\Generated_Source\PSoC5/ADC_SAR_1.c **** * Side Effects:
 517:.\Generated_Source\PSoC5/ADC_SAR_1.c **** *  Converts the ADC counts to the 2s complement form.
 518:.\Generated_Source\PSoC5/ADC_SAR_1.c **** *
 519:.\Generated_Source\PSoC5/ADC_SAR_1.c **** *******************************************************************************/
 520:.\Generated_Source\PSoC5/ADC_SAR_1.c **** int8 ADC_SAR_1_GetResult8( void )
 521:.\Generated_Source\PSoC5/ADC_SAR_1.c **** {
 522:.\Generated_Source\PSoC5/ADC_SAR_1.c ****     return( (int8)ADC_SAR_1_SAR_WRK0_REG - (int8)ADC_SAR_1_shift);
 523:.\Generated_Source\PSoC5/ADC_SAR_1.c **** }
 524:.\Generated_Source\PSoC5/ADC_SAR_1.c **** 
 525:.\Generated_Source\PSoC5/ADC_SAR_1.c **** 
 526:.\Generated_Source\PSoC5/ADC_SAR_1.c **** /*******************************************************************************
 527:.\Generated_Source\PSoC5/ADC_SAR_1.c **** * Function Name: ADC_SAR_1_GetResult16
 528:.\Generated_Source\PSoC5/ADC_SAR_1.c **** ********************************************************************************
 529:.\Generated_Source\PSoC5/ADC_SAR_1.c **** *
 530:.\Generated_Source\PSoC5/ADC_SAR_1.c **** * Summary:
 531:.\Generated_Source\PSoC5/ADC_SAR_1.c **** *  Returns a 16-bit result for a conversion with a result that has a resolution
 532:.\Generated_Source\PSoC5/ADC_SAR_1.c **** *  of 8 to 12 bits.
 533:.\Generated_Source\PSoC5/ADC_SAR_1.c **** *  ADC_SAR_1_IsEndConversion() should be called to verify that the data
 534:.\Generated_Source\PSoC5/ADC_SAR_1.c **** *   sample is ready
 535:.\Generated_Source\PSoC5/ADC_SAR_1.c **** *
 536:.\Generated_Source\PSoC5/ADC_SAR_1.c **** * Parameters:
 537:.\Generated_Source\PSoC5/ADC_SAR_1.c **** *  None.
 538:.\Generated_Source\PSoC5/ADC_SAR_1.c **** *
 539:.\Generated_Source\PSoC5/ADC_SAR_1.c **** * Return:
 540:.\Generated_Source\PSoC5/ADC_SAR_1.c **** *  The 16-bit result of the last ADC conversion
 541:.\Generated_Source\PSoC5/ADC_SAR_1.c **** *
 542:.\Generated_Source\PSoC5/ADC_SAR_1.c **** * Global Variables:
 543:.\Generated_Source\PSoC5/ADC_SAR_1.c **** *  ADC_SAR_1_shift - used to convert the ADC counts to the 2s
 544:.\Generated_Source\PSoC5/ADC_SAR_1.c **** *  compliment form.
 545:.\Generated_Source\PSoC5/ADC_SAR_1.c **** *
ARM GAS  C:\Users\jason\AppData\Local\Temp\ccZj8gMh.s 			page 11


 546:.\Generated_Source\PSoC5/ADC_SAR_1.c **** * Side Effects:
 547:.\Generated_Source\PSoC5/ADC_SAR_1.c **** *  Converts the ADC counts to the 2s complement form.
 548:.\Generated_Source\PSoC5/ADC_SAR_1.c **** *
 549:.\Generated_Source\PSoC5/ADC_SAR_1.c **** *******************************************************************************/
 550:.\Generated_Source\PSoC5/ADC_SAR_1.c **** int16 ADC_SAR_1_GetResult16( void )
 551:.\Generated_Source\PSoC5/ADC_SAR_1.c **** {
 552:.\Generated_Source\PSoC5/ADC_SAR_1.c ****     uint16 res;
 553:.\Generated_Source\PSoC5/ADC_SAR_1.c **** 
 554:.\Generated_Source\PSoC5/ADC_SAR_1.c ****     res = CY_GET_REG16(ADC_SAR_1_SAR_WRK_PTR);
 555:.\Generated_Source\PSoC5/ADC_SAR_1.c **** 
 556:.\Generated_Source\PSoC5/ADC_SAR_1.c ****     return( (int16)res - ADC_SAR_1_shift );
 557:.\Generated_Source\PSoC5/ADC_SAR_1.c **** }
 558:.\Generated_Source\PSoC5/ADC_SAR_1.c **** 
 559:.\Generated_Source\PSoC5/ADC_SAR_1.c **** 
 560:.\Generated_Source\PSoC5/ADC_SAR_1.c **** /*******************************************************************************
 561:.\Generated_Source\PSoC5/ADC_SAR_1.c **** * Function Name: ADC_SAR_1_SetOffset
 562:.\Generated_Source\PSoC5/ADC_SAR_1.c **** ********************************************************************************
 563:.\Generated_Source\PSoC5/ADC_SAR_1.c **** *
 564:.\Generated_Source\PSoC5/ADC_SAR_1.c **** * Summary:
 565:.\Generated_Source\PSoC5/ADC_SAR_1.c **** *  Sets the ADC offset, which is used by ADC_SAR_1_CountsTo_Volts(),
 566:.\Generated_Source\PSoC5/ADC_SAR_1.c **** *  ADC_SAR_1_CountsTo_mVolts(), and ADC_SAR_1_CountsTo_uVolts()
 567:.\Generated_Source\PSoC5/ADC_SAR_1.c **** *  to subtract the offset from the given reading before calculating the voltage
 568:.\Generated_Source\PSoC5/ADC_SAR_1.c **** *  conversion.
 569:.\Generated_Source\PSoC5/ADC_SAR_1.c **** *
 570:.\Generated_Source\PSoC5/ADC_SAR_1.c **** * Parameters:
 571:.\Generated_Source\PSoC5/ADC_SAR_1.c **** *  int16: This value is measured when the inputs are shorted or connected to
 572:.\Generated_Source\PSoC5/ADC_SAR_1.c ****    the same input voltage.
 573:.\Generated_Source\PSoC5/ADC_SAR_1.c **** *
 574:.\Generated_Source\PSoC5/ADC_SAR_1.c **** * Return:
 575:.\Generated_Source\PSoC5/ADC_SAR_1.c **** *  None.
 576:.\Generated_Source\PSoC5/ADC_SAR_1.c **** *
 577:.\Generated_Source\PSoC5/ADC_SAR_1.c **** * Global Variables:
 578:.\Generated_Source\PSoC5/ADC_SAR_1.c **** *  The ADC_SAR_1_offset variable modified. This variable is used for
 579:.\Generated_Source\PSoC5/ADC_SAR_1.c **** *  offset calibration purpose.
 580:.\Generated_Source\PSoC5/ADC_SAR_1.c **** *  Affects the ADC_SAR_1_CountsTo_Volts,
 581:.\Generated_Source\PSoC5/ADC_SAR_1.c **** *  ADC_SAR_1_CountsTo_mVolts, ADC_SAR_1_CountsTo_uVolts functions
 582:.\Generated_Source\PSoC5/ADC_SAR_1.c **** *  by subtracting the given offset.
 583:.\Generated_Source\PSoC5/ADC_SAR_1.c **** *
 584:.\Generated_Source\PSoC5/ADC_SAR_1.c **** *******************************************************************************/
 585:.\Generated_Source\PSoC5/ADC_SAR_1.c **** void ADC_SAR_1_SetOffset(int16 offset)
 586:.\Generated_Source\PSoC5/ADC_SAR_1.c **** {
 587:.\Generated_Source\PSoC5/ADC_SAR_1.c ****     ADC_SAR_1_offset = offset;
 588:.\Generated_Source\PSoC5/ADC_SAR_1.c **** }
 589:.\Generated_Source\PSoC5/ADC_SAR_1.c **** 
 590:.\Generated_Source\PSoC5/ADC_SAR_1.c **** 
 591:.\Generated_Source\PSoC5/ADC_SAR_1.c **** /*******************************************************************************
 592:.\Generated_Source\PSoC5/ADC_SAR_1.c **** * Function Name: ADC_SAR_1_CalcGain
 593:.\Generated_Source\PSoC5/ADC_SAR_1.c **** ********************************************************************************
 594:.\Generated_Source\PSoC5/ADC_SAR_1.c **** *
 595:.\Generated_Source\PSoC5/ADC_SAR_1.c **** * Summary:
 596:.\Generated_Source\PSoC5/ADC_SAR_1.c **** *  This function calculates the ADC gain in counts per 10 volt.
 597:.\Generated_Source\PSoC5/ADC_SAR_1.c **** *
 598:.\Generated_Source\PSoC5/ADC_SAR_1.c **** * Parameters:
 599:.\Generated_Source\PSoC5/ADC_SAR_1.c **** *  uint8: resolution
 600:.\Generated_Source\PSoC5/ADC_SAR_1.c **** *
 601:.\Generated_Source\PSoC5/ADC_SAR_1.c **** * Return:
 602:.\Generated_Source\PSoC5/ADC_SAR_1.c **** *  None.
ARM GAS  C:\Users\jason\AppData\Local\Temp\ccZj8gMh.s 			page 12


 603:.\Generated_Source\PSoC5/ADC_SAR_1.c **** *
 604:.\Generated_Source\PSoC5/ADC_SAR_1.c **** * Global Variables:
 605:.\Generated_Source\PSoC5/ADC_SAR_1.c **** *  ADC_SAR_1_shift variable initialized. This variable is used to
 606:.\Generated_Source\PSoC5/ADC_SAR_1.c **** *  convert the ADC counts to the 2s compliment form.
 607:.\Generated_Source\PSoC5/ADC_SAR_1.c **** *  ADC_SAR_1_countsPer10Volt variable initialized. This variable is used
 608:.\Generated_Source\PSoC5/ADC_SAR_1.c **** *  for gain calibration purpose.
 609:.\Generated_Source\PSoC5/ADC_SAR_1.c **** *
 610:.\Generated_Source\PSoC5/ADC_SAR_1.c **** *******************************************************************************/
 611:.\Generated_Source\PSoC5/ADC_SAR_1.c **** static void ADC_SAR_1_CalcGain( uint8 resolution )
 612:.\Generated_Source\PSoC5/ADC_SAR_1.c **** {
  26              		.loc 1 612 0
  27              		.cfi_startproc
  28              		@ args = 0, pretend = 0, frame = 0
  29              		@ frame_needed = 0, uses_anonymous_args = 0
  30              	.LVL0:
  31 0000 08B5     		push	{r3, lr}
  32              		.cfi_def_cfa_offset 8
  33              		.cfi_offset 3, -8
  34              		.cfi_offset 14, -4
 613:.\Generated_Source\PSoC5/ADC_SAR_1.c ****     int32 counts;
 614:.\Generated_Source\PSoC5/ADC_SAR_1.c ****     #if(!((ADC_SAR_1_DEFAULT_RANGE == ADC_SAR_1__VSS_TO_VREF) || \
 615:.\Generated_Source\PSoC5/ADC_SAR_1.c ****          (ADC_SAR_1_DEFAULT_RANGE == ADC_SAR_1__VSSA_TO_VDDA) || \
 616:.\Generated_Source\PSoC5/ADC_SAR_1.c ****          (ADC_SAR_1_DEFAULT_RANGE == ADC_SAR_1__VSSA_TO_VDAC)) )
 617:.\Generated_Source\PSoC5/ADC_SAR_1.c ****         uint16 diff_zero;
 618:.\Generated_Source\PSoC5/ADC_SAR_1.c ****     #endif /* End ADC_SAR_1_DEFAULT_RANGE */
 619:.\Generated_Source\PSoC5/ADC_SAR_1.c **** 
 620:.\Generated_Source\PSoC5/ADC_SAR_1.c ****     switch (resolution)
  35              		.loc 1 620 0
  36 0002 0A28     		cmp	r0, #10
  37 0004 13D0     		beq	.L7
  38 0006 0C28     		cmp	r0, #12
  39 0008 02D0     		beq	.L4
  40 000a 0828     		cmp	r0, #8
  41 000c 09D1     		bne	.L8
  42 000e 04E0     		b	.L5
  43              	.L4:
 621:.\Generated_Source\PSoC5/ADC_SAR_1.c ****     {
 622:.\Generated_Source\PSoC5/ADC_SAR_1.c ****         case (uint8)ADC_SAR_1__BITS_12:
 623:.\Generated_Source\PSoC5/ADC_SAR_1.c ****             counts = (int32)ADC_SAR_1_SAR_WRK_MAX_12BIT;
 624:.\Generated_Source\PSoC5/ADC_SAR_1.c ****             #if(!((ADC_SAR_1_DEFAULT_RANGE == ADC_SAR_1__VSS_TO_VREF) || \
 625:.\Generated_Source\PSoC5/ADC_SAR_1.c ****                  (ADC_SAR_1_DEFAULT_RANGE == ADC_SAR_1__VSSA_TO_VDDA) || \
 626:.\Generated_Source\PSoC5/ADC_SAR_1.c ****                  (ADC_SAR_1_DEFAULT_RANGE == ADC_SAR_1__VSSA_TO_VDAC)) )
 627:.\Generated_Source\PSoC5/ADC_SAR_1.c ****                 diff_zero = ADC_SAR_1_SAR_DIFF_SHIFT;
  44              		.loc 1 627 0
  45 0010 4FF40062 		mov	r2, #2048
 623:.\Generated_Source\PSoC5/ADC_SAR_1.c ****             counts = (int32)ADC_SAR_1_SAR_WRK_MAX_12BIT;
  46              		.loc 1 623 0
  47 0014 4FF48053 		mov	r3, #4096
  48 0018 0DE0     		b	.L3
  49              	.L5:
  50              	.LVL1:
 628:.\Generated_Source\PSoC5/ADC_SAR_1.c ****             #endif /* End ADC_SAR_1_DEFAULT_RANGE */
 629:.\Generated_Source\PSoC5/ADC_SAR_1.c ****             break;
 630:.\Generated_Source\PSoC5/ADC_SAR_1.c ****         case (uint8)ADC_SAR_1__BITS_10:
 631:.\Generated_Source\PSoC5/ADC_SAR_1.c ****             counts = (int32)ADC_SAR_1_SAR_WRK_MAX_10BIT;
 632:.\Generated_Source\PSoC5/ADC_SAR_1.c ****             #if(!((ADC_SAR_1_DEFAULT_RANGE == ADC_SAR_1__VSS_TO_VREF) || \
 633:.\Generated_Source\PSoC5/ADC_SAR_1.c ****                  (ADC_SAR_1_DEFAULT_RANGE == ADC_SAR_1__VSSA_TO_VDDA) || \
ARM GAS  C:\Users\jason\AppData\Local\Temp\ccZj8gMh.s 			page 13


 634:.\Generated_Source\PSoC5/ADC_SAR_1.c ****                  (ADC_SAR_1_DEFAULT_RANGE == ADC_SAR_1__VSSA_TO_VDAC)) )
 635:.\Generated_Source\PSoC5/ADC_SAR_1.c ****                 diff_zero = ADC_SAR_1_SAR_DIFF_SHIFT >> 2u;
 636:.\Generated_Source\PSoC5/ADC_SAR_1.c ****             #endif /* End ADC_SAR_1_DEFAULT_RANGE */
 637:.\Generated_Source\PSoC5/ADC_SAR_1.c ****             break;
 638:.\Generated_Source\PSoC5/ADC_SAR_1.c ****         case (uint8)ADC_SAR_1__BITS_8:
 639:.\Generated_Source\PSoC5/ADC_SAR_1.c ****             counts = (int32)ADC_SAR_1_SAR_WRK_MAX_8BIT;
 640:.\Generated_Source\PSoC5/ADC_SAR_1.c ****             #if(!((ADC_SAR_1_DEFAULT_RANGE == ADC_SAR_1__VSS_TO_VREF) || \
 641:.\Generated_Source\PSoC5/ADC_SAR_1.c ****                  (ADC_SAR_1_DEFAULT_RANGE == ADC_SAR_1__VSSA_TO_VDDA) || \
 642:.\Generated_Source\PSoC5/ADC_SAR_1.c ****                  (ADC_SAR_1_DEFAULT_RANGE == ADC_SAR_1__VSSA_TO_VDAC)) )
 643:.\Generated_Source\PSoC5/ADC_SAR_1.c ****                 diff_zero = ADC_SAR_1_SAR_DIFF_SHIFT >> 4u;
  51              		.loc 1 643 0
  52 001a 8022     		movs	r2, #128
 639:.\Generated_Source\PSoC5/ADC_SAR_1.c ****             counts = (int32)ADC_SAR_1_SAR_WRK_MAX_8BIT;
  53              		.loc 1 639 0
  54 001c 4FF48073 		mov	r3, #256
 644:.\Generated_Source\PSoC5/ADC_SAR_1.c ****             #endif /* End ADC_SAR_1_DEFAULT_RANGE */
 645:.\Generated_Source\PSoC5/ADC_SAR_1.c ****             break;
  55              		.loc 1 645 0
  56 0020 09E0     		b	.L3
  57              	.LVL2:
  58              	.L8:
 646:.\Generated_Source\PSoC5/ADC_SAR_1.c ****         default: /* Halt CPU in debug mode if resolution is out of valid range */
 647:.\Generated_Source\PSoC5/ADC_SAR_1.c ****             counts = 0;
 648:.\Generated_Source\PSoC5/ADC_SAR_1.c ****             #if(!((ADC_SAR_1_DEFAULT_RANGE == ADC_SAR_1__VSS_TO_VREF) || \
 649:.\Generated_Source\PSoC5/ADC_SAR_1.c ****                  (ADC_SAR_1_DEFAULT_RANGE == ADC_SAR_1__VSSA_TO_VDDA) || \
 650:.\Generated_Source\PSoC5/ADC_SAR_1.c ****                  (ADC_SAR_1_DEFAULT_RANGE == ADC_SAR_1__VSSA_TO_VDAC)) )
 651:.\Generated_Source\PSoC5/ADC_SAR_1.c ****                 diff_zero = 0u;
 652:.\Generated_Source\PSoC5/ADC_SAR_1.c ****             #endif /* End ADC_SAR_1_DEFAULT_RANGE */
 653:.\Generated_Source\PSoC5/ADC_SAR_1.c ****             CYASSERT(0u != 0u);
  59              		.loc 1 653 0
  60 0022 0020     		movs	r0, #0
  61              	.LVL3:
  62 0024 FFF7FEFF 		bl	CyHalt
  63              	.LVL4:
 651:.\Generated_Source\PSoC5/ADC_SAR_1.c ****                 diff_zero = 0u;
  64              		.loc 1 651 0
  65 0028 0022     		movs	r2, #0
 647:.\Generated_Source\PSoC5/ADC_SAR_1.c ****             counts = 0;
  66              		.loc 1 647 0
  67 002a 1346     		mov	r3, r2
  68 002c 03E0     		b	.L3
  69              	.LVL5:
  70              	.L7:
 635:.\Generated_Source\PSoC5/ADC_SAR_1.c ****                 diff_zero = ADC_SAR_1_SAR_DIFF_SHIFT >> 2u;
  71              		.loc 1 635 0
  72 002e 4FF40072 		mov	r2, #512
 631:.\Generated_Source\PSoC5/ADC_SAR_1.c ****             counts = (int32)ADC_SAR_1_SAR_WRK_MAX_10BIT;
  73              		.loc 1 631 0
  74 0032 4FF48063 		mov	r3, #1024
  75              	.LVL6:
  76              	.L3:
 654:.\Generated_Source\PSoC5/ADC_SAR_1.c ****             break;
 655:.\Generated_Source\PSoC5/ADC_SAR_1.c ****     }
 656:.\Generated_Source\PSoC5/ADC_SAR_1.c ****     ADC_SAR_1_countsPerVolt = 0; /* Clear obsolete variable */
  77              		.loc 1 656 0
  78 0036 0020     		movs	r0, #0
  79 0038 0849     		ldr	r1, .L9
ARM GAS  C:\Users\jason\AppData\Local\Temp\ccZj8gMh.s 			page 14


  80 003a 0880     		strh	r0, [r1]	@ movhi
 657:.\Generated_Source\PSoC5/ADC_SAR_1.c ****     /* Calculate gain in counts per 10 volts with rounding */
 658:.\Generated_Source\PSoC5/ADC_SAR_1.c ****     ADC_SAR_1_countsPer10Volt = (((counts * ADC_SAR_1_10MV_COUNTS) +
  81              		.loc 1 658 0
  82 003c 42F21071 		movw	r1, #10000
  83 0040 01FB03F3 		mul	r3, r1, r3
  84              	.LVL7:
 659:.\Generated_Source\PSoC5/ADC_SAR_1.c ****                         ADC_SAR_1_DEFAULT_REF_VOLTAGE_MV) / (ADC_SAR_1_DEFAULT_REF_VOLTAGE_MV * 2))
  85              		.loc 1 659 0
  86 0044 13F58063 		adds	r3, r3, #1024
  87 0048 01D5     		bpl	.L6
  88 004a 03F2FF73 		addw	r3, r3, #2047
  89              	.L6:
  90 004e DB12     		asrs	r3, r3, #11
 658:.\Generated_Source\PSoC5/ADC_SAR_1.c ****     ADC_SAR_1_countsPer10Volt = (((counts * ADC_SAR_1_10MV_COUNTS) +
  91              		.loc 1 658 0
  92 0050 0349     		ldr	r1, .L9+4
  93 0052 0B60     		str	r3, [r1]
 660:.\Generated_Source\PSoC5/ADC_SAR_1.c **** 
 661:.\Generated_Source\PSoC5/ADC_SAR_1.c ****     #if( (ADC_SAR_1_DEFAULT_RANGE == ADC_SAR_1__VSS_TO_VREF) || \
 662:.\Generated_Source\PSoC5/ADC_SAR_1.c ****          (ADC_SAR_1_DEFAULT_RANGE == ADC_SAR_1__VSSA_TO_VDDA) || \
 663:.\Generated_Source\PSoC5/ADC_SAR_1.c ****          (ADC_SAR_1_DEFAULT_RANGE == ADC_SAR_1__VSSA_TO_VDAC) )
 664:.\Generated_Source\PSoC5/ADC_SAR_1.c ****         ADC_SAR_1_shift = 0;
 665:.\Generated_Source\PSoC5/ADC_SAR_1.c ****     #else
 666:.\Generated_Source\PSoC5/ADC_SAR_1.c ****         ADC_SAR_1_shift = diff_zero;
  94              		.loc 1 666 0
  95 0054 92B2     		uxth	r2, r2
  96              	.LVL8:
  97 0056 034B     		ldr	r3, .L9+8
  98 0058 1A80     		strh	r2, [r3]	@ movhi
  99 005a 08BD     		pop	{r3, pc}
 100              	.L10:
 101              		.align	2
 102              	.L9:
 103 005c 00000000 		.word	ADC_SAR_1_countsPerVolt
 104 0060 00000000 		.word	ADC_SAR_1_countsPer10Volt
 105 0064 00000000 		.word	ADC_SAR_1_shift
 106              		.cfi_endproc
 107              	.LFE12:
 108              		.size	ADC_SAR_1_CalcGain, .-ADC_SAR_1_CalcGain
 109              		.section	.text.ADC_SAR_1_Enable,"ax",%progbits
 110              		.align	2
 111              		.global	ADC_SAR_1_Enable
 112              		.thumb
 113              		.thumb_func
 114              		.type	ADC_SAR_1_Enable, %function
 115              	ADC_SAR_1_Enable:
 116              	.LFB2:
 144:.\Generated_Source\PSoC5/ADC_SAR_1.c **** {
 117              		.loc 1 144 0
 118              		.cfi_startproc
 119              		@ args = 0, pretend = 0, frame = 0
 120              		@ frame_needed = 0, uses_anonymous_args = 0
 121 0000 10B5     		push	{r4, lr}
 122              		.cfi_def_cfa_offset 8
 123              		.cfi_offset 4, -8
 124              		.cfi_offset 14, -4
ARM GAS  C:\Users\jason\AppData\Local\Temp\ccZj8gMh.s 			page 15


 147:.\Generated_Source\PSoC5/ADC_SAR_1.c ****     enableInterrupts = CyEnterCriticalSection();
 125              		.loc 1 147 0
 126 0002 FFF7FEFF 		bl	CyEnterCriticalSection
 127              	.LVL9:
 128 0006 0446     		mov	r4, r0
 129              	.LVL10:
 150:.\Generated_Source\PSoC5/ADC_SAR_1.c ****     ADC_SAR_1_PWRMGR_SAR_REG |= ADC_SAR_1_ACT_PWR_SAR_EN;
 130              		.loc 1 150 0
 131 0008 1F4B     		ldr	r3, .L12
 132 000a 1A78     		ldrb	r2, [r3]	@ zero_extendqisi2
 133 000c 42F00102 		orr	r2, r2, #1
 134 0010 1A70     		strb	r2, [r3]
 153:.\Generated_Source\PSoC5/ADC_SAR_1.c ****     ADC_SAR_1_STBY_PWRMGR_SAR_REG |= ADC_SAR_1_STBY_PWR_SAR_EN;
 135              		.loc 1 153 0
 136 0012 1033     		adds	r3, r3, #16
 137 0014 1A78     		ldrb	r2, [r3]	@ zero_extendqisi2
 138 0016 42F00102 		orr	r2, r2, #1
 139 001a 1A70     		strb	r2, [r3]
 157:.\Generated_Source\PSoC5/ADC_SAR_1.c ****         ADC_SAR_1_PWRMGR_CLK_REG |= ADC_SAR_1_ACT_PWR_CLK_EN;
 140              		.loc 1 157 0
 141 001c 193B     		subs	r3, r3, #25
 142 001e 1A78     		ldrb	r2, [r3]	@ zero_extendqisi2
 143 0020 42F00202 		orr	r2, r2, #2
 144 0024 1A70     		strb	r2, [r3]
 158:.\Generated_Source\PSoC5/ADC_SAR_1.c ****         ADC_SAR_1_STBY_PWRMGR_CLK_REG |= ADC_SAR_1_STBY_PWR_CLK_EN;
 145              		.loc 1 158 0
 146 0026 1033     		adds	r3, r3, #16
 147 0028 1A78     		ldrb	r2, [r3]	@ zero_extendqisi2
 148 002a 42F00202 		orr	r2, r2, #2
 149 002e 1A70     		strb	r2, [r3]
 162:.\Generated_Source\PSoC5/ADC_SAR_1.c ****     tmpReg = ADC_SAR_1_SAR_CSR3_REG;
 150              		.loc 1 162 0
 151 0030 03F5AA53 		add	r3, r3, #5440
 152 0034 1133     		adds	r3, r3, #17
 153 0036 1A78     		ldrb	r2, [r3]	@ zero_extendqisi2
 154              	.LVL11:
 169:.\Generated_Source\PSoC5/ADC_SAR_1.c ****         tmpReg |= ADC_SAR_1_SAR_EN_BUF_VREF_EN;
 155              		.loc 1 169 0
 156 0038 42F00302 		orr	r2, r2, #3
 157              	.LVL12:
 171:.\Generated_Source\PSoC5/ADC_SAR_1.c ****     ADC_SAR_1_SAR_CSR3_REG = tmpReg;
 158              		.loc 1 171 0
 159 003c 1A70     		strb	r2, [r3]
 182:.\Generated_Source\PSoC5/ADC_SAR_1.c ****             ADC_SAR_1_SAR_CSR6_REG = ADC_SAR_1_INT_VREF;            /* S3 + S4 */
 160              		.loc 1 182 0
 161 003e 1822     		movs	r2, #24
 162              	.LVL13:
 163 0040 0333     		adds	r3, r3, #3
 164 0042 1A70     		strb	r2, [r3]
 192:.\Generated_Source\PSoC5/ADC_SAR_1.c ****         ADC_SAR_1_SAR_CSR5_REG |= ADC_SAR_1_SAR_DLY_INC;
 165              		.loc 1 192 0
 166 0044 013B     		subs	r3, r3, #1
 167 0046 1A78     		ldrb	r2, [r3]	@ zero_extendqisi2
 168 0048 42F04002 		orr	r2, r2, #64
 169 004c 1A70     		strb	r2, [r3]
 202:.\Generated_Source\PSoC5/ADC_SAR_1.c ****         ADC_SAR_1_SAR_CSR5_REG &= (uint8)~ADC_SAR_1_SAR_SEL_CSEL_DFT_CHAR;
 170              		.loc 1 202 0
ARM GAS  C:\Users\jason\AppData\Local\Temp\ccZj8gMh.s 			page 16


 171 004e 1A78     		ldrb	r2, [r3]	@ zero_extendqisi2
 172 0050 02F0FC02 		and	r2, r2, #252
 173 0054 1A70     		strb	r2, [r3]
 206:.\Generated_Source\PSoC5/ADC_SAR_1.c ****     ADC_SAR_1_SAR_CSR0_REG = (uint8)((uint8)ADC_SAR_1_DEFAULT_POWER << ADC_SAR_1_SAR_POWER_SHIFT)
 174              		.loc 1 206 0
 175 0056 C822     		movs	r2, #200
 176 0058 053B     		subs	r3, r3, #5
 177 005a 1A70     		strb	r2, [r3]
 218:.\Generated_Source\PSoC5/ADC_SAR_1.c ****     ADC_SAR_1_SAR_TR0_REG = ADC_SAR_1_SAR_CAP_TRIM_2;
 178              		.loc 1 218 0
 179 005c 0222     		movs	r2, #2
 180 005e A3F59753 		sub	r3, r3, #4832
 181 0062 0C3B     		subs	r3, r3, #12
 182 0064 1A70     		strb	r2, [r3]
 221:.\Generated_Source\PSoC5/ADC_SAR_1.c ****     ADC_SAR_1_SAR_CLK_REG |= ADC_SAR_1_SAR_MX_CLK_EN;
 183              		.loc 1 221 0
 184 0066 03F5A853 		add	r3, r3, #5376
 185 006a 1333     		adds	r3, r3, #19
 186 006c 1A78     		ldrb	r2, [r3]	@ zero_extendqisi2
 187 006e 42F00802 		orr	r2, r2, #8
 188 0072 1A70     		strb	r2, [r3]
 223:.\Generated_Source\PSoC5/ADC_SAR_1.c ****     CyDelayUs(10u); /* The block is ready to use 10 us after the enable signal is set high. */
 189              		.loc 1 223 0
 190 0074 0A20     		movs	r0, #10
 191              	.LVL14:
 192 0076 FFF7FEFF 		bl	CyDelayUs
 193              	.LVL15:
 227:.\Generated_Source\PSoC5/ADC_SAR_1.c ****         CyIntClearPending(ADC_SAR_1_INTC_NUMBER);
 194              		.loc 1 227 0
 195 007a 0122     		movs	r2, #1
 196 007c 034B     		ldr	r3, .L12+4
 197 007e 1A60     		str	r2, [r3]
 230:.\Generated_Source\PSoC5/ADC_SAR_1.c ****     CyExitCriticalSection(enableInterrupts);
 198              		.loc 1 230 0
 199 0080 2046     		mov	r0, r4
 200 0082 FFF7FEFF 		bl	CyExitCriticalSection
 201              	.LVL16:
 202 0086 10BD     		pop	{r4, pc}
 203              	.LVL17:
 204              	.L13:
 205              		.align	2
 206              	.L12:
 207 0088 AB430040 		.word	1073759147
 208 008c 80E200E0 		.word	-536812928
 209              		.cfi_endproc
 210              	.LFE2:
 211              		.size	ADC_SAR_1_Enable, .-ADC_SAR_1_Enable
 212              		.section	.text.ADC_SAR_1_Stop,"ax",%progbits
 213              		.align	2
 214              		.global	ADC_SAR_1_Stop
 215              		.thumb
 216              		.thumb_func
 217              		.type	ADC_SAR_1_Stop, %function
 218              	ADC_SAR_1_Stop:
 219              	.LFB3:
 249:.\Generated_Source\PSoC5/ADC_SAR_1.c **** {
 220              		.loc 1 249 0
ARM GAS  C:\Users\jason\AppData\Local\Temp\ccZj8gMh.s 			page 17


 221              		.cfi_startproc
 222              		@ args = 0, pretend = 0, frame = 0
 223              		@ frame_needed = 0, uses_anonymous_args = 0
 224 0000 08B5     		push	{r3, lr}
 225              		.cfi_def_cfa_offset 8
 226              		.cfi_offset 3, -8
 227              		.cfi_offset 14, -4
 251:.\Generated_Source\PSoC5/ADC_SAR_1.c ****     enableInterrupts = CyEnterCriticalSection();
 228              		.loc 1 251 0
 229 0002 FFF7FEFF 		bl	CyEnterCriticalSection
 230              	.LVL18:
 254:.\Generated_Source\PSoC5/ADC_SAR_1.c ****     ADC_SAR_1_SAR_CSR0_REG &= (uint8)~ADC_SAR_1_SAR_SOF_START_CONV;
 231              		.loc 1 254 0
 232 0006 0F4B     		ldr	r3, .L15
 233 0008 1A78     		ldrb	r2, [r3]	@ zero_extendqisi2
 234 000a 02F0FE02 		and	r2, r2, #254
 235 000e 1A70     		strb	r2, [r3]
 256:.\Generated_Source\PSoC5/ADC_SAR_1.c ****     ADC_SAR_1_PWRMGR_SAR_REG &= (uint8)~ADC_SAR_1_ACT_PWR_SAR_EN;
 236              		.loc 1 256 0
 237 0010 A3F5AA53 		sub	r3, r3, #5440
 238 0014 153B     		subs	r3, r3, #21
 239 0016 1A78     		ldrb	r2, [r3]	@ zero_extendqisi2
 240 0018 02F0FE02 		and	r2, r2, #254
 241 001c 1A70     		strb	r2, [r3]
 258:.\Generated_Source\PSoC5/ADC_SAR_1.c ****     ADC_SAR_1_STBY_PWRMGR_SAR_REG &= (uint8)~ADC_SAR_1_STBY_PWR_SAR_EN;
 242              		.loc 1 258 0
 243 001e 1033     		adds	r3, r3, #16
 244 0020 1A78     		ldrb	r2, [r3]	@ zero_extendqisi2
 245 0022 02F0FE02 		and	r2, r2, #254
 246 0026 1A70     		strb	r2, [r3]
 262:.\Generated_Source\PSoC5/ADC_SAR_1.c ****         ADC_SAR_1_PWRMGR_CLK_REG &= (uint8)~ADC_SAR_1_ACT_PWR_CLK_EN;
 247              		.loc 1 262 0
 248 0028 193B     		subs	r3, r3, #25
 249 002a 1A78     		ldrb	r2, [r3]	@ zero_extendqisi2
 250 002c 02F0FD02 		and	r2, r2, #253
 251 0030 1A70     		strb	r2, [r3]
 263:.\Generated_Source\PSoC5/ADC_SAR_1.c ****         ADC_SAR_1_STBY_PWRMGR_CLK_REG &= (uint8)~ADC_SAR_1_STBY_PWR_CLK_EN;
 252              		.loc 1 263 0
 253 0032 1033     		adds	r3, r3, #16
 254 0034 1A78     		ldrb	r2, [r3]	@ zero_extendqisi2
 255 0036 02F0FD02 		and	r2, r2, #253
 256 003a 1A70     		strb	r2, [r3]
 266:.\Generated_Source\PSoC5/ADC_SAR_1.c ****     CyExitCriticalSection(enableInterrupts);
 257              		.loc 1 266 0
 258 003c FFF7FEFF 		bl	CyExitCriticalSection
 259              	.LVL19:
 260 0040 08BD     		pop	{r3, pc}
 261              	.L16:
 262 0042 00BF     		.align	2
 263              	.L15:
 264 0044 00590040 		.word	1073764608
 265              		.cfi_endproc
 266              	.LFE3:
 267              		.size	ADC_SAR_1_Stop, .-ADC_SAR_1_Stop
 268              		.section	.text.ADC_SAR_1_SetPower,"ax",%progbits
 269              		.align	2
 270              		.global	ADC_SAR_1_SetPower
ARM GAS  C:\Users\jason\AppData\Local\Temp\ccZj8gMh.s 			page 18


 271              		.thumb
 272              		.thumb_func
 273              		.type	ADC_SAR_1_SetPower, %function
 274              	ADC_SAR_1_SetPower:
 275              	.LFB4:
 291:.\Generated_Source\PSoC5/ADC_SAR_1.c **** {
 276              		.loc 1 291 0
 277              		.cfi_startproc
 278              		@ args = 0, pretend = 0, frame = 0
 279              		@ frame_needed = 0, uses_anonymous_args = 0
 280              		@ link register save eliminated.
 281              	.LVL20:
 295:.\Generated_Source\PSoC5/ADC_SAR_1.c ****     power &= ADC_SAR_1_SAR_API_POWER_MASK;
 282              		.loc 1 295 0
 283 0000 00F00300 		and	r0, r0, #3
 284              	.LVL21:
 298:.\Generated_Source\PSoC5/ADC_SAR_1.c ****     tmpReg = ADC_SAR_1_SAR_CSR0_REG & (uint8)~ADC_SAR_1_SAR_POWER_MASK;
 285              		.loc 1 298 0
 286 0004 034B     		ldr	r3, .L18
 287 0006 1A78     		ldrb	r2, [r3]	@ zero_extendqisi2
 288 0008 02F03F02 		and	r2, r2, #63
 289              	.LVL22:
 299:.\Generated_Source\PSoC5/ADC_SAR_1.c ****     tmpReg |= (uint8)(power << ADC_SAR_1_SAR_POWER_SHIFT);
 290              		.loc 1 299 0
 291 000c 42EA8010 		orr	r0, r2, r0, lsl #6
 292              	.LVL23:
 300:.\Generated_Source\PSoC5/ADC_SAR_1.c ****     ADC_SAR_1_SAR_CSR0_REG = tmpReg;
 293              		.loc 1 300 0
 294 0010 1870     		strb	r0, [r3]
 295 0012 7047     		bx	lr
 296              	.L19:
 297              		.align	2
 298              	.L18:
 299 0014 00590040 		.word	1073764608
 300              		.cfi_endproc
 301              	.LFE4:
 302              		.size	ADC_SAR_1_SetPower, .-ADC_SAR_1_SetPower
 303              		.section	.text.ADC_SAR_1_SetResolution,"ax",%progbits
 304              		.align	2
 305              		.global	ADC_SAR_1_SetResolution
 306              		.thumb
 307              		.thumb_func
 308              		.type	ADC_SAR_1_SetResolution, %function
 309              	ADC_SAR_1_SetResolution:
 310              	.LFB5:
 341:.\Generated_Source\PSoC5/ADC_SAR_1.c **** {
 311              		.loc 1 341 0
 312              		.cfi_startproc
 313              		@ args = 0, pretend = 0, frame = 0
 314              		@ frame_needed = 0, uses_anonymous_args = 0
 315              	.LVL24:
 316 0000 10B5     		push	{r4, lr}
 317              		.cfi_def_cfa_offset 8
 318              		.cfi_offset 4, -8
 319              		.cfi_offset 14, -4
 320 0002 0446     		mov	r4, r0
 345:.\Generated_Source\PSoC5/ADC_SAR_1.c ****     switch (resolution)
ARM GAS  C:\Users\jason\AppData\Local\Temp\ccZj8gMh.s 			page 19


 321              		.loc 1 345 0
 322 0004 0A28     		cmp	r0, #10
 323 0006 0DD0     		beq	.L25
 324 0008 0C28     		cmp	r0, #12
 325 000a 02D0     		beq	.L23
 326 000c 0828     		cmp	r0, #8
 327 000e 04D1     		bne	.L26
 328 0010 01E0     		b	.L24
 329              	.L23:
 348:.\Generated_Source\PSoC5/ADC_SAR_1.c ****             tmpReg = ADC_SAR_1_SAR_RESOLUTION_12BIT | ADC_SAR_1_SAR_SAMPLE_WIDTH;
 330              		.loc 1 348 0
 331 0012 C222     		movs	r2, #194
 332 0014 07E0     		b	.L22
 333              	.L24:
 334              	.LVL25:
 354:.\Generated_Source\PSoC5/ADC_SAR_1.c ****             tmpReg = ADC_SAR_1_SAR_RESOLUTION_8BIT | ADC_SAR_1_SAR_SAMPLE_WIDTH;
 335              		.loc 1 354 0
 336 0016 4222     		movs	r2, #66
 355:.\Generated_Source\PSoC5/ADC_SAR_1.c ****             break;
 337              		.loc 1 355 0
 338 0018 05E0     		b	.L22
 339              	.LVL26:
 340              	.L26:
 359:.\Generated_Source\PSoC5/ADC_SAR_1.c ****             CYASSERT(0u != 0u);
 341              		.loc 1 359 0
 342 001a 0020     		movs	r0, #0
 343              	.LVL27:
 344 001c FFF7FEFF 		bl	CyHalt
 345              	.LVL28:
 357:.\Generated_Source\PSoC5/ADC_SAR_1.c ****             tmpReg = ADC_SAR_1_SAR_RESOLUTION_12BIT | ADC_SAR_1_SAR_SAMPLE_WIDTH;
 346              		.loc 1 357 0
 347 0020 C222     		movs	r2, #194
 348 0022 00E0     		b	.L22
 349              	.LVL29:
 350              	.L25:
 351:.\Generated_Source\PSoC5/ADC_SAR_1.c ****             tmpReg = ADC_SAR_1_SAR_RESOLUTION_10BIT | ADC_SAR_1_SAR_SAMPLE_WIDTH;
 351              		.loc 1 351 0
 352 0024 8222     		movs	r2, #130
 353              	.LVL30:
 354              	.L22:
 362:.\Generated_Source\PSoC5/ADC_SAR_1.c ****     ADC_SAR_1_SAR_CSR2_REG = tmpReg;
 355              		.loc 1 362 0
 356 0026 034B     		ldr	r3, .L27
 357 0028 1A70     		strb	r2, [r3]
 365:.\Generated_Source\PSoC5/ADC_SAR_1.c ****     ADC_SAR_1_CalcGain(resolution);
 358              		.loc 1 365 0
 359 002a 2046     		mov	r0, r4
 360 002c FFF7FEFF 		bl	ADC_SAR_1_CalcGain
 361              	.LVL31:
 362 0030 10BD     		pop	{r4, pc}
 363              	.L28:
 364 0032 00BF     		.align	2
 365              	.L27:
 366 0034 02590040 		.word	1073764610
 367              		.cfi_endproc
 368              	.LFE5:
 369              		.size	ADC_SAR_1_SetResolution, .-ADC_SAR_1_SetResolution
ARM GAS  C:\Users\jason\AppData\Local\Temp\ccZj8gMh.s 			page 20


 370              		.section	.text.ADC_SAR_1_Init,"ax",%progbits
 371              		.align	2
 372              		.global	ADC_SAR_1_Init
 373              		.thumb
 374              		.thumb_func
 375              		.type	ADC_SAR_1_Init, %function
 376              	ADC_SAR_1_Init:
 377              	.LFB1:
 107:.\Generated_Source\PSoC5/ADC_SAR_1.c **** {
 378              		.loc 1 107 0
 379              		.cfi_startproc
 380              		@ args = 0, pretend = 0, frame = 0
 381              		@ frame_needed = 0, uses_anonymous_args = 0
 382 0000 08B5     		push	{r3, lr}
 383              		.cfi_def_cfa_offset 8
 384              		.cfi_offset 3, -8
 385              		.cfi_offset 14, -4
 111:.\Generated_Source\PSoC5/ADC_SAR_1.c ****         ADC_SAR_1_theACLK_SetMode(CYCLK_DUTY);
 386              		.loc 1 111 0
 387 0002 1020     		movs	r0, #16
 388 0004 FFF7FEFF 		bl	ADC_SAR_1_theACLK_SetModeRegister
 389              	.LVL32:
 116:.\Generated_Source\PSoC5/ADC_SAR_1.c ****         CyIntSetPriority(ADC_SAR_1_INTC_NUMBER, ADC_SAR_1_INTC_PRIOR_NUMBER);
 390              		.loc 1 116 0
 391 0008 0020     		movs	r0, #0
 392 000a 0721     		movs	r1, #7
 393 000c FFF7FEFF 		bl	CyIntSetPriority
 394              	.LVL33:
 117:.\Generated_Source\PSoC5/ADC_SAR_1.c ****         (void)CyIntSetVector(ADC_SAR_1_INTC_NUMBER, &ADC_SAR_1_ISR);
 395              		.loc 1 117 0
 396 0010 0020     		movs	r0, #0
 397 0012 0749     		ldr	r1, .L30
 398 0014 FFF7FEFF 		bl	CyIntSetVector
 399              	.LVL34:
 121:.\Generated_Source\PSoC5/ADC_SAR_1.c ****     ADC_SAR_1_SAR_CSR1_REG |= ADC_SAR_1_SAR_IRQ_MASK_EN | ADC_SAR_1_SAR_IRQ_MODE_EDGE;
 400              		.loc 1 121 0
 401 0018 064B     		ldr	r3, .L30+4
 402 001a 1A78     		ldrb	r2, [r3]	@ zero_extendqisi2
 403 001c 42F00602 		orr	r2, r2, #6
 404 0020 1A70     		strb	r2, [r3]
 124:.\Generated_Source\PSoC5/ADC_SAR_1.c ****     ADC_SAR_1_SetResolution(ADC_SAR_1_DEFAULT_RESOLUTION);
 405              		.loc 1 124 0
 406 0022 0C20     		movs	r0, #12
 407 0024 FFF7FEFF 		bl	ADC_SAR_1_SetResolution
 408              	.LVL35:
 125:.\Generated_Source\PSoC5/ADC_SAR_1.c ****     ADC_SAR_1_offset = 0;
 409              		.loc 1 125 0
 410 0028 0022     		movs	r2, #0
 411 002a 034B     		ldr	r3, .L30+8
 412 002c 1A80     		strh	r2, [r3]	@ movhi
 413 002e 08BD     		pop	{r3, pc}
 414              	.L31:
 415              		.align	2
 416              	.L30:
 417 0030 00000000 		.word	ADC_SAR_1_ISR
 418 0034 01590040 		.word	1073764609
 419 0038 00000000 		.word	ADC_SAR_1_offset
ARM GAS  C:\Users\jason\AppData\Local\Temp\ccZj8gMh.s 			page 21


 420              		.cfi_endproc
 421              	.LFE1:
 422              		.size	ADC_SAR_1_Init, .-ADC_SAR_1_Init
 423              		.section	.text.ADC_SAR_1_Start,"ax",%progbits
 424              		.align	2
 425              		.global	ADC_SAR_1_Start
 426              		.thumb
 427              		.thumb_func
 428              		.type	ADC_SAR_1_Start, %function
 429              	ADC_SAR_1_Start:
 430              	.LFB0:
  75:.\Generated_Source\PSoC5/ADC_SAR_1.c **** {
 431              		.loc 1 75 0
 432              		.cfi_startproc
 433              		@ args = 0, pretend = 0, frame = 0
 434              		@ frame_needed = 0, uses_anonymous_args = 0
 435 0000 08B5     		push	{r3, lr}
 436              		.cfi_def_cfa_offset 8
 437              		.cfi_offset 3, -8
 438              		.cfi_offset 14, -4
  78:.\Generated_Source\PSoC5/ADC_SAR_1.c ****     if(ADC_SAR_1_initVar == 0u)
 439              		.loc 1 78 0
 440 0002 054B     		ldr	r3, .L34
 441 0004 1B78     		ldrb	r3, [r3]	@ zero_extendqisi2
 442 0006 23B9     		cbnz	r3, .L33
  80:.\Generated_Source\PSoC5/ADC_SAR_1.c ****         ADC_SAR_1_Init();
 443              		.loc 1 80 0
 444 0008 FFF7FEFF 		bl	ADC_SAR_1_Init
 445              	.LVL36:
  81:.\Generated_Source\PSoC5/ADC_SAR_1.c ****         ADC_SAR_1_initVar = 1u;
 446              		.loc 1 81 0
 447 000c 0122     		movs	r2, #1
 448 000e 024B     		ldr	r3, .L34
 449 0010 1A70     		strb	r2, [r3]
 450              	.L33:
  83:.\Generated_Source\PSoC5/ADC_SAR_1.c ****     ADC_SAR_1_Enable();
 451              		.loc 1 83 0
 452 0012 FFF7FEFF 		bl	ADC_SAR_1_Enable
 453              	.LVL37:
 454 0016 08BD     		pop	{r3, pc}
 455              	.L35:
 456              		.align	2
 457              	.L34:
 458 0018 00000000 		.word	.LANCHOR0
 459              		.cfi_endproc
 460              	.LFE0:
 461              		.size	ADC_SAR_1_Start, .-ADC_SAR_1_Start
 462              		.section	.text.ADC_SAR_1_StartConvert,"ax",%progbits
 463              		.align	2
 464              		.global	ADC_SAR_1_StartConvert
 465              		.thumb
 466              		.thumb_func
 467              		.type	ADC_SAR_1_StartConvert, %function
 468              	ADC_SAR_1_StartConvert:
 469              	.LFB6:
 402:.\Generated_Source\PSoC5/ADC_SAR_1.c ****     {
 470              		.loc 1 402 0
ARM GAS  C:\Users\jason\AppData\Local\Temp\ccZj8gMh.s 			page 22


 471              		.cfi_startproc
 472              		@ args = 0, pretend = 0, frame = 0
 473              		@ frame_needed = 0, uses_anonymous_args = 0
 474              		@ link register save eliminated.
 408:.\Generated_Source\PSoC5/ADC_SAR_1.c ****         ADC_SAR_1_SAR_CSR0_REG |= ADC_SAR_1_SAR_SOF_START_CONV;
 475              		.loc 1 408 0
 476 0000 024B     		ldr	r3, .L37
 477 0002 1A78     		ldrb	r2, [r3]	@ zero_extendqisi2
 478 0004 42F00102 		orr	r2, r2, #1
 479 0008 1A70     		strb	r2, [r3]
 480 000a 7047     		bx	lr
 481              	.L38:
 482              		.align	2
 483              	.L37:
 484 000c 00590040 		.word	1073764608
 485              		.cfi_endproc
 486              	.LFE6:
 487              		.size	ADC_SAR_1_StartConvert, .-ADC_SAR_1_StartConvert
 488              		.section	.text.ADC_SAR_1_StopConvert,"ax",%progbits
 489              		.align	2
 490              		.global	ADC_SAR_1_StopConvert
 491              		.thumb
 492              		.thumb_func
 493              		.type	ADC_SAR_1_StopConvert, %function
 494              	ADC_SAR_1_StopConvert:
 495              	.LFB7:
 436:.\Generated_Source\PSoC5/ADC_SAR_1.c ****     {
 496              		.loc 1 436 0
 497              		.cfi_startproc
 498              		@ args = 0, pretend = 0, frame = 0
 499              		@ frame_needed = 0, uses_anonymous_args = 0
 500              		@ link register save eliminated.
 438:.\Generated_Source\PSoC5/ADC_SAR_1.c ****         ADC_SAR_1_SAR_CSR0_REG &= (uint8)~ADC_SAR_1_SAR_SOF_START_CONV;
 501              		.loc 1 438 0
 502 0000 024B     		ldr	r3, .L40
 503 0002 1A78     		ldrb	r2, [r3]	@ zero_extendqisi2
 504 0004 02F0FE02 		and	r2, r2, #254
 505 0008 1A70     		strb	r2, [r3]
 506 000a 7047     		bx	lr
 507              	.L41:
 508              		.align	2
 509              	.L40:
 510 000c 00590040 		.word	1073764608
 511              		.cfi_endproc
 512              	.LFE7:
 513              		.size	ADC_SAR_1_StopConvert, .-ADC_SAR_1_StopConvert
 514              		.section	.text.ADC_SAR_1_IsEndConversion,"ax",%progbits
 515              		.align	2
 516              		.global	ADC_SAR_1_IsEndConversion
 517              		.thumb
 518              		.thumb_func
 519              		.type	ADC_SAR_1_IsEndConversion, %function
 520              	ADC_SAR_1_IsEndConversion:
 521              	.LFB8:
 476:.\Generated_Source\PSoC5/ADC_SAR_1.c **** {
 522              		.loc 1 476 0
 523              		.cfi_startproc
ARM GAS  C:\Users\jason\AppData\Local\Temp\ccZj8gMh.s 			page 23


 524              		@ args = 0, pretend = 0, frame = 0
 525              		@ frame_needed = 0, uses_anonymous_args = 0
 526              	.LVL38:
 527 0000 10B5     		push	{r4, lr}
 528              		.cfi_def_cfa_offset 8
 529              		.cfi_offset 4, -8
 530              		.cfi_offset 14, -4
 481:.\Generated_Source\PSoC5/ADC_SAR_1.c ****         status = ADC_SAR_1_SAR_CSR1_REG & ADC_SAR_1_SAR_EOF_1;
 531              		.loc 1 481 0
 532 0002 074A     		ldr	r2, .L47
 533              	.L44:
 481:.\Generated_Source\PSoC5/ADC_SAR_1.c ****         status = ADC_SAR_1_SAR_CSR1_REG & ADC_SAR_1_SAR_EOF_1;
 534              		.loc 1 481 0 is_stmt 0 discriminator 1
 535 0004 1378     		ldrb	r3, [r2]	@ zero_extendqisi2
 536              	.LVL39:
 482:.\Generated_Source\PSoC5/ADC_SAR_1.c ****     } while ((status != ADC_SAR_1_SAR_EOF_1) && (retMode == ADC_SAR_1_WAIT_FOR_RESULT));
 537              		.loc 1 482 0 is_stmt 1 discriminator 1
 538 0006 13F00104 		ands	r4, r3, #1
 539 000a 01D1     		bne	.L43
 540 000c 0028     		cmp	r0, #0
 541 000e F9D0     		beq	.L44
 542              	.L43:
 484:.\Generated_Source\PSoC5/ADC_SAR_1.c ****     if(status == ADC_SAR_1_SAR_EOF_1)
 543              		.loc 1 484 0
 544 0010 24B1     		cbz	r4, .L45
 487:.\Generated_Source\PSoC5/ADC_SAR_1.c ****         CyDelayUs(1u);
 545              		.loc 1 487 0
 546 0012 0120     		movs	r0, #1
 547              	.LVL40:
 548 0014 FFF7FEFF 		bl	CyDelayUs
 549              	.LVL41:
 489:.\Generated_Source\PSoC5/ADC_SAR_1.c ****         CY_GET_REG8(ADC_SAR_1_SAR_CSR1_PTR);
 550              		.loc 1 489 0
 551 0018 014B     		ldr	r3, .L47
 552 001a 1B78     		ldrb	r3, [r3]	@ zero_extendqisi2
 553              	.L45:
 493:.\Generated_Source\PSoC5/ADC_SAR_1.c **** }
 554              		.loc 1 493 0
 555 001c 2046     		mov	r0, r4
 556 001e 10BD     		pop	{r4, pc}
 557              	.L48:
 558              		.align	2
 559              	.L47:
 560 0020 01590040 		.word	1073764609
 561              		.cfi_endproc
 562              	.LFE8:
 563              		.size	ADC_SAR_1_IsEndConversion, .-ADC_SAR_1_IsEndConversion
 564              		.section	.text.ADC_SAR_1_GetResult8,"ax",%progbits
 565              		.align	2
 566              		.global	ADC_SAR_1_GetResult8
 567              		.thumb
 568              		.thumb_func
 569              		.type	ADC_SAR_1_GetResult8, %function
 570              	ADC_SAR_1_GetResult8:
 571              	.LFB9:
 521:.\Generated_Source\PSoC5/ADC_SAR_1.c **** {
 572              		.loc 1 521 0
ARM GAS  C:\Users\jason\AppData\Local\Temp\ccZj8gMh.s 			page 24


 573              		.cfi_startproc
 574              		@ args = 0, pretend = 0, frame = 0
 575              		@ frame_needed = 0, uses_anonymous_args = 0
 576              		@ link register save eliminated.
 522:.\Generated_Source\PSoC5/ADC_SAR_1.c ****     return( (int8)ADC_SAR_1_SAR_WRK0_REG - (int8)ADC_SAR_1_shift);
 577              		.loc 1 522 0
 578 0000 034B     		ldr	r3, .L50
 579 0002 1878     		ldrb	r0, [r3]	@ zero_extendqisi2
 580 0004 034B     		ldr	r3, .L50+4
 581 0006 1B88     		ldrh	r3, [r3]
 582 0008 C01A     		subs	r0, r0, r3
 523:.\Generated_Source\PSoC5/ADC_SAR_1.c **** }
 583              		.loc 1 523 0
 584 000a 40B2     		sxtb	r0, r0
 585 000c 7047     		bx	lr
 586              	.L51:
 587 000e 00BF     		.align	2
 588              	.L50:
 589 0010 A05B0040 		.word	1073765280
 590 0014 00000000 		.word	ADC_SAR_1_shift
 591              		.cfi_endproc
 592              	.LFE9:
 593              		.size	ADC_SAR_1_GetResult8, .-ADC_SAR_1_GetResult8
 594              		.section	.text.ADC_SAR_1_GetResult16,"ax",%progbits
 595              		.align	2
 596              		.global	ADC_SAR_1_GetResult16
 597              		.thumb
 598              		.thumb_func
 599              		.type	ADC_SAR_1_GetResult16, %function
 600              	ADC_SAR_1_GetResult16:
 601              	.LFB10:
 551:.\Generated_Source\PSoC5/ADC_SAR_1.c **** {
 602              		.loc 1 551 0
 603              		.cfi_startproc
 604              		@ args = 0, pretend = 0, frame = 0
 605              		@ frame_needed = 0, uses_anonymous_args = 0
 606              		@ link register save eliminated.
 554:.\Generated_Source\PSoC5/ADC_SAR_1.c ****     res = CY_GET_REG16(ADC_SAR_1_SAR_WRK_PTR);
 607              		.loc 1 554 0
 608 0000 034B     		ldr	r3, .L53
 609 0002 1888     		ldrh	r0, [r3]
 610              	.LVL42:
 556:.\Generated_Source\PSoC5/ADC_SAR_1.c ****     return( (int16)res - ADC_SAR_1_shift );
 611              		.loc 1 556 0
 612 0004 034B     		ldr	r3, .L53+4
 613 0006 1B88     		ldrh	r3, [r3]
 614 0008 C01A     		subs	r0, r0, r3
 615              	.LVL43:
 557:.\Generated_Source\PSoC5/ADC_SAR_1.c **** }
 616              		.loc 1 557 0
 617 000a 00B2     		sxth	r0, r0
 618 000c 7047     		bx	lr
 619              	.L54:
 620 000e 00BF     		.align	2
 621              	.L53:
 622 0010 A05B0040 		.word	1073765280
 623 0014 00000000 		.word	ADC_SAR_1_shift
ARM GAS  C:\Users\jason\AppData\Local\Temp\ccZj8gMh.s 			page 25


 624              		.cfi_endproc
 625              	.LFE10:
 626              		.size	ADC_SAR_1_GetResult16, .-ADC_SAR_1_GetResult16
 627              		.section	.text.ADC_SAR_1_SetOffset,"ax",%progbits
 628              		.align	2
 629              		.global	ADC_SAR_1_SetOffset
 630              		.thumb
 631              		.thumb_func
 632              		.type	ADC_SAR_1_SetOffset, %function
 633              	ADC_SAR_1_SetOffset:
 634              	.LFB11:
 586:.\Generated_Source\PSoC5/ADC_SAR_1.c **** {
 635              		.loc 1 586 0
 636              		.cfi_startproc
 637              		@ args = 0, pretend = 0, frame = 0
 638              		@ frame_needed = 0, uses_anonymous_args = 0
 639              		@ link register save eliminated.
 640              	.LVL44:
 587:.\Generated_Source\PSoC5/ADC_SAR_1.c ****     ADC_SAR_1_offset = offset;
 641              		.loc 1 587 0
 642 0000 014B     		ldr	r3, .L56
 643 0002 1880     		strh	r0, [r3]	@ movhi
 644 0004 7047     		bx	lr
 645              	.L57:
 646 0006 00BF     		.align	2
 647              	.L56:
 648 0008 00000000 		.word	ADC_SAR_1_offset
 649              		.cfi_endproc
 650              	.LFE11:
 651              		.size	ADC_SAR_1_SetOffset, .-ADC_SAR_1_SetOffset
 652              		.section	.text.ADC_SAR_1_SetGain,"ax",%progbits
 653              		.align	2
 654              		.global	ADC_SAR_1_SetGain
 655              		.thumb
 656              		.thumb_func
 657              		.type	ADC_SAR_1_SetGain, %function
 658              	ADC_SAR_1_SetGain:
 659              	.LFB13:
 667:.\Generated_Source\PSoC5/ADC_SAR_1.c ****     #endif /* End ADC_SAR_1_DEFAULT_RANGE */
 668:.\Generated_Source\PSoC5/ADC_SAR_1.c **** }
 669:.\Generated_Source\PSoC5/ADC_SAR_1.c **** 
 670:.\Generated_Source\PSoC5/ADC_SAR_1.c **** 
 671:.\Generated_Source\PSoC5/ADC_SAR_1.c **** /*******************************************************************************
 672:.\Generated_Source\PSoC5/ADC_SAR_1.c **** * Function Name: ADC_SAR_1_SetGain
 673:.\Generated_Source\PSoC5/ADC_SAR_1.c **** ********************************************************************************
 674:.\Generated_Source\PSoC5/ADC_SAR_1.c **** *
 675:.\Generated_Source\PSoC5/ADC_SAR_1.c **** * Summary:
 676:.\Generated_Source\PSoC5/ADC_SAR_1.c **** *  Sets the ADC gain in counts per volt for the voltage conversion functions
 677:.\Generated_Source\PSoC5/ADC_SAR_1.c **** *  that follow. This value is set by default by the reference and input range
 678:.\Generated_Source\PSoC5/ADC_SAR_1.c **** *  settings. It should only be used to further calibrate the ADC with a known
 679:.\Generated_Source\PSoC5/ADC_SAR_1.c **** *  input or if the ADC is using an external reference.
 680:.\Generated_Source\PSoC5/ADC_SAR_1.c **** *
 681:.\Generated_Source\PSoC5/ADC_SAR_1.c **** * Parameters:
 682:.\Generated_Source\PSoC5/ADC_SAR_1.c **** *  int16 adcGain counts per volt
 683:.\Generated_Source\PSoC5/ADC_SAR_1.c **** *
 684:.\Generated_Source\PSoC5/ADC_SAR_1.c **** * Return:
 685:.\Generated_Source\PSoC5/ADC_SAR_1.c **** *  None.
ARM GAS  C:\Users\jason\AppData\Local\Temp\ccZj8gMh.s 			page 26


 686:.\Generated_Source\PSoC5/ADC_SAR_1.c **** *
 687:.\Generated_Source\PSoC5/ADC_SAR_1.c **** * Global Variables:
 688:.\Generated_Source\PSoC5/ADC_SAR_1.c **** *  ADC_SAR_1_countsPer10Volt variable modified. This variable is used
 689:.\Generated_Source\PSoC5/ADC_SAR_1.c **** *  for gain calibration purpose.
 690:.\Generated_Source\PSoC5/ADC_SAR_1.c **** *
 691:.\Generated_Source\PSoC5/ADC_SAR_1.c **** *******************************************************************************/
 692:.\Generated_Source\PSoC5/ADC_SAR_1.c **** void ADC_SAR_1_SetGain(int16 adcGain)
 693:.\Generated_Source\PSoC5/ADC_SAR_1.c **** {
 660              		.loc 1 693 0
 661              		.cfi_startproc
 662              		@ args = 0, pretend = 0, frame = 0
 663              		@ frame_needed = 0, uses_anonymous_args = 0
 664              		@ link register save eliminated.
 665              	.LVL45:
 694:.\Generated_Source\PSoC5/ADC_SAR_1.c ****     ADC_SAR_1_countsPer10Volt = (int32)adcGain * 10;
 666              		.loc 1 694 0
 667 0000 00EB8000 		add	r0, r0, r0, lsl #2
 668              	.LVL46:
 669 0004 4000     		lsls	r0, r0, #1
 670 0006 014B     		ldr	r3, .L59
 671 0008 1860     		str	r0, [r3]
 672 000a 7047     		bx	lr
 673              	.L60:
 674              		.align	2
 675              	.L59:
 676 000c 00000000 		.word	ADC_SAR_1_countsPer10Volt
 677              		.cfi_endproc
 678              	.LFE13:
 679              		.size	ADC_SAR_1_SetGain, .-ADC_SAR_1_SetGain
 680              		.section	.text.ADC_SAR_1_SetScaledGain,"ax",%progbits
 681              		.align	2
 682              		.global	ADC_SAR_1_SetScaledGain
 683              		.thumb
 684              		.thumb_func
 685              		.type	ADC_SAR_1_SetScaledGain, %function
 686              	ADC_SAR_1_SetScaledGain:
 687              	.LFB14:
 695:.\Generated_Source\PSoC5/ADC_SAR_1.c **** }
 696:.\Generated_Source\PSoC5/ADC_SAR_1.c **** 
 697:.\Generated_Source\PSoC5/ADC_SAR_1.c **** 
 698:.\Generated_Source\PSoC5/ADC_SAR_1.c **** /*******************************************************************************
 699:.\Generated_Source\PSoC5/ADC_SAR_1.c **** * Function Name: ADC_SAR_1_SetScaledGain
 700:.\Generated_Source\PSoC5/ADC_SAR_1.c **** ********************************************************************************
 701:.\Generated_Source\PSoC5/ADC_SAR_1.c **** *
 702:.\Generated_Source\PSoC5/ADC_SAR_1.c **** * Summary:
 703:.\Generated_Source\PSoC5/ADC_SAR_1.c **** *  Sets the ADC gain in counts per 10 volt for the voltage conversion functions
 704:.\Generated_Source\PSoC5/ADC_SAR_1.c **** *  that follow. This value is set by default by the reference and input range
 705:.\Generated_Source\PSoC5/ADC_SAR_1.c **** *  settings. It should only be used to further calibrate the ADC with a known
 706:.\Generated_Source\PSoC5/ADC_SAR_1.c **** *  input or if the ADC is using an external reference.
 707:.\Generated_Source\PSoC5/ADC_SAR_1.c **** *
 708:.\Generated_Source\PSoC5/ADC_SAR_1.c **** * Parameters:
 709:.\Generated_Source\PSoC5/ADC_SAR_1.c **** *  int32 adcGain  counts per 10 volt
 710:.\Generated_Source\PSoC5/ADC_SAR_1.c **** *
 711:.\Generated_Source\PSoC5/ADC_SAR_1.c **** * Return:
 712:.\Generated_Source\PSoC5/ADC_SAR_1.c **** *  None.
 713:.\Generated_Source\PSoC5/ADC_SAR_1.c **** *
 714:.\Generated_Source\PSoC5/ADC_SAR_1.c **** * Global Variables:
ARM GAS  C:\Users\jason\AppData\Local\Temp\ccZj8gMh.s 			page 27


 715:.\Generated_Source\PSoC5/ADC_SAR_1.c **** *  ADC_SAR_1_countsPer10Volt variable modified. This variable is used
 716:.\Generated_Source\PSoC5/ADC_SAR_1.c **** *  for gain calibration purpose.
 717:.\Generated_Source\PSoC5/ADC_SAR_1.c **** *
 718:.\Generated_Source\PSoC5/ADC_SAR_1.c **** *******************************************************************************/
 719:.\Generated_Source\PSoC5/ADC_SAR_1.c **** void ADC_SAR_1_SetScaledGain(int32 adcGain)
 720:.\Generated_Source\PSoC5/ADC_SAR_1.c **** {
 688              		.loc 1 720 0
 689              		.cfi_startproc
 690              		@ args = 0, pretend = 0, frame = 0
 691              		@ frame_needed = 0, uses_anonymous_args = 0
 692              		@ link register save eliminated.
 693              	.LVL47:
 721:.\Generated_Source\PSoC5/ADC_SAR_1.c ****     ADC_SAR_1_countsPer10Volt = adcGain;
 694              		.loc 1 721 0
 695 0000 014B     		ldr	r3, .L62
 696 0002 1860     		str	r0, [r3]
 697 0004 7047     		bx	lr
 698              	.L63:
 699 0006 00BF     		.align	2
 700              	.L62:
 701 0008 00000000 		.word	ADC_SAR_1_countsPer10Volt
 702              		.cfi_endproc
 703              	.LFE14:
 704              		.size	ADC_SAR_1_SetScaledGain, .-ADC_SAR_1_SetScaledGain
 705              		.section	.text.ADC_SAR_1_CountsTo_mVolts,"ax",%progbits
 706              		.align	2
 707              		.global	ADC_SAR_1_CountsTo_mVolts
 708              		.thumb
 709              		.thumb_func
 710              		.type	ADC_SAR_1_CountsTo_mVolts, %function
 711              	ADC_SAR_1_CountsTo_mVolts:
 712              	.LFB15:
 722:.\Generated_Source\PSoC5/ADC_SAR_1.c **** }
 723:.\Generated_Source\PSoC5/ADC_SAR_1.c **** 
 724:.\Generated_Source\PSoC5/ADC_SAR_1.c **** 
 725:.\Generated_Source\PSoC5/ADC_SAR_1.c **** /*******************************************************************************
 726:.\Generated_Source\PSoC5/ADC_SAR_1.c **** * Function Name: ADC_SAR_1_CountsTo_mVolts
 727:.\Generated_Source\PSoC5/ADC_SAR_1.c **** ********************************************************************************
 728:.\Generated_Source\PSoC5/ADC_SAR_1.c **** *
 729:.\Generated_Source\PSoC5/ADC_SAR_1.c **** * Summary:
 730:.\Generated_Source\PSoC5/ADC_SAR_1.c **** *  Converts the ADC output to millivolts as a 16-bit integer.
 731:.\Generated_Source\PSoC5/ADC_SAR_1.c **** *
 732:.\Generated_Source\PSoC5/ADC_SAR_1.c **** * Parameters:
 733:.\Generated_Source\PSoC5/ADC_SAR_1.c **** *  int16 adcCounts:  Result from the ADC conversion
 734:.\Generated_Source\PSoC5/ADC_SAR_1.c **** *
 735:.\Generated_Source\PSoC5/ADC_SAR_1.c **** * Return:
 736:.\Generated_Source\PSoC5/ADC_SAR_1.c **** *  int16 Result in mVolts
 737:.\Generated_Source\PSoC5/ADC_SAR_1.c **** *
 738:.\Generated_Source\PSoC5/ADC_SAR_1.c **** * Global Variables:
 739:.\Generated_Source\PSoC5/ADC_SAR_1.c **** *  ADC_SAR_1_offset variable used.
 740:.\Generated_Source\PSoC5/ADC_SAR_1.c **** *  ADC_SAR_1_countsPer10Volt variable used.
 741:.\Generated_Source\PSoC5/ADC_SAR_1.c **** *
 742:.\Generated_Source\PSoC5/ADC_SAR_1.c **** *******************************************************************************/
 743:.\Generated_Source\PSoC5/ADC_SAR_1.c **** int16 ADC_SAR_1_CountsTo_mVolts(int16 adcCounts)
 744:.\Generated_Source\PSoC5/ADC_SAR_1.c **** {
 713              		.loc 1 744 0
 714              		.cfi_startproc
ARM GAS  C:\Users\jason\AppData\Local\Temp\ccZj8gMh.s 			page 28


 715              		@ args = 0, pretend = 0, frame = 0
 716              		@ frame_needed = 0, uses_anonymous_args = 0
 717              		@ link register save eliminated.
 718              	.LVL48:
 745:.\Generated_Source\PSoC5/ADC_SAR_1.c ****     int16 mVolts;
 746:.\Generated_Source\PSoC5/ADC_SAR_1.c ****     int32 countsPer10Volt;
 747:.\Generated_Source\PSoC5/ADC_SAR_1.c **** 
 748:.\Generated_Source\PSoC5/ADC_SAR_1.c ****     if(ADC_SAR_1_countsPerVolt != 0)
 719              		.loc 1 748 0
 720 0000 114B     		ldr	r3, .L69
 721 0002 1B88     		ldrh	r3, [r3]
 722 0004 9BB2     		uxth	r3, r3
 723 0006 33B1     		cbz	r3, .L65
 749:.\Generated_Source\PSoC5/ADC_SAR_1.c ****     {   /* Support obsolete method */
 750:.\Generated_Source\PSoC5/ADC_SAR_1.c ****         countsPer10Volt = (int32)ADC_SAR_1_countsPerVolt * 10;
 724              		.loc 1 750 0
 725 0008 0F4B     		ldr	r3, .L69
 726 000a 1B88     		ldrh	r3, [r3]
 727 000c 1BB2     		sxth	r3, r3
 728 000e 03EB8303 		add	r3, r3, r3, lsl #2
 729 0012 5B00     		lsls	r3, r3, #1
 730              	.LVL49:
 731 0014 01E0     		b	.L66
 732              	.LVL50:
 733              	.L65:
 751:.\Generated_Source\PSoC5/ADC_SAR_1.c ****     }
 752:.\Generated_Source\PSoC5/ADC_SAR_1.c ****     else
 753:.\Generated_Source\PSoC5/ADC_SAR_1.c ****     {
 754:.\Generated_Source\PSoC5/ADC_SAR_1.c ****         countsPer10Volt = ADC_SAR_1_countsPer10Volt;
 734              		.loc 1 754 0
 735 0016 0D4B     		ldr	r3, .L69+4
 736 0018 1B68     		ldr	r3, [r3]
 737              	.LVL51:
 738              	.L66:
 755:.\Generated_Source\PSoC5/ADC_SAR_1.c ****     }
 756:.\Generated_Source\PSoC5/ADC_SAR_1.c **** 
 757:.\Generated_Source\PSoC5/ADC_SAR_1.c ****     /* Subtract ADC offset */
 758:.\Generated_Source\PSoC5/ADC_SAR_1.c ****     adcCounts -= ADC_SAR_1_offset;
 739              		.loc 1 758 0
 740 001a 0D4A     		ldr	r2, .L69+8
 741 001c 1288     		ldrh	r2, [r2]
 742 001e 801A     		subs	r0, r0, r2
 743              	.LVL52:
 744 0020 00B2     		sxth	r0, r0
 745              	.LVL53:
 759:.\Generated_Source\PSoC5/ADC_SAR_1.c ****     /* Convert to millivolts with rounding */
 760:.\Generated_Source\PSoC5/ADC_SAR_1.c ****     mVolts = (int16)( (( (int32)adcCounts * ADC_SAR_1_10MV_COUNTS ) + ( (adcCounts > 0) ?
 746              		.loc 1 760 0
 747 0022 42F21071 		movw	r1, #10000
 748 0026 01FB00F1 		mul	r1, r1, r0
 761:.\Generated_Source\PSoC5/ADC_SAR_1.c ****                        (countsPer10Volt / 2) : (-(countsPer10Volt / 2)) )) / countsPer10Volt);
 749              		.loc 1 761 0
 750 002a 0028     		cmp	r0, #0
 751 002c 03DD     		ble	.L67
 752              		.loc 1 761 0 is_stmt 0 discriminator 1
 753 002e 03EBD372 		add	r2, r3, r3, lsr #31
 754 0032 5210     		asrs	r2, r2, #1
ARM GAS  C:\Users\jason\AppData\Local\Temp\ccZj8gMh.s 			page 29


 755 0034 03E0     		b	.L68
 756              	.L67:
 757              		.loc 1 761 0 discriminator 2
 758 0036 03EBD372 		add	r2, r3, r3, lsr #31
 759 003a 5210     		asrs	r2, r2, #1
 760 003c 5242     		negs	r2, r2
 761              	.L68:
 760:.\Generated_Source\PSoC5/ADC_SAR_1.c ****     mVolts = (int16)( (( (int32)adcCounts * ADC_SAR_1_10MV_COUNTS ) + ( (adcCounts > 0) ?
 762              		.loc 1 760 0 is_stmt 1
 763 003e 0A44     		add	r2, r2, r1
 764              		.loc 1 761 0
 765 0040 92FBF3F0 		sdiv	r0, r2, r3
 766              	.LVL54:
 762:.\Generated_Source\PSoC5/ADC_SAR_1.c **** 
 763:.\Generated_Source\PSoC5/ADC_SAR_1.c ****     return( mVolts );
 764:.\Generated_Source\PSoC5/ADC_SAR_1.c **** }
 767              		.loc 1 764 0
 768 0044 00B2     		sxth	r0, r0
 769              	.LVL55:
 770 0046 7047     		bx	lr
 771              	.L70:
 772              		.align	2
 773              	.L69:
 774 0048 00000000 		.word	ADC_SAR_1_countsPerVolt
 775 004c 00000000 		.word	ADC_SAR_1_countsPer10Volt
 776 0050 00000000 		.word	ADC_SAR_1_offset
 777              		.cfi_endproc
 778              	.LFE15:
 779              		.size	ADC_SAR_1_CountsTo_mVolts, .-ADC_SAR_1_CountsTo_mVolts
 780              		.global	__aeabi_ldivmod
 781              		.section	.text.ADC_SAR_1_CountsTo_uVolts,"ax",%progbits
 782              		.align	2
 783              		.global	ADC_SAR_1_CountsTo_uVolts
 784              		.thumb
 785              		.thumb_func
 786              		.type	ADC_SAR_1_CountsTo_uVolts, %function
 787              	ADC_SAR_1_CountsTo_uVolts:
 788              	.LFB16:
 765:.\Generated_Source\PSoC5/ADC_SAR_1.c **** 
 766:.\Generated_Source\PSoC5/ADC_SAR_1.c **** 
 767:.\Generated_Source\PSoC5/ADC_SAR_1.c **** /*******************************************************************************
 768:.\Generated_Source\PSoC5/ADC_SAR_1.c **** * Function Name: ADC_SAR_1_CountsTo_uVolts
 769:.\Generated_Source\PSoC5/ADC_SAR_1.c **** ********************************************************************************
 770:.\Generated_Source\PSoC5/ADC_SAR_1.c **** *
 771:.\Generated_Source\PSoC5/ADC_SAR_1.c **** * Summary:
 772:.\Generated_Source\PSoC5/ADC_SAR_1.c **** *  Converts the ADC output to microvolts as a 32-bit integer.
 773:.\Generated_Source\PSoC5/ADC_SAR_1.c **** *
 774:.\Generated_Source\PSoC5/ADC_SAR_1.c **** * Parameters:
 775:.\Generated_Source\PSoC5/ADC_SAR_1.c **** *  int16 adcCounts: Result from the ADC conversion
 776:.\Generated_Source\PSoC5/ADC_SAR_1.c **** *
 777:.\Generated_Source\PSoC5/ADC_SAR_1.c **** * Return:
 778:.\Generated_Source\PSoC5/ADC_SAR_1.c **** *  int32 Result in micro Volts
 779:.\Generated_Source\PSoC5/ADC_SAR_1.c **** *
 780:.\Generated_Source\PSoC5/ADC_SAR_1.c **** * Global Variables:
 781:.\Generated_Source\PSoC5/ADC_SAR_1.c **** *  ADC_SAR_1_offset variable used.
 782:.\Generated_Source\PSoC5/ADC_SAR_1.c **** *  ADC_SAR_1_countsPer10Volt used to convert ADC counts to uVolts.
 783:.\Generated_Source\PSoC5/ADC_SAR_1.c **** *
ARM GAS  C:\Users\jason\AppData\Local\Temp\ccZj8gMh.s 			page 30


 784:.\Generated_Source\PSoC5/ADC_SAR_1.c **** *******************************************************************************/
 785:.\Generated_Source\PSoC5/ADC_SAR_1.c **** int32 ADC_SAR_1_CountsTo_uVolts(int16 adcCounts)
 786:.\Generated_Source\PSoC5/ADC_SAR_1.c **** {
 789              		.loc 1 786 0
 790              		.cfi_startproc
 791              		@ args = 0, pretend = 0, frame = 0
 792              		@ frame_needed = 0, uses_anonymous_args = 0
 793              	.LVL56:
 794 0000 38B5     		push	{r3, r4, r5, lr}
 795              		.cfi_def_cfa_offset 16
 796              		.cfi_offset 3, -16
 797              		.cfi_offset 4, -12
 798              		.cfi_offset 5, -8
 799              		.cfi_offset 14, -4
 787:.\Generated_Source\PSoC5/ADC_SAR_1.c **** 
 788:.\Generated_Source\PSoC5/ADC_SAR_1.c ****     int64 uVolts;
 789:.\Generated_Source\PSoC5/ADC_SAR_1.c ****     int32 countsPer10Volt;
 790:.\Generated_Source\PSoC5/ADC_SAR_1.c **** 
 791:.\Generated_Source\PSoC5/ADC_SAR_1.c ****     if(ADC_SAR_1_countsPerVolt != 0)
 800              		.loc 1 791 0
 801 0002 0D4B     		ldr	r3, .L74
 802 0004 1B88     		ldrh	r3, [r3]
 803 0006 9BB2     		uxth	r3, r3
 804 0008 33B1     		cbz	r3, .L72
 792:.\Generated_Source\PSoC5/ADC_SAR_1.c ****     {   /* Support obsolete method */
 793:.\Generated_Source\PSoC5/ADC_SAR_1.c ****         countsPer10Volt = (int32)ADC_SAR_1_countsPerVolt * 10;
 805              		.loc 1 793 0
 806 000a 0B4B     		ldr	r3, .L74
 807 000c 1A88     		ldrh	r2, [r3]
 808 000e 12B2     		sxth	r2, r2
 809 0010 02EB8202 		add	r2, r2, r2, lsl #2
 810 0014 5200     		lsls	r2, r2, #1
 811              	.LVL57:
 812 0016 01E0     		b	.L73
 813              	.LVL58:
 814              	.L72:
 794:.\Generated_Source\PSoC5/ADC_SAR_1.c ****     }
 795:.\Generated_Source\PSoC5/ADC_SAR_1.c ****     else
 796:.\Generated_Source\PSoC5/ADC_SAR_1.c ****     {
 797:.\Generated_Source\PSoC5/ADC_SAR_1.c ****         countsPer10Volt = ADC_SAR_1_countsPer10Volt;
 815              		.loc 1 797 0
 816 0018 084B     		ldr	r3, .L74+4
 817 001a 1A68     		ldr	r2, [r3]
 818              	.LVL59:
 819              	.L73:
 798:.\Generated_Source\PSoC5/ADC_SAR_1.c ****     }
 799:.\Generated_Source\PSoC5/ADC_SAR_1.c **** 
 800:.\Generated_Source\PSoC5/ADC_SAR_1.c ****     /* Subtract ADC offset */
 801:.\Generated_Source\PSoC5/ADC_SAR_1.c ****     adcCounts -= ADC_SAR_1_offset;
 820              		.loc 1 801 0
 821 001c 084B     		ldr	r3, .L74+8
 822 001e 1B88     		ldrh	r3, [r3]
 823              	.LVL60:
 802:.\Generated_Source\PSoC5/ADC_SAR_1.c ****     /* To convert adcCounts to microVolts it is required to be multiplied
 803:.\Generated_Source\PSoC5/ADC_SAR_1.c ****     *  on 10 million and later divide on gain in counts per 10V.
 804:.\Generated_Source\PSoC5/ADC_SAR_1.c ****     */
 805:.\Generated_Source\PSoC5/ADC_SAR_1.c ****     uVolts = (( (int64)adcCounts * ADC_SAR_1_10UV_COUNTS ) / countsPer10Volt);
ARM GAS  C:\Users\jason\AppData\Local\Temp\ccZj8gMh.s 			page 31


 824              		.loc 1 805 0
 825 0020 C41A     		subs	r4, r0, r3
 826 0022 24B2     		sxth	r4, r4
 827 0024 E517     		asrs	r5, r4, #31
 828 0026 074B     		ldr	r3, .L74+12
 829              	.LVL61:
 830 0028 A4FB0301 		umull	r0, r1, r4, r3
 831 002c 03FB0511 		mla	r1, r3, r5, r1
 832 0030 D317     		asrs	r3, r2, #31
 833 0032 FFF7FEFF 		bl	__aeabi_ldivmod
 834              	.LVL62:
 806:.\Generated_Source\PSoC5/ADC_SAR_1.c **** 
 807:.\Generated_Source\PSoC5/ADC_SAR_1.c ****     return( uVolts );
 808:.\Generated_Source\PSoC5/ADC_SAR_1.c **** }
 835              		.loc 1 808 0
 836 0036 38BD     		pop	{r3, r4, r5, pc}
 837              	.L75:
 838              		.align	2
 839              	.L74:
 840 0038 00000000 		.word	ADC_SAR_1_countsPerVolt
 841 003c 00000000 		.word	ADC_SAR_1_countsPer10Volt
 842 0040 00000000 		.word	ADC_SAR_1_offset
 843 0044 80969800 		.word	10000000
 844              		.cfi_endproc
 845              	.LFE16:
 846              		.size	ADC_SAR_1_CountsTo_uVolts, .-ADC_SAR_1_CountsTo_uVolts
 847              		.global	__aeabi_i2f
 848              		.global	__aeabi_fmul
 849              		.global	__aeabi_fdiv
 850              		.section	.text.ADC_SAR_1_CountsTo_Volts,"ax",%progbits
 851              		.align	2
 852              		.global	ADC_SAR_1_CountsTo_Volts
 853              		.thumb
 854              		.thumb_func
 855              		.type	ADC_SAR_1_CountsTo_Volts, %function
 856              	ADC_SAR_1_CountsTo_Volts:
 857              	.LFB17:
 809:.\Generated_Source\PSoC5/ADC_SAR_1.c **** 
 810:.\Generated_Source\PSoC5/ADC_SAR_1.c **** 
 811:.\Generated_Source\PSoC5/ADC_SAR_1.c **** /*******************************************************************************
 812:.\Generated_Source\PSoC5/ADC_SAR_1.c **** * Function Name: ADC_SAR_1_CountsTo_Volts
 813:.\Generated_Source\PSoC5/ADC_SAR_1.c **** ********************************************************************************
 814:.\Generated_Source\PSoC5/ADC_SAR_1.c **** *
 815:.\Generated_Source\PSoC5/ADC_SAR_1.c **** * Summary:
 816:.\Generated_Source\PSoC5/ADC_SAR_1.c **** *  Converts the ADC output to volts as a floating-point number.
 817:.\Generated_Source\PSoC5/ADC_SAR_1.c **** *
 818:.\Generated_Source\PSoC5/ADC_SAR_1.c **** * Parameters:
 819:.\Generated_Source\PSoC5/ADC_SAR_1.c **** *  int16 adcCounts: Result from the ADC conversion
 820:.\Generated_Source\PSoC5/ADC_SAR_1.c **** *
 821:.\Generated_Source\PSoC5/ADC_SAR_1.c **** * Return:
 822:.\Generated_Source\PSoC5/ADC_SAR_1.c **** *  float Result in Volts
 823:.\Generated_Source\PSoC5/ADC_SAR_1.c **** *
 824:.\Generated_Source\PSoC5/ADC_SAR_1.c **** * Global Variables:
 825:.\Generated_Source\PSoC5/ADC_SAR_1.c **** *  ADC_SAR_1_offset variable used.
 826:.\Generated_Source\PSoC5/ADC_SAR_1.c **** *  ADC_SAR_1_countsPer10Volt used to convert ADC counts to Volts.
 827:.\Generated_Source\PSoC5/ADC_SAR_1.c **** *
 828:.\Generated_Source\PSoC5/ADC_SAR_1.c **** *******************************************************************************/
ARM GAS  C:\Users\jason\AppData\Local\Temp\ccZj8gMh.s 			page 32


 829:.\Generated_Source\PSoC5/ADC_SAR_1.c **** float32 ADC_SAR_1_CountsTo_Volts(int16 adcCounts)
 830:.\Generated_Source\PSoC5/ADC_SAR_1.c **** {
 858              		.loc 1 830 0
 859              		.cfi_startproc
 860              		@ args = 0, pretend = 0, frame = 0
 861              		@ frame_needed = 0, uses_anonymous_args = 0
 862              	.LVL63:
 863 0000 38B5     		push	{r3, r4, r5, lr}
 864              		.cfi_def_cfa_offset 16
 865              		.cfi_offset 3, -16
 866              		.cfi_offset 4, -12
 867              		.cfi_offset 5, -8
 868              		.cfi_offset 14, -4
 831:.\Generated_Source\PSoC5/ADC_SAR_1.c ****     float32 volts;
 832:.\Generated_Source\PSoC5/ADC_SAR_1.c ****     int32 countsPer10Volt;
 833:.\Generated_Source\PSoC5/ADC_SAR_1.c **** 
 834:.\Generated_Source\PSoC5/ADC_SAR_1.c ****     if(ADC_SAR_1_countsPerVolt != 0)
 869              		.loc 1 834 0
 870 0002 0F4B     		ldr	r3, .L79
 871 0004 1B88     		ldrh	r3, [r3]
 872 0006 9BB2     		uxth	r3, r3
 873 0008 33B1     		cbz	r3, .L77
 835:.\Generated_Source\PSoC5/ADC_SAR_1.c ****     {   /* Support obsolete method */
 836:.\Generated_Source\PSoC5/ADC_SAR_1.c ****         countsPer10Volt = (int32)ADC_SAR_1_countsPerVolt * 10;
 874              		.loc 1 836 0
 875 000a 0D4B     		ldr	r3, .L79
 876 000c 1D88     		ldrh	r5, [r3]
 877 000e 2DB2     		sxth	r5, r5
 878 0010 05EB8505 		add	r5, r5, r5, lsl #2
 879 0014 6D00     		lsls	r5, r5, #1
 880              	.LVL64:
 881 0016 01E0     		b	.L78
 882              	.LVL65:
 883              	.L77:
 837:.\Generated_Source\PSoC5/ADC_SAR_1.c ****     }
 838:.\Generated_Source\PSoC5/ADC_SAR_1.c ****     else
 839:.\Generated_Source\PSoC5/ADC_SAR_1.c ****     {
 840:.\Generated_Source\PSoC5/ADC_SAR_1.c ****         countsPer10Volt = ADC_SAR_1_countsPer10Volt;
 884              		.loc 1 840 0
 885 0018 0A4B     		ldr	r3, .L79+4
 886 001a 1D68     		ldr	r5, [r3]
 887              	.LVL66:
 888              	.L78:
 841:.\Generated_Source\PSoC5/ADC_SAR_1.c ****     }
 842:.\Generated_Source\PSoC5/ADC_SAR_1.c **** 
 843:.\Generated_Source\PSoC5/ADC_SAR_1.c ****     /* Subtract ADC offset */
 844:.\Generated_Source\PSoC5/ADC_SAR_1.c ****     adcCounts -= ADC_SAR_1_offset;
 889              		.loc 1 844 0
 890 001c 0A4B     		ldr	r3, .L79+8
 891 001e 1B88     		ldrh	r3, [r3]
 892 0020 C01A     		subs	r0, r0, r3
 893              	.LVL67:
 845:.\Generated_Source\PSoC5/ADC_SAR_1.c **** 
 846:.\Generated_Source\PSoC5/ADC_SAR_1.c ****     volts = ((float32)adcCounts * ADC_SAR_1_10V_COUNTS) / (float32)countsPer10Volt;
 894              		.loc 1 846 0
 895 0022 00B2     		sxth	r0, r0
 896              	.LVL68:
ARM GAS  C:\Users\jason\AppData\Local\Temp\ccZj8gMh.s 			page 33


 897 0024 FFF7FEFF 		bl	__aeabi_i2f
 898              	.LVL69:
 899 0028 0849     		ldr	r1, .L79+12
 900 002a FFF7FEFF 		bl	__aeabi_fmul
 901              	.LVL70:
 902 002e 0446     		mov	r4, r0
 903 0030 2846     		mov	r0, r5
 904 0032 FFF7FEFF 		bl	__aeabi_i2f
 905              	.LVL71:
 906 0036 0146     		mov	r1, r0
 907 0038 2046     		mov	r0, r4
 908 003a FFF7FEFF 		bl	__aeabi_fdiv
 909              	.LVL72:
 847:.\Generated_Source\PSoC5/ADC_SAR_1.c **** 
 848:.\Generated_Source\PSoC5/ADC_SAR_1.c ****     return( volts );
 849:.\Generated_Source\PSoC5/ADC_SAR_1.c **** }
 910              		.loc 1 849 0
 911 003e 38BD     		pop	{r3, r4, r5, pc}
 912              	.LVL73:
 913              	.L80:
 914              		.align	2
 915              	.L79:
 916 0040 00000000 		.word	ADC_SAR_1_countsPerVolt
 917 0044 00000000 		.word	ADC_SAR_1_countsPer10Volt
 918 0048 00000000 		.word	ADC_SAR_1_offset
 919 004c 00002041 		.word	1092616192
 920              		.cfi_endproc
 921              	.LFE17:
 922              		.size	ADC_SAR_1_CountsTo_Volts, .-ADC_SAR_1_CountsTo_Volts
 923              		.comm	ADC_SAR_1_shift,2,2
 924              		.comm	ADC_SAR_1_countsPer10Volt,4,4
 925              		.comm	ADC_SAR_1_countsPerVolt,2,2
 926              		.comm	ADC_SAR_1_offset,2,2
 927              		.global	ADC_SAR_1_initVar
 928              		.bss
 929              		.set	.LANCHOR0,. + 0
 930              		.type	ADC_SAR_1_initVar, %object
 931              		.size	ADC_SAR_1_initVar, 1
 932              	ADC_SAR_1_initVar:
 933 0000 00       		.space	1
 934              		.text
 935              	.Letext0:
 936              		.file 2 ".\\Generated_Source\\PSoC5\\cytypes.h"
 937              		.file 3 ".\\Generated_Source\\PSoC5\\CyLib.h"
 938              		.file 4 ".\\Generated_Source\\PSoC5\\ADC_SAR_1_theACLK.h"