ARM GAS  C:\Users\jason\AppData\Local\Temp\ccLYA89h.s 			page 1


   1              		.syntax unified
   2              		.cpu cortex-m3
   3              		.fpu softvfp
   4              		.eabi_attribute 20, 1
   5              		.eabi_attribute 21, 1
   6              		.eabi_attribute 23, 3
   7              		.eabi_attribute 24, 1
   8              		.eabi_attribute 25, 1
   9              		.eabi_attribute 26, 1
  10              		.eabi_attribute 30, 1
  11              		.eabi_attribute 34, 1
  12              		.eabi_attribute 18, 4
  13              		.thumb
  14              		.file	"cyfitter_cfg.c"
  15              		.text
  16              	.Ltext0:
  17              		.cfi_sections	.debug_frame
  18              		.section	.text.CyClockStartupError,"ax",%progbits
  19              		.align	2
  20              		.thumb
  21              		.thumb_func
  22              		.type	CyClockStartupError, %function
  23              	CyClockStartupError:
  24              	.LFB3:
  25              		.file 1 ".\\Generated_Source\\PSoC5\\cyfitter_cfg.c"
   1:.\Generated_Source\PSoC5/cyfitter_cfg.c **** /*******************************************************************************
   2:.\Generated_Source\PSoC5/cyfitter_cfg.c **** * FILENAME: cyfitter_cfg.c
   3:.\Generated_Source\PSoC5/cyfitter_cfg.c **** * 
   4:.\Generated_Source\PSoC5/cyfitter_cfg.c **** * PSoC Creator  3.2 SP1
   5:.\Generated_Source\PSoC5/cyfitter_cfg.c **** *
   6:.\Generated_Source\PSoC5/cyfitter_cfg.c **** * DESCRIPTION:
   7:.\Generated_Source\PSoC5/cyfitter_cfg.c **** * This file contains device initialization code.
   8:.\Generated_Source\PSoC5/cyfitter_cfg.c **** * Except for the user defined sections in CyClockStartupError(), this file should not be modified.
   9:.\Generated_Source\PSoC5/cyfitter_cfg.c **** * This file is automatically generated by PSoC Creator.
  10:.\Generated_Source\PSoC5/cyfitter_cfg.c **** *
  11:.\Generated_Source\PSoC5/cyfitter_cfg.c **** ********************************************************************************
  12:.\Generated_Source\PSoC5/cyfitter_cfg.c **** * Copyright (c) 2007-2015 Cypress Semiconductor.  All rights reserved.
  13:.\Generated_Source\PSoC5/cyfitter_cfg.c **** * You may use this file only in accordance with the license, terms, conditions, 
  14:.\Generated_Source\PSoC5/cyfitter_cfg.c **** * disclaimers, and limitations in the end user license agreement accompanying 
  15:.\Generated_Source\PSoC5/cyfitter_cfg.c **** * the software package with which this file was provided.
  16:.\Generated_Source\PSoC5/cyfitter_cfg.c **** ********************************************************************************/
  17:.\Generated_Source\PSoC5/cyfitter_cfg.c **** 
  18:.\Generated_Source\PSoC5/cyfitter_cfg.c **** #include <string.h>
  19:.\Generated_Source\PSoC5/cyfitter_cfg.c **** #include "cytypes.h"
  20:.\Generated_Source\PSoC5/cyfitter_cfg.c **** #include "cydevice_trm.h"
  21:.\Generated_Source\PSoC5/cyfitter_cfg.c **** #include "cyfitter.h"
  22:.\Generated_Source\PSoC5/cyfitter_cfg.c **** #include "CyLib.h"
  23:.\Generated_Source\PSoC5/cyfitter_cfg.c **** #include "cyfitter_cfg.h"
  24:.\Generated_Source\PSoC5/cyfitter_cfg.c **** 
  25:.\Generated_Source\PSoC5/cyfitter_cfg.c **** #define CY_NEED_CYCLOCKSTARTUPERROR 1
  26:.\Generated_Source\PSoC5/cyfitter_cfg.c **** 
  27:.\Generated_Source\PSoC5/cyfitter_cfg.c **** 
  28:.\Generated_Source\PSoC5/cyfitter_cfg.c **** #if defined(__GNUC__) || defined(__ARMCC_VERSION)
  29:.\Generated_Source\PSoC5/cyfitter_cfg.c ****     #define CYPACKED 
  30:.\Generated_Source\PSoC5/cyfitter_cfg.c ****     #define CYPACKED_ATTR __attribute__ ((packed))
  31:.\Generated_Source\PSoC5/cyfitter_cfg.c ****     #define CYALIGNED __attribute__ ((aligned))
  32:.\Generated_Source\PSoC5/cyfitter_cfg.c ****     #define CY_CFG_UNUSED __attribute__ ((unused))
ARM GAS  C:\Users\jason\AppData\Local\Temp\ccLYA89h.s 			page 2


  33:.\Generated_Source\PSoC5/cyfitter_cfg.c ****     #define CY_CFG_SECTION __attribute__ ((section(".psocinit")))
  34:.\Generated_Source\PSoC5/cyfitter_cfg.c ****     
  35:.\Generated_Source\PSoC5/cyfitter_cfg.c ****     #if defined(__ARMCC_VERSION)
  36:.\Generated_Source\PSoC5/cyfitter_cfg.c ****         #define CY_CFG_MEMORY_BARRIER() __memory_changed()
  37:.\Generated_Source\PSoC5/cyfitter_cfg.c ****     #else
  38:.\Generated_Source\PSoC5/cyfitter_cfg.c ****         #define CY_CFG_MEMORY_BARRIER() __sync_synchronize()
  39:.\Generated_Source\PSoC5/cyfitter_cfg.c ****     #endif
  40:.\Generated_Source\PSoC5/cyfitter_cfg.c ****     
  41:.\Generated_Source\PSoC5/cyfitter_cfg.c **** #elif defined(__ICCARM__)
  42:.\Generated_Source\PSoC5/cyfitter_cfg.c ****     #include <intrinsics.h>
  43:.\Generated_Source\PSoC5/cyfitter_cfg.c **** 
  44:.\Generated_Source\PSoC5/cyfitter_cfg.c ****     #define CYPACKED __packed
  45:.\Generated_Source\PSoC5/cyfitter_cfg.c ****     #define CYPACKED_ATTR 
  46:.\Generated_Source\PSoC5/cyfitter_cfg.c ****     #define CYALIGNED _Pragma("data_alignment=4")
  47:.\Generated_Source\PSoC5/cyfitter_cfg.c ****     #define CY_CFG_UNUSED _Pragma("diag_suppress=Pe177")
  48:.\Generated_Source\PSoC5/cyfitter_cfg.c ****     #define CY_CFG_SECTION _Pragma("location=\".psocinit\"")
  49:.\Generated_Source\PSoC5/cyfitter_cfg.c ****     
  50:.\Generated_Source\PSoC5/cyfitter_cfg.c ****     #define CY_CFG_MEMORY_BARRIER() __DMB()
  51:.\Generated_Source\PSoC5/cyfitter_cfg.c ****     
  52:.\Generated_Source\PSoC5/cyfitter_cfg.c **** #else
  53:.\Generated_Source\PSoC5/cyfitter_cfg.c ****     #error Unsupported toolchain
  54:.\Generated_Source\PSoC5/cyfitter_cfg.c **** #endif
  55:.\Generated_Source\PSoC5/cyfitter_cfg.c **** 
  56:.\Generated_Source\PSoC5/cyfitter_cfg.c **** 
  57:.\Generated_Source\PSoC5/cyfitter_cfg.c **** CY_CFG_UNUSED
  58:.\Generated_Source\PSoC5/cyfitter_cfg.c **** static void CYMEMZERO(void *s, size_t n);
  59:.\Generated_Source\PSoC5/cyfitter_cfg.c **** CY_CFG_UNUSED
  60:.\Generated_Source\PSoC5/cyfitter_cfg.c **** static void CYMEMZERO(void *s, size_t n)
  61:.\Generated_Source\PSoC5/cyfitter_cfg.c **** {
  62:.\Generated_Source\PSoC5/cyfitter_cfg.c **** 	(void)memset(s, 0, n);
  63:.\Generated_Source\PSoC5/cyfitter_cfg.c **** }
  64:.\Generated_Source\PSoC5/cyfitter_cfg.c **** CY_CFG_UNUSED
  65:.\Generated_Source\PSoC5/cyfitter_cfg.c **** static void CYCONFIGCPY(void *dest, const void *src, size_t n);
  66:.\Generated_Source\PSoC5/cyfitter_cfg.c **** CY_CFG_UNUSED
  67:.\Generated_Source\PSoC5/cyfitter_cfg.c **** static void CYCONFIGCPY(void *dest, const void *src, size_t n)
  68:.\Generated_Source\PSoC5/cyfitter_cfg.c **** {
  69:.\Generated_Source\PSoC5/cyfitter_cfg.c **** 	(void)memcpy(dest, src, n);
  70:.\Generated_Source\PSoC5/cyfitter_cfg.c **** }
  71:.\Generated_Source\PSoC5/cyfitter_cfg.c **** CY_CFG_UNUSED
  72:.\Generated_Source\PSoC5/cyfitter_cfg.c **** static void CYCONFIGCPYCODE(void *dest, const void *src, size_t n);
  73:.\Generated_Source\PSoC5/cyfitter_cfg.c **** CY_CFG_UNUSED
  74:.\Generated_Source\PSoC5/cyfitter_cfg.c **** static void CYCONFIGCPYCODE(void *dest, const void *src, size_t n)
  75:.\Generated_Source\PSoC5/cyfitter_cfg.c **** {
  76:.\Generated_Source\PSoC5/cyfitter_cfg.c **** 	(void)memcpy(dest, src, n);
  77:.\Generated_Source\PSoC5/cyfitter_cfg.c **** }
  78:.\Generated_Source\PSoC5/cyfitter_cfg.c **** 
  79:.\Generated_Source\PSoC5/cyfitter_cfg.c **** 
  80:.\Generated_Source\PSoC5/cyfitter_cfg.c **** 
  81:.\Generated_Source\PSoC5/cyfitter_cfg.c **** /* Clock startup error codes                                                   */
  82:.\Generated_Source\PSoC5/cyfitter_cfg.c **** #define CYCLOCKSTART_NO_ERROR    0u
  83:.\Generated_Source\PSoC5/cyfitter_cfg.c **** #define CYCLOCKSTART_XTAL_ERROR  1u
  84:.\Generated_Source\PSoC5/cyfitter_cfg.c **** #define CYCLOCKSTART_32KHZ_ERROR 2u
  85:.\Generated_Source\PSoC5/cyfitter_cfg.c **** #define CYCLOCKSTART_PLL_ERROR   3u
  86:.\Generated_Source\PSoC5/cyfitter_cfg.c **** 
  87:.\Generated_Source\PSoC5/cyfitter_cfg.c **** #ifdef CY_NEED_CYCLOCKSTARTUPERROR
  88:.\Generated_Source\PSoC5/cyfitter_cfg.c **** /*******************************************************************************
  89:.\Generated_Source\PSoC5/cyfitter_cfg.c **** * Function Name: CyClockStartupError
ARM GAS  C:\Users\jason\AppData\Local\Temp\ccLYA89h.s 			page 3


  90:.\Generated_Source\PSoC5/cyfitter_cfg.c **** ********************************************************************************
  91:.\Generated_Source\PSoC5/cyfitter_cfg.c **** * Summary:
  92:.\Generated_Source\PSoC5/cyfitter_cfg.c **** *  If an error is encountered during clock configuration (crystal startup error,
  93:.\Generated_Source\PSoC5/cyfitter_cfg.c **** *  PLL lock error, etc.), the system will end up here.  Unless reimplemented by
  94:.\Generated_Source\PSoC5/cyfitter_cfg.c **** *  the customer, this function will stop in an infinite loop.
  95:.\Generated_Source\PSoC5/cyfitter_cfg.c **** *
  96:.\Generated_Source\PSoC5/cyfitter_cfg.c **** * Parameters:
  97:.\Generated_Source\PSoC5/cyfitter_cfg.c **** *   void
  98:.\Generated_Source\PSoC5/cyfitter_cfg.c **** *
  99:.\Generated_Source\PSoC5/cyfitter_cfg.c **** * Return:
 100:.\Generated_Source\PSoC5/cyfitter_cfg.c **** *   void
 101:.\Generated_Source\PSoC5/cyfitter_cfg.c **** *
 102:.\Generated_Source\PSoC5/cyfitter_cfg.c **** *******************************************************************************/
 103:.\Generated_Source\PSoC5/cyfitter_cfg.c **** CY_CFG_UNUSED
 104:.\Generated_Source\PSoC5/cyfitter_cfg.c **** static void CyClockStartupError(uint8 errorCode);
 105:.\Generated_Source\PSoC5/cyfitter_cfg.c **** CY_CFG_UNUSED
 106:.\Generated_Source\PSoC5/cyfitter_cfg.c **** static void CyClockStartupError(uint8 errorCode)
 107:.\Generated_Source\PSoC5/cyfitter_cfg.c **** {
  26              		.loc 1 107 0
  27              		.cfi_startproc
  28              		@ Volatile: function does not return.
  29              		@ args = 0, pretend = 0, frame = 0
  30              		@ frame_needed = 0, uses_anonymous_args = 0
  31              		@ link register save eliminated.
  32              	.LVL0:
  33              	.L2:
  34 0000 FEE7     		b	.L2
  35              		.cfi_endproc
  36              	.LFE3:
  37              		.size	CyClockStartupError, .-CyClockStartupError
  38 0002 00BF     		.section	.text.cfg_write_bytes32,"ax",%progbits
  39              		.align	2
  40              		.thumb
  41              		.thumb_func
  42              		.type	cfg_write_bytes32, %function
  43              	cfg_write_bytes32:
  44              	.LFB4:
 108:.\Generated_Source\PSoC5/cyfitter_cfg.c ****     /* To remove the compiler warning if errorCode not used.                */
 109:.\Generated_Source\PSoC5/cyfitter_cfg.c ****     errorCode = errorCode;
 110:.\Generated_Source\PSoC5/cyfitter_cfg.c **** 
 111:.\Generated_Source\PSoC5/cyfitter_cfg.c ****     /* `#START CyClockStartupError` */
 112:.\Generated_Source\PSoC5/cyfitter_cfg.c **** 
 113:.\Generated_Source\PSoC5/cyfitter_cfg.c ****     /* If we have a clock startup error (bad MHz crystal, PLL lock, etc.),  */
 114:.\Generated_Source\PSoC5/cyfitter_cfg.c ****     /* we will end up here to allow the customer to implement something to  */
 115:.\Generated_Source\PSoC5/cyfitter_cfg.c ****     /* deal with the clock condition.                                       */
 116:.\Generated_Source\PSoC5/cyfitter_cfg.c **** 
 117:.\Generated_Source\PSoC5/cyfitter_cfg.c ****     /* `#END` */
 118:.\Generated_Source\PSoC5/cyfitter_cfg.c **** 
 119:.\Generated_Source\PSoC5/cyfitter_cfg.c ****     /* If nothing else, stop here since the clocks have not started         */
 120:.\Generated_Source\PSoC5/cyfitter_cfg.c ****     /* correctly.                                                           */
 121:.\Generated_Source\PSoC5/cyfitter_cfg.c ****     while(1) {}
 122:.\Generated_Source\PSoC5/cyfitter_cfg.c **** }
 123:.\Generated_Source\PSoC5/cyfitter_cfg.c **** #endif
 124:.\Generated_Source\PSoC5/cyfitter_cfg.c **** 
 125:.\Generated_Source\PSoC5/cyfitter_cfg.c **** #define CY_CFG_BASE_ADDR_COUNT 31u
 126:.\Generated_Source\PSoC5/cyfitter_cfg.c **** CYPACKED typedef struct
 127:.\Generated_Source\PSoC5/cyfitter_cfg.c **** {
ARM GAS  C:\Users\jason\AppData\Local\Temp\ccLYA89h.s 			page 4


 128:.\Generated_Source\PSoC5/cyfitter_cfg.c **** 	uint8 offset;
 129:.\Generated_Source\PSoC5/cyfitter_cfg.c **** 	uint8 value;
 130:.\Generated_Source\PSoC5/cyfitter_cfg.c **** } CYPACKED_ATTR cy_cfg_addrvalue_t;
 131:.\Generated_Source\PSoC5/cyfitter_cfg.c **** 
 132:.\Generated_Source\PSoC5/cyfitter_cfg.c **** #define cy_cfg_addr_table ((const uint32 CYFAR *)0x48000000u)
 133:.\Generated_Source\PSoC5/cyfitter_cfg.c **** #define cy_cfg_data_table ((const cy_cfg_addrvalue_t CYFAR *)0x4800007Cu)
 134:.\Generated_Source\PSoC5/cyfitter_cfg.c **** 
 135:.\Generated_Source\PSoC5/cyfitter_cfg.c **** /* IOPINS0_0 Address: CYREG_PRT0_DM0 Size (bytes): 8 */
 136:.\Generated_Source\PSoC5/cyfitter_cfg.c **** #define BS_IOPINS0_0_VAL ((const uint8 CYFAR *)0x48000404u)
 137:.\Generated_Source\PSoC5/cyfitter_cfg.c **** 
 138:.\Generated_Source\PSoC5/cyfitter_cfg.c **** /* IOPINS0_2 Address: CYREG_PRT2_DM0 Size (bytes): 8 */
 139:.\Generated_Source\PSoC5/cyfitter_cfg.c **** #define BS_IOPINS0_2_VAL ((const uint8 CYFAR *)0x4800040Cu)
 140:.\Generated_Source\PSoC5/cyfitter_cfg.c **** 
 141:.\Generated_Source\PSoC5/cyfitter_cfg.c **** /* IOPINS0_4 Address: CYREG_PRT4_DM0 Size (bytes): 8 */
 142:.\Generated_Source\PSoC5/cyfitter_cfg.c **** #define BS_IOPINS0_4_VAL ((const uint8 CYFAR *)0x48000414u)
 143:.\Generated_Source\PSoC5/cyfitter_cfg.c **** 
 144:.\Generated_Source\PSoC5/cyfitter_cfg.c **** /* IOPINS0_6 Address: CYREG_PRT6_DM0 Size (bytes): 8 */
 145:.\Generated_Source\PSoC5/cyfitter_cfg.c **** #define BS_IOPINS0_6_VAL ((const uint8 CYFAR *)0x4800041Cu)
 146:.\Generated_Source\PSoC5/cyfitter_cfg.c **** 
 147:.\Generated_Source\PSoC5/cyfitter_cfg.c **** 
 148:.\Generated_Source\PSoC5/cyfitter_cfg.c **** /*******************************************************************************
 149:.\Generated_Source\PSoC5/cyfitter_cfg.c **** * Function Name: cfg_write_bytes32
 150:.\Generated_Source\PSoC5/cyfitter_cfg.c **** ********************************************************************************
 151:.\Generated_Source\PSoC5/cyfitter_cfg.c **** * Summary:
 152:.\Generated_Source\PSoC5/cyfitter_cfg.c **** *  This function is used for setting up the chip configuration areas that
 153:.\Generated_Source\PSoC5/cyfitter_cfg.c **** *  contain relatively sparse data.
 154:.\Generated_Source\PSoC5/cyfitter_cfg.c **** *
 155:.\Generated_Source\PSoC5/cyfitter_cfg.c **** * Parameters:
 156:.\Generated_Source\PSoC5/cyfitter_cfg.c **** *   void
 157:.\Generated_Source\PSoC5/cyfitter_cfg.c **** *
 158:.\Generated_Source\PSoC5/cyfitter_cfg.c **** * Return:
 159:.\Generated_Source\PSoC5/cyfitter_cfg.c **** *   void
 160:.\Generated_Source\PSoC5/cyfitter_cfg.c **** *
 161:.\Generated_Source\PSoC5/cyfitter_cfg.c **** *******************************************************************************/
 162:.\Generated_Source\PSoC5/cyfitter_cfg.c **** static void cfg_write_bytes32(const uint32 addr_table[], const cy_cfg_addrvalue_t data_table[]);
 163:.\Generated_Source\PSoC5/cyfitter_cfg.c **** static void cfg_write_bytes32(const uint32 addr_table[], const cy_cfg_addrvalue_t data_table[])
 164:.\Generated_Source\PSoC5/cyfitter_cfg.c **** {
  45              		.loc 1 164 0
  46              		.cfi_startproc
  47              		@ args = 0, pretend = 0, frame = 0
  48              		@ frame_needed = 0, uses_anonymous_args = 0
  49              		@ link register save eliminated.
  50              	.LVL1:
  51              		.loc 1 164 0
  52 0000 F0B4     		push	{r4, r5, r6, r7}
  53              		.cfi_def_cfa_offset 16
  54              		.cfi_offset 4, -16
  55              		.cfi_offset 5, -12
  56              		.cfi_offset 6, -8
  57              		.cfi_offset 7, -4
  58              	.LVL2:
 165:.\Generated_Source\PSoC5/cyfitter_cfg.c **** 	/* For 32-bit little-endian architectures */
 166:.\Generated_Source\PSoC5/cyfitter_cfg.c **** 	uint32 i, j = 0u;
  59              		.loc 1 166 0
  60 0002 0023     		movs	r3, #0
 167:.\Generated_Source\PSoC5/cyfitter_cfg.c **** 	for (i = 0u; i < CY_CFG_BASE_ADDR_COUNT; i++)
  61              		.loc 1 167 0
ARM GAS  C:\Users\jason\AppData\Local\Temp\ccLYA89h.s 			page 5


  62 0004 1F46     		mov	r7, r3
  63 0006 11E0     		b	.L4
  64              	.LVL3:
  65              	.L7:
  66              	.LBB2:
 168:.\Generated_Source\PSoC5/cyfitter_cfg.c **** 	{
 169:.\Generated_Source\PSoC5/cyfitter_cfg.c **** 		uint32 baseAddr = addr_table[i];
  67              		.loc 1 169 0
  68 0008 50F82760 		ldr	r6, [r0, r7, lsl #2]
  69              	.LVL4:
 170:.\Generated_Source\PSoC5/cyfitter_cfg.c **** 		uint8 count = (uint8)baseAddr;
  70              		.loc 1 170 0
  71 000c F2B2     		uxtb	r2, r6
  72              	.LVL5:
 171:.\Generated_Source\PSoC5/cyfitter_cfg.c **** 		baseAddr &= 0xFFFFFF00u;
  73              		.loc 1 171 0
  74 000e 26F0FF06 		bic	r6, r6, #255
  75              	.LVL6:
 172:.\Generated_Source\PSoC5/cyfitter_cfg.c **** 		while (count != 0u)
  76              		.loc 1 172 0
  77 0012 08E0     		b	.L5
  78              	.L6:
 173:.\Generated_Source\PSoC5/cyfitter_cfg.c **** 		{
 174:.\Generated_Source\PSoC5/cyfitter_cfg.c **** 			CY_SET_XTND_REG8((void CYFAR *)(baseAddr + data_table[j].offset), data_table[j].value);
  79              		.loc 1 174 0
  80 0014 01EB4305 		add	r5, r1, r3, lsl #1
  81 0018 11F81340 		ldrb	r4, [r1, r3, lsl #1]	@ zero_extendqisi2
  82 001c 6D78     		ldrb	r5, [r5, #1]	@ zero_extendqisi2
  83 001e A555     		strb	r5, [r4, r6]
 175:.\Generated_Source\PSoC5/cyfitter_cfg.c **** 			j++;
  84              		.loc 1 175 0
  85 0020 0133     		adds	r3, r3, #1
  86              	.LVL7:
 176:.\Generated_Source\PSoC5/cyfitter_cfg.c **** 			count--;
  87              		.loc 1 176 0
  88 0022 013A     		subs	r2, r2, #1
  89              	.LVL8:
  90 0024 D2B2     		uxtb	r2, r2
  91              	.LVL9:
  92              	.L5:
 172:.\Generated_Source\PSoC5/cyfitter_cfg.c **** 		while (count != 0u)
  93              		.loc 1 172 0 discriminator 1
  94 0026 002A     		cmp	r2, #0
  95 0028 F4D1     		bne	.L6
  96              	.LBE2:
 167:.\Generated_Source\PSoC5/cyfitter_cfg.c **** 	for (i = 0u; i < CY_CFG_BASE_ADDR_COUNT; i++)
  97              		.loc 1 167 0
  98 002a 0137     		adds	r7, r7, #1
  99              	.LVL10:
 100              	.L4:
 167:.\Generated_Source\PSoC5/cyfitter_cfg.c **** 	for (i = 0u; i < CY_CFG_BASE_ADDR_COUNT; i++)
 101              		.loc 1 167 0 is_stmt 0 discriminator 1
 102 002c 1E2F     		cmp	r7, #30
 103 002e EBD9     		bls	.L7
 177:.\Generated_Source\PSoC5/cyfitter_cfg.c **** 		}
 178:.\Generated_Source\PSoC5/cyfitter_cfg.c **** 	}
 179:.\Generated_Source\PSoC5/cyfitter_cfg.c **** }
ARM GAS  C:\Users\jason\AppData\Local\Temp\ccLYA89h.s 			page 6


 104              		.loc 1 179 0 is_stmt 1
 105 0030 F0BC     		pop	{r4, r5, r6, r7}
 106              	.LVL11:
 107 0032 7047     		bx	lr
 108              		.cfi_endproc
 109              	.LFE4:
 110              		.size	cfg_write_bytes32, .-cfg_write_bytes32
 111              		.section	.text.AnalogSetDefault,"ax",%progbits
 112              		.align	2
 113              		.thumb
 114              		.thumb_func
 115              		.type	AnalogSetDefault, %function
 116              	AnalogSetDefault:
 117              	.LFB6:
 180:.\Generated_Source\PSoC5/cyfitter_cfg.c **** 
 181:.\Generated_Source\PSoC5/cyfitter_cfg.c **** /*******************************************************************************
 182:.\Generated_Source\PSoC5/cyfitter_cfg.c **** * Function Name: ClockSetup
 183:.\Generated_Source\PSoC5/cyfitter_cfg.c **** ********************************************************************************
 184:.\Generated_Source\PSoC5/cyfitter_cfg.c **** *
 185:.\Generated_Source\PSoC5/cyfitter_cfg.c **** * Summary:
 186:.\Generated_Source\PSoC5/cyfitter_cfg.c **** *  Performs the initialization of all of the clocks in the device based on the
 187:.\Generated_Source\PSoC5/cyfitter_cfg.c **** *  settings in the Clock tab of the DWR.  This includes enabling the requested
 188:.\Generated_Source\PSoC5/cyfitter_cfg.c **** *  clocks and setting the necessary dividers to produce the desired frequency. 
 189:.\Generated_Source\PSoC5/cyfitter_cfg.c **** *
 190:.\Generated_Source\PSoC5/cyfitter_cfg.c **** * Parameters:
 191:.\Generated_Source\PSoC5/cyfitter_cfg.c **** *  void
 192:.\Generated_Source\PSoC5/cyfitter_cfg.c **** *
 193:.\Generated_Source\PSoC5/cyfitter_cfg.c **** * Return:
 194:.\Generated_Source\PSoC5/cyfitter_cfg.c **** *  void
 195:.\Generated_Source\PSoC5/cyfitter_cfg.c **** *
 196:.\Generated_Source\PSoC5/cyfitter_cfg.c **** *******************************************************************************/
 197:.\Generated_Source\PSoC5/cyfitter_cfg.c **** static void ClockSetup(void);
 198:.\Generated_Source\PSoC5/cyfitter_cfg.c **** static void ClockSetup(void)
 199:.\Generated_Source\PSoC5/cyfitter_cfg.c **** {
 200:.\Generated_Source\PSoC5/cyfitter_cfg.c **** 	uint32 timeout;
 201:.\Generated_Source\PSoC5/cyfitter_cfg.c **** 	uint8 pllLock;
 202:.\Generated_Source\PSoC5/cyfitter_cfg.c **** 
 203:.\Generated_Source\PSoC5/cyfitter_cfg.c **** 
 204:.\Generated_Source\PSoC5/cyfitter_cfg.c **** 	/* Configure Digital Clocks based on settings from Clock DWR */
 205:.\Generated_Source\PSoC5/cyfitter_cfg.c **** 	CY_SET_XTND_REG16((void CYFAR *)(CYREG_CLKDIST_DCFG0_CFG0), 0x0000u);
 206:.\Generated_Source\PSoC5/cyfitter_cfg.c **** 	CY_SET_XTND_REG8((void CYFAR *)(CYREG_CLKDIST_DCFG0_CFG0 + 0x2u), 0x58u);
 207:.\Generated_Source\PSoC5/cyfitter_cfg.c **** 	CY_SET_XTND_REG16((void CYFAR *)(CYREG_CLKDIST_DCFG1_CFG0), 0x002Fu);
 208:.\Generated_Source\PSoC5/cyfitter_cfg.c **** 	CY_SET_XTND_REG8((void CYFAR *)(CYREG_CLKDIST_DCFG1_CFG0 + 0x2u), 0x18u);
 209:.\Generated_Source\PSoC5/cyfitter_cfg.c **** 
 210:.\Generated_Source\PSoC5/cyfitter_cfg.c **** 	/* Configure ILO based on settings from Clock DWR */
 211:.\Generated_Source\PSoC5/cyfitter_cfg.c **** 	CY_SET_XTND_REG8((void CYFAR *)(CYREG_SLOWCLK_ILO_CR0), 0x06u);
 212:.\Generated_Source\PSoC5/cyfitter_cfg.c **** 
 213:.\Generated_Source\PSoC5/cyfitter_cfg.c **** 	/* Configure IMO based on settings from Clock DWR */
 214:.\Generated_Source\PSoC5/cyfitter_cfg.c **** 	CY_SET_XTND_REG8((void CYFAR *)(CYREG_FASTCLK_IMO_CR), 0x52u);
 215:.\Generated_Source\PSoC5/cyfitter_cfg.c **** 	CY_SET_XTND_REG8((void CYFAR *)(CYREG_IMO_TR1), (CY_GET_XTND_REG8((void CYFAR *)CYREG_FLSHID_CUST_
 216:.\Generated_Source\PSoC5/cyfitter_cfg.c **** 
 217:.\Generated_Source\PSoC5/cyfitter_cfg.c **** 	/* Configure PLL based on settings from Clock DWR */
 218:.\Generated_Source\PSoC5/cyfitter_cfg.c **** 	CY_SET_XTND_REG16((void CYFAR *)(CYREG_FASTCLK_PLL_P), 0x0710u);
 219:.\Generated_Source\PSoC5/cyfitter_cfg.c **** 	CY_SET_XTND_REG16((void CYFAR *)(CYREG_FASTCLK_PLL_CFG0), 0x1251u);
 220:.\Generated_Source\PSoC5/cyfitter_cfg.c **** 	/* Wait up to 250us for the PLL to lock */
 221:.\Generated_Source\PSoC5/cyfitter_cfg.c **** 	pllLock = 0u;
 222:.\Generated_Source\PSoC5/cyfitter_cfg.c **** 	for (timeout = 250u / 10u; (timeout > 0u) && (pllLock != 0x03u); timeout--)
ARM GAS  C:\Users\jason\AppData\Local\Temp\ccLYA89h.s 			page 7


 223:.\Generated_Source\PSoC5/cyfitter_cfg.c **** 	{ 
 224:.\Generated_Source\PSoC5/cyfitter_cfg.c **** 		pllLock = 0x03u & ((uint8)((uint8)pllLock << 1) | ((CY_GET_XTND_REG8((void CYFAR *)CYREG_FASTCLK_
 225:.\Generated_Source\PSoC5/cyfitter_cfg.c **** 		CyDelayCycles(10u * 48u); /* Delay 10us based on 48MHz clock */
 226:.\Generated_Source\PSoC5/cyfitter_cfg.c **** 	}
 227:.\Generated_Source\PSoC5/cyfitter_cfg.c **** 	/* If we ran out of time the PLL didn't lock so go to the error function */
 228:.\Generated_Source\PSoC5/cyfitter_cfg.c **** 	if (timeout == 0u)
 229:.\Generated_Source\PSoC5/cyfitter_cfg.c **** 	{
 230:.\Generated_Source\PSoC5/cyfitter_cfg.c **** 		CyClockStartupError(CYCLOCKSTART_PLL_ERROR);
 231:.\Generated_Source\PSoC5/cyfitter_cfg.c **** 	}
 232:.\Generated_Source\PSoC5/cyfitter_cfg.c **** 
 233:.\Generated_Source\PSoC5/cyfitter_cfg.c **** 	/* Configure Bus/Master Clock based on settings from Clock DWR */
 234:.\Generated_Source\PSoC5/cyfitter_cfg.c **** 	CY_SET_XTND_REG16((void CYFAR *)(CYREG_CLKDIST_MSTR0), 0x0100u);
 235:.\Generated_Source\PSoC5/cyfitter_cfg.c **** 	CY_SET_XTND_REG8((void CYFAR *)(CYREG_CLKDIST_MSTR0), 0x07u);
 236:.\Generated_Source\PSoC5/cyfitter_cfg.c **** 	CY_SET_XTND_REG8((void CYFAR *)(CYREG_CLKDIST_BCFG0), 0x00u);
 237:.\Generated_Source\PSoC5/cyfitter_cfg.c **** 	CY_SET_XTND_REG8((void CYFAR *)(CYREG_CLKDIST_BCFG2), 0x48u);
 238:.\Generated_Source\PSoC5/cyfitter_cfg.c **** 	CY_SET_XTND_REG8((void CYFAR *)(CYREG_CLKDIST_MSTR0), 0x00u);
 239:.\Generated_Source\PSoC5/cyfitter_cfg.c **** 
 240:.\Generated_Source\PSoC5/cyfitter_cfg.c **** 	/* Configure USB Clock based on settings from Clock DWR */
 241:.\Generated_Source\PSoC5/cyfitter_cfg.c **** 	CY_SET_XTND_REG8((void CYFAR *)(CYREG_CLKDIST_UCFG), 0x00u);
 242:.\Generated_Source\PSoC5/cyfitter_cfg.c **** 	CY_SET_XTND_REG8((void CYFAR *)(CYREG_CLKDIST_LD), 0x02u);
 243:.\Generated_Source\PSoC5/cyfitter_cfg.c **** 
 244:.\Generated_Source\PSoC5/cyfitter_cfg.c **** 	CY_SET_XTND_REG8((void CYFAR *)(CYREG_PM_ACT_CFG2), ((CY_GET_XTND_REG8((void CYFAR *)CYREG_PM_ACT_
 245:.\Generated_Source\PSoC5/cyfitter_cfg.c **** }
 246:.\Generated_Source\PSoC5/cyfitter_cfg.c **** 
 247:.\Generated_Source\PSoC5/cyfitter_cfg.c **** 
 248:.\Generated_Source\PSoC5/cyfitter_cfg.c **** /* Analog API Functions */
 249:.\Generated_Source\PSoC5/cyfitter_cfg.c **** 
 250:.\Generated_Source\PSoC5/cyfitter_cfg.c **** 
 251:.\Generated_Source\PSoC5/cyfitter_cfg.c **** /*******************************************************************************
 252:.\Generated_Source\PSoC5/cyfitter_cfg.c **** * Function Name: AnalogSetDefault
 253:.\Generated_Source\PSoC5/cyfitter_cfg.c **** ********************************************************************************
 254:.\Generated_Source\PSoC5/cyfitter_cfg.c **** *
 255:.\Generated_Source\PSoC5/cyfitter_cfg.c **** * Summary:
 256:.\Generated_Source\PSoC5/cyfitter_cfg.c **** *  Sets up the analog portions of the chip to default values based on chip
 257:.\Generated_Source\PSoC5/cyfitter_cfg.c **** *  configuration options from the project.
 258:.\Generated_Source\PSoC5/cyfitter_cfg.c **** *
 259:.\Generated_Source\PSoC5/cyfitter_cfg.c **** * Parameters:
 260:.\Generated_Source\PSoC5/cyfitter_cfg.c **** *  void
 261:.\Generated_Source\PSoC5/cyfitter_cfg.c **** *
 262:.\Generated_Source\PSoC5/cyfitter_cfg.c **** * Return:
 263:.\Generated_Source\PSoC5/cyfitter_cfg.c **** *  void
 264:.\Generated_Source\PSoC5/cyfitter_cfg.c **** *
 265:.\Generated_Source\PSoC5/cyfitter_cfg.c **** *******************************************************************************/
 266:.\Generated_Source\PSoC5/cyfitter_cfg.c **** static void AnalogSetDefault(void);
 267:.\Generated_Source\PSoC5/cyfitter_cfg.c **** static void AnalogSetDefault(void)
 268:.\Generated_Source\PSoC5/cyfitter_cfg.c **** {
 118              		.loc 1 268 0
 119              		.cfi_startproc
 120              		@ args = 0, pretend = 0, frame = 0
 121              		@ frame_needed = 0, uses_anonymous_args = 0
 122              		@ link register save eliminated.
 123 0000 70B4     		push	{r4, r5, r6}
 124              		.cfi_def_cfa_offset 12
 125              		.cfi_offset 4, -12
 126              		.cfi_offset 5, -8
 127              		.cfi_offset 6, -4
 269:.\Generated_Source\PSoC5/cyfitter_cfg.c **** 	uint8 bg_xover_inl_trim = CY_GET_XTND_REG8((void CYFAR *)(CYREG_FLSHID_MFG_CFG_BG_XOVER_INL_TRIM +
ARM GAS  C:\Users\jason\AppData\Local\Temp\ccLYA89h.s 			page 8


 128              		.loc 1 269 0
 129 0002 164B     		ldr	r3, .L9
 130 0004 1C78     		ldrb	r4, [r3]	@ zero_extendqisi2
 131 0006 E4B2     		uxtb	r4, r4
 132              	.LVL12:
 270:.\Generated_Source\PSoC5/cyfitter_cfg.c **** 	uint8 cr4 = CY_GET_XTND_REG8((void CYFAR *)(CYREG_RESET_CR4));
 133              		.loc 1 270 0
 134 0008 154B     		ldr	r3, .L9+4
 135 000a 1978     		ldrb	r1, [r3]	@ zero_extendqisi2
 136 000c C9B2     		uxtb	r1, r1
 137              	.LVL13:
 271:.\Generated_Source\PSoC5/cyfitter_cfg.c **** 	uint8 cr5 = CY_GET_XTND_REG8((void CYFAR *)(CYREG_RESET_CR5));
 138              		.loc 1 271 0
 139 000e 154A     		ldr	r2, .L9+8
 140 0010 1078     		ldrb	r0, [r2]	@ zero_extendqisi2
 141 0012 C0B2     		uxtb	r0, r0
 142              	.LVL14:
 272:.\Generated_Source\PSoC5/cyfitter_cfg.c **** 	CY_SET_XTND_REG8((void CYFAR *)(CYREG_BG_DFT0), (bg_xover_inl_trim & 0x07u));
 143              		.loc 1 272 0
 144 0014 04F00706 		and	r6, r4, #7
 145 0018 134D     		ldr	r5, .L9+12
 146 001a 2E70     		strb	r6, [r5]
 273:.\Generated_Source\PSoC5/cyfitter_cfg.c **** 	CY_SET_XTND_REG8((void CYFAR *)(CYREG_BG_DFT1), ((bg_xover_inl_trim >> 4) & 0x0Fu));
 147              		.loc 1 273 0
 148 001c 2409     		lsrs	r4, r4, #4
 149              	.LVL15:
 150 001e 0135     		adds	r5, r5, #1
 151 0020 2C70     		strb	r4, [r5]
 274:.\Generated_Source\PSoC5/cyfitter_cfg.c **** 	/* Disable PRES while setting up SAR voltage reference */
 275:.\Generated_Source\PSoC5/cyfitter_cfg.c **** 	CY_SET_XTND_REG8((void CYFAR *)(CYREG_RESET_CR4), (cr4 | 0x03u));
 152              		.loc 1 275 0
 153 0022 41F00304 		orr	r4, r1, #3
 154 0026 1C70     		strb	r4, [r3]
 276:.\Generated_Source\PSoC5/cyfitter_cfg.c **** 	CY_SET_XTND_REG8((void CYFAR *)(CYREG_RESET_CR5), (cr5 | 0x03u));
 155              		.loc 1 276 0
 156 0028 40F00304 		orr	r4, r0, #3
 157 002c 1470     		strb	r4, [r2]
 277:.\Generated_Source\PSoC5/cyfitter_cfg.c **** 	CY_SET_XTND_REG8((void CYFAR *)CYREG_PRT4_AG, 0x03u);
 158              		.loc 1 277 0
 159 002e 0325     		movs	r5, #3
 160 0030 0E4C     		ldr	r4, .L9+16
 161 0032 2570     		strb	r5, [r4]
 278:.\Generated_Source\PSoC5/cyfitter_cfg.c **** 	CY_SET_XTND_REG8((void CYFAR *)CYREG_SAR0_CSR1, 0x80u);
 162              		.loc 1 278 0
 163 0034 8025     		movs	r5, #128
 164 0036 04F2B474 		addw	r4, r4, #1972
 165 003a 2570     		strb	r5, [r4]
 279:.\Generated_Source\PSoC5/cyfitter_cfg.c **** 	CY_SET_XTND_REG8((void CYFAR *)CYREG_SAR0_SW0, 0x20u);
 166              		.loc 1 279 0
 167 003c 2025     		movs	r5, #32
 168 003e 04F21F24 		addw	r4, r4, #543
 169 0042 2570     		strb	r5, [r4]
 280:.\Generated_Source\PSoC5/cyfitter_cfg.c **** 	CY_SET_XTND_REG8((void CYFAR *)CYREG_SAR0_SW4, 0x10u);
 170              		.loc 1 280 0
 171 0044 1025     		movs	r5, #16
 172 0046 0434     		adds	r4, r4, #4
 173 0048 2570     		strb	r5, [r4]
ARM GAS  C:\Users\jason\AppData\Local\Temp\ccLYA89h.s 			page 9


 281:.\Generated_Source\PSoC5/cyfitter_cfg.c **** 	CY_SET_XTND_REG8((void CYFAR *)(CYREG_RESET_CR5), (cr5));
 174              		.loc 1 281 0
 175 004a 1070     		strb	r0, [r2]
 282:.\Generated_Source\PSoC5/cyfitter_cfg.c **** 	CY_SET_XTND_REG8((void CYFAR *)(CYREG_RESET_CR4), (cr4));
 176              		.loc 1 282 0
 177 004c 1970     		strb	r1, [r3]
 283:.\Generated_Source\PSoC5/cyfitter_cfg.c **** 	CY_SET_XTND_REG8((void CYFAR *)CYREG_PUMP_CR0, 0x44u);
 178              		.loc 1 283 0
 179 004e 4422     		movs	r2, #68
 180 0050 03F58B53 		add	r3, r3, #4448
 181 0054 1E33     		adds	r3, r3, #30
 182 0056 1A70     		strb	r2, [r3]
 284:.\Generated_Source\PSoC5/cyfitter_cfg.c **** }
 183              		.loc 1 284 0
 184 0058 70BC     		pop	{r4, r5, r6}
 185 005a 7047     		bx	lr
 186              	.L10:
 187              		.align	2
 188              	.L9:
 189 005c CF010049 		.word	1224737231
 190 0060 F8460040 		.word	1073759992
 191 0064 F9460040 		.word	1073759993
 192 0068 6E580040 		.word	1073764462
 193 006c 4D510040 		.word	1073762637
 194              		.cfi_endproc
 195              	.LFE6:
 196              		.size	AnalogSetDefault, .-AnalogSetDefault
 197              		.section	.text.CYMEMZERO,"ax",%progbits
 198              		.align	2
 199              		.thumb
 200              		.thumb_func
 201              		.type	CYMEMZERO, %function
 202              	CYMEMZERO:
 203              	.LFB0:
  61:.\Generated_Source\PSoC5/cyfitter_cfg.c **** {
 204              		.loc 1 61 0
 205              		.cfi_startproc
 206              		@ args = 0, pretend = 0, frame = 0
 207              		@ frame_needed = 0, uses_anonymous_args = 0
 208              	.LVL16:
 209 0000 08B5     		push	{r3, lr}
 210              		.cfi_def_cfa_offset 8
 211              		.cfi_offset 3, -8
 212              		.cfi_offset 14, -4
 213 0002 0A46     		mov	r2, r1
  62:.\Generated_Source\PSoC5/cyfitter_cfg.c **** 	(void)memset(s, 0, n);
 214              		.loc 1 62 0
 215 0004 0021     		movs	r1, #0
 216              	.LVL17:
 217 0006 FFF7FEFF 		bl	memset
 218              	.LVL18:
 219 000a 08BD     		pop	{r3, pc}
 220              		.cfi_endproc
 221              	.LFE0:
 222              		.size	CYMEMZERO, .-CYMEMZERO
 223              		.section	.text.ClockSetup,"ax",%progbits
 224              		.align	2
ARM GAS  C:\Users\jason\AppData\Local\Temp\ccLYA89h.s 			page 10


 225              		.thumb
 226              		.thumb_func
 227              		.type	ClockSetup, %function
 228              	ClockSetup:
 229              	.LFB5:
 199:.\Generated_Source\PSoC5/cyfitter_cfg.c **** {
 230              		.loc 1 199 0
 231              		.cfi_startproc
 232              		@ args = 0, pretend = 0, frame = 0
 233              		@ frame_needed = 0, uses_anonymous_args = 0
 234 0000 F8B5     		push	{r3, r4, r5, r6, r7, lr}
 235              		.cfi_def_cfa_offset 24
 236              		.cfi_offset 3, -24
 237              		.cfi_offset 4, -20
 238              		.cfi_offset 5, -16
 239              		.cfi_offset 6, -12
 240              		.cfi_offset 7, -8
 241              		.cfi_offset 14, -4
 205:.\Generated_Source\PSoC5/cyfitter_cfg.c **** 	CY_SET_XTND_REG16((void CYFAR *)(CYREG_CLKDIST_DCFG0_CFG0), 0x0000u);
 242              		.loc 1 205 0
 243 0002 0025     		movs	r5, #0
 244 0004 284B     		ldr	r3, .L17
 245 0006 1D80     		strh	r5, [r3]	@ movhi
 206:.\Generated_Source\PSoC5/cyfitter_cfg.c **** 	CY_SET_XTND_REG8((void CYFAR *)(CYREG_CLKDIST_DCFG0_CFG0 + 0x2u), 0x58u);
 246              		.loc 1 206 0
 247 0008 5822     		movs	r2, #88
 248 000a 0233     		adds	r3, r3, #2
 249 000c 1A70     		strb	r2, [r3]
 207:.\Generated_Source\PSoC5/cyfitter_cfg.c **** 	CY_SET_XTND_REG16((void CYFAR *)(CYREG_CLKDIST_DCFG1_CFG0), 0x002Fu);
 250              		.loc 1 207 0
 251 000e 2F22     		movs	r2, #47
 252 0010 0233     		adds	r3, r3, #2
 253 0012 1A80     		strh	r2, [r3]	@ movhi
 208:.\Generated_Source\PSoC5/cyfitter_cfg.c **** 	CY_SET_XTND_REG8((void CYFAR *)(CYREG_CLKDIST_DCFG1_CFG0 + 0x2u), 0x18u);
 254              		.loc 1 208 0
 255 0014 1822     		movs	r2, #24
 256 0016 0233     		adds	r3, r3, #2
 257 0018 1A70     		strb	r2, [r3]
 211:.\Generated_Source\PSoC5/cyfitter_cfg.c **** 	CY_SET_XTND_REG8((void CYFAR *)(CYREG_SLOWCLK_ILO_CR0), 0x06u);
 258              		.loc 1 211 0
 259 001a 0622     		movs	r2, #6
 260 001c 03F27A23 		addw	r3, r3, #634
 261 0020 1A70     		strb	r2, [r3]
 214:.\Generated_Source\PSoC5/cyfitter_cfg.c **** 	CY_SET_XTND_REG8((void CYFAR *)(CYREG_FASTCLK_IMO_CR), 0x52u);
 262              		.loc 1 214 0
 263 0022 5222     		movs	r2, #82
 264 0024 A3F58073 		sub	r3, r3, #256
 265 0028 1A70     		strb	r2, [r3]
 215:.\Generated_Source\PSoC5/cyfitter_cfg.c **** 	CY_SET_XTND_REG8((void CYFAR *)(CYREG_IMO_TR1), (CY_GET_XTND_REG8((void CYFAR *)CYREG_FLSHID_CUST_
 266              		.loc 1 215 0
 267 002a 204B     		ldr	r3, .L17+4
 268 002c 1A78     		ldrb	r2, [r3]	@ zero_extendqisi2
 269 002e D2B2     		uxtb	r2, r2
 270 0030 1F4B     		ldr	r3, .L17+8
 271 0032 1A70     		strb	r2, [r3]
 218:.\Generated_Source\PSoC5/cyfitter_cfg.c **** 	CY_SET_XTND_REG16((void CYFAR *)(CYREG_FASTCLK_PLL_P), 0x0710u);
 272              		.loc 1 218 0
ARM GAS  C:\Users\jason\AppData\Local\Temp\ccLYA89h.s 			page 11


 273 0034 4FF4E262 		mov	r2, #1808
 274 0038 A3F27F43 		subw	r3, r3, #1151
 275 003c 1A80     		strh	r2, [r3]	@ movhi
 219:.\Generated_Source\PSoC5/cyfitter_cfg.c **** 	CY_SET_XTND_REG16((void CYFAR *)(CYREG_FASTCLK_PLL_CFG0), 0x1251u);
 276              		.loc 1 219 0
 277 003e 41F25122 		movw	r2, #4689
 278 0042 023B     		subs	r3, r3, #2
 279 0044 1A80     		strh	r2, [r3]	@ movhi
 280              	.LVL19:
 222:.\Generated_Source\PSoC5/cyfitter_cfg.c **** 	for (timeout = 250u / 10u; (timeout > 0u) && (pllLock != 0x03u); timeout--)
 281              		.loc 1 222 0
 282 0046 1924     		movs	r4, #25
 224:.\Generated_Source\PSoC5/cyfitter_cfg.c **** 		pllLock = 0x03u & ((uint8)((uint8)pllLock << 1) | ((CY_GET_XTND_REG8((void CYFAR *)CYREG_FASTCLK_
 283              		.loc 1 224 0
 284 0048 1A4F     		ldr	r7, .L17+12
 225:.\Generated_Source\PSoC5/cyfitter_cfg.c **** 		CyDelayCycles(10u * 48u); /* Delay 10us based on 48MHz clock */
 285              		.loc 1 225 0
 286 004a 4FF4F076 		mov	r6, #480
 222:.\Generated_Source\PSoC5/cyfitter_cfg.c **** 	for (timeout = 250u / 10u; (timeout > 0u) && (pllLock != 0x03u); timeout--)
 287              		.loc 1 222 0
 288 004e 0AE0     		b	.L13
 289              	.LVL20:
 290              	.L15:
 224:.\Generated_Source\PSoC5/cyfitter_cfg.c **** 		pllLock = 0x03u & ((uint8)((uint8)pllLock << 1) | ((CY_GET_XTND_REG8((void CYFAR *)CYREG_FASTCLK_
 291              		.loc 1 224 0 discriminator 1
 292 0050 3B78     		ldrb	r3, [r7]	@ zero_extendqisi2
 293 0052 03F00103 		and	r3, r3, #1
 294 0056 43EA4505 		orr	r5, r3, r5, lsl #1
 295              	.LVL21:
 296 005a 05F00305 		and	r5, r5, #3
 297              	.LVL22:
 225:.\Generated_Source\PSoC5/cyfitter_cfg.c **** 		CyDelayCycles(10u * 48u); /* Delay 10us based on 48MHz clock */
 298              		.loc 1 225 0 discriminator 1
 299 005e 3046     		mov	r0, r6
 300 0060 FFF7FEFF 		bl	CyDelayCycles
 301              	.LVL23:
 222:.\Generated_Source\PSoC5/cyfitter_cfg.c **** 	for (timeout = 250u / 10u; (timeout > 0u) && (pllLock != 0x03u); timeout--)
 302              		.loc 1 222 0 discriminator 1
 303 0064 013C     		subs	r4, r4, #1
 304              	.LVL24:
 305              	.L13:
 306 0066 0CB1     		cbz	r4, .L14
 222:.\Generated_Source\PSoC5/cyfitter_cfg.c **** 	for (timeout = 250u / 10u; (timeout > 0u) && (pllLock != 0x03u); timeout--)
 307              		.loc 1 222 0 is_stmt 0 discriminator 2
 308 0068 032D     		cmp	r5, #3
 309 006a F1D1     		bne	.L15
 310              	.L14:
 228:.\Generated_Source\PSoC5/cyfitter_cfg.c **** 	if (timeout == 0u)
 311              		.loc 1 228 0 is_stmt 1
 312 006c 14B9     		cbnz	r4, .L16
 230:.\Generated_Source\PSoC5/cyfitter_cfg.c **** 		CyClockStartupError(CYCLOCKSTART_PLL_ERROR);
 313              		.loc 1 230 0
 314 006e 0320     		movs	r0, #3
 315 0070 FFF7FEFF 		bl	CyClockStartupError
 316              	.LVL25:
 317              	.L16:
 234:.\Generated_Source\PSoC5/cyfitter_cfg.c **** 	CY_SET_XTND_REG16((void CYFAR *)(CYREG_CLKDIST_MSTR0), 0x0100u);
ARM GAS  C:\Users\jason\AppData\Local\Temp\ccLYA89h.s 			page 12


 318              		.loc 1 234 0
 319 0074 104A     		ldr	r2, .L17+16
 320 0076 4FF48073 		mov	r3, #256
 321 007a 1380     		strh	r3, [r2]	@ movhi
 235:.\Generated_Source\PSoC5/cyfitter_cfg.c **** 	CY_SET_XTND_REG8((void CYFAR *)(CYREG_CLKDIST_MSTR0), 0x07u);
 322              		.loc 1 235 0
 323 007c 0723     		movs	r3, #7
 324 007e 1370     		strb	r3, [r2]
 236:.\Generated_Source\PSoC5/cyfitter_cfg.c **** 	CY_SET_XTND_REG8((void CYFAR *)(CYREG_CLKDIST_BCFG0), 0x00u);
 325              		.loc 1 236 0
 326 0080 0023     		movs	r3, #0
 327 0082 0E49     		ldr	r1, .L17+20
 328 0084 0B70     		strb	r3, [r1]
 237:.\Generated_Source\PSoC5/cyfitter_cfg.c **** 	CY_SET_XTND_REG8((void CYFAR *)(CYREG_CLKDIST_BCFG2), 0x48u);
 329              		.loc 1 237 0
 330 0086 4820     		movs	r0, #72
 331 0088 0231     		adds	r1, r1, #2
 332 008a 0870     		strb	r0, [r1]
 238:.\Generated_Source\PSoC5/cyfitter_cfg.c **** 	CY_SET_XTND_REG8((void CYFAR *)(CYREG_CLKDIST_MSTR0), 0x00u);
 333              		.loc 1 238 0
 334 008c 1370     		strb	r3, [r2]
 241:.\Generated_Source\PSoC5/cyfitter_cfg.c **** 	CY_SET_XTND_REG8((void CYFAR *)(CYREG_CLKDIST_UCFG), 0x00u);
 335              		.loc 1 241 0
 336 008e 0532     		adds	r2, r2, #5
 337 0090 1370     		strb	r3, [r2]
 242:.\Generated_Source\PSoC5/cyfitter_cfg.c **** 	CY_SET_XTND_REG8((void CYFAR *)(CYREG_CLKDIST_LD), 0x02u);
 338              		.loc 1 242 0
 339 0092 0222     		movs	r2, #2
 340 0094 0A4B     		ldr	r3, .L17+24
 341 0096 1A70     		strb	r2, [r3]
 244:.\Generated_Source\PSoC5/cyfitter_cfg.c **** 	CY_SET_XTND_REG8((void CYFAR *)(CYREG_PM_ACT_CFG2), ((CY_GET_XTND_REG8((void CYFAR *)CYREG_PM_ACT_
 342              		.loc 1 244 0
 343 0098 03F2A133 		addw	r3, r3, #929
 344 009c 1A78     		ldrb	r2, [r3]	@ zero_extendqisi2
 345 009e 42F00302 		orr	r2, r2, #3
 346 00a2 1A70     		strb	r2, [r3]
 347 00a4 F8BD     		pop	{r3, r4, r5, r6, r7, pc}
 348              	.LVL26:
 349              	.L18:
 350 00a6 00BF     		.align	2
 351              	.L17:
 352 00a8 80400040 		.word	1073758336
 353 00ac 0F010049 		.word	1224737039
 354 00b0 A1460040 		.word	1073759905
 355 00b4 25420040 		.word	1073758757
 356 00b8 04400040 		.word	1073758212
 357 00bc 06400040 		.word	1073758214
 358 00c0 01400040 		.word	1073758209
 359              		.cfi_endproc
 360              	.LFE5:
 361              		.size	ClockSetup, .-ClockSetup
 362              		.section	.text.CYCONFIGCPY,"ax",%progbits
 363              		.align	2
 364              		.thumb
 365              		.thumb_func
 366              		.type	CYCONFIGCPY, %function
 367              	CYCONFIGCPY:
ARM GAS  C:\Users\jason\AppData\Local\Temp\ccLYA89h.s 			page 13


 368              	.LFB1:
  68:.\Generated_Source\PSoC5/cyfitter_cfg.c **** {
 369              		.loc 1 68 0
 370              		.cfi_startproc
 371              		@ args = 0, pretend = 0, frame = 0
 372              		@ frame_needed = 0, uses_anonymous_args = 0
 373              	.LVL27:
 374 0000 08B5     		push	{r3, lr}
 375              		.cfi_def_cfa_offset 8
 376              		.cfi_offset 3, -8
 377              		.cfi_offset 14, -4
  69:.\Generated_Source\PSoC5/cyfitter_cfg.c **** 	(void)memcpy(dest, src, n);
 378              		.loc 1 69 0
 379 0002 FFF7FEFF 		bl	memcpy
 380              	.LVL28:
 381 0006 08BD     		pop	{r3, pc}
 382              		.cfi_endproc
 383              	.LFE1:
 384              		.size	CYCONFIGCPY, .-CYCONFIGCPY
 385              		.section	.text.SetAnalogRoutingPumps,"ax",%progbits
 386              		.align	2
 387              		.global	SetAnalogRoutingPumps
 388              		.thumb
 389              		.thumb_func
 390              		.type	SetAnalogRoutingPumps, %function
 391              	SetAnalogRoutingPumps:
 392              	.LFB7:
 285:.\Generated_Source\PSoC5/cyfitter_cfg.c **** 
 286:.\Generated_Source\PSoC5/cyfitter_cfg.c **** 
 287:.\Generated_Source\PSoC5/cyfitter_cfg.c **** /*******************************************************************************
 288:.\Generated_Source\PSoC5/cyfitter_cfg.c **** * Function Name: SetAnalogRoutingPumps
 289:.\Generated_Source\PSoC5/cyfitter_cfg.c **** ********************************************************************************
 290:.\Generated_Source\PSoC5/cyfitter_cfg.c **** *
 291:.\Generated_Source\PSoC5/cyfitter_cfg.c **** * Summary:
 292:.\Generated_Source\PSoC5/cyfitter_cfg.c **** * Enables or disables the analog pumps feeding analog routing switches.
 293:.\Generated_Source\PSoC5/cyfitter_cfg.c **** * Intended to be called at startup, based on the Vdda system configuration;
 294:.\Generated_Source\PSoC5/cyfitter_cfg.c **** * may be called during operation when the user informs us that the Vdda voltage
 295:.\Generated_Source\PSoC5/cyfitter_cfg.c **** * crossed the pump threshold.
 296:.\Generated_Source\PSoC5/cyfitter_cfg.c **** *
 297:.\Generated_Source\PSoC5/cyfitter_cfg.c **** * Parameters:
 298:.\Generated_Source\PSoC5/cyfitter_cfg.c **** *  enabled - 1 to enable the pumps, 0 to disable the pumps
 299:.\Generated_Source\PSoC5/cyfitter_cfg.c **** *
 300:.\Generated_Source\PSoC5/cyfitter_cfg.c **** * Return:
 301:.\Generated_Source\PSoC5/cyfitter_cfg.c **** *  void
 302:.\Generated_Source\PSoC5/cyfitter_cfg.c **** *
 303:.\Generated_Source\PSoC5/cyfitter_cfg.c **** *******************************************************************************/
 304:.\Generated_Source\PSoC5/cyfitter_cfg.c **** void SetAnalogRoutingPumps(uint8 enabled)
 305:.\Generated_Source\PSoC5/cyfitter_cfg.c **** {
 393              		.loc 1 305 0
 394              		.cfi_startproc
 395              		@ args = 0, pretend = 0, frame = 0
 396              		@ frame_needed = 0, uses_anonymous_args = 0
 397              		@ link register save eliminated.
 398              	.LVL29:
 306:.\Generated_Source\PSoC5/cyfitter_cfg.c **** 	uint8 regValue = CY_GET_XTND_REG8((void CYFAR *)CYREG_PUMP_CR0);
 399              		.loc 1 306 0
 400 0000 054B     		ldr	r3, .L23
ARM GAS  C:\Users\jason\AppData\Local\Temp\ccLYA89h.s 			page 14


 401 0002 1B78     		ldrb	r3, [r3]	@ zero_extendqisi2
 402 0004 DBB2     		uxtb	r3, r3
 403              	.LVL30:
 307:.\Generated_Source\PSoC5/cyfitter_cfg.c **** 	if (enabled != 0u)
 404              		.loc 1 307 0
 405 0006 10B1     		cbz	r0, .L21
 308:.\Generated_Source\PSoC5/cyfitter_cfg.c **** 	{
 309:.\Generated_Source\PSoC5/cyfitter_cfg.c **** 		regValue |= 0x22u;
 406              		.loc 1 309 0
 407 0008 43F02203 		orr	r3, r3, #34
 408              	.LVL31:
 409 000c 01E0     		b	.L22
 410              	.L21:
 310:.\Generated_Source\PSoC5/cyfitter_cfg.c **** 	}
 311:.\Generated_Source\PSoC5/cyfitter_cfg.c **** 	else
 312:.\Generated_Source\PSoC5/cyfitter_cfg.c **** 	{
 313:.\Generated_Source\PSoC5/cyfitter_cfg.c **** 		regValue &= (uint8)~0x22u;
 411              		.loc 1 313 0
 412 000e 03F0DD03 		and	r3, r3, #221
 413              	.LVL32:
 414              	.L22:
 314:.\Generated_Source\PSoC5/cyfitter_cfg.c **** 	}
 315:.\Generated_Source\PSoC5/cyfitter_cfg.c **** 	CY_SET_XTND_REG8((void CYFAR *)CYREG_PUMP_CR0, regValue);
 415              		.loc 1 315 0
 416 0012 014A     		ldr	r2, .L23
 417 0014 1370     		strb	r3, [r2]
 418 0016 7047     		bx	lr
 419              	.L24:
 420              		.align	2
 421              	.L23:
 422 0018 76580040 		.word	1073764470
 423              		.cfi_endproc
 424              	.LFE7:
 425              		.size	SetAnalogRoutingPumps, .-SetAnalogRoutingPumps
 426              		.section	.text.cyfitter_cfg,"ax",%progbits
 427              		.align	2
 428              		.global	cyfitter_cfg
 429              		.thumb
 430              		.thumb_func
 431              		.type	cyfitter_cfg, %function
 432              	cyfitter_cfg:
 433              	.LFB8:
 316:.\Generated_Source\PSoC5/cyfitter_cfg.c **** }
 317:.\Generated_Source\PSoC5/cyfitter_cfg.c **** 
 318:.\Generated_Source\PSoC5/cyfitter_cfg.c **** #define CY_AMUX_UNUSED CYREG_BOOST_SR
 319:.\Generated_Source\PSoC5/cyfitter_cfg.c **** 
 320:.\Generated_Source\PSoC5/cyfitter_cfg.c **** 
 321:.\Generated_Source\PSoC5/cyfitter_cfg.c **** /*******************************************************************************
 322:.\Generated_Source\PSoC5/cyfitter_cfg.c **** * Function Name: cyfitter_cfg
 323:.\Generated_Source\PSoC5/cyfitter_cfg.c **** ********************************************************************************
 324:.\Generated_Source\PSoC5/cyfitter_cfg.c **** * Summary:
 325:.\Generated_Source\PSoC5/cyfitter_cfg.c **** *  This function is called by the start-up code for the selected device. It
 326:.\Generated_Source\PSoC5/cyfitter_cfg.c **** *  performs all of the necessary device configuration based on the design
 327:.\Generated_Source\PSoC5/cyfitter_cfg.c **** *  settings.  This includes settings from the Design Wide Resources (DWR) such
 328:.\Generated_Source\PSoC5/cyfitter_cfg.c **** *  as Clocks and Pins as well as any component configuration that is necessary.
 329:.\Generated_Source\PSoC5/cyfitter_cfg.c **** *
 330:.\Generated_Source\PSoC5/cyfitter_cfg.c **** * Parameters:  
ARM GAS  C:\Users\jason\AppData\Local\Temp\ccLYA89h.s 			page 15


 331:.\Generated_Source\PSoC5/cyfitter_cfg.c **** *   void
 332:.\Generated_Source\PSoC5/cyfitter_cfg.c **** *
 333:.\Generated_Source\PSoC5/cyfitter_cfg.c **** * Return:
 334:.\Generated_Source\PSoC5/cyfitter_cfg.c **** *   void
 335:.\Generated_Source\PSoC5/cyfitter_cfg.c **** *
 336:.\Generated_Source\PSoC5/cyfitter_cfg.c **** *******************************************************************************/
 337:.\Generated_Source\PSoC5/cyfitter_cfg.c **** 
 338:.\Generated_Source\PSoC5/cyfitter_cfg.c **** void cyfitter_cfg(void)
 339:.\Generated_Source\PSoC5/cyfitter_cfg.c **** {
 434              		.loc 1 339 0
 435              		.cfi_startproc
 436              		@ args = 0, pretend = 0, frame = 0
 437              		@ frame_needed = 0, uses_anonymous_args = 0
 438 0000 70B5     		push	{r4, r5, r6, lr}
 439              		.cfi_def_cfa_offset 16
 440              		.cfi_offset 4, -16
 441              		.cfi_offset 5, -12
 442              		.cfi_offset 6, -8
 443              		.cfi_offset 14, -4
 340:.\Generated_Source\PSoC5/cyfitter_cfg.c **** #ifdef CYGlobalIntDisable
 341:.\Generated_Source\PSoC5/cyfitter_cfg.c **** 	/* Disable interrupts by default. Let user enable if/when they want. */
 342:.\Generated_Source\PSoC5/cyfitter_cfg.c **** 	CYGlobalIntDisable
 444              		.loc 1 342 0
 445              	@ 342 ".\Generated_Source\PSoC5\cyfitter_cfg.c" 1
 446 0002 72B6     		CPSID   i
 447              	@ 0 "" 2
 343:.\Generated_Source\PSoC5/cyfitter_cfg.c **** #endif
 344:.\Generated_Source\PSoC5/cyfitter_cfg.c **** 
 345:.\Generated_Source\PSoC5/cyfitter_cfg.c **** 	/* Enable/Disable Debug functionality based on settings from System DWR */
 346:.\Generated_Source\PSoC5/cyfitter_cfg.c **** 	CY_SET_XTND_REG8((void CYFAR *)CYREG_MLOGIC_DEBUG, (CY_GET_XTND_REG8((void CYFAR *)CYREG_MLOGIC_DE
 448              		.loc 1 346 0
 449              		.thumb
 450 0004 2B4B     		ldr	r3, .L28
 451 0006 1A78     		ldrb	r2, [r3]	@ zero_extendqisi2
 452 0008 42F00402 		orr	r2, r2, #4
 453 000c 1A70     		strb	r2, [r3]
 454              	.LVL33:
 455              	.LBB3:
 347:.\Generated_Source\PSoC5/cyfitter_cfg.c **** 
 348:.\Generated_Source\PSoC5/cyfitter_cfg.c **** 	{
 349:.\Generated_Source\PSoC5/cyfitter_cfg.c **** 
 350:.\Generated_Source\PSoC5/cyfitter_cfg.c **** 		CYPACKED typedef struct {
 351:.\Generated_Source\PSoC5/cyfitter_cfg.c **** 			void CYFAR *address;
 352:.\Generated_Source\PSoC5/cyfitter_cfg.c **** 			uint16 size;
 353:.\Generated_Source\PSoC5/cyfitter_cfg.c **** 		} CYPACKED_ATTR cfg_memset_t;
 354:.\Generated_Source\PSoC5/cyfitter_cfg.c **** 
 355:.\Generated_Source\PSoC5/cyfitter_cfg.c **** 		static const cfg_memset_t CYCODE cfg_memset_list [] = {
 356:.\Generated_Source\PSoC5/cyfitter_cfg.c **** 			/* address, size */
 357:.\Generated_Source\PSoC5/cyfitter_cfg.c **** 			{(void CYFAR *)(CYREG_PRT1_DR), 16u},
 358:.\Generated_Source\PSoC5/cyfitter_cfg.c **** 			{(void CYFAR *)(CYREG_PRT3_DR), 16u},
 359:.\Generated_Source\PSoC5/cyfitter_cfg.c **** 			{(void CYFAR *)(CYREG_PRT5_DR), 16u},
 360:.\Generated_Source\PSoC5/cyfitter_cfg.c **** 			{(void CYFAR *)(CYREG_PRT12_DR), 16u},
 361:.\Generated_Source\PSoC5/cyfitter_cfg.c **** 			{(void CYFAR *)(CYREG_PRT15_DR), 16u},
 362:.\Generated_Source\PSoC5/cyfitter_cfg.c **** 			{(void CYFAR *)(CYDEV_UCFG_B0_P0_U0_BASE), 4096u},
 363:.\Generated_Source\PSoC5/cyfitter_cfg.c **** 			{(void CYFAR *)(CYDEV_UCFG_B1_P2_U0_BASE), 2048u},
 364:.\Generated_Source\PSoC5/cyfitter_cfg.c **** 			{(void CYFAR *)(CYDEV_UCFG_DSI0_BASE), 2560u},
 365:.\Generated_Source\PSoC5/cyfitter_cfg.c **** 			{(void CYFAR *)(CYDEV_UCFG_DSI12_BASE), 512u},
ARM GAS  C:\Users\jason\AppData\Local\Temp\ccLYA89h.s 			page 16


 366:.\Generated_Source\PSoC5/cyfitter_cfg.c **** 			{(void CYFAR *)(CYREG_BCTL0_MDCLK_EN), 32u},
 367:.\Generated_Source\PSoC5/cyfitter_cfg.c **** 		};
 368:.\Generated_Source\PSoC5/cyfitter_cfg.c **** 
 369:.\Generated_Source\PSoC5/cyfitter_cfg.c **** 		uint8 CYDATA i;
 370:.\Generated_Source\PSoC5/cyfitter_cfg.c **** 
 371:.\Generated_Source\PSoC5/cyfitter_cfg.c **** 		/* Zero out critical memory blocks before beginning configuration */
 372:.\Generated_Source\PSoC5/cyfitter_cfg.c **** 		for (i = 0u; i < (sizeof(cfg_memset_list)/sizeof(cfg_memset_list[0])); i++)
 456              		.loc 1 372 0
 457 000e 0024     		movs	r4, #0
 458              	.LBB4:
 373:.\Generated_Source\PSoC5/cyfitter_cfg.c **** 		{
 374:.\Generated_Source\PSoC5/cyfitter_cfg.c **** 			const cfg_memset_t CYCODE * CYDATA ms = &cfg_memset_list[i];
 459              		.loc 1 374 0
 460 0010 294D     		ldr	r5, .L28+4
 461              	.LBE4:
 372:.\Generated_Source\PSoC5/cyfitter_cfg.c **** 		for (i = 0u; i < (sizeof(cfg_memset_list)/sizeof(cfg_memset_list[0])); i++)
 462              		.loc 1 372 0
 463 0012 09E0     		b	.L26
 464              	.LVL34:
 465              	.L27:
 466              	.LBB5:
 467              		.loc 1 374 0 discriminator 2
 468 0014 04EB4403 		add	r3, r4, r4, lsl #1
 469 0018 5B00     		lsls	r3, r3, #1
 470 001a 2B44     		add	r3, r3, r5
 471              	.LVL35:
 375:.\Generated_Source\PSoC5/cyfitter_cfg.c **** 			CYMEMZERO(ms->address, (size_t)(uint32)(ms->size));
 472              		.loc 1 375 0 discriminator 2
 473 001c 1868     		ldr	r0, [r3]	@ unaligned
 474 001e 9988     		ldrh	r1, [r3, #4]
 475 0020 FFF7FEFF 		bl	CYMEMZERO
 476              	.LVL36:
 477              	.LBE5:
 372:.\Generated_Source\PSoC5/cyfitter_cfg.c **** 		for (i = 0u; i < (sizeof(cfg_memset_list)/sizeof(cfg_memset_list[0])); i++)
 478              		.loc 1 372 0 discriminator 2
 479 0024 0134     		adds	r4, r4, #1
 480              	.LVL37:
 481 0026 E4B2     		uxtb	r4, r4
 482              	.LVL38:
 483              	.L26:
 372:.\Generated_Source\PSoC5/cyfitter_cfg.c **** 		for (i = 0u; i < (sizeof(cfg_memset_list)/sizeof(cfg_memset_list[0])); i++)
 484              		.loc 1 372 0 is_stmt 0 discriminator 1
 485 0028 092C     		cmp	r4, #9
 486 002a F3D9     		bls	.L27
 376:.\Generated_Source\PSoC5/cyfitter_cfg.c **** 		}
 377:.\Generated_Source\PSoC5/cyfitter_cfg.c **** 
 378:.\Generated_Source\PSoC5/cyfitter_cfg.c **** 		cfg_write_bytes32(cy_cfg_addr_table, cy_cfg_data_table);
 487              		.loc 1 378 0 is_stmt 1
 488 002c 4FF09040 		mov	r0, #1207959552
 489 0030 2249     		ldr	r1, .L28+8
 490 0032 FFF7FEFF 		bl	cfg_write_bytes32
 491              	.LVL39:
 379:.\Generated_Source\PSoC5/cyfitter_cfg.c **** 
 380:.\Generated_Source\PSoC5/cyfitter_cfg.c **** 		/* Enable digital routing */
 381:.\Generated_Source\PSoC5/cyfitter_cfg.c **** 		CY_SET_XTND_REG8((void CYFAR *)CYREG_BCTL0_BANK_CTL, CY_GET_XTND_REG8((void CYFAR *)CYREG_BCTL0_B
 492              		.loc 1 381 0
 493 0036 224B     		ldr	r3, .L28+12
ARM GAS  C:\Users\jason\AppData\Local\Temp\ccLYA89h.s 			page 17


 494 0038 1A78     		ldrb	r2, [r3]	@ zero_extendqisi2
 495 003a 42F00202 		orr	r2, r2, #2
 496 003e 1A70     		strb	r2, [r3]
 382:.\Generated_Source\PSoC5/cyfitter_cfg.c **** 		CY_SET_XTND_REG8((void CYFAR *)CYREG_BCTL1_BANK_CTL, CY_GET_XTND_REG8((void CYFAR *)CYREG_BCTL1_B
 497              		.loc 1 382 0
 498 0040 1033     		adds	r3, r3, #16
 499 0042 1A78     		ldrb	r2, [r3]	@ zero_extendqisi2
 500 0044 42F00202 		orr	r2, r2, #2
 501 0048 1A70     		strb	r2, [r3]
 383:.\Generated_Source\PSoC5/cyfitter_cfg.c **** 
 384:.\Generated_Source\PSoC5/cyfitter_cfg.c **** 		/* Enable UDB array */
 385:.\Generated_Source\PSoC5/cyfitter_cfg.c **** 		CY_SET_XTND_REG8((void CYFAR *)CYREG_PM_ACT_CFG0, CY_GET_XTND_REG8((void CYFAR *)CYREG_PM_ACT_CFG
 502              		.loc 1 385 0
 503 004a 1E4C     		ldr	r4, .L28+16
 504              	.LVL40:
 505 004c 2378     		ldrb	r3, [r4]	@ zero_extendqisi2
 506 004e 43F04003 		orr	r3, r3, #64
 507 0052 2370     		strb	r3, [r4]
 386:.\Generated_Source\PSoC5/cyfitter_cfg.c **** 		CY_SET_XTND_REG8((void CYFAR *)CYREG_PM_AVAIL_CR2, CY_GET_XTND_REG8((void CYFAR *)CYREG_PM_AVAIL_
 508              		.loc 1 386 0
 509 0054 1C4B     		ldr	r3, .L28+20
 510 0056 1A78     		ldrb	r2, [r3]	@ zero_extendqisi2
 511 0058 42F01002 		orr	r2, r2, #16
 512 005c 1A70     		strb	r2, [r3]
 513              	.LBE3:
 387:.\Generated_Source\PSoC5/cyfitter_cfg.c **** 	}
 388:.\Generated_Source\PSoC5/cyfitter_cfg.c **** 
 389:.\Generated_Source\PSoC5/cyfitter_cfg.c **** 
 390:.\Generated_Source\PSoC5/cyfitter_cfg.c **** 	/* Perform second pass device configuration. These items must be configured in specific order afte
 391:.\Generated_Source\PSoC5/cyfitter_cfg.c **** 	CYCONFIGCPY((void CYFAR *)(CYREG_PRT0_DM0), (const void CYFAR *)(BS_IOPINS0_0_VAL), 8u);
 514              		.loc 1 391 0
 515 005e 1B48     		ldr	r0, .L28+24
 516 0060 1B49     		ldr	r1, .L28+28
 517 0062 0822     		movs	r2, #8
 518 0064 FFF7FEFF 		bl	CYCONFIGCPY
 519              	.LVL41:
 392:.\Generated_Source\PSoC5/cyfitter_cfg.c **** 	CYCONFIGCPY((void CYFAR *)(CYREG_PRT2_DM0), (const void CYFAR *)(BS_IOPINS0_2_VAL), 8u);
 520              		.loc 1 392 0
 521 0068 1A48     		ldr	r0, .L28+32
 522 006a 1B49     		ldr	r1, .L28+36
 523 006c 0822     		movs	r2, #8
 524 006e FFF7FEFF 		bl	CYCONFIGCPY
 525              	.LVL42:
 393:.\Generated_Source\PSoC5/cyfitter_cfg.c **** 	CYCONFIGCPY((void CYFAR *)(CYREG_PRT4_DM0), (const void CYFAR *)(BS_IOPINS0_4_VAL), 8u);
 526              		.loc 1 393 0
 527 0072 1A48     		ldr	r0, .L28+40
 528 0074 1A49     		ldr	r1, .L28+44
 529 0076 0822     		movs	r2, #8
 530 0078 FFF7FEFF 		bl	CYCONFIGCPY
 531              	.LVL43:
 394:.\Generated_Source\PSoC5/cyfitter_cfg.c **** 	CYCONFIGCPY((void CYFAR *)(CYREG_PRT6_DM0), (const void CYFAR *)(BS_IOPINS0_6_VAL), 8u);
 532              		.loc 1 394 0
 533 007c 1948     		ldr	r0, .L28+48
 534 007e 1A49     		ldr	r1, .L28+52
 535 0080 0822     		movs	r2, #8
 536 0082 FFF7FEFF 		bl	CYCONFIGCPY
 537              	.LVL44:
ARM GAS  C:\Users\jason\AppData\Local\Temp\ccLYA89h.s 			page 18


 395:.\Generated_Source\PSoC5/cyfitter_cfg.c **** 	/* Switch Boost to the precision bandgap reference from its internal reference */
 396:.\Generated_Source\PSoC5/cyfitter_cfg.c **** 	CY_SET_REG8((void CYXDATA *)CYREG_BOOST_CR2, (CY_GET_REG8((void CYXDATA *)CYREG_BOOST_CR2) | 0x08u
 538              		.loc 1 396 0
 539 0086 194B     		ldr	r3, .L28+56
 540 0088 1A78     		ldrb	r2, [r3]	@ zero_extendqisi2
 541 008a 42F00802 		orr	r2, r2, #8
 542 008e 1A70     		strb	r2, [r3]
 397:.\Generated_Source\PSoC5/cyfitter_cfg.c **** 
 398:.\Generated_Source\PSoC5/cyfitter_cfg.c **** 	/* Set Flash Cycles based on max possible frequency in case a glitch occurs during ClockSetup(). *
 399:.\Generated_Source\PSoC5/cyfitter_cfg.c **** 	CY_SET_XTND_REG8((void CYFAR *)(CYREG_CACHE_CC_CTL), (((CYDEV_INSTRUCT_CACHE_ENABLED) != 0) ? 0x01
 543              		.loc 1 399 0
 544 0090 174E     		ldr	r6, .L28+60
 545 0092 0125     		movs	r5, #1
 546 0094 3570     		strb	r5, [r6]
 400:.\Generated_Source\PSoC5/cyfitter_cfg.c **** 	/* Setup clocks based on selections from Clock DWR */
 401:.\Generated_Source\PSoC5/cyfitter_cfg.c **** 	ClockSetup();
 547              		.loc 1 401 0
 548 0096 FFF7FEFF 		bl	ClockSetup
 549              	.LVL45:
 402:.\Generated_Source\PSoC5/cyfitter_cfg.c **** 	/* Set Flash Cycles based on newly configured 48.00MHz Bus Clock. */
 403:.\Generated_Source\PSoC5/cyfitter_cfg.c **** 	CY_SET_XTND_REG8((void CYFAR *)(CYREG_CACHE_CC_CTL), (((CYDEV_INSTRUCT_CACHE_ENABLED) != 0) ? 0xC1
 550              		.loc 1 403 0
 551 009a C123     		movs	r3, #193
 552 009c 3370     		strb	r3, [r6]
 404:.\Generated_Source\PSoC5/cyfitter_cfg.c **** 	CY_SET_XTND_REG8((void CYFAR *)(CYREG_PANTHER_WAITPIPE), 0x01u);
 553              		.loc 1 404 0
 554 009e 154B     		ldr	r3, .L28+64
 555 00a0 1D70     		strb	r5, [r3]
 405:.\Generated_Source\PSoC5/cyfitter_cfg.c **** 
 406:.\Generated_Source\PSoC5/cyfitter_cfg.c **** 	/* Perform basic analog initialization to defaults */
 407:.\Generated_Source\PSoC5/cyfitter_cfg.c **** 	AnalogSetDefault();
 556              		.loc 1 407 0
 557 00a2 FFF7FEFF 		bl	AnalogSetDefault
 558              	.LVL46:
 408:.\Generated_Source\PSoC5/cyfitter_cfg.c **** 
 409:.\Generated_Source\PSoC5/cyfitter_cfg.c **** 	/* Configure alternate active mode */
 410:.\Generated_Source\PSoC5/cyfitter_cfg.c **** 	CYCONFIGCPY((void CYFAR *)CYDEV_PM_STBY_BASE, (const void CYFAR *)CYDEV_PM_ACT_BASE, 14u);
 559              		.loc 1 410 0
 560 00a6 1448     		ldr	r0, .L28+68
 561 00a8 2146     		mov	r1, r4
 562 00aa 0E22     		movs	r2, #14
 563 00ac FFF7FEFF 		bl	CYCONFIGCPY
 564              	.LVL47:
 565 00b0 70BD     		pop	{r4, r5, r6, pc}
 566              	.L29:
 567 00b2 00BF     		.align	2
 568              	.L28:
 569 00b4 E8460040 		.word	1073759976
 570 00b8 00000000 		.word	.LANCHOR0
 571 00bc 7C000048 		.word	1207959676
 572 00c0 03500140 		.word	1073827843
 573 00c4 A0430040 		.word	1073759136
 574 00c8 C2430040 		.word	1073759170
 575 00cc 02510040 		.word	1073762562
 576 00d0 04040048 		.word	1207960580
 577 00d4 22510040 		.word	1073762594
 578 00d8 0C040048 		.word	1207960588
ARM GAS  C:\Users\jason\AppData\Local\Temp\ccLYA89h.s 			page 19


 579 00dc 42510040 		.word	1073762626
 580 00e0 14040048 		.word	1207960596
 581 00e4 62510040 		.word	1073762658
 582 00e8 1C040048 		.word	1207960604
 583 00ec 22430040 		.word	1073759010
 584 00f0 00480040 		.word	1073760256
 585 00f4 04000840 		.word	1074266116
 586 00f8 B0430040 		.word	1073759152
 587              		.cfi_endproc
 588              	.LFE8:
 589              		.size	cyfitter_cfg, .-cyfitter_cfg
 590              		.section	.rodata
 591              		.align	2
 592              		.set	.LANCHOR0,. + 0
 593              		.type	cfg_memset_list.4885, %object
 594              		.size	cfg_memset_list.4885, 60
 595              	cfg_memset_list.4885:
 596 0000 10510040 		.word	1073762576
 597 0004 1000     		.short	16
 598 0006 30510040 		.4byte	1073762608
 599 000a 1000     		.short	16
 600 000c 50510040 		.word	1073762640
 601 0010 1000     		.short	16
 602 0012 C0510040 		.4byte	1073762752
 603 0016 1000     		.short	16
 604 0018 F0510040 		.word	1073762800
 605 001c 1000     		.short	16
 606 001e 00000140 		.4byte	1073807360
 607 0022 0010     		.short	4096
 608 0024 00140140 		.word	1073812480
 609 0028 0008     		.short	2048
 610 002a 00400140 		.4byte	1073823744
 611 002e 000A     		.short	2560
 612 0030 004C0140 		.word	1073826816
 613 0034 0002     		.short	512
 614 0036 00500140 		.4byte	1073827840
 615 003a 2000     		.short	32
 616              		.text
 617              	.Letext0:
 618              		.file 2 "c:\\program files (x86)\\cypress\\psoc creator\\3.2\\psoc creator\\import\\gnu\\arm\\4.8.
 619              		.file 3 ".\\Generated_Source\\PSoC5\\cytypes.h"
 620              		.file 4 ".\\Generated_Source\\PSoC5\\CyLib.h"