ARM GAS  C:\Users\jason\AppData\Local\Temp\ccvuOBLV.s 			page 1


   1              		.syntax unified
   2              		.cpu cortex-m3
   3              		.fpu softvfp
   4              		.eabi_attribute 20, 1
   5              		.eabi_attribute 21, 1
   6              		.eabi_attribute 23, 3
   7              		.eabi_attribute 24, 1
   8              		.eabi_attribute 25, 1
   9              		.eabi_attribute 26, 1
  10              		.eabi_attribute 30, 1
  11              		.eabi_attribute 34, 1
  12              		.eabi_attribute 18, 4
  13              		.thumb
  14              		.file	"main.c"
  15              		.text
  16              	.Ltext0:
  17              		.cfi_sections	.debug_frame
  18              		.section	.text.GetSample,"ax",%progbits
  19              		.align	2
  20              		.global	GetSample
  21              		.thumb
  22              		.thumb_func
  23              		.type	GetSample, %function
  24              	GetSample:
  25              	.LFB66:
  26              		.file 1 ".\\main.c"
   1:.\main.c      **** /* ========================================
   2:.\main.c      ****  *
   3:.\main.c      ****  * Copyright HUMMINGBIRD, 2017
   4:.\main.c      ****  * All Rights Reserved
   5:.\main.c      ****  * UNPUBLISHED, LICENSED SOFTWARE.
   6:.\main.c      ****  *
   7:.\main.c      ****  * CONFIDENTIAL AND PROPRIETARY INFORMATION
   8:.\main.c      ****  * WHICH IS THE PROPERTY OF HUMMINGBIRD.
   9:.\main.c      ****  *
  10:.\main.c      ****  * ========================================
  11:.\main.c      **** */
  12:.\main.c      **** #include <project.h>
  13:.\main.c      **** #include <stdio.h>
  14:.\main.c      **** #include <string.h>     
  15:.\main.c      **** #include <stdlib.h>
  16:.\main.c      **** #include <WAV.h>
  17:.\main.c      **** #include <FS.h>
  18:.\main.c      **** 
  19:.\main.c      **** int16 ADCoutput;
  20:.\main.c      **** 
  21:.\main.c      **** #define DATA_LENGTH 1024u
  22:.\main.c      **** short dataFrame1[DATA_LENGTH] = {};
  23:.\main.c      **** short dataFrame2[DATA_LENGTH] = {};
  24:.\main.c      **** uint16 frameIndex = 0;
  25:.\main.c      **** uint8 currFrame = 0;
  26:.\main.c      **** 
  27:.\main.c      **** char8 LCDstr[10];
  28:.\main.c      **** int16 bufferFull = 0;
  29:.\main.c      **** uint8 frameCompleteFlag=0;
  30:.\main.c      **** 
  31:.\main.c      **** FS_FILE * pFile;
ARM GAS  C:\Users\jason\AppData\Local\Temp\ccvuOBLV.s 			page 2


  32:.\main.c      **** FILE *wav_sample;
  33:.\main.c      **** const char *file = "wav_sample";
  34:.\main.c      **** 
  35:.\main.c      **** 
  36:.\main.c      **** CY_ISR_PROTO(GetSample);  //declare the interrupt
  37:.\main.c      **** 
  38:.\main.c      **** const char *byte_to_binary(int x)
  39:.\main.c      **** {
  40:.\main.c      ****     static char b[9];
  41:.\main.c      ****     b[0] = '\0';
  42:.\main.c      **** 
  43:.\main.c      ****     int z;
  44:.\main.c      ****     for (z = 128; z > 0; z >>= 1)
  45:.\main.c      ****     {
  46:.\main.c      ****         strcat(b, ((x & z) == z) ? "1" : "0");
  47:.\main.c      ****     }
  48:.\main.c      **** 
  49:.\main.c      ****     return b;
  50:.\main.c      **** }
  51:.\main.c      **** 
  52:.\main.c      **** 
  53:.\main.c      **** int SizeOfString(char data[]){
  54:.\main.c      ****     int i = 0;
  55:.\main.c      ****     int size = 0;
  56:.\main.c      ****     while(i < 8){
  57:.\main.c      ****        
  58:.\main.c      ****         if(data[i] == '\n'){
  59:.\main.c      ****             size++;
  60:.\main.c      ****             return size;
  61:.\main.c      ****         }else{
  62:.\main.c      ****             size++;
  63:.\main.c      ****         } 
  64:.\main.c      ****         i++;
  65:.\main.c      ****     }
  66:.\main.c      ****     return size;
  67:.\main.c      **** }
  68:.\main.c      **** 
  69:.\main.c      **** int main()
  70:.\main.c      **** {    
  71:.\main.c      ****     // Enable global interrupts 
  72:.\main.c      ****     CyGlobalIntEnable;
  73:.\main.c      ****     
  74:.\main.c      ****     // Start the file system
  75:.\main.c      ****     FS_Init();
  76:.\main.c      ****     
  77:.\main.c      ****     // Start the LCD
  78:.\main.c      ****     LCD_Start();
  79:.\main.c      ****     
  80:.\main.c      ****     // Start the data sample timer
  81:.\main.c      ****     Timer_1_Start();
  82:.\main.c      ****     
  83:.\main.c      ****     // Start the ADC conversion
  84:.\main.c      ****     ADC_SAR_1_Start();
  85:.\main.c      ****     ADC_SAR_1_StartConvert();
  86:.\main.c      ****     
  87:.\main.c      ****     // Start the interrupt
  88:.\main.c      ****     isr_1_StartEx(GetSample);
ARM GAS  C:\Users\jason\AppData\Local\Temp\ccvuOBLV.s 			page 3


  89:.\main.c      ****     
  90:.\main.c      ****     // Display the value of ADC output on LCD 
  91:.\main.c      ****     //LCD_Position(0u, 0u);
  92:.\main.c      ****     //LCD_PrintString("ADC_Output:");
  93:.\main.c      ****     
  94:.\main.c      ****     //create .wav file, write all bytes to file
  95:.\main.c      ****     //wav_sample = wavfile_open(file);
  96:.\main.c      ****     //wavfile_write(wav_sample, dataFrame, DATA_LENGTH);
  97:.\main.c      ****     //wavfile_close(wav_sample);  
  98:.\main.c      ****     
  99:.\main.c      ****     pFile = FS_FOpen("wamples.txt", "w");
 100:.\main.c      ****     
 101:.\main.c      ****     for(;;)
 102:.\main.c      ****     {
 103:.\main.c      ****         
 104:.\main.c      ****         
 105:.\main.c      ****         // Skips the file writing until the buffer is full
 106:.\main.c      ****         if(bufferFull){
 107:.\main.c      ****             char data [16];
 108:.\main.c      ****             uint i;
 109:.\main.c      ****             // Fills the file with the data from the buffer
 110:.\main.c      ****             for(i = 0; i < DATA_LENGTH; i++){
 111:.\main.c      ****                 sprintf(data, "%d\n", dataFrame1[i]);
 112:.\main.c      ****                 FS_Write(pFile, data, SizeOfString(data));
 113:.\main.c      ****             }
 114:.\main.c      ****             bufferFull = 0;    // Stops it from continuing to print to file
 115:.\main.c      ****         
 116:.\main.c      ****              FS_FClose(pFile);
 117:.\main.c      ****         
 118:.\main.c      ****             sprintf(LCDstr, "Write Complete");
 119:.\main.c      ****             LCD_Position(0u, 0u);
 120:.\main.c      ****             LCD_PrintString(LCDstr);
 121:.\main.c      ****         
 122:.\main.c      ****         }
 123:.\main.c      ****         
 124:.\main.c      ****        
 125:.\main.c      ****         
 126:.\main.c      ****        
 127:.\main.c      ****     }
 128:.\main.c      **** }
 129:.\main.c      **** 
 130:.\main.c      **** CY_ISR(GetSample){
  27              		.loc 1 130 0
  28              		.cfi_startproc
  29              		@ args = 0, pretend = 0, frame = 0
  30              		@ frame_needed = 0, uses_anonymous_args = 0
  31 0000 08B5     		push	{r3, lr}
  32              		.cfi_def_cfa_offset 8
  33              		.cfi_offset 3, -8
  34              		.cfi_offset 14, -4
 131:.\main.c      ****     /* Clear pending Interrupt */
 132:.\main.c      ****     isr_1_ClearPending();
  35              		.loc 1 132 0
  36 0002 FFF7FEFF 		bl	isr_1_ClearPending
  37              	.LVL0:
 133:.\main.c      ****     
 134:.\main.c      ****     if(ADC_SAR_1_IsEndConversion(ADC_SAR_1_WAIT_FOR_RESULT)) {
ARM GAS  C:\Users\jason\AppData\Local\Temp\ccvuOBLV.s 			page 4


  38              		.loc 1 134 0
  39 0006 0020     		movs	r0, #0
  40 0008 FFF7FEFF 		bl	ADC_SAR_1_IsEndConversion
  41              	.LVL1:
  42 000c A8B1     		cbz	r0, .L1
 135:.\main.c      ****         ADCoutput = ADC_SAR_1_GetResult16();
  43              		.loc 1 135 0
  44 000e FFF7FEFF 		bl	ADC_SAR_1_GetResult16
  45              	.LVL2:
  46 0012 0A4B     		ldr	r3, .L4
  47 0014 1880     		strh	r0, [r3]	@ movhi
 136:.\main.c      ****         // Pushes the sample onto the frame (AKA buffer) if we have room
 137:.\main.c      ****         if(frameIndex < DATA_LENGTH){
  48              		.loc 1 137 0
  49 0016 0A4B     		ldr	r3, .L4+4
  50 0018 1B88     		ldrh	r3, [r3]
  51 001a B3F5806F 		cmp	r3, #1024
  52 001e 06D2     		bcs	.L3
 138:.\main.c      ****             dataFrame1[frameIndex] = ADCoutput;    
  53              		.loc 1 138 0
  54 0020 074A     		ldr	r2, .L4+4
  55 0022 02EB4301 		add	r1, r2, r3, lsl #1
  56 0026 8880     		strh	r0, [r1, #4]	@ movhi
 139:.\main.c      ****             frameIndex++;
  57              		.loc 1 139 0
  58 0028 0133     		adds	r3, r3, #1
  59 002a 1380     		strh	r3, [r2]	@ movhi
  60 002c 08BD     		pop	{r3, pc}
  61              	.L3:
 140:.\main.c      ****             
 141:.\main.c      ****         }else{          // Tells the main our buffer is full, resets frame index
 142:.\main.c      **** //            if(currFrame){
 143:.\main.c      **** //                currFrame = 0;
 144:.\main.c      **** //            }else{
 145:.\main.c      **** //                currFrame = 1;
 146:.\main.c      **** //            }
 147:.\main.c      ****             bufferFull = 1;
  62              		.loc 1 147 0
  63 002e 044B     		ldr	r3, .L4+4
  64 0030 0122     		movs	r2, #1
  65 0032 A3F80428 		strh	r2, [r3, #2052]	@ movhi
 148:.\main.c      ****             frameIndex = 0;
  66              		.loc 1 148 0
  67 0036 0022     		movs	r2, #0
  68 0038 1A80     		strh	r2, [r3]	@ movhi
  69              	.L1:
  70 003a 08BD     		pop	{r3, pc}
  71              	.L5:
  72              		.align	2
  73              	.L4:
  74 003c 00000000 		.word	ADCoutput
  75 0040 00000000 		.word	.LANCHOR0
  76              		.cfi_endproc
  77              	.LFE66:
  78              		.size	GetSample, .-GetSample
  79              		.section	.text.byte_to_binary,"ax",%progbits
  80              		.align	2
ARM GAS  C:\Users\jason\AppData\Local\Temp\ccvuOBLV.s 			page 5


  81              		.global	byte_to_binary
  82              		.thumb
  83              		.thumb_func
  84              		.type	byte_to_binary, %function
  85              	byte_to_binary:
  86              	.LFB63:
  39:.\main.c      **** {
  87              		.loc 1 39 0
  88              		.cfi_startproc
  89              		@ args = 0, pretend = 0, frame = 0
  90              		@ frame_needed = 0, uses_anonymous_args = 0
  91              	.LVL3:
  92 0000 2DE9F041 		push	{r4, r5, r6, r7, r8, lr}
  93              		.cfi_def_cfa_offset 24
  94              		.cfi_offset 4, -24
  95              		.cfi_offset 5, -20
  96              		.cfi_offset 6, -16
  97              		.cfi_offset 7, -12
  98              		.cfi_offset 8, -8
  99              		.cfi_offset 14, -4
 100 0004 0646     		mov	r6, r0
  41:.\main.c      ****     b[0] = '\0';
 101              		.loc 1 41 0
 102 0006 0022     		movs	r2, #0
 103 0008 0D4B     		ldr	r3, .L11
 104 000a 83F80828 		strb	r2, [r3, #2056]
 105              	.LVL4:
  44:.\main.c      ****     for (z = 128; z > 0; z >>= 1)
 106              		.loc 1 44 0
 107 000e 8024     		movs	r4, #128
  46:.\main.c      ****         strcat(b, ((x & z) == z) ? "1" : "0");
 108              		.loc 1 46 0
 109 0010 03F60805 		addw	r5, r3, #2056
 110 0014 0B4F     		ldr	r7, .L11+4
 111 0016 DFF83480 		ldr	r8, .L11+12
  44:.\main.c      ****     for (z = 128; z > 0; z >>= 1)
 112              		.loc 1 44 0
 113 001a 0CE0     		b	.L7
 114              	.LVL5:
 115              	.L9:
  46:.\main.c      ****         strcat(b, ((x & z) == z) ? "1" : "0");
 116              		.loc 1 46 0
 117 001c 2846     		mov	r0, r5
 118 001e FFF7FEFF 		bl	strlen
 119              	.LVL6:
 120 0022 06EA0403 		and	r3, r6, r4
 121 0026 A342     		cmp	r3, r4
 122 0028 01D1     		bne	.L10
 123 002a 4346     		mov	r3, r8
 124 002c 00E0     		b	.L8
 125              	.L10:
 126 002e 3B46     		mov	r3, r7
 127              	.L8:
  46:.\main.c      ****         strcat(b, ((x & z) == z) ? "1" : "0");
 128              		.loc 1 46 0 is_stmt 0 discriminator 3
 129 0030 1B88     		ldrh	r3, [r3]	@ unaligned
 130 0032 2B52     		strh	r3, [r5, r0]	@ unaligned
ARM GAS  C:\Users\jason\AppData\Local\Temp\ccvuOBLV.s 			page 6


  44:.\main.c      ****     for (z = 128; z > 0; z >>= 1)
 131              		.loc 1 44 0 is_stmt 1 discriminator 3
 132 0034 6410     		asrs	r4, r4, #1
 133              	.LVL7:
 134              	.L7:
  44:.\main.c      ****     for (z = 128; z > 0; z >>= 1)
 135              		.loc 1 44 0 is_stmt 0 discriminator 1
 136 0036 002C     		cmp	r4, #0
 137 0038 F0DC     		bgt	.L9
  50:.\main.c      **** }
 138              		.loc 1 50 0 is_stmt 1
 139 003a 0348     		ldr	r0, .L11+8
 140 003c BDE8F081 		pop	{r4, r5, r6, r7, r8, pc}
 141              	.LVL8:
 142              	.L12:
 143              		.align	2
 144              	.L11:
 145 0040 00000000 		.word	.LANCHOR0
 146 0044 04000000 		.word	.LC1
 147 0048 08080000 		.word	.LANCHOR0+2056
 148 004c 00000000 		.word	.LC0
 149              		.cfi_endproc
 150              	.LFE63:
 151              		.size	byte_to_binary, .-byte_to_binary
 152              		.section	.text.SizeOfString,"ax",%progbits
 153              		.align	2
 154              		.global	SizeOfString
 155              		.thumb
 156              		.thumb_func
 157              		.type	SizeOfString, %function
 158              	SizeOfString:
 159              	.LFB64:
  53:.\main.c      **** int SizeOfString(char data[]){
 160              		.loc 1 53 0
 161              		.cfi_startproc
 162              		@ args = 0, pretend = 0, frame = 0
 163              		@ frame_needed = 0, uses_anonymous_args = 0
 164              		@ link register save eliminated.
 165              	.LVL9:
  55:.\main.c      ****     int size = 0;
 166              		.loc 1 55 0
 167 0000 0022     		movs	r2, #0
  54:.\main.c      ****     int i = 0;
 168              		.loc 1 54 0
 169 0002 1346     		mov	r3, r2
  56:.\main.c      ****     while(i < 8){
 170              		.loc 1 56 0
 171 0004 06E0     		b	.L14
 172              	.LVL10:
 173              	.L17:
  58:.\main.c      ****         if(data[i] == '\n'){
 174              		.loc 1 58 0
 175 0006 C15C     		ldrb	r1, [r0, r3]	@ zero_extendqisi2
 176 0008 0A29     		cmp	r1, #10
 177 000a 01D1     		bne	.L15
  59:.\main.c      ****             size++;
 178              		.loc 1 59 0
ARM GAS  C:\Users\jason\AppData\Local\Temp\ccvuOBLV.s 			page 7


 179 000c 501C     		adds	r0, r2, #1
 180              	.LVL11:
  60:.\main.c      ****             return size;
 181              		.loc 1 60 0
 182 000e 7047     		bx	lr
 183              	.LVL12:
 184              	.L15:
  62:.\main.c      ****             size++;
 185              		.loc 1 62 0
 186 0010 0132     		adds	r2, r2, #1
 187              	.LVL13:
  64:.\main.c      ****         i++;
 188              		.loc 1 64 0
 189 0012 0133     		adds	r3, r3, #1
 190              	.LVL14:
 191              	.L14:
  56:.\main.c      ****     while(i < 8){
 192              		.loc 1 56 0 discriminator 1
 193 0014 072B     		cmp	r3, #7
 194 0016 F6DD     		ble	.L17
  66:.\main.c      ****     return size;
 195              		.loc 1 66 0
 196 0018 1046     		mov	r0, r2
 197              	.LVL15:
  67:.\main.c      **** }
 198              		.loc 1 67 0
 199 001a 7047     		bx	lr
 200              		.cfi_endproc
 201              	.LFE64:
 202              		.size	SizeOfString, .-SizeOfString
 203              		.section	.text.main,"ax",%progbits
 204              		.align	2
 205              		.global	main
 206              		.thumb
 207              		.thumb_func
 208              		.type	main, %function
 209              	main:
 210              	.LFB65:
  70:.\main.c      **** {    
 211              		.loc 1 70 0
 212              		.cfi_startproc
 213              		@ args = 0, pretend = 0, frame = 16
 214              		@ frame_needed = 0, uses_anonymous_args = 0
 215 0000 2DE9F043 		push	{r4, r5, r6, r7, r8, r9, lr}
 216              		.cfi_def_cfa_offset 28
 217              		.cfi_offset 4, -28
 218              		.cfi_offset 5, -24
 219              		.cfi_offset 6, -20
 220              		.cfi_offset 7, -16
 221              		.cfi_offset 8, -12
 222              		.cfi_offset 9, -8
 223              		.cfi_offset 14, -4
 224 0004 85B0     		sub	sp, sp, #20
 225              		.cfi_def_cfa_offset 48
  72:.\main.c      ****     CyGlobalIntEnable;
 226              		.loc 1 72 0
 227              	@ 72 ".\main.c" 1
ARM GAS  C:\Users\jason\AppData\Local\Temp\ccvuOBLV.s 			page 8


 228 0006 62B6     		CPSIE   i
 229              	@ 0 "" 2
  75:.\main.c      ****     FS_Init();
 230              		.loc 1 75 0
 231              		.thumb
 232 0008 FFF7FEFF 		bl	FS_Init
 233              	.LVL16:
  78:.\main.c      ****     LCD_Start();
 234              		.loc 1 78 0
 235 000c FFF7FEFF 		bl	LCD_Start
 236              	.LVL17:
  81:.\main.c      ****     Timer_1_Start();
 237              		.loc 1 81 0
 238 0010 FFF7FEFF 		bl	Timer_1_Start
 239              	.LVL18:
  84:.\main.c      ****     ADC_SAR_1_Start();
 240              		.loc 1 84 0
 241 0014 FFF7FEFF 		bl	ADC_SAR_1_Start
 242              	.LVL19:
  85:.\main.c      ****     ADC_SAR_1_StartConvert();
 243              		.loc 1 85 0
 244 0018 FFF7FEFF 		bl	ADC_SAR_1_StartConvert
 245              	.LVL20:
  88:.\main.c      ****     isr_1_StartEx(GetSample);
 246              		.loc 1 88 0
 247 001c 2048     		ldr	r0, .L25
 248 001e FFF7FEFF 		bl	isr_1_StartEx
 249              	.LVL21:
  99:.\main.c      ****     pFile = FS_FOpen("wamples.txt", "w");
 250              		.loc 1 99 0
 251 0022 2048     		ldr	r0, .L25+4
 252 0024 2049     		ldr	r1, .L25+8
 253 0026 FFF7FEFF 		bl	FS_FOpen
 254              	.LVL22:
 255 002a 204B     		ldr	r3, .L25+12
 256 002c 1860     		str	r0, [r3]
 106:.\main.c      ****         if(bufferFull){
 257              		.loc 1 106 0
 258 002e 204E     		ldr	r6, .L25+16
 259              	.LBB2:
 112:.\main.c      ****                 FS_Write(pFile, data, SizeOfString(data));
 260              		.loc 1 112 0
 261 0030 1F46     		mov	r7, r3
 118:.\main.c      ****             sprintf(LCDstr, "Write Complete");
 262              		.loc 1 118 0
 263 0032 DFF88490 		ldr	r9, .L25+24
 111:.\main.c      ****                 sprintf(data, "%d\n", dataFrame1[i]);
 264              		.loc 1 111 0
 265 0036 DFF88480 		ldr	r8, .L25+28
 266              	.L24:
 267              	.LBE2:
 106:.\main.c      ****         if(bufferFull){
 268              		.loc 1 106 0
 269 003a B6F80438 		ldrh	r3, [r6, #2052]
 270 003e 002B     		cmp	r3, #0
 271 0040 FBD0     		beq	.L24
 272 0042 12E0     		b	.L23
ARM GAS  C:\Users\jason\AppData\Local\Temp\ccvuOBLV.s 			page 9


 273              	.LVL23:
 274              	.L21:
 275              	.LBB3:
 111:.\main.c      ****                 sprintf(data, "%d\n", dataFrame1[i]);
 276              		.loc 1 111 0 discriminator 2
 277 0044 06EB4403 		add	r3, r6, r4, lsl #1
 278 0048 6846     		mov	r0, sp
 279 004a 4146     		mov	r1, r8
 280 004c B3F90420 		ldrsh	r2, [r3, #4]
 281 0050 FFF7FEFF 		bl	sprintf
 282              	.LVL24:
 112:.\main.c      ****                 FS_Write(pFile, data, SizeOfString(data));
 283              		.loc 1 112 0 discriminator 2
 284 0054 3D68     		ldr	r5, [r7]
 285 0056 6846     		mov	r0, sp
 286 0058 FFF7FEFF 		bl	SizeOfString
 287              	.LVL25:
 288 005c 0246     		mov	r2, r0
 289 005e 2846     		mov	r0, r5
 290 0060 6946     		mov	r1, sp
 291 0062 FFF7FEFF 		bl	FS_Write
 292              	.LVL26:
 110:.\main.c      ****             for(i = 0; i < DATA_LENGTH; i++){
 293              		.loc 1 110 0 discriminator 2
 294 0066 0134     		adds	r4, r4, #1
 295              	.LVL27:
 296 0068 00E0     		b	.L19
 297              	.LVL28:
 298              	.L23:
 299              	.LBE3:
 300 006a 0024     		movs	r4, #0
 301              	.L19:
 302              	.LVL29:
 303              	.LBB4:
 110:.\main.c      ****             for(i = 0; i < DATA_LENGTH; i++){
 304              		.loc 1 110 0 is_stmt 0 discriminator 1
 305 006c B4F5806F 		cmp	r4, #1024
 306 0070 E8D3     		bcc	.L21
 114:.\main.c      ****             bufferFull = 0;    // Stops it from continuing to print to file
 307              		.loc 1 114 0 is_stmt 1
 308 0072 0025     		movs	r5, #0
 309 0074 A6F80458 		strh	r5, [r6, #2052]	@ movhi
 116:.\main.c      ****              FS_FClose(pFile);
 310              		.loc 1 116 0
 311 0078 3868     		ldr	r0, [r7]
 312 007a FFF7FEFF 		bl	FS_FClose
 313              	.LVL30:
 118:.\main.c      ****             sprintf(LCDstr, "Write Complete");
 314              		.loc 1 118 0
 315 007e 0D4B     		ldr	r3, .L25+20
 316 0080 4C46     		mov	r4, r9
 317              	.LVL31:
 318 0082 0FCB     		ldmia	r3, {r0, r1, r2, r3}
 319 0084 07C4     		stmia	r4!, {r0, r1, r2}
 320 0086 24F8023B 		strh	r3, [r4], #2	@ movhi
 321 008a 1B0C     		lsrs	r3, r3, #16
 322 008c 2370     		strb	r3, [r4]
ARM GAS  C:\Users\jason\AppData\Local\Temp\ccvuOBLV.s 			page 10


 119:.\main.c      ****             LCD_Position(0u, 0u);
 323              		.loc 1 119 0
 324 008e 2846     		mov	r0, r5
 325 0090 2946     		mov	r1, r5
 326 0092 FFF7FEFF 		bl	LCD_Position
 327              	.LVL32:
 120:.\main.c      ****             LCD_PrintString(LCDstr);
 328              		.loc 1 120 0
 329 0096 4846     		mov	r0, r9
 330 0098 FFF7FEFF 		bl	LCD_PrintString
 331              	.LVL33:
 332 009c CDE7     		b	.L24
 333              	.L26:
 334 009e 00BF     		.align	2
 335              	.L25:
 336 00a0 00000000 		.word	GetSample
 337 00a4 08000000 		.word	.LC2
 338 00a8 14000000 		.word	.LC3
 339 00ac 00000000 		.word	pFile
 340 00b0 00000000 		.word	.LANCHOR0
 341 00b4 1C000000 		.word	.LC5
 342 00b8 00000000 		.word	LCDstr
 343 00bc 18000000 		.word	.LC4
 344              	.LBE4:
 345              		.cfi_endproc
 346              	.LFE65:
 347              		.size	main, .-main
 348              		.global	file
 349              		.comm	wav_sample,4,4
 350              		.comm	pFile,4,4
 351              		.global	frameCompleteFlag
 352              		.global	bufferFull
 353              		.comm	LCDstr,10,4
 354              		.global	currFrame
 355              		.global	frameIndex
 356              		.global	dataFrame2
 357              		.global	dataFrame1
 358              		.comm	ADCoutput,2,2
 359              		.data
 360              		.align	2
 361              		.type	file, %object
 362              		.size	file, 4
 363              	file:
 364 0000 2C000000 		.word	.LC6
 365              		.section	.rodata.str1.4,"aMS",%progbits,1
 366              		.align	2
 367              	.LC0:
 368 0000 3100     		.ascii	"1\000"
 369 0002 0000     		.space	2
 370              	.LC1:
 371 0004 3000     		.ascii	"0\000"
 372 0006 0000     		.space	2
 373              	.LC2:
 374 0008 77616D70 		.ascii	"wamples.txt\000"
 374      6C65732E 
 374      74787400 
 375              	.LC3:
ARM GAS  C:\Users\jason\AppData\Local\Temp\ccvuOBLV.s 			page 11


 376 0014 7700     		.ascii	"w\000"
 377 0016 0000     		.space	2
 378              	.LC4:
 379 0018 25640A00 		.ascii	"%d\012\000"
 380              	.LC5:
 381 001c 57726974 		.ascii	"Write Complete\000"
 381      6520436F 
 381      6D706C65 
 381      746500
 382 002b 00       		.space	1
 383              	.LC6:
 384 002c 7761765F 		.ascii	"wav_sample\000"
 384      73616D70 
 384      6C6500
 385 0037 00       		.bss
 386              		.align	2
 387              		.set	.LANCHOR0,. + 0
 388              		.type	frameIndex, %object
 389              		.size	frameIndex, 2
 390              	frameIndex:
 391 0000 0000     		.space	2
 392 0002 0000     		.space	2
 393              		.type	dataFrame1, %object
 394              		.size	dataFrame1, 2048
 395              	dataFrame1:
 396 0004 00000000 		.space	2048
 396      00000000 
 396      00000000 
 396      00000000 
 396      00000000 
 397              		.type	bufferFull, %object
 398              		.size	bufferFull, 2
 399              	bufferFull:
 400 0804 0000     		.space	2
 401 0806 0000     		.space	2
 402              		.type	b.7683, %object
 403              		.size	b.7683, 9
 404              	b.7683:
 405 0808 00000000 		.space	9
 405      00000000 
 405      00
 406              		.type	frameCompleteFlag, %object
 407              		.size	frameCompleteFlag, 1
 408              	frameCompleteFlag:
 409 0811 00       		.space	1
 410              		.type	currFrame, %object
 411              		.size	currFrame, 1
 412              	currFrame:
 413 0812 00       		.space	1
 414 0813 00       		.space	1
 415              		.type	dataFrame2, %object
 416              		.size	dataFrame2, 2048
 417              	dataFrame2:
 418 0814 00000000 		.space	2048
 418      00000000 
 418      00000000 
 418      00000000 
ARM GAS  C:\Users\jason\AppData\Local\Temp\ccvuOBLV.s 			page 12


 418      00000000 
 419              		.text
 420              	.Letext0:
 421              		.file 2 "c:\\program files (x86)\\cypress\\psoc creator\\3.2\\psoc creator\\import\\gnu\\arm\\4.8.
 422              		.file 3 "c:\\program files (x86)\\cypress\\psoc creator\\3.2\\psoc creator\\import\\gnu\\arm\\4.8.
 423              		.file 4 "Generated_Source\\PSoC5/cytypes.h"
 424              		.file 5 "c:\\program files (x86)\\cypress\\psoc creator\\3.2\\psoc creator\\import\\gnu\\arm\\4.8.
 425              		.file 6 "c:\\program files (x86)\\cypress\\psoc creator\\3.2\\psoc creator\\import\\gnu\\arm\\4.8.
 426              		.file 7 "c:\\program files (x86)\\cypress\\psoc creator\\3.2\\psoc creator\\import\\gnu\\arm\\4.8.
 427              		.file 8 "c:\\program files (x86)\\cypress\\psoc creator\\3.2\\psoc creator\\import\\gnu\\arm\\4.8.
 428              		.file 9 "c:\\program files (x86)\\cypress\\psoc creator\\3.2\\psoc creator\\import\\gnu\\arm\\4.8.
 429              		.file 10 "c:\\program files (x86)\\cypress\\psoc creator\\3.2\\psoc creator\\import\\gnu\\arm\\4.8
 430              		.file 11 ".\\emFile_V322c\\Code\\Include\\PSoC5/FS_Types.h"
 431              		.file 12 "Generated_Source\\PSoC5/core_cm3.h"
 432              		.file 13 "Generated_Source\\PSoC5/ADC_SAR_1.h"
 433              		.file 14 ".\\emFile_V322c\\Code\\Include\\PSoC5/FS.h"
 434              		.file 15 "Generated_Source\\PSoC5/LCD.h"
 435              		.file 16 "Generated_Source\\PSoC5/isr_1.h"
 436              		.file 17 "Generated_Source\\PSoC5/Timer_1.h"
 437              		.file 18 "<built-in>"