ARM GAS  C:\Users\jason\AppData\Local\Temp\ccekZLLv.s 			page 1


   1              		.syntax unified
   2              		.cpu cortex-m3
   3              		.fpu softvfp
   4              		.eabi_attribute 20, 1
   5              		.eabi_attribute 21, 1
   6              		.eabi_attribute 23, 3
   7              		.eabi_attribute 24, 1
   8              		.eabi_attribute 25, 1
   9              		.eabi_attribute 26, 1
  10              		.eabi_attribute 30, 1
  11              		.eabi_attribute 34, 1
  12              		.eabi_attribute 18, 4
  13              		.thumb
  14              		.file	"WAV.c"
  15              		.text
  16              	.Ltext0:
  17              		.cfi_sections	.debug_frame
  18              		.section	.text.wavfile_open,"ax",%progbits
  19              		.align	2
  20              		.global	wavfile_open
  21              		.thumb
  22              		.thumb_func
  23              		.type	wavfile_open, %function
  24              	wavfile_open:
  25              	.LFB0:
  26              		.file 1 ".\\WAV.c"
   1:.\WAV.c       **** /*
   2:.\WAV.c       **** A simple sound library for CSE 20211 by Douglas Thain
   3:.\WAV.c       **** For course assignments, you should not change this file.
   4:.\WAV.c       **** For complete documentation, see:
   5:.\WAV.c       **** http://www.nd.edu/~dthain/courses/cse20211/fall2013/wavfile
   6:.\WAV.c       **** */
   7:.\WAV.c       **** 
   8:.\WAV.c       **** #include "WAV.h"
   9:.\WAV.c       **** 
  10:.\WAV.c       **** #include <stdlib.h>
  11:.\WAV.c       **** #include <string.h>
  12:.\WAV.c       **** 
  13:.\WAV.c       **** struct wavfile_header {
  14:.\WAV.c       **** 	char	riff_tag[4];
  15:.\WAV.c       **** 	int	riff_length;
  16:.\WAV.c       **** 	char	wave_tag[4];
  17:.\WAV.c       **** 	char	fmt_tag[4];
  18:.\WAV.c       **** 	int	fmt_length;
  19:.\WAV.c       **** 	short	audio_format;
  20:.\WAV.c       **** 	short	num_channels;
  21:.\WAV.c       **** 	int	sample_rate;
  22:.\WAV.c       **** 	int	byte_rate;
  23:.\WAV.c       **** 	short	block_align;
  24:.\WAV.c       **** 	short	bits_per_sample;
  25:.\WAV.c       **** 	char	data_tag[4];
  26:.\WAV.c       **** 	int	data_length;
  27:.\WAV.c       **** };
  28:.\WAV.c       **** 
  29:.\WAV.c       **** FILE * wavfile_open( const char *filename )
  30:.\WAV.c       **** {
  27              		.loc 1 30 0
ARM GAS  C:\Users\jason\AppData\Local\Temp\ccekZLLv.s 			page 2


  28              		.cfi_startproc
  29              		@ args = 0, pretend = 0, frame = 48
  30              		@ frame_needed = 0, uses_anonymous_args = 0
  31              	.LVL0:
  32 0000 10B5     		push	{r4, lr}
  33              		.cfi_def_cfa_offset 8
  34              		.cfi_offset 4, -8
  35              		.cfi_offset 14, -4
  36 0002 8CB0     		sub	sp, sp, #48
  37              		.cfi_def_cfa_offset 56
  38              	.LVL1:
  31:.\WAV.c       **** 	struct wavfile_header header;
  32:.\WAV.c       **** 
  33:.\WAV.c       **** 	int samples_per_second = WAVFILE_SAMPLES_PER_SECOND;
  34:.\WAV.c       **** 	int bits_per_sample = 16;
  35:.\WAV.c       **** 
  36:.\WAV.c       **** 	strncpy(header.riff_tag,"RIFF",4);
  39              		.loc 1 36 0
  40 0004 1D4B     		ldr	r3, .L4
  41 0006 0193     		str	r3, [sp, #4]
  37:.\WAV.c       **** 	strncpy(header.wave_tag,"WAVE",4);
  42              		.loc 1 37 0
  43 0008 A3F57003 		sub	r3, r3, #15728640
  44 000c A3F2FB73 		subw	r3, r3, #2043
  45 0010 0393     		str	r3, [sp, #12]
  38:.\WAV.c       **** 	strncpy(header.fmt_tag,"fmt ",4);
  46              		.loc 1 38 0
  47 0012 03F15B43 		add	r3, r3, #-620756992
  48 0016 03F5F113 		add	r3, r3, #1974272
  49 001a 03F60F43 		addw	r3, r3, #3087
  50 001e 0493     		str	r3, [sp, #16]
  39:.\WAV.c       **** 	strncpy(header.data_tag,"data",4);
  51              		.loc 1 39 0
  52 0020 03F18243 		add	r3, r3, #1090519040
  53 0024 A3F60243 		subw	r3, r3, #3074
  54 0028 0A93     		str	r3, [sp, #40]
  40:.\WAV.c       **** 
  41:.\WAV.c       **** 	header.riff_length = 0;
  55              		.loc 1 41 0
  56 002a 0023     		movs	r3, #0
  57 002c 0293     		str	r3, [sp, #8]
  42:.\WAV.c       **** 	header.fmt_length = 16;
  58              		.loc 1 42 0
  59 002e 1022     		movs	r2, #16
  60 0030 0592     		str	r2, [sp, #20]
  43:.\WAV.c       **** 	header.audio_format = 1;
  61              		.loc 1 43 0
  62 0032 0121     		movs	r1, #1
  63 0034 ADF81810 		strh	r1, [sp, #24]	@ movhi
  44:.\WAV.c       **** 	header.num_channels = 1;
  64              		.loc 1 44 0
  65 0038 ADF81A10 		strh	r1, [sp, #26]	@ movhi
  45:.\WAV.c       **** 	header.sample_rate = samples_per_second;
  66              		.loc 1 45 0
  67 003c 4FF48061 		mov	r1, #1024
  68 0040 0791     		str	r1, [sp, #28]
  46:.\WAV.c       **** 	header.byte_rate = samples_per_second*(bits_per_sample/8);
ARM GAS  C:\Users\jason\AppData\Local\Temp\ccekZLLv.s 			page 3


  69              		.loc 1 46 0
  70 0042 4FF40061 		mov	r1, #2048
  71 0046 0891     		str	r1, [sp, #32]
  47:.\WAV.c       **** 	header.block_align = bits_per_sample/8;
  72              		.loc 1 47 0
  73 0048 0221     		movs	r1, #2
  74 004a ADF82410 		strh	r1, [sp, #36]	@ movhi
  48:.\WAV.c       **** 	header.bits_per_sample = bits_per_sample;
  75              		.loc 1 48 0
  76 004e ADF82620 		strh	r2, [sp, #38]	@ movhi
  49:.\WAV.c       **** 	header.data_length = 0;
  77              		.loc 1 49 0
  78 0052 0B93     		str	r3, [sp, #44]
  50:.\WAV.c       **** 
  51:.\WAV.c       **** 	FILE * file = fopen(filename,"w+");
  79              		.loc 1 51 0
  80 0054 0A49     		ldr	r1, .L4+4
  81 0056 FFF7FEFF 		bl	fopen
  82              	.LVL2:
  52:.\WAV.c       **** 	if(!file) return 0;
  83              		.loc 1 52 0
  84 005a 0446     		mov	r4, r0
  85 005c 50B1     		cbz	r0, .L3
  53:.\WAV.c       **** 
  54:.\WAV.c       **** 	fwrite(&header,sizeof(header),1,file);
  86              		.loc 1 54 0
  87 005e 01A8     		add	r0, sp, #4
  88              	.LVL3:
  89 0060 2C21     		movs	r1, #44
  90 0062 0122     		movs	r2, #1
  91 0064 2346     		mov	r3, r4
  92 0066 FFF7FEFF 		bl	fwrite
  93              	.LVL4:
  55:.\WAV.c       **** 
  56:.\WAV.c       **** 	fflush(file);
  94              		.loc 1 56 0
  95 006a 2046     		mov	r0, r4
  96 006c FFF7FEFF 		bl	fflush
  97              	.LVL5:
  57:.\WAV.c       **** 
  58:.\WAV.c       **** 	return file;
  98              		.loc 1 58 0
  99 0070 2046     		mov	r0, r4
 100 0072 00E0     		b	.L2
 101              	.L3:
  52:.\WAV.c       **** 	if(!file) return 0;
 102              		.loc 1 52 0
 103 0074 0020     		movs	r0, #0
 104              	.L2:
  59:.\WAV.c       **** 
  60:.\WAV.c       **** }
 105              		.loc 1 60 0
 106 0076 0CB0     		add	sp, sp, #48
 107              		@ sp needed
 108 0078 10BD     		pop	{r4, pc}
 109              	.LVL6:
 110              	.L5:
ARM GAS  C:\Users\jason\AppData\Local\Temp\ccekZLLv.s 			page 4


 111 007a 00BF     		.align	2
 112              	.L4:
 113 007c 52494646 		.word	1179011410
 114 0080 00000000 		.word	.LC0
 115              		.cfi_endproc
 116              	.LFE0:
 117              		.size	wavfile_open, .-wavfile_open
 118              		.section	.text.wavfile_write,"ax",%progbits
 119              		.align	2
 120              		.global	wavfile_write
 121              		.thumb
 122              		.thumb_func
 123              		.type	wavfile_write, %function
 124              	wavfile_write:
 125              	.LFB1:
  61:.\WAV.c       **** 
  62:.\WAV.c       **** void wavfile_write( FILE *file, short data[], int length )
  63:.\WAV.c       **** {
 126              		.loc 1 63 0
 127              		.cfi_startproc
 128              		@ args = 0, pretend = 0, frame = 0
 129              		@ frame_needed = 0, uses_anonymous_args = 0
 130              	.LVL7:
 131 0000 08B5     		push	{r3, lr}
 132              		.cfi_def_cfa_offset 8
 133              		.cfi_offset 3, -8
 134              		.cfi_offset 14, -4
 135 0002 0346     		mov	r3, r0
  64:.\WAV.c       **** 	fwrite(data,sizeof(short),length,file);
 136              		.loc 1 64 0
 137 0004 0846     		mov	r0, r1
 138              	.LVL8:
 139 0006 0221     		movs	r1, #2
 140              	.LVL9:
 141 0008 FFF7FEFF 		bl	fwrite
 142              	.LVL10:
 143 000c 08BD     		pop	{r3, pc}
 144              		.cfi_endproc
 145              	.LFE1:
 146              		.size	wavfile_write, .-wavfile_write
 147 000e 00BF     		.section	.text.wavfile_close,"ax",%progbits
 148              		.align	2
 149              		.global	wavfile_close
 150              		.thumb
 151              		.thumb_func
 152              		.type	wavfile_close, %function
 153              	wavfile_close:
 154              	.LFB2:
  65:.\WAV.c       **** }
  66:.\WAV.c       **** 
  67:.\WAV.c       **** void wavfile_close( FILE *file )
  68:.\WAV.c       **** {
 155              		.loc 1 68 0
 156              		.cfi_startproc
 157              		@ args = 0, pretend = 0, frame = 8
 158              		@ frame_needed = 0, uses_anonymous_args = 0
 159              	.LVL11:
ARM GAS  C:\Users\jason\AppData\Local\Temp\ccekZLLv.s 			page 5


 160 0000 70B5     		push	{r4, r5, r6, lr}
 161              		.cfi_def_cfa_offset 16
 162              		.cfi_offset 4, -16
 163              		.cfi_offset 5, -12
 164              		.cfi_offset 6, -8
 165              		.cfi_offset 14, -4
 166 0002 82B0     		sub	sp, sp, #8
 167              		.cfi_def_cfa_offset 24
 168 0004 0446     		mov	r4, r0
  69:.\WAV.c       **** 	int file_length = ftell(file);
 169              		.loc 1 69 0
 170 0006 FFF7FEFF 		bl	ftell
 171              	.LVL12:
 172 000a 0646     		mov	r6, r0
 173              	.LVL13:
  70:.\WAV.c       **** 
  71:.\WAV.c       **** 	int data_length = file_length - sizeof(struct wavfile_header);
 174              		.loc 1 71 0
 175 000c A0F12C03 		sub	r3, r0, #44
 176 0010 02AD     		add	r5, sp, #8
 177 0012 45F8043D 		str	r3, [r5, #-4]!
  72:.\WAV.c       **** 	fseek(file,sizeof(struct wavfile_header) - sizeof(int),SEEK_SET);
 178              		.loc 1 72 0
 179 0016 2046     		mov	r0, r4
 180              	.LVL14:
 181 0018 2821     		movs	r1, #40
 182 001a 0022     		movs	r2, #0
 183 001c FFF7FEFF 		bl	fseek
 184              	.LVL15:
  73:.\WAV.c       **** 	fwrite(&data_length,sizeof(data_length),1,file);
 185              		.loc 1 73 0
 186 0020 2846     		mov	r0, r5
 187 0022 0421     		movs	r1, #4
 188 0024 0122     		movs	r2, #1
 189 0026 2346     		mov	r3, r4
 190 0028 FFF7FEFF 		bl	fwrite
 191              	.LVL16:
  74:.\WAV.c       **** 
  75:.\WAV.c       **** 	int riff_length = file_length - 8;
 192              		.loc 1 75 0
 193 002c 083E     		subs	r6, r6, #8
 194              	.LVL17:
 195 002e 02AD     		add	r5, sp, #8
 196 0030 45F8086D 		str	r6, [r5, #-8]!
  76:.\WAV.c       **** 	fseek(file,4,SEEK_SET);
 197              		.loc 1 76 0
 198 0034 2046     		mov	r0, r4
 199 0036 0421     		movs	r1, #4
 200 0038 0022     		movs	r2, #0
 201 003a FFF7FEFF 		bl	fseek
 202              	.LVL18:
  77:.\WAV.c       **** 	fwrite(&riff_length,sizeof(riff_length),1,file);
 203              		.loc 1 77 0
 204 003e 6846     		mov	r0, sp
 205 0040 0421     		movs	r1, #4
 206 0042 0122     		movs	r2, #1
 207 0044 2346     		mov	r3, r4
ARM GAS  C:\Users\jason\AppData\Local\Temp\ccekZLLv.s 			page 6


 208 0046 FFF7FEFF 		bl	fwrite
 209              	.LVL19:
  78:.\WAV.c       **** 
  79:.\WAV.c       **** 	fclose(file);
 210              		.loc 1 79 0
 211 004a 2046     		mov	r0, r4
 212 004c FFF7FEFF 		bl	fclose
 213              	.LVL20:
  80:.\WAV.c       **** }
 214              		.loc 1 80 0
 215 0050 02B0     		add	sp, sp, #8
 216              		@ sp needed
 217 0052 70BD     		pop	{r4, r5, r6, pc}
 218              		.cfi_endproc
 219              	.LFE2:
 220              		.size	wavfile_close, .-wavfile_close
 221              		.section	.rodata.str1.4,"aMS",%progbits,1
 222              		.align	2
 223              	.LC0:
 224 0000 772B00   		.ascii	"w+\000"
 225 0003 00       		.text
 226              	.Letext0:
 227              		.file 2 "c:\\program files (x86)\\cypress\\psoc creator\\3.2\\psoc creator\\import\\gnu\\arm\\4.8.
 228              		.file 3 "c:\\program files (x86)\\cypress\\psoc creator\\3.2\\psoc creator\\import\\gnu\\arm\\4.8.
 229              		.file 4 "c:\\program files (x86)\\cypress\\psoc creator\\3.2\\psoc creator\\import\\gnu\\arm\\4.8.
 230              		.file 5 "c:\\program files (x86)\\cypress\\psoc creator\\3.2\\psoc creator\\import\\gnu\\arm\\4.8.
 231              		.file 6 "c:\\program files (x86)\\cypress\\psoc creator\\3.2\\psoc creator\\import\\gnu\\arm\\4.8.