ARM GAS  C:\Users\mgronber\AppData\Local\Temp\ccf2dyw1.s 			page 1


   1              		.syntax unified
   2              		.cpu cortex-m3
   3              		.fpu softvfp
   4              		.eabi_attribute 20, 1
   5              		.eabi_attribute 21, 1
   6              		.eabi_attribute 23, 3
   7              		.eabi_attribute 24, 1
   8              		.eabi_attribute 25, 1
   9              		.eabi_attribute 26, 1
  10              		.eabi_attribute 30, 2
  11              		.eabi_attribute 34, 1
  12              		.eabi_attribute 18, 4
  13              		.thumb
  14              		.file	"ADC_UI.c"
  15              		.text
  16              	.Ltext0:
  17              		.cfi_sections	.debug_frame
  18              		.section	.text.ADC_UI_Disable,"ax",%progbits
  19              		.align	2
  20              		.global	ADC_UI_Disable
  21              		.thumb
  22              		.thumb_func
  23              		.type	ADC_UI_Disable, %function
  24              	ADC_UI_Disable:
  25              	.LFB0:
  26              		.file 1 "Generated_Source\\PSoC5\\ADC_UI.c"
   1:Generated_Source\PSoC5/ADC_UI.c **** /*******************************************************************************
   2:Generated_Source\PSoC5/ADC_UI.c **** * File Name: ADC_UI.c
   3:Generated_Source\PSoC5/ADC_UI.c **** * Version 2.0
   4:Generated_Source\PSoC5/ADC_UI.c **** *
   5:Generated_Source\PSoC5/ADC_UI.c **** * Description:
   6:Generated_Source\PSoC5/ADC_UI.c **** *  This file provides the API functionality of the ADC SAR Sequencer Component
   7:Generated_Source\PSoC5/ADC_UI.c **** *
   8:Generated_Source\PSoC5/ADC_UI.c **** * Note:
   9:Generated_Source\PSoC5/ADC_UI.c **** *  None
  10:Generated_Source\PSoC5/ADC_UI.c **** *
  11:Generated_Source\PSoC5/ADC_UI.c **** ********************************************************************************
  12:Generated_Source\PSoC5/ADC_UI.c **** * Copyright 2012-2015, Cypress Semiconductor Corporation.  All rights reserved.
  13:Generated_Source\PSoC5/ADC_UI.c **** * You may use this file only in accordance with the license, terms, conditions,
  14:Generated_Source\PSoC5/ADC_UI.c **** * disclaimers, and limitations in the end user license agreement accompanying
  15:Generated_Source\PSoC5/ADC_UI.c **** * the software package with which this file was provided.
  16:Generated_Source\PSoC5/ADC_UI.c **** *******************************************************************************/
  17:Generated_Source\PSoC5/ADC_UI.c **** 
  18:Generated_Source\PSoC5/ADC_UI.c **** #include "ADC_UI.h"
  19:Generated_Source\PSoC5/ADC_UI.c **** #if(ADC_UI_IRQ_REMOVE == 0u)
  20:Generated_Source\PSoC5/ADC_UI.c ****     #include "ADC_UI_IRQ.h"
  21:Generated_Source\PSoC5/ADC_UI.c **** #endif   /* End ADC_UI_IRQ_REMOVE */
  22:Generated_Source\PSoC5/ADC_UI.c **** 
  23:Generated_Source\PSoC5/ADC_UI.c **** int16  ADC_UI_finalArray[ADC_UI_NUMBER_OF_CHANNELS];
  24:Generated_Source\PSoC5/ADC_UI.c **** uint32 ADC_UI_initVar = 0u;
  25:Generated_Source\PSoC5/ADC_UI.c **** static uint8 ADC_UI_tempChan;
  26:Generated_Source\PSoC5/ADC_UI.c **** static uint8 ADC_UI_finalChan;
  27:Generated_Source\PSoC5/ADC_UI.c **** static uint8 ADC_UI_tempTD = CY_DMA_INVALID_TD;
  28:Generated_Source\PSoC5/ADC_UI.c **** static uint8 ADC_UI_finalTD = CY_DMA_INVALID_TD;
  29:Generated_Source\PSoC5/ADC_UI.c **** 
  30:Generated_Source\PSoC5/ADC_UI.c **** 
  31:Generated_Source\PSoC5/ADC_UI.c **** /****************************************************************************
ARM GAS  C:\Users\mgronber\AppData\Local\Temp\ccf2dyw1.s 			page 2


  32:Generated_Source\PSoC5/ADC_UI.c **** * Function Name: ADC_UI_Disable()
  33:Generated_Source\PSoC5/ADC_UI.c **** *****************************************************************************
  34:Generated_Source\PSoC5/ADC_UI.c **** *
  35:Generated_Source\PSoC5/ADC_UI.c **** * Summary:
  36:Generated_Source\PSoC5/ADC_UI.c **** *  Disables the component without disabling the ADC SAR.
  37:Generated_Source\PSoC5/ADC_UI.c **** *
  38:Generated_Source\PSoC5/ADC_UI.c **** * Parameters:
  39:Generated_Source\PSoC5/ADC_UI.c **** *  None.
  40:Generated_Source\PSoC5/ADC_UI.c **** *
  41:Generated_Source\PSoC5/ADC_UI.c **** * Return:
  42:Generated_Source\PSoC5/ADC_UI.c **** *  None.
  43:Generated_Source\PSoC5/ADC_UI.c **** *
  44:Generated_Source\PSoC5/ADC_UI.c **** * Side Effects:
  45:Generated_Source\PSoC5/ADC_UI.c **** *  None.
  46:Generated_Source\PSoC5/ADC_UI.c **** *
  47:Generated_Source\PSoC5/ADC_UI.c **** * Reentrant:
  48:Generated_Source\PSoC5/ADC_UI.c **** *  No.
  49:Generated_Source\PSoC5/ADC_UI.c **** *
  50:Generated_Source\PSoC5/ADC_UI.c **** ****************************************************************************/
  51:Generated_Source\PSoC5/ADC_UI.c **** void ADC_UI_Disable(void)
  52:Generated_Source\PSoC5/ADC_UI.c **** {
  27              		.loc 1 52 0
  28              		.cfi_startproc
  29              		@ args = 0, pretend = 0, frame = 0
  30              		@ frame_needed = 0, uses_anonymous_args = 0
  31 0000 70B5     		push	{r4, r5, r6, lr}
  32              		.cfi_def_cfa_offset 16
  33              		.cfi_offset 4, -16
  34              		.cfi_offset 5, -12
  35              		.cfi_offset 6, -8
  36              		.cfi_offset 14, -4
  53:Generated_Source\PSoC5/ADC_UI.c ****     ADC_UI_CONTROL_REG &= ((uint8)(~ADC_UI_BASE_COMPONENT_ENABLE));
  37              		.loc 1 53 0
  38 0002 0B4A     		ldr	r2, .L3
  54:Generated_Source\PSoC5/ADC_UI.c **** 
  55:Generated_Source\PSoC5/ADC_UI.c ****     (void) CyDmaChDisable(ADC_UI_tempChan);
  39              		.loc 1 55 0
  40 0004 0B4E     		ldr	r6, .L3+4
  53:Generated_Source\PSoC5/ADC_UI.c ****     ADC_UI_CONTROL_REG &= ((uint8)(~ADC_UI_BASE_COMPONENT_ENABLE));
  41              		.loc 1 53 0
  42 0006 1378     		ldrb	r3, [r2]	@ zero_extendqisi2
  56:Generated_Source\PSoC5/ADC_UI.c ****     CyDmaTdFree(ADC_UI_tempTD);
  43              		.loc 1 56 0
  44 0008 0B4C     		ldr	r4, .L3+8
  53:Generated_Source\PSoC5/ADC_UI.c ****     ADC_UI_CONTROL_REG &= ((uint8)(~ADC_UI_BASE_COMPONENT_ENABLE));
  45              		.loc 1 53 0
  46 000a 03F0FE03 		and	r3, r3, #254
  47 000e 1370     		strb	r3, [r2]
  55:Generated_Source\PSoC5/ADC_UI.c ****     CyDmaTdFree(ADC_UI_tempTD);
  48              		.loc 1 55 0
  49 0010 3078     		ldrb	r0, [r6]	@ zero_extendqisi2
  50 0012 FFF7FEFF 		bl	CyDmaChDisable
  51              	.LVL0:
  52              		.loc 1 56 0
  53 0016 2078     		ldrb	r0, [r4]	@ zero_extendqisi2
  54 0018 FFF7FEFF 		bl	CyDmaTdFree
  55              	.LVL1:
ARM GAS  C:\Users\mgronber\AppData\Local\Temp\ccf2dyw1.s 			page 3


  57:Generated_Source\PSoC5/ADC_UI.c ****     ADC_UI_tempTD = CY_DMA_INVALID_TD;
  56              		.loc 1 57 0
  57 001c FF25     		movs	r5, #255
  58:Generated_Source\PSoC5/ADC_UI.c **** 
  59:Generated_Source\PSoC5/ADC_UI.c ****     (void) CyDmaChDisable(ADC_UI_finalChan);
  58              		.loc 1 59 0
  59 001e 7078     		ldrb	r0, [r6, #1]	@ zero_extendqisi2
  57:Generated_Source\PSoC5/ADC_UI.c ****     ADC_UI_tempTD = CY_DMA_INVALID_TD;
  60              		.loc 1 57 0
  61 0020 2570     		strb	r5, [r4]
  62              		.loc 1 59 0
  63 0022 FFF7FEFF 		bl	CyDmaChDisable
  64              	.LVL2:
  60:Generated_Source\PSoC5/ADC_UI.c ****     CyDmaTdFree(ADC_UI_finalTD);
  65              		.loc 1 60 0
  66 0026 6078     		ldrb	r0, [r4, #1]	@ zero_extendqisi2
  67 0028 FFF7FEFF 		bl	CyDmaTdFree
  68              	.LVL3:
  61:Generated_Source\PSoC5/ADC_UI.c ****     ADC_UI_finalTD = CY_DMA_INVALID_TD;
  69              		.loc 1 61 0
  70 002c 6570     		strb	r5, [r4, #1]
  71 002e 70BD     		pop	{r4, r5, r6, pc}
  72              	.L4:
  73              		.align	2
  74              	.L3:
  75 0030 7B650040 		.word	1073767803
  76 0034 00000000 		.word	.LANCHOR0
  77 0038 00000000 		.word	.LANCHOR1
  78              		.cfi_endproc
  79              	.LFE0:
  80              		.size	ADC_UI_Disable, .-ADC_UI_Disable
  81              		.section	.text.ADC_UI_Init,"ax",%progbits
  82              		.align	2
  83              		.global	ADC_UI_Init
  84              		.thumb
  85              		.thumb_func
  86              		.type	ADC_UI_Init, %function
  87              	ADC_UI_Init:
  88              	.LFB1:
  62:Generated_Source\PSoC5/ADC_UI.c **** }
  63:Generated_Source\PSoC5/ADC_UI.c **** 
  64:Generated_Source\PSoC5/ADC_UI.c **** 
  65:Generated_Source\PSoC5/ADC_UI.c **** /*******************************************************************************
  66:Generated_Source\PSoC5/ADC_UI.c **** * Function Name: ADC_UI_Init
  67:Generated_Source\PSoC5/ADC_UI.c **** ********************************************************************************
  68:Generated_Source\PSoC5/ADC_UI.c **** *
  69:Generated_Source\PSoC5/ADC_UI.c **** * Summary:
  70:Generated_Source\PSoC5/ADC_UI.c **** *  Inits channels for DMA transfer. Provides loading period to the AMUX address
  71:Generated_Source\PSoC5/ADC_UI.c **** *  selection counter
  72:Generated_Source\PSoC5/ADC_UI.c **** *
  73:Generated_Source\PSoC5/ADC_UI.c **** * Parameters:
  74:Generated_Source\PSoC5/ADC_UI.c **** *  None.
  75:Generated_Source\PSoC5/ADC_UI.c **** *
  76:Generated_Source\PSoC5/ADC_UI.c **** * Return:
  77:Generated_Source\PSoC5/ADC_UI.c **** *  None.
  78:Generated_Source\PSoC5/ADC_UI.c **** *
  79:Generated_Source\PSoC5/ADC_UI.c **** * Reentrant:
ARM GAS  C:\Users\mgronber\AppData\Local\Temp\ccf2dyw1.s 			page 4


  80:Generated_Source\PSoC5/ADC_UI.c **** *  No.
  81:Generated_Source\PSoC5/ADC_UI.c **** *
  82:Generated_Source\PSoC5/ADC_UI.c **** *******************************************************************************/
  83:Generated_Source\PSoC5/ADC_UI.c **** void ADC_UI_Init(void)
  84:Generated_Source\PSoC5/ADC_UI.c **** {
  89              		.loc 1 84 0
  90              		.cfi_startproc
  91              		@ args = 0, pretend = 0, frame = 0
  92              		@ frame_needed = 0, uses_anonymous_args = 0
  93 0000 10B5     		push	{r4, lr}
  94              		.cfi_def_cfa_offset 8
  95              		.cfi_offset 4, -8
  96              		.cfi_offset 14, -4
  85:Generated_Source\PSoC5/ADC_UI.c ****     /* Init DMA, 2 bytes bursts, each burst requires a request */
  86:Generated_Source\PSoC5/ADC_UI.c ****     ADC_UI_tempChan = ADC_UI_TempBuf_DmaInitialize(ADC_UI_TEMP_BYTES_PER_BURST,
  97              		.loc 1 86 0
  98 0002 0121     		movs	r1, #1
  99 0004 4FF48042 		mov	r2, #16384
 100 0008 41F6FF73 		movw	r3, #8191
 101 000c 0220     		movs	r0, #2
 102 000e FFF7FEFF 		bl	ADC_UI_TempBuf_DmaInitialize
 103              	.LVL4:
  87:Generated_Source\PSoC5/ADC_UI.c ****         ADC_UI_REQUEST_PER_BURST, (uint16)(HI16(CYDEV_PERIPH_BASE)), (uint16)(HI16(CYDEV_SRAM_BASE)
  88:Generated_Source\PSoC5/ADC_UI.c **** 
  89:Generated_Source\PSoC5/ADC_UI.c ****     /* Init DMA, (ADC_UI_NUMBER_OF_CHANNELS << 1u) bytes bursts, each burst requires a request */
  90:Generated_Source\PSoC5/ADC_UI.c ****     ADC_UI_finalChan = ADC_UI_FinalBuf_DmaInitialize((uint8)ADC_UI_FINAL_BYTES_PER_BURST,
 104              		.loc 1 90 0
 105 0012 41F6FF72 		movw	r2, #8191
  86:Generated_Source\PSoC5/ADC_UI.c ****         ADC_UI_REQUEST_PER_BURST, (uint16)(HI16(CYDEV_PERIPH_BASE)), (uint16)(HI16(CYDEV_SRAM_BASE)
 106              		.loc 1 86 0
 107 0016 084C     		ldr	r4, .L7
 108              		.loc 1 90 0
 109 0018 1346     		mov	r3, r2
  86:Generated_Source\PSoC5/ADC_UI.c ****         ADC_UI_REQUEST_PER_BURST, (uint16)(HI16(CYDEV_PERIPH_BASE)), (uint16)(HI16(CYDEV_SRAM_BASE)
 110              		.loc 1 86 0
 111 001a 2070     		strb	r0, [r4]
 112              		.loc 1 90 0
 113 001c 0121     		movs	r1, #1
 114 001e 0820     		movs	r0, #8
 115 0020 FFF7FEFF 		bl	ADC_UI_FinalBuf_DmaInitialize
 116              	.LVL5:
 117 0024 6070     		strb	r0, [r4, #1]
  91:Generated_Source\PSoC5/ADC_UI.c ****         ADC_UI_REQUEST_PER_BURST, (uint16)(HI16(CYDEV_SRAM_BASE)), (uint16)(HI16(CYDEV_SRAM_BASE)))
  92:Generated_Source\PSoC5/ADC_UI.c **** 
  93:Generated_Source\PSoC5/ADC_UI.c ****     #if(ADC_UI_IRQ_REMOVE == 0u)
  94:Generated_Source\PSoC5/ADC_UI.c ****         /* Set the ISR to point to the ADC_UI_IRQ Interrupt. */
  95:Generated_Source\PSoC5/ADC_UI.c ****         ADC_UI_IRQ_SetVector(&ADC_UI_ISR);
 118              		.loc 1 95 0
 119 0026 0548     		ldr	r0, .L7+4
 120 0028 FFF7FEFF 		bl	ADC_UI_IRQ_SetVector
 121              	.LVL6:
  96:Generated_Source\PSoC5/ADC_UI.c ****         /* Set the priority. */
  97:Generated_Source\PSoC5/ADC_UI.c ****         ADC_UI_IRQ_SetPriority((uint8)ADC_UI_INTC_NUMBER);
  98:Generated_Source\PSoC5/ADC_UI.c ****     #endif   /* End ADC_UI_IRQ_REMOVE */
  99:Generated_Source\PSoC5/ADC_UI.c **** 
 100:Generated_Source\PSoC5/ADC_UI.c **** }
 122              		.loc 1 100 0
ARM GAS  C:\Users\mgronber\AppData\Local\Temp\ccf2dyw1.s 			page 5


 123 002c BDE81040 		pop	{r4, lr}
 124              		.cfi_restore 14
 125              		.cfi_restore 4
 126              		.cfi_def_cfa_offset 0
  97:Generated_Source\PSoC5/ADC_UI.c ****     #endif   /* End ADC_UI_IRQ_REMOVE */
 127              		.loc 1 97 0
 128 0030 0220     		movs	r0, #2
 129 0032 FFF7FEBF 		b	ADC_UI_IRQ_SetPriority
 130              	.LVL7:
 131              	.L8:
 132 0036 00BF     		.align	2
 133              	.L7:
 134 0038 00000000 		.word	.LANCHOR0
 135 003c 00000000 		.word	ADC_UI_ISR
 136              		.cfi_endproc
 137              	.LFE1:
 138              		.size	ADC_UI_Init, .-ADC_UI_Init
 139              		.section	.text.ADC_UI_Enable,"ax",%progbits
 140              		.align	2
 141              		.global	ADC_UI_Enable
 142              		.thumb
 143              		.thumb_func
 144              		.type	ADC_UI_Enable, %function
 145              	ADC_UI_Enable:
 146              	.LFB2:
 101:Generated_Source\PSoC5/ADC_UI.c **** 
 102:Generated_Source\PSoC5/ADC_UI.c **** 
 103:Generated_Source\PSoC5/ADC_UI.c **** /*******************************************************************************
 104:Generated_Source\PSoC5/ADC_UI.c **** * Function Name: ADC_UI_Enable
 105:Generated_Source\PSoC5/ADC_UI.c **** ********************************************************************************
 106:Generated_Source\PSoC5/ADC_UI.c **** *
 107:Generated_Source\PSoC5/ADC_UI.c **** * Summary:
 108:Generated_Source\PSoC5/ADC_UI.c **** *  Enables DMA channels, address selection counter and FSM of Base component
 109:Generated_Source\PSoC5/ADC_UI.c **** *
 110:Generated_Source\PSoC5/ADC_UI.c **** * Parameters:
 111:Generated_Source\PSoC5/ADC_UI.c **** *  None.
 112:Generated_Source\PSoC5/ADC_UI.c **** *
 113:Generated_Source\PSoC5/ADC_UI.c **** * Return:
 114:Generated_Source\PSoC5/ADC_UI.c **** *  None.
 115:Generated_Source\PSoC5/ADC_UI.c **** *
 116:Generated_Source\PSoC5/ADC_UI.c **** * Side Effects:
 117:Generated_Source\PSoC5/ADC_UI.c **** *  None.
 118:Generated_Source\PSoC5/ADC_UI.c **** *
 119:Generated_Source\PSoC5/ADC_UI.c **** * Reentrant:
 120:Generated_Source\PSoC5/ADC_UI.c **** *  No.
 121:Generated_Source\PSoC5/ADC_UI.c **** *
 122:Generated_Source\PSoC5/ADC_UI.c **** *******************************************************************************/
 123:Generated_Source\PSoC5/ADC_UI.c **** void ADC_UI_Enable(void)
 124:Generated_Source\PSoC5/ADC_UI.c **** {
 147              		.loc 1 124 0
 148              		.cfi_startproc
 149              		@ args = 0, pretend = 0, frame = 0
 150              		@ frame_needed = 0, uses_anonymous_args = 0
 151 0000 F8B5     		push	{r3, r4, r5, r6, r7, lr}
 152              		.cfi_def_cfa_offset 24
 153              		.cfi_offset 3, -24
 154              		.cfi_offset 4, -20
ARM GAS  C:\Users\mgronber\AppData\Local\Temp\ccf2dyw1.s 			page 6


 155              		.cfi_offset 5, -16
 156              		.cfi_offset 6, -12
 157              		.cfi_offset 7, -8
 158              		.cfi_offset 14, -4
 125:Generated_Source\PSoC5/ADC_UI.c ****     uint8 enableInterrupts;
 126:Generated_Source\PSoC5/ADC_UI.c **** 
 127:Generated_Source\PSoC5/ADC_UI.c ****     static int16 ADC_UI_tempArray[ADC_UI_NUMBER_OF_CHANNELS];
 128:Generated_Source\PSoC5/ADC_UI.c ****     
 129:Generated_Source\PSoC5/ADC_UI.c ****     (void)CyDmaClearPendingDrq(ADC_UI_tempChan);
 159              		.loc 1 129 0
 160 0002 2A4D     		ldr	r5, .L16
 130:Generated_Source\PSoC5/ADC_UI.c ****     (void)CyDmaClearPendingDrq(ADC_UI_finalChan);
 131:Generated_Source\PSoC5/ADC_UI.c ****     
 132:Generated_Source\PSoC5/ADC_UI.c ****     
 133:Generated_Source\PSoC5/ADC_UI.c ****     /* Provides initialization procedure for the TempBuf DMA
 134:Generated_Source\PSoC5/ADC_UI.c ****     * Configure this Td as follows:
 135:Generated_Source\PSoC5/ADC_UI.c ****     *  - The TD is looping on itself
 136:Generated_Source\PSoC5/ADC_UI.c ****     *  - Increment the destination address, but not the source address
 137:Generated_Source\PSoC5/ADC_UI.c ****     */
 138:Generated_Source\PSoC5/ADC_UI.c **** 
 139:Generated_Source\PSoC5/ADC_UI.c ****     if (ADC_UI_tempTD == DMA_INVALID_TD)
 161              		.loc 1 139 0
 162 0004 2A4C     		ldr	r4, .L16+4
 129:Generated_Source\PSoC5/ADC_UI.c ****     (void)CyDmaClearPendingDrq(ADC_UI_finalChan);
 163              		.loc 1 129 0
 164 0006 2878     		ldrb	r0, [r5]	@ zero_extendqisi2
 165 0008 FFF7FEFF 		bl	CyDmaClearPendingDrq
 166              	.LVL8:
 130:Generated_Source\PSoC5/ADC_UI.c ****     (void)CyDmaClearPendingDrq(ADC_UI_finalChan);
 167              		.loc 1 130 0
 168 000c 6878     		ldrb	r0, [r5, #1]	@ zero_extendqisi2
 169 000e FFF7FEFF 		bl	CyDmaClearPendingDrq
 170              	.LVL9:
 171              		.loc 1 139 0
 172 0012 2078     		ldrb	r0, [r4]	@ zero_extendqisi2
 173 0014 FF28     		cmp	r0, #255
 174 0016 45D0     		beq	.L14
 175              	.L10:
 140:Generated_Source\PSoC5/ADC_UI.c ****     {
 141:Generated_Source\PSoC5/ADC_UI.c ****         ADC_UI_tempTD = CyDmaTdAllocate();
 142:Generated_Source\PSoC5/ADC_UI.c ****     }
 143:Generated_Source\PSoC5/ADC_UI.c **** 
 144:Generated_Source\PSoC5/ADC_UI.c ****     (void) CyDmaTdSetConfiguration(ADC_UI_tempTD, ADC_UI_TEMP_TRANSFER_COUNT,
 145:Generated_Source\PSoC5/ADC_UI.c ****         ADC_UI_tempTD, ((uint8)ADC_UI_TempBuf__TD_TERMOUT_EN | (uint8)TD_INC_DST_ADR));
 146:Generated_Source\PSoC5/ADC_UI.c **** 
 147:Generated_Source\PSoC5/ADC_UI.c ****     /* From the SAR to the TempArray */
 148:Generated_Source\PSoC5/ADC_UI.c ****     (void) CyDmaTdSetAddress(ADC_UI_tempTD, (uint16)(LO16((uint32)ADC_UI_SAR_DATA_ADDR_0)),
 176              		.loc 1 148 0
 177 0018 264E     		ldr	r6, .L16+8
 144:Generated_Source\PSoC5/ADC_UI.c ****         ADC_UI_tempTD, ((uint8)ADC_UI_TempBuf__TD_TERMOUT_EN | (uint8)TD_INC_DST_ADR));
 178              		.loc 1 144 0
 179 001a 0623     		movs	r3, #6
 180 001c 0246     		mov	r2, r0
 181 001e 0821     		movs	r1, #8
 182              		.loc 1 148 0
 183 0020 B6B2     		uxth	r6, r6
 144:Generated_Source\PSoC5/ADC_UI.c ****         ADC_UI_tempTD, ((uint8)ADC_UI_TempBuf__TD_TERMOUT_EN | (uint8)TD_INC_DST_ADR));
ARM GAS  C:\Users\mgronber\AppData\Local\Temp\ccf2dyw1.s 			page 7


 184              		.loc 1 144 0
 185 0022 FFF7FEFF 		bl	CyDmaTdSetConfiguration
 186              	.LVL10:
 187              		.loc 1 148 0
 188 0026 3246     		mov	r2, r6
 189 0028 45F6A031 		movw	r1, #23456
 190 002c 2078     		ldrb	r0, [r4]	@ zero_extendqisi2
 191 002e FFF7FEFF 		bl	CyDmaTdSetAddress
 192              	.LVL11:
 149:Generated_Source\PSoC5/ADC_UI.c ****         (uint16)(LO16((uint32)ADC_UI_tempArray)));
 150:Generated_Source\PSoC5/ADC_UI.c **** 
 151:Generated_Source\PSoC5/ADC_UI.c ****     /* Associate the TD with the channel */
 152:Generated_Source\PSoC5/ADC_UI.c ****     (void) CyDmaChSetInitialTd(ADC_UI_tempChan, ADC_UI_tempTD);
 193              		.loc 1 152 0
 194 0032 2878     		ldrb	r0, [r5]	@ zero_extendqisi2
 195 0034 2178     		ldrb	r1, [r4]	@ zero_extendqisi2
 196 0036 FFF7FEFF 		bl	CyDmaChSetInitialTd
 197              	.LVL12:
 153:Generated_Source\PSoC5/ADC_UI.c **** 
 154:Generated_Source\PSoC5/ADC_UI.c **** 
 155:Generated_Source\PSoC5/ADC_UI.c ****     /* Provides initialization procedure for the FinalBuf DMA
 156:Generated_Source\PSoC5/ADC_UI.c ****     * Configure this Td as follows:
 157:Generated_Source\PSoC5/ADC_UI.c ****     *  - The TD is looping on itself
 158:Generated_Source\PSoC5/ADC_UI.c ****     *  - Increment the source and destination address
 159:Generated_Source\PSoC5/ADC_UI.c ****     */
 160:Generated_Source\PSoC5/ADC_UI.c **** 
 161:Generated_Source\PSoC5/ADC_UI.c ****     if (ADC_UI_finalTD == DMA_INVALID_TD)
 198              		.loc 1 161 0
 199 003a 6078     		ldrb	r0, [r4, #1]	@ zero_extendqisi2
 148:Generated_Source\PSoC5/ADC_UI.c ****         (uint16)(LO16((uint32)ADC_UI_tempArray)));
 200              		.loc 1 148 0
 201 003c 1C4F     		ldr	r7, .L16+4
 202              		.loc 1 161 0
 203 003e FF28     		cmp	r0, #255
 204 0040 2CD0     		beq	.L15
 205              	.L11:
 162:Generated_Source\PSoC5/ADC_UI.c ****     {
 163:Generated_Source\PSoC5/ADC_UI.c ****         ADC_UI_finalTD = CyDmaTdAllocate();
 164:Generated_Source\PSoC5/ADC_UI.c ****     }
 165:Generated_Source\PSoC5/ADC_UI.c ****     
 166:Generated_Source\PSoC5/ADC_UI.c ****     (void) CyDmaTdSetConfiguration(ADC_UI_finalTD, (ADC_UI_FINAL_BYTES_PER_BURST),
 206              		.loc 1 166 0
 207 0042 0723     		movs	r3, #7
 208 0044 0246     		mov	r2, r0
 209 0046 0821     		movs	r1, #8
 210 0048 FFF7FEFF 		bl	CyDmaTdSetConfiguration
 211              	.LVL13:
 167:Generated_Source\PSoC5/ADC_UI.c ****         ADC_UI_finalTD, ((uint8)(ADC_UI_FinalBuf__TD_TERMOUT_EN) | (uint8)TD_INC_SRC_ADR |
 168:Generated_Source\PSoC5/ADC_UI.c ****             (uint8)TD_INC_DST_ADR));
 169:Generated_Source\PSoC5/ADC_UI.c **** 
 170:Generated_Source\PSoC5/ADC_UI.c ****     /* From the the TempArray to Final Array */
 171:Generated_Source\PSoC5/ADC_UI.c ****     (void) CyDmaTdSetAddress(ADC_UI_finalTD, (uint16)(LO16((uint32)ADC_UI_tempArray)),
 212              		.loc 1 171 0
 213 004c 1A4A     		ldr	r2, .L16+12
 214 004e 3146     		mov	r1, r6
 215 0050 92B2     		uxth	r2, r2
 216 0052 6078     		ldrb	r0, [r4, #1]	@ zero_extendqisi2
ARM GAS  C:\Users\mgronber\AppData\Local\Temp\ccf2dyw1.s 			page 8


 217 0054 FFF7FEFF 		bl	CyDmaTdSetAddress
 218              	.LVL14:
 172:Generated_Source\PSoC5/ADC_UI.c ****         (uint16)(LO16((uint32)ADC_UI_finalArray)));
 173:Generated_Source\PSoC5/ADC_UI.c **** 
 174:Generated_Source\PSoC5/ADC_UI.c ****     /* Associate the TD with the channel */
 175:Generated_Source\PSoC5/ADC_UI.c ****     (void) CyDmaChSetInitialTd(ADC_UI_finalChan, ADC_UI_finalTD);
 219              		.loc 1 175 0
 220 0058 6178     		ldrb	r1, [r4, #1]	@ zero_extendqisi2
 221 005a 6878     		ldrb	r0, [r5, #1]	@ zero_extendqisi2
 222 005c FFF7FEFF 		bl	CyDmaChSetInitialTd
 223              	.LVL15:
 176:Generated_Source\PSoC5/ADC_UI.c ****     
 177:Generated_Source\PSoC5/ADC_UI.c ****     (void) CyDmaChEnable(ADC_UI_tempChan, 1u);
 224              		.loc 1 177 0
 225 0060 0121     		movs	r1, #1
 226 0062 2878     		ldrb	r0, [r5]	@ zero_extendqisi2
 227 0064 FFF7FEFF 		bl	CyDmaChEnable
 228              	.LVL16:
 178:Generated_Source\PSoC5/ADC_UI.c ****     (void) CyDmaChEnable(ADC_UI_finalChan, 1u);
 229              		.loc 1 178 0
 230 0068 0121     		movs	r1, #1
 231 006a 6878     		ldrb	r0, [r5, #1]	@ zero_extendqisi2
 232 006c FFF7FEFF 		bl	CyDmaChEnable
 233              	.LVL17:
 179:Generated_Source\PSoC5/ADC_UI.c **** 
 180:Generated_Source\PSoC5/ADC_UI.c ****     /* Enable Counter and give Enable pulse to set an address of the last channel */
 181:Generated_Source\PSoC5/ADC_UI.c ****     enableInterrupts = CyEnterCriticalSection();
 234              		.loc 1 181 0
 235 0070 FFF7FEFF 		bl	CyEnterCriticalSection
 236              	.LVL18:
 182:Generated_Source\PSoC5/ADC_UI.c ****     ADC_UI_CYCLE_COUNTER_AUX_CONTROL_REG |= ((uint8)(ADC_UI_CYCLE_COUNTER_ENABLE));
 237              		.loc 1 182 0
 238 0074 114A     		ldr	r2, .L16+16
 239 0076 1378     		ldrb	r3, [r2]	@ zero_extendqisi2
 240 0078 43F02003 		orr	r3, r3, #32
 241 007c 1370     		strb	r3, [r2]
 183:Generated_Source\PSoC5/ADC_UI.c ****     CyExitCriticalSection(enableInterrupts);
 242              		.loc 1 183 0
 243 007e FFF7FEFF 		bl	CyExitCriticalSection
 244              	.LVL19:
 184:Generated_Source\PSoC5/ADC_UI.c **** 
 185:Generated_Source\PSoC5/ADC_UI.c ****     /* Enable FSM of the Base Component */
 186:Generated_Source\PSoC5/ADC_UI.c ****     ADC_UI_CONTROL_REG |= ((uint8)(ADC_UI_BASE_COMPONENT_ENABLE));
 245              		.loc 1 186 0
 246 0082 0F4B     		ldr	r3, .L16+20
 187:Generated_Source\PSoC5/ADC_UI.c ****     ADC_UI_CONTROL_REG |= ((uint8)(ADC_UI_LOAD_COUNTER_PERIOD));
 188:Generated_Source\PSoC5/ADC_UI.c **** 
 189:Generated_Source\PSoC5/ADC_UI.c ****     #if(ADC_UI_IRQ_REMOVE == 0u)
 190:Generated_Source\PSoC5/ADC_UI.c ****         /* Clear a pending interrupt */
 191:Generated_Source\PSoC5/ADC_UI.c ****         CyIntClearPending(ADC_UI_INTC_NUMBER);
 247              		.loc 1 191 0
 248 0084 0F49     		ldr	r1, .L16+24
 186:Generated_Source\PSoC5/ADC_UI.c ****     ADC_UI_CONTROL_REG |= ((uint8)(ADC_UI_LOAD_COUNTER_PERIOD));
 249              		.loc 1 186 0
 250 0086 1A78     		ldrb	r2, [r3]	@ zero_extendqisi2
 251              		.loc 1 191 0
 252 0088 0420     		movs	r0, #4
ARM GAS  C:\Users\mgronber\AppData\Local\Temp\ccf2dyw1.s 			page 9


 186:Generated_Source\PSoC5/ADC_UI.c ****     ADC_UI_CONTROL_REG |= ((uint8)(ADC_UI_LOAD_COUNTER_PERIOD));
 253              		.loc 1 186 0
 254 008a 42F00102 		orr	r2, r2, #1
 255 008e 1A70     		strb	r2, [r3]
 187:Generated_Source\PSoC5/ADC_UI.c ****     ADC_UI_CONTROL_REG |= ((uint8)(ADC_UI_LOAD_COUNTER_PERIOD));
 256              		.loc 1 187 0
 257 0090 1A78     		ldrb	r2, [r3]	@ zero_extendqisi2
 258 0092 42F00202 		orr	r2, r2, #2
 259 0096 1A70     		strb	r2, [r3]
 260              		.loc 1 191 0
 261 0098 0860     		str	r0, [r1]
 262 009a F8BD     		pop	{r3, r4, r5, r6, r7, pc}
 263              	.L15:
 163:Generated_Source\PSoC5/ADC_UI.c ****     }
 264              		.loc 1 163 0
 265 009c FFF7FEFF 		bl	CyDmaTdAllocate
 266              	.LVL20:
 267 00a0 7870     		strb	r0, [r7, #1]
 268 00a2 CEE7     		b	.L11
 269              	.L14:
 141:Generated_Source\PSoC5/ADC_UI.c ****     }
 270              		.loc 1 141 0
 271 00a4 FFF7FEFF 		bl	CyDmaTdAllocate
 272              	.LVL21:
 273 00a8 2070     		strb	r0, [r4]
 274 00aa B5E7     		b	.L10
 275              	.L17:
 276              		.align	2
 277              	.L16:
 278 00ac 00000000 		.word	.LANCHOR0
 279 00b0 00000000 		.word	.LANCHOR1
 280 00b4 04000000 		.word	.LANCHOR0+4
 281 00b8 00000000 		.word	ADC_UI_finalArray
 282 00bc 98650040 		.word	1073767832
 283 00c0 7B650040 		.word	1073767803
 284 00c4 80E200E0 		.word	-536812928
 285              		.cfi_endproc
 286              	.LFE2:
 287              		.size	ADC_UI_Enable, .-ADC_UI_Enable
 288              		.section	.text.ADC_UI_Start,"ax",%progbits
 289              		.align	2
 290              		.global	ADC_UI_Start
 291              		.thumb
 292              		.thumb_func
 293              		.type	ADC_UI_Start, %function
 294              	ADC_UI_Start:
 295              	.LFB3:
 192:Generated_Source\PSoC5/ADC_UI.c ****     #endif   /* End ADC_UI_IRQ_REMOVE */
 193:Generated_Source\PSoC5/ADC_UI.c **** }
 194:Generated_Source\PSoC5/ADC_UI.c **** 
 195:Generated_Source\PSoC5/ADC_UI.c **** 
 196:Generated_Source\PSoC5/ADC_UI.c **** /*******************************************************************************
 197:Generated_Source\PSoC5/ADC_UI.c **** * Function Name: ADC_UI_Start
 198:Generated_Source\PSoC5/ADC_UI.c **** ********************************************************************************
 199:Generated_Source\PSoC5/ADC_UI.c **** *
 200:Generated_Source\PSoC5/ADC_UI.c **** * Summary:
 201:Generated_Source\PSoC5/ADC_UI.c **** *  Starts component
ARM GAS  C:\Users\mgronber\AppData\Local\Temp\ccf2dyw1.s 			page 10


 202:Generated_Source\PSoC5/ADC_UI.c **** *
 203:Generated_Source\PSoC5/ADC_UI.c **** * Parameters:
 204:Generated_Source\PSoC5/ADC_UI.c **** *  None.
 205:Generated_Source\PSoC5/ADC_UI.c **** *
 206:Generated_Source\PSoC5/ADC_UI.c **** * Return:
 207:Generated_Source\PSoC5/ADC_UI.c **** *  None.
 208:Generated_Source\PSoC5/ADC_UI.c **** *
 209:Generated_Source\PSoC5/ADC_UI.c **** * Side Effects:
 210:Generated_Source\PSoC5/ADC_UI.c **** *  If the initVar variable is already set, this function only calls the 
 211:Generated_Source\PSoC5/ADC_UI.c **** *  ADC_UI_Enable() function
 212:Generated_Source\PSoC5/ADC_UI.c **** *
 213:Generated_Source\PSoC5/ADC_UI.c **** * Reentrant:
 214:Generated_Source\PSoC5/ADC_UI.c **** *  No.
 215:Generated_Source\PSoC5/ADC_UI.c **** *
 216:Generated_Source\PSoC5/ADC_UI.c **** *******************************************************************************/
 217:Generated_Source\PSoC5/ADC_UI.c **** void ADC_UI_Start(void)
 218:Generated_Source\PSoC5/ADC_UI.c **** {
 296              		.loc 1 218 0
 297              		.cfi_startproc
 298              		@ args = 0, pretend = 0, frame = 0
 299              		@ frame_needed = 0, uses_anonymous_args = 0
 300 0000 10B5     		push	{r4, lr}
 301              		.cfi_def_cfa_offset 8
 302              		.cfi_offset 4, -8
 303              		.cfi_offset 14, -4
 219:Generated_Source\PSoC5/ADC_UI.c ****     if(ADC_UI_initVar == 0u)
 304              		.loc 1 219 0
 305 0002 074C     		ldr	r4, .L21
 306 0004 E368     		ldr	r3, [r4, #12]
 307 0006 1BB9     		cbnz	r3, .L19
 220:Generated_Source\PSoC5/ADC_UI.c ****     {
 221:Generated_Source\PSoC5/ADC_UI.c ****         ADC_UI_Init();
 308              		.loc 1 221 0
 309 0008 FFF7FEFF 		bl	ADC_UI_Init
 310              	.LVL22:
 222:Generated_Source\PSoC5/ADC_UI.c ****         ADC_UI_initVar = 1u;
 311              		.loc 1 222 0
 312 000c 0123     		movs	r3, #1
 313 000e E360     		str	r3, [r4, #12]
 314              	.L19:
 223:Generated_Source\PSoC5/ADC_UI.c ****     }
 224:Generated_Source\PSoC5/ADC_UI.c **** 
 225:Generated_Source\PSoC5/ADC_UI.c ****     ADC_UI_Enable();
 315              		.loc 1 225 0
 316 0010 FFF7FEFF 		bl	ADC_UI_Enable
 317              	.LVL23:
 226:Generated_Source\PSoC5/ADC_UI.c ****     ADC_UI_SAR_Start();
 318              		.loc 1 226 0
 319 0014 FFF7FEFF 		bl	ADC_UI_SAR_Start
 320              	.LVL24:
 227:Generated_Source\PSoC5/ADC_UI.c ****     (void) CY_GET_REG8(ADC_UI_STATUS_PTR);
 321              		.loc 1 227 0
 322 0018 024B     		ldr	r3, .L21+4
 323 001a 1B78     		ldrb	r3, [r3]	@ zero_extendqisi2
 324 001c 10BD     		pop	{r4, pc}
 325              	.L22:
 326 001e 00BF     		.align	2
ARM GAS  C:\Users\mgronber\AppData\Local\Temp\ccf2dyw1.s 			page 11


 327              	.L21:
 328 0020 00000000 		.word	.LANCHOR0
 329 0024 6A650040 		.word	1073767786
 330              		.cfi_endproc
 331              	.LFE3:
 332              		.size	ADC_UI_Start, .-ADC_UI_Start
 333              		.section	.text.ADC_UI_Stop,"ax",%progbits
 334              		.align	2
 335              		.global	ADC_UI_Stop
 336              		.thumb
 337              		.thumb_func
 338              		.type	ADC_UI_Stop, %function
 339              	ADC_UI_Stop:
 340              	.LFB4:
 228:Generated_Source\PSoC5/ADC_UI.c **** 
 229:Generated_Source\PSoC5/ADC_UI.c **** }
 230:Generated_Source\PSoC5/ADC_UI.c **** 
 231:Generated_Source\PSoC5/ADC_UI.c **** 
 232:Generated_Source\PSoC5/ADC_UI.c **** /*******************************************************************************
 233:Generated_Source\PSoC5/ADC_UI.c **** * Function Name: ADC_UI_Stop
 234:Generated_Source\PSoC5/ADC_UI.c **** ********************************************************************************
 235:Generated_Source\PSoC5/ADC_UI.c **** *
 236:Generated_Source\PSoC5/ADC_UI.c **** * Summary:
 237:Generated_Source\PSoC5/ADC_UI.c **** *  Stops component.
 238:Generated_Source\PSoC5/ADC_UI.c **** *
 239:Generated_Source\PSoC5/ADC_UI.c **** * Parameters:
 240:Generated_Source\PSoC5/ADC_UI.c **** *  None.
 241:Generated_Source\PSoC5/ADC_UI.c **** *
 242:Generated_Source\PSoC5/ADC_UI.c **** * Return:
 243:Generated_Source\PSoC5/ADC_UI.c **** *  None.
 244:Generated_Source\PSoC5/ADC_UI.c **** *
 245:Generated_Source\PSoC5/ADC_UI.c **** * Side Effects:
 246:Generated_Source\PSoC5/ADC_UI.c **** *  None.
 247:Generated_Source\PSoC5/ADC_UI.c **** *
 248:Generated_Source\PSoC5/ADC_UI.c **** * Reentrant:
 249:Generated_Source\PSoC5/ADC_UI.c **** *  No.
 250:Generated_Source\PSoC5/ADC_UI.c **** *
 251:Generated_Source\PSoC5/ADC_UI.c **** *******************************************************************************/
 252:Generated_Source\PSoC5/ADC_UI.c **** void ADC_UI_Stop(void)
 253:Generated_Source\PSoC5/ADC_UI.c **** {
 341              		.loc 1 253 0
 342              		.cfi_startproc
 343              		@ args = 0, pretend = 0, frame = 0
 344              		@ frame_needed = 0, uses_anonymous_args = 0
 345 0000 08B5     		push	{r3, lr}
 346              		.cfi_def_cfa_offset 8
 347              		.cfi_offset 3, -8
 348              		.cfi_offset 14, -4
 254:Generated_Source\PSoC5/ADC_UI.c ****     ADC_UI_SAR_Stop();
 349              		.loc 1 254 0
 350 0002 FFF7FEFF 		bl	ADC_UI_SAR_Stop
 351              	.LVL25:
 255:Generated_Source\PSoC5/ADC_UI.c ****     ADC_UI_Disable();
 256:Generated_Source\PSoC5/ADC_UI.c **** }
 352              		.loc 1 256 0
 353 0006 BDE80840 		pop	{r3, lr}
 354              		.cfi_restore 14
ARM GAS  C:\Users\mgronber\AppData\Local\Temp\ccf2dyw1.s 			page 12


 355              		.cfi_restore 3
 356              		.cfi_def_cfa_offset 0
 255:Generated_Source\PSoC5/ADC_UI.c ****     ADC_UI_Disable();
 357              		.loc 1 255 0
 358 000a FFF7FEBF 		b	ADC_UI_Disable
 359              	.LVL26:
 360              		.cfi_endproc
 361              	.LFE4:
 362              		.size	ADC_UI_Stop, .-ADC_UI_Stop
 363 000e 00BF     		.section	.text.ADC_UI_StartConvert,"ax",%progbits
 364              		.align	2
 365              		.global	ADC_UI_StartConvert
 366              		.thumb
 367              		.thumb_func
 368              		.type	ADC_UI_StartConvert, %function
 369              	ADC_UI_StartConvert:
 370              	.LFB5:
 257:Generated_Source\PSoC5/ADC_UI.c **** 
 258:Generated_Source\PSoC5/ADC_UI.c **** #if(ADC_UI_SAMPLE_MODE != ADC_UI_SAMPLE_MODE_HW_TRIGGERED)
 259:Generated_Source\PSoC5/ADC_UI.c **** 
 260:Generated_Source\PSoC5/ADC_UI.c ****     /*******************************************************************************
 261:Generated_Source\PSoC5/ADC_UI.c ****     * Function Name: ADC_UI_StartConvert
 262:Generated_Source\PSoC5/ADC_UI.c ****     ********************************************************************************
 263:Generated_Source\PSoC5/ADC_UI.c ****     *
 264:Generated_Source\PSoC5/ADC_UI.c ****     * Summary:
 265:Generated_Source\PSoC5/ADC_UI.c ****     *  When the Sample Mode parameter is set to 'Free Running', the component will
 266:Generated_Source\PSoC5/ADC_UI.c ****     * operate in a continuous mode. The channels will be scanned continuously until
 267:Generated_Source\PSoC5/ADC_UI.c ****     * _StopConvert()or  _Stop() is called
 268:Generated_Source\PSoC5/ADC_UI.c ****     *
 269:Generated_Source\PSoC5/ADC_UI.c ****     * Parameters:
 270:Generated_Source\PSoC5/ADC_UI.c ****     *  None.
 271:Generated_Source\PSoC5/ADC_UI.c ****     *
 272:Generated_Source\PSoC5/ADC_UI.c ****     * Return:
 273:Generated_Source\PSoC5/ADC_UI.c ****     *  None.
 274:Generated_Source\PSoC5/ADC_UI.c ****     *
 275:Generated_Source\PSoC5/ADC_UI.c ****     * Side Effects:
 276:Generated_Source\PSoC5/ADC_UI.c ****     *  Calling ADC_UI_StartConvert() disables the external SOC pin.
 277:Generated_Source\PSoC5/ADC_UI.c ****     *
 278:Generated_Source\PSoC5/ADC_UI.c ****     * Reentrant:
 279:Generated_Source\PSoC5/ADC_UI.c ****     *  No.
 280:Generated_Source\PSoC5/ADC_UI.c ****     *
 281:Generated_Source\PSoC5/ADC_UI.c ****     *******************************************************************************/
 282:Generated_Source\PSoC5/ADC_UI.c ****     void ADC_UI_StartConvert(void)
 283:Generated_Source\PSoC5/ADC_UI.c ****     {
 371              		.loc 1 283 0
 372              		.cfi_startproc
 373              		@ args = 0, pretend = 0, frame = 0
 374              		@ frame_needed = 0, uses_anonymous_args = 0
 375              		@ link register save eliminated.
 284:Generated_Source\PSoC5/ADC_UI.c ****         #if(ADC_UI_SAMPLE_MODE != ADC_UI_SAMPLE_MODE_FREE_RUNNING)
 285:Generated_Source\PSoC5/ADC_UI.c **** 
 286:Generated_Source\PSoC5/ADC_UI.c ****             ADC_UI_CONTROL_REG |= ((uint8)(ADC_UI_SOFTWARE_SOC_PULSE));
 376              		.loc 1 286 0
 377 0000 024A     		ldr	r2, .L26
 378 0002 1378     		ldrb	r3, [r2]	@ zero_extendqisi2
 379 0004 43F00403 		orr	r3, r3, #4
 380 0008 1370     		strb	r3, [r2]
ARM GAS  C:\Users\mgronber\AppData\Local\Temp\ccf2dyw1.s 			page 13


 381 000a 7047     		bx	lr
 382              	.L27:
 383              		.align	2
 384              	.L26:
 385 000c 7B650040 		.word	1073767803
 386              		.cfi_endproc
 387              	.LFE5:
 388              		.size	ADC_UI_StartConvert, .-ADC_UI_StartConvert
 389              		.section	.text.ADC_UI_StopConvert,"ax",%progbits
 390              		.align	2
 391              		.global	ADC_UI_StopConvert
 392              		.thumb
 393              		.thumb_func
 394              		.type	ADC_UI_StopConvert, %function
 395              	ADC_UI_StopConvert:
 396              	.LFB6:
 287:Generated_Source\PSoC5/ADC_UI.c **** 
 288:Generated_Source\PSoC5/ADC_UI.c ****         #else
 289:Generated_Source\PSoC5/ADC_UI.c **** 
 290:Generated_Source\PSoC5/ADC_UI.c ****             ADC_UI_SAR_StartConvert();
 291:Generated_Source\PSoC5/ADC_UI.c **** 
 292:Generated_Source\PSoC5/ADC_UI.c ****         #endif /*
 293:Generated_Source\PSoC5/ADC_UI.c ****                  #if(ADC_UI_SAMPLE_MODE !=
 294:Generated_Source\PSoC5/ADC_UI.c ****                  ADC_UI_SAMPLE_MODE_FREE_RUNNING)
 295:Generated_Source\PSoC5/ADC_UI.c ****                */
 296:Generated_Source\PSoC5/ADC_UI.c ****     }
 297:Generated_Source\PSoC5/ADC_UI.c **** 
 298:Generated_Source\PSoC5/ADC_UI.c **** 
 299:Generated_Source\PSoC5/ADC_UI.c ****     /*******************************************************************************
 300:Generated_Source\PSoC5/ADC_UI.c ****     * Function Name: ADC_UI_StopConvert
 301:Generated_Source\PSoC5/ADC_UI.c ****     ********************************************************************************
 302:Generated_Source\PSoC5/ADC_UI.c ****     *
 303:Generated_Source\PSoC5/ADC_UI.c ****     * Summary:
 304:Generated_Source\PSoC5/ADC_UI.c ****     *  Forces the component to stop all conversions
 305:Generated_Source\PSoC5/ADC_UI.c ****     *
 306:Generated_Source\PSoC5/ADC_UI.c ****     * Parameters:
 307:Generated_Source\PSoC5/ADC_UI.c ****     *  None.
 308:Generated_Source\PSoC5/ADC_UI.c ****     *
 309:Generated_Source\PSoC5/ADC_UI.c ****     * Return:
 310:Generated_Source\PSoC5/ADC_UI.c ****     *  None.
 311:Generated_Source\PSoC5/ADC_UI.c ****     *
 312:Generated_Source\PSoC5/ADC_UI.c ****     * Side Effects:
 313:Generated_Source\PSoC5/ADC_UI.c ****     *  In free-running and software trigger mode, this function sets a software 
 314:Generated_Source\PSoC5/ADC_UI.c ****     *  version of the SOC to low level and switches the SOC source to hardware SOC 
 315:Generated_Source\PSoC5/ADC_UI.c ****     *  input (Hardware trigger).
 316:Generated_Source\PSoC5/ADC_UI.c ****     *
 317:Generated_Source\PSoC5/ADC_UI.c ****     * Reentrant:
 318:Generated_Source\PSoC5/ADC_UI.c ****     *  No.
 319:Generated_Source\PSoC5/ADC_UI.c ****     *
 320:Generated_Source\PSoC5/ADC_UI.c ****     *******************************************************************************/
 321:Generated_Source\PSoC5/ADC_UI.c ****     void ADC_UI_StopConvert(void)
 322:Generated_Source\PSoC5/ADC_UI.c ****     {
 397              		.loc 1 322 0
 398              		.cfi_startproc
 399              		@ args = 0, pretend = 0, frame = 0
 400              		@ frame_needed = 0, uses_anonymous_args = 0
 401              		@ link register save eliminated.
ARM GAS  C:\Users\mgronber\AppData\Local\Temp\ccf2dyw1.s 			page 14


 323:Generated_Source\PSoC5/ADC_UI.c ****         ADC_UI_SAR_StopConvert();
 402              		.loc 1 323 0
 403 0000 FFF7FEBF 		b	ADC_UI_SAR_StopConvert
 404              	.LVL27:
 405              		.cfi_endproc
 406              	.LFE6:
 407              		.size	ADC_UI_StopConvert, .-ADC_UI_StopConvert
 408              		.section	.text.ADC_UI_IsEndConversion,"ax",%progbits
 409              		.align	2
 410              		.global	ADC_UI_IsEndConversion
 411              		.thumb
 412              		.thumb_func
 413              		.type	ADC_UI_IsEndConversion, %function
 414              	ADC_UI_IsEndConversion:
 415              	.LFB7:
 324:Generated_Source\PSoC5/ADC_UI.c ****     }
 325:Generated_Source\PSoC5/ADC_UI.c **** 
 326:Generated_Source\PSoC5/ADC_UI.c **** #endif /* ADC_UI_SAMPLE_MODE != ADC_UI_SAMPLE_MODE_HW_TRIGGERED */
 327:Generated_Source\PSoC5/ADC_UI.c **** 
 328:Generated_Source\PSoC5/ADC_UI.c **** 
 329:Generated_Source\PSoC5/ADC_UI.c **** /*******************************************************************************
 330:Generated_Source\PSoC5/ADC_UI.c **** * Function Name: ADC_UI_IsEndConversion
 331:Generated_Source\PSoC5/ADC_UI.c **** ********************************************************************************
 332:Generated_Source\PSoC5/ADC_UI.c **** *
 333:Generated_Source\PSoC5/ADC_UI.c **** * Summary:
 334:Generated_Source\PSoC5/ADC_UI.c **** *  Checks for ADC end of conversion for the case one channel and end of scan
 335:Generated_Source\PSoC5/ADC_UI.c **** *  for the case of multiple channels
 336:Generated_Source\PSoC5/ADC_UI.c **** *
 337:Generated_Source\PSoC5/ADC_UI.c **** * Parameters:
 338:Generated_Source\PSoC5/ADC_UI.c **** *  retMode: Check conversion return mode
 339:Generated_Source\PSoC5/ADC_UI.c **** *   Values:
 340:Generated_Source\PSoC5/ADC_UI.c **** *         - ADC_UI_RETURN_STATUS      - Immediately returns the 
 341:Generated_Source\PSoC5/ADC_UI.c **** *                                                 status
 342:Generated_Source\PSoC5/ADC_UI.c **** *         - ADC_UI_WAIT_FOR_RESULT    - Does not return a result 
 343:Generated_Source\PSoC5/ADC_UI.c **** *                                                 until the conversion 
 344:Generated_Source\PSoC5/ADC_UI.c **** *                                                 is complete
 345:Generated_Source\PSoC5/ADC_UI.c **** *
 346:Generated_Source\PSoC5/ADC_UI.c **** * Return:
 347:Generated_Source\PSoC5/ADC_UI.c **** *  If a nonzero value is returned, the last conversion is complete. If the 
 348:Generated_Source\PSoC5/ADC_UI.c **** *  returned value is zero, the ADC_SAR_Seq is still calculating the last result
 349:Generated_Source\PSoC5/ADC_UI.c **** *
 350:Generated_Source\PSoC5/ADC_UI.c **** * Side Effects:
 351:Generated_Source\PSoC5/ADC_UI.c **** *  This function reads the end of conversion status, which is cleared on read
 352:Generated_Source\PSoC5/ADC_UI.c **** *
 353:Generated_Source\PSoC5/ADC_UI.c **** * Reentrant:
 354:Generated_Source\PSoC5/ADC_UI.c **** *  No.
 355:Generated_Source\PSoC5/ADC_UI.c **** *
 356:Generated_Source\PSoC5/ADC_UI.c **** *******************************************************************************/
 357:Generated_Source\PSoC5/ADC_UI.c **** uint32 ADC_UI_IsEndConversion(uint8 retMode)
 358:Generated_Source\PSoC5/ADC_UI.c **** {
 416              		.loc 1 358 0
 417              		.cfi_startproc
 418              		@ args = 0, pretend = 0, frame = 0
 419              		@ frame_needed = 0, uses_anonymous_args = 0
 420              		@ link register save eliminated.
 421              	.LVL28:
 359:Generated_Source\PSoC5/ADC_UI.c ****     uint8 status;
ARM GAS  C:\Users\mgronber\AppData\Local\Temp\ccf2dyw1.s 			page 15


 360:Generated_Source\PSoC5/ADC_UI.c **** 
 361:Generated_Source\PSoC5/ADC_UI.c ****     do
 362:Generated_Source\PSoC5/ADC_UI.c ****     {
 363:Generated_Source\PSoC5/ADC_UI.c ****       status = ADC_UI_STATUS_REG;
 422              		.loc 1 363 0
 423 0000 0449     		ldr	r1, .L36
 424 0002 00E0     		b	.L32
 425              	.LVL29:
 426              	.L35:
 364:Generated_Source\PSoC5/ADC_UI.c ****     } while ((status == 0u) && (retMode == ADC_UI_WAIT_FOR_RESULT));
 427              		.loc 1 364 0 discriminator 1
 428 0004 20B9     		cbnz	r0, .L31
 429              	.LVL30:
 430              	.L32:
 363:Generated_Source\PSoC5/ADC_UI.c ****     } while ((status == 0u) && (retMode == ADC_UI_WAIT_FOR_RESULT));
 431              		.loc 1 363 0 discriminator 2
 432 0006 0B78     		ldrb	r3, [r1]	@ zero_extendqisi2
 433              	.LVL31:
 434              		.loc 1 364 0 discriminator 2
 435 0008 03F0FF02 		and	r2, r3, #255
 436 000c 002B     		cmp	r3, #0
 437 000e F9D0     		beq	.L35
 438              	.L31:
 365:Generated_Source\PSoC5/ADC_UI.c **** 
 366:Generated_Source\PSoC5/ADC_UI.c ****     return((uint32)status);
 367:Generated_Source\PSoC5/ADC_UI.c **** }
 439              		.loc 1 367 0
 440 0010 1046     		mov	r0, r2
 441              	.LVL32:
 442 0012 7047     		bx	lr
 443              	.L37:
 444              		.align	2
 445              	.L36:
 446 0014 6A650040 		.word	1073767786
 447              		.cfi_endproc
 448              	.LFE7:
 449              		.size	ADC_UI_IsEndConversion, .-ADC_UI_IsEndConversion
 450              		.section	.text.ADC_UI_GetResult16,"ax",%progbits
 451              		.align	2
 452              		.global	ADC_UI_GetResult16
 453              		.thumb
 454              		.thumb_func
 455              		.type	ADC_UI_GetResult16, %function
 456              	ADC_UI_GetResult16:
 457              	.LFB8:
 368:Generated_Source\PSoC5/ADC_UI.c **** 
 369:Generated_Source\PSoC5/ADC_UI.c **** 
 370:Generated_Source\PSoC5/ADC_UI.c **** /*******************************************************************************
 371:Generated_Source\PSoC5/ADC_UI.c **** * Function Name: ADC_UI_GetResult16
 372:Generated_Source\PSoC5/ADC_UI.c **** ********************************************************************************
 373:Generated_Source\PSoC5/ADC_UI.c **** *
 374:Generated_Source\PSoC5/ADC_UI.c **** * Summary:
 375:Generated_Source\PSoC5/ADC_UI.c **** *  Returns the ADC result for channel chan
 376:Generated_Source\PSoC5/ADC_UI.c **** *
 377:Generated_Source\PSoC5/ADC_UI.c **** * Parameters:
 378:Generated_Source\PSoC5/ADC_UI.c **** *  chan: The ADC channel in which to return the result. The first channel is 0 
 379:Generated_Source\PSoC5/ADC_UI.c **** *        and the last channel is the total number of channels - 1
ARM GAS  C:\Users\mgronber\AppData\Local\Temp\ccf2dyw1.s 			page 16


 380:Generated_Source\PSoC5/ADC_UI.c **** *
 381:Generated_Source\PSoC5/ADC_UI.c **** * Return:
 382:Generated_Source\PSoC5/ADC_UI.c **** *  Returns converted data as a signed 16-bit integer
 383:Generated_Source\PSoC5/ADC_UI.c **** *
 384:Generated_Source\PSoC5/ADC_UI.c **** * Side Effects:
 385:Generated_Source\PSoC5/ADC_UI.c **** *  Converts the ADC counts to the 2's complement form
 386:Generated_Source\PSoC5/ADC_UI.c **** *
 387:Generated_Source\PSoC5/ADC_UI.c **** * Reentrant:
 388:Generated_Source\PSoC5/ADC_UI.c **** *  No.
 389:Generated_Source\PSoC5/ADC_UI.c **** *
 390:Generated_Source\PSoC5/ADC_UI.c **** *******************************************************************************/
 391:Generated_Source\PSoC5/ADC_UI.c **** int16 ADC_UI_GetResult16(uint16 chan)
 392:Generated_Source\PSoC5/ADC_UI.c **** {
 458              		.loc 1 392 0
 459              		.cfi_startproc
 460              		@ args = 0, pretend = 0, frame = 0
 461              		@ frame_needed = 0, uses_anonymous_args = 0
 462              		@ link register save eliminated.
 463              	.LVL33:
 393:Generated_Source\PSoC5/ADC_UI.c ****     return (ADC_UI_finalArray[ADC_UI_GET_RESULT_INDEX_OFFSET - chan] - ADC_UI_SAR_shift);
 464              		.loc 1 393 0
 465 0000 044A     		ldr	r2, .L39
 466 0002 054B     		ldr	r3, .L39+4
 467 0004 C0F10300 		rsb	r0, r0, #3
 468              	.LVL34:
 469 0008 33F81030 		ldrh	r3, [r3, r0, lsl #1]
 470 000c 1088     		ldrh	r0, [r2]
 471 000e 181A     		subs	r0, r3, r0
 394:Generated_Source\PSoC5/ADC_UI.c **** }
 472              		.loc 1 394 0
 473 0010 00B2     		sxth	r0, r0
 474 0012 7047     		bx	lr
 475              	.L40:
 476              		.align	2
 477              	.L39:
 478 0014 00000000 		.word	ADC_UI_SAR_shift
 479 0018 00000000 		.word	ADC_UI_finalArray
 480              		.cfi_endproc
 481              	.LFE8:
 482              		.size	ADC_UI_GetResult16, .-ADC_UI_GetResult16
 483              		.section	.text.ADC_UI_GetAdcResult,"ax",%progbits
 484              		.align	2
 485              		.global	ADC_UI_GetAdcResult
 486              		.thumb
 487              		.thumb_func
 488              		.type	ADC_UI_GetAdcResult, %function
 489              	ADC_UI_GetAdcResult:
 490              	.LFB9:
 395:Generated_Source\PSoC5/ADC_UI.c **** 
 396:Generated_Source\PSoC5/ADC_UI.c **** 
 397:Generated_Source\PSoC5/ADC_UI.c **** /*******************************************************************************
 398:Generated_Source\PSoC5/ADC_UI.c **** * Function Name: ADC_UI_GetAdcResult
 399:Generated_Source\PSoC5/ADC_UI.c **** ********************************************************************************
 400:Generated_Source\PSoC5/ADC_UI.c **** *
 401:Generated_Source\PSoC5/ADC_UI.c **** * Summary:
 402:Generated_Source\PSoC5/ADC_UI.c **** *  Gets the data available in the SAR DATA register, not the results buffer
 403:Generated_Source\PSoC5/ADC_UI.c **** *
ARM GAS  C:\Users\mgronber\AppData\Local\Temp\ccf2dyw1.s 			page 17


 404:Generated_Source\PSoC5/ADC_UI.c **** * Parameters:
 405:Generated_Source\PSoC5/ADC_UI.c **** *  None.
 406:Generated_Source\PSoC5/ADC_UI.c **** *
 407:Generated_Source\PSoC5/ADC_UI.c **** * Return:
 408:Generated_Source\PSoC5/ADC_UI.c **** *  The last ADC conversion result
 409:Generated_Source\PSoC5/ADC_UI.c **** *
 410:Generated_Source\PSoC5/ADC_UI.c **** * Side Effects:
 411:Generated_Source\PSoC5/ADC_UI.c **** *  Converts the ADC counts to the 2's complement form
 412:Generated_Source\PSoC5/ADC_UI.c **** *
 413:Generated_Source\PSoC5/ADC_UI.c **** * Reentrant:
 414:Generated_Source\PSoC5/ADC_UI.c **** *  No.
 415:Generated_Source\PSoC5/ADC_UI.c **** *
 416:Generated_Source\PSoC5/ADC_UI.c **** *******************************************************************************/
 417:Generated_Source\PSoC5/ADC_UI.c **** int16 ADC_UI_GetAdcResult(void)
 418:Generated_Source\PSoC5/ADC_UI.c **** {
 491              		.loc 1 418 0
 492              		.cfi_startproc
 493              		@ args = 0, pretend = 0, frame = 0
 494              		@ frame_needed = 0, uses_anonymous_args = 0
 495              		@ link register save eliminated.
 419:Generated_Source\PSoC5/ADC_UI.c ****     return (ADC_UI_SAR_GetResult16());
 496              		.loc 1 419 0
 497 0000 FFF7FEBF 		b	ADC_UI_SAR_GetResult16
 498              	.LVL35:
 499              		.cfi_endproc
 500              	.LFE9:
 501              		.size	ADC_UI_GetAdcResult, .-ADC_UI_GetAdcResult
 502              		.section	.text.ADC_UI_SetOffset,"ax",%progbits
 503              		.align	2
 504              		.global	ADC_UI_SetOffset
 505              		.thumb
 506              		.thumb_func
 507              		.type	ADC_UI_SetOffset, %function
 508              	ADC_UI_SetOffset:
 509              	.LFB10:
 420:Generated_Source\PSoC5/ADC_UI.c **** }
 421:Generated_Source\PSoC5/ADC_UI.c **** 
 422:Generated_Source\PSoC5/ADC_UI.c **** 
 423:Generated_Source\PSoC5/ADC_UI.c **** /*******************************************************************************
 424:Generated_Source\PSoC5/ADC_UI.c **** * Function Name: ADC_UI_SetOffset
 425:Generated_Source\PSoC5/ADC_UI.c **** ********************************************************************************
 426:Generated_Source\PSoC5/ADC_UI.c **** *
 427:Generated_Source\PSoC5/ADC_UI.c **** * Summary:
 428:Generated_Source\PSoC5/ADC_UI.c **** *  Sets the ADC offset which is used by the functions _CountsTo_uVolts(),
 429:Generated_Source\PSoC5/ADC_UI.c **** *  _CountsTo_mVolts() and _CountsTo_Volts() to substract the offset from the
 430:Generated_Source\PSoC5/ADC_UI.c **** *  given reading before calculating the voltage conversion
 431:Generated_Source\PSoC5/ADC_UI.c **** *
 432:Generated_Source\PSoC5/ADC_UI.c **** * Parameters:
 433:Generated_Source\PSoC5/ADC_UI.c **** *  offset: This value is measured when the inputs are shorted or connected to
 434:Generated_Source\PSoC5/ADC_UI.c **** *  the same input voltage
 435:Generated_Source\PSoC5/ADC_UI.c **** *
 436:Generated_Source\PSoC5/ADC_UI.c **** * Return:
 437:Generated_Source\PSoC5/ADC_UI.c **** *  None.
 438:Generated_Source\PSoC5/ADC_UI.c **** *
 439:Generated_Source\PSoC5/ADC_UI.c **** * Side Effects:
 440:Generated_Source\PSoC5/ADC_UI.c **** *  Affects ADC_UI_CountsTo_Volts(), 
 441:Generated_Source\PSoC5/ADC_UI.c **** *  ADC_UI_CountsTo_mVolts(), and ADC_UI_CountsTo_uVolts() 
ARM GAS  C:\Users\mgronber\AppData\Local\Temp\ccf2dyw1.s 			page 18


 442:Generated_Source\PSoC5/ADC_UI.c **** *  by subtracting the given offset.
 443:Generated_Source\PSoC5/ADC_UI.c **** *
 444:Generated_Source\PSoC5/ADC_UI.c **** * Reentrant:
 445:Generated_Source\PSoC5/ADC_UI.c **** *  No.
 446:Generated_Source\PSoC5/ADC_UI.c **** *
 447:Generated_Source\PSoC5/ADC_UI.c **** *******************************************************************************/
 448:Generated_Source\PSoC5/ADC_UI.c **** void ADC_UI_SetOffset(int32 offset)
 449:Generated_Source\PSoC5/ADC_UI.c **** {
 510              		.loc 1 449 0
 511              		.cfi_startproc
 512              		@ args = 0, pretend = 0, frame = 0
 513              		@ frame_needed = 0, uses_anonymous_args = 0
 514              		@ link register save eliminated.
 515              	.LVL36:
 450:Generated_Source\PSoC5/ADC_UI.c ****     ADC_UI_SAR_SetOffset((int16)offset);
 516              		.loc 1 450 0
 517 0000 00B2     		sxth	r0, r0
 518              	.LVL37:
 519 0002 FFF7FEBF 		b	ADC_UI_SAR_SetOffset
 520              	.LVL38:
 521              		.cfi_endproc
 522              	.LFE10:
 523              		.size	ADC_UI_SetOffset, .-ADC_UI_SetOffset
 524 0006 00BF     		.section	.text.ADC_UI_SetResolution,"ax",%progbits
 525              		.align	2
 526              		.global	ADC_UI_SetResolution
 527              		.thumb
 528              		.thumb_func
 529              		.type	ADC_UI_SetResolution, %function
 530              	ADC_UI_SetResolution:
 531              	.LFB11:
 451:Generated_Source\PSoC5/ADC_UI.c **** }
 452:Generated_Source\PSoC5/ADC_UI.c **** 
 453:Generated_Source\PSoC5/ADC_UI.c **** 
 454:Generated_Source\PSoC5/ADC_UI.c **** /*******************************************************************************
 455:Generated_Source\PSoC5/ADC_UI.c **** * Function Name: ADC_UI_SetResolution
 456:Generated_Source\PSoC5/ADC_UI.c **** ********************************************************************************
 457:Generated_Source\PSoC5/ADC_UI.c **** *
 458:Generated_Source\PSoC5/ADC_UI.c **** * Summary:
 459:Generated_Source\PSoC5/ADC_UI.c **** *  Sets the Relution of the SAR.
 460:Generated_Source\PSoC5/ADC_UI.c **** *  This function does not affect the actual conversion with PSoC5 ES1 silicon.
 461:Generated_Source\PSoC5/ADC_UI.c **** *
 462:Generated_Source\PSoC5/ADC_UI.c **** * Parameters:
 463:Generated_Source\PSoC5/ADC_UI.c **** *  resolution:
 464:Generated_Source\PSoC5/ADC_UI.c **** *  12 ->    RES12
 465:Generated_Source\PSoC5/ADC_UI.c **** *  10 ->    RES10
 466:Generated_Source\PSoC5/ADC_UI.c **** *  8  ->    RES8
 467:Generated_Source\PSoC5/ADC_UI.c **** *
 468:Generated_Source\PSoC5/ADC_UI.c **** * Return:
 469:Generated_Source\PSoC5/ADC_UI.c **** *  None.
 470:Generated_Source\PSoC5/ADC_UI.c **** *
 471:Generated_Source\PSoC5/ADC_UI.c **** * Side Effects:
 472:Generated_Source\PSoC5/ADC_UI.c **** *  The ADC_SAR_Seq resolution cannot be changed during a conversion cycle. The
 473:Generated_Source\PSoC5/ADC_UI.c **** *  recommended best practice is to stop conversions with
 474:Generated_Source\PSoC5/ADC_UI.c **** *  ADC_UI_StopConvert(), change the resolution, then restart the
 475:Generated_Source\PSoC5/ADC_UI.c **** *  conversions with ADC_UI_StartConvert().
 476:Generated_Source\PSoC5/ADC_UI.c **** *  If you decide not to stop conversions before calling this API, you
ARM GAS  C:\Users\mgronber\AppData\Local\Temp\ccf2dyw1.s 			page 19


 477:Generated_Source\PSoC5/ADC_UI.c **** *  should use ADC_UI_IsEndConversion() to wait until conversion is 
 478:Generated_Source\PSoC5/ADC_UI.c **** *  complete  before changing the resolution.
 479:Generated_Source\PSoC5/ADC_UI.c **** *  If you call ADC_SetResolution() during a conversion, the resolution will
 480:Generated_Source\PSoC5/ADC_UI.c **** *  not be changed until the current conversion is complete. Data will not be
 481:Generated_Source\PSoC5/ADC_UI.c **** *  available in the new resolution for another 6 + "New Resolution(in bits)"
 482:Generated_Source\PSoC5/ADC_UI.c **** *  clock cycles.
 483:Generated_Source\PSoC5/ADC_UI.c **** *  You may need add a delay of this number of clock cycles after
 484:Generated_Source\PSoC5/ADC_UI.c **** *  ADC_UI_SetResolution() is called before data is valid again.
 485:Generated_Source\PSoC5/ADC_UI.c **** *  Affects ADC_UI_CountsTo_Volts(), ADC_UI_CountsTo_mVolts(), 
 486:Generated_Source\PSoC5/ADC_UI.c **** *  and ADC_UI_CountsTo_uVolts() by calculating the correct conversion 
 487:Generated_Source\PSoC5/ADC_UI.c **** *  between ADC counts and the applied input voltage. Calculation depends on 
 488:Generated_Source\PSoC5/ADC_UI.c **** *  resolution, input range, and voltage reference.
 489:Generated_Source\PSoC5/ADC_UI.c **** *
 490:Generated_Source\PSoC5/ADC_UI.c **** *******************************************************************************/
 491:Generated_Source\PSoC5/ADC_UI.c **** void ADC_UI_SetResolution(uint8 resolution)
 492:Generated_Source\PSoC5/ADC_UI.c **** {
 532              		.loc 1 492 0
 533              		.cfi_startproc
 534              		@ args = 0, pretend = 0, frame = 0
 535              		@ frame_needed = 0, uses_anonymous_args = 0
 536              		@ link register save eliminated.
 537              	.LVL39:
 493:Generated_Source\PSoC5/ADC_UI.c ****     ADC_UI_SAR_SetResolution(resolution);
 538              		.loc 1 493 0
 539 0000 FFF7FEBF 		b	ADC_UI_SAR_SetResolution
 540              	.LVL40:
 541              		.cfi_endproc
 542              	.LFE11:
 543              		.size	ADC_UI_SetResolution, .-ADC_UI_SetResolution
 544              		.section	.text.ADC_UI_SetGain,"ax",%progbits
 545              		.align	2
 546              		.global	ADC_UI_SetGain
 547              		.thumb
 548              		.thumb_func
 549              		.type	ADC_UI_SetGain, %function
 550              	ADC_UI_SetGain:
 551              	.LFB12:
 494:Generated_Source\PSoC5/ADC_UI.c **** }
 495:Generated_Source\PSoC5/ADC_UI.c **** 
 496:Generated_Source\PSoC5/ADC_UI.c **** 
 497:Generated_Source\PSoC5/ADC_UI.c **** /*******************************************************************************
 498:Generated_Source\PSoC5/ADC_UI.c **** * Function Name: ADC_UI_SetGain
 499:Generated_Source\PSoC5/ADC_UI.c **** ********************************************************************************
 500:Generated_Source\PSoC5/ADC_UI.c **** *
 501:Generated_Source\PSoC5/ADC_UI.c **** * Summary:
 502:Generated_Source\PSoC5/ADC_UI.c **** *  Sets the ADC gain in counts per volt for the voltage conversion
 503:Generated_Source\PSoC5/ADC_UI.c **** *
 504:Generated_Source\PSoC5/ADC_UI.c **** * Parameters:
 505:Generated_Source\PSoC5/ADC_UI.c **** *  adcGain: counts per volt
 506:Generated_Source\PSoC5/ADC_UI.c **** *
 507:Generated_Source\PSoC5/ADC_UI.c **** * Return:
 508:Generated_Source\PSoC5/ADC_UI.c **** *  None.
 509:Generated_Source\PSoC5/ADC_UI.c **** *
 510:Generated_Source\PSoC5/ADC_UI.c **** * Side Effects:
 511:Generated_Source\PSoC5/ADC_UI.c **** *  None.
 512:Generated_Source\PSoC5/ADC_UI.c **** *
 513:Generated_Source\PSoC5/ADC_UI.c **** * Reentrant:
ARM GAS  C:\Users\mgronber\AppData\Local\Temp\ccf2dyw1.s 			page 20


 514:Generated_Source\PSoC5/ADC_UI.c **** *  No.
 515:Generated_Source\PSoC5/ADC_UI.c **** *
 516:Generated_Source\PSoC5/ADC_UI.c **** *******************************************************************************/
 517:Generated_Source\PSoC5/ADC_UI.c **** void ADC_UI_SetGain(int32 adcGain)
 518:Generated_Source\PSoC5/ADC_UI.c **** {
 552              		.loc 1 518 0
 553              		.cfi_startproc
 554              		@ args = 0, pretend = 0, frame = 0
 555              		@ frame_needed = 0, uses_anonymous_args = 0
 556              		@ link register save eliminated.
 557              	.LVL41:
 519:Generated_Source\PSoC5/ADC_UI.c ****     ADC_UI_SAR_SetGain((int16)adcGain);
 558              		.loc 1 519 0
 559 0000 00B2     		sxth	r0, r0
 560              	.LVL42:
 561 0002 FFF7FEBF 		b	ADC_UI_SAR_SetGain
 562              	.LVL43:
 563              		.cfi_endproc
 564              	.LFE12:
 565              		.size	ADC_UI_SetGain, .-ADC_UI_SetGain
 566 0006 00BF     		.section	.text.ADC_UI_SetScaledGain,"ax",%progbits
 567              		.align	2
 568              		.global	ADC_UI_SetScaledGain
 569              		.thumb
 570              		.thumb_func
 571              		.type	ADC_UI_SetScaledGain, %function
 572              	ADC_UI_SetScaledGain:
 573              	.LFB13:
 520:Generated_Source\PSoC5/ADC_UI.c **** }
 521:Generated_Source\PSoC5/ADC_UI.c **** 
 522:Generated_Source\PSoC5/ADC_UI.c **** 
 523:Generated_Source\PSoC5/ADC_UI.c **** /*******************************************************************************
 524:Generated_Source\PSoC5/ADC_UI.c **** * Function Name: ADC_UI_SetScaledGain
 525:Generated_Source\PSoC5/ADC_UI.c **** ********************************************************************************
 526:Generated_Source\PSoC5/ADC_UI.c **** *
 527:Generated_Source\PSoC5/ADC_UI.c **** * Summary:
 528:Generated_Source\PSoC5/ADC_UI.c **** *  Sets the ADC gain in counts per 10 volts for the voltage conversion functions
 529:Generated_Source\PSoC5/ADC_UI.c **** *  that follow. This value is set by default by the reference and input range
 530:Generated_Source\PSoC5/ADC_UI.c **** *  settings. It should only be used to further calibrate the ADC with a known
 531:Generated_Source\PSoC5/ADC_UI.c **** *  input or if the ADC is using an external reference.
 532:Generated_Source\PSoC5/ADC_UI.c **** *
 533:Generated_Source\PSoC5/ADC_UI.c **** * Parameters:
 534:Generated_Source\PSoC5/ADC_UI.c **** *  int32  adcGain  counts per 10 volt
 535:Generated_Source\PSoC5/ADC_UI.c **** *
 536:Generated_Source\PSoC5/ADC_UI.c **** * Return:
 537:Generated_Source\PSoC5/ADC_UI.c **** *  None.
 538:Generated_Source\PSoC5/ADC_UI.c **** *
 539:Generated_Source\PSoC5/ADC_UI.c **** * Side Effects:
 540:Generated_Source\PSoC5/ADC_UI.c **** *  Affects ADC_UI_CountsTo_Volts(), ADC_UI_CountsTo_mVolts(),
 541:Generated_Source\PSoC5/ADC_UI.c **** *  ADC_UI_CountsTo_uVolts() by supplying the correct conversion 
 542:Generated_Source\PSoC5/ADC_UI.c **** *  between ADC counts and the applied input voltage
 543:Generated_Source\PSoC5/ADC_UI.c **** *
 544:Generated_Source\PSoC5/ADC_UI.c **** * Reentrant:
 545:Generated_Source\PSoC5/ADC_UI.c **** *  No.
 546:Generated_Source\PSoC5/ADC_UI.c **** *
 547:Generated_Source\PSoC5/ADC_UI.c **** *******************************************************************************/
 548:Generated_Source\PSoC5/ADC_UI.c **** void ADC_UI_SetScaledGain(int32 adcGain)
ARM GAS  C:\Users\mgronber\AppData\Local\Temp\ccf2dyw1.s 			page 21


 549:Generated_Source\PSoC5/ADC_UI.c **** {
 574              		.loc 1 549 0
 575              		.cfi_startproc
 576              		@ args = 0, pretend = 0, frame = 0
 577              		@ frame_needed = 0, uses_anonymous_args = 0
 578              		@ link register save eliminated.
 579              	.LVL44:
 550:Generated_Source\PSoC5/ADC_UI.c ****     ADC_UI_SAR_SetScaledGain(adcGain);
 580              		.loc 1 550 0
 581 0000 FFF7FEBF 		b	ADC_UI_SAR_SetScaledGain
 582              	.LVL45:
 583              		.cfi_endproc
 584              	.LFE13:
 585              		.size	ADC_UI_SetScaledGain, .-ADC_UI_SetScaledGain
 586              		.section	.text.ADC_UI_CountsTo_mVolts,"ax",%progbits
 587              		.align	2
 588              		.global	ADC_UI_CountsTo_mVolts
 589              		.thumb
 590              		.thumb_func
 591              		.type	ADC_UI_CountsTo_mVolts, %function
 592              	ADC_UI_CountsTo_mVolts:
 593              	.LFB14:
 551:Generated_Source\PSoC5/ADC_UI.c **** }
 552:Generated_Source\PSoC5/ADC_UI.c **** 
 553:Generated_Source\PSoC5/ADC_UI.c **** 
 554:Generated_Source\PSoC5/ADC_UI.c **** /*******************************************************************************
 555:Generated_Source\PSoC5/ADC_UI.c **** * Function Name: ADC_UI_CountsTo_mVolts
 556:Generated_Source\PSoC5/ADC_UI.c **** ********************************************************************************
 557:Generated_Source\PSoC5/ADC_UI.c **** *
 558:Generated_Source\PSoC5/ADC_UI.c **** * Summary:
 559:Generated_Source\PSoC5/ADC_UI.c **** *  Converts the ADC output to mVolts as a 32-bit integer
 560:Generated_Source\PSoC5/ADC_UI.c **** *
 561:Generated_Source\PSoC5/ADC_UI.c **** * Parameters:
 562:Generated_Source\PSoC5/ADC_UI.c **** *  adcCounts: Result from the ADC_SAR_Seq conversion
 563:Generated_Source\PSoC5/ADC_UI.c **** *
 564:Generated_Source\PSoC5/ADC_UI.c **** * Return:
 565:Generated_Source\PSoC5/ADC_UI.c **** *  Result in mV
 566:Generated_Source\PSoC5/ADC_UI.c **** *
 567:Generated_Source\PSoC5/ADC_UI.c **** * Side Effects:
 568:Generated_Source\PSoC5/ADC_UI.c **** *  None.
 569:Generated_Source\PSoC5/ADC_UI.c **** *
 570:Generated_Source\PSoC5/ADC_UI.c **** * Reentrant:
 571:Generated_Source\PSoC5/ADC_UI.c **** *  No.
 572:Generated_Source\PSoC5/ADC_UI.c **** *
 573:Generated_Source\PSoC5/ADC_UI.c **** *******************************************************************************/
 574:Generated_Source\PSoC5/ADC_UI.c **** int32 ADC_UI_CountsTo_mVolts(int16 adcCounts)
 575:Generated_Source\PSoC5/ADC_UI.c **** {
 594              		.loc 1 575 0
 595              		.cfi_startproc
 596              		@ args = 0, pretend = 0, frame = 0
 597              		@ frame_needed = 0, uses_anonymous_args = 0
 598              	.LVL46:
 599 0000 08B5     		push	{r3, lr}
 600              		.cfi_def_cfa_offset 8
 601              		.cfi_offset 3, -8
 602              		.cfi_offset 14, -4
 576:Generated_Source\PSoC5/ADC_UI.c ****     return ((int32) ADC_UI_SAR_CountsTo_mVolts(adcCounts));
ARM GAS  C:\Users\mgronber\AppData\Local\Temp\ccf2dyw1.s 			page 22


 603              		.loc 1 576 0
 604 0002 FFF7FEFF 		bl	ADC_UI_SAR_CountsTo_mVolts
 605              	.LVL47:
 577:Generated_Source\PSoC5/ADC_UI.c **** }
 606              		.loc 1 577 0
 607 0006 08BD     		pop	{r3, pc}
 608              		.cfi_endproc
 609              	.LFE14:
 610              		.size	ADC_UI_CountsTo_mVolts, .-ADC_UI_CountsTo_mVolts
 611              		.section	.text.ADC_UI_CountsTo_uVolts,"ax",%progbits
 612              		.align	2
 613              		.global	ADC_UI_CountsTo_uVolts
 614              		.thumb
 615              		.thumb_func
 616              		.type	ADC_UI_CountsTo_uVolts, %function
 617              	ADC_UI_CountsTo_uVolts:
 618              	.LFB15:
 578:Generated_Source\PSoC5/ADC_UI.c **** 
 579:Generated_Source\PSoC5/ADC_UI.c **** 
 580:Generated_Source\PSoC5/ADC_UI.c **** /*******************************************************************************
 581:Generated_Source\PSoC5/ADC_UI.c **** * Function Name: ADC_UI_CountsTo_uVolts
 582:Generated_Source\PSoC5/ADC_UI.c **** ********************************************************************************
 583:Generated_Source\PSoC5/ADC_UI.c **** *
 584:Generated_Source\PSoC5/ADC_UI.c **** * Summary:
 585:Generated_Source\PSoC5/ADC_UI.c **** *  Converts the ADC output to uVolts as a 32-bit integer
 586:Generated_Source\PSoC5/ADC_UI.c **** *
 587:Generated_Source\PSoC5/ADC_UI.c **** * Parameters:
 588:Generated_Source\PSoC5/ADC_UI.c **** *  adcCounts: Result from the ADC conversion
 589:Generated_Source\PSoC5/ADC_UI.c **** *
 590:Generated_Source\PSoC5/ADC_UI.c **** * Return:
 591:Generated_Source\PSoC5/ADC_UI.c **** *  Result in uV
 592:Generated_Source\PSoC5/ADC_UI.c **** *
 593:Generated_Source\PSoC5/ADC_UI.c **** * Side Effects:
 594:Generated_Source\PSoC5/ADC_UI.c **** *  None.
 595:Generated_Source\PSoC5/ADC_UI.c **** *
 596:Generated_Source\PSoC5/ADC_UI.c **** * Reentrant:
 597:Generated_Source\PSoC5/ADC_UI.c **** *  No.
 598:Generated_Source\PSoC5/ADC_UI.c **** *
 599:Generated_Source\PSoC5/ADC_UI.c **** *******************************************************************************/
 600:Generated_Source\PSoC5/ADC_UI.c **** int32 ADC_UI_CountsTo_uVolts(int16 adcCounts)
 601:Generated_Source\PSoC5/ADC_UI.c **** {
 619              		.loc 1 601 0
 620              		.cfi_startproc
 621              		@ args = 0, pretend = 0, frame = 0
 622              		@ frame_needed = 0, uses_anonymous_args = 0
 623              		@ link register save eliminated.
 624              	.LVL48:
 602:Generated_Source\PSoC5/ADC_UI.c ****     return (ADC_UI_SAR_CountsTo_uVolts(adcCounts));
 625              		.loc 1 602 0
 626 0000 FFF7FEBF 		b	ADC_UI_SAR_CountsTo_uVolts
 627              	.LVL49:
 628              		.cfi_endproc
 629              	.LFE15:
 630              		.size	ADC_UI_CountsTo_uVolts, .-ADC_UI_CountsTo_uVolts
 631              		.section	.text.ADC_UI_CountsTo_Volts,"ax",%progbits
 632              		.align	2
 633              		.global	ADC_UI_CountsTo_Volts
ARM GAS  C:\Users\mgronber\AppData\Local\Temp\ccf2dyw1.s 			page 23


 634              		.thumb
 635              		.thumb_func
 636              		.type	ADC_UI_CountsTo_Volts, %function
 637              	ADC_UI_CountsTo_Volts:
 638              	.LFB16:
 603:Generated_Source\PSoC5/ADC_UI.c **** }
 604:Generated_Source\PSoC5/ADC_UI.c **** 
 605:Generated_Source\PSoC5/ADC_UI.c **** 
 606:Generated_Source\PSoC5/ADC_UI.c **** /*******************************************************************************
 607:Generated_Source\PSoC5/ADC_UI.c **** * Function Name: ADC_UI_CountsTo_Volts
 608:Generated_Source\PSoC5/ADC_UI.c **** ********************************************************************************
 609:Generated_Source\PSoC5/ADC_UI.c **** *
 610:Generated_Source\PSoC5/ADC_UI.c **** * Summary:
 611:Generated_Source\PSoC5/ADC_UI.c **** *  Converts the ADC output to Volts as a floating point number
 612:Generated_Source\PSoC5/ADC_UI.c **** *
 613:Generated_Source\PSoC5/ADC_UI.c **** * Parameters:
 614:Generated_Source\PSoC5/ADC_UI.c **** *  adcCounts: Result from the ADC_SAR_Seq conversion
 615:Generated_Source\PSoC5/ADC_UI.c **** *
 616:Generated_Source\PSoC5/ADC_UI.c **** * Return:
 617:Generated_Source\PSoC5/ADC_UI.c **** *  Result in volts
 618:Generated_Source\PSoC5/ADC_UI.c **** *
 619:Generated_Source\PSoC5/ADC_UI.c **** * Side Effects:
 620:Generated_Source\PSoC5/ADC_UI.c **** *  None.
 621:Generated_Source\PSoC5/ADC_UI.c **** *
 622:Generated_Source\PSoC5/ADC_UI.c **** * Reentrant:
 623:Generated_Source\PSoC5/ADC_UI.c **** *  No.
 624:Generated_Source\PSoC5/ADC_UI.c **** *
 625:Generated_Source\PSoC5/ADC_UI.c **** *******************************************************************************/
 626:Generated_Source\PSoC5/ADC_UI.c **** float32 ADC_UI_CountsTo_Volts(int16 adcCounts)
 627:Generated_Source\PSoC5/ADC_UI.c **** {
 639              		.loc 1 627 0
 640              		.cfi_startproc
 641              		@ args = 0, pretend = 0, frame = 0
 642              		@ frame_needed = 0, uses_anonymous_args = 0
 643              		@ link register save eliminated.
 644              	.LVL50:
 628:Generated_Source\PSoC5/ADC_UI.c ****     return (ADC_UI_SAR_CountsTo_Volts(adcCounts));
 645              		.loc 1 628 0
 646 0000 FFF7FEBF 		b	ADC_UI_SAR_CountsTo_Volts
 647              	.LVL51:
 648              		.cfi_endproc
 649              	.LFE16:
 650              		.size	ADC_UI_CountsTo_Volts, .-ADC_UI_CountsTo_Volts
 651              		.global	ADC_UI_initVar
 652              		.comm	ADC_UI_finalArray,8,4
 653              		.data
 654              		.set	.LANCHOR1,. + 0
 655              		.type	ADC_UI_tempTD, %object
 656              		.size	ADC_UI_tempTD, 1
 657              	ADC_UI_tempTD:
 658 0000 FF       		.byte	-1
 659              		.type	ADC_UI_finalTD, %object
 660              		.size	ADC_UI_finalTD, 1
 661              	ADC_UI_finalTD:
 662 0001 FF       		.byte	-1
 663              		.bss
 664              		.align	2
ARM GAS  C:\Users\mgronber\AppData\Local\Temp\ccf2dyw1.s 			page 24


 665              		.set	.LANCHOR0,. + 0
 666              		.type	ADC_UI_tempChan, %object
 667              		.size	ADC_UI_tempChan, 1
 668              	ADC_UI_tempChan:
 669 0000 00       		.space	1
 670              		.type	ADC_UI_finalChan, %object
 671              		.size	ADC_UI_finalChan, 1
 672              	ADC_UI_finalChan:
 673 0001 00       		.space	1
 674 0002 0000     		.space	2
 675              		.type	ADC_UI_tempArray.5002, %object
 676              		.size	ADC_UI_tempArray.5002, 8
 677              	ADC_UI_tempArray.5002:
 678 0004 00000000 		.space	8
 678      00000000 
 679              		.type	ADC_UI_initVar, %object
 680              		.size	ADC_UI_initVar, 4
 681              	ADC_UI_initVar:
 682 000c 00000000 		.space	4
 683              		.text
 684              	.Letext0:
 685              		.file 2 "Generated_Source\\PSoC5\\cytypes.h"
 686              		.file 3 "Generated_Source\\PSoC5\\ADC_UI_SAR.h"
 687              		.file 4 "Generated_Source\\PSoC5/CYDMAC.H"
 688              		.file 5 "Generated_Source\\PSoC5\\ADC_UI_TempBuf_dma.h"
 689              		.file 6 "Generated_Source\\PSoC5\\ADC_UI_FinalBuf_dma.h"
 690              		.file 7 "Generated_Source\\PSoC5\\ADC_UI_IRQ.h"
 691              		.file 8 "Generated_Source\\PSoC5\\CyLib.h"