ARM GAS  C:\Users\mgronber\AppData\Local\Temp\cc4wjjXu.s 			page 1


   1              		.syntax unified
   2              		.cpu cortex-m3
   3              		.fpu softvfp
   4              		.eabi_attribute 20, 1
   5              		.eabi_attribute 21, 1
   6              		.eabi_attribute 23, 3
   7              		.eabi_attribute 24, 1
   8              		.eabi_attribute 25, 1
   9              		.eabi_attribute 26, 1
  10              		.eabi_attribute 30, 2
  11              		.eabi_attribute 34, 1
  12              		.eabi_attribute 18, 4
  13              		.thumb
  14              		.file	"ADC_MIC.c"
  15              		.text
  16              	.Ltext0:
  17              		.cfi_sections	.debug_frame
  18              		.section	.text.ADC_MIC_Enable,"ax",%progbits
  19              		.align	2
  20              		.global	ADC_MIC_Enable
  21              		.thumb
  22              		.thumb_func
  23              		.type	ADC_MIC_Enable, %function
  24              	ADC_MIC_Enable:
  25              	.LFB2:
  26              		.file 1 "Generated_Source\\PSoC5\\ADC_MIC.c"
   1:Generated_Source\PSoC5/ADC_MIC.c **** /*******************************************************************************
   2:Generated_Source\PSoC5/ADC_MIC.c **** * File Name: ADC_MIC.c
   3:Generated_Source\PSoC5/ADC_MIC.c **** * Version 3.0
   4:Generated_Source\PSoC5/ADC_MIC.c **** *
   5:Generated_Source\PSoC5/ADC_MIC.c **** * Description:
   6:Generated_Source\PSoC5/ADC_MIC.c **** *  This file provides the source code to the API for the Successive
   7:Generated_Source\PSoC5/ADC_MIC.c **** *  approximation ADC Component.
   8:Generated_Source\PSoC5/ADC_MIC.c **** *
   9:Generated_Source\PSoC5/ADC_MIC.c **** * Note:
  10:Generated_Source\PSoC5/ADC_MIC.c **** *
  11:Generated_Source\PSoC5/ADC_MIC.c **** ********************************************************************************
  12:Generated_Source\PSoC5/ADC_MIC.c **** * Copyright 2008-2015, Cypress Semiconductor Corporation.  All rights reserved.
  13:Generated_Source\PSoC5/ADC_MIC.c **** * You may use this file only in accordance with the license, terms, conditions,
  14:Generated_Source\PSoC5/ADC_MIC.c **** * disclaimers, and limitations in the end user license agreement accompanying
  15:Generated_Source\PSoC5/ADC_MIC.c **** * the software package with which this file was provided.
  16:Generated_Source\PSoC5/ADC_MIC.c **** *******************************************************************************/
  17:Generated_Source\PSoC5/ADC_MIC.c **** 
  18:Generated_Source\PSoC5/ADC_MIC.c **** #include "CyLib.h"
  19:Generated_Source\PSoC5/ADC_MIC.c **** #include "ADC_MIC.h"
  20:Generated_Source\PSoC5/ADC_MIC.c **** 
  21:Generated_Source\PSoC5/ADC_MIC.c **** #if(ADC_MIC_DEFAULT_INTERNAL_CLK)
  22:Generated_Source\PSoC5/ADC_MIC.c ****     #include "ADC_MIC_theACLK.h"
  23:Generated_Source\PSoC5/ADC_MIC.c **** #endif /* End ADC_MIC_DEFAULT_INTERNAL_CLK */
  24:Generated_Source\PSoC5/ADC_MIC.c **** 
  25:Generated_Source\PSoC5/ADC_MIC.c **** 
  26:Generated_Source\PSoC5/ADC_MIC.c **** /***************************************
  27:Generated_Source\PSoC5/ADC_MIC.c **** * Forward function references
  28:Generated_Source\PSoC5/ADC_MIC.c **** ***************************************/
  29:Generated_Source\PSoC5/ADC_MIC.c **** static void ADC_MIC_CalcGain(uint8 resolution);
  30:Generated_Source\PSoC5/ADC_MIC.c **** 
  31:Generated_Source\PSoC5/ADC_MIC.c **** 
ARM GAS  C:\Users\mgronber\AppData\Local\Temp\cc4wjjXu.s 			page 2


  32:Generated_Source\PSoC5/ADC_MIC.c **** /***************************************
  33:Generated_Source\PSoC5/ADC_MIC.c **** * Global data allocation
  34:Generated_Source\PSoC5/ADC_MIC.c **** ***************************************/
  35:Generated_Source\PSoC5/ADC_MIC.c **** uint8 ADC_MIC_initVar = 0u;
  36:Generated_Source\PSoC5/ADC_MIC.c **** volatile int16 ADC_MIC_offset;
  37:Generated_Source\PSoC5/ADC_MIC.c **** volatile int16 ADC_MIC_countsPerVolt;     /* Obsolete Gain compensation */
  38:Generated_Source\PSoC5/ADC_MIC.c **** volatile int32 ADC_MIC_countsPer10Volt;   /* Gain compensation */
  39:Generated_Source\PSoC5/ADC_MIC.c **** volatile int16 ADC_MIC_shift;
  40:Generated_Source\PSoC5/ADC_MIC.c **** 
  41:Generated_Source\PSoC5/ADC_MIC.c **** 
  42:Generated_Source\PSoC5/ADC_MIC.c **** /*******************************************************************************
  43:Generated_Source\PSoC5/ADC_MIC.c **** * Function Name: ADC_MIC_Start
  44:Generated_Source\PSoC5/ADC_MIC.c **** ********************************************************************************
  45:Generated_Source\PSoC5/ADC_MIC.c **** *
  46:Generated_Source\PSoC5/ADC_MIC.c **** * Summary:
  47:Generated_Source\PSoC5/ADC_MIC.c **** *  This is the preferred method to begin component operation.
  48:Generated_Source\PSoC5/ADC_MIC.c **** *  ADC_MIC_Start() sets the initVar variable, calls the
  49:Generated_Source\PSoC5/ADC_MIC.c **** *  ADC_MIC_Init() function, and then calls the
  50:Generated_Source\PSoC5/ADC_MIC.c **** *  ADC_MIC_Enable() function.
  51:Generated_Source\PSoC5/ADC_MIC.c **** *
  52:Generated_Source\PSoC5/ADC_MIC.c **** * Parameters:
  53:Generated_Source\PSoC5/ADC_MIC.c **** *  None.
  54:Generated_Source\PSoC5/ADC_MIC.c **** *
  55:Generated_Source\PSoC5/ADC_MIC.c **** * Return:
  56:Generated_Source\PSoC5/ADC_MIC.c **** *  None.
  57:Generated_Source\PSoC5/ADC_MIC.c **** *
  58:Generated_Source\PSoC5/ADC_MIC.c **** * Global variables:
  59:Generated_Source\PSoC5/ADC_MIC.c **** *  The ADC_MIC_initVar variable is used to indicate when/if initial
  60:Generated_Source\PSoC5/ADC_MIC.c **** *  configuration of this component has happened. The variable is initialized to
  61:Generated_Source\PSoC5/ADC_MIC.c **** *  zero and set to 1 the first time ADC_Start() is called. This allows for
  62:Generated_Source\PSoC5/ADC_MIC.c **** *  component Re-Start without re-initialization in all subsequent calls to the
  63:Generated_Source\PSoC5/ADC_MIC.c **** *  ADC_MIC_Start() routine.
  64:Generated_Source\PSoC5/ADC_MIC.c **** *  If re-initialization of the component is required the variable should be set
  65:Generated_Source\PSoC5/ADC_MIC.c **** *  to zero before call of ADC_MIC_Start() routine, or the user may call
  66:Generated_Source\PSoC5/ADC_MIC.c **** *  ADC_MIC_Init() and ADC_MIC_Enable() as done in the
  67:Generated_Source\PSoC5/ADC_MIC.c **** *  ADC_MIC_Start() routine.
  68:Generated_Source\PSoC5/ADC_MIC.c **** *
  69:Generated_Source\PSoC5/ADC_MIC.c **** * Side Effect:
  70:Generated_Source\PSoC5/ADC_MIC.c **** *  If the initVar variable is already set, this function only calls the
  71:Generated_Source\PSoC5/ADC_MIC.c **** *  ADC_MIC_Enable() function.
  72:Generated_Source\PSoC5/ADC_MIC.c **** *
  73:Generated_Source\PSoC5/ADC_MIC.c **** *******************************************************************************/
  74:Generated_Source\PSoC5/ADC_MIC.c **** void ADC_MIC_Start(void)
  75:Generated_Source\PSoC5/ADC_MIC.c **** {
  76:Generated_Source\PSoC5/ADC_MIC.c **** 
  77:Generated_Source\PSoC5/ADC_MIC.c ****     /* If not Initialized then initialize all required hardware and software */
  78:Generated_Source\PSoC5/ADC_MIC.c ****     if(ADC_MIC_initVar == 0u)
  79:Generated_Source\PSoC5/ADC_MIC.c ****     {
  80:Generated_Source\PSoC5/ADC_MIC.c ****         ADC_MIC_Init();
  81:Generated_Source\PSoC5/ADC_MIC.c ****         ADC_MIC_initVar = 1u;
  82:Generated_Source\PSoC5/ADC_MIC.c ****     }
  83:Generated_Source\PSoC5/ADC_MIC.c ****     ADC_MIC_Enable();
  84:Generated_Source\PSoC5/ADC_MIC.c **** }
  85:Generated_Source\PSoC5/ADC_MIC.c **** 
  86:Generated_Source\PSoC5/ADC_MIC.c **** 
  87:Generated_Source\PSoC5/ADC_MIC.c **** /*******************************************************************************
  88:Generated_Source\PSoC5/ADC_MIC.c **** * Function Name: ADC_MIC_Init
ARM GAS  C:\Users\mgronber\AppData\Local\Temp\cc4wjjXu.s 			page 3


  89:Generated_Source\PSoC5/ADC_MIC.c **** ********************************************************************************
  90:Generated_Source\PSoC5/ADC_MIC.c **** *
  91:Generated_Source\PSoC5/ADC_MIC.c **** * Summary:
  92:Generated_Source\PSoC5/ADC_MIC.c **** *  Initialize component's parameters to the parameters set by user in the
  93:Generated_Source\PSoC5/ADC_MIC.c **** *  customizer of the component placed onto schematic. Usually called in
  94:Generated_Source\PSoC5/ADC_MIC.c **** *  ADC_MIC_Start().
  95:Generated_Source\PSoC5/ADC_MIC.c **** *
  96:Generated_Source\PSoC5/ADC_MIC.c **** * Parameters:
  97:Generated_Source\PSoC5/ADC_MIC.c **** *  None.
  98:Generated_Source\PSoC5/ADC_MIC.c **** *
  99:Generated_Source\PSoC5/ADC_MIC.c **** * Return:
 100:Generated_Source\PSoC5/ADC_MIC.c **** *  None.
 101:Generated_Source\PSoC5/ADC_MIC.c **** *
 102:Generated_Source\PSoC5/ADC_MIC.c **** * Global variables:
 103:Generated_Source\PSoC5/ADC_MIC.c **** *  The ADC_MIC_offset variable is initialized to 0.
 104:Generated_Source\PSoC5/ADC_MIC.c **** *
 105:Generated_Source\PSoC5/ADC_MIC.c **** *******************************************************************************/
 106:Generated_Source\PSoC5/ADC_MIC.c **** void ADC_MIC_Init(void)
 107:Generated_Source\PSoC5/ADC_MIC.c **** {
 108:Generated_Source\PSoC5/ADC_MIC.c **** 
 109:Generated_Source\PSoC5/ADC_MIC.c ****     /* This is only valid if there is an internal clock */
 110:Generated_Source\PSoC5/ADC_MIC.c ****     #if(ADC_MIC_DEFAULT_INTERNAL_CLK)
 111:Generated_Source\PSoC5/ADC_MIC.c ****         ADC_MIC_theACLK_SetMode(CYCLK_DUTY);
 112:Generated_Source\PSoC5/ADC_MIC.c ****     #endif /* End ADC_MIC_DEFAULT_INTERNAL_CLK */
 113:Generated_Source\PSoC5/ADC_MIC.c **** 
 114:Generated_Source\PSoC5/ADC_MIC.c ****     #if(ADC_MIC_IRQ_REMOVE == 0u)
 115:Generated_Source\PSoC5/ADC_MIC.c ****         /* Start and set interrupt vector */
 116:Generated_Source\PSoC5/ADC_MIC.c ****         CyIntSetPriority(ADC_MIC_INTC_NUMBER, ADC_MIC_INTC_PRIOR_NUMBER);
 117:Generated_Source\PSoC5/ADC_MIC.c ****         (void)CyIntSetVector(ADC_MIC_INTC_NUMBER, &ADC_MIC_ISR);
 118:Generated_Source\PSoC5/ADC_MIC.c ****     #endif   /* End ADC_MIC_IRQ_REMOVE */
 119:Generated_Source\PSoC5/ADC_MIC.c **** 
 120:Generated_Source\PSoC5/ADC_MIC.c ****     /* Enable IRQ mode*/
 121:Generated_Source\PSoC5/ADC_MIC.c ****     ADC_MIC_SAR_CSR1_REG |= ADC_MIC_SAR_IRQ_MASK_EN | ADC_MIC_SAR_IRQ_MODE_EDGE;
 122:Generated_Source\PSoC5/ADC_MIC.c **** 
 123:Generated_Source\PSoC5/ADC_MIC.c ****     /*Set SAR ADC resolution ADC */
 124:Generated_Source\PSoC5/ADC_MIC.c ****     ADC_MIC_SetResolution(ADC_MIC_DEFAULT_RESOLUTION);
 125:Generated_Source\PSoC5/ADC_MIC.c ****     ADC_MIC_offset = 0;
 126:Generated_Source\PSoC5/ADC_MIC.c **** }
 127:Generated_Source\PSoC5/ADC_MIC.c **** 
 128:Generated_Source\PSoC5/ADC_MIC.c **** 
 129:Generated_Source\PSoC5/ADC_MIC.c **** /*******************************************************************************
 130:Generated_Source\PSoC5/ADC_MIC.c **** * Function Name: ADC_MIC_Enable
 131:Generated_Source\PSoC5/ADC_MIC.c **** ********************************************************************************
 132:Generated_Source\PSoC5/ADC_MIC.c **** *
 133:Generated_Source\PSoC5/ADC_MIC.c **** * Summary:
 134:Generated_Source\PSoC5/ADC_MIC.c **** *  Enables the reference, clock and power for SAR ADC.
 135:Generated_Source\PSoC5/ADC_MIC.c **** *
 136:Generated_Source\PSoC5/ADC_MIC.c **** * Parameters:
 137:Generated_Source\PSoC5/ADC_MIC.c **** *  None.
 138:Generated_Source\PSoC5/ADC_MIC.c **** *
 139:Generated_Source\PSoC5/ADC_MIC.c **** * Return:
 140:Generated_Source\PSoC5/ADC_MIC.c **** *  None.
 141:Generated_Source\PSoC5/ADC_MIC.c **** *
 142:Generated_Source\PSoC5/ADC_MIC.c **** *******************************************************************************/
 143:Generated_Source\PSoC5/ADC_MIC.c **** void ADC_MIC_Enable(void)
 144:Generated_Source\PSoC5/ADC_MIC.c **** {
  27              		.loc 1 144 0
ARM GAS  C:\Users\mgronber\AppData\Local\Temp\cc4wjjXu.s 			page 4


  28              		.cfi_startproc
  29              		@ args = 0, pretend = 0, frame = 0
  30              		@ frame_needed = 0, uses_anonymous_args = 0
  31 0000 F8B5     		push	{r3, r4, r5, r6, r7, lr}
  32              		.cfi_def_cfa_offset 24
  33              		.cfi_offset 3, -24
  34              		.cfi_offset 4, -20
  35              		.cfi_offset 5, -16
  36              		.cfi_offset 6, -12
  37              		.cfi_offset 7, -8
  38              		.cfi_offset 14, -4
 145:Generated_Source\PSoC5/ADC_MIC.c ****     uint8 tmpReg;
 146:Generated_Source\PSoC5/ADC_MIC.c ****     uint8 enableInterrupts;
 147:Generated_Source\PSoC5/ADC_MIC.c ****     enableInterrupts = CyEnterCriticalSection();
  39              		.loc 1 147 0
  40 0002 FFF7FEFF 		bl	CyEnterCriticalSection
  41              	.LVL0:
 148:Generated_Source\PSoC5/ADC_MIC.c **** 
 149:Generated_Source\PSoC5/ADC_MIC.c ****     /* Enable the SAR ADC block in Active Power Mode */
 150:Generated_Source\PSoC5/ADC_MIC.c ****     ADC_MIC_PWRMGR_SAR_REG |= ADC_MIC_ACT_PWR_SAR_EN;
  42              		.loc 1 150 0
  43 0006 214A     		ldr	r2, .L3
 147:Generated_Source\PSoC5/ADC_MIC.c **** 
  44              		.loc 1 147 0
  45 0008 0446     		mov	r4, r0
  46              	.LVL1:
  47              		.loc 1 150 0
  48 000a 1378     		ldrb	r3, [r2]	@ zero_extendqisi2
 151:Generated_Source\PSoC5/ADC_MIC.c **** 
 152:Generated_Source\PSoC5/ADC_MIC.c ****      /* Enable the SAR ADC in Standby Power Mode*/
 153:Generated_Source\PSoC5/ADC_MIC.c ****     ADC_MIC_STBY_PWRMGR_SAR_REG |= ADC_MIC_STBY_PWR_SAR_EN;
  49              		.loc 1 153 0
  50 000c 2049     		ldr	r1, .L3+4
 150:Generated_Source\PSoC5/ADC_MIC.c **** 
  51              		.loc 1 150 0
  52 000e 43F00103 		orr	r3, r3, #1
  53 0012 1370     		strb	r3, [r2]
  54              		.loc 1 153 0
  55 0014 0B78     		ldrb	r3, [r1]	@ zero_extendqisi2
 154:Generated_Source\PSoC5/ADC_MIC.c **** 
 155:Generated_Source\PSoC5/ADC_MIC.c ****     /* This is only valid if there is an internal clock */
 156:Generated_Source\PSoC5/ADC_MIC.c ****     #if(ADC_MIC_DEFAULT_INTERNAL_CLK)
 157:Generated_Source\PSoC5/ADC_MIC.c ****         ADC_MIC_PWRMGR_CLK_REG |= ADC_MIC_ACT_PWR_CLK_EN;
  56              		.loc 1 157 0
  57 0016 1F48     		ldr	r0, .L3+8
 153:Generated_Source\PSoC5/ADC_MIC.c **** 
  58              		.loc 1 153 0
  59 0018 43F00103 		orr	r3, r3, #1
  60 001c 0B70     		strb	r3, [r1]
  61              		.loc 1 157 0
  62 001e 0378     		ldrb	r3, [r0]	@ zero_extendqisi2
 158:Generated_Source\PSoC5/ADC_MIC.c ****         ADC_MIC_STBY_PWRMGR_CLK_REG |= ADC_MIC_STBY_PWR_CLK_EN;
 159:Generated_Source\PSoC5/ADC_MIC.c ****     #endif /* End ADC_MIC_DEFAULT_INTERNAL_CLK */
 160:Generated_Source\PSoC5/ADC_MIC.c **** 
 161:Generated_Source\PSoC5/ADC_MIC.c ****     /* Enable VCM buffer and Enable Int Ref Amp */
 162:Generated_Source\PSoC5/ADC_MIC.c ****     tmpReg = ADC_MIC_SAR_CSR3_REG;
  63              		.loc 1 162 0
ARM GAS  C:\Users\mgronber\AppData\Local\Temp\cc4wjjXu.s 			page 5


  64 0020 01F5AA51 		add	r1, r1, #5440
 157:Generated_Source\PSoC5/ADC_MIC.c ****         ADC_MIC_STBY_PWRMGR_CLK_REG |= ADC_MIC_STBY_PWR_CLK_EN;
  65              		.loc 1 157 0
  66 0024 43F00103 		orr	r3, r3, #1
  67 0028 0370     		strb	r3, [r0]
 158:Generated_Source\PSoC5/ADC_MIC.c ****         ADC_MIC_STBY_PWRMGR_CLK_REG |= ADC_MIC_STBY_PWR_CLK_EN;
  68              		.loc 1 158 0
  69 002a D379     		ldrb	r3, [r2, #7]	@ zero_extendqisi2
  70              		.loc 1 162 0
  71 002c 0831     		adds	r1, r1, #8
 158:Generated_Source\PSoC5/ADC_MIC.c ****         ADC_MIC_STBY_PWRMGR_CLK_REG |= ADC_MIC_STBY_PWR_CLK_EN;
  72              		.loc 1 158 0
  73 002e 43F00103 		orr	r3, r3, #1
  74 0032 D371     		strb	r3, [r2, #7]
  75              		.loc 1 162 0
  76 0034 0A78     		ldrb	r2, [r1]	@ zero_extendqisi2
  77              	.LVL2:
 163:Generated_Source\PSoC5/ADC_MIC.c ****     tmpReg |= ADC_MIC_SAR_EN_BUF_VCM_EN;
 164:Generated_Source\PSoC5/ADC_MIC.c ****     /* PD_BUF_VREF is OFF in External reference or Vdda reference mode */
 165:Generated_Source\PSoC5/ADC_MIC.c ****     #if((ADC_MIC_DEFAULT_REFERENCE == ADC_MIC__EXT_REF) || \
 166:Generated_Source\PSoC5/ADC_MIC.c ****         (ADC_MIC_DEFAULT_RANGE == ADC_MIC__VNEG_VDDA_DIFF))
 167:Generated_Source\PSoC5/ADC_MIC.c ****         tmpReg &= (uint8)~ADC_MIC_SAR_EN_BUF_VREF_EN;
 168:Generated_Source\PSoC5/ADC_MIC.c ****     #else /* In INTREF or INTREF Bypassed this buffer is ON */
 169:Generated_Source\PSoC5/ADC_MIC.c ****         tmpReg |= ADC_MIC_SAR_EN_BUF_VREF_EN;
 170:Generated_Source\PSoC5/ADC_MIC.c ****     #endif /* ADC_MIC_DEFAULT_REFERENCE == ADC_MIC__EXT_REF */
 171:Generated_Source\PSoC5/ADC_MIC.c ****     ADC_MIC_SAR_CSR3_REG = tmpReg;
 172:Generated_Source\PSoC5/ADC_MIC.c **** 
 173:Generated_Source\PSoC5/ADC_MIC.c ****     /* Set reference for ADC */
 174:Generated_Source\PSoC5/ADC_MIC.c ****     #if(ADC_MIC_DEFAULT_RANGE == ADC_MIC__VNEG_VDDA_DIFF)
 175:Generated_Source\PSoC5/ADC_MIC.c ****         #if(ADC_MIC_DEFAULT_REFERENCE == ADC_MIC__EXT_REF)
 176:Generated_Source\PSoC5/ADC_MIC.c ****             ADC_MIC_SAR_CSR6_REG = ADC_MIC_INT_BYPASS_EXT_VREF; /* S2 */
 177:Generated_Source\PSoC5/ADC_MIC.c ****         #else /* Internal Vdda reference or obsolete bypass mode */
 178:Generated_Source\PSoC5/ADC_MIC.c ****             ADC_MIC_SAR_CSR6_REG = ADC_MIC_VDDA_VREF;           /* S7 */
 179:Generated_Source\PSoC5/ADC_MIC.c ****         #endif /* ADC_MIC_DEFAULT_REFERENCE == ADC_MIC__EXT_REF */
 180:Generated_Source\PSoC5/ADC_MIC.c ****     #else  /* Reference goes through internal buffer */
 181:Generated_Source\PSoC5/ADC_MIC.c ****         #if(ADC_MIC_DEFAULT_REFERENCE == ADC_MIC__INT_REF_NOT_BYPASSED)
 182:Generated_Source\PSoC5/ADC_MIC.c ****             ADC_MIC_SAR_CSR6_REG = ADC_MIC_INT_VREF;            /* S3 + S4 */
  78              		.loc 1 182 0
  79 0036 00F5AB50 		add	r0, r0, #5472
 183:Generated_Source\PSoC5/ADC_MIC.c ****         #else /* INTREF Bypassed of External */
 184:Generated_Source\PSoC5/ADC_MIC.c ****             ADC_MIC_SAR_CSR6_REG = ADC_MIC_INT_BYPASS_EXT_VREF; /* S2 */
 185:Generated_Source\PSoC5/ADC_MIC.c ****         #endif /* ADC_MIC_DEFAULT_REFERENCE == ADC_MIC__INT_REF_NOT_BYPASSED */
 186:Generated_Source\PSoC5/ADC_MIC.c ****     #endif /* VNEG_VDDA_DIFF */
 187:Generated_Source\PSoC5/ADC_MIC.c **** 
 188:Generated_Source\PSoC5/ADC_MIC.c ****     /* Low non-overlap delay for sampling clock signals (for 1MSPS) */
 189:Generated_Source\PSoC5/ADC_MIC.c ****     #if(ADC_MIC_HIGH_POWER_PULSE == 0u) /* MinPulseWidth <= 50 ns */
 190:Generated_Source\PSoC5/ADC_MIC.c ****         ADC_MIC_SAR_CSR5_REG &= (uint8)~ADC_MIC_SAR_DLY_INC;
 191:Generated_Source\PSoC5/ADC_MIC.c ****     #else /* Set High non-overlap delay for sampling clock signals (for <500KSPS)*/
 192:Generated_Source\PSoC5/ADC_MIC.c ****         ADC_MIC_SAR_CSR5_REG |= ADC_MIC_SAR_DLY_INC;
  80              		.loc 1 192 0
  81 003a 174B     		ldr	r3, .L3+12
 182:Generated_Source\PSoC5/ADC_MIC.c ****         #else /* INTREF Bypassed of External */
  82              		.loc 1 182 0
  83 003c 0430     		adds	r0, r0, #4
  84 003e 1825     		movs	r5, #24
 169:Generated_Source\PSoC5/ADC_MIC.c ****     #endif /* ADC_MIC_DEFAULT_REFERENCE == ADC_MIC__EXT_REF */
  85              		.loc 1 169 0
ARM GAS  C:\Users\mgronber\AppData\Local\Temp\cc4wjjXu.s 			page 6


  86 0040 42F00302 		orr	r2, r2, #3
  87              	.LVL3:
 171:Generated_Source\PSoC5/ADC_MIC.c **** 
  88              		.loc 1 171 0
  89 0044 0A70     		strb	r2, [r1]
 182:Generated_Source\PSoC5/ADC_MIC.c ****         #else /* INTREF Bypassed of External */
  90              		.loc 1 182 0
  91 0046 0570     		strb	r5, [r0]
  92              		.loc 1 192 0
  93 0048 1A78     		ldrb	r2, [r3]	@ zero_extendqisi2
  94              	.LVL4:
 193:Generated_Source\PSoC5/ADC_MIC.c ****     #endif /* ADC_MIC_HIGH_POWER_PULSE == 0u */
 194:Generated_Source\PSoC5/ADC_MIC.c **** 
 195:Generated_Source\PSoC5/ADC_MIC.c ****     /* Increase comparator latch enable delay by 20%, 
 196:Generated_Source\PSoC5/ADC_MIC.c ****     *  Increase comparator bias current by 30% without impacting delaysDelay 
 197:Generated_Source\PSoC5/ADC_MIC.c ****     *  Default for 1MSPS) 
 198:Generated_Source\PSoC5/ADC_MIC.c ****     */
 199:Generated_Source\PSoC5/ADC_MIC.c ****     #if(ADC_MIC_HIGH_POWER_PULSE == 0u)    /* MinPulseWidth <= 50 ns */
 200:Generated_Source\PSoC5/ADC_MIC.c ****         ADC_MIC_SAR_CSR5_REG |= ADC_MIC_SAR_SEL_CSEL_DFT_CHAR;
 201:Generated_Source\PSoC5/ADC_MIC.c ****     #else /* for <500ksps */
 202:Generated_Source\PSoC5/ADC_MIC.c ****         ADC_MIC_SAR_CSR5_REG &= (uint8)~ADC_MIC_SAR_SEL_CSEL_DFT_CHAR;
 203:Generated_Source\PSoC5/ADC_MIC.c ****     #endif /* ADC_MIC_HIGH_POWER_PULSE == 0u */
 204:Generated_Source\PSoC5/ADC_MIC.c **** 
 205:Generated_Source\PSoC5/ADC_MIC.c ****     /* Set default power and other configurations for control register 0 in multiple lines */
 206:Generated_Source\PSoC5/ADC_MIC.c ****     ADC_MIC_SAR_CSR0_REG = (uint8)((uint8)ADC_MIC_DEFAULT_POWER << ADC_MIC_SAR_POWER_SHIFT)
  95              		.loc 1 206 0
  96 004a 144E     		ldr	r6, .L3+16
 192:Generated_Source\PSoC5/ADC_MIC.c ****     #endif /* ADC_MIC_HIGH_POWER_PULSE == 0u */
  97              		.loc 1 192 0
  98 004c 42F04002 		orr	r2, r2, #64
  99 0050 1A70     		strb	r2, [r3]
 202:Generated_Source\PSoC5/ADC_MIC.c ****     #endif /* ADC_MIC_HIGH_POWER_PULSE == 0u */
 100              		.loc 1 202 0
 101 0052 1A78     		ldrb	r2, [r3]	@ zero_extendqisi2
 207:Generated_Source\PSoC5/ADC_MIC.c ****     /* SAR_HIZ_CLEAR:   Should not be used for LP */
 208:Generated_Source\PSoC5/ADC_MIC.c ****     #if ((CY_PSOC5LP) || (ADC_MIC_DEFAULT_REFERENCE != ADC_MIC__EXT_REF))
 209:Generated_Source\PSoC5/ADC_MIC.c ****         | ADC_MIC_SAR_HIZ_CLEAR
 210:Generated_Source\PSoC5/ADC_MIC.c ****     #endif /* SAR_HIZ_CLEAR */
 211:Generated_Source\PSoC5/ADC_MIC.c ****     /*Set Convertion mode */
 212:Generated_Source\PSoC5/ADC_MIC.c ****     #if(ADC_MIC_DEFAULT_CONV_MODE != ADC_MIC__FREE_RUNNING)      /* If triggered mode */
 213:Generated_Source\PSoC5/ADC_MIC.c ****         | ADC_MIC_SAR_MX_SOF_UDB           /* source: UDB */
 214:Generated_Source\PSoC5/ADC_MIC.c ****         | ADC_MIC_SAR_SOF_MODE_EDGE        /* Set edge-sensitive sof source */
 215:Generated_Source\PSoC5/ADC_MIC.c ****     #endif /* ADC_MIC_DEFAULT_CONV_MODE */
 216:Generated_Source\PSoC5/ADC_MIC.c ****     ; /* end of multiple line initialization */
 217:Generated_Source\PSoC5/ADC_MIC.c **** 
 218:Generated_Source\PSoC5/ADC_MIC.c ****     ADC_MIC_SAR_TR0_REG = ADC_MIC_SAR_CAP_TRIM_2;
 102              		.loc 1 218 0
 103 0054 A0F59750 		sub	r0, r0, #4832
 202:Generated_Source\PSoC5/ADC_MIC.c ****     #endif /* ADC_MIC_HIGH_POWER_PULSE == 0u */
 104              		.loc 1 202 0
 105 0058 02F0FC02 		and	r2, r2, #252
 106              		.loc 1 218 0
 107 005c 1238     		subs	r0, r0, #18
 206:Generated_Source\PSoC5/ADC_MIC.c ****     /* SAR_HIZ_CLEAR:   Should not be used for LP */
 108              		.loc 1 206 0
 109 005e C827     		movs	r7, #200
 110              		.loc 1 218 0
ARM GAS  C:\Users\mgronber\AppData\Local\Temp\cc4wjjXu.s 			page 7


 111 0060 0225     		movs	r5, #2
 202:Generated_Source\PSoC5/ADC_MIC.c ****     #endif /* ADC_MIC_HIGH_POWER_PULSE == 0u */
 112              		.loc 1 202 0
 113 0062 1A70     		strb	r2, [r3]
 206:Generated_Source\PSoC5/ADC_MIC.c ****     /* SAR_HIZ_CLEAR:   Should not be used for LP */
 114              		.loc 1 206 0
 115 0064 3770     		strb	r7, [r6]
 116              		.loc 1 218 0
 117 0066 0570     		strb	r5, [r0]
 219:Generated_Source\PSoC5/ADC_MIC.c **** 
 220:Generated_Source\PSoC5/ADC_MIC.c ****     /* Enable clock for SAR ADC*/
 221:Generated_Source\PSoC5/ADC_MIC.c ****     ADC_MIC_SAR_CLK_REG |= ADC_MIC_SAR_MX_CLK_EN;
 118              		.loc 1 221 0
 119 0068 91F82432 		ldrb	r3, [r1, #548]	@ zero_extendqisi2
 222:Generated_Source\PSoC5/ADC_MIC.c **** 
 223:Generated_Source\PSoC5/ADC_MIC.c ****     CyDelayUs(10u); /* The block is ready to use 10 us after the enable signal is set high. */
 120              		.loc 1 223 0
 121 006c 0A20     		movs	r0, #10
 221:Generated_Source\PSoC5/ADC_MIC.c **** 
 122              		.loc 1 221 0
 123 006e 43F00803 		orr	r3, r3, #8
 124 0072 81F82432 		strb	r3, [r1, #548]
 125              		.loc 1 223 0
 126 0076 FFF7FEFF 		bl	CyDelayUs
 127              	.LVL5:
 224:Generated_Source\PSoC5/ADC_MIC.c **** 
 225:Generated_Source\PSoC5/ADC_MIC.c ****     #if(ADC_MIC_IRQ_REMOVE == 0u)
 226:Generated_Source\PSoC5/ADC_MIC.c ****         /* Clear a pending interrupt */
 227:Generated_Source\PSoC5/ADC_MIC.c ****         CyIntClearPending(ADC_MIC_INTC_NUMBER);
 128              		.loc 1 227 0
 129 007a 094B     		ldr	r3, .L3+20
 130 007c 0422     		movs	r2, #4
 228:Generated_Source\PSoC5/ADC_MIC.c ****     #endif   /* End ADC_MIC_IRQ_REMOVE */
 229:Generated_Source\PSoC5/ADC_MIC.c **** 
 230:Generated_Source\PSoC5/ADC_MIC.c ****     CyExitCriticalSection(enableInterrupts);
 131              		.loc 1 230 0
 132 007e 2046     		mov	r0, r4
 227:Generated_Source\PSoC5/ADC_MIC.c ****     #endif   /* End ADC_MIC_IRQ_REMOVE */
 133              		.loc 1 227 0
 134 0080 1A60     		str	r2, [r3]
 231:Generated_Source\PSoC5/ADC_MIC.c **** }
 135              		.loc 1 231 0
 136 0082 BDE8F840 		pop	{r3, r4, r5, r6, r7, lr}
 137              		.cfi_restore 14
 138              		.cfi_restore 7
 139              		.cfi_restore 6
 140              		.cfi_restore 5
 141              		.cfi_restore 4
 142              		.cfi_restore 3
 143              		.cfi_def_cfa_offset 0
 144              	.LVL6:
 230:Generated_Source\PSoC5/ADC_MIC.c **** }
 145              		.loc 1 230 0
 146 0086 FFF7FEBF 		b	CyExitCriticalSection
 147              	.LVL7:
 148              	.L4:
 149 008a 00BF     		.align	2
ARM GAS  C:\Users\mgronber\AppData\Local\Temp\cc4wjjXu.s 			page 8


 150              	.L3:
 151 008c AB430040 		.word	1073759147
 152 0090 BB430040 		.word	1073759163
 153 0094 A2430040 		.word	1073759138
 154 0098 05590040 		.word	1073764613
 155 009c 00590040 		.word	1073764608
 156 00a0 80E200E0 		.word	-536812928
 157              		.cfi_endproc
 158              	.LFE2:
 159              		.size	ADC_MIC_Enable, .-ADC_MIC_Enable
 160              		.section	.text.ADC_MIC_Stop,"ax",%progbits
 161              		.align	2
 162              		.global	ADC_MIC_Stop
 163              		.thumb
 164              		.thumb_func
 165              		.type	ADC_MIC_Stop, %function
 166              	ADC_MIC_Stop:
 167              	.LFB3:
 232:Generated_Source\PSoC5/ADC_MIC.c **** 
 233:Generated_Source\PSoC5/ADC_MIC.c **** 
 234:Generated_Source\PSoC5/ADC_MIC.c **** /*******************************************************************************
 235:Generated_Source\PSoC5/ADC_MIC.c **** * Function Name: ADC_MIC_Stop
 236:Generated_Source\PSoC5/ADC_MIC.c **** ********************************************************************************
 237:Generated_Source\PSoC5/ADC_MIC.c **** *
 238:Generated_Source\PSoC5/ADC_MIC.c **** * Summary:
 239:Generated_Source\PSoC5/ADC_MIC.c **** *  Stops ADC conversions and puts the ADC into its lowest power mode.
 240:Generated_Source\PSoC5/ADC_MIC.c **** *
 241:Generated_Source\PSoC5/ADC_MIC.c **** * Parameters:
 242:Generated_Source\PSoC5/ADC_MIC.c **** *  None.
 243:Generated_Source\PSoC5/ADC_MIC.c **** *
 244:Generated_Source\PSoC5/ADC_MIC.c **** * Return:
 245:Generated_Source\PSoC5/ADC_MIC.c **** *  None.
 246:Generated_Source\PSoC5/ADC_MIC.c **** *
 247:Generated_Source\PSoC5/ADC_MIC.c **** *******************************************************************************/
 248:Generated_Source\PSoC5/ADC_MIC.c **** void ADC_MIC_Stop(void)
 249:Generated_Source\PSoC5/ADC_MIC.c **** {
 168              		.loc 1 249 0
 169              		.cfi_startproc
 170              		@ args = 0, pretend = 0, frame = 0
 171              		@ frame_needed = 0, uses_anonymous_args = 0
 172 0000 10B5     		push	{r4, lr}
 173              		.cfi_def_cfa_offset 8
 174              		.cfi_offset 4, -8
 175              		.cfi_offset 14, -4
 250:Generated_Source\PSoC5/ADC_MIC.c ****     uint8 enableInterrupts;
 251:Generated_Source\PSoC5/ADC_MIC.c ****     enableInterrupts = CyEnterCriticalSection();
 176              		.loc 1 251 0
 177 0002 FFF7FEFF 		bl	CyEnterCriticalSection
 178              	.LVL8:
 252:Generated_Source\PSoC5/ADC_MIC.c **** 
 253:Generated_Source\PSoC5/ADC_MIC.c ****     /* Stop all conversions */
 254:Generated_Source\PSoC5/ADC_MIC.c ****     ADC_MIC_SAR_CSR0_REG &= (uint8)~ADC_MIC_SAR_SOF_START_CONV;
 179              		.loc 1 254 0
 180 0006 0F49     		ldr	r1, .L7
 255:Generated_Source\PSoC5/ADC_MIC.c ****     /* Disable the SAR ADC block in Active Power Mode */
 256:Generated_Source\PSoC5/ADC_MIC.c ****     ADC_MIC_PWRMGR_SAR_REG &= (uint8)~ADC_MIC_ACT_PWR_SAR_EN;
 181              		.loc 1 256 0
ARM GAS  C:\Users\mgronber\AppData\Local\Temp\cc4wjjXu.s 			page 9


 182 0008 0F4A     		ldr	r2, .L7+4
 254:Generated_Source\PSoC5/ADC_MIC.c ****     /* Disable the SAR ADC block in Active Power Mode */
 183              		.loc 1 254 0
 184 000a 0B78     		ldrb	r3, [r1]	@ zero_extendqisi2
 257:Generated_Source\PSoC5/ADC_MIC.c ****     /* Disable the SAR ADC in Standby Power Mode */
 258:Generated_Source\PSoC5/ADC_MIC.c ****     ADC_MIC_STBY_PWRMGR_SAR_REG &= (uint8)~ADC_MIC_STBY_PWR_SAR_EN;
 185              		.loc 1 258 0
 186 000c 0F4C     		ldr	r4, .L7+8
 254:Generated_Source\PSoC5/ADC_MIC.c ****     /* Disable the SAR ADC block in Active Power Mode */
 187              		.loc 1 254 0
 188 000e 03F0FE03 		and	r3, r3, #254
 189 0012 0B70     		strb	r3, [r1]
 256:Generated_Source\PSoC5/ADC_MIC.c ****     /* Disable the SAR ADC in Standby Power Mode */
 190              		.loc 1 256 0
 191 0014 1378     		ldrb	r3, [r2]	@ zero_extendqisi2
 259:Generated_Source\PSoC5/ADC_MIC.c **** 
 260:Generated_Source\PSoC5/ADC_MIC.c ****     /* This is only valid if there is an internal clock */
 261:Generated_Source\PSoC5/ADC_MIC.c ****     #if(ADC_MIC_DEFAULT_INTERNAL_CLK)
 262:Generated_Source\PSoC5/ADC_MIC.c ****         ADC_MIC_PWRMGR_CLK_REG &= (uint8)~ADC_MIC_ACT_PWR_CLK_EN;
 192              		.loc 1 262 0
 193 0016 A1F5AA51 		sub	r1, r1, #5440
 256:Generated_Source\PSoC5/ADC_MIC.c ****     /* Disable the SAR ADC in Standby Power Mode */
 194              		.loc 1 256 0
 195 001a 03F0FE03 		and	r3, r3, #254
 196 001e 1370     		strb	r3, [r2]
 258:Generated_Source\PSoC5/ADC_MIC.c **** 
 197              		.loc 1 258 0
 198 0020 2378     		ldrb	r3, [r4]	@ zero_extendqisi2
 199              		.loc 1 262 0
 200 0022 1E39     		subs	r1, r1, #30
 258:Generated_Source\PSoC5/ADC_MIC.c **** 
 201              		.loc 1 258 0
 202 0024 03F0FE03 		and	r3, r3, #254
 203 0028 2370     		strb	r3, [r4]
 204              		.loc 1 262 0
 205 002a 0B78     		ldrb	r3, [r1]	@ zero_extendqisi2
 206 002c 03F0FE03 		and	r3, r3, #254
 207 0030 0B70     		strb	r3, [r1]
 263:Generated_Source\PSoC5/ADC_MIC.c ****         ADC_MIC_STBY_PWRMGR_CLK_REG &= (uint8)~ADC_MIC_STBY_PWR_CLK_EN;
 208              		.loc 1 263 0
 209 0032 D379     		ldrb	r3, [r2, #7]	@ zero_extendqisi2
 210 0034 03F0FE03 		and	r3, r3, #254
 211 0038 D371     		strb	r3, [r2, #7]
 264:Generated_Source\PSoC5/ADC_MIC.c ****     #endif /* End ADC_MIC_DEFAULT_INTERNAL_CLK */
 265:Generated_Source\PSoC5/ADC_MIC.c **** 
 266:Generated_Source\PSoC5/ADC_MIC.c ****     CyExitCriticalSection(enableInterrupts);
 267:Generated_Source\PSoC5/ADC_MIC.c **** 
 268:Generated_Source\PSoC5/ADC_MIC.c **** }
 212              		.loc 1 268 0
 213 003a BDE81040 		pop	{r4, lr}
 214              		.cfi_restore 14
 215              		.cfi_restore 4
 216              		.cfi_def_cfa_offset 0
 266:Generated_Source\PSoC5/ADC_MIC.c **** 
 217              		.loc 1 266 0
 218 003e FFF7FEBF 		b	CyExitCriticalSection
 219              	.LVL9:
ARM GAS  C:\Users\mgronber\AppData\Local\Temp\cc4wjjXu.s 			page 10


 220              	.L8:
 221 0042 00BF     		.align	2
 222              	.L7:
 223 0044 00590040 		.word	1073764608
 224 0048 AB430040 		.word	1073759147
 225 004c BB430040 		.word	1073759163
 226              		.cfi_endproc
 227              	.LFE3:
 228              		.size	ADC_MIC_Stop, .-ADC_MIC_Stop
 229              		.section	.text.ADC_MIC_SetPower,"ax",%progbits
 230              		.align	2
 231              		.global	ADC_MIC_SetPower
 232              		.thumb
 233              		.thumb_func
 234              		.type	ADC_MIC_SetPower, %function
 235              	ADC_MIC_SetPower:
 236              	.LFB4:
 269:Generated_Source\PSoC5/ADC_MIC.c **** 
 270:Generated_Source\PSoC5/ADC_MIC.c **** 
 271:Generated_Source\PSoC5/ADC_MIC.c **** /*******************************************************************************
 272:Generated_Source\PSoC5/ADC_MIC.c **** * Function Name: ADC_MIC_SetPower
 273:Generated_Source\PSoC5/ADC_MIC.c **** ********************************************************************************
 274:Generated_Source\PSoC5/ADC_MIC.c **** *
 275:Generated_Source\PSoC5/ADC_MIC.c **** * Summary:
 276:Generated_Source\PSoC5/ADC_MIC.c **** *  Sets the operational power of the ADC. You should use the higher power
 277:Generated_Source\PSoC5/ADC_MIC.c **** *  settings with faster clock speeds.
 278:Generated_Source\PSoC5/ADC_MIC.c **** *
 279:Generated_Source\PSoC5/ADC_MIC.c **** * Parameters:
 280:Generated_Source\PSoC5/ADC_MIC.c **** *  power:  Power setting for ADC
 281:Generated_Source\PSoC5/ADC_MIC.c **** *  0 ->    Normal
 282:Generated_Source\PSoC5/ADC_MIC.c **** *  1 ->    Medium power
 283:Generated_Source\PSoC5/ADC_MIC.c **** *  2 ->    1.25 power
 284:Generated_Source\PSoC5/ADC_MIC.c **** *  3 ->    Minimum power.
 285:Generated_Source\PSoC5/ADC_MIC.c **** *
 286:Generated_Source\PSoC5/ADC_MIC.c **** * Return:
 287:Generated_Source\PSoC5/ADC_MIC.c **** *  None.
 288:Generated_Source\PSoC5/ADC_MIC.c **** *
 289:Generated_Source\PSoC5/ADC_MIC.c **** *******************************************************************************/
 290:Generated_Source\PSoC5/ADC_MIC.c **** void ADC_MIC_SetPower(uint8 power)
 291:Generated_Source\PSoC5/ADC_MIC.c **** {
 237              		.loc 1 291 0
 238              		.cfi_startproc
 239              		@ args = 0, pretend = 0, frame = 0
 240              		@ frame_needed = 0, uses_anonymous_args = 0
 241              		@ link register save eliminated.
 242              	.LVL10:
 292:Generated_Source\PSoC5/ADC_MIC.c ****     uint8 tmpReg;
 293:Generated_Source\PSoC5/ADC_MIC.c **** 
 294:Generated_Source\PSoC5/ADC_MIC.c ****     /* mask off invalid power settings */
 295:Generated_Source\PSoC5/ADC_MIC.c ****     power &= ADC_MIC_SAR_API_POWER_MASK;
 296:Generated_Source\PSoC5/ADC_MIC.c **** 
 297:Generated_Source\PSoC5/ADC_MIC.c ****     /* Set Power parameter  */
 298:Generated_Source\PSoC5/ADC_MIC.c ****     tmpReg = ADC_MIC_SAR_CSR0_REG & (uint8)~ADC_MIC_SAR_POWER_MASK;
 243              		.loc 1 298 0
 244 0000 044A     		ldr	r2, .L10
 295:Generated_Source\PSoC5/ADC_MIC.c **** 
 245              		.loc 1 295 0
ARM GAS  C:\Users\mgronber\AppData\Local\Temp\cc4wjjXu.s 			page 11


 246 0002 00F00300 		and	r0, r0, #3
 247              	.LVL11:
 248              		.loc 1 298 0
 249 0006 1378     		ldrb	r3, [r2]	@ zero_extendqisi2
 250 0008 03F03F03 		and	r3, r3, #63
 251              	.LVL12:
 299:Generated_Source\PSoC5/ADC_MIC.c ****     tmpReg |= (uint8)(power << ADC_MIC_SAR_POWER_SHIFT);
 252              		.loc 1 299 0
 253 000c 43EA8010 		orr	r0, r3, r0, lsl #6
 254              	.LVL13:
 300:Generated_Source\PSoC5/ADC_MIC.c ****     ADC_MIC_SAR_CSR0_REG = tmpReg;
 255              		.loc 1 300 0
 256 0010 1070     		strb	r0, [r2]
 257 0012 7047     		bx	lr
 258              	.L11:
 259              		.align	2
 260              	.L10:
 261 0014 00590040 		.word	1073764608
 262              		.cfi_endproc
 263              	.LFE4:
 264              		.size	ADC_MIC_SetPower, .-ADC_MIC_SetPower
 265              		.section	.text.ADC_MIC_SetResolution,"ax",%progbits
 266              		.align	2
 267              		.global	ADC_MIC_SetResolution
 268              		.thumb
 269              		.thumb_func
 270              		.type	ADC_MIC_SetResolution, %function
 271              	ADC_MIC_SetResolution:
 272              	.LFB5:
 301:Generated_Source\PSoC5/ADC_MIC.c **** }
 302:Generated_Source\PSoC5/ADC_MIC.c **** 
 303:Generated_Source\PSoC5/ADC_MIC.c **** 
 304:Generated_Source\PSoC5/ADC_MIC.c **** /*******************************************************************************
 305:Generated_Source\PSoC5/ADC_MIC.c **** * Function Name: ADC_MIC_SetResolution
 306:Generated_Source\PSoC5/ADC_MIC.c **** ********************************************************************************
 307:Generated_Source\PSoC5/ADC_MIC.c **** *
 308:Generated_Source\PSoC5/ADC_MIC.c **** * Summary:
 309:Generated_Source\PSoC5/ADC_MIC.c **** *  Sets the Relution of the SAR.
 310:Generated_Source\PSoC5/ADC_MIC.c **** *
 311:Generated_Source\PSoC5/ADC_MIC.c **** * Parameters:
 312:Generated_Source\PSoC5/ADC_MIC.c **** *  resolution:
 313:Generated_Source\PSoC5/ADC_MIC.c **** *  12 ->    RES12
 314:Generated_Source\PSoC5/ADC_MIC.c **** *  10 ->    RES10
 315:Generated_Source\PSoC5/ADC_MIC.c **** *  8  ->    RES8
 316:Generated_Source\PSoC5/ADC_MIC.c **** *
 317:Generated_Source\PSoC5/ADC_MIC.c **** * Return:
 318:Generated_Source\PSoC5/ADC_MIC.c **** *  None.
 319:Generated_Source\PSoC5/ADC_MIC.c **** *
 320:Generated_Source\PSoC5/ADC_MIC.c **** * Side Effects:
 321:Generated_Source\PSoC5/ADC_MIC.c **** *  The ADC resolution cannot be changed during a conversion cycle. The
 322:Generated_Source\PSoC5/ADC_MIC.c **** *  recommended best practice is to stop conversions with
 323:Generated_Source\PSoC5/ADC_MIC.c **** *  ADC_StopConvert(), change the resolution, then restart the
 324:Generated_Source\PSoC5/ADC_MIC.c **** *  conversions with ADC_StartConvert().
 325:Generated_Source\PSoC5/ADC_MIC.c **** *  If you decide not to stop conversions before calling this API, you
 326:Generated_Source\PSoC5/ADC_MIC.c **** *  should use ADC_IsEndConversion() to wait until conversion is complete
 327:Generated_Source\PSoC5/ADC_MIC.c **** *  before changing the resolution.
 328:Generated_Source\PSoC5/ADC_MIC.c **** *  If you call ADC_SetResolution() during a conversion, the resolution will
ARM GAS  C:\Users\mgronber\AppData\Local\Temp\cc4wjjXu.s 			page 12


 329:Generated_Source\PSoC5/ADC_MIC.c **** *  not be changed until the current conversion is complete. Data will not be
 330:Generated_Source\PSoC5/ADC_MIC.c **** *  available in the new resolution for another 6 + "New Resolution(in bits)"
 331:Generated_Source\PSoC5/ADC_MIC.c **** *  clock cycles.
 332:Generated_Source\PSoC5/ADC_MIC.c **** *  You may need add a delay of this number of clock cycles after
 333:Generated_Source\PSoC5/ADC_MIC.c **** *  ADC_SetResolution() is called before data is valid again.
 334:Generated_Source\PSoC5/ADC_MIC.c **** *  Affects ADC_CountsTo_Volts(), ADC_CountsTo_mVolts(), and
 335:Generated_Source\PSoC5/ADC_MIC.c **** *  ADC_CountsTo_uVolts() by calculating the correct conversion between ADC
 336:Generated_Source\PSoC5/ADC_MIC.c **** *  counts and the applied input voltage. Calculation depends on resolution,
 337:Generated_Source\PSoC5/ADC_MIC.c **** *  input range, and voltage reference.
 338:Generated_Source\PSoC5/ADC_MIC.c **** *
 339:Generated_Source\PSoC5/ADC_MIC.c **** *******************************************************************************/
 340:Generated_Source\PSoC5/ADC_MIC.c **** void ADC_MIC_SetResolution(uint8 resolution)
 341:Generated_Source\PSoC5/ADC_MIC.c **** {
 273              		.loc 1 341 0
 274              		.cfi_startproc
 275              		@ args = 0, pretend = 0, frame = 0
 276              		@ frame_needed = 0, uses_anonymous_args = 0
 277              	.LVL14:
 342:Generated_Source\PSoC5/ADC_MIC.c ****     uint8 tmpReg;
 343:Generated_Source\PSoC5/ADC_MIC.c **** 
 344:Generated_Source\PSoC5/ADC_MIC.c ****     /* Set SAR ADC resolution and sample width: 18 conversion cycles at 12bits + 1 gap */
 345:Generated_Source\PSoC5/ADC_MIC.c ****     switch (resolution)
 278              		.loc 1 345 0
 279 0000 0A28     		cmp	r0, #10
 341:Generated_Source\PSoC5/ADC_MIC.c ****     uint8 tmpReg;
 280              		.loc 1 341 0
 281 0002 38B5     		push	{r3, r4, r5, lr}
 282              		.cfi_def_cfa_offset 16
 283              		.cfi_offset 3, -16
 284              		.cfi_offset 4, -12
 285              		.cfi_offset 5, -8
 286              		.cfi_offset 14, -4
 341:Generated_Source\PSoC5/ADC_MIC.c ****     uint8 tmpReg;
 287              		.loc 1 341 0
 288 0004 0446     		mov	r4, r0
 289              		.loc 1 345 0
 290 0006 30D0     		beq	.L21
 291 0008 0C28     		cmp	r0, #12
 292 000a 26D0     		beq	.L15
 293 000c 0828     		cmp	r0, #8
 294 000e 18D0     		beq	.L16
 295              	.LVL15:
 346:Generated_Source\PSoC5/ADC_MIC.c ****     {
 347:Generated_Source\PSoC5/ADC_MIC.c ****         case (uint8)ADC_MIC__BITS_12:
 348:Generated_Source\PSoC5/ADC_MIC.c ****             tmpReg = ADC_MIC_SAR_RESOLUTION_12BIT | ADC_MIC_SAR_SAMPLE_WIDTH;
 349:Generated_Source\PSoC5/ADC_MIC.c ****             break;
 350:Generated_Source\PSoC5/ADC_MIC.c ****         case (uint8)ADC_MIC__BITS_10:
 351:Generated_Source\PSoC5/ADC_MIC.c ****             tmpReg = ADC_MIC_SAR_RESOLUTION_10BIT | ADC_MIC_SAR_SAMPLE_WIDTH;
 352:Generated_Source\PSoC5/ADC_MIC.c ****             break;
 353:Generated_Source\PSoC5/ADC_MIC.c ****         case (uint8)ADC_MIC__BITS_8:
 354:Generated_Source\PSoC5/ADC_MIC.c ****             tmpReg = ADC_MIC_SAR_RESOLUTION_8BIT | ADC_MIC_SAR_SAMPLE_WIDTH;
 355:Generated_Source\PSoC5/ADC_MIC.c ****             break;
 356:Generated_Source\PSoC5/ADC_MIC.c ****         default:
 357:Generated_Source\PSoC5/ADC_MIC.c ****             tmpReg = ADC_MIC_SAR_RESOLUTION_12BIT | ADC_MIC_SAR_SAMPLE_WIDTH;
 358:Generated_Source\PSoC5/ADC_MIC.c ****             /* Halt CPU in debug mode if resolution is out of valid range */
 359:Generated_Source\PSoC5/ADC_MIC.c ****             CYASSERT(0u != 0u);
 296              		.loc 1 359 0
ARM GAS  C:\Users\mgronber\AppData\Local\Temp\cc4wjjXu.s 			page 13


 297 0010 0020     		movs	r0, #0
 298              	.LVL16:
 299 0012 FFF7FEFF 		bl	CyHalt
 300              	.LVL17:
 357:Generated_Source\PSoC5/ADC_MIC.c ****             /* Halt CPU in debug mode if resolution is out of valid range */
 301              		.loc 1 357 0
 302 0016 C223     		movs	r3, #194
 303              	.LVL18:
 304              	.L14:
 360:Generated_Source\PSoC5/ADC_MIC.c ****             break;
 361:Generated_Source\PSoC5/ADC_MIC.c ****     }
 362:Generated_Source\PSoC5/ADC_MIC.c ****     ADC_MIC_SAR_CSR2_REG = tmpReg;
 305              		.loc 1 362 0
 306 0018 174A     		ldr	r2, .L30
 307              	.LBB4:
 308              	.LBB5:
 363:Generated_Source\PSoC5/ADC_MIC.c **** 
 364:Generated_Source\PSoC5/ADC_MIC.c ****      /* Calculate gain for convert counts to volts */
 365:Generated_Source\PSoC5/ADC_MIC.c ****     ADC_MIC_CalcGain(resolution);
 366:Generated_Source\PSoC5/ADC_MIC.c **** }
 367:Generated_Source\PSoC5/ADC_MIC.c **** 
 368:Generated_Source\PSoC5/ADC_MIC.c **** 
 369:Generated_Source\PSoC5/ADC_MIC.c **** #if(ADC_MIC_DEFAULT_CONV_MODE != ADC_MIC__HARDWARE_TRIGGER)
 370:Generated_Source\PSoC5/ADC_MIC.c **** 
 371:Generated_Source\PSoC5/ADC_MIC.c **** 
 372:Generated_Source\PSoC5/ADC_MIC.c ****     /*******************************************************************************
 373:Generated_Source\PSoC5/ADC_MIC.c ****     * Function Name: ADC_MIC_StartConvert
 374:Generated_Source\PSoC5/ADC_MIC.c ****     ********************************************************************************
 375:Generated_Source\PSoC5/ADC_MIC.c ****     *
 376:Generated_Source\PSoC5/ADC_MIC.c ****     * Summary:
 377:Generated_Source\PSoC5/ADC_MIC.c ****     *  Forces the ADC to initiate a conversion. In free-running mode, the ADC runs
 378:Generated_Source\PSoC5/ADC_MIC.c ****     *  continuously. In software trigger mode, the function also acts as a software
 379:Generated_Source\PSoC5/ADC_MIC.c ****     *  version of the SOC and every conversion must be triggered by
 380:Generated_Source\PSoC5/ADC_MIC.c ****     *  ADC_MIC_StartConvert(). This function is not available when the
 381:Generated_Source\PSoC5/ADC_MIC.c ****     *  Hardware Trigger sample mode is selected.
 382:Generated_Source\PSoC5/ADC_MIC.c ****     *
 383:Generated_Source\PSoC5/ADC_MIC.c ****     * Parameters:
 384:Generated_Source\PSoC5/ADC_MIC.c ****     *  None.
 385:Generated_Source\PSoC5/ADC_MIC.c ****     *
 386:Generated_Source\PSoC5/ADC_MIC.c ****     * Return:
 387:Generated_Source\PSoC5/ADC_MIC.c ****     *  None.
 388:Generated_Source\PSoC5/ADC_MIC.c ****     *
 389:Generated_Source\PSoC5/ADC_MIC.c ****     * Theory:
 390:Generated_Source\PSoC5/ADC_MIC.c ****     *  Forces the ADC to initiate a conversion. In Free Running mode, the ADC will
 391:Generated_Source\PSoC5/ADC_MIC.c ****     *  run continuously. In a software trigger mode the function also acts as a
 392:Generated_Source\PSoC5/ADC_MIC.c ****     *  software version of the SOC. Here every conversion has to be triggered by
 393:Generated_Source\PSoC5/ADC_MIC.c ****     *  the routine. This writes into the SOC bit in SAR_CTRL reg.
 394:Generated_Source\PSoC5/ADC_MIC.c ****     *
 395:Generated_Source\PSoC5/ADC_MIC.c ****     * Side Effects:
 396:Generated_Source\PSoC5/ADC_MIC.c ****     *  In a software trigger mode the function switches source for SOF from the
 397:Generated_Source\PSoC5/ADC_MIC.c ****     *  external pin to the internal SOF generation. Application should not call
 398:Generated_Source\PSoC5/ADC_MIC.c ****     *  StartConvert if external source used for SOF.
 399:Generated_Source\PSoC5/ADC_MIC.c ****     *
 400:Generated_Source\PSoC5/ADC_MIC.c ****     *******************************************************************************/
 401:Generated_Source\PSoC5/ADC_MIC.c ****     void ADC_MIC_StartConvert(void)
 402:Generated_Source\PSoC5/ADC_MIC.c ****     {
 403:Generated_Source\PSoC5/ADC_MIC.c ****         #if(ADC_MIC_DEFAULT_CONV_MODE != ADC_MIC__FREE_RUNNING)  /* If software triggered mode */
ARM GAS  C:\Users\mgronber\AppData\Local\Temp\cc4wjjXu.s 			page 14


 404:Generated_Source\PSoC5/ADC_MIC.c ****             ADC_MIC_SAR_CSR0_REG &= (uint8)~ADC_MIC_SAR_MX_SOF_UDB;   /* source: SOF bit */
 405:Generated_Source\PSoC5/ADC_MIC.c ****         #endif /* End ADC_MIC_DEFAULT_CONV_MODE */
 406:Generated_Source\PSoC5/ADC_MIC.c **** 
 407:Generated_Source\PSoC5/ADC_MIC.c ****         /* Start the conversion */
 408:Generated_Source\PSoC5/ADC_MIC.c ****         ADC_MIC_SAR_CSR0_REG |= ADC_MIC_SAR_SOF_START_CONV;
 409:Generated_Source\PSoC5/ADC_MIC.c ****     }
 410:Generated_Source\PSoC5/ADC_MIC.c **** 
 411:Generated_Source\PSoC5/ADC_MIC.c **** 
 412:Generated_Source\PSoC5/ADC_MIC.c ****     /*******************************************************************************
 413:Generated_Source\PSoC5/ADC_MIC.c ****     * Function Name: ADC_MIC_StopConvert
 414:Generated_Source\PSoC5/ADC_MIC.c ****     ********************************************************************************
 415:Generated_Source\PSoC5/ADC_MIC.c ****     *
 416:Generated_Source\PSoC5/ADC_MIC.c ****     * Summary:
 417:Generated_Source\PSoC5/ADC_MIC.c ****     *  Forces the ADC to stop conversions. If a conversion is currently executing,
 418:Generated_Source\PSoC5/ADC_MIC.c ****     *  that conversion will complete, but no further conversions will occur. This
 419:Generated_Source\PSoC5/ADC_MIC.c ****     *  function is not available when the Hardware Trigger sample mode is selected.
 420:Generated_Source\PSoC5/ADC_MIC.c ****     *
 421:Generated_Source\PSoC5/ADC_MIC.c ****     * Parameters:
 422:Generated_Source\PSoC5/ADC_MIC.c ****     *  None.
 423:Generated_Source\PSoC5/ADC_MIC.c ****     *
 424:Generated_Source\PSoC5/ADC_MIC.c ****     * Return:
 425:Generated_Source\PSoC5/ADC_MIC.c ****     *  None.
 426:Generated_Source\PSoC5/ADC_MIC.c ****     *
 427:Generated_Source\PSoC5/ADC_MIC.c ****     * Theory:
 428:Generated_Source\PSoC5/ADC_MIC.c ****     *  Stops ADC conversion in Free Running mode.
 429:Generated_Source\PSoC5/ADC_MIC.c ****     *
 430:Generated_Source\PSoC5/ADC_MIC.c ****     * Side Effects:
 431:Generated_Source\PSoC5/ADC_MIC.c ****     *  In Software Trigger sample mode, this function sets a software version of the
 432:Generated_Source\PSoC5/ADC_MIC.c ****     *  SOC to low level and switches the SOC source to hardware SOC input.
 433:Generated_Source\PSoC5/ADC_MIC.c ****     *
 434:Generated_Source\PSoC5/ADC_MIC.c ****     *******************************************************************************/
 435:Generated_Source\PSoC5/ADC_MIC.c ****     void ADC_MIC_StopConvert(void)
 436:Generated_Source\PSoC5/ADC_MIC.c ****     {
 437:Generated_Source\PSoC5/ADC_MIC.c ****         /* Stop all conversions */
 438:Generated_Source\PSoC5/ADC_MIC.c ****         ADC_MIC_SAR_CSR0_REG &= (uint8)~ADC_MIC_SAR_SOF_START_CONV;
 439:Generated_Source\PSoC5/ADC_MIC.c **** 
 440:Generated_Source\PSoC5/ADC_MIC.c ****         #if(ADC_MIC_DEFAULT_CONV_MODE != ADC_MIC__FREE_RUNNING)  /* If software triggered mode */
 441:Generated_Source\PSoC5/ADC_MIC.c ****             /* Return source to UDB for hardware SOF signal */
 442:Generated_Source\PSoC5/ADC_MIC.c ****             ADC_MIC_SAR_CSR0_REG |= ADC_MIC_SAR_MX_SOF_UDB;    /* source: UDB */
 443:Generated_Source\PSoC5/ADC_MIC.c ****         #endif /* End ADC_MIC_DEFAULT_CONV_MODE */
 444:Generated_Source\PSoC5/ADC_MIC.c **** 
 445:Generated_Source\PSoC5/ADC_MIC.c ****     }
 446:Generated_Source\PSoC5/ADC_MIC.c **** 
 447:Generated_Source\PSoC5/ADC_MIC.c **** #endif /* End ADC_MIC_DEFAULT_CONV_MODE != ADC_MIC__HARDWARE_TRIGGER */
 448:Generated_Source\PSoC5/ADC_MIC.c **** 
 449:Generated_Source\PSoC5/ADC_MIC.c **** 
 450:Generated_Source\PSoC5/ADC_MIC.c **** /*******************************************************************************
 451:Generated_Source\PSoC5/ADC_MIC.c **** * Function Name: ADC_MIC_IsEndConversion
 452:Generated_Source\PSoC5/ADC_MIC.c **** ********************************************************************************
 453:Generated_Source\PSoC5/ADC_MIC.c **** *
 454:Generated_Source\PSoC5/ADC_MIC.c **** * Summary:
 455:Generated_Source\PSoC5/ADC_MIC.c **** *  Immediately returns the status of the conversion or does not return
 456:Generated_Source\PSoC5/ADC_MIC.c **** *  (blocking) until the conversion completes, depending on the retMode
 457:Generated_Source\PSoC5/ADC_MIC.c **** *  parameter.
 458:Generated_Source\PSoC5/ADC_MIC.c **** *
 459:Generated_Source\PSoC5/ADC_MIC.c **** * Parameters:
 460:Generated_Source\PSoC5/ADC_MIC.c **** *  retMode:  Check conversion return mode.
ARM GAS  C:\Users\mgronber\AppData\Local\Temp\cc4wjjXu.s 			page 15


 461:Generated_Source\PSoC5/ADC_MIC.c **** *   ADC_MIC_RETURN_STATUS: Immediately returns the status. If the
 462:Generated_Source\PSoC5/ADC_MIC.c **** *     value returned is zero, the conversion is not complete, and this function
 463:Generated_Source\PSoC5/ADC_MIC.c **** *     should be retried until a nonzero result is returned.
 464:Generated_Source\PSoC5/ADC_MIC.c **** *   ADC_MIC_WAIT_FOR_RESULT: Does not return a result until the ADC
 465:Generated_Source\PSoC5/ADC_MIC.c **** *     conversion is complete.
 466:Generated_Source\PSoC5/ADC_MIC.c **** *
 467:Generated_Source\PSoC5/ADC_MIC.c **** * Return:
 468:Generated_Source\PSoC5/ADC_MIC.c **** *  (uint8)  0 =>  The ADC is still calculating the last result.
 469:Generated_Source\PSoC5/ADC_MIC.c **** *           1 =>  The last conversion is complete.
 470:Generated_Source\PSoC5/ADC_MIC.c **** *
 471:Generated_Source\PSoC5/ADC_MIC.c **** * Side Effects:
 472:Generated_Source\PSoC5/ADC_MIC.c **** *  This function reads the end of conversion status, which is cleared on read.
 473:Generated_Source\PSoC5/ADC_MIC.c **** *
 474:Generated_Source\PSoC5/ADC_MIC.c **** *******************************************************************************/
 475:Generated_Source\PSoC5/ADC_MIC.c **** uint8 ADC_MIC_IsEndConversion(uint8 retMode)
 476:Generated_Source\PSoC5/ADC_MIC.c **** {
 477:Generated_Source\PSoC5/ADC_MIC.c ****     uint8 status;
 478:Generated_Source\PSoC5/ADC_MIC.c **** 
 479:Generated_Source\PSoC5/ADC_MIC.c ****     do
 480:Generated_Source\PSoC5/ADC_MIC.c ****     {
 481:Generated_Source\PSoC5/ADC_MIC.c ****         status = ADC_MIC_SAR_CSR1_REG & ADC_MIC_SAR_EOF_1;
 482:Generated_Source\PSoC5/ADC_MIC.c ****     } while ((status != ADC_MIC_SAR_EOF_1) && (retMode == ADC_MIC_WAIT_FOR_RESULT));
 483:Generated_Source\PSoC5/ADC_MIC.c ****     /* If convertion complete, wait until EOF bit released */
 484:Generated_Source\PSoC5/ADC_MIC.c ****     if(status == ADC_MIC_SAR_EOF_1)
 485:Generated_Source\PSoC5/ADC_MIC.c ****     {
 486:Generated_Source\PSoC5/ADC_MIC.c ****         /* wait one ADC clock to let the EOC status bit release */
 487:Generated_Source\PSoC5/ADC_MIC.c ****         CyDelayUs(1u);
 488:Generated_Source\PSoC5/ADC_MIC.c ****         /* Do the unconditional read operation of the CSR1 register to make sure the EOC bit has be
 489:Generated_Source\PSoC5/ADC_MIC.c ****         CY_GET_REG8(ADC_MIC_SAR_CSR1_PTR);
 490:Generated_Source\PSoC5/ADC_MIC.c ****     }
 491:Generated_Source\PSoC5/ADC_MIC.c **** 
 492:Generated_Source\PSoC5/ADC_MIC.c ****     return(status);
 493:Generated_Source\PSoC5/ADC_MIC.c **** }
 494:Generated_Source\PSoC5/ADC_MIC.c **** 
 495:Generated_Source\PSoC5/ADC_MIC.c **** 
 496:Generated_Source\PSoC5/ADC_MIC.c **** /*******************************************************************************
 497:Generated_Source\PSoC5/ADC_MIC.c **** * Function Name: ADC_MIC_GetResult8
 498:Generated_Source\PSoC5/ADC_MIC.c **** ********************************************************************************
 499:Generated_Source\PSoC5/ADC_MIC.c **** *
 500:Generated_Source\PSoC5/ADC_MIC.c **** * Summary:
 501:Generated_Source\PSoC5/ADC_MIC.c **** *  Returns the result of an 8-bit conversion. If the resolution is set greater
 502:Generated_Source\PSoC5/ADC_MIC.c **** *  than 8 bits, the function returns the LSB of the result.
 503:Generated_Source\PSoC5/ADC_MIC.c **** *  ADC_MIC_IsEndConversion() should be called to verify that the data
 504:Generated_Source\PSoC5/ADC_MIC.c **** *   sample is ready.
 505:Generated_Source\PSoC5/ADC_MIC.c **** *
 506:Generated_Source\PSoC5/ADC_MIC.c **** * Parameters:
 507:Generated_Source\PSoC5/ADC_MIC.c **** *  None.
 508:Generated_Source\PSoC5/ADC_MIC.c **** *
 509:Generated_Source\PSoC5/ADC_MIC.c **** * Return:
 510:Generated_Source\PSoC5/ADC_MIC.c **** *  The LSB of the last ADC conversion.
 511:Generated_Source\PSoC5/ADC_MIC.c **** *
 512:Generated_Source\PSoC5/ADC_MIC.c **** * Global Variables:
 513:Generated_Source\PSoC5/ADC_MIC.c **** *  ADC_MIC_shift - used to convert the ADC counts to the 2s
 514:Generated_Source\PSoC5/ADC_MIC.c **** *  compliment form.
 515:Generated_Source\PSoC5/ADC_MIC.c **** *
 516:Generated_Source\PSoC5/ADC_MIC.c **** * Side Effects:
 517:Generated_Source\PSoC5/ADC_MIC.c **** *  Converts the ADC counts to the 2s complement form.
ARM GAS  C:\Users\mgronber\AppData\Local\Temp\cc4wjjXu.s 			page 16


 518:Generated_Source\PSoC5/ADC_MIC.c **** *
 519:Generated_Source\PSoC5/ADC_MIC.c **** *******************************************************************************/
 520:Generated_Source\PSoC5/ADC_MIC.c **** int8 ADC_MIC_GetResult8( void )
 521:Generated_Source\PSoC5/ADC_MIC.c **** {
 522:Generated_Source\PSoC5/ADC_MIC.c ****     return( (int8)ADC_MIC_SAR_WRK0_REG - (int8)ADC_MIC_shift);
 523:Generated_Source\PSoC5/ADC_MIC.c **** }
 524:Generated_Source\PSoC5/ADC_MIC.c **** 
 525:Generated_Source\PSoC5/ADC_MIC.c **** 
 526:Generated_Source\PSoC5/ADC_MIC.c **** /*******************************************************************************
 527:Generated_Source\PSoC5/ADC_MIC.c **** * Function Name: ADC_MIC_GetResult16
 528:Generated_Source\PSoC5/ADC_MIC.c **** ********************************************************************************
 529:Generated_Source\PSoC5/ADC_MIC.c **** *
 530:Generated_Source\PSoC5/ADC_MIC.c **** * Summary:
 531:Generated_Source\PSoC5/ADC_MIC.c **** *  Returns a 16-bit result for a conversion with a result that has a resolution
 532:Generated_Source\PSoC5/ADC_MIC.c **** *  of 8 to 12 bits.
 533:Generated_Source\PSoC5/ADC_MIC.c **** *  ADC_MIC_IsEndConversion() should be called to verify that the data
 534:Generated_Source\PSoC5/ADC_MIC.c **** *   sample is ready
 535:Generated_Source\PSoC5/ADC_MIC.c **** *
 536:Generated_Source\PSoC5/ADC_MIC.c **** * Parameters:
 537:Generated_Source\PSoC5/ADC_MIC.c **** *  None.
 538:Generated_Source\PSoC5/ADC_MIC.c **** *
 539:Generated_Source\PSoC5/ADC_MIC.c **** * Return:
 540:Generated_Source\PSoC5/ADC_MIC.c **** *  The 16-bit result of the last ADC conversion
 541:Generated_Source\PSoC5/ADC_MIC.c **** *
 542:Generated_Source\PSoC5/ADC_MIC.c **** * Global Variables:
 543:Generated_Source\PSoC5/ADC_MIC.c **** *  ADC_MIC_shift - used to convert the ADC counts to the 2s
 544:Generated_Source\PSoC5/ADC_MIC.c **** *  compliment form.
 545:Generated_Source\PSoC5/ADC_MIC.c **** *
 546:Generated_Source\PSoC5/ADC_MIC.c **** * Side Effects:
 547:Generated_Source\PSoC5/ADC_MIC.c **** *  Converts the ADC counts to the 2s complement form.
 548:Generated_Source\PSoC5/ADC_MIC.c **** *
 549:Generated_Source\PSoC5/ADC_MIC.c **** *******************************************************************************/
 550:Generated_Source\PSoC5/ADC_MIC.c **** int16 ADC_MIC_GetResult16( void )
 551:Generated_Source\PSoC5/ADC_MIC.c **** {
 552:Generated_Source\PSoC5/ADC_MIC.c ****     uint16 res;
 553:Generated_Source\PSoC5/ADC_MIC.c **** 
 554:Generated_Source\PSoC5/ADC_MIC.c ****     res = CY_GET_REG16(ADC_MIC_SAR_WRK_PTR);
 555:Generated_Source\PSoC5/ADC_MIC.c **** 
 556:Generated_Source\PSoC5/ADC_MIC.c ****     return( (int16)res - ADC_MIC_shift );
 557:Generated_Source\PSoC5/ADC_MIC.c **** }
 558:Generated_Source\PSoC5/ADC_MIC.c **** 
 559:Generated_Source\PSoC5/ADC_MIC.c **** 
 560:Generated_Source\PSoC5/ADC_MIC.c **** /*******************************************************************************
 561:Generated_Source\PSoC5/ADC_MIC.c **** * Function Name: ADC_MIC_SetOffset
 562:Generated_Source\PSoC5/ADC_MIC.c **** ********************************************************************************
 563:Generated_Source\PSoC5/ADC_MIC.c **** *
 564:Generated_Source\PSoC5/ADC_MIC.c **** * Summary:
 565:Generated_Source\PSoC5/ADC_MIC.c **** *  Sets the ADC offset, which is used by ADC_MIC_CountsTo_Volts(),
 566:Generated_Source\PSoC5/ADC_MIC.c **** *  ADC_MIC_CountsTo_mVolts(), and ADC_MIC_CountsTo_uVolts()
 567:Generated_Source\PSoC5/ADC_MIC.c **** *  to subtract the offset from the given reading before calculating the voltage
 568:Generated_Source\PSoC5/ADC_MIC.c **** *  conversion.
 569:Generated_Source\PSoC5/ADC_MIC.c **** *
 570:Generated_Source\PSoC5/ADC_MIC.c **** * Parameters:
 571:Generated_Source\PSoC5/ADC_MIC.c **** *  int16: This value is measured when the inputs are shorted or connected to
 572:Generated_Source\PSoC5/ADC_MIC.c ****    the same input voltage.
 573:Generated_Source\PSoC5/ADC_MIC.c **** *
 574:Generated_Source\PSoC5/ADC_MIC.c **** * Return:
ARM GAS  C:\Users\mgronber\AppData\Local\Temp\cc4wjjXu.s 			page 17


 575:Generated_Source\PSoC5/ADC_MIC.c **** *  None.
 576:Generated_Source\PSoC5/ADC_MIC.c **** *
 577:Generated_Source\PSoC5/ADC_MIC.c **** * Global Variables:
 578:Generated_Source\PSoC5/ADC_MIC.c **** *  The ADC_MIC_offset variable modified. This variable is used for
 579:Generated_Source\PSoC5/ADC_MIC.c **** *  offset calibration purpose.
 580:Generated_Source\PSoC5/ADC_MIC.c **** *  Affects the ADC_MIC_CountsTo_Volts,
 581:Generated_Source\PSoC5/ADC_MIC.c **** *  ADC_MIC_CountsTo_mVolts, ADC_MIC_CountsTo_uVolts functions
 582:Generated_Source\PSoC5/ADC_MIC.c **** *  by subtracting the given offset.
 583:Generated_Source\PSoC5/ADC_MIC.c **** *
 584:Generated_Source\PSoC5/ADC_MIC.c **** *******************************************************************************/
 585:Generated_Source\PSoC5/ADC_MIC.c **** void ADC_MIC_SetOffset(int16 offset)
 586:Generated_Source\PSoC5/ADC_MIC.c **** {
 587:Generated_Source\PSoC5/ADC_MIC.c ****     ADC_MIC_offset = offset;
 588:Generated_Source\PSoC5/ADC_MIC.c **** }
 589:Generated_Source\PSoC5/ADC_MIC.c **** 
 590:Generated_Source\PSoC5/ADC_MIC.c **** 
 591:Generated_Source\PSoC5/ADC_MIC.c **** /*******************************************************************************
 592:Generated_Source\PSoC5/ADC_MIC.c **** * Function Name: ADC_MIC_CalcGain
 593:Generated_Source\PSoC5/ADC_MIC.c **** ********************************************************************************
 594:Generated_Source\PSoC5/ADC_MIC.c **** *
 595:Generated_Source\PSoC5/ADC_MIC.c **** * Summary:
 596:Generated_Source\PSoC5/ADC_MIC.c **** *  This function calculates the ADC gain in counts per 10 volt.
 597:Generated_Source\PSoC5/ADC_MIC.c **** *
 598:Generated_Source\PSoC5/ADC_MIC.c **** * Parameters:
 599:Generated_Source\PSoC5/ADC_MIC.c **** *  uint8: resolution
 600:Generated_Source\PSoC5/ADC_MIC.c **** *
 601:Generated_Source\PSoC5/ADC_MIC.c **** * Return:
 602:Generated_Source\PSoC5/ADC_MIC.c **** *  None.
 603:Generated_Source\PSoC5/ADC_MIC.c **** *
 604:Generated_Source\PSoC5/ADC_MIC.c **** * Global Variables:
 605:Generated_Source\PSoC5/ADC_MIC.c **** *  ADC_MIC_shift variable initialized. This variable is used to
 606:Generated_Source\PSoC5/ADC_MIC.c **** *  convert the ADC counts to the 2s compliment form.
 607:Generated_Source\PSoC5/ADC_MIC.c **** *  ADC_MIC_countsPer10Volt variable initialized. This variable is used
 608:Generated_Source\PSoC5/ADC_MIC.c **** *  for gain calibration purpose.
 609:Generated_Source\PSoC5/ADC_MIC.c **** *
 610:Generated_Source\PSoC5/ADC_MIC.c **** *******************************************************************************/
 611:Generated_Source\PSoC5/ADC_MIC.c **** static void ADC_MIC_CalcGain( uint8 resolution )
 612:Generated_Source\PSoC5/ADC_MIC.c **** {
 613:Generated_Source\PSoC5/ADC_MIC.c ****     int32 counts;
 614:Generated_Source\PSoC5/ADC_MIC.c ****     #if(!((ADC_MIC_DEFAULT_RANGE == ADC_MIC__VSS_TO_VREF) || \
 615:Generated_Source\PSoC5/ADC_MIC.c ****          (ADC_MIC_DEFAULT_RANGE == ADC_MIC__VSSA_TO_VDDA) || \
 616:Generated_Source\PSoC5/ADC_MIC.c ****          (ADC_MIC_DEFAULT_RANGE == ADC_MIC__VSSA_TO_VDAC)) )
 617:Generated_Source\PSoC5/ADC_MIC.c ****         uint16 diff_zero;
 618:Generated_Source\PSoC5/ADC_MIC.c ****     #endif /* End ADC_MIC_DEFAULT_RANGE */
 619:Generated_Source\PSoC5/ADC_MIC.c **** 
 620:Generated_Source\PSoC5/ADC_MIC.c ****     switch (resolution)
 309              		.loc 1 620 0
 310 001a 0A2C     		cmp	r4, #10
 311              	.LBE5:
 312              	.LBE4:
 362:Generated_Source\PSoC5/ADC_MIC.c **** 
 313              		.loc 1 362 0
 314 001c 1370     		strb	r3, [r2]
 315              	.LVL19:
 316              	.LBB9:
 317              	.LBB6:
 318              		.loc 1 620 0
ARM GAS  C:\Users\mgronber\AppData\Local\Temp\cc4wjjXu.s 			page 18


 319 001e 17D0     		beq	.L18
 320 0020 0C2C     		cmp	r4, #12
 321 0022 24D0     		beq	.L22
 322 0024 082C     		cmp	r4, #8
 323 0026 0FD0     		beq	.L20
 324              	.LVL20:
 621:Generated_Source\PSoC5/ADC_MIC.c ****     {
 622:Generated_Source\PSoC5/ADC_MIC.c ****         case (uint8)ADC_MIC__BITS_12:
 623:Generated_Source\PSoC5/ADC_MIC.c ****             counts = (int32)ADC_MIC_SAR_WRK_MAX_12BIT;
 624:Generated_Source\PSoC5/ADC_MIC.c ****             #if(!((ADC_MIC_DEFAULT_RANGE == ADC_MIC__VSS_TO_VREF) || \
 625:Generated_Source\PSoC5/ADC_MIC.c ****                  (ADC_MIC_DEFAULT_RANGE == ADC_MIC__VSSA_TO_VDDA) || \
 626:Generated_Source\PSoC5/ADC_MIC.c ****                  (ADC_MIC_DEFAULT_RANGE == ADC_MIC__VSSA_TO_VDAC)) )
 627:Generated_Source\PSoC5/ADC_MIC.c ****                 diff_zero = ADC_MIC_SAR_DIFF_SHIFT;
 628:Generated_Source\PSoC5/ADC_MIC.c ****             #endif /* End ADC_MIC_DEFAULT_RANGE */
 629:Generated_Source\PSoC5/ADC_MIC.c ****             break;
 630:Generated_Source\PSoC5/ADC_MIC.c ****         case (uint8)ADC_MIC__BITS_10:
 631:Generated_Source\PSoC5/ADC_MIC.c ****             counts = (int32)ADC_MIC_SAR_WRK_MAX_10BIT;
 632:Generated_Source\PSoC5/ADC_MIC.c ****             #if(!((ADC_MIC_DEFAULT_RANGE == ADC_MIC__VSS_TO_VREF) || \
 633:Generated_Source\PSoC5/ADC_MIC.c ****                  (ADC_MIC_DEFAULT_RANGE == ADC_MIC__VSSA_TO_VDDA) || \
 634:Generated_Source\PSoC5/ADC_MIC.c ****                  (ADC_MIC_DEFAULT_RANGE == ADC_MIC__VSSA_TO_VDAC)) )
 635:Generated_Source\PSoC5/ADC_MIC.c ****                 diff_zero = ADC_MIC_SAR_DIFF_SHIFT >> 2u;
 636:Generated_Source\PSoC5/ADC_MIC.c ****             #endif /* End ADC_MIC_DEFAULT_RANGE */
 637:Generated_Source\PSoC5/ADC_MIC.c ****             break;
 638:Generated_Source\PSoC5/ADC_MIC.c ****         case (uint8)ADC_MIC__BITS_8:
 639:Generated_Source\PSoC5/ADC_MIC.c ****             counts = (int32)ADC_MIC_SAR_WRK_MAX_8BIT;
 640:Generated_Source\PSoC5/ADC_MIC.c ****             #if(!((ADC_MIC_DEFAULT_RANGE == ADC_MIC__VSS_TO_VREF) || \
 641:Generated_Source\PSoC5/ADC_MIC.c ****                  (ADC_MIC_DEFAULT_RANGE == ADC_MIC__VSSA_TO_VDDA) || \
 642:Generated_Source\PSoC5/ADC_MIC.c ****                  (ADC_MIC_DEFAULT_RANGE == ADC_MIC__VSSA_TO_VDAC)) )
 643:Generated_Source\PSoC5/ADC_MIC.c ****                 diff_zero = ADC_MIC_SAR_DIFF_SHIFT >> 4u;
 644:Generated_Source\PSoC5/ADC_MIC.c ****             #endif /* End ADC_MIC_DEFAULT_RANGE */
 645:Generated_Source\PSoC5/ADC_MIC.c ****             break;
 646:Generated_Source\PSoC5/ADC_MIC.c ****         default: /* Halt CPU in debug mode if resolution is out of valid range */
 647:Generated_Source\PSoC5/ADC_MIC.c ****             counts = 0;
 648:Generated_Source\PSoC5/ADC_MIC.c ****             #if(!((ADC_MIC_DEFAULT_RANGE == ADC_MIC__VSS_TO_VREF) || \
 649:Generated_Source\PSoC5/ADC_MIC.c ****                  (ADC_MIC_DEFAULT_RANGE == ADC_MIC__VSSA_TO_VDDA) || \
 650:Generated_Source\PSoC5/ADC_MIC.c ****                  (ADC_MIC_DEFAULT_RANGE == ADC_MIC__VSSA_TO_VDAC)) )
 651:Generated_Source\PSoC5/ADC_MIC.c ****                 diff_zero = 0u;
 652:Generated_Source\PSoC5/ADC_MIC.c ****             #endif /* End ADC_MIC_DEFAULT_RANGE */
 653:Generated_Source\PSoC5/ADC_MIC.c ****             CYASSERT(0u != 0u);
 325              		.loc 1 653 0
 326 0028 0020     		movs	r0, #0
 327 002a FFF7FEFF 		bl	CyHalt
 328              	.LVL21:
 329 002e 0023     		movs	r3, #0
 330 0030 1A46     		mov	r2, r3
 331              	.LVL22:
 332              	.L19:
 654:Generated_Source\PSoC5/ADC_MIC.c ****             break;
 655:Generated_Source\PSoC5/ADC_MIC.c ****     }
 656:Generated_Source\PSoC5/ADC_MIC.c ****     ADC_MIC_countsPerVolt = 0; /* Clear obsolete variable */
 333              		.loc 1 656 0
 334 0032 124C     		ldr	r4, .L30+4
 657:Generated_Source\PSoC5/ADC_MIC.c ****     /* Calculate gain in counts per 10 volts with rounding */
 658:Generated_Source\PSoC5/ADC_MIC.c ****     ADC_MIC_countsPer10Volt = (((counts * ADC_MIC_10MV_COUNTS) +
 335              		.loc 1 658 0
 336 0034 1248     		ldr	r0, .L30+8
 659:Generated_Source\PSoC5/ADC_MIC.c ****                         ADC_MIC_DEFAULT_REF_VOLTAGE_MV) / (ADC_MIC_DEFAULT_REF_VOLTAGE_MV * 2));
ARM GAS  C:\Users\mgronber\AppData\Local\Temp\cc4wjjXu.s 			page 19


 660:Generated_Source\PSoC5/ADC_MIC.c **** 
 661:Generated_Source\PSoC5/ADC_MIC.c ****     #if( (ADC_MIC_DEFAULT_RANGE == ADC_MIC__VSS_TO_VREF) || \
 662:Generated_Source\PSoC5/ADC_MIC.c ****          (ADC_MIC_DEFAULT_RANGE == ADC_MIC__VSSA_TO_VDDA) || \
 663:Generated_Source\PSoC5/ADC_MIC.c ****          (ADC_MIC_DEFAULT_RANGE == ADC_MIC__VSSA_TO_VDAC) )
 664:Generated_Source\PSoC5/ADC_MIC.c ****         ADC_MIC_shift = 0;
 665:Generated_Source\PSoC5/ADC_MIC.c ****     #else
 666:Generated_Source\PSoC5/ADC_MIC.c ****         ADC_MIC_shift = diff_zero;
 337              		.loc 1 666 0
 338 0036 1349     		ldr	r1, .L30+12
 656:Generated_Source\PSoC5/ADC_MIC.c ****     /* Calculate gain in counts per 10 volts with rounding */
 339              		.loc 1 656 0
 340 0038 0025     		movs	r5, #0
 341 003a 2580     		strh	r5, [r4]	@ movhi
 658:Generated_Source\PSoC5/ADC_MIC.c ****                         ADC_MIC_DEFAULT_REF_VOLTAGE_MV) / (ADC_MIC_DEFAULT_REF_VOLTAGE_MV * 2));
 342              		.loc 1 658 0
 343 003c 0260     		str	r2, [r0]
 344              		.loc 1 666 0
 345 003e 0B80     		strh	r3, [r1]	@ movhi
 346 0040 38BD     		pop	{r3, r4, r5, pc}
 347              	.LVL23:
 348              	.L16:
 349              	.LBE6:
 350              	.LBE9:
 362:Generated_Source\PSoC5/ADC_MIC.c **** 
 351              		.loc 1 362 0
 352 0042 0D4B     		ldr	r3, .L30
 353 0044 4222     		movs	r2, #66
 354 0046 1A70     		strb	r2, [r3]
 355              	.LVL24:
 356              	.L20:
 357              	.LBB10:
 358              	.LBB7:
 359 0048 8023     		movs	r3, #128
 360 004a 40F2E242 		movw	r2, #1250
 361 004e F0E7     		b	.L19
 362              	.LVL25:
 363              	.L18:
 620:Generated_Source\PSoC5/ADC_MIC.c ****     {
 364              		.loc 1 620 0
 365 0050 4FF40073 		mov	r3, #512
 366              	.LVL26:
 367 0054 41F28832 		movw	r2, #5000
 368              	.LVL27:
 369 0058 EBE7     		b	.L19
 370              	.LVL28:
 371              	.L15:
 372              	.LBE7:
 373              	.LBE10:
 362:Generated_Source\PSoC5/ADC_MIC.c **** 
 374              		.loc 1 362 0
 375 005a 074B     		ldr	r3, .L30
 376 005c C222     		movs	r2, #194
 377 005e 1A70     		strb	r2, [r3]
 378              	.LVL29:
 379 0060 4FF40063 		mov	r3, #2048
 380 0064 44F62062 		movw	r2, #20000
 381 0068 E3E7     		b	.L19
ARM GAS  C:\Users\mgronber\AppData\Local\Temp\cc4wjjXu.s 			page 20


 382              	.LVL30:
 383              	.L21:
 351:Generated_Source\PSoC5/ADC_MIC.c ****             break;
 384              		.loc 1 351 0
 385 006a 8223     		movs	r3, #130
 386 006c D4E7     		b	.L14
 387              	.LVL31:
 388              	.L22:
 389              	.LBB11:
 390              	.LBB8:
 620:Generated_Source\PSoC5/ADC_MIC.c ****     {
 391              		.loc 1 620 0
 392 006e 44F62062 		movw	r2, #20000
 393 0072 4FF40063 		mov	r3, #2048
 394              	.LVL32:
 395 0076 DCE7     		b	.L19
 396              	.L31:
 397              		.align	2
 398              	.L30:
 399 0078 02590040 		.word	1073764610
 400 007c 00000000 		.word	ADC_MIC_countsPerVolt
 401 0080 00000000 		.word	ADC_MIC_countsPer10Volt
 402 0084 00000000 		.word	ADC_MIC_shift
 403              	.LBE8:
 404              	.LBE11:
 405              		.cfi_endproc
 406              	.LFE5:
 407              		.size	ADC_MIC_SetResolution, .-ADC_MIC_SetResolution
 408              		.section	.text.ADC_MIC_Init,"ax",%progbits
 409              		.align	2
 410              		.global	ADC_MIC_Init
 411              		.thumb
 412              		.thumb_func
 413              		.type	ADC_MIC_Init, %function
 414              	ADC_MIC_Init:
 415              	.LFB1:
 107:Generated_Source\PSoC5/ADC_MIC.c **** 
 416              		.loc 1 107 0
 417              		.cfi_startproc
 418              		@ args = 0, pretend = 0, frame = 0
 419              		@ frame_needed = 0, uses_anonymous_args = 0
 420 0000 08B5     		push	{r3, lr}
 421              		.cfi_def_cfa_offset 8
 422              		.cfi_offset 3, -8
 423              		.cfi_offset 14, -4
 111:Generated_Source\PSoC5/ADC_MIC.c ****     #endif /* End ADC_MIC_DEFAULT_INTERNAL_CLK */
 424              		.loc 1 111 0
 425 0002 1020     		movs	r0, #16
 426 0004 FFF7FEFF 		bl	ADC_MIC_theACLK_SetModeRegister
 427              	.LVL33:
 116:Generated_Source\PSoC5/ADC_MIC.c ****         (void)CyIntSetVector(ADC_MIC_INTC_NUMBER, &ADC_MIC_ISR);
 428              		.loc 1 116 0
 429 0008 0220     		movs	r0, #2
 430 000a 0721     		movs	r1, #7
 431 000c FFF7FEFF 		bl	CyIntSetPriority
 432              	.LVL34:
 117:Generated_Source\PSoC5/ADC_MIC.c ****     #endif   /* End ADC_MIC_IRQ_REMOVE */
ARM GAS  C:\Users\mgronber\AppData\Local\Temp\cc4wjjXu.s 			page 21


 433              		.loc 1 117 0
 434 0010 0749     		ldr	r1, .L34
 435 0012 0220     		movs	r0, #2
 436 0014 FFF7FEFF 		bl	CyIntSetVector
 437              	.LVL35:
 121:Generated_Source\PSoC5/ADC_MIC.c **** 
 438              		.loc 1 121 0
 439 0018 064A     		ldr	r2, .L34+4
 124:Generated_Source\PSoC5/ADC_MIC.c ****     ADC_MIC_offset = 0;
 440              		.loc 1 124 0
 441 001a 0C20     		movs	r0, #12
 121:Generated_Source\PSoC5/ADC_MIC.c **** 
 442              		.loc 1 121 0
 443 001c 1378     		ldrb	r3, [r2]	@ zero_extendqisi2
 444 001e 43F00603 		orr	r3, r3, #6
 445 0022 1370     		strb	r3, [r2]
 124:Generated_Source\PSoC5/ADC_MIC.c ****     ADC_MIC_offset = 0;
 446              		.loc 1 124 0
 447 0024 FFF7FEFF 		bl	ADC_MIC_SetResolution
 448              	.LVL36:
 125:Generated_Source\PSoC5/ADC_MIC.c **** }
 449              		.loc 1 125 0
 450 0028 034B     		ldr	r3, .L34+8
 451 002a 0022     		movs	r2, #0
 452 002c 1A80     		strh	r2, [r3]	@ movhi
 453 002e 08BD     		pop	{r3, pc}
 454              	.L35:
 455              		.align	2
 456              	.L34:
 457 0030 00000000 		.word	ADC_MIC_ISR
 458 0034 01590040 		.word	1073764609
 459 0038 00000000 		.word	ADC_MIC_offset
 460              		.cfi_endproc
 461              	.LFE1:
 462              		.size	ADC_MIC_Init, .-ADC_MIC_Init
 463              		.section	.text.ADC_MIC_Start,"ax",%progbits
 464              		.align	2
 465              		.global	ADC_MIC_Start
 466              		.thumb
 467              		.thumb_func
 468              		.type	ADC_MIC_Start, %function
 469              	ADC_MIC_Start:
 470              	.LFB0:
  75:Generated_Source\PSoC5/ADC_MIC.c **** 
 471              		.loc 1 75 0
 472              		.cfi_startproc
 473              		@ args = 0, pretend = 0, frame = 0
 474              		@ frame_needed = 0, uses_anonymous_args = 0
 475 0000 10B5     		push	{r4, lr}
 476              		.cfi_def_cfa_offset 8
 477              		.cfi_offset 4, -8
 478              		.cfi_offset 14, -4
  78:Generated_Source\PSoC5/ADC_MIC.c ****     {
 479              		.loc 1 78 0
 480 0002 054C     		ldr	r4, .L39
 481 0004 2378     		ldrb	r3, [r4]	@ zero_extendqisi2
 482 0006 1BB9     		cbnz	r3, .L37
ARM GAS  C:\Users\mgronber\AppData\Local\Temp\cc4wjjXu.s 			page 22


  80:Generated_Source\PSoC5/ADC_MIC.c ****         ADC_MIC_initVar = 1u;
 483              		.loc 1 80 0
 484 0008 FFF7FEFF 		bl	ADC_MIC_Init
 485              	.LVL37:
  81:Generated_Source\PSoC5/ADC_MIC.c ****     }
 486              		.loc 1 81 0
 487 000c 0123     		movs	r3, #1
 488 000e 2370     		strb	r3, [r4]
 489              	.L37:
  84:Generated_Source\PSoC5/ADC_MIC.c **** 
 490              		.loc 1 84 0
 491 0010 BDE81040 		pop	{r4, lr}
 492              		.cfi_restore 14
 493              		.cfi_restore 4
 494              		.cfi_def_cfa_offset 0
  83:Generated_Source\PSoC5/ADC_MIC.c **** }
 495              		.loc 1 83 0
 496 0014 FFF7FEBF 		b	ADC_MIC_Enable
 497              	.LVL38:
 498              	.L40:
 499              		.align	2
 500              	.L39:
 501 0018 00000000 		.word	.LANCHOR0
 502              		.cfi_endproc
 503              	.LFE0:
 504              		.size	ADC_MIC_Start, .-ADC_MIC_Start
 505              		.section	.text.ADC_MIC_StartConvert,"ax",%progbits
 506              		.align	2
 507              		.global	ADC_MIC_StartConvert
 508              		.thumb
 509              		.thumb_func
 510              		.type	ADC_MIC_StartConvert, %function
 511              	ADC_MIC_StartConvert:
 512              	.LFB6:
 402:Generated_Source\PSoC5/ADC_MIC.c ****         #if(ADC_MIC_DEFAULT_CONV_MODE != ADC_MIC__FREE_RUNNING)  /* If software triggered mode */
 513              		.loc 1 402 0
 514              		.cfi_startproc
 515              		@ args = 0, pretend = 0, frame = 0
 516              		@ frame_needed = 0, uses_anonymous_args = 0
 517              		@ link register save eliminated.
 408:Generated_Source\PSoC5/ADC_MIC.c ****     }
 518              		.loc 1 408 0
 519 0000 024A     		ldr	r2, .L42
 520 0002 1378     		ldrb	r3, [r2]	@ zero_extendqisi2
 521 0004 43F00103 		orr	r3, r3, #1
 522 0008 1370     		strb	r3, [r2]
 523 000a 7047     		bx	lr
 524              	.L43:
 525              		.align	2
 526              	.L42:
 527 000c 00590040 		.word	1073764608
 528              		.cfi_endproc
 529              	.LFE6:
 530              		.size	ADC_MIC_StartConvert, .-ADC_MIC_StartConvert
 531              		.section	.text.ADC_MIC_StopConvert,"ax",%progbits
 532              		.align	2
 533              		.global	ADC_MIC_StopConvert
ARM GAS  C:\Users\mgronber\AppData\Local\Temp\cc4wjjXu.s 			page 23


 534              		.thumb
 535              		.thumb_func
 536              		.type	ADC_MIC_StopConvert, %function
 537              	ADC_MIC_StopConvert:
 538              	.LFB7:
 436:Generated_Source\PSoC5/ADC_MIC.c ****         /* Stop all conversions */
 539              		.loc 1 436 0
 540              		.cfi_startproc
 541              		@ args = 0, pretend = 0, frame = 0
 542              		@ frame_needed = 0, uses_anonymous_args = 0
 543              		@ link register save eliminated.
 438:Generated_Source\PSoC5/ADC_MIC.c **** 
 544              		.loc 1 438 0
 545 0000 024A     		ldr	r2, .L45
 546 0002 1378     		ldrb	r3, [r2]	@ zero_extendqisi2
 547 0004 03F0FE03 		and	r3, r3, #254
 548 0008 1370     		strb	r3, [r2]
 549 000a 7047     		bx	lr
 550              	.L46:
 551              		.align	2
 552              	.L45:
 553 000c 00590040 		.word	1073764608
 554              		.cfi_endproc
 555              	.LFE7:
 556              		.size	ADC_MIC_StopConvert, .-ADC_MIC_StopConvert
 557              		.section	.text.ADC_MIC_IsEndConversion,"ax",%progbits
 558              		.align	2
 559              		.global	ADC_MIC_IsEndConversion
 560              		.thumb
 561              		.thumb_func
 562              		.type	ADC_MIC_IsEndConversion, %function
 563              	ADC_MIC_IsEndConversion:
 564              	.LFB8:
 476:Generated_Source\PSoC5/ADC_MIC.c ****     uint8 status;
 565              		.loc 1 476 0
 566              		.cfi_startproc
 567              		@ args = 0, pretend = 0, frame = 0
 568              		@ frame_needed = 0, uses_anonymous_args = 0
 569              	.LVL39:
 570 0000 38B5     		push	{r3, r4, r5, lr}
 571              		.cfi_def_cfa_offset 16
 572              		.cfi_offset 3, -16
 573              		.cfi_offset 4, -12
 574              		.cfi_offset 5, -8
 575              		.cfi_offset 14, -4
 481:Generated_Source\PSoC5/ADC_MIC.c ****     } while ((status != ADC_MIC_SAR_EOF_1) && (retMode == ADC_MIC_WAIT_FOR_RESULT));
 576              		.loc 1 481 0
 577 0002 084A     		ldr	r2, .L57
 578 0004 00E0     		b	.L49
 579              	.LVL40:
 580              	.L56:
 482:Generated_Source\PSoC5/ADC_MIC.c ****     /* If convertion complete, wait until EOF bit released */
 581              		.loc 1 482 0 discriminator 1
 582 0006 50B9     		cbnz	r0, .L55
 583              	.LVL41:
 584              	.L49:
 481:Generated_Source\PSoC5/ADC_MIC.c ****     } while ((status != ADC_MIC_SAR_EOF_1) && (retMode == ADC_MIC_WAIT_FOR_RESULT));
ARM GAS  C:\Users\mgronber\AppData\Local\Temp\cc4wjjXu.s 			page 24


 585              		.loc 1 481 0 discriminator 2
 586 0008 1378     		ldrb	r3, [r2]	@ zero_extendqisi2
 587              	.LVL42:
 588 000a 064D     		ldr	r5, .L57
 482:Generated_Source\PSoC5/ADC_MIC.c ****     /* If convertion complete, wait until EOF bit released */
 589              		.loc 1 482 0 discriminator 2
 590 000c 13F00104 		ands	r4, r3, #1
 591 0010 F9D0     		beq	.L56
 487:Generated_Source\PSoC5/ADC_MIC.c ****         /* Do the unconditional read operation of the CSR1 register to make sure the EOC bit has be
 592              		.loc 1 487 0
 593 0012 2046     		mov	r0, r4
 594              	.LVL43:
 595 0014 FFF7FEFF 		bl	CyDelayUs
 596              	.LVL44:
 489:Generated_Source\PSoC5/ADC_MIC.c ****     }
 597              		.loc 1 489 0
 598 0018 2B78     		ldrb	r3, [r5]	@ zero_extendqisi2
 493:Generated_Source\PSoC5/ADC_MIC.c **** 
 599              		.loc 1 493 0
 600 001a 2046     		mov	r0, r4
 601 001c 38BD     		pop	{r3, r4, r5, pc}
 602              	.LVL45:
 603              	.L55:
 604 001e 0024     		movs	r4, #0
 605 0020 2046     		mov	r0, r4
 606              	.LVL46:
 607 0022 38BD     		pop	{r3, r4, r5, pc}
 608              	.LVL47:
 609              	.L58:
 610              		.align	2
 611              	.L57:
 612 0024 01590040 		.word	1073764609
 613              		.cfi_endproc
 614              	.LFE8:
 615              		.size	ADC_MIC_IsEndConversion, .-ADC_MIC_IsEndConversion
 616              		.section	.text.ADC_MIC_GetResult8,"ax",%progbits
 617              		.align	2
 618              		.global	ADC_MIC_GetResult8
 619              		.thumb
 620              		.thumb_func
 621              		.type	ADC_MIC_GetResult8, %function
 622              	ADC_MIC_GetResult8:
 623              	.LFB9:
 521:Generated_Source\PSoC5/ADC_MIC.c ****     return( (int8)ADC_MIC_SAR_WRK0_REG - (int8)ADC_MIC_shift);
 624              		.loc 1 521 0
 625              		.cfi_startproc
 626              		@ args = 0, pretend = 0, frame = 0
 627              		@ frame_needed = 0, uses_anonymous_args = 0
 628              		@ link register save eliminated.
 522:Generated_Source\PSoC5/ADC_MIC.c **** }
 629              		.loc 1 522 0
 630 0000 034A     		ldr	r2, .L60
 631 0002 044B     		ldr	r3, .L60+4
 632 0004 1B78     		ldrb	r3, [r3]	@ zero_extendqisi2
 633 0006 1088     		ldrh	r0, [r2]
 634 0008 181A     		subs	r0, r3, r0
 523:Generated_Source\PSoC5/ADC_MIC.c **** 
ARM GAS  C:\Users\mgronber\AppData\Local\Temp\cc4wjjXu.s 			page 25


 635              		.loc 1 523 0
 636 000a 40B2     		sxtb	r0, r0
 637 000c 7047     		bx	lr
 638              	.L61:
 639 000e 00BF     		.align	2
 640              	.L60:
 641 0010 00000000 		.word	ADC_MIC_shift
 642 0014 A05B0040 		.word	1073765280
 643              		.cfi_endproc
 644              	.LFE9:
 645              		.size	ADC_MIC_GetResult8, .-ADC_MIC_GetResult8
 646              		.section	.text.ADC_MIC_GetResult16,"ax",%progbits
 647              		.align	2
 648              		.global	ADC_MIC_GetResult16
 649              		.thumb
 650              		.thumb_func
 651              		.type	ADC_MIC_GetResult16, %function
 652              	ADC_MIC_GetResult16:
 653              	.LFB10:
 551:Generated_Source\PSoC5/ADC_MIC.c ****     uint16 res;
 654              		.loc 1 551 0
 655              		.cfi_startproc
 656              		@ args = 0, pretend = 0, frame = 0
 657              		@ frame_needed = 0, uses_anonymous_args = 0
 658              		@ link register save eliminated.
 556:Generated_Source\PSoC5/ADC_MIC.c **** }
 659              		.loc 1 556 0
 660 0000 034A     		ldr	r2, .L63
 554:Generated_Source\PSoC5/ADC_MIC.c **** 
 661              		.loc 1 554 0
 662 0002 044B     		ldr	r3, .L63+4
 663 0004 1B88     		ldrh	r3, [r3]
 664              	.LVL48:
 556:Generated_Source\PSoC5/ADC_MIC.c **** }
 665              		.loc 1 556 0
 666 0006 1088     		ldrh	r0, [r2]
 667 0008 181A     		subs	r0, r3, r0
 557:Generated_Source\PSoC5/ADC_MIC.c **** 
 668              		.loc 1 557 0
 669 000a 00B2     		sxth	r0, r0
 670 000c 7047     		bx	lr
 671              	.L64:
 672 000e 00BF     		.align	2
 673              	.L63:
 674 0010 00000000 		.word	ADC_MIC_shift
 675 0014 A05B0040 		.word	1073765280
 676              		.cfi_endproc
 677              	.LFE10:
 678              		.size	ADC_MIC_GetResult16, .-ADC_MIC_GetResult16
 679              		.section	.text.ADC_MIC_SetOffset,"ax",%progbits
 680              		.align	2
 681              		.global	ADC_MIC_SetOffset
 682              		.thumb
 683              		.thumb_func
 684              		.type	ADC_MIC_SetOffset, %function
 685              	ADC_MIC_SetOffset:
 686              	.LFB11:
ARM GAS  C:\Users\mgronber\AppData\Local\Temp\cc4wjjXu.s 			page 26


 586:Generated_Source\PSoC5/ADC_MIC.c ****     ADC_MIC_offset = offset;
 687              		.loc 1 586 0
 688              		.cfi_startproc
 689              		@ args = 0, pretend = 0, frame = 0
 690              		@ frame_needed = 0, uses_anonymous_args = 0
 691              		@ link register save eliminated.
 692              	.LVL49:
 587:Generated_Source\PSoC5/ADC_MIC.c **** }
 693              		.loc 1 587 0
 694 0000 014B     		ldr	r3, .L66
 695 0002 1880     		strh	r0, [r3]	@ movhi
 696 0004 7047     		bx	lr
 697              	.L67:
 698 0006 00BF     		.align	2
 699              	.L66:
 700 0008 00000000 		.word	ADC_MIC_offset
 701              		.cfi_endproc
 702              	.LFE11:
 703              		.size	ADC_MIC_SetOffset, .-ADC_MIC_SetOffset
 704              		.section	.text.ADC_MIC_SetGain,"ax",%progbits
 705              		.align	2
 706              		.global	ADC_MIC_SetGain
 707              		.thumb
 708              		.thumb_func
 709              		.type	ADC_MIC_SetGain, %function
 710              	ADC_MIC_SetGain:
 711              	.LFB13:
 667:Generated_Source\PSoC5/ADC_MIC.c ****     #endif /* End ADC_MIC_DEFAULT_RANGE */
 668:Generated_Source\PSoC5/ADC_MIC.c **** }
 669:Generated_Source\PSoC5/ADC_MIC.c **** 
 670:Generated_Source\PSoC5/ADC_MIC.c **** 
 671:Generated_Source\PSoC5/ADC_MIC.c **** /*******************************************************************************
 672:Generated_Source\PSoC5/ADC_MIC.c **** * Function Name: ADC_MIC_SetGain
 673:Generated_Source\PSoC5/ADC_MIC.c **** ********************************************************************************
 674:Generated_Source\PSoC5/ADC_MIC.c **** *
 675:Generated_Source\PSoC5/ADC_MIC.c **** * Summary:
 676:Generated_Source\PSoC5/ADC_MIC.c **** *  Sets the ADC gain in counts per volt for the voltage conversion functions
 677:Generated_Source\PSoC5/ADC_MIC.c **** *  that follow. This value is set by default by the reference and input range
 678:Generated_Source\PSoC5/ADC_MIC.c **** *  settings. It should only be used to further calibrate the ADC with a known
 679:Generated_Source\PSoC5/ADC_MIC.c **** *  input or if the ADC is using an external reference.
 680:Generated_Source\PSoC5/ADC_MIC.c **** *
 681:Generated_Source\PSoC5/ADC_MIC.c **** * Parameters:
 682:Generated_Source\PSoC5/ADC_MIC.c **** *  int16 adcGain counts per volt
 683:Generated_Source\PSoC5/ADC_MIC.c **** *
 684:Generated_Source\PSoC5/ADC_MIC.c **** * Return:
 685:Generated_Source\PSoC5/ADC_MIC.c **** *  None.
 686:Generated_Source\PSoC5/ADC_MIC.c **** *
 687:Generated_Source\PSoC5/ADC_MIC.c **** * Global Variables:
 688:Generated_Source\PSoC5/ADC_MIC.c **** *  ADC_MIC_countsPer10Volt variable modified. This variable is used
 689:Generated_Source\PSoC5/ADC_MIC.c **** *  for gain calibration purpose.
 690:Generated_Source\PSoC5/ADC_MIC.c **** *
 691:Generated_Source\PSoC5/ADC_MIC.c **** *******************************************************************************/
 692:Generated_Source\PSoC5/ADC_MIC.c **** void ADC_MIC_SetGain(int16 adcGain)
 693:Generated_Source\PSoC5/ADC_MIC.c **** {
 712              		.loc 1 693 0
 713              		.cfi_startproc
 714              		@ args = 0, pretend = 0, frame = 0
ARM GAS  C:\Users\mgronber\AppData\Local\Temp\cc4wjjXu.s 			page 27


 715              		@ frame_needed = 0, uses_anonymous_args = 0
 716              		@ link register save eliminated.
 717              	.LVL50:
 694:Generated_Source\PSoC5/ADC_MIC.c ****     ADC_MIC_countsPer10Volt = (int32)adcGain * 10;
 718              		.loc 1 694 0
 719 0000 00EB8000 		add	r0, r0, r0, lsl #2
 720              	.LVL51:
 721 0004 014B     		ldr	r3, .L69
 722 0006 4000     		lsls	r0, r0, #1
 723 0008 1860     		str	r0, [r3]
 724 000a 7047     		bx	lr
 725              	.L70:
 726              		.align	2
 727              	.L69:
 728 000c 00000000 		.word	ADC_MIC_countsPer10Volt
 729              		.cfi_endproc
 730              	.LFE13:
 731              		.size	ADC_MIC_SetGain, .-ADC_MIC_SetGain
 732              		.section	.text.ADC_MIC_SetScaledGain,"ax",%progbits
 733              		.align	2
 734              		.global	ADC_MIC_SetScaledGain
 735              		.thumb
 736              		.thumb_func
 737              		.type	ADC_MIC_SetScaledGain, %function
 738              	ADC_MIC_SetScaledGain:
 739              	.LFB14:
 695:Generated_Source\PSoC5/ADC_MIC.c **** }
 696:Generated_Source\PSoC5/ADC_MIC.c **** 
 697:Generated_Source\PSoC5/ADC_MIC.c **** 
 698:Generated_Source\PSoC5/ADC_MIC.c **** /*******************************************************************************
 699:Generated_Source\PSoC5/ADC_MIC.c **** * Function Name: ADC_MIC_SetScaledGain
 700:Generated_Source\PSoC5/ADC_MIC.c **** ********************************************************************************
 701:Generated_Source\PSoC5/ADC_MIC.c **** *
 702:Generated_Source\PSoC5/ADC_MIC.c **** * Summary:
 703:Generated_Source\PSoC5/ADC_MIC.c **** *  Sets the ADC gain in counts per 10 volt for the voltage conversion functions
 704:Generated_Source\PSoC5/ADC_MIC.c **** *  that follow. This value is set by default by the reference and input range
 705:Generated_Source\PSoC5/ADC_MIC.c **** *  settings. It should only be used to further calibrate the ADC with a known
 706:Generated_Source\PSoC5/ADC_MIC.c **** *  input or if the ADC is using an external reference.
 707:Generated_Source\PSoC5/ADC_MIC.c **** *
 708:Generated_Source\PSoC5/ADC_MIC.c **** * Parameters:
 709:Generated_Source\PSoC5/ADC_MIC.c **** *  int32 adcGain  counts per 10 volt
 710:Generated_Source\PSoC5/ADC_MIC.c **** *
 711:Generated_Source\PSoC5/ADC_MIC.c **** * Return:
 712:Generated_Source\PSoC5/ADC_MIC.c **** *  None.
 713:Generated_Source\PSoC5/ADC_MIC.c **** *
 714:Generated_Source\PSoC5/ADC_MIC.c **** * Global Variables:
 715:Generated_Source\PSoC5/ADC_MIC.c **** *  ADC_MIC_countsPer10Volt variable modified. This variable is used
 716:Generated_Source\PSoC5/ADC_MIC.c **** *  for gain calibration purpose.
 717:Generated_Source\PSoC5/ADC_MIC.c **** *
 718:Generated_Source\PSoC5/ADC_MIC.c **** *******************************************************************************/
 719:Generated_Source\PSoC5/ADC_MIC.c **** void ADC_MIC_SetScaledGain(int32 adcGain)
 720:Generated_Source\PSoC5/ADC_MIC.c **** {
 740              		.loc 1 720 0
 741              		.cfi_startproc
 742              		@ args = 0, pretend = 0, frame = 0
 743              		@ frame_needed = 0, uses_anonymous_args = 0
 744              		@ link register save eliminated.
ARM GAS  C:\Users\mgronber\AppData\Local\Temp\cc4wjjXu.s 			page 28


 745              	.LVL52:
 721:Generated_Source\PSoC5/ADC_MIC.c ****     ADC_MIC_countsPer10Volt = adcGain;
 746              		.loc 1 721 0
 747 0000 014B     		ldr	r3, .L72
 748 0002 1860     		str	r0, [r3]
 749 0004 7047     		bx	lr
 750              	.L73:
 751 0006 00BF     		.align	2
 752              	.L72:
 753 0008 00000000 		.word	ADC_MIC_countsPer10Volt
 754              		.cfi_endproc
 755              	.LFE14:
 756              		.size	ADC_MIC_SetScaledGain, .-ADC_MIC_SetScaledGain
 757              		.section	.text.ADC_MIC_CountsTo_mVolts,"ax",%progbits
 758              		.align	2
 759              		.global	ADC_MIC_CountsTo_mVolts
 760              		.thumb
 761              		.thumb_func
 762              		.type	ADC_MIC_CountsTo_mVolts, %function
 763              	ADC_MIC_CountsTo_mVolts:
 764              	.LFB15:
 722:Generated_Source\PSoC5/ADC_MIC.c **** }
 723:Generated_Source\PSoC5/ADC_MIC.c **** 
 724:Generated_Source\PSoC5/ADC_MIC.c **** 
 725:Generated_Source\PSoC5/ADC_MIC.c **** /*******************************************************************************
 726:Generated_Source\PSoC5/ADC_MIC.c **** * Function Name: ADC_MIC_CountsTo_mVolts
 727:Generated_Source\PSoC5/ADC_MIC.c **** ********************************************************************************
 728:Generated_Source\PSoC5/ADC_MIC.c **** *
 729:Generated_Source\PSoC5/ADC_MIC.c **** * Summary:
 730:Generated_Source\PSoC5/ADC_MIC.c **** *  Converts the ADC output to millivolts as a 16-bit integer.
 731:Generated_Source\PSoC5/ADC_MIC.c **** *
 732:Generated_Source\PSoC5/ADC_MIC.c **** * Parameters:
 733:Generated_Source\PSoC5/ADC_MIC.c **** *  int16 adcCounts:  Result from the ADC conversion
 734:Generated_Source\PSoC5/ADC_MIC.c **** *
 735:Generated_Source\PSoC5/ADC_MIC.c **** * Return:
 736:Generated_Source\PSoC5/ADC_MIC.c **** *  int16 Result in mVolts
 737:Generated_Source\PSoC5/ADC_MIC.c **** *
 738:Generated_Source\PSoC5/ADC_MIC.c **** * Global Variables:
 739:Generated_Source\PSoC5/ADC_MIC.c **** *  ADC_MIC_offset variable used.
 740:Generated_Source\PSoC5/ADC_MIC.c **** *  ADC_MIC_countsPer10Volt variable used.
 741:Generated_Source\PSoC5/ADC_MIC.c **** *
 742:Generated_Source\PSoC5/ADC_MIC.c **** *******************************************************************************/
 743:Generated_Source\PSoC5/ADC_MIC.c **** int16 ADC_MIC_CountsTo_mVolts(int16 adcCounts)
 744:Generated_Source\PSoC5/ADC_MIC.c **** {
 765              		.loc 1 744 0
 766              		.cfi_startproc
 767              		@ args = 0, pretend = 0, frame = 0
 768              		@ frame_needed = 0, uses_anonymous_args = 0
 769              		@ link register save eliminated.
 770              	.LVL53:
 745:Generated_Source\PSoC5/ADC_MIC.c ****     int16 mVolts;
 746:Generated_Source\PSoC5/ADC_MIC.c ****     int32 countsPer10Volt;
 747:Generated_Source\PSoC5/ADC_MIC.c **** 
 748:Generated_Source\PSoC5/ADC_MIC.c ****     if(ADC_MIC_countsPerVolt != 0)
 771              		.loc 1 748 0
 772 0000 0F4A     		ldr	r2, .L79
 773 0002 1388     		ldrh	r3, [r2]
ARM GAS  C:\Users\mgronber\AppData\Local\Temp\cc4wjjXu.s 			page 29


 774 0004 9BB2     		uxth	r3, r3
 775 0006 C3B1     		cbz	r3, .L75
 749:Generated_Source\PSoC5/ADC_MIC.c ****     {   /* Support obsolete method */
 750:Generated_Source\PSoC5/ADC_MIC.c ****         countsPer10Volt = (int32)ADC_MIC_countsPerVolt * 10;
 776              		.loc 1 750 0
 777 0008 1288     		ldrh	r2, [r2]
 778 000a 12B2     		sxth	r2, r2
 779 000c 02EB8202 		add	r2, r2, r2, lsl #2
 780 0010 5200     		lsls	r2, r2, #1
 781              	.LVL54:
 782              	.L76:
 751:Generated_Source\PSoC5/ADC_MIC.c ****     }
 752:Generated_Source\PSoC5/ADC_MIC.c ****     else
 753:Generated_Source\PSoC5/ADC_MIC.c ****     {
 754:Generated_Source\PSoC5/ADC_MIC.c ****         countsPer10Volt = ADC_MIC_countsPer10Volt;
 755:Generated_Source\PSoC5/ADC_MIC.c ****     }
 756:Generated_Source\PSoC5/ADC_MIC.c **** 
 757:Generated_Source\PSoC5/ADC_MIC.c ****     /* Subtract ADC offset */
 758:Generated_Source\PSoC5/ADC_MIC.c ****     adcCounts -= ADC_MIC_offset;
 759:Generated_Source\PSoC5/ADC_MIC.c ****     /* Convert to millivolts with rounding */
 760:Generated_Source\PSoC5/ADC_MIC.c ****     mVolts = (int16)( (( (int32)adcCounts * ADC_MIC_10MV_COUNTS ) + ( (adcCounts > 0) ?
 783              		.loc 1 760 0
 784 0012 42F21071 		movw	r1, #10000
 758:Generated_Source\PSoC5/ADC_MIC.c ****     /* Convert to millivolts with rounding */
 785              		.loc 1 758 0
 786 0016 0B4B     		ldr	r3, .L79+4
 787 0018 1B88     		ldrh	r3, [r3]
 788 001a C31A     		subs	r3, r0, r3
 789 001c 1BB2     		sxth	r3, r3
 790              	.LVL55:
 791              		.loc 1 760 0
 792 001e 01FB03F0 		mul	r0, r1, r3
 761:Generated_Source\PSoC5/ADC_MIC.c ****                        (countsPer10Volt / 2) : (-(countsPer10Volt / 2)) )) / countsPer10Volt);
 793              		.loc 1 761 0
 794 0022 002B     		cmp	r3, #0
 795 0024 02EBD273 		add	r3, r2, r2, lsr #31
 796              	.LVL56:
 797 0028 4FEA6303 		asr	r3, r3, #1
 798 002c D8BF     		it	le
 799 002e 5B42     		rsble	r3, r3, #0
 800              	.LVL57:
 760:Generated_Source\PSoC5/ADC_MIC.c ****                        (countsPer10Volt / 2) : (-(countsPer10Volt / 2)) )) / countsPer10Volt);
 801              		.loc 1 760 0
 802 0030 1844     		add	r0, r0, r3
 803              	.LVL58:
 804              		.loc 1 761 0
 805 0032 90FBF2F0 		sdiv	r0, r0, r2
 762:Generated_Source\PSoC5/ADC_MIC.c **** 
 763:Generated_Source\PSoC5/ADC_MIC.c ****     return( mVolts );
 764:Generated_Source\PSoC5/ADC_MIC.c **** }
 806              		.loc 1 764 0
 807 0036 00B2     		sxth	r0, r0
 808 0038 7047     		bx	lr
 809              	.LVL59:
 810              	.L75:
 754:Generated_Source\PSoC5/ADC_MIC.c ****     }
 811              		.loc 1 754 0
ARM GAS  C:\Users\mgronber\AppData\Local\Temp\cc4wjjXu.s 			page 30


 812 003a 034B     		ldr	r3, .L79+8
 813 003c 1A68     		ldr	r2, [r3]
 814              	.LVL60:
 815 003e E8E7     		b	.L76
 816              	.L80:
 817              		.align	2
 818              	.L79:
 819 0040 00000000 		.word	ADC_MIC_countsPerVolt
 820 0044 00000000 		.word	ADC_MIC_offset
 821 0048 00000000 		.word	ADC_MIC_countsPer10Volt
 822              		.cfi_endproc
 823              	.LFE15:
 824              		.size	ADC_MIC_CountsTo_mVolts, .-ADC_MIC_CountsTo_mVolts
 825              		.global	__aeabi_ldivmod
 826              		.section	.text.ADC_MIC_CountsTo_uVolts,"ax",%progbits
 827              		.align	2
 828              		.global	ADC_MIC_CountsTo_uVolts
 829              		.thumb
 830              		.thumb_func
 831              		.type	ADC_MIC_CountsTo_uVolts, %function
 832              	ADC_MIC_CountsTo_uVolts:
 833              	.LFB16:
 765:Generated_Source\PSoC5/ADC_MIC.c **** 
 766:Generated_Source\PSoC5/ADC_MIC.c **** 
 767:Generated_Source\PSoC5/ADC_MIC.c **** /*******************************************************************************
 768:Generated_Source\PSoC5/ADC_MIC.c **** * Function Name: ADC_MIC_CountsTo_uVolts
 769:Generated_Source\PSoC5/ADC_MIC.c **** ********************************************************************************
 770:Generated_Source\PSoC5/ADC_MIC.c **** *
 771:Generated_Source\PSoC5/ADC_MIC.c **** * Summary:
 772:Generated_Source\PSoC5/ADC_MIC.c **** *  Converts the ADC output to microvolts as a 32-bit integer.
 773:Generated_Source\PSoC5/ADC_MIC.c **** *
 774:Generated_Source\PSoC5/ADC_MIC.c **** * Parameters:
 775:Generated_Source\PSoC5/ADC_MIC.c **** *  int16 adcCounts: Result from the ADC conversion
 776:Generated_Source\PSoC5/ADC_MIC.c **** *
 777:Generated_Source\PSoC5/ADC_MIC.c **** * Return:
 778:Generated_Source\PSoC5/ADC_MIC.c **** *  int32 Result in micro Volts
 779:Generated_Source\PSoC5/ADC_MIC.c **** *
 780:Generated_Source\PSoC5/ADC_MIC.c **** * Global Variables:
 781:Generated_Source\PSoC5/ADC_MIC.c **** *  ADC_MIC_offset variable used.
 782:Generated_Source\PSoC5/ADC_MIC.c **** *  ADC_MIC_countsPer10Volt used to convert ADC counts to uVolts.
 783:Generated_Source\PSoC5/ADC_MIC.c **** *
 784:Generated_Source\PSoC5/ADC_MIC.c **** *******************************************************************************/
 785:Generated_Source\PSoC5/ADC_MIC.c **** int32 ADC_MIC_CountsTo_uVolts(int16 adcCounts)
 786:Generated_Source\PSoC5/ADC_MIC.c **** {
 834              		.loc 1 786 0
 835              		.cfi_startproc
 836              		@ args = 0, pretend = 0, frame = 0
 837              		@ frame_needed = 0, uses_anonymous_args = 0
 838              	.LVL61:
 787:Generated_Source\PSoC5/ADC_MIC.c **** 
 788:Generated_Source\PSoC5/ADC_MIC.c ****     int64 uVolts;
 789:Generated_Source\PSoC5/ADC_MIC.c ****     int32 countsPer10Volt;
 790:Generated_Source\PSoC5/ADC_MIC.c **** 
 791:Generated_Source\PSoC5/ADC_MIC.c ****     if(ADC_MIC_countsPerVolt != 0)
 839              		.loc 1 791 0
 840 0000 0D4A     		ldr	r2, .L86
 786:Generated_Source\PSoC5/ADC_MIC.c **** 
ARM GAS  C:\Users\mgronber\AppData\Local\Temp\cc4wjjXu.s 			page 31


 841              		.loc 1 786 0
 842 0002 70B5     		push	{r4, r5, r6, lr}
 843              		.cfi_def_cfa_offset 16
 844              		.cfi_offset 4, -16
 845              		.cfi_offset 5, -12
 846              		.cfi_offset 6, -8
 847              		.cfi_offset 14, -4
 848              		.loc 1 791 0
 849 0004 1388     		ldrh	r3, [r2]
 850 0006 9BB2     		uxth	r3, r3
 851 0008 7BB9     		cbnz	r3, .L85
 792:Generated_Source\PSoC5/ADC_MIC.c ****     {   /* Support obsolete method */
 793:Generated_Source\PSoC5/ADC_MIC.c ****         countsPer10Volt = (int32)ADC_MIC_countsPerVolt * 10;
 794:Generated_Source\PSoC5/ADC_MIC.c ****     }
 795:Generated_Source\PSoC5/ADC_MIC.c ****     else
 796:Generated_Source\PSoC5/ADC_MIC.c ****     {
 797:Generated_Source\PSoC5/ADC_MIC.c ****         countsPer10Volt = ADC_MIC_countsPer10Volt;
 852              		.loc 1 797 0
 853 000a 0C4B     		ldr	r3, .L86+4
 854 000c 1A68     		ldr	r2, [r3]
 855              	.LVL62:
 856              	.L83:
 798:Generated_Source\PSoC5/ADC_MIC.c ****     }
 799:Generated_Source\PSoC5/ADC_MIC.c **** 
 800:Generated_Source\PSoC5/ADC_MIC.c ****     /* Subtract ADC offset */
 801:Generated_Source\PSoC5/ADC_MIC.c ****     adcCounts -= ADC_MIC_offset;
 857              		.loc 1 801 0
 858 000e 0C4B     		ldr	r3, .L86+8
 802:Generated_Source\PSoC5/ADC_MIC.c ****     /* To convert adcCounts to microVolts it is required to be multiplied
 803:Generated_Source\PSoC5/ADC_MIC.c ****     *  on 10 million and later divide on gain in counts per 10V.
 804:Generated_Source\PSoC5/ADC_MIC.c ****     */
 805:Generated_Source\PSoC5/ADC_MIC.c ****     uVolts = (( (int64)adcCounts * ADC_MIC_10UV_COUNTS ) / countsPer10Volt);
 859              		.loc 1 805 0
 860 0010 0C4E     		ldr	r6, .L86+12
 801:Generated_Source\PSoC5/ADC_MIC.c ****     /* To convert adcCounts to microVolts it is required to be multiplied
 861              		.loc 1 801 0
 862 0012 1C88     		ldrh	r4, [r3]
 863              	.LVL63:
 864              		.loc 1 805 0
 865 0014 D317     		asrs	r3, r2, #31
 866 0016 041B     		subs	r4, r0, r4
 867              	.LVL64:
 868 0018 24B2     		sxth	r4, r4
 869 001a A4FB0601 		umull	r0, r1, r4, r6
 870 001e E517     		asrs	r5, r4, #31
 871 0020 06FB0511 		mla	r1, r6, r5, r1
 872 0024 FFF7FEFF 		bl	__aeabi_ldivmod
 873              	.LVL65:
 806:Generated_Source\PSoC5/ADC_MIC.c **** 
 807:Generated_Source\PSoC5/ADC_MIC.c ****     return( uVolts );
 808:Generated_Source\PSoC5/ADC_MIC.c **** }
 874              		.loc 1 808 0
 875 0028 70BD     		pop	{r4, r5, r6, pc}
 876              	.LVL66:
 877              	.L85:
 793:Generated_Source\PSoC5/ADC_MIC.c ****     }
 878              		.loc 1 793 0
ARM GAS  C:\Users\mgronber\AppData\Local\Temp\cc4wjjXu.s 			page 32


 879 002a 1288     		ldrh	r2, [r2]
 880 002c 12B2     		sxth	r2, r2
 881 002e 02EB8202 		add	r2, r2, r2, lsl #2
 882 0032 5200     		lsls	r2, r2, #1
 883              	.LVL67:
 884 0034 EBE7     		b	.L83
 885              	.L87:
 886 0036 00BF     		.align	2
 887              	.L86:
 888 0038 00000000 		.word	ADC_MIC_countsPerVolt
 889 003c 00000000 		.word	ADC_MIC_countsPer10Volt
 890 0040 00000000 		.word	ADC_MIC_offset
 891 0044 80969800 		.word	10000000
 892              		.cfi_endproc
 893              	.LFE16:
 894              		.size	ADC_MIC_CountsTo_uVolts, .-ADC_MIC_CountsTo_uVolts
 895              		.global	__aeabi_i2f
 896              		.global	__aeabi_fmul
 897              		.global	__aeabi_fdiv
 898              		.section	.text.ADC_MIC_CountsTo_Volts,"ax",%progbits
 899              		.align	2
 900              		.global	ADC_MIC_CountsTo_Volts
 901              		.thumb
 902              		.thumb_func
 903              		.type	ADC_MIC_CountsTo_Volts, %function
 904              	ADC_MIC_CountsTo_Volts:
 905              	.LFB17:
 809:Generated_Source\PSoC5/ADC_MIC.c **** 
 810:Generated_Source\PSoC5/ADC_MIC.c **** 
 811:Generated_Source\PSoC5/ADC_MIC.c **** /*******************************************************************************
 812:Generated_Source\PSoC5/ADC_MIC.c **** * Function Name: ADC_MIC_CountsTo_Volts
 813:Generated_Source\PSoC5/ADC_MIC.c **** ********************************************************************************
 814:Generated_Source\PSoC5/ADC_MIC.c **** *
 815:Generated_Source\PSoC5/ADC_MIC.c **** * Summary:
 816:Generated_Source\PSoC5/ADC_MIC.c **** *  Converts the ADC output to volts as a floating-point number.
 817:Generated_Source\PSoC5/ADC_MIC.c **** *
 818:Generated_Source\PSoC5/ADC_MIC.c **** * Parameters:
 819:Generated_Source\PSoC5/ADC_MIC.c **** *  int16 adcCounts: Result from the ADC conversion
 820:Generated_Source\PSoC5/ADC_MIC.c **** *
 821:Generated_Source\PSoC5/ADC_MIC.c **** * Return:
 822:Generated_Source\PSoC5/ADC_MIC.c **** *  float Result in Volts
 823:Generated_Source\PSoC5/ADC_MIC.c **** *
 824:Generated_Source\PSoC5/ADC_MIC.c **** * Global Variables:
 825:Generated_Source\PSoC5/ADC_MIC.c **** *  ADC_MIC_offset variable used.
 826:Generated_Source\PSoC5/ADC_MIC.c **** *  ADC_MIC_countsPer10Volt used to convert ADC counts to Volts.
 827:Generated_Source\PSoC5/ADC_MIC.c **** *
 828:Generated_Source\PSoC5/ADC_MIC.c **** *******************************************************************************/
 829:Generated_Source\PSoC5/ADC_MIC.c **** float32 ADC_MIC_CountsTo_Volts(int16 adcCounts)
 830:Generated_Source\PSoC5/ADC_MIC.c **** {
 906              		.loc 1 830 0
 907              		.cfi_startproc
 908              		@ args = 0, pretend = 0, frame = 0
 909              		@ frame_needed = 0, uses_anonymous_args = 0
 910              	.LVL68:
 831:Generated_Source\PSoC5/ADC_MIC.c ****     float32 volts;
 832:Generated_Source\PSoC5/ADC_MIC.c ****     int32 countsPer10Volt;
 833:Generated_Source\PSoC5/ADC_MIC.c **** 
ARM GAS  C:\Users\mgronber\AppData\Local\Temp\cc4wjjXu.s 			page 33


 834:Generated_Source\PSoC5/ADC_MIC.c ****     if(ADC_MIC_countsPerVolt != 0)
 911              		.loc 1 834 0
 912 0000 0F4A     		ldr	r2, .L93
 830:Generated_Source\PSoC5/ADC_MIC.c ****     float32 volts;
 913              		.loc 1 830 0
 914 0002 38B5     		push	{r3, r4, r5, lr}
 915              		.cfi_def_cfa_offset 16
 916              		.cfi_offset 3, -16
 917              		.cfi_offset 4, -12
 918              		.cfi_offset 5, -8
 919              		.cfi_offset 14, -4
 920              		.loc 1 834 0
 921 0004 1388     		ldrh	r3, [r2]
 922 0006 9BB2     		uxth	r3, r3
 923 0008 9BB9     		cbnz	r3, .L92
 835:Generated_Source\PSoC5/ADC_MIC.c ****     {   /* Support obsolete method */
 836:Generated_Source\PSoC5/ADC_MIC.c ****         countsPer10Volt = (int32)ADC_MIC_countsPerVolt * 10;
 837:Generated_Source\PSoC5/ADC_MIC.c ****     }
 838:Generated_Source\PSoC5/ADC_MIC.c ****     else
 839:Generated_Source\PSoC5/ADC_MIC.c ****     {
 840:Generated_Source\PSoC5/ADC_MIC.c ****         countsPer10Volt = ADC_MIC_countsPer10Volt;
 924              		.loc 1 840 0
 925 000a 0E4B     		ldr	r3, .L93+4
 926 000c 1C68     		ldr	r4, [r3]
 927              	.LVL69:
 928              	.L90:
 841:Generated_Source\PSoC5/ADC_MIC.c ****     }
 842:Generated_Source\PSoC5/ADC_MIC.c **** 
 843:Generated_Source\PSoC5/ADC_MIC.c ****     /* Subtract ADC offset */
 844:Generated_Source\PSoC5/ADC_MIC.c ****     adcCounts -= ADC_MIC_offset;
 929              		.loc 1 844 0
 930 000e 0E4B     		ldr	r3, .L93+8
 931 0010 1B88     		ldrh	r3, [r3]
 932 0012 C01A     		subs	r0, r0, r3
 933              	.LVL70:
 845:Generated_Source\PSoC5/ADC_MIC.c **** 
 846:Generated_Source\PSoC5/ADC_MIC.c ****     volts = ((float32)adcCounts * ADC_MIC_10V_COUNTS) / (float32)countsPer10Volt;
 934              		.loc 1 846 0
 935 0014 00B2     		sxth	r0, r0
 936 0016 FFF7FEFF 		bl	__aeabi_i2f
 937              	.LVL71:
 938 001a 0C49     		ldr	r1, .L93+12
 939 001c FFF7FEFF 		bl	__aeabi_fmul
 940              	.LVL72:
 941 0020 0546     		mov	r5, r0
 942 0022 2046     		mov	r0, r4
 943 0024 FFF7FEFF 		bl	__aeabi_i2f
 944              	.LVL73:
 945 0028 0146     		mov	r1, r0
 946 002a 2846     		mov	r0, r5
 947 002c FFF7FEFF 		bl	__aeabi_fdiv
 948              	.LVL74:
 847:Generated_Source\PSoC5/ADC_MIC.c **** 
 848:Generated_Source\PSoC5/ADC_MIC.c ****     return( volts );
 849:Generated_Source\PSoC5/ADC_MIC.c **** }
 949              		.loc 1 849 0
 950 0030 38BD     		pop	{r3, r4, r5, pc}
ARM GAS  C:\Users\mgronber\AppData\Local\Temp\cc4wjjXu.s 			page 34


 951              	.LVL75:
 952              	.L92:
 836:Generated_Source\PSoC5/ADC_MIC.c ****     }
 953              		.loc 1 836 0
 954 0032 1488     		ldrh	r4, [r2]
 955 0034 24B2     		sxth	r4, r4
 956 0036 04EB8404 		add	r4, r4, r4, lsl #2
 957 003a 6400     		lsls	r4, r4, #1
 958              	.LVL76:
 959 003c E7E7     		b	.L90
 960              	.L94:
 961 003e 00BF     		.align	2
 962              	.L93:
 963 0040 00000000 		.word	ADC_MIC_countsPerVolt
 964 0044 00000000 		.word	ADC_MIC_countsPer10Volt
 965 0048 00000000 		.word	ADC_MIC_offset
 966 004c 00002041 		.word	1092616192
 967              		.cfi_endproc
 968              	.LFE17:
 969              		.size	ADC_MIC_CountsTo_Volts, .-ADC_MIC_CountsTo_Volts
 970              		.comm	ADC_MIC_shift,2,2
 971              		.comm	ADC_MIC_countsPer10Volt,4,4
 972              		.comm	ADC_MIC_countsPerVolt,2,2
 973              		.comm	ADC_MIC_offset,2,2
 974              		.global	ADC_MIC_initVar
 975              		.bss
 976              		.set	.LANCHOR0,. + 0
 977              		.type	ADC_MIC_initVar, %object
 978              		.size	ADC_MIC_initVar, 1
 979              	ADC_MIC_initVar:
 980 0000 00       		.space	1
 981              		.text
 982              	.Letext0:
 983              		.file 2 "Generated_Source\\PSoC5\\cytypes.h"
 984              		.file 3 "Generated_Source\\PSoC5\\CyLib.h"
 985              		.file 4 "Generated_Source\\PSoC5\\ADC_MIC_theACLK.h"