ARM GAS  C:\Users\mgronber\AppData\Local\Temp\cc1dpOSA.s 			page 1


   1              		.syntax unified
   2              		.cpu cortex-m3
   3              		.fpu softvfp
   4              		.eabi_attribute 20, 1
   5              		.eabi_attribute 21, 1
   6              		.eabi_attribute 23, 3
   7              		.eabi_attribute 24, 1
   8              		.eabi_attribute 25, 1
   9              		.eabi_attribute 26, 1
  10              		.eabi_attribute 30, 2
  11              		.eabi_attribute 34, 1
  12              		.eabi_attribute 18, 4
  13              		.thumb
  14              		.file	"ADC_UI_SAR.c"
  15              		.text
  16              	.Ltext0:
  17              		.cfi_sections	.debug_frame
  18              		.section	.text.ADC_UI_SAR_Enable,"ax",%progbits
  19              		.align	2
  20              		.global	ADC_UI_SAR_Enable
  21              		.thumb
  22              		.thumb_func
  23              		.type	ADC_UI_SAR_Enable, %function
  24              	ADC_UI_SAR_Enable:
  25              	.LFB2:
  26              		.file 1 "Generated_Source\\PSoC5\\ADC_UI_SAR.c"
   1:Generated_Source\PSoC5/ADC_UI_SAR.c **** /*******************************************************************************
   2:Generated_Source\PSoC5/ADC_UI_SAR.c **** * File Name: ADC_UI_SAR.c
   3:Generated_Source\PSoC5/ADC_UI_SAR.c **** * Version 3.0
   4:Generated_Source\PSoC5/ADC_UI_SAR.c **** *
   5:Generated_Source\PSoC5/ADC_UI_SAR.c **** * Description:
   6:Generated_Source\PSoC5/ADC_UI_SAR.c **** *  This file provides the source code to the API for the Successive
   7:Generated_Source\PSoC5/ADC_UI_SAR.c **** *  approximation ADC Component.
   8:Generated_Source\PSoC5/ADC_UI_SAR.c **** *
   9:Generated_Source\PSoC5/ADC_UI_SAR.c **** * Note:
  10:Generated_Source\PSoC5/ADC_UI_SAR.c **** *
  11:Generated_Source\PSoC5/ADC_UI_SAR.c **** ********************************************************************************
  12:Generated_Source\PSoC5/ADC_UI_SAR.c **** * Copyright 2008-2015, Cypress Semiconductor Corporation.  All rights reserved.
  13:Generated_Source\PSoC5/ADC_UI_SAR.c **** * You may use this file only in accordance with the license, terms, conditions,
  14:Generated_Source\PSoC5/ADC_UI_SAR.c **** * disclaimers, and limitations in the end user license agreement accompanying
  15:Generated_Source\PSoC5/ADC_UI_SAR.c **** * the software package with which this file was provided.
  16:Generated_Source\PSoC5/ADC_UI_SAR.c **** *******************************************************************************/
  17:Generated_Source\PSoC5/ADC_UI_SAR.c **** 
  18:Generated_Source\PSoC5/ADC_UI_SAR.c **** #include "CyLib.h"
  19:Generated_Source\PSoC5/ADC_UI_SAR.c **** #include "ADC_UI_SAR.h"
  20:Generated_Source\PSoC5/ADC_UI_SAR.c **** 
  21:Generated_Source\PSoC5/ADC_UI_SAR.c **** #if(ADC_UI_SAR_DEFAULT_INTERNAL_CLK)
  22:Generated_Source\PSoC5/ADC_UI_SAR.c ****     #include "ADC_UI_SAR_theACLK.h"
  23:Generated_Source\PSoC5/ADC_UI_SAR.c **** #endif /* End ADC_UI_SAR_DEFAULT_INTERNAL_CLK */
  24:Generated_Source\PSoC5/ADC_UI_SAR.c **** 
  25:Generated_Source\PSoC5/ADC_UI_SAR.c **** 
  26:Generated_Source\PSoC5/ADC_UI_SAR.c **** /***************************************
  27:Generated_Source\PSoC5/ADC_UI_SAR.c **** * Forward function references
  28:Generated_Source\PSoC5/ADC_UI_SAR.c **** ***************************************/
  29:Generated_Source\PSoC5/ADC_UI_SAR.c **** static void ADC_UI_SAR_CalcGain(uint8 resolution);
  30:Generated_Source\PSoC5/ADC_UI_SAR.c **** 
  31:Generated_Source\PSoC5/ADC_UI_SAR.c **** 
ARM GAS  C:\Users\mgronber\AppData\Local\Temp\cc1dpOSA.s 			page 2


  32:Generated_Source\PSoC5/ADC_UI_SAR.c **** /***************************************
  33:Generated_Source\PSoC5/ADC_UI_SAR.c **** * Global data allocation
  34:Generated_Source\PSoC5/ADC_UI_SAR.c **** ***************************************/
  35:Generated_Source\PSoC5/ADC_UI_SAR.c **** uint8 ADC_UI_SAR_initVar = 0u;
  36:Generated_Source\PSoC5/ADC_UI_SAR.c **** volatile int16 ADC_UI_SAR_offset;
  37:Generated_Source\PSoC5/ADC_UI_SAR.c **** volatile int16 ADC_UI_SAR_countsPerVolt;     /* Obsolete Gain compensation */
  38:Generated_Source\PSoC5/ADC_UI_SAR.c **** volatile int32 ADC_UI_SAR_countsPer10Volt;   /* Gain compensation */
  39:Generated_Source\PSoC5/ADC_UI_SAR.c **** volatile int16 ADC_UI_SAR_shift;
  40:Generated_Source\PSoC5/ADC_UI_SAR.c **** 
  41:Generated_Source\PSoC5/ADC_UI_SAR.c **** 
  42:Generated_Source\PSoC5/ADC_UI_SAR.c **** /*******************************************************************************
  43:Generated_Source\PSoC5/ADC_UI_SAR.c **** * Function Name: ADC_UI_SAR_Start
  44:Generated_Source\PSoC5/ADC_UI_SAR.c **** ********************************************************************************
  45:Generated_Source\PSoC5/ADC_UI_SAR.c **** *
  46:Generated_Source\PSoC5/ADC_UI_SAR.c **** * Summary:
  47:Generated_Source\PSoC5/ADC_UI_SAR.c **** *  This is the preferred method to begin component operation.
  48:Generated_Source\PSoC5/ADC_UI_SAR.c **** *  ADC_UI_SAR_Start() sets the initVar variable, calls the
  49:Generated_Source\PSoC5/ADC_UI_SAR.c **** *  ADC_UI_SAR_Init() function, and then calls the
  50:Generated_Source\PSoC5/ADC_UI_SAR.c **** *  ADC_UI_SAR_Enable() function.
  51:Generated_Source\PSoC5/ADC_UI_SAR.c **** *
  52:Generated_Source\PSoC5/ADC_UI_SAR.c **** * Parameters:
  53:Generated_Source\PSoC5/ADC_UI_SAR.c **** *  None.
  54:Generated_Source\PSoC5/ADC_UI_SAR.c **** *
  55:Generated_Source\PSoC5/ADC_UI_SAR.c **** * Return:
  56:Generated_Source\PSoC5/ADC_UI_SAR.c **** *  None.
  57:Generated_Source\PSoC5/ADC_UI_SAR.c **** *
  58:Generated_Source\PSoC5/ADC_UI_SAR.c **** * Global variables:
  59:Generated_Source\PSoC5/ADC_UI_SAR.c **** *  The ADC_UI_SAR_initVar variable is used to indicate when/if initial
  60:Generated_Source\PSoC5/ADC_UI_SAR.c **** *  configuration of this component has happened. The variable is initialized to
  61:Generated_Source\PSoC5/ADC_UI_SAR.c **** *  zero and set to 1 the first time ADC_Start() is called. This allows for
  62:Generated_Source\PSoC5/ADC_UI_SAR.c **** *  component Re-Start without re-initialization in all subsequent calls to the
  63:Generated_Source\PSoC5/ADC_UI_SAR.c **** *  ADC_UI_SAR_Start() routine.
  64:Generated_Source\PSoC5/ADC_UI_SAR.c **** *  If re-initialization of the component is required the variable should be set
  65:Generated_Source\PSoC5/ADC_UI_SAR.c **** *  to zero before call of ADC_UI_SAR_Start() routine, or the user may call
  66:Generated_Source\PSoC5/ADC_UI_SAR.c **** *  ADC_UI_SAR_Init() and ADC_UI_SAR_Enable() as done in the
  67:Generated_Source\PSoC5/ADC_UI_SAR.c **** *  ADC_UI_SAR_Start() routine.
  68:Generated_Source\PSoC5/ADC_UI_SAR.c **** *
  69:Generated_Source\PSoC5/ADC_UI_SAR.c **** * Side Effect:
  70:Generated_Source\PSoC5/ADC_UI_SAR.c **** *  If the initVar variable is already set, this function only calls the
  71:Generated_Source\PSoC5/ADC_UI_SAR.c **** *  ADC_UI_SAR_Enable() function.
  72:Generated_Source\PSoC5/ADC_UI_SAR.c **** *
  73:Generated_Source\PSoC5/ADC_UI_SAR.c **** *******************************************************************************/
  74:Generated_Source\PSoC5/ADC_UI_SAR.c **** void ADC_UI_SAR_Start(void)
  75:Generated_Source\PSoC5/ADC_UI_SAR.c **** {
  76:Generated_Source\PSoC5/ADC_UI_SAR.c **** 
  77:Generated_Source\PSoC5/ADC_UI_SAR.c ****     /* If not Initialized then initialize all required hardware and software */
  78:Generated_Source\PSoC5/ADC_UI_SAR.c ****     if(ADC_UI_SAR_initVar == 0u)
  79:Generated_Source\PSoC5/ADC_UI_SAR.c ****     {
  80:Generated_Source\PSoC5/ADC_UI_SAR.c ****         ADC_UI_SAR_Init();
  81:Generated_Source\PSoC5/ADC_UI_SAR.c ****         ADC_UI_SAR_initVar = 1u;
  82:Generated_Source\PSoC5/ADC_UI_SAR.c ****     }
  83:Generated_Source\PSoC5/ADC_UI_SAR.c ****     ADC_UI_SAR_Enable();
  84:Generated_Source\PSoC5/ADC_UI_SAR.c **** }
  85:Generated_Source\PSoC5/ADC_UI_SAR.c **** 
  86:Generated_Source\PSoC5/ADC_UI_SAR.c **** 
  87:Generated_Source\PSoC5/ADC_UI_SAR.c **** /*******************************************************************************
  88:Generated_Source\PSoC5/ADC_UI_SAR.c **** * Function Name: ADC_UI_SAR_Init
ARM GAS  C:\Users\mgronber\AppData\Local\Temp\cc1dpOSA.s 			page 3


  89:Generated_Source\PSoC5/ADC_UI_SAR.c **** ********************************************************************************
  90:Generated_Source\PSoC5/ADC_UI_SAR.c **** *
  91:Generated_Source\PSoC5/ADC_UI_SAR.c **** * Summary:
  92:Generated_Source\PSoC5/ADC_UI_SAR.c **** *  Initialize component's parameters to the parameters set by user in the
  93:Generated_Source\PSoC5/ADC_UI_SAR.c **** *  customizer of the component placed onto schematic. Usually called in
  94:Generated_Source\PSoC5/ADC_UI_SAR.c **** *  ADC_UI_SAR_Start().
  95:Generated_Source\PSoC5/ADC_UI_SAR.c **** *
  96:Generated_Source\PSoC5/ADC_UI_SAR.c **** * Parameters:
  97:Generated_Source\PSoC5/ADC_UI_SAR.c **** *  None.
  98:Generated_Source\PSoC5/ADC_UI_SAR.c **** *
  99:Generated_Source\PSoC5/ADC_UI_SAR.c **** * Return:
 100:Generated_Source\PSoC5/ADC_UI_SAR.c **** *  None.
 101:Generated_Source\PSoC5/ADC_UI_SAR.c **** *
 102:Generated_Source\PSoC5/ADC_UI_SAR.c **** * Global variables:
 103:Generated_Source\PSoC5/ADC_UI_SAR.c **** *  The ADC_UI_SAR_offset variable is initialized to 0.
 104:Generated_Source\PSoC5/ADC_UI_SAR.c **** *
 105:Generated_Source\PSoC5/ADC_UI_SAR.c **** *******************************************************************************/
 106:Generated_Source\PSoC5/ADC_UI_SAR.c **** void ADC_UI_SAR_Init(void)
 107:Generated_Source\PSoC5/ADC_UI_SAR.c **** {
 108:Generated_Source\PSoC5/ADC_UI_SAR.c **** 
 109:Generated_Source\PSoC5/ADC_UI_SAR.c ****     /* This is only valid if there is an internal clock */
 110:Generated_Source\PSoC5/ADC_UI_SAR.c ****     #if(ADC_UI_SAR_DEFAULT_INTERNAL_CLK)
 111:Generated_Source\PSoC5/ADC_UI_SAR.c ****         ADC_UI_SAR_theACLK_SetMode(CYCLK_DUTY);
 112:Generated_Source\PSoC5/ADC_UI_SAR.c ****     #endif /* End ADC_UI_SAR_DEFAULT_INTERNAL_CLK */
 113:Generated_Source\PSoC5/ADC_UI_SAR.c **** 
 114:Generated_Source\PSoC5/ADC_UI_SAR.c ****     #if(ADC_UI_SAR_IRQ_REMOVE == 0u)
 115:Generated_Source\PSoC5/ADC_UI_SAR.c ****         /* Start and set interrupt vector */
 116:Generated_Source\PSoC5/ADC_UI_SAR.c ****         CyIntSetPriority(ADC_UI_SAR_INTC_NUMBER, ADC_UI_SAR_INTC_PRIOR_NUMBER);
 117:Generated_Source\PSoC5/ADC_UI_SAR.c ****         (void)CyIntSetVector(ADC_UI_SAR_INTC_NUMBER, &ADC_UI_SAR_ISR);
 118:Generated_Source\PSoC5/ADC_UI_SAR.c ****     #endif   /* End ADC_UI_SAR_IRQ_REMOVE */
 119:Generated_Source\PSoC5/ADC_UI_SAR.c **** 
 120:Generated_Source\PSoC5/ADC_UI_SAR.c ****     /* Enable IRQ mode*/
 121:Generated_Source\PSoC5/ADC_UI_SAR.c ****     ADC_UI_SAR_SAR_CSR1_REG |= ADC_UI_SAR_SAR_IRQ_MASK_EN | ADC_UI_SAR_SAR_IRQ_MODE_EDGE;
 122:Generated_Source\PSoC5/ADC_UI_SAR.c **** 
 123:Generated_Source\PSoC5/ADC_UI_SAR.c ****     /*Set SAR ADC resolution ADC */
 124:Generated_Source\PSoC5/ADC_UI_SAR.c ****     ADC_UI_SAR_SetResolution(ADC_UI_SAR_DEFAULT_RESOLUTION);
 125:Generated_Source\PSoC5/ADC_UI_SAR.c ****     ADC_UI_SAR_offset = 0;
 126:Generated_Source\PSoC5/ADC_UI_SAR.c **** }
 127:Generated_Source\PSoC5/ADC_UI_SAR.c **** 
 128:Generated_Source\PSoC5/ADC_UI_SAR.c **** 
 129:Generated_Source\PSoC5/ADC_UI_SAR.c **** /*******************************************************************************
 130:Generated_Source\PSoC5/ADC_UI_SAR.c **** * Function Name: ADC_UI_SAR_Enable
 131:Generated_Source\PSoC5/ADC_UI_SAR.c **** ********************************************************************************
 132:Generated_Source\PSoC5/ADC_UI_SAR.c **** *
 133:Generated_Source\PSoC5/ADC_UI_SAR.c **** * Summary:
 134:Generated_Source\PSoC5/ADC_UI_SAR.c **** *  Enables the reference, clock and power for SAR ADC.
 135:Generated_Source\PSoC5/ADC_UI_SAR.c **** *
 136:Generated_Source\PSoC5/ADC_UI_SAR.c **** * Parameters:
 137:Generated_Source\PSoC5/ADC_UI_SAR.c **** *  None.
 138:Generated_Source\PSoC5/ADC_UI_SAR.c **** *
 139:Generated_Source\PSoC5/ADC_UI_SAR.c **** * Return:
 140:Generated_Source\PSoC5/ADC_UI_SAR.c **** *  None.
 141:Generated_Source\PSoC5/ADC_UI_SAR.c **** *
 142:Generated_Source\PSoC5/ADC_UI_SAR.c **** *******************************************************************************/
 143:Generated_Source\PSoC5/ADC_UI_SAR.c **** void ADC_UI_SAR_Enable(void)
 144:Generated_Source\PSoC5/ADC_UI_SAR.c **** {
  27              		.loc 1 144 0
ARM GAS  C:\Users\mgronber\AppData\Local\Temp\cc1dpOSA.s 			page 4


  28              		.cfi_startproc
  29              		@ args = 0, pretend = 0, frame = 0
  30              		@ frame_needed = 0, uses_anonymous_args = 0
  31 0000 F8B5     		push	{r3, r4, r5, r6, r7, lr}
  32              		.cfi_def_cfa_offset 24
  33              		.cfi_offset 3, -24
  34              		.cfi_offset 4, -20
  35              		.cfi_offset 5, -16
  36              		.cfi_offset 6, -12
  37              		.cfi_offset 7, -8
  38              		.cfi_offset 14, -4
 145:Generated_Source\PSoC5/ADC_UI_SAR.c ****     uint8 tmpReg;
 146:Generated_Source\PSoC5/ADC_UI_SAR.c ****     uint8 enableInterrupts;
 147:Generated_Source\PSoC5/ADC_UI_SAR.c ****     enableInterrupts = CyEnterCriticalSection();
  39              		.loc 1 147 0
  40 0002 FFF7FEFF 		bl	CyEnterCriticalSection
  41              	.LVL0:
  42 0006 0446     		mov	r4, r0
  43              	.LVL1:
 148:Generated_Source\PSoC5/ADC_UI_SAR.c **** 
 149:Generated_Source\PSoC5/ADC_UI_SAR.c ****     /* Enable the SAR ADC block in Active Power Mode */
 150:Generated_Source\PSoC5/ADC_UI_SAR.c ****     ADC_UI_SAR_PWRMGR_SAR_REG |= ADC_UI_SAR_ACT_PWR_SAR_EN;
  44              		.loc 1 150 0
  45 0008 1948     		ldr	r0, .L3
 151:Generated_Source\PSoC5/ADC_UI_SAR.c **** 
 152:Generated_Source\PSoC5/ADC_UI_SAR.c ****      /* Enable the SAR ADC in Standby Power Mode*/
 153:Generated_Source\PSoC5/ADC_UI_SAR.c ****     ADC_UI_SAR_STBY_PWRMGR_SAR_REG |= ADC_UI_SAR_STBY_PWR_SAR_EN;
  46              		.loc 1 153 0
  47 000a 1A4A     		ldr	r2, .L3+4
 150:Generated_Source\PSoC5/ADC_UI_SAR.c **** 
  48              		.loc 1 150 0
  49 000c 0378     		ldrb	r3, [r0]	@ zero_extendqisi2
 154:Generated_Source\PSoC5/ADC_UI_SAR.c **** 
 155:Generated_Source\PSoC5/ADC_UI_SAR.c ****     /* This is only valid if there is an internal clock */
 156:Generated_Source\PSoC5/ADC_UI_SAR.c ****     #if(ADC_UI_SAR_DEFAULT_INTERNAL_CLK)
 157:Generated_Source\PSoC5/ADC_UI_SAR.c ****         ADC_UI_SAR_PWRMGR_CLK_REG |= ADC_UI_SAR_ACT_PWR_CLK_EN;
 158:Generated_Source\PSoC5/ADC_UI_SAR.c ****         ADC_UI_SAR_STBY_PWRMGR_CLK_REG |= ADC_UI_SAR_STBY_PWR_CLK_EN;
 159:Generated_Source\PSoC5/ADC_UI_SAR.c ****     #endif /* End ADC_UI_SAR_DEFAULT_INTERNAL_CLK */
 160:Generated_Source\PSoC5/ADC_UI_SAR.c **** 
 161:Generated_Source\PSoC5/ADC_UI_SAR.c ****     /* Enable VCM buffer and Enable Int Ref Amp */
 162:Generated_Source\PSoC5/ADC_UI_SAR.c ****     tmpReg = ADC_UI_SAR_SAR_CSR3_REG;
  50              		.loc 1 162 0
  51 000e 1A49     		ldr	r1, .L3+8
 150:Generated_Source\PSoC5/ADC_UI_SAR.c **** 
  52              		.loc 1 150 0
  53 0010 43F00103 		orr	r3, r3, #1
  54 0014 0370     		strb	r3, [r0]
 153:Generated_Source\PSoC5/ADC_UI_SAR.c **** 
  55              		.loc 1 153 0
  56 0016 1378     		ldrb	r3, [r2]	@ zero_extendqisi2
 163:Generated_Source\PSoC5/ADC_UI_SAR.c ****     tmpReg |= ADC_UI_SAR_SAR_EN_BUF_VCM_EN;
 164:Generated_Source\PSoC5/ADC_UI_SAR.c ****     /* PD_BUF_VREF is OFF in External reference or Vdda reference mode */
 165:Generated_Source\PSoC5/ADC_UI_SAR.c ****     #if((ADC_UI_SAR_DEFAULT_REFERENCE == ADC_UI_SAR__EXT_REF) || \
 166:Generated_Source\PSoC5/ADC_UI_SAR.c ****         (ADC_UI_SAR_DEFAULT_RANGE == ADC_UI_SAR__VNEG_VDDA_DIFF))
 167:Generated_Source\PSoC5/ADC_UI_SAR.c ****         tmpReg &= (uint8)~ADC_UI_SAR_SAR_EN_BUF_VREF_EN;
 168:Generated_Source\PSoC5/ADC_UI_SAR.c ****     #else /* In INTREF or INTREF Bypassed this buffer is ON */
 169:Generated_Source\PSoC5/ADC_UI_SAR.c ****         tmpReg |= ADC_UI_SAR_SAR_EN_BUF_VREF_EN;
ARM GAS  C:\Users\mgronber\AppData\Local\Temp\cc1dpOSA.s 			page 5


 170:Generated_Source\PSoC5/ADC_UI_SAR.c ****     #endif /* ADC_UI_SAR_DEFAULT_REFERENCE == ADC_UI_SAR__EXT_REF */
 171:Generated_Source\PSoC5/ADC_UI_SAR.c ****     ADC_UI_SAR_SAR_CSR3_REG = tmpReg;
 172:Generated_Source\PSoC5/ADC_UI_SAR.c **** 
 173:Generated_Source\PSoC5/ADC_UI_SAR.c ****     /* Set reference for ADC */
 174:Generated_Source\PSoC5/ADC_UI_SAR.c ****     #if(ADC_UI_SAR_DEFAULT_RANGE == ADC_UI_SAR__VNEG_VDDA_DIFF)
 175:Generated_Source\PSoC5/ADC_UI_SAR.c ****         #if(ADC_UI_SAR_DEFAULT_REFERENCE == ADC_UI_SAR__EXT_REF)
 176:Generated_Source\PSoC5/ADC_UI_SAR.c ****             ADC_UI_SAR_SAR_CSR6_REG = ADC_UI_SAR_INT_BYPASS_EXT_VREF; /* S2 */
 177:Generated_Source\PSoC5/ADC_UI_SAR.c ****         #else /* Internal Vdda reference or obsolete bypass mode */
 178:Generated_Source\PSoC5/ADC_UI_SAR.c ****             ADC_UI_SAR_SAR_CSR6_REG = ADC_UI_SAR_VDDA_VREF;           /* S7 */
 179:Generated_Source\PSoC5/ADC_UI_SAR.c ****         #endif /* ADC_UI_SAR_DEFAULT_REFERENCE == ADC_UI_SAR__EXT_REF */
 180:Generated_Source\PSoC5/ADC_UI_SAR.c ****     #else  /* Reference goes through internal buffer */
 181:Generated_Source\PSoC5/ADC_UI_SAR.c ****         #if(ADC_UI_SAR_DEFAULT_REFERENCE == ADC_UI_SAR__INT_REF_NOT_BYPASSED)
 182:Generated_Source\PSoC5/ADC_UI_SAR.c ****             ADC_UI_SAR_SAR_CSR6_REG = ADC_UI_SAR_INT_VREF;            /* S3 + S4 */
  57              		.loc 1 182 0
  58 0018 00F5AA50 		add	r0, r0, #5440
 153:Generated_Source\PSoC5/ADC_UI_SAR.c **** 
  59              		.loc 1 153 0
  60 001c 43F00103 		orr	r3, r3, #1
  61 0020 1370     		strb	r3, [r2]
 162:Generated_Source\PSoC5/ADC_UI_SAR.c ****     tmpReg |= ADC_UI_SAR_SAR_EN_BUF_VCM_EN;
  62              		.loc 1 162 0
  63 0022 0A78     		ldrb	r2, [r1]	@ zero_extendqisi2
  64              	.LVL2:
 183:Generated_Source\PSoC5/ADC_UI_SAR.c ****         #else /* INTREF Bypassed of External */
 184:Generated_Source\PSoC5/ADC_UI_SAR.c ****             ADC_UI_SAR_SAR_CSR6_REG = ADC_UI_SAR_INT_BYPASS_EXT_VREF; /* S2 */
 185:Generated_Source\PSoC5/ADC_UI_SAR.c ****         #endif /* ADC_UI_SAR_DEFAULT_REFERENCE == ADC_UI_SAR__INT_REF_NOT_BYPASSED */
 186:Generated_Source\PSoC5/ADC_UI_SAR.c ****     #endif /* VNEG_VDDA_DIFF */
 187:Generated_Source\PSoC5/ADC_UI_SAR.c **** 
 188:Generated_Source\PSoC5/ADC_UI_SAR.c ****     /* Low non-overlap delay for sampling clock signals (for 1MSPS) */
 189:Generated_Source\PSoC5/ADC_UI_SAR.c ****     #if(ADC_UI_SAR_HIGH_POWER_PULSE == 0u) /* MinPulseWidth <= 50 ns */
 190:Generated_Source\PSoC5/ADC_UI_SAR.c ****         ADC_UI_SAR_SAR_CSR5_REG &= (uint8)~ADC_UI_SAR_SAR_DLY_INC;
 191:Generated_Source\PSoC5/ADC_UI_SAR.c ****     #else /* Set High non-overlap delay for sampling clock signals (for <500KSPS)*/
 192:Generated_Source\PSoC5/ADC_UI_SAR.c ****         ADC_UI_SAR_SAR_CSR5_REG |= ADC_UI_SAR_SAR_DLY_INC;
  65              		.loc 1 192 0
  66 0024 154B     		ldr	r3, .L3+12
 182:Generated_Source\PSoC5/ADC_UI_SAR.c ****         #else /* INTREF Bypassed of External */
  67              		.loc 1 182 0
  68 0026 1B30     		adds	r0, r0, #27
  69 0028 1825     		movs	r5, #24
 169:Generated_Source\PSoC5/ADC_UI_SAR.c ****     #endif /* ADC_UI_SAR_DEFAULT_REFERENCE == ADC_UI_SAR__EXT_REF */
  70              		.loc 1 169 0
  71 002a 42F00302 		orr	r2, r2, #3
  72              	.LVL3:
 171:Generated_Source\PSoC5/ADC_UI_SAR.c **** 
  73              		.loc 1 171 0
  74 002e 0A70     		strb	r2, [r1]
 182:Generated_Source\PSoC5/ADC_UI_SAR.c ****         #else /* INTREF Bypassed of External */
  75              		.loc 1 182 0
  76 0030 0570     		strb	r5, [r0]
  77              		.loc 1 192 0
  78 0032 1A78     		ldrb	r2, [r3]	@ zero_extendqisi2
  79              	.LVL4:
 193:Generated_Source\PSoC5/ADC_UI_SAR.c ****     #endif /* ADC_UI_SAR_HIGH_POWER_PULSE == 0u */
 194:Generated_Source\PSoC5/ADC_UI_SAR.c **** 
 195:Generated_Source\PSoC5/ADC_UI_SAR.c ****     /* Increase comparator latch enable delay by 20%, 
 196:Generated_Source\PSoC5/ADC_UI_SAR.c ****     *  Increase comparator bias current by 30% without impacting delaysDelay 
 197:Generated_Source\PSoC5/ADC_UI_SAR.c ****     *  Default for 1MSPS) 
ARM GAS  C:\Users\mgronber\AppData\Local\Temp\cc1dpOSA.s 			page 6


 198:Generated_Source\PSoC5/ADC_UI_SAR.c ****     */
 199:Generated_Source\PSoC5/ADC_UI_SAR.c ****     #if(ADC_UI_SAR_HIGH_POWER_PULSE == 0u)    /* MinPulseWidth <= 50 ns */
 200:Generated_Source\PSoC5/ADC_UI_SAR.c ****         ADC_UI_SAR_SAR_CSR5_REG |= ADC_UI_SAR_SAR_SEL_CSEL_DFT_CHAR;
 201:Generated_Source\PSoC5/ADC_UI_SAR.c ****     #else /* for <500ksps */
 202:Generated_Source\PSoC5/ADC_UI_SAR.c ****         ADC_UI_SAR_SAR_CSR5_REG &= (uint8)~ADC_UI_SAR_SAR_SEL_CSEL_DFT_CHAR;
 203:Generated_Source\PSoC5/ADC_UI_SAR.c ****     #endif /* ADC_UI_SAR_HIGH_POWER_PULSE == 0u */
 204:Generated_Source\PSoC5/ADC_UI_SAR.c **** 
 205:Generated_Source\PSoC5/ADC_UI_SAR.c ****     /* Set default power and other configurations for control register 0 in multiple lines */
 206:Generated_Source\PSoC5/ADC_UI_SAR.c ****     ADC_UI_SAR_SAR_CSR0_REG = (uint8)((uint8)ADC_UI_SAR_DEFAULT_POWER << ADC_UI_SAR_SAR_POWER_SHIFT
  80              		.loc 1 206 0
  81 0034 124E     		ldr	r6, .L3+16
 192:Generated_Source\PSoC5/ADC_UI_SAR.c ****     #endif /* ADC_UI_SAR_HIGH_POWER_PULSE == 0u */
  82              		.loc 1 192 0
  83 0036 42F04002 		orr	r2, r2, #64
  84 003a 1A70     		strb	r2, [r3]
 202:Generated_Source\PSoC5/ADC_UI_SAR.c ****     #endif /* ADC_UI_SAR_HIGH_POWER_PULSE == 0u */
  85              		.loc 1 202 0
  86 003c 1A78     		ldrb	r2, [r3]	@ zero_extendqisi2
 207:Generated_Source\PSoC5/ADC_UI_SAR.c ****     /* SAR_HIZ_CLEAR:   Should not be used for LP */
 208:Generated_Source\PSoC5/ADC_UI_SAR.c ****     #if ((CY_PSOC5LP) || (ADC_UI_SAR_DEFAULT_REFERENCE != ADC_UI_SAR__EXT_REF))
 209:Generated_Source\PSoC5/ADC_UI_SAR.c ****         | ADC_UI_SAR_SAR_HIZ_CLEAR
 210:Generated_Source\PSoC5/ADC_UI_SAR.c ****     #endif /* SAR_HIZ_CLEAR */
 211:Generated_Source\PSoC5/ADC_UI_SAR.c ****     /*Set Convertion mode */
 212:Generated_Source\PSoC5/ADC_UI_SAR.c ****     #if(ADC_UI_SAR_DEFAULT_CONV_MODE != ADC_UI_SAR__FREE_RUNNING)      /* If triggered mode */
 213:Generated_Source\PSoC5/ADC_UI_SAR.c ****         | ADC_UI_SAR_SAR_MX_SOF_UDB           /* source: UDB */
 214:Generated_Source\PSoC5/ADC_UI_SAR.c ****         | ADC_UI_SAR_SAR_SOF_MODE_EDGE        /* Set edge-sensitive sof source */
 215:Generated_Source\PSoC5/ADC_UI_SAR.c ****     #endif /* ADC_UI_SAR_DEFAULT_CONV_MODE */
 216:Generated_Source\PSoC5/ADC_UI_SAR.c ****     ; /* end of multiple line initialization */
 217:Generated_Source\PSoC5/ADC_UI_SAR.c **** 
 218:Generated_Source\PSoC5/ADC_UI_SAR.c ****     ADC_UI_SAR_SAR_TR0_REG = ADC_UI_SAR_SAR_CAP_TRIM_2;
  87              		.loc 1 218 0
  88 003e A0F59750 		sub	r0, r0, #4832
  89 0042 1238     		subs	r0, r0, #18
 202:Generated_Source\PSoC5/ADC_UI_SAR.c ****     #endif /* ADC_UI_SAR_HIGH_POWER_PULSE == 0u */
  90              		.loc 1 202 0
  91 0044 02F0FC02 		and	r2, r2, #252
 206:Generated_Source\PSoC5/ADC_UI_SAR.c ****     /* SAR_HIZ_CLEAR:   Should not be used for LP */
  92              		.loc 1 206 0
  93 0048 CE27     		movs	r7, #206
  94              		.loc 1 218 0
  95 004a 0225     		movs	r5, #2
 202:Generated_Source\PSoC5/ADC_UI_SAR.c ****     #endif /* ADC_UI_SAR_HIGH_POWER_PULSE == 0u */
  96              		.loc 1 202 0
  97 004c 1A70     		strb	r2, [r3]
 206:Generated_Source\PSoC5/ADC_UI_SAR.c ****     /* SAR_HIZ_CLEAR:   Should not be used for LP */
  98              		.loc 1 206 0
  99 004e 3770     		strb	r7, [r6]
 100              		.loc 1 218 0
 101 0050 0570     		strb	r5, [r0]
 219:Generated_Source\PSoC5/ADC_UI_SAR.c **** 
 220:Generated_Source\PSoC5/ADC_UI_SAR.c ****     /* Enable clock for SAR ADC*/
 221:Generated_Source\PSoC5/ADC_UI_SAR.c ****     ADC_UI_SAR_SAR_CLK_REG |= ADC_UI_SAR_SAR_MX_CLK_EN;
 102              		.loc 1 221 0
 103 0052 91F82432 		ldrb	r3, [r1, #548]	@ zero_extendqisi2
 222:Generated_Source\PSoC5/ADC_UI_SAR.c **** 
 223:Generated_Source\PSoC5/ADC_UI_SAR.c ****     CyDelayUs(10u); /* The block is ready to use 10 us after the enable signal is set high. */
 104              		.loc 1 223 0
ARM GAS  C:\Users\mgronber\AppData\Local\Temp\cc1dpOSA.s 			page 7


 105 0056 0A20     		movs	r0, #10
 221:Generated_Source\PSoC5/ADC_UI_SAR.c **** 
 106              		.loc 1 221 0
 107 0058 43F00803 		orr	r3, r3, #8
 108 005c 81F82432 		strb	r3, [r1, #548]
 109              		.loc 1 223 0
 110 0060 FFF7FEFF 		bl	CyDelayUs
 111              	.LVL5:
 224:Generated_Source\PSoC5/ADC_UI_SAR.c **** 
 225:Generated_Source\PSoC5/ADC_UI_SAR.c ****     #if(ADC_UI_SAR_IRQ_REMOVE == 0u)
 226:Generated_Source\PSoC5/ADC_UI_SAR.c ****         /* Clear a pending interrupt */
 227:Generated_Source\PSoC5/ADC_UI_SAR.c ****         CyIntClearPending(ADC_UI_SAR_INTC_NUMBER);
 228:Generated_Source\PSoC5/ADC_UI_SAR.c ****     #endif   /* End ADC_UI_SAR_IRQ_REMOVE */
 229:Generated_Source\PSoC5/ADC_UI_SAR.c **** 
 230:Generated_Source\PSoC5/ADC_UI_SAR.c ****     CyExitCriticalSection(enableInterrupts);
 112              		.loc 1 230 0
 113 0064 2046     		mov	r0, r4
 231:Generated_Source\PSoC5/ADC_UI_SAR.c **** }
 114              		.loc 1 231 0
 115 0066 BDE8F840 		pop	{r3, r4, r5, r6, r7, lr}
 116              		.cfi_restore 14
 117              		.cfi_restore 7
 118              		.cfi_restore 6
 119              		.cfi_restore 5
 120              		.cfi_restore 4
 121              		.cfi_restore 3
 122              		.cfi_def_cfa_offset 0
 123              	.LVL6:
 230:Generated_Source\PSoC5/ADC_UI_SAR.c **** }
 124              		.loc 1 230 0
 125 006a FFF7FEBF 		b	CyExitCriticalSection
 126              	.LVL7:
 127              	.L4:
 128 006e 00BF     		.align	2
 129              	.L3:
 130 0070 AB430040 		.word	1073759147
 131 0074 BB430040 		.word	1073759163
 132 0078 03590040 		.word	1073764611
 133 007c 05590040 		.word	1073764613
 134 0080 00590040 		.word	1073764608
 135              		.cfi_endproc
 136              	.LFE2:
 137              		.size	ADC_UI_SAR_Enable, .-ADC_UI_SAR_Enable
 138              		.section	.text.ADC_UI_SAR_Stop,"ax",%progbits
 139              		.align	2
 140              		.global	ADC_UI_SAR_Stop
 141              		.thumb
 142              		.thumb_func
 143              		.type	ADC_UI_SAR_Stop, %function
 144              	ADC_UI_SAR_Stop:
 145              	.LFB3:
 232:Generated_Source\PSoC5/ADC_UI_SAR.c **** 
 233:Generated_Source\PSoC5/ADC_UI_SAR.c **** 
 234:Generated_Source\PSoC5/ADC_UI_SAR.c **** /*******************************************************************************
 235:Generated_Source\PSoC5/ADC_UI_SAR.c **** * Function Name: ADC_UI_SAR_Stop
 236:Generated_Source\PSoC5/ADC_UI_SAR.c **** ********************************************************************************
 237:Generated_Source\PSoC5/ADC_UI_SAR.c **** *
ARM GAS  C:\Users\mgronber\AppData\Local\Temp\cc1dpOSA.s 			page 8


 238:Generated_Source\PSoC5/ADC_UI_SAR.c **** * Summary:
 239:Generated_Source\PSoC5/ADC_UI_SAR.c **** *  Stops ADC conversions and puts the ADC into its lowest power mode.
 240:Generated_Source\PSoC5/ADC_UI_SAR.c **** *
 241:Generated_Source\PSoC5/ADC_UI_SAR.c **** * Parameters:
 242:Generated_Source\PSoC5/ADC_UI_SAR.c **** *  None.
 243:Generated_Source\PSoC5/ADC_UI_SAR.c **** *
 244:Generated_Source\PSoC5/ADC_UI_SAR.c **** * Return:
 245:Generated_Source\PSoC5/ADC_UI_SAR.c **** *  None.
 246:Generated_Source\PSoC5/ADC_UI_SAR.c **** *
 247:Generated_Source\PSoC5/ADC_UI_SAR.c **** *******************************************************************************/
 248:Generated_Source\PSoC5/ADC_UI_SAR.c **** void ADC_UI_SAR_Stop(void)
 249:Generated_Source\PSoC5/ADC_UI_SAR.c **** {
 146              		.loc 1 249 0
 147              		.cfi_startproc
 148              		@ args = 0, pretend = 0, frame = 0
 149              		@ frame_needed = 0, uses_anonymous_args = 0
 150 0000 10B5     		push	{r4, lr}
 151              		.cfi_def_cfa_offset 8
 152              		.cfi_offset 4, -8
 153              		.cfi_offset 14, -4
 250:Generated_Source\PSoC5/ADC_UI_SAR.c ****     uint8 enableInterrupts;
 251:Generated_Source\PSoC5/ADC_UI_SAR.c ****     enableInterrupts = CyEnterCriticalSection();
 252:Generated_Source\PSoC5/ADC_UI_SAR.c **** 
 253:Generated_Source\PSoC5/ADC_UI_SAR.c ****     /* Stop all conversions */
 254:Generated_Source\PSoC5/ADC_UI_SAR.c ****     ADC_UI_SAR_SAR_CSR0_REG &= (uint8)~ADC_UI_SAR_SAR_SOF_START_CONV;
 154              		.loc 1 254 0
 155 0002 0A4C     		ldr	r4, .L7
 251:Generated_Source\PSoC5/ADC_UI_SAR.c **** 
 156              		.loc 1 251 0
 157 0004 FFF7FEFF 		bl	CyEnterCriticalSection
 158              	.LVL8:
 159              		.loc 1 254 0
 160 0008 2378     		ldrb	r3, [r4]	@ zero_extendqisi2
 255:Generated_Source\PSoC5/ADC_UI_SAR.c ****     /* Disable the SAR ADC block in Active Power Mode */
 256:Generated_Source\PSoC5/ADC_UI_SAR.c ****     ADC_UI_SAR_PWRMGR_SAR_REG &= (uint8)~ADC_UI_SAR_ACT_PWR_SAR_EN;
 161              		.loc 1 256 0
 162 000a 0949     		ldr	r1, .L7+4
 254:Generated_Source\PSoC5/ADC_UI_SAR.c ****     /* Disable the SAR ADC block in Active Power Mode */
 163              		.loc 1 254 0
 164 000c 03F0FE03 		and	r3, r3, #254
 165 0010 2370     		strb	r3, [r4]
 166              		.loc 1 256 0
 167 0012 0B78     		ldrb	r3, [r1]	@ zero_extendqisi2
 257:Generated_Source\PSoC5/ADC_UI_SAR.c ****     /* Disable the SAR ADC in Standby Power Mode */
 258:Generated_Source\PSoC5/ADC_UI_SAR.c ****     ADC_UI_SAR_STBY_PWRMGR_SAR_REG &= (uint8)~ADC_UI_SAR_STBY_PWR_SAR_EN;
 168              		.loc 1 258 0
 169 0014 074A     		ldr	r2, .L7+8
 256:Generated_Source\PSoC5/ADC_UI_SAR.c ****     /* Disable the SAR ADC in Standby Power Mode */
 170              		.loc 1 256 0
 171 0016 03F0FE03 		and	r3, r3, #254
 172 001a 0B70     		strb	r3, [r1]
 173              		.loc 1 258 0
 174 001c 1378     		ldrb	r3, [r2]	@ zero_extendqisi2
 175 001e 03F0FE03 		and	r3, r3, #254
 176 0022 1370     		strb	r3, [r2]
 259:Generated_Source\PSoC5/ADC_UI_SAR.c **** 
 260:Generated_Source\PSoC5/ADC_UI_SAR.c ****     /* This is only valid if there is an internal clock */
ARM GAS  C:\Users\mgronber\AppData\Local\Temp\cc1dpOSA.s 			page 9


 261:Generated_Source\PSoC5/ADC_UI_SAR.c ****     #if(ADC_UI_SAR_DEFAULT_INTERNAL_CLK)
 262:Generated_Source\PSoC5/ADC_UI_SAR.c ****         ADC_UI_SAR_PWRMGR_CLK_REG &= (uint8)~ADC_UI_SAR_ACT_PWR_CLK_EN;
 263:Generated_Source\PSoC5/ADC_UI_SAR.c ****         ADC_UI_SAR_STBY_PWRMGR_CLK_REG &= (uint8)~ADC_UI_SAR_STBY_PWR_CLK_EN;
 264:Generated_Source\PSoC5/ADC_UI_SAR.c ****     #endif /* End ADC_UI_SAR_DEFAULT_INTERNAL_CLK */
 265:Generated_Source\PSoC5/ADC_UI_SAR.c **** 
 266:Generated_Source\PSoC5/ADC_UI_SAR.c ****     CyExitCriticalSection(enableInterrupts);
 267:Generated_Source\PSoC5/ADC_UI_SAR.c **** 
 268:Generated_Source\PSoC5/ADC_UI_SAR.c **** }
 177              		.loc 1 268 0
 178 0024 BDE81040 		pop	{r4, lr}
 179              		.cfi_restore 14
 180              		.cfi_restore 4
 181              		.cfi_def_cfa_offset 0
 266:Generated_Source\PSoC5/ADC_UI_SAR.c **** 
 182              		.loc 1 266 0
 183 0028 FFF7FEBF 		b	CyExitCriticalSection
 184              	.LVL9:
 185              	.L8:
 186              		.align	2
 187              	.L7:
 188 002c 00590040 		.word	1073764608
 189 0030 AB430040 		.word	1073759147
 190 0034 BB430040 		.word	1073759163
 191              		.cfi_endproc
 192              	.LFE3:
 193              		.size	ADC_UI_SAR_Stop, .-ADC_UI_SAR_Stop
 194              		.section	.text.ADC_UI_SAR_SetPower,"ax",%progbits
 195              		.align	2
 196              		.global	ADC_UI_SAR_SetPower
 197              		.thumb
 198              		.thumb_func
 199              		.type	ADC_UI_SAR_SetPower, %function
 200              	ADC_UI_SAR_SetPower:
 201              	.LFB4:
 269:Generated_Source\PSoC5/ADC_UI_SAR.c **** 
 270:Generated_Source\PSoC5/ADC_UI_SAR.c **** 
 271:Generated_Source\PSoC5/ADC_UI_SAR.c **** /*******************************************************************************
 272:Generated_Source\PSoC5/ADC_UI_SAR.c **** * Function Name: ADC_UI_SAR_SetPower
 273:Generated_Source\PSoC5/ADC_UI_SAR.c **** ********************************************************************************
 274:Generated_Source\PSoC5/ADC_UI_SAR.c **** *
 275:Generated_Source\PSoC5/ADC_UI_SAR.c **** * Summary:
 276:Generated_Source\PSoC5/ADC_UI_SAR.c **** *  Sets the operational power of the ADC. You should use the higher power
 277:Generated_Source\PSoC5/ADC_UI_SAR.c **** *  settings with faster clock speeds.
 278:Generated_Source\PSoC5/ADC_UI_SAR.c **** *
 279:Generated_Source\PSoC5/ADC_UI_SAR.c **** * Parameters:
 280:Generated_Source\PSoC5/ADC_UI_SAR.c **** *  power:  Power setting for ADC
 281:Generated_Source\PSoC5/ADC_UI_SAR.c **** *  0 ->    Normal
 282:Generated_Source\PSoC5/ADC_UI_SAR.c **** *  1 ->    Medium power
 283:Generated_Source\PSoC5/ADC_UI_SAR.c **** *  2 ->    1.25 power
 284:Generated_Source\PSoC5/ADC_UI_SAR.c **** *  3 ->    Minimum power.
 285:Generated_Source\PSoC5/ADC_UI_SAR.c **** *
 286:Generated_Source\PSoC5/ADC_UI_SAR.c **** * Return:
 287:Generated_Source\PSoC5/ADC_UI_SAR.c **** *  None.
 288:Generated_Source\PSoC5/ADC_UI_SAR.c **** *
 289:Generated_Source\PSoC5/ADC_UI_SAR.c **** *******************************************************************************/
 290:Generated_Source\PSoC5/ADC_UI_SAR.c **** void ADC_UI_SAR_SetPower(uint8 power)
 291:Generated_Source\PSoC5/ADC_UI_SAR.c **** {
ARM GAS  C:\Users\mgronber\AppData\Local\Temp\cc1dpOSA.s 			page 10


 202              		.loc 1 291 0
 203              		.cfi_startproc
 204              		@ args = 0, pretend = 0, frame = 0
 205              		@ frame_needed = 0, uses_anonymous_args = 0
 206              		@ link register save eliminated.
 207              	.LVL10:
 292:Generated_Source\PSoC5/ADC_UI_SAR.c ****     uint8 tmpReg;
 293:Generated_Source\PSoC5/ADC_UI_SAR.c **** 
 294:Generated_Source\PSoC5/ADC_UI_SAR.c ****     /* mask off invalid power settings */
 295:Generated_Source\PSoC5/ADC_UI_SAR.c ****     power &= ADC_UI_SAR_SAR_API_POWER_MASK;
 296:Generated_Source\PSoC5/ADC_UI_SAR.c **** 
 297:Generated_Source\PSoC5/ADC_UI_SAR.c ****     /* Set Power parameter  */
 298:Generated_Source\PSoC5/ADC_UI_SAR.c ****     tmpReg = ADC_UI_SAR_SAR_CSR0_REG & (uint8)~ADC_UI_SAR_SAR_POWER_MASK;
 208              		.loc 1 298 0
 209 0000 044A     		ldr	r2, .L10
 295:Generated_Source\PSoC5/ADC_UI_SAR.c **** 
 210              		.loc 1 295 0
 211 0002 00F00300 		and	r0, r0, #3
 212              	.LVL11:
 213              		.loc 1 298 0
 214 0006 1378     		ldrb	r3, [r2]	@ zero_extendqisi2
 215 0008 03F03F03 		and	r3, r3, #63
 216              	.LVL12:
 299:Generated_Source\PSoC5/ADC_UI_SAR.c ****     tmpReg |= (uint8)(power << ADC_UI_SAR_SAR_POWER_SHIFT);
 217              		.loc 1 299 0
 218 000c 43EA8010 		orr	r0, r3, r0, lsl #6
 219              	.LVL13:
 300:Generated_Source\PSoC5/ADC_UI_SAR.c ****     ADC_UI_SAR_SAR_CSR0_REG = tmpReg;
 220              		.loc 1 300 0
 221 0010 1070     		strb	r0, [r2]
 222 0012 7047     		bx	lr
 223              	.L11:
 224              		.align	2
 225              	.L10:
 226 0014 00590040 		.word	1073764608
 227              		.cfi_endproc
 228              	.LFE4:
 229              		.size	ADC_UI_SAR_SetPower, .-ADC_UI_SAR_SetPower
 230              		.section	.text.ADC_UI_SAR_SetResolution,"ax",%progbits
 231              		.align	2
 232              		.global	ADC_UI_SAR_SetResolution
 233              		.thumb
 234              		.thumb_func
 235              		.type	ADC_UI_SAR_SetResolution, %function
 236              	ADC_UI_SAR_SetResolution:
 237              	.LFB5:
 301:Generated_Source\PSoC5/ADC_UI_SAR.c **** }
 302:Generated_Source\PSoC5/ADC_UI_SAR.c **** 
 303:Generated_Source\PSoC5/ADC_UI_SAR.c **** 
 304:Generated_Source\PSoC5/ADC_UI_SAR.c **** /*******************************************************************************
 305:Generated_Source\PSoC5/ADC_UI_SAR.c **** * Function Name: ADC_UI_SAR_SetResolution
 306:Generated_Source\PSoC5/ADC_UI_SAR.c **** ********************************************************************************
 307:Generated_Source\PSoC5/ADC_UI_SAR.c **** *
 308:Generated_Source\PSoC5/ADC_UI_SAR.c **** * Summary:
 309:Generated_Source\PSoC5/ADC_UI_SAR.c **** *  Sets the Relution of the SAR.
 310:Generated_Source\PSoC5/ADC_UI_SAR.c **** *
 311:Generated_Source\PSoC5/ADC_UI_SAR.c **** * Parameters:
ARM GAS  C:\Users\mgronber\AppData\Local\Temp\cc1dpOSA.s 			page 11


 312:Generated_Source\PSoC5/ADC_UI_SAR.c **** *  resolution:
 313:Generated_Source\PSoC5/ADC_UI_SAR.c **** *  12 ->    RES12
 314:Generated_Source\PSoC5/ADC_UI_SAR.c **** *  10 ->    RES10
 315:Generated_Source\PSoC5/ADC_UI_SAR.c **** *  8  ->    RES8
 316:Generated_Source\PSoC5/ADC_UI_SAR.c **** *
 317:Generated_Source\PSoC5/ADC_UI_SAR.c **** * Return:
 318:Generated_Source\PSoC5/ADC_UI_SAR.c **** *  None.
 319:Generated_Source\PSoC5/ADC_UI_SAR.c **** *
 320:Generated_Source\PSoC5/ADC_UI_SAR.c **** * Side Effects:
 321:Generated_Source\PSoC5/ADC_UI_SAR.c **** *  The ADC resolution cannot be changed during a conversion cycle. The
 322:Generated_Source\PSoC5/ADC_UI_SAR.c **** *  recommended best practice is to stop conversions with
 323:Generated_Source\PSoC5/ADC_UI_SAR.c **** *  ADC_StopConvert(), change the resolution, then restart the
 324:Generated_Source\PSoC5/ADC_UI_SAR.c **** *  conversions with ADC_StartConvert().
 325:Generated_Source\PSoC5/ADC_UI_SAR.c **** *  If you decide not to stop conversions before calling this API, you
 326:Generated_Source\PSoC5/ADC_UI_SAR.c **** *  should use ADC_IsEndConversion() to wait until conversion is complete
 327:Generated_Source\PSoC5/ADC_UI_SAR.c **** *  before changing the resolution.
 328:Generated_Source\PSoC5/ADC_UI_SAR.c **** *  If you call ADC_SetResolution() during a conversion, the resolution will
 329:Generated_Source\PSoC5/ADC_UI_SAR.c **** *  not be changed until the current conversion is complete. Data will not be
 330:Generated_Source\PSoC5/ADC_UI_SAR.c **** *  available in the new resolution for another 6 + "New Resolution(in bits)"
 331:Generated_Source\PSoC5/ADC_UI_SAR.c **** *  clock cycles.
 332:Generated_Source\PSoC5/ADC_UI_SAR.c **** *  You may need add a delay of this number of clock cycles after
 333:Generated_Source\PSoC5/ADC_UI_SAR.c **** *  ADC_SetResolution() is called before data is valid again.
 334:Generated_Source\PSoC5/ADC_UI_SAR.c **** *  Affects ADC_CountsTo_Volts(), ADC_CountsTo_mVolts(), and
 335:Generated_Source\PSoC5/ADC_UI_SAR.c **** *  ADC_CountsTo_uVolts() by calculating the correct conversion between ADC
 336:Generated_Source\PSoC5/ADC_UI_SAR.c **** *  counts and the applied input voltage. Calculation depends on resolution,
 337:Generated_Source\PSoC5/ADC_UI_SAR.c **** *  input range, and voltage reference.
 338:Generated_Source\PSoC5/ADC_UI_SAR.c **** *
 339:Generated_Source\PSoC5/ADC_UI_SAR.c **** *******************************************************************************/
 340:Generated_Source\PSoC5/ADC_UI_SAR.c **** void ADC_UI_SAR_SetResolution(uint8 resolution)
 341:Generated_Source\PSoC5/ADC_UI_SAR.c **** {
 238              		.loc 1 341 0
 239              		.cfi_startproc
 240              		@ args = 0, pretend = 0, frame = 0
 241              		@ frame_needed = 0, uses_anonymous_args = 0
 242              	.LVL14:
 342:Generated_Source\PSoC5/ADC_UI_SAR.c ****     uint8 tmpReg;
 343:Generated_Source\PSoC5/ADC_UI_SAR.c **** 
 344:Generated_Source\PSoC5/ADC_UI_SAR.c ****     /* Set SAR ADC resolution and sample width: 18 conversion cycles at 12bits + 1 gap */
 345:Generated_Source\PSoC5/ADC_UI_SAR.c ****     switch (resolution)
 243              		.loc 1 345 0
 244 0000 0A28     		cmp	r0, #10
 341:Generated_Source\PSoC5/ADC_UI_SAR.c ****     uint8 tmpReg;
 245              		.loc 1 341 0
 246 0002 10B5     		push	{r4, lr}
 247              		.cfi_def_cfa_offset 8
 248              		.cfi_offset 4, -8
 249              		.cfi_offset 14, -4
 341:Generated_Source\PSoC5/ADC_UI_SAR.c ****     uint8 tmpReg;
 250              		.loc 1 341 0
 251 0004 0446     		mov	r4, r0
 252              		.loc 1 345 0
 253 0006 2AD0     		beq	.L21
 254 0008 0C28     		cmp	r0, #12
 255 000a 22D0     		beq	.L15
 256 000c 0828     		cmp	r0, #8
 257 000e 17D0     		beq	.L16
 258              	.LVL15:
ARM GAS  C:\Users\mgronber\AppData\Local\Temp\cc1dpOSA.s 			page 12


 346:Generated_Source\PSoC5/ADC_UI_SAR.c ****     {
 347:Generated_Source\PSoC5/ADC_UI_SAR.c ****         case (uint8)ADC_UI_SAR__BITS_12:
 348:Generated_Source\PSoC5/ADC_UI_SAR.c ****             tmpReg = ADC_UI_SAR_SAR_RESOLUTION_12BIT | ADC_UI_SAR_SAR_SAMPLE_WIDTH;
 349:Generated_Source\PSoC5/ADC_UI_SAR.c ****             break;
 350:Generated_Source\PSoC5/ADC_UI_SAR.c ****         case (uint8)ADC_UI_SAR__BITS_10:
 351:Generated_Source\PSoC5/ADC_UI_SAR.c ****             tmpReg = ADC_UI_SAR_SAR_RESOLUTION_10BIT | ADC_UI_SAR_SAR_SAMPLE_WIDTH;
 352:Generated_Source\PSoC5/ADC_UI_SAR.c ****             break;
 353:Generated_Source\PSoC5/ADC_UI_SAR.c ****         case (uint8)ADC_UI_SAR__BITS_8:
 354:Generated_Source\PSoC5/ADC_UI_SAR.c ****             tmpReg = ADC_UI_SAR_SAR_RESOLUTION_8BIT | ADC_UI_SAR_SAR_SAMPLE_WIDTH;
 355:Generated_Source\PSoC5/ADC_UI_SAR.c ****             break;
 356:Generated_Source\PSoC5/ADC_UI_SAR.c ****         default:
 357:Generated_Source\PSoC5/ADC_UI_SAR.c ****             tmpReg = ADC_UI_SAR_SAR_RESOLUTION_12BIT | ADC_UI_SAR_SAR_SAMPLE_WIDTH;
 358:Generated_Source\PSoC5/ADC_UI_SAR.c ****             /* Halt CPU in debug mode if resolution is out of valid range */
 359:Generated_Source\PSoC5/ADC_UI_SAR.c ****             CYASSERT(0u != 0u);
 259              		.loc 1 359 0
 260 0010 0020     		movs	r0, #0
 261              	.LVL16:
 262 0012 FFF7FEFF 		bl	CyHalt
 263              	.LVL17:
 357:Generated_Source\PSoC5/ADC_UI_SAR.c ****             /* Halt CPU in debug mode if resolution is out of valid range */
 264              		.loc 1 357 0
 265 0016 C223     		movs	r3, #194
 266              	.LVL18:
 267              	.L14:
 360:Generated_Source\PSoC5/ADC_UI_SAR.c ****             break;
 361:Generated_Source\PSoC5/ADC_UI_SAR.c ****     }
 362:Generated_Source\PSoC5/ADC_UI_SAR.c ****     ADC_UI_SAR_SAR_CSR2_REG = tmpReg;
 268              		.loc 1 362 0
 269 0018 134A     		ldr	r2, .L30
 270              	.LBB6:
 271              	.LBB7:
 363:Generated_Source\PSoC5/ADC_UI_SAR.c **** 
 364:Generated_Source\PSoC5/ADC_UI_SAR.c ****      /* Calculate gain for convert counts to volts */
 365:Generated_Source\PSoC5/ADC_UI_SAR.c ****     ADC_UI_SAR_CalcGain(resolution);
 366:Generated_Source\PSoC5/ADC_UI_SAR.c **** }
 367:Generated_Source\PSoC5/ADC_UI_SAR.c **** 
 368:Generated_Source\PSoC5/ADC_UI_SAR.c **** 
 369:Generated_Source\PSoC5/ADC_UI_SAR.c **** #if(ADC_UI_SAR_DEFAULT_CONV_MODE != ADC_UI_SAR__HARDWARE_TRIGGER)
 370:Generated_Source\PSoC5/ADC_UI_SAR.c **** 
 371:Generated_Source\PSoC5/ADC_UI_SAR.c **** 
 372:Generated_Source\PSoC5/ADC_UI_SAR.c ****     /*******************************************************************************
 373:Generated_Source\PSoC5/ADC_UI_SAR.c ****     * Function Name: ADC_UI_SAR_StartConvert
 374:Generated_Source\PSoC5/ADC_UI_SAR.c ****     ********************************************************************************
 375:Generated_Source\PSoC5/ADC_UI_SAR.c ****     *
 376:Generated_Source\PSoC5/ADC_UI_SAR.c ****     * Summary:
 377:Generated_Source\PSoC5/ADC_UI_SAR.c ****     *  Forces the ADC to initiate a conversion. In free-running mode, the ADC runs
 378:Generated_Source\PSoC5/ADC_UI_SAR.c ****     *  continuously. In software trigger mode, the function also acts as a software
 379:Generated_Source\PSoC5/ADC_UI_SAR.c ****     *  version of the SOC and every conversion must be triggered by
 380:Generated_Source\PSoC5/ADC_UI_SAR.c ****     *  ADC_UI_SAR_StartConvert(). This function is not available when the
 381:Generated_Source\PSoC5/ADC_UI_SAR.c ****     *  Hardware Trigger sample mode is selected.
 382:Generated_Source\PSoC5/ADC_UI_SAR.c ****     *
 383:Generated_Source\PSoC5/ADC_UI_SAR.c ****     * Parameters:
 384:Generated_Source\PSoC5/ADC_UI_SAR.c ****     *  None.
 385:Generated_Source\PSoC5/ADC_UI_SAR.c ****     *
 386:Generated_Source\PSoC5/ADC_UI_SAR.c ****     * Return:
 387:Generated_Source\PSoC5/ADC_UI_SAR.c ****     *  None.
 388:Generated_Source\PSoC5/ADC_UI_SAR.c ****     *
ARM GAS  C:\Users\mgronber\AppData\Local\Temp\cc1dpOSA.s 			page 13


 389:Generated_Source\PSoC5/ADC_UI_SAR.c ****     * Theory:
 390:Generated_Source\PSoC5/ADC_UI_SAR.c ****     *  Forces the ADC to initiate a conversion. In Free Running mode, the ADC will
 391:Generated_Source\PSoC5/ADC_UI_SAR.c ****     *  run continuously. In a software trigger mode the function also acts as a
 392:Generated_Source\PSoC5/ADC_UI_SAR.c ****     *  software version of the SOC. Here every conversion has to be triggered by
 393:Generated_Source\PSoC5/ADC_UI_SAR.c ****     *  the routine. This writes into the SOC bit in SAR_CTRL reg.
 394:Generated_Source\PSoC5/ADC_UI_SAR.c ****     *
 395:Generated_Source\PSoC5/ADC_UI_SAR.c ****     * Side Effects:
 396:Generated_Source\PSoC5/ADC_UI_SAR.c ****     *  In a software trigger mode the function switches source for SOF from the
 397:Generated_Source\PSoC5/ADC_UI_SAR.c ****     *  external pin to the internal SOF generation. Application should not call
 398:Generated_Source\PSoC5/ADC_UI_SAR.c ****     *  StartConvert if external source used for SOF.
 399:Generated_Source\PSoC5/ADC_UI_SAR.c ****     *
 400:Generated_Source\PSoC5/ADC_UI_SAR.c ****     *******************************************************************************/
 401:Generated_Source\PSoC5/ADC_UI_SAR.c ****     void ADC_UI_SAR_StartConvert(void)
 402:Generated_Source\PSoC5/ADC_UI_SAR.c ****     {
 403:Generated_Source\PSoC5/ADC_UI_SAR.c ****         #if(ADC_UI_SAR_DEFAULT_CONV_MODE != ADC_UI_SAR__FREE_RUNNING)  /* If software triggered mod
 404:Generated_Source\PSoC5/ADC_UI_SAR.c ****             ADC_UI_SAR_SAR_CSR0_REG &= (uint8)~ADC_UI_SAR_SAR_MX_SOF_UDB;   /* source: SOF bit */
 405:Generated_Source\PSoC5/ADC_UI_SAR.c ****         #endif /* End ADC_UI_SAR_DEFAULT_CONV_MODE */
 406:Generated_Source\PSoC5/ADC_UI_SAR.c **** 
 407:Generated_Source\PSoC5/ADC_UI_SAR.c ****         /* Start the conversion */
 408:Generated_Source\PSoC5/ADC_UI_SAR.c ****         ADC_UI_SAR_SAR_CSR0_REG |= ADC_UI_SAR_SAR_SOF_START_CONV;
 409:Generated_Source\PSoC5/ADC_UI_SAR.c ****     }
 410:Generated_Source\PSoC5/ADC_UI_SAR.c **** 
 411:Generated_Source\PSoC5/ADC_UI_SAR.c **** 
 412:Generated_Source\PSoC5/ADC_UI_SAR.c ****     /*******************************************************************************
 413:Generated_Source\PSoC5/ADC_UI_SAR.c ****     * Function Name: ADC_UI_SAR_StopConvert
 414:Generated_Source\PSoC5/ADC_UI_SAR.c ****     ********************************************************************************
 415:Generated_Source\PSoC5/ADC_UI_SAR.c ****     *
 416:Generated_Source\PSoC5/ADC_UI_SAR.c ****     * Summary:
 417:Generated_Source\PSoC5/ADC_UI_SAR.c ****     *  Forces the ADC to stop conversions. If a conversion is currently executing,
 418:Generated_Source\PSoC5/ADC_UI_SAR.c ****     *  that conversion will complete, but no further conversions will occur. This
 419:Generated_Source\PSoC5/ADC_UI_SAR.c ****     *  function is not available when the Hardware Trigger sample mode is selected.
 420:Generated_Source\PSoC5/ADC_UI_SAR.c ****     *
 421:Generated_Source\PSoC5/ADC_UI_SAR.c ****     * Parameters:
 422:Generated_Source\PSoC5/ADC_UI_SAR.c ****     *  None.
 423:Generated_Source\PSoC5/ADC_UI_SAR.c ****     *
 424:Generated_Source\PSoC5/ADC_UI_SAR.c ****     * Return:
 425:Generated_Source\PSoC5/ADC_UI_SAR.c ****     *  None.
 426:Generated_Source\PSoC5/ADC_UI_SAR.c ****     *
 427:Generated_Source\PSoC5/ADC_UI_SAR.c ****     * Theory:
 428:Generated_Source\PSoC5/ADC_UI_SAR.c ****     *  Stops ADC conversion in Free Running mode.
 429:Generated_Source\PSoC5/ADC_UI_SAR.c ****     *
 430:Generated_Source\PSoC5/ADC_UI_SAR.c ****     * Side Effects:
 431:Generated_Source\PSoC5/ADC_UI_SAR.c ****     *  In Software Trigger sample mode, this function sets a software version of the
 432:Generated_Source\PSoC5/ADC_UI_SAR.c ****     *  SOC to low level and switches the SOC source to hardware SOC input.
 433:Generated_Source\PSoC5/ADC_UI_SAR.c ****     *
 434:Generated_Source\PSoC5/ADC_UI_SAR.c ****     *******************************************************************************/
 435:Generated_Source\PSoC5/ADC_UI_SAR.c ****     void ADC_UI_SAR_StopConvert(void)
 436:Generated_Source\PSoC5/ADC_UI_SAR.c ****     {
 437:Generated_Source\PSoC5/ADC_UI_SAR.c ****         /* Stop all conversions */
 438:Generated_Source\PSoC5/ADC_UI_SAR.c ****         ADC_UI_SAR_SAR_CSR0_REG &= (uint8)~ADC_UI_SAR_SAR_SOF_START_CONV;
 439:Generated_Source\PSoC5/ADC_UI_SAR.c **** 
 440:Generated_Source\PSoC5/ADC_UI_SAR.c ****         #if(ADC_UI_SAR_DEFAULT_CONV_MODE != ADC_UI_SAR__FREE_RUNNING)  /* If software triggered mod
 441:Generated_Source\PSoC5/ADC_UI_SAR.c ****             /* Return source to UDB for hardware SOF signal */
 442:Generated_Source\PSoC5/ADC_UI_SAR.c ****             ADC_UI_SAR_SAR_CSR0_REG |= ADC_UI_SAR_SAR_MX_SOF_UDB;    /* source: UDB */
 443:Generated_Source\PSoC5/ADC_UI_SAR.c ****         #endif /* End ADC_UI_SAR_DEFAULT_CONV_MODE */
 444:Generated_Source\PSoC5/ADC_UI_SAR.c **** 
 445:Generated_Source\PSoC5/ADC_UI_SAR.c ****     }
ARM GAS  C:\Users\mgronber\AppData\Local\Temp\cc1dpOSA.s 			page 14


 446:Generated_Source\PSoC5/ADC_UI_SAR.c **** 
 447:Generated_Source\PSoC5/ADC_UI_SAR.c **** #endif /* End ADC_UI_SAR_DEFAULT_CONV_MODE != ADC_UI_SAR__HARDWARE_TRIGGER */
 448:Generated_Source\PSoC5/ADC_UI_SAR.c **** 
 449:Generated_Source\PSoC5/ADC_UI_SAR.c **** 
 450:Generated_Source\PSoC5/ADC_UI_SAR.c **** /*******************************************************************************
 451:Generated_Source\PSoC5/ADC_UI_SAR.c **** * Function Name: ADC_UI_SAR_IsEndConversion
 452:Generated_Source\PSoC5/ADC_UI_SAR.c **** ********************************************************************************
 453:Generated_Source\PSoC5/ADC_UI_SAR.c **** *
 454:Generated_Source\PSoC5/ADC_UI_SAR.c **** * Summary:
 455:Generated_Source\PSoC5/ADC_UI_SAR.c **** *  Immediately returns the status of the conversion or does not return
 456:Generated_Source\PSoC5/ADC_UI_SAR.c **** *  (blocking) until the conversion completes, depending on the retMode
 457:Generated_Source\PSoC5/ADC_UI_SAR.c **** *  parameter.
 458:Generated_Source\PSoC5/ADC_UI_SAR.c **** *
 459:Generated_Source\PSoC5/ADC_UI_SAR.c **** * Parameters:
 460:Generated_Source\PSoC5/ADC_UI_SAR.c **** *  retMode:  Check conversion return mode.
 461:Generated_Source\PSoC5/ADC_UI_SAR.c **** *   ADC_UI_SAR_RETURN_STATUS: Immediately returns the status. If the
 462:Generated_Source\PSoC5/ADC_UI_SAR.c **** *     value returned is zero, the conversion is not complete, and this function
 463:Generated_Source\PSoC5/ADC_UI_SAR.c **** *     should be retried until a nonzero result is returned.
 464:Generated_Source\PSoC5/ADC_UI_SAR.c **** *   ADC_UI_SAR_WAIT_FOR_RESULT: Does not return a result until the ADC
 465:Generated_Source\PSoC5/ADC_UI_SAR.c **** *     conversion is complete.
 466:Generated_Source\PSoC5/ADC_UI_SAR.c **** *
 467:Generated_Source\PSoC5/ADC_UI_SAR.c **** * Return:
 468:Generated_Source\PSoC5/ADC_UI_SAR.c **** *  (uint8)  0 =>  The ADC is still calculating the last result.
 469:Generated_Source\PSoC5/ADC_UI_SAR.c **** *           1 =>  The last conversion is complete.
 470:Generated_Source\PSoC5/ADC_UI_SAR.c **** *
 471:Generated_Source\PSoC5/ADC_UI_SAR.c **** * Side Effects:
 472:Generated_Source\PSoC5/ADC_UI_SAR.c **** *  This function reads the end of conversion status, which is cleared on read.
 473:Generated_Source\PSoC5/ADC_UI_SAR.c **** *
 474:Generated_Source\PSoC5/ADC_UI_SAR.c **** *******************************************************************************/
 475:Generated_Source\PSoC5/ADC_UI_SAR.c **** uint8 ADC_UI_SAR_IsEndConversion(uint8 retMode)
 476:Generated_Source\PSoC5/ADC_UI_SAR.c **** {
 477:Generated_Source\PSoC5/ADC_UI_SAR.c ****     uint8 status;
 478:Generated_Source\PSoC5/ADC_UI_SAR.c **** 
 479:Generated_Source\PSoC5/ADC_UI_SAR.c ****     do
 480:Generated_Source\PSoC5/ADC_UI_SAR.c ****     {
 481:Generated_Source\PSoC5/ADC_UI_SAR.c ****         status = ADC_UI_SAR_SAR_CSR1_REG & ADC_UI_SAR_SAR_EOF_1;
 482:Generated_Source\PSoC5/ADC_UI_SAR.c ****     } while ((status != ADC_UI_SAR_SAR_EOF_1) && (retMode == ADC_UI_SAR_WAIT_FOR_RESULT));
 483:Generated_Source\PSoC5/ADC_UI_SAR.c ****     /* If convertion complete, wait until EOF bit released */
 484:Generated_Source\PSoC5/ADC_UI_SAR.c ****     if(status == ADC_UI_SAR_SAR_EOF_1)
 485:Generated_Source\PSoC5/ADC_UI_SAR.c ****     {
 486:Generated_Source\PSoC5/ADC_UI_SAR.c ****         /* wait one ADC clock to let the EOC status bit release */
 487:Generated_Source\PSoC5/ADC_UI_SAR.c ****         CyDelayUs(1u);
 488:Generated_Source\PSoC5/ADC_UI_SAR.c ****         /* Do the unconditional read operation of the CSR1 register to make sure the EOC bit has be
 489:Generated_Source\PSoC5/ADC_UI_SAR.c ****         CY_GET_REG8(ADC_UI_SAR_SAR_CSR1_PTR);
 490:Generated_Source\PSoC5/ADC_UI_SAR.c ****     }
 491:Generated_Source\PSoC5/ADC_UI_SAR.c **** 
 492:Generated_Source\PSoC5/ADC_UI_SAR.c ****     return(status);
 493:Generated_Source\PSoC5/ADC_UI_SAR.c **** }
 494:Generated_Source\PSoC5/ADC_UI_SAR.c **** 
 495:Generated_Source\PSoC5/ADC_UI_SAR.c **** 
 496:Generated_Source\PSoC5/ADC_UI_SAR.c **** /*******************************************************************************
 497:Generated_Source\PSoC5/ADC_UI_SAR.c **** * Function Name: ADC_UI_SAR_GetResult8
 498:Generated_Source\PSoC5/ADC_UI_SAR.c **** ********************************************************************************
 499:Generated_Source\PSoC5/ADC_UI_SAR.c **** *
 500:Generated_Source\PSoC5/ADC_UI_SAR.c **** * Summary:
 501:Generated_Source\PSoC5/ADC_UI_SAR.c **** *  Returns the result of an 8-bit conversion. If the resolution is set greater
 502:Generated_Source\PSoC5/ADC_UI_SAR.c **** *  than 8 bits, the function returns the LSB of the result.
ARM GAS  C:\Users\mgronber\AppData\Local\Temp\cc1dpOSA.s 			page 15


 503:Generated_Source\PSoC5/ADC_UI_SAR.c **** *  ADC_UI_SAR_IsEndConversion() should be called to verify that the data
 504:Generated_Source\PSoC5/ADC_UI_SAR.c **** *   sample is ready.
 505:Generated_Source\PSoC5/ADC_UI_SAR.c **** *
 506:Generated_Source\PSoC5/ADC_UI_SAR.c **** * Parameters:
 507:Generated_Source\PSoC5/ADC_UI_SAR.c **** *  None.
 508:Generated_Source\PSoC5/ADC_UI_SAR.c **** *
 509:Generated_Source\PSoC5/ADC_UI_SAR.c **** * Return:
 510:Generated_Source\PSoC5/ADC_UI_SAR.c **** *  The LSB of the last ADC conversion.
 511:Generated_Source\PSoC5/ADC_UI_SAR.c **** *
 512:Generated_Source\PSoC5/ADC_UI_SAR.c **** * Global Variables:
 513:Generated_Source\PSoC5/ADC_UI_SAR.c **** *  ADC_UI_SAR_shift - used to convert the ADC counts to the 2s
 514:Generated_Source\PSoC5/ADC_UI_SAR.c **** *  compliment form.
 515:Generated_Source\PSoC5/ADC_UI_SAR.c **** *
 516:Generated_Source\PSoC5/ADC_UI_SAR.c **** * Side Effects:
 517:Generated_Source\PSoC5/ADC_UI_SAR.c **** *  Converts the ADC counts to the 2s complement form.
 518:Generated_Source\PSoC5/ADC_UI_SAR.c **** *
 519:Generated_Source\PSoC5/ADC_UI_SAR.c **** *******************************************************************************/
 520:Generated_Source\PSoC5/ADC_UI_SAR.c **** int8 ADC_UI_SAR_GetResult8( void )
 521:Generated_Source\PSoC5/ADC_UI_SAR.c **** {
 522:Generated_Source\PSoC5/ADC_UI_SAR.c ****     return( (int8)ADC_UI_SAR_SAR_WRK0_REG - (int8)ADC_UI_SAR_shift);
 523:Generated_Source\PSoC5/ADC_UI_SAR.c **** }
 524:Generated_Source\PSoC5/ADC_UI_SAR.c **** 
 525:Generated_Source\PSoC5/ADC_UI_SAR.c **** 
 526:Generated_Source\PSoC5/ADC_UI_SAR.c **** /*******************************************************************************
 527:Generated_Source\PSoC5/ADC_UI_SAR.c **** * Function Name: ADC_UI_SAR_GetResult16
 528:Generated_Source\PSoC5/ADC_UI_SAR.c **** ********************************************************************************
 529:Generated_Source\PSoC5/ADC_UI_SAR.c **** *
 530:Generated_Source\PSoC5/ADC_UI_SAR.c **** * Summary:
 531:Generated_Source\PSoC5/ADC_UI_SAR.c **** *  Returns a 16-bit result for a conversion with a result that has a resolution
 532:Generated_Source\PSoC5/ADC_UI_SAR.c **** *  of 8 to 12 bits.
 533:Generated_Source\PSoC5/ADC_UI_SAR.c **** *  ADC_UI_SAR_IsEndConversion() should be called to verify that the data
 534:Generated_Source\PSoC5/ADC_UI_SAR.c **** *   sample is ready
 535:Generated_Source\PSoC5/ADC_UI_SAR.c **** *
 536:Generated_Source\PSoC5/ADC_UI_SAR.c **** * Parameters:
 537:Generated_Source\PSoC5/ADC_UI_SAR.c **** *  None.
 538:Generated_Source\PSoC5/ADC_UI_SAR.c **** *
 539:Generated_Source\PSoC5/ADC_UI_SAR.c **** * Return:
 540:Generated_Source\PSoC5/ADC_UI_SAR.c **** *  The 16-bit result of the last ADC conversion
 541:Generated_Source\PSoC5/ADC_UI_SAR.c **** *
 542:Generated_Source\PSoC5/ADC_UI_SAR.c **** * Global Variables:
 543:Generated_Source\PSoC5/ADC_UI_SAR.c **** *  ADC_UI_SAR_shift - used to convert the ADC counts to the 2s
 544:Generated_Source\PSoC5/ADC_UI_SAR.c **** *  compliment form.
 545:Generated_Source\PSoC5/ADC_UI_SAR.c **** *
 546:Generated_Source\PSoC5/ADC_UI_SAR.c **** * Side Effects:
 547:Generated_Source\PSoC5/ADC_UI_SAR.c **** *  Converts the ADC counts to the 2s complement form.
 548:Generated_Source\PSoC5/ADC_UI_SAR.c **** *
 549:Generated_Source\PSoC5/ADC_UI_SAR.c **** *******************************************************************************/
 550:Generated_Source\PSoC5/ADC_UI_SAR.c **** int16 ADC_UI_SAR_GetResult16( void )
 551:Generated_Source\PSoC5/ADC_UI_SAR.c **** {
 552:Generated_Source\PSoC5/ADC_UI_SAR.c ****     uint16 res;
 553:Generated_Source\PSoC5/ADC_UI_SAR.c **** 
 554:Generated_Source\PSoC5/ADC_UI_SAR.c ****     res = CY_GET_REG16(ADC_UI_SAR_SAR_WRK_PTR);
 555:Generated_Source\PSoC5/ADC_UI_SAR.c **** 
 556:Generated_Source\PSoC5/ADC_UI_SAR.c ****     return( (int16)res - ADC_UI_SAR_shift );
 557:Generated_Source\PSoC5/ADC_UI_SAR.c **** }
 558:Generated_Source\PSoC5/ADC_UI_SAR.c **** 
 559:Generated_Source\PSoC5/ADC_UI_SAR.c **** 
ARM GAS  C:\Users\mgronber\AppData\Local\Temp\cc1dpOSA.s 			page 16


 560:Generated_Source\PSoC5/ADC_UI_SAR.c **** /*******************************************************************************
 561:Generated_Source\PSoC5/ADC_UI_SAR.c **** * Function Name: ADC_UI_SAR_SetOffset
 562:Generated_Source\PSoC5/ADC_UI_SAR.c **** ********************************************************************************
 563:Generated_Source\PSoC5/ADC_UI_SAR.c **** *
 564:Generated_Source\PSoC5/ADC_UI_SAR.c **** * Summary:
 565:Generated_Source\PSoC5/ADC_UI_SAR.c **** *  Sets the ADC offset, which is used by ADC_UI_SAR_CountsTo_Volts(),
 566:Generated_Source\PSoC5/ADC_UI_SAR.c **** *  ADC_UI_SAR_CountsTo_mVolts(), and ADC_UI_SAR_CountsTo_uVolts()
 567:Generated_Source\PSoC5/ADC_UI_SAR.c **** *  to subtract the offset from the given reading before calculating the voltage
 568:Generated_Source\PSoC5/ADC_UI_SAR.c **** *  conversion.
 569:Generated_Source\PSoC5/ADC_UI_SAR.c **** *
 570:Generated_Source\PSoC5/ADC_UI_SAR.c **** * Parameters:
 571:Generated_Source\PSoC5/ADC_UI_SAR.c **** *  int16: This value is measured when the inputs are shorted or connected to
 572:Generated_Source\PSoC5/ADC_UI_SAR.c ****    the same input voltage.
 573:Generated_Source\PSoC5/ADC_UI_SAR.c **** *
 574:Generated_Source\PSoC5/ADC_UI_SAR.c **** * Return:
 575:Generated_Source\PSoC5/ADC_UI_SAR.c **** *  None.
 576:Generated_Source\PSoC5/ADC_UI_SAR.c **** *
 577:Generated_Source\PSoC5/ADC_UI_SAR.c **** * Global Variables:
 578:Generated_Source\PSoC5/ADC_UI_SAR.c **** *  The ADC_UI_SAR_offset variable modified. This variable is used for
 579:Generated_Source\PSoC5/ADC_UI_SAR.c **** *  offset calibration purpose.
 580:Generated_Source\PSoC5/ADC_UI_SAR.c **** *  Affects the ADC_UI_SAR_CountsTo_Volts,
 581:Generated_Source\PSoC5/ADC_UI_SAR.c **** *  ADC_UI_SAR_CountsTo_mVolts, ADC_UI_SAR_CountsTo_uVolts functions
 582:Generated_Source\PSoC5/ADC_UI_SAR.c **** *  by subtracting the given offset.
 583:Generated_Source\PSoC5/ADC_UI_SAR.c **** *
 584:Generated_Source\PSoC5/ADC_UI_SAR.c **** *******************************************************************************/
 585:Generated_Source\PSoC5/ADC_UI_SAR.c **** void ADC_UI_SAR_SetOffset(int16 offset)
 586:Generated_Source\PSoC5/ADC_UI_SAR.c **** {
 587:Generated_Source\PSoC5/ADC_UI_SAR.c ****     ADC_UI_SAR_offset = offset;
 588:Generated_Source\PSoC5/ADC_UI_SAR.c **** }
 589:Generated_Source\PSoC5/ADC_UI_SAR.c **** 
 590:Generated_Source\PSoC5/ADC_UI_SAR.c **** 
 591:Generated_Source\PSoC5/ADC_UI_SAR.c **** /*******************************************************************************
 592:Generated_Source\PSoC5/ADC_UI_SAR.c **** * Function Name: ADC_UI_SAR_CalcGain
 593:Generated_Source\PSoC5/ADC_UI_SAR.c **** ********************************************************************************
 594:Generated_Source\PSoC5/ADC_UI_SAR.c **** *
 595:Generated_Source\PSoC5/ADC_UI_SAR.c **** * Summary:
 596:Generated_Source\PSoC5/ADC_UI_SAR.c **** *  This function calculates the ADC gain in counts per 10 volt.
 597:Generated_Source\PSoC5/ADC_UI_SAR.c **** *
 598:Generated_Source\PSoC5/ADC_UI_SAR.c **** * Parameters:
 599:Generated_Source\PSoC5/ADC_UI_SAR.c **** *  uint8: resolution
 600:Generated_Source\PSoC5/ADC_UI_SAR.c **** *
 601:Generated_Source\PSoC5/ADC_UI_SAR.c **** * Return:
 602:Generated_Source\PSoC5/ADC_UI_SAR.c **** *  None.
 603:Generated_Source\PSoC5/ADC_UI_SAR.c **** *
 604:Generated_Source\PSoC5/ADC_UI_SAR.c **** * Global Variables:
 605:Generated_Source\PSoC5/ADC_UI_SAR.c **** *  ADC_UI_SAR_shift variable initialized. This variable is used to
 606:Generated_Source\PSoC5/ADC_UI_SAR.c **** *  convert the ADC counts to the 2s compliment form.
 607:Generated_Source\PSoC5/ADC_UI_SAR.c **** *  ADC_UI_SAR_countsPer10Volt variable initialized. This variable is used
 608:Generated_Source\PSoC5/ADC_UI_SAR.c **** *  for gain calibration purpose.
 609:Generated_Source\PSoC5/ADC_UI_SAR.c **** *
 610:Generated_Source\PSoC5/ADC_UI_SAR.c **** *******************************************************************************/
 611:Generated_Source\PSoC5/ADC_UI_SAR.c **** static void ADC_UI_SAR_CalcGain( uint8 resolution )
 612:Generated_Source\PSoC5/ADC_UI_SAR.c **** {
 613:Generated_Source\PSoC5/ADC_UI_SAR.c ****     int32 counts;
 614:Generated_Source\PSoC5/ADC_UI_SAR.c ****     #if(!((ADC_UI_SAR_DEFAULT_RANGE == ADC_UI_SAR__VSS_TO_VREF) || \
 615:Generated_Source\PSoC5/ADC_UI_SAR.c ****          (ADC_UI_SAR_DEFAULT_RANGE == ADC_UI_SAR__VSSA_TO_VDDA) || \
 616:Generated_Source\PSoC5/ADC_UI_SAR.c ****          (ADC_UI_SAR_DEFAULT_RANGE == ADC_UI_SAR__VSSA_TO_VDAC)) )
ARM GAS  C:\Users\mgronber\AppData\Local\Temp\cc1dpOSA.s 			page 17


 617:Generated_Source\PSoC5/ADC_UI_SAR.c ****         uint16 diff_zero;
 618:Generated_Source\PSoC5/ADC_UI_SAR.c ****     #endif /* End ADC_UI_SAR_DEFAULT_RANGE */
 619:Generated_Source\PSoC5/ADC_UI_SAR.c **** 
 620:Generated_Source\PSoC5/ADC_UI_SAR.c ****     switch (resolution)
 272              		.loc 1 620 0
 273 001a 0A2C     		cmp	r4, #10
 274              	.LBE7:
 275              	.LBE6:
 362:Generated_Source\PSoC5/ADC_UI_SAR.c **** 
 276              		.loc 1 362 0
 277 001c 1370     		strb	r3, [r2]
 278              	.LVL19:
 279              	.LBB11:
 280              	.LBB8:
 281              		.loc 1 620 0
 282 001e 15D0     		beq	.L18
 283 0020 0C2C     		cmp	r4, #12
 284 0022 1ED0     		beq	.L22
 285 0024 082C     		cmp	r4, #8
 286 0026 0ED0     		beq	.L20
 287              	.LVL20:
 621:Generated_Source\PSoC5/ADC_UI_SAR.c ****     {
 622:Generated_Source\PSoC5/ADC_UI_SAR.c ****         case (uint8)ADC_UI_SAR__BITS_12:
 623:Generated_Source\PSoC5/ADC_UI_SAR.c ****             counts = (int32)ADC_UI_SAR_SAR_WRK_MAX_12BIT;
 624:Generated_Source\PSoC5/ADC_UI_SAR.c ****             #if(!((ADC_UI_SAR_DEFAULT_RANGE == ADC_UI_SAR__VSS_TO_VREF) || \
 625:Generated_Source\PSoC5/ADC_UI_SAR.c ****                  (ADC_UI_SAR_DEFAULT_RANGE == ADC_UI_SAR__VSSA_TO_VDDA) || \
 626:Generated_Source\PSoC5/ADC_UI_SAR.c ****                  (ADC_UI_SAR_DEFAULT_RANGE == ADC_UI_SAR__VSSA_TO_VDAC)) )
 627:Generated_Source\PSoC5/ADC_UI_SAR.c ****                 diff_zero = ADC_UI_SAR_SAR_DIFF_SHIFT;
 628:Generated_Source\PSoC5/ADC_UI_SAR.c ****             #endif /* End ADC_UI_SAR_DEFAULT_RANGE */
 629:Generated_Source\PSoC5/ADC_UI_SAR.c ****             break;
 630:Generated_Source\PSoC5/ADC_UI_SAR.c ****         case (uint8)ADC_UI_SAR__BITS_10:
 631:Generated_Source\PSoC5/ADC_UI_SAR.c ****             counts = (int32)ADC_UI_SAR_SAR_WRK_MAX_10BIT;
 632:Generated_Source\PSoC5/ADC_UI_SAR.c ****             #if(!((ADC_UI_SAR_DEFAULT_RANGE == ADC_UI_SAR__VSS_TO_VREF) || \
 633:Generated_Source\PSoC5/ADC_UI_SAR.c ****                  (ADC_UI_SAR_DEFAULT_RANGE == ADC_UI_SAR__VSSA_TO_VDDA) || \
 634:Generated_Source\PSoC5/ADC_UI_SAR.c ****                  (ADC_UI_SAR_DEFAULT_RANGE == ADC_UI_SAR__VSSA_TO_VDAC)) )
 635:Generated_Source\PSoC5/ADC_UI_SAR.c ****                 diff_zero = ADC_UI_SAR_SAR_DIFF_SHIFT >> 2u;
 636:Generated_Source\PSoC5/ADC_UI_SAR.c ****             #endif /* End ADC_UI_SAR_DEFAULT_RANGE */
 637:Generated_Source\PSoC5/ADC_UI_SAR.c ****             break;
 638:Generated_Source\PSoC5/ADC_UI_SAR.c ****         case (uint8)ADC_UI_SAR__BITS_8:
 639:Generated_Source\PSoC5/ADC_UI_SAR.c ****             counts = (int32)ADC_UI_SAR_SAR_WRK_MAX_8BIT;
 640:Generated_Source\PSoC5/ADC_UI_SAR.c ****             #if(!((ADC_UI_SAR_DEFAULT_RANGE == ADC_UI_SAR__VSS_TO_VREF) || \
 641:Generated_Source\PSoC5/ADC_UI_SAR.c ****                  (ADC_UI_SAR_DEFAULT_RANGE == ADC_UI_SAR__VSSA_TO_VDDA) || \
 642:Generated_Source\PSoC5/ADC_UI_SAR.c ****                  (ADC_UI_SAR_DEFAULT_RANGE == ADC_UI_SAR__VSSA_TO_VDAC)) )
 643:Generated_Source\PSoC5/ADC_UI_SAR.c ****                 diff_zero = ADC_UI_SAR_SAR_DIFF_SHIFT >> 4u;
 644:Generated_Source\PSoC5/ADC_UI_SAR.c ****             #endif /* End ADC_UI_SAR_DEFAULT_RANGE */
 645:Generated_Source\PSoC5/ADC_UI_SAR.c ****             break;
 646:Generated_Source\PSoC5/ADC_UI_SAR.c ****         default: /* Halt CPU in debug mode if resolution is out of valid range */
 647:Generated_Source\PSoC5/ADC_UI_SAR.c ****             counts = 0;
 648:Generated_Source\PSoC5/ADC_UI_SAR.c ****             #if(!((ADC_UI_SAR_DEFAULT_RANGE == ADC_UI_SAR__VSS_TO_VREF) || \
 649:Generated_Source\PSoC5/ADC_UI_SAR.c ****                  (ADC_UI_SAR_DEFAULT_RANGE == ADC_UI_SAR__VSSA_TO_VDDA) || \
 650:Generated_Source\PSoC5/ADC_UI_SAR.c ****                  (ADC_UI_SAR_DEFAULT_RANGE == ADC_UI_SAR__VSSA_TO_VDAC)) )
 651:Generated_Source\PSoC5/ADC_UI_SAR.c ****                 diff_zero = 0u;
 652:Generated_Source\PSoC5/ADC_UI_SAR.c ****             #endif /* End ADC_UI_SAR_DEFAULT_RANGE */
 653:Generated_Source\PSoC5/ADC_UI_SAR.c ****             CYASSERT(0u != 0u);
 288              		.loc 1 653 0
 289 0028 0020     		movs	r0, #0
 290 002a FFF7FEFF 		bl	CyHalt
ARM GAS  C:\Users\mgronber\AppData\Local\Temp\cc1dpOSA.s 			page 18


 291              	.LVL21:
 292 002e 0022     		movs	r2, #0
 293              	.LVL22:
 294              	.L19:
 654:Generated_Source\PSoC5/ADC_UI_SAR.c ****             break;
 655:Generated_Source\PSoC5/ADC_UI_SAR.c ****     }
 656:Generated_Source\PSoC5/ADC_UI_SAR.c ****     ADC_UI_SAR_countsPerVolt = 0; /* Clear obsolete variable */
 295              		.loc 1 656 0
 296 0030 0E4C     		ldr	r4, .L30+4
 657:Generated_Source\PSoC5/ADC_UI_SAR.c ****     /* Calculate gain in counts per 10 volts with rounding */
 658:Generated_Source\PSoC5/ADC_UI_SAR.c ****     ADC_UI_SAR_countsPer10Volt = (((counts * ADC_UI_SAR_10MV_COUNTS) +
 297              		.loc 1 658 0
 298 0032 0F48     		ldr	r0, .L30+8
 659:Generated_Source\PSoC5/ADC_UI_SAR.c ****                         ADC_UI_SAR_DEFAULT_REF_VOLTAGE_MV) / (ADC_UI_SAR_DEFAULT_REF_VOLTAGE_MV * 2
 660:Generated_Source\PSoC5/ADC_UI_SAR.c **** 
 661:Generated_Source\PSoC5/ADC_UI_SAR.c ****     #if( (ADC_UI_SAR_DEFAULT_RANGE == ADC_UI_SAR__VSS_TO_VREF) || \
 662:Generated_Source\PSoC5/ADC_UI_SAR.c ****          (ADC_UI_SAR_DEFAULT_RANGE == ADC_UI_SAR__VSSA_TO_VDDA) || \
 663:Generated_Source\PSoC5/ADC_UI_SAR.c ****          (ADC_UI_SAR_DEFAULT_RANGE == ADC_UI_SAR__VSSA_TO_VDAC) )
 664:Generated_Source\PSoC5/ADC_UI_SAR.c ****         ADC_UI_SAR_shift = 0;
 299              		.loc 1 664 0
 300 0034 0F49     		ldr	r1, .L30+12
 656:Generated_Source\PSoC5/ADC_UI_SAR.c ****     /* Calculate gain in counts per 10 volts with rounding */
 301              		.loc 1 656 0
 302 0036 0023     		movs	r3, #0
 303 0038 2380     		strh	r3, [r4]	@ movhi
 658:Generated_Source\PSoC5/ADC_UI_SAR.c ****                         ADC_UI_SAR_DEFAULT_REF_VOLTAGE_MV) / (ADC_UI_SAR_DEFAULT_REF_VOLTAGE_MV * 2
 304              		.loc 1 658 0
 305 003a 0260     		str	r2, [r0]
 306              		.loc 1 664 0
 307 003c 0B80     		strh	r3, [r1]	@ movhi
 308 003e 10BD     		pop	{r4, pc}
 309              	.LVL23:
 310              	.L16:
 311              	.LBE8:
 312              	.LBE11:
 362:Generated_Source\PSoC5/ADC_UI_SAR.c **** 
 313              		.loc 1 362 0
 314 0040 094B     		ldr	r3, .L30
 315 0042 4222     		movs	r2, #66
 316 0044 1A70     		strb	r2, [r3]
 317              	.LVL24:
 318              	.L20:
 319              	.LBB12:
 320              	.LBB9:
 321 0046 4FF40072 		mov	r2, #512
 322 004a F1E7     		b	.L19
 323              	.LVL25:
 324              	.L18:
 620:Generated_Source\PSoC5/ADC_UI_SAR.c ****     {
 325              		.loc 1 620 0
 326 004c 4FF40062 		mov	r2, #2048
 327 0050 EEE7     		b	.L19
 328              	.LVL26:
 329              	.L15:
 330              	.LBE9:
 331              	.LBE12:
 362:Generated_Source\PSoC5/ADC_UI_SAR.c **** 
ARM GAS  C:\Users\mgronber\AppData\Local\Temp\cc1dpOSA.s 			page 19


 332              		.loc 1 362 0
 333 0052 054B     		ldr	r3, .L30
 334 0054 C222     		movs	r2, #194
 335 0056 1A70     		strb	r2, [r3]
 336              	.LVL27:
 337 0058 4FF40052 		mov	r2, #8192
 338 005c E8E7     		b	.L19
 339              	.LVL28:
 340              	.L21:
 351:Generated_Source\PSoC5/ADC_UI_SAR.c ****             break;
 341              		.loc 1 351 0
 342 005e 8223     		movs	r3, #130
 343 0060 DAE7     		b	.L14
 344              	.LVL29:
 345              	.L22:
 346              	.LBB13:
 347              	.LBB10:
 620:Generated_Source\PSoC5/ADC_UI_SAR.c ****     {
 348              		.loc 1 620 0
 349 0062 4FF40052 		mov	r2, #8192
 350 0066 E3E7     		b	.L19
 351              	.L31:
 352              		.align	2
 353              	.L30:
 354 0068 02590040 		.word	1073764610
 355 006c 00000000 		.word	ADC_UI_SAR_countsPerVolt
 356 0070 00000000 		.word	ADC_UI_SAR_countsPer10Volt
 357 0074 00000000 		.word	ADC_UI_SAR_shift
 358              	.LBE10:
 359              	.LBE13:
 360              		.cfi_endproc
 361              	.LFE5:
 362              		.size	ADC_UI_SAR_SetResolution, .-ADC_UI_SAR_SetResolution
 363              		.section	.text.ADC_UI_SAR_Init,"ax",%progbits
 364              		.align	2
 365              		.global	ADC_UI_SAR_Init
 366              		.thumb
 367              		.thumb_func
 368              		.type	ADC_UI_SAR_Init, %function
 369              	ADC_UI_SAR_Init:
 370              	.LFB1:
 107:Generated_Source\PSoC5/ADC_UI_SAR.c **** 
 371              		.loc 1 107 0
 372              		.cfi_startproc
 373              		@ args = 0, pretend = 0, frame = 0
 374              		@ frame_needed = 0, uses_anonymous_args = 0
 375 0000 08B5     		push	{r3, lr}
 376              		.cfi_def_cfa_offset 8
 377              		.cfi_offset 3, -8
 378              		.cfi_offset 14, -4
 121:Generated_Source\PSoC5/ADC_UI_SAR.c **** 
 379              		.loc 1 121 0
 380 0002 064A     		ldr	r2, .L34
 124:Generated_Source\PSoC5/ADC_UI_SAR.c ****     ADC_UI_SAR_offset = 0;
 381              		.loc 1 124 0
 382 0004 0820     		movs	r0, #8
 121:Generated_Source\PSoC5/ADC_UI_SAR.c **** 
ARM GAS  C:\Users\mgronber\AppData\Local\Temp\cc1dpOSA.s 			page 20


 383              		.loc 1 121 0
 384 0006 1378     		ldrb	r3, [r2]	@ zero_extendqisi2
 385 0008 43F00603 		orr	r3, r3, #6
 386 000c 1370     		strb	r3, [r2]
 124:Generated_Source\PSoC5/ADC_UI_SAR.c ****     ADC_UI_SAR_offset = 0;
 387              		.loc 1 124 0
 388 000e FFF7FEFF 		bl	ADC_UI_SAR_SetResolution
 389              	.LVL30:
 125:Generated_Source\PSoC5/ADC_UI_SAR.c **** }
 390              		.loc 1 125 0
 391 0012 034B     		ldr	r3, .L34+4
 392 0014 0022     		movs	r2, #0
 393 0016 1A80     		strh	r2, [r3]	@ movhi
 394 0018 08BD     		pop	{r3, pc}
 395              	.L35:
 396 001a 00BF     		.align	2
 397              	.L34:
 398 001c 01590040 		.word	1073764609
 399 0020 00000000 		.word	ADC_UI_SAR_offset
 400              		.cfi_endproc
 401              	.LFE1:
 402              		.size	ADC_UI_SAR_Init, .-ADC_UI_SAR_Init
 403              		.section	.text.ADC_UI_SAR_Start,"ax",%progbits
 404              		.align	2
 405              		.global	ADC_UI_SAR_Start
 406              		.thumb
 407              		.thumb_func
 408              		.type	ADC_UI_SAR_Start, %function
 409              	ADC_UI_SAR_Start:
 410              	.LFB0:
  75:Generated_Source\PSoC5/ADC_UI_SAR.c **** 
 411              		.loc 1 75 0
 412              		.cfi_startproc
 413              		@ args = 0, pretend = 0, frame = 0
 414              		@ frame_needed = 0, uses_anonymous_args = 0
 415 0000 38B5     		push	{r3, r4, r5, lr}
 416              		.cfi_def_cfa_offset 16
 417              		.cfi_offset 3, -16
 418              		.cfi_offset 4, -12
 419              		.cfi_offset 5, -8
 420              		.cfi_offset 14, -4
  78:Generated_Source\PSoC5/ADC_UI_SAR.c ****     {
 421              		.loc 1 78 0
 422 0002 094C     		ldr	r4, .L39
 423 0004 2578     		ldrb	r5, [r4]	@ zero_extendqisi2
 424 0006 5DB9     		cbnz	r5, .L37
 425              	.LBB14:
 426              	.LBB15:
 121:Generated_Source\PSoC5/ADC_UI_SAR.c **** 
 427              		.loc 1 121 0
 428 0008 084A     		ldr	r2, .L39+4
 124:Generated_Source\PSoC5/ADC_UI_SAR.c ****     ADC_UI_SAR_offset = 0;
 429              		.loc 1 124 0
 430 000a 0820     		movs	r0, #8
 121:Generated_Source\PSoC5/ADC_UI_SAR.c **** 
 431              		.loc 1 121 0
 432 000c 1378     		ldrb	r3, [r2]	@ zero_extendqisi2
ARM GAS  C:\Users\mgronber\AppData\Local\Temp\cc1dpOSA.s 			page 21


 433 000e 43F00603 		orr	r3, r3, #6
 434 0012 1370     		strb	r3, [r2]
 124:Generated_Source\PSoC5/ADC_UI_SAR.c ****     ADC_UI_SAR_offset = 0;
 435              		.loc 1 124 0
 436 0014 FFF7FEFF 		bl	ADC_UI_SAR_SetResolution
 437              	.LVL31:
 125:Generated_Source\PSoC5/ADC_UI_SAR.c **** }
 438              		.loc 1 125 0
 439 0018 054A     		ldr	r2, .L39+8
 440              	.LBE15:
 441              	.LBE14:
  81:Generated_Source\PSoC5/ADC_UI_SAR.c ****     }
 442              		.loc 1 81 0
 443 001a 0123     		movs	r3, #1
 444              	.LBB17:
 445              	.LBB16:
 125:Generated_Source\PSoC5/ADC_UI_SAR.c **** }
 446              		.loc 1 125 0
 447 001c 1580     		strh	r5, [r2]	@ movhi
 448              	.LBE16:
 449              	.LBE17:
  81:Generated_Source\PSoC5/ADC_UI_SAR.c ****     }
 450              		.loc 1 81 0
 451 001e 2370     		strb	r3, [r4]
 452              	.L37:
  84:Generated_Source\PSoC5/ADC_UI_SAR.c **** 
 453              		.loc 1 84 0
 454 0020 BDE83840 		pop	{r3, r4, r5, lr}
 455              		.cfi_restore 14
 456              		.cfi_restore 5
 457              		.cfi_restore 4
 458              		.cfi_restore 3
 459              		.cfi_def_cfa_offset 0
  83:Generated_Source\PSoC5/ADC_UI_SAR.c **** }
 460              		.loc 1 83 0
 461 0024 FFF7FEBF 		b	ADC_UI_SAR_Enable
 462              	.LVL32:
 463              	.L40:
 464              		.align	2
 465              	.L39:
 466 0028 00000000 		.word	.LANCHOR0
 467 002c 01590040 		.word	1073764609
 468 0030 00000000 		.word	ADC_UI_SAR_offset
 469              		.cfi_endproc
 470              	.LFE0:
 471              		.size	ADC_UI_SAR_Start, .-ADC_UI_SAR_Start
 472              		.section	.text.ADC_UI_SAR_StartConvert,"ax",%progbits
 473              		.align	2
 474              		.global	ADC_UI_SAR_StartConvert
 475              		.thumb
 476              		.thumb_func
 477              		.type	ADC_UI_SAR_StartConvert, %function
 478              	ADC_UI_SAR_StartConvert:
 479              	.LFB6:
 402:Generated_Source\PSoC5/ADC_UI_SAR.c ****         #if(ADC_UI_SAR_DEFAULT_CONV_MODE != ADC_UI_SAR__FREE_RUNNING)  /* If software triggered mod
 480              		.loc 1 402 0
 481              		.cfi_startproc
ARM GAS  C:\Users\mgronber\AppData\Local\Temp\cc1dpOSA.s 			page 22


 482              		@ args = 0, pretend = 0, frame = 0
 483              		@ frame_needed = 0, uses_anonymous_args = 0
 484              		@ link register save eliminated.
 404:Generated_Source\PSoC5/ADC_UI_SAR.c ****         #endif /* End ADC_UI_SAR_DEFAULT_CONV_MODE */
 485              		.loc 1 404 0
 486 0000 044B     		ldr	r3, .L42
 487 0002 1A78     		ldrb	r2, [r3]	@ zero_extendqisi2
 488 0004 02F0FB02 		and	r2, r2, #251
 489 0008 1A70     		strb	r2, [r3]
 408:Generated_Source\PSoC5/ADC_UI_SAR.c ****     }
 490              		.loc 1 408 0
 491 000a 1A78     		ldrb	r2, [r3]	@ zero_extendqisi2
 492 000c 42F00102 		orr	r2, r2, #1
 493 0010 1A70     		strb	r2, [r3]
 494 0012 7047     		bx	lr
 495              	.L43:
 496              		.align	2
 497              	.L42:
 498 0014 00590040 		.word	1073764608
 499              		.cfi_endproc
 500              	.LFE6:
 501              		.size	ADC_UI_SAR_StartConvert, .-ADC_UI_SAR_StartConvert
 502              		.section	.text.ADC_UI_SAR_StopConvert,"ax",%progbits
 503              		.align	2
 504              		.global	ADC_UI_SAR_StopConvert
 505              		.thumb
 506              		.thumb_func
 507              		.type	ADC_UI_SAR_StopConvert, %function
 508              	ADC_UI_SAR_StopConvert:
 509              	.LFB7:
 436:Generated_Source\PSoC5/ADC_UI_SAR.c ****         /* Stop all conversions */
 510              		.loc 1 436 0
 511              		.cfi_startproc
 512              		@ args = 0, pretend = 0, frame = 0
 513              		@ frame_needed = 0, uses_anonymous_args = 0
 514              		@ link register save eliminated.
 438:Generated_Source\PSoC5/ADC_UI_SAR.c **** 
 515              		.loc 1 438 0
 516 0000 044B     		ldr	r3, .L45
 517 0002 1A78     		ldrb	r2, [r3]	@ zero_extendqisi2
 518 0004 02F0FE02 		and	r2, r2, #254
 519 0008 1A70     		strb	r2, [r3]
 442:Generated_Source\PSoC5/ADC_UI_SAR.c ****         #endif /* End ADC_UI_SAR_DEFAULT_CONV_MODE */
 520              		.loc 1 442 0
 521 000a 1A78     		ldrb	r2, [r3]	@ zero_extendqisi2
 522 000c 42F00402 		orr	r2, r2, #4
 523 0010 1A70     		strb	r2, [r3]
 524 0012 7047     		bx	lr
 525              	.L46:
 526              		.align	2
 527              	.L45:
 528 0014 00590040 		.word	1073764608
 529              		.cfi_endproc
 530              	.LFE7:
 531              		.size	ADC_UI_SAR_StopConvert, .-ADC_UI_SAR_StopConvert
 532              		.section	.text.ADC_UI_SAR_IsEndConversion,"ax",%progbits
 533              		.align	2
ARM GAS  C:\Users\mgronber\AppData\Local\Temp\cc1dpOSA.s 			page 23


 534              		.global	ADC_UI_SAR_IsEndConversion
 535              		.thumb
 536              		.thumb_func
 537              		.type	ADC_UI_SAR_IsEndConversion, %function
 538              	ADC_UI_SAR_IsEndConversion:
 539              	.LFB8:
 476:Generated_Source\PSoC5/ADC_UI_SAR.c ****     uint8 status;
 540              		.loc 1 476 0
 541              		.cfi_startproc
 542              		@ args = 0, pretend = 0, frame = 0
 543              		@ frame_needed = 0, uses_anonymous_args = 0
 544              	.LVL33:
 545 0000 38B5     		push	{r3, r4, r5, lr}
 546              		.cfi_def_cfa_offset 16
 547              		.cfi_offset 3, -16
 548              		.cfi_offset 4, -12
 549              		.cfi_offset 5, -8
 550              		.cfi_offset 14, -4
 481:Generated_Source\PSoC5/ADC_UI_SAR.c ****     } while ((status != ADC_UI_SAR_SAR_EOF_1) && (retMode == ADC_UI_SAR_WAIT_FOR_RESULT));
 551              		.loc 1 481 0
 552 0002 084A     		ldr	r2, .L57
 553 0004 00E0     		b	.L49
 554              	.LVL34:
 555              	.L56:
 482:Generated_Source\PSoC5/ADC_UI_SAR.c ****     /* If convertion complete, wait until EOF bit released */
 556              		.loc 1 482 0 discriminator 1
 557 0006 50B9     		cbnz	r0, .L55
 558              	.LVL35:
 559              	.L49:
 481:Generated_Source\PSoC5/ADC_UI_SAR.c ****     } while ((status != ADC_UI_SAR_SAR_EOF_1) && (retMode == ADC_UI_SAR_WAIT_FOR_RESULT));
 560              		.loc 1 481 0 discriminator 2
 561 0008 1378     		ldrb	r3, [r2]	@ zero_extendqisi2
 562              	.LVL36:
 563 000a 064D     		ldr	r5, .L57
 482:Generated_Source\PSoC5/ADC_UI_SAR.c ****     /* If convertion complete, wait until EOF bit released */
 564              		.loc 1 482 0 discriminator 2
 565 000c 13F00104 		ands	r4, r3, #1
 566 0010 F9D0     		beq	.L56
 487:Generated_Source\PSoC5/ADC_UI_SAR.c ****         /* Do the unconditional read operation of the CSR1 register to make sure the EOC bit has be
 567              		.loc 1 487 0
 568 0012 2046     		mov	r0, r4
 569              	.LVL37:
 570 0014 FFF7FEFF 		bl	CyDelayUs
 571              	.LVL38:
 489:Generated_Source\PSoC5/ADC_UI_SAR.c ****     }
 572              		.loc 1 489 0
 573 0018 2B78     		ldrb	r3, [r5]	@ zero_extendqisi2
 493:Generated_Source\PSoC5/ADC_UI_SAR.c **** 
 574              		.loc 1 493 0
 575 001a 2046     		mov	r0, r4
 576 001c 38BD     		pop	{r3, r4, r5, pc}
 577              	.LVL39:
 578              	.L55:
 579 001e 0024     		movs	r4, #0
 580 0020 2046     		mov	r0, r4
 581              	.LVL40:
 582 0022 38BD     		pop	{r3, r4, r5, pc}
ARM GAS  C:\Users\mgronber\AppData\Local\Temp\cc1dpOSA.s 			page 24


 583              	.LVL41:
 584              	.L58:
 585              		.align	2
 586              	.L57:
 587 0024 01590040 		.word	1073764609
 588              		.cfi_endproc
 589              	.LFE8:
 590              		.size	ADC_UI_SAR_IsEndConversion, .-ADC_UI_SAR_IsEndConversion
 591              		.section	.text.ADC_UI_SAR_GetResult8,"ax",%progbits
 592              		.align	2
 593              		.global	ADC_UI_SAR_GetResult8
 594              		.thumb
 595              		.thumb_func
 596              		.type	ADC_UI_SAR_GetResult8, %function
 597              	ADC_UI_SAR_GetResult8:
 598              	.LFB9:
 521:Generated_Source\PSoC5/ADC_UI_SAR.c ****     return( (int8)ADC_UI_SAR_SAR_WRK0_REG - (int8)ADC_UI_SAR_shift);
 599              		.loc 1 521 0
 600              		.cfi_startproc
 601              		@ args = 0, pretend = 0, frame = 0
 602              		@ frame_needed = 0, uses_anonymous_args = 0
 603              		@ link register save eliminated.
 522:Generated_Source\PSoC5/ADC_UI_SAR.c **** }
 604              		.loc 1 522 0
 605 0000 034A     		ldr	r2, .L60
 606 0002 044B     		ldr	r3, .L60+4
 607 0004 1B78     		ldrb	r3, [r3]	@ zero_extendqisi2
 608 0006 1088     		ldrh	r0, [r2]
 609 0008 181A     		subs	r0, r3, r0
 523:Generated_Source\PSoC5/ADC_UI_SAR.c **** 
 610              		.loc 1 523 0
 611 000a 40B2     		sxtb	r0, r0
 612 000c 7047     		bx	lr
 613              	.L61:
 614 000e 00BF     		.align	2
 615              	.L60:
 616 0010 00000000 		.word	ADC_UI_SAR_shift
 617 0014 A05B0040 		.word	1073765280
 618              		.cfi_endproc
 619              	.LFE9:
 620              		.size	ADC_UI_SAR_GetResult8, .-ADC_UI_SAR_GetResult8
 621              		.section	.text.ADC_UI_SAR_GetResult16,"ax",%progbits
 622              		.align	2
 623              		.global	ADC_UI_SAR_GetResult16
 624              		.thumb
 625              		.thumb_func
 626              		.type	ADC_UI_SAR_GetResult16, %function
 627              	ADC_UI_SAR_GetResult16:
 628              	.LFB10:
 551:Generated_Source\PSoC5/ADC_UI_SAR.c ****     uint16 res;
 629              		.loc 1 551 0
 630              		.cfi_startproc
 631              		@ args = 0, pretend = 0, frame = 0
 632              		@ frame_needed = 0, uses_anonymous_args = 0
 633              		@ link register save eliminated.
 556:Generated_Source\PSoC5/ADC_UI_SAR.c **** }
 634              		.loc 1 556 0
ARM GAS  C:\Users\mgronber\AppData\Local\Temp\cc1dpOSA.s 			page 25


 635 0000 034A     		ldr	r2, .L63
 554:Generated_Source\PSoC5/ADC_UI_SAR.c **** 
 636              		.loc 1 554 0
 637 0002 044B     		ldr	r3, .L63+4
 638 0004 1B88     		ldrh	r3, [r3]
 639              	.LVL42:
 556:Generated_Source\PSoC5/ADC_UI_SAR.c **** }
 640              		.loc 1 556 0
 641 0006 1088     		ldrh	r0, [r2]
 642 0008 181A     		subs	r0, r3, r0
 557:Generated_Source\PSoC5/ADC_UI_SAR.c **** 
 643              		.loc 1 557 0
 644 000a 00B2     		sxth	r0, r0
 645 000c 7047     		bx	lr
 646              	.L64:
 647 000e 00BF     		.align	2
 648              	.L63:
 649 0010 00000000 		.word	ADC_UI_SAR_shift
 650 0014 A05B0040 		.word	1073765280
 651              		.cfi_endproc
 652              	.LFE10:
 653              		.size	ADC_UI_SAR_GetResult16, .-ADC_UI_SAR_GetResult16
 654              		.section	.text.ADC_UI_SAR_SetOffset,"ax",%progbits
 655              		.align	2
 656              		.global	ADC_UI_SAR_SetOffset
 657              		.thumb
 658              		.thumb_func
 659              		.type	ADC_UI_SAR_SetOffset, %function
 660              	ADC_UI_SAR_SetOffset:
 661              	.LFB11:
 586:Generated_Source\PSoC5/ADC_UI_SAR.c ****     ADC_UI_SAR_offset = offset;
 662              		.loc 1 586 0
 663              		.cfi_startproc
 664              		@ args = 0, pretend = 0, frame = 0
 665              		@ frame_needed = 0, uses_anonymous_args = 0
 666              		@ link register save eliminated.
 667              	.LVL43:
 587:Generated_Source\PSoC5/ADC_UI_SAR.c **** }
 668              		.loc 1 587 0
 669 0000 014B     		ldr	r3, .L66
 670 0002 1880     		strh	r0, [r3]	@ movhi
 671 0004 7047     		bx	lr
 672              	.L67:
 673 0006 00BF     		.align	2
 674              	.L66:
 675 0008 00000000 		.word	ADC_UI_SAR_offset
 676              		.cfi_endproc
 677              	.LFE11:
 678              		.size	ADC_UI_SAR_SetOffset, .-ADC_UI_SAR_SetOffset
 679              		.section	.text.ADC_UI_SAR_SetGain,"ax",%progbits
 680              		.align	2
 681              		.global	ADC_UI_SAR_SetGain
 682              		.thumb
 683              		.thumb_func
 684              		.type	ADC_UI_SAR_SetGain, %function
 685              	ADC_UI_SAR_SetGain:
 686              	.LFB13:
ARM GAS  C:\Users\mgronber\AppData\Local\Temp\cc1dpOSA.s 			page 26


 665:Generated_Source\PSoC5/ADC_UI_SAR.c ****     #else
 666:Generated_Source\PSoC5/ADC_UI_SAR.c ****         ADC_UI_SAR_shift = diff_zero;
 667:Generated_Source\PSoC5/ADC_UI_SAR.c ****     #endif /* End ADC_UI_SAR_DEFAULT_RANGE */
 668:Generated_Source\PSoC5/ADC_UI_SAR.c **** }
 669:Generated_Source\PSoC5/ADC_UI_SAR.c **** 
 670:Generated_Source\PSoC5/ADC_UI_SAR.c **** 
 671:Generated_Source\PSoC5/ADC_UI_SAR.c **** /*******************************************************************************
 672:Generated_Source\PSoC5/ADC_UI_SAR.c **** * Function Name: ADC_UI_SAR_SetGain
 673:Generated_Source\PSoC5/ADC_UI_SAR.c **** ********************************************************************************
 674:Generated_Source\PSoC5/ADC_UI_SAR.c **** *
 675:Generated_Source\PSoC5/ADC_UI_SAR.c **** * Summary:
 676:Generated_Source\PSoC5/ADC_UI_SAR.c **** *  Sets the ADC gain in counts per volt for the voltage conversion functions
 677:Generated_Source\PSoC5/ADC_UI_SAR.c **** *  that follow. This value is set by default by the reference and input range
 678:Generated_Source\PSoC5/ADC_UI_SAR.c **** *  settings. It should only be used to further calibrate the ADC with a known
 679:Generated_Source\PSoC5/ADC_UI_SAR.c **** *  input or if the ADC is using an external reference.
 680:Generated_Source\PSoC5/ADC_UI_SAR.c **** *
 681:Generated_Source\PSoC5/ADC_UI_SAR.c **** * Parameters:
 682:Generated_Source\PSoC5/ADC_UI_SAR.c **** *  int16 adcGain counts per volt
 683:Generated_Source\PSoC5/ADC_UI_SAR.c **** *
 684:Generated_Source\PSoC5/ADC_UI_SAR.c **** * Return:
 685:Generated_Source\PSoC5/ADC_UI_SAR.c **** *  None.
 686:Generated_Source\PSoC5/ADC_UI_SAR.c **** *
 687:Generated_Source\PSoC5/ADC_UI_SAR.c **** * Global Variables:
 688:Generated_Source\PSoC5/ADC_UI_SAR.c **** *  ADC_UI_SAR_countsPer10Volt variable modified. This variable is used
 689:Generated_Source\PSoC5/ADC_UI_SAR.c **** *  for gain calibration purpose.
 690:Generated_Source\PSoC5/ADC_UI_SAR.c **** *
 691:Generated_Source\PSoC5/ADC_UI_SAR.c **** *******************************************************************************/
 692:Generated_Source\PSoC5/ADC_UI_SAR.c **** void ADC_UI_SAR_SetGain(int16 adcGain)
 693:Generated_Source\PSoC5/ADC_UI_SAR.c **** {
 687              		.loc 1 693 0
 688              		.cfi_startproc
 689              		@ args = 0, pretend = 0, frame = 0
 690              		@ frame_needed = 0, uses_anonymous_args = 0
 691              		@ link register save eliminated.
 692              	.LVL44:
 694:Generated_Source\PSoC5/ADC_UI_SAR.c ****     ADC_UI_SAR_countsPer10Volt = (int32)adcGain * 10;
 693              		.loc 1 694 0
 694 0000 00EB8000 		add	r0, r0, r0, lsl #2
 695              	.LVL45:
 696 0004 014B     		ldr	r3, .L69
 697 0006 4000     		lsls	r0, r0, #1
 698 0008 1860     		str	r0, [r3]
 699 000a 7047     		bx	lr
 700              	.L70:
 701              		.align	2
 702              	.L69:
 703 000c 00000000 		.word	ADC_UI_SAR_countsPer10Volt
 704              		.cfi_endproc
 705              	.LFE13:
 706              		.size	ADC_UI_SAR_SetGain, .-ADC_UI_SAR_SetGain
 707              		.section	.text.ADC_UI_SAR_SetScaledGain,"ax",%progbits
 708              		.align	2
 709              		.global	ADC_UI_SAR_SetScaledGain
 710              		.thumb
 711              		.thumb_func
 712              		.type	ADC_UI_SAR_SetScaledGain, %function
 713              	ADC_UI_SAR_SetScaledGain:
ARM GAS  C:\Users\mgronber\AppData\Local\Temp\cc1dpOSA.s 			page 27


 714              	.LFB14:
 695:Generated_Source\PSoC5/ADC_UI_SAR.c **** }
 696:Generated_Source\PSoC5/ADC_UI_SAR.c **** 
 697:Generated_Source\PSoC5/ADC_UI_SAR.c **** 
 698:Generated_Source\PSoC5/ADC_UI_SAR.c **** /*******************************************************************************
 699:Generated_Source\PSoC5/ADC_UI_SAR.c **** * Function Name: ADC_UI_SAR_SetScaledGain
 700:Generated_Source\PSoC5/ADC_UI_SAR.c **** ********************************************************************************
 701:Generated_Source\PSoC5/ADC_UI_SAR.c **** *
 702:Generated_Source\PSoC5/ADC_UI_SAR.c **** * Summary:
 703:Generated_Source\PSoC5/ADC_UI_SAR.c **** *  Sets the ADC gain in counts per 10 volt for the voltage conversion functions
 704:Generated_Source\PSoC5/ADC_UI_SAR.c **** *  that follow. This value is set by default by the reference and input range
 705:Generated_Source\PSoC5/ADC_UI_SAR.c **** *  settings. It should only be used to further calibrate the ADC with a known
 706:Generated_Source\PSoC5/ADC_UI_SAR.c **** *  input or if the ADC is using an external reference.
 707:Generated_Source\PSoC5/ADC_UI_SAR.c **** *
 708:Generated_Source\PSoC5/ADC_UI_SAR.c **** * Parameters:
 709:Generated_Source\PSoC5/ADC_UI_SAR.c **** *  int32 adcGain  counts per 10 volt
 710:Generated_Source\PSoC5/ADC_UI_SAR.c **** *
 711:Generated_Source\PSoC5/ADC_UI_SAR.c **** * Return:
 712:Generated_Source\PSoC5/ADC_UI_SAR.c **** *  None.
 713:Generated_Source\PSoC5/ADC_UI_SAR.c **** *
 714:Generated_Source\PSoC5/ADC_UI_SAR.c **** * Global Variables:
 715:Generated_Source\PSoC5/ADC_UI_SAR.c **** *  ADC_UI_SAR_countsPer10Volt variable modified. This variable is used
 716:Generated_Source\PSoC5/ADC_UI_SAR.c **** *  for gain calibration purpose.
 717:Generated_Source\PSoC5/ADC_UI_SAR.c **** *
 718:Generated_Source\PSoC5/ADC_UI_SAR.c **** *******************************************************************************/
 719:Generated_Source\PSoC5/ADC_UI_SAR.c **** void ADC_UI_SAR_SetScaledGain(int32 adcGain)
 720:Generated_Source\PSoC5/ADC_UI_SAR.c **** {
 715              		.loc 1 720 0
 716              		.cfi_startproc
 717              		@ args = 0, pretend = 0, frame = 0
 718              		@ frame_needed = 0, uses_anonymous_args = 0
 719              		@ link register save eliminated.
 720              	.LVL46:
 721:Generated_Source\PSoC5/ADC_UI_SAR.c ****     ADC_UI_SAR_countsPer10Volt = adcGain;
 721              		.loc 1 721 0
 722 0000 014B     		ldr	r3, .L72
 723 0002 1860     		str	r0, [r3]
 724 0004 7047     		bx	lr
 725              	.L73:
 726 0006 00BF     		.align	2
 727              	.L72:
 728 0008 00000000 		.word	ADC_UI_SAR_countsPer10Volt
 729              		.cfi_endproc
 730              	.LFE14:
 731              		.size	ADC_UI_SAR_SetScaledGain, .-ADC_UI_SAR_SetScaledGain
 732              		.section	.text.ADC_UI_SAR_CountsTo_mVolts,"ax",%progbits
 733              		.align	2
 734              		.global	ADC_UI_SAR_CountsTo_mVolts
 735              		.thumb
 736              		.thumb_func
 737              		.type	ADC_UI_SAR_CountsTo_mVolts, %function
 738              	ADC_UI_SAR_CountsTo_mVolts:
 739              	.LFB15:
 722:Generated_Source\PSoC5/ADC_UI_SAR.c **** }
 723:Generated_Source\PSoC5/ADC_UI_SAR.c **** 
 724:Generated_Source\PSoC5/ADC_UI_SAR.c **** 
 725:Generated_Source\PSoC5/ADC_UI_SAR.c **** /*******************************************************************************
ARM GAS  C:\Users\mgronber\AppData\Local\Temp\cc1dpOSA.s 			page 28


 726:Generated_Source\PSoC5/ADC_UI_SAR.c **** * Function Name: ADC_UI_SAR_CountsTo_mVolts
 727:Generated_Source\PSoC5/ADC_UI_SAR.c **** ********************************************************************************
 728:Generated_Source\PSoC5/ADC_UI_SAR.c **** *
 729:Generated_Source\PSoC5/ADC_UI_SAR.c **** * Summary:
 730:Generated_Source\PSoC5/ADC_UI_SAR.c **** *  Converts the ADC output to millivolts as a 16-bit integer.
 731:Generated_Source\PSoC5/ADC_UI_SAR.c **** *
 732:Generated_Source\PSoC5/ADC_UI_SAR.c **** * Parameters:
 733:Generated_Source\PSoC5/ADC_UI_SAR.c **** *  int16 adcCounts:  Result from the ADC conversion
 734:Generated_Source\PSoC5/ADC_UI_SAR.c **** *
 735:Generated_Source\PSoC5/ADC_UI_SAR.c **** * Return:
 736:Generated_Source\PSoC5/ADC_UI_SAR.c **** *  int16 Result in mVolts
 737:Generated_Source\PSoC5/ADC_UI_SAR.c **** *
 738:Generated_Source\PSoC5/ADC_UI_SAR.c **** * Global Variables:
 739:Generated_Source\PSoC5/ADC_UI_SAR.c **** *  ADC_UI_SAR_offset variable used.
 740:Generated_Source\PSoC5/ADC_UI_SAR.c **** *  ADC_UI_SAR_countsPer10Volt variable used.
 741:Generated_Source\PSoC5/ADC_UI_SAR.c **** *
 742:Generated_Source\PSoC5/ADC_UI_SAR.c **** *******************************************************************************/
 743:Generated_Source\PSoC5/ADC_UI_SAR.c **** int16 ADC_UI_SAR_CountsTo_mVolts(int16 adcCounts)
 744:Generated_Source\PSoC5/ADC_UI_SAR.c **** {
 740              		.loc 1 744 0
 741              		.cfi_startproc
 742              		@ args = 0, pretend = 0, frame = 0
 743              		@ frame_needed = 0, uses_anonymous_args = 0
 744              		@ link register save eliminated.
 745              	.LVL47:
 745:Generated_Source\PSoC5/ADC_UI_SAR.c ****     int16 mVolts;
 746:Generated_Source\PSoC5/ADC_UI_SAR.c ****     int32 countsPer10Volt;
 747:Generated_Source\PSoC5/ADC_UI_SAR.c **** 
 748:Generated_Source\PSoC5/ADC_UI_SAR.c ****     if(ADC_UI_SAR_countsPerVolt != 0)
 746              		.loc 1 748 0
 747 0000 0F4A     		ldr	r2, .L79
 748 0002 1388     		ldrh	r3, [r2]
 749 0004 9BB2     		uxth	r3, r3
 750 0006 C3B1     		cbz	r3, .L75
 749:Generated_Source\PSoC5/ADC_UI_SAR.c ****     {   /* Support obsolete method */
 750:Generated_Source\PSoC5/ADC_UI_SAR.c ****         countsPer10Volt = (int32)ADC_UI_SAR_countsPerVolt * 10;
 751              		.loc 1 750 0
 752 0008 1288     		ldrh	r2, [r2]
 753 000a 12B2     		sxth	r2, r2
 754 000c 02EB8202 		add	r2, r2, r2, lsl #2
 755 0010 5200     		lsls	r2, r2, #1
 756              	.LVL48:
 757              	.L76:
 751:Generated_Source\PSoC5/ADC_UI_SAR.c ****     }
 752:Generated_Source\PSoC5/ADC_UI_SAR.c ****     else
 753:Generated_Source\PSoC5/ADC_UI_SAR.c ****     {
 754:Generated_Source\PSoC5/ADC_UI_SAR.c ****         countsPer10Volt = ADC_UI_SAR_countsPer10Volt;
 755:Generated_Source\PSoC5/ADC_UI_SAR.c ****     }
 756:Generated_Source\PSoC5/ADC_UI_SAR.c **** 
 757:Generated_Source\PSoC5/ADC_UI_SAR.c ****     /* Subtract ADC offset */
 758:Generated_Source\PSoC5/ADC_UI_SAR.c ****     adcCounts -= ADC_UI_SAR_offset;
 759:Generated_Source\PSoC5/ADC_UI_SAR.c ****     /* Convert to millivolts with rounding */
 760:Generated_Source\PSoC5/ADC_UI_SAR.c ****     mVolts = (int16)( (( (int32)adcCounts * ADC_UI_SAR_10MV_COUNTS ) + ( (adcCounts > 0) ?
 758              		.loc 1 760 0
 759 0012 42F21071 		movw	r1, #10000
 758:Generated_Source\PSoC5/ADC_UI_SAR.c ****     /* Convert to millivolts with rounding */
 760              		.loc 1 758 0
ARM GAS  C:\Users\mgronber\AppData\Local\Temp\cc1dpOSA.s 			page 29


 761 0016 0B4B     		ldr	r3, .L79+4
 762 0018 1B88     		ldrh	r3, [r3]
 763 001a C31A     		subs	r3, r0, r3
 764 001c 1BB2     		sxth	r3, r3
 765              	.LVL49:
 766              		.loc 1 760 0
 767 001e 01FB03F0 		mul	r0, r1, r3
 761:Generated_Source\PSoC5/ADC_UI_SAR.c ****                        (countsPer10Volt / 2) : (-(countsPer10Volt / 2)) )) / countsPer10Volt);
 768              		.loc 1 761 0
 769 0022 002B     		cmp	r3, #0
 770 0024 02EBD273 		add	r3, r2, r2, lsr #31
 771              	.LVL50:
 772 0028 4FEA6303 		asr	r3, r3, #1
 773 002c D8BF     		it	le
 774 002e 5B42     		rsble	r3, r3, #0
 775              	.LVL51:
 760:Generated_Source\PSoC5/ADC_UI_SAR.c ****                        (countsPer10Volt / 2) : (-(countsPer10Volt / 2)) )) / countsPer10Volt);
 776              		.loc 1 760 0
 777 0030 1844     		add	r0, r0, r3
 778              	.LVL52:
 779              		.loc 1 761 0
 780 0032 90FBF2F0 		sdiv	r0, r0, r2
 762:Generated_Source\PSoC5/ADC_UI_SAR.c **** 
 763:Generated_Source\PSoC5/ADC_UI_SAR.c ****     return( mVolts );
 764:Generated_Source\PSoC5/ADC_UI_SAR.c **** }
 781              		.loc 1 764 0
 782 0036 00B2     		sxth	r0, r0
 783 0038 7047     		bx	lr
 784              	.LVL53:
 785              	.L75:
 754:Generated_Source\PSoC5/ADC_UI_SAR.c ****     }
 786              		.loc 1 754 0
 787 003a 034B     		ldr	r3, .L79+8
 788 003c 1A68     		ldr	r2, [r3]
 789              	.LVL54:
 790 003e E8E7     		b	.L76
 791              	.L80:
 792              		.align	2
 793              	.L79:
 794 0040 00000000 		.word	ADC_UI_SAR_countsPerVolt
 795 0044 00000000 		.word	ADC_UI_SAR_offset
 796 0048 00000000 		.word	ADC_UI_SAR_countsPer10Volt
 797              		.cfi_endproc
 798              	.LFE15:
 799              		.size	ADC_UI_SAR_CountsTo_mVolts, .-ADC_UI_SAR_CountsTo_mVolts
 800              		.global	__aeabi_ldivmod
 801              		.section	.text.ADC_UI_SAR_CountsTo_uVolts,"ax",%progbits
 802              		.align	2
 803              		.global	ADC_UI_SAR_CountsTo_uVolts
 804              		.thumb
 805              		.thumb_func
 806              		.type	ADC_UI_SAR_CountsTo_uVolts, %function
 807              	ADC_UI_SAR_CountsTo_uVolts:
 808              	.LFB16:
 765:Generated_Source\PSoC5/ADC_UI_SAR.c **** 
 766:Generated_Source\PSoC5/ADC_UI_SAR.c **** 
 767:Generated_Source\PSoC5/ADC_UI_SAR.c **** /*******************************************************************************
ARM GAS  C:\Users\mgronber\AppData\Local\Temp\cc1dpOSA.s 			page 30


 768:Generated_Source\PSoC5/ADC_UI_SAR.c **** * Function Name: ADC_UI_SAR_CountsTo_uVolts
 769:Generated_Source\PSoC5/ADC_UI_SAR.c **** ********************************************************************************
 770:Generated_Source\PSoC5/ADC_UI_SAR.c **** *
 771:Generated_Source\PSoC5/ADC_UI_SAR.c **** * Summary:
 772:Generated_Source\PSoC5/ADC_UI_SAR.c **** *  Converts the ADC output to microvolts as a 32-bit integer.
 773:Generated_Source\PSoC5/ADC_UI_SAR.c **** *
 774:Generated_Source\PSoC5/ADC_UI_SAR.c **** * Parameters:
 775:Generated_Source\PSoC5/ADC_UI_SAR.c **** *  int16 adcCounts: Result from the ADC conversion
 776:Generated_Source\PSoC5/ADC_UI_SAR.c **** *
 777:Generated_Source\PSoC5/ADC_UI_SAR.c **** * Return:
 778:Generated_Source\PSoC5/ADC_UI_SAR.c **** *  int32 Result in micro Volts
 779:Generated_Source\PSoC5/ADC_UI_SAR.c **** *
 780:Generated_Source\PSoC5/ADC_UI_SAR.c **** * Global Variables:
 781:Generated_Source\PSoC5/ADC_UI_SAR.c **** *  ADC_UI_SAR_offset variable used.
 782:Generated_Source\PSoC5/ADC_UI_SAR.c **** *  ADC_UI_SAR_countsPer10Volt used to convert ADC counts to uVolts.
 783:Generated_Source\PSoC5/ADC_UI_SAR.c **** *
 784:Generated_Source\PSoC5/ADC_UI_SAR.c **** *******************************************************************************/
 785:Generated_Source\PSoC5/ADC_UI_SAR.c **** int32 ADC_UI_SAR_CountsTo_uVolts(int16 adcCounts)
 786:Generated_Source\PSoC5/ADC_UI_SAR.c **** {
 809              		.loc 1 786 0
 810              		.cfi_startproc
 811              		@ args = 0, pretend = 0, frame = 0
 812              		@ frame_needed = 0, uses_anonymous_args = 0
 813              	.LVL55:
 787:Generated_Source\PSoC5/ADC_UI_SAR.c **** 
 788:Generated_Source\PSoC5/ADC_UI_SAR.c ****     int64 uVolts;
 789:Generated_Source\PSoC5/ADC_UI_SAR.c ****     int32 countsPer10Volt;
 790:Generated_Source\PSoC5/ADC_UI_SAR.c **** 
 791:Generated_Source\PSoC5/ADC_UI_SAR.c ****     if(ADC_UI_SAR_countsPerVolt != 0)
 814              		.loc 1 791 0
 815 0000 0D4A     		ldr	r2, .L86
 786:Generated_Source\PSoC5/ADC_UI_SAR.c **** 
 816              		.loc 1 786 0
 817 0002 70B5     		push	{r4, r5, r6, lr}
 818              		.cfi_def_cfa_offset 16
 819              		.cfi_offset 4, -16
 820              		.cfi_offset 5, -12
 821              		.cfi_offset 6, -8
 822              		.cfi_offset 14, -4
 823              		.loc 1 791 0
 824 0004 1388     		ldrh	r3, [r2]
 825 0006 9BB2     		uxth	r3, r3
 826 0008 7BB9     		cbnz	r3, .L85
 792:Generated_Source\PSoC5/ADC_UI_SAR.c ****     {   /* Support obsolete method */
 793:Generated_Source\PSoC5/ADC_UI_SAR.c ****         countsPer10Volt = (int32)ADC_UI_SAR_countsPerVolt * 10;
 794:Generated_Source\PSoC5/ADC_UI_SAR.c ****     }
 795:Generated_Source\PSoC5/ADC_UI_SAR.c ****     else
 796:Generated_Source\PSoC5/ADC_UI_SAR.c ****     {
 797:Generated_Source\PSoC5/ADC_UI_SAR.c ****         countsPer10Volt = ADC_UI_SAR_countsPer10Volt;
 827              		.loc 1 797 0
 828 000a 0C4B     		ldr	r3, .L86+4
 829 000c 1A68     		ldr	r2, [r3]
 830              	.LVL56:
 831              	.L83:
 798:Generated_Source\PSoC5/ADC_UI_SAR.c ****     }
 799:Generated_Source\PSoC5/ADC_UI_SAR.c **** 
 800:Generated_Source\PSoC5/ADC_UI_SAR.c ****     /* Subtract ADC offset */
ARM GAS  C:\Users\mgronber\AppData\Local\Temp\cc1dpOSA.s 			page 31


 801:Generated_Source\PSoC5/ADC_UI_SAR.c ****     adcCounts -= ADC_UI_SAR_offset;
 832              		.loc 1 801 0
 833 000e 0C4B     		ldr	r3, .L86+8
 802:Generated_Source\PSoC5/ADC_UI_SAR.c ****     /* To convert adcCounts to microVolts it is required to be multiplied
 803:Generated_Source\PSoC5/ADC_UI_SAR.c ****     *  on 10 million and later divide on gain in counts per 10V.
 804:Generated_Source\PSoC5/ADC_UI_SAR.c ****     */
 805:Generated_Source\PSoC5/ADC_UI_SAR.c ****     uVolts = (( (int64)adcCounts * ADC_UI_SAR_10UV_COUNTS ) / countsPer10Volt);
 834              		.loc 1 805 0
 835 0010 0C4E     		ldr	r6, .L86+12
 801:Generated_Source\PSoC5/ADC_UI_SAR.c ****     /* To convert adcCounts to microVolts it is required to be multiplied
 836              		.loc 1 801 0
 837 0012 1C88     		ldrh	r4, [r3]
 838              	.LVL57:
 839              		.loc 1 805 0
 840 0014 D317     		asrs	r3, r2, #31
 841 0016 041B     		subs	r4, r0, r4
 842              	.LVL58:
 843 0018 24B2     		sxth	r4, r4
 844 001a A4FB0601 		umull	r0, r1, r4, r6
 845 001e E517     		asrs	r5, r4, #31
 846 0020 06FB0511 		mla	r1, r6, r5, r1
 847 0024 FFF7FEFF 		bl	__aeabi_ldivmod
 848              	.LVL59:
 806:Generated_Source\PSoC5/ADC_UI_SAR.c **** 
 807:Generated_Source\PSoC5/ADC_UI_SAR.c ****     return( uVolts );
 808:Generated_Source\PSoC5/ADC_UI_SAR.c **** }
 849              		.loc 1 808 0
 850 0028 70BD     		pop	{r4, r5, r6, pc}
 851              	.LVL60:
 852              	.L85:
 793:Generated_Source\PSoC5/ADC_UI_SAR.c ****     }
 853              		.loc 1 793 0
 854 002a 1288     		ldrh	r2, [r2]
 855 002c 12B2     		sxth	r2, r2
 856 002e 02EB8202 		add	r2, r2, r2, lsl #2
 857 0032 5200     		lsls	r2, r2, #1
 858              	.LVL61:
 859 0034 EBE7     		b	.L83
 860              	.L87:
 861 0036 00BF     		.align	2
 862              	.L86:
 863 0038 00000000 		.word	ADC_UI_SAR_countsPerVolt
 864 003c 00000000 		.word	ADC_UI_SAR_countsPer10Volt
 865 0040 00000000 		.word	ADC_UI_SAR_offset
 866 0044 80969800 		.word	10000000
 867              		.cfi_endproc
 868              	.LFE16:
 869              		.size	ADC_UI_SAR_CountsTo_uVolts, .-ADC_UI_SAR_CountsTo_uVolts
 870              		.global	__aeabi_i2f
 871              		.global	__aeabi_fmul
 872              		.global	__aeabi_fdiv
 873              		.section	.text.ADC_UI_SAR_CountsTo_Volts,"ax",%progbits
 874              		.align	2
 875              		.global	ADC_UI_SAR_CountsTo_Volts
 876              		.thumb
 877              		.thumb_func
 878              		.type	ADC_UI_SAR_CountsTo_Volts, %function
ARM GAS  C:\Users\mgronber\AppData\Local\Temp\cc1dpOSA.s 			page 32


 879              	ADC_UI_SAR_CountsTo_Volts:
 880              	.LFB17:
 809:Generated_Source\PSoC5/ADC_UI_SAR.c **** 
 810:Generated_Source\PSoC5/ADC_UI_SAR.c **** 
 811:Generated_Source\PSoC5/ADC_UI_SAR.c **** /*******************************************************************************
 812:Generated_Source\PSoC5/ADC_UI_SAR.c **** * Function Name: ADC_UI_SAR_CountsTo_Volts
 813:Generated_Source\PSoC5/ADC_UI_SAR.c **** ********************************************************************************
 814:Generated_Source\PSoC5/ADC_UI_SAR.c **** *
 815:Generated_Source\PSoC5/ADC_UI_SAR.c **** * Summary:
 816:Generated_Source\PSoC5/ADC_UI_SAR.c **** *  Converts the ADC output to volts as a floating-point number.
 817:Generated_Source\PSoC5/ADC_UI_SAR.c **** *
 818:Generated_Source\PSoC5/ADC_UI_SAR.c **** * Parameters:
 819:Generated_Source\PSoC5/ADC_UI_SAR.c **** *  int16 adcCounts: Result from the ADC conversion
 820:Generated_Source\PSoC5/ADC_UI_SAR.c **** *
 821:Generated_Source\PSoC5/ADC_UI_SAR.c **** * Return:
 822:Generated_Source\PSoC5/ADC_UI_SAR.c **** *  float Result in Volts
 823:Generated_Source\PSoC5/ADC_UI_SAR.c **** *
 824:Generated_Source\PSoC5/ADC_UI_SAR.c **** * Global Variables:
 825:Generated_Source\PSoC5/ADC_UI_SAR.c **** *  ADC_UI_SAR_offset variable used.
 826:Generated_Source\PSoC5/ADC_UI_SAR.c **** *  ADC_UI_SAR_countsPer10Volt used to convert ADC counts to Volts.
 827:Generated_Source\PSoC5/ADC_UI_SAR.c **** *
 828:Generated_Source\PSoC5/ADC_UI_SAR.c **** *******************************************************************************/
 829:Generated_Source\PSoC5/ADC_UI_SAR.c **** float32 ADC_UI_SAR_CountsTo_Volts(int16 adcCounts)
 830:Generated_Source\PSoC5/ADC_UI_SAR.c **** {
 881              		.loc 1 830 0
 882              		.cfi_startproc
 883              		@ args = 0, pretend = 0, frame = 0
 884              		@ frame_needed = 0, uses_anonymous_args = 0
 885              	.LVL62:
 831:Generated_Source\PSoC5/ADC_UI_SAR.c ****     float32 volts;
 832:Generated_Source\PSoC5/ADC_UI_SAR.c ****     int32 countsPer10Volt;
 833:Generated_Source\PSoC5/ADC_UI_SAR.c **** 
 834:Generated_Source\PSoC5/ADC_UI_SAR.c ****     if(ADC_UI_SAR_countsPerVolt != 0)
 886              		.loc 1 834 0
 887 0000 0F4A     		ldr	r2, .L93
 830:Generated_Source\PSoC5/ADC_UI_SAR.c ****     float32 volts;
 888              		.loc 1 830 0
 889 0002 38B5     		push	{r3, r4, r5, lr}
 890              		.cfi_def_cfa_offset 16
 891              		.cfi_offset 3, -16
 892              		.cfi_offset 4, -12
 893              		.cfi_offset 5, -8
 894              		.cfi_offset 14, -4
 895              		.loc 1 834 0
 896 0004 1388     		ldrh	r3, [r2]
 897 0006 9BB2     		uxth	r3, r3
 898 0008 9BB9     		cbnz	r3, .L92
 835:Generated_Source\PSoC5/ADC_UI_SAR.c ****     {   /* Support obsolete method */
 836:Generated_Source\PSoC5/ADC_UI_SAR.c ****         countsPer10Volt = (int32)ADC_UI_SAR_countsPerVolt * 10;
 837:Generated_Source\PSoC5/ADC_UI_SAR.c ****     }
 838:Generated_Source\PSoC5/ADC_UI_SAR.c ****     else
 839:Generated_Source\PSoC5/ADC_UI_SAR.c ****     {
 840:Generated_Source\PSoC5/ADC_UI_SAR.c ****         countsPer10Volt = ADC_UI_SAR_countsPer10Volt;
 899              		.loc 1 840 0
 900 000a 0E4B     		ldr	r3, .L93+4
 901 000c 1C68     		ldr	r4, [r3]
 902              	.LVL63:
ARM GAS  C:\Users\mgronber\AppData\Local\Temp\cc1dpOSA.s 			page 33


 903              	.L90:
 841:Generated_Source\PSoC5/ADC_UI_SAR.c ****     }
 842:Generated_Source\PSoC5/ADC_UI_SAR.c **** 
 843:Generated_Source\PSoC5/ADC_UI_SAR.c ****     /* Subtract ADC offset */
 844:Generated_Source\PSoC5/ADC_UI_SAR.c ****     adcCounts -= ADC_UI_SAR_offset;
 904              		.loc 1 844 0
 905 000e 0E4B     		ldr	r3, .L93+8
 906 0010 1B88     		ldrh	r3, [r3]
 907 0012 C01A     		subs	r0, r0, r3
 908              	.LVL64:
 845:Generated_Source\PSoC5/ADC_UI_SAR.c **** 
 846:Generated_Source\PSoC5/ADC_UI_SAR.c ****     volts = ((float32)adcCounts * ADC_UI_SAR_10V_COUNTS) / (float32)countsPer10Volt;
 909              		.loc 1 846 0
 910 0014 00B2     		sxth	r0, r0
 911 0016 FFF7FEFF 		bl	__aeabi_i2f
 912              	.LVL65:
 913 001a 0C49     		ldr	r1, .L93+12
 914 001c FFF7FEFF 		bl	__aeabi_fmul
 915              	.LVL66:
 916 0020 0546     		mov	r5, r0
 917 0022 2046     		mov	r0, r4
 918 0024 FFF7FEFF 		bl	__aeabi_i2f
 919              	.LVL67:
 920 0028 0146     		mov	r1, r0
 921 002a 2846     		mov	r0, r5
 922 002c FFF7FEFF 		bl	__aeabi_fdiv
 923              	.LVL68:
 847:Generated_Source\PSoC5/ADC_UI_SAR.c **** 
 848:Generated_Source\PSoC5/ADC_UI_SAR.c ****     return( volts );
 849:Generated_Source\PSoC5/ADC_UI_SAR.c **** }
 924              		.loc 1 849 0
 925 0030 38BD     		pop	{r3, r4, r5, pc}
 926              	.LVL69:
 927              	.L92:
 836:Generated_Source\PSoC5/ADC_UI_SAR.c ****     }
 928              		.loc 1 836 0
 929 0032 1488     		ldrh	r4, [r2]
 930 0034 24B2     		sxth	r4, r4
 931 0036 04EB8404 		add	r4, r4, r4, lsl #2
 932 003a 6400     		lsls	r4, r4, #1
 933              	.LVL70:
 934 003c E7E7     		b	.L90
 935              	.L94:
 936 003e 00BF     		.align	2
 937              	.L93:
 938 0040 00000000 		.word	ADC_UI_SAR_countsPerVolt
 939 0044 00000000 		.word	ADC_UI_SAR_countsPer10Volt
 940 0048 00000000 		.word	ADC_UI_SAR_offset
 941 004c 00002041 		.word	1092616192
 942              		.cfi_endproc
 943              	.LFE17:
 944              		.size	ADC_UI_SAR_CountsTo_Volts, .-ADC_UI_SAR_CountsTo_Volts
 945              		.comm	ADC_UI_SAR_shift,2,2
 946              		.comm	ADC_UI_SAR_countsPer10Volt,4,4
 947              		.comm	ADC_UI_SAR_countsPerVolt,2,2
 948              		.comm	ADC_UI_SAR_offset,2,2
 949              		.global	ADC_UI_SAR_initVar
ARM GAS  C:\Users\mgronber\AppData\Local\Temp\cc1dpOSA.s 			page 34


 950              		.bss
 951              		.set	.LANCHOR0,. + 0
 952              		.type	ADC_UI_SAR_initVar, %object
 953              		.size	ADC_UI_SAR_initVar, 1
 954              	ADC_UI_SAR_initVar:
 955 0000 00       		.space	1
 956              		.text
 957              	.Letext0:
 958              		.file 2 "Generated_Source\\PSoC5\\cytypes.h"
 959              		.file 3 "Generated_Source\\PSoC5\\CyLib.h"