ARM GAS  C:\Users\mgronber\AppData\Local\Temp\ccAbRq9a.s 			page 1


   1              		.syntax unified
   2              		.cpu cortex-m3
   3              		.fpu softvfp
   4              		.eabi_attribute 20, 1
   5              		.eabi_attribute 21, 1
   6              		.eabi_attribute 23, 3
   7              		.eabi_attribute 24, 1
   8              		.eabi_attribute 25, 1
   9              		.eabi_attribute 26, 1
  10              		.eabi_attribute 30, 2
  11              		.eabi_attribute 34, 1
  12              		.eabi_attribute 18, 4
  13              		.thumb
  14              		.file	"ADC_MIC_PM.c"
  15              		.text
  16              	.Ltext0:
  17              		.cfi_sections	.debug_frame
  18              		.section	.text.ADC_MIC_SaveConfig,"ax",%progbits
  19              		.align	2
  20              		.global	ADC_MIC_SaveConfig
  21              		.thumb
  22              		.thumb_func
  23              		.type	ADC_MIC_SaveConfig, %function
  24              	ADC_MIC_SaveConfig:
  25              	.LFB0:
  26              		.file 1 "Generated_Source\\PSoC5\\ADC_MIC_PM.c"
   1:Generated_Source\PSoC5/ADC_MIC_PM.c **** /*******************************************************************************
   2:Generated_Source\PSoC5/ADC_MIC_PM.c **** * File Name: ADC_MIC_PM.c
   3:Generated_Source\PSoC5/ADC_MIC_PM.c **** * Version 3.0
   4:Generated_Source\PSoC5/ADC_MIC_PM.c **** *
   5:Generated_Source\PSoC5/ADC_MIC_PM.c **** * Description:
   6:Generated_Source\PSoC5/ADC_MIC_PM.c **** *  This file provides Sleep/WakeUp APIs functionality.
   7:Generated_Source\PSoC5/ADC_MIC_PM.c **** *
   8:Generated_Source\PSoC5/ADC_MIC_PM.c **** * Note:
   9:Generated_Source\PSoC5/ADC_MIC_PM.c **** *
  10:Generated_Source\PSoC5/ADC_MIC_PM.c **** ********************************************************************************
  11:Generated_Source\PSoC5/ADC_MIC_PM.c **** * Copyright 2008-2015, Cypress Semiconductor Corporation.  All rights reserved.
  12:Generated_Source\PSoC5/ADC_MIC_PM.c **** * You may use this file only in accordance with the license, terms, conditions,
  13:Generated_Source\PSoC5/ADC_MIC_PM.c **** * disclaimers, and limitations in the end user license agreement accompanying
  14:Generated_Source\PSoC5/ADC_MIC_PM.c **** * the software package with which this file was provided.
  15:Generated_Source\PSoC5/ADC_MIC_PM.c **** *******************************************************************************/
  16:Generated_Source\PSoC5/ADC_MIC_PM.c **** 
  17:Generated_Source\PSoC5/ADC_MIC_PM.c **** #include "ADC_MIC.h"
  18:Generated_Source\PSoC5/ADC_MIC_PM.c **** 
  19:Generated_Source\PSoC5/ADC_MIC_PM.c **** 
  20:Generated_Source\PSoC5/ADC_MIC_PM.c **** /***************************************
  21:Generated_Source\PSoC5/ADC_MIC_PM.c **** * Local data allocation
  22:Generated_Source\PSoC5/ADC_MIC_PM.c **** ***************************************/
  23:Generated_Source\PSoC5/ADC_MIC_PM.c **** 
  24:Generated_Source\PSoC5/ADC_MIC_PM.c **** static ADC_MIC_BACKUP_STRUCT  ADC_MIC_backup =
  25:Generated_Source\PSoC5/ADC_MIC_PM.c **** {
  26:Generated_Source\PSoC5/ADC_MIC_PM.c ****     ADC_MIC_DISABLED
  27:Generated_Source\PSoC5/ADC_MIC_PM.c **** };
  28:Generated_Source\PSoC5/ADC_MIC_PM.c **** 
  29:Generated_Source\PSoC5/ADC_MIC_PM.c **** 
  30:Generated_Source\PSoC5/ADC_MIC_PM.c **** /*******************************************************************************
  31:Generated_Source\PSoC5/ADC_MIC_PM.c **** * Function Name: ADC_MIC_SaveConfig
ARM GAS  C:\Users\mgronber\AppData\Local\Temp\ccAbRq9a.s 			page 2


  32:Generated_Source\PSoC5/ADC_MIC_PM.c **** ********************************************************************************
  33:Generated_Source\PSoC5/ADC_MIC_PM.c **** *
  34:Generated_Source\PSoC5/ADC_MIC_PM.c **** * Summary:
  35:Generated_Source\PSoC5/ADC_MIC_PM.c **** *  Saves the current user configuration.
  36:Generated_Source\PSoC5/ADC_MIC_PM.c **** *
  37:Generated_Source\PSoC5/ADC_MIC_PM.c **** * Parameters:
  38:Generated_Source\PSoC5/ADC_MIC_PM.c **** *  None.
  39:Generated_Source\PSoC5/ADC_MIC_PM.c **** *
  40:Generated_Source\PSoC5/ADC_MIC_PM.c **** * Return:
  41:Generated_Source\PSoC5/ADC_MIC_PM.c **** *  None.
  42:Generated_Source\PSoC5/ADC_MIC_PM.c **** *
  43:Generated_Source\PSoC5/ADC_MIC_PM.c **** *******************************************************************************/
  44:Generated_Source\PSoC5/ADC_MIC_PM.c **** void ADC_MIC_SaveConfig(void)
  45:Generated_Source\PSoC5/ADC_MIC_PM.c **** {
  27              		.loc 1 45 0
  28              		.cfi_startproc
  29              		@ args = 0, pretend = 0, frame = 0
  30              		@ frame_needed = 0, uses_anonymous_args = 0
  31              		@ link register save eliminated.
  32 0000 7047     		bx	lr
  33              		.cfi_endproc
  34              	.LFE0:
  35              		.size	ADC_MIC_SaveConfig, .-ADC_MIC_SaveConfig
  36 0002 00BF     		.section	.text.ADC_MIC_RestoreConfig,"ax",%progbits
  37              		.align	2
  38              		.global	ADC_MIC_RestoreConfig
  39              		.thumb
  40              		.thumb_func
  41              		.type	ADC_MIC_RestoreConfig, %function
  42              	ADC_MIC_RestoreConfig:
  43              	.LFB1:
  46:Generated_Source\PSoC5/ADC_MIC_PM.c ****     /* All configuration registers are marked as [reset_all_retention] */
  47:Generated_Source\PSoC5/ADC_MIC_PM.c **** }
  48:Generated_Source\PSoC5/ADC_MIC_PM.c **** 
  49:Generated_Source\PSoC5/ADC_MIC_PM.c **** 
  50:Generated_Source\PSoC5/ADC_MIC_PM.c **** /*******************************************************************************
  51:Generated_Source\PSoC5/ADC_MIC_PM.c **** * Function Name: ADC_MIC_RestoreConfig
  52:Generated_Source\PSoC5/ADC_MIC_PM.c **** ********************************************************************************
  53:Generated_Source\PSoC5/ADC_MIC_PM.c **** *
  54:Generated_Source\PSoC5/ADC_MIC_PM.c **** * Summary:
  55:Generated_Source\PSoC5/ADC_MIC_PM.c **** *  Restores the current user configuration.
  56:Generated_Source\PSoC5/ADC_MIC_PM.c **** *
  57:Generated_Source\PSoC5/ADC_MIC_PM.c **** * Parameters:
  58:Generated_Source\PSoC5/ADC_MIC_PM.c **** *  None.
  59:Generated_Source\PSoC5/ADC_MIC_PM.c **** *
  60:Generated_Source\PSoC5/ADC_MIC_PM.c **** * Return:
  61:Generated_Source\PSoC5/ADC_MIC_PM.c **** *  None.
  62:Generated_Source\PSoC5/ADC_MIC_PM.c **** *
  63:Generated_Source\PSoC5/ADC_MIC_PM.c **** *******************************************************************************/
  64:Generated_Source\PSoC5/ADC_MIC_PM.c **** void ADC_MIC_RestoreConfig(void)
  65:Generated_Source\PSoC5/ADC_MIC_PM.c **** {
  44              		.loc 1 65 0
  45              		.cfi_startproc
  46              		@ args = 0, pretend = 0, frame = 0
  47              		@ frame_needed = 0, uses_anonymous_args = 0
  48              		@ link register save eliminated.
  49 0000 7047     		bx	lr
ARM GAS  C:\Users\mgronber\AppData\Local\Temp\ccAbRq9a.s 			page 3


  50              		.cfi_endproc
  51              	.LFE1:
  52              		.size	ADC_MIC_RestoreConfig, .-ADC_MIC_RestoreConfig
  53 0002 00BF     		.section	.text.ADC_MIC_Sleep,"ax",%progbits
  54              		.align	2
  55              		.global	ADC_MIC_Sleep
  56              		.thumb
  57              		.thumb_func
  58              		.type	ADC_MIC_Sleep, %function
  59              	ADC_MIC_Sleep:
  60              	.LFB2:
  66:Generated_Source\PSoC5/ADC_MIC_PM.c ****     /* All congiguration registers are marked as [reset_all_retention] */
  67:Generated_Source\PSoC5/ADC_MIC_PM.c **** }
  68:Generated_Source\PSoC5/ADC_MIC_PM.c **** 
  69:Generated_Source\PSoC5/ADC_MIC_PM.c **** 
  70:Generated_Source\PSoC5/ADC_MIC_PM.c **** /*******************************************************************************
  71:Generated_Source\PSoC5/ADC_MIC_PM.c **** * Function Name: ADC_MIC_Sleep
  72:Generated_Source\PSoC5/ADC_MIC_PM.c **** ********************************************************************************
  73:Generated_Source\PSoC5/ADC_MIC_PM.c **** *
  74:Generated_Source\PSoC5/ADC_MIC_PM.c **** * Summary:
  75:Generated_Source\PSoC5/ADC_MIC_PM.c **** *  This is the preferred routine to prepare the component for sleep.
  76:Generated_Source\PSoC5/ADC_MIC_PM.c **** *  The ADC_MIC_Sleep() routine saves the current component state,
  77:Generated_Source\PSoC5/ADC_MIC_PM.c **** *  then it calls the ADC_Stop() function.
  78:Generated_Source\PSoC5/ADC_MIC_PM.c **** *
  79:Generated_Source\PSoC5/ADC_MIC_PM.c **** * Parameters:
  80:Generated_Source\PSoC5/ADC_MIC_PM.c **** *  None.
  81:Generated_Source\PSoC5/ADC_MIC_PM.c **** *
  82:Generated_Source\PSoC5/ADC_MIC_PM.c **** * Return:
  83:Generated_Source\PSoC5/ADC_MIC_PM.c **** *  None.
  84:Generated_Source\PSoC5/ADC_MIC_PM.c **** *
  85:Generated_Source\PSoC5/ADC_MIC_PM.c **** * Global Variables:
  86:Generated_Source\PSoC5/ADC_MIC_PM.c **** *  ADC_MIC_backup - The structure field 'enableState' is modified
  87:Generated_Source\PSoC5/ADC_MIC_PM.c **** *  depending on the enable state of the block before entering to sleep mode.
  88:Generated_Source\PSoC5/ADC_MIC_PM.c **** *
  89:Generated_Source\PSoC5/ADC_MIC_PM.c **** *******************************************************************************/
  90:Generated_Source\PSoC5/ADC_MIC_PM.c **** void ADC_MIC_Sleep(void)
  91:Generated_Source\PSoC5/ADC_MIC_PM.c **** {
  61              		.loc 1 91 0
  62              		.cfi_startproc
  63              		@ args = 0, pretend = 0, frame = 0
  64              		@ frame_needed = 0, uses_anonymous_args = 0
  65              		@ link register save eliminated.
  92:Generated_Source\PSoC5/ADC_MIC_PM.c ****     if((ADC_MIC_PWRMGR_SAR_REG  & ADC_MIC_ACT_PWR_SAR_EN) != 0u)
  66              		.loc 1 92 0
  67 0000 0A4B     		ldr	r3, .L8
  68 0002 1B78     		ldrb	r3, [r3]	@ zero_extendqisi2
  69 0004 03F00203 		and	r3, r3, #2
  70 0008 03F0FF02 		and	r2, r3, #255
  71 000c 53B1     		cbz	r3, .L4
  93:Generated_Source\PSoC5/ADC_MIC_PM.c ****     {
  94:Generated_Source\PSoC5/ADC_MIC_PM.c ****         if((ADC_MIC_SAR_CSR0_REG & ADC_MIC_SAR_SOF_START_CONV) != 0u)
  72              		.loc 1 94 0
  73 000e 084B     		ldr	r3, .L8+4
  74 0010 1B78     		ldrb	r3, [r3]	@ zero_extendqisi2
  75 0012 13F0010F 		tst	r3, #1
  95:Generated_Source\PSoC5/ADC_MIC_PM.c ****         {
  96:Generated_Source\PSoC5/ADC_MIC_PM.c ****             ADC_MIC_backup.enableState = ADC_MIC_ENABLED | ADC_MIC_STARTED;
ARM GAS  C:\Users\mgronber\AppData\Local\Temp\ccAbRq9a.s 			page 4


  76              		.loc 1 96 0
  77 0016 074B     		ldr	r3, .L8+8
  78 0018 14BF     		ite	ne
  79 001a 0322     		movne	r2, #3
  97:Generated_Source\PSoC5/ADC_MIC_PM.c ****         }
  98:Generated_Source\PSoC5/ADC_MIC_PM.c ****         else
  99:Generated_Source\PSoC5/ADC_MIC_PM.c ****         {
 100:Generated_Source\PSoC5/ADC_MIC_PM.c ****             ADC_MIC_backup.enableState = ADC_MIC_ENABLED;
  80              		.loc 1 100 0
  81 001c 0122     		moveq	r2, #1
  82 001e 1A70     		strb	r2, [r3]
 101:Generated_Source\PSoC5/ADC_MIC_PM.c ****         }
 102:Generated_Source\PSoC5/ADC_MIC_PM.c ****         ADC_MIC_Stop();
  83              		.loc 1 102 0
  84 0020 FFF7FEBF 		b	ADC_MIC_Stop
  85              	.LVL0:
  86              	.L4:
 103:Generated_Source\PSoC5/ADC_MIC_PM.c ****     }
 104:Generated_Source\PSoC5/ADC_MIC_PM.c ****     else
 105:Generated_Source\PSoC5/ADC_MIC_PM.c ****     {
 106:Generated_Source\PSoC5/ADC_MIC_PM.c ****         ADC_MIC_backup.enableState = ADC_MIC_DISABLED;
  87              		.loc 1 106 0
  88 0024 034B     		ldr	r3, .L8+8
  89 0026 1A70     		strb	r2, [r3]
  90 0028 7047     		bx	lr
  91              	.L9:
  92 002a 00BF     		.align	2
  93              	.L8:
  94 002c AB430040 		.word	1073759147
  95 0030 08590040 		.word	1073764616
  96 0034 00000000 		.word	.LANCHOR0
  97              		.cfi_endproc
  98              	.LFE2:
  99              		.size	ADC_MIC_Sleep, .-ADC_MIC_Sleep
 100              		.section	.text.ADC_MIC_Wakeup,"ax",%progbits
 101              		.align	2
 102              		.global	ADC_MIC_Wakeup
 103              		.thumb
 104              		.thumb_func
 105              		.type	ADC_MIC_Wakeup, %function
 106              	ADC_MIC_Wakeup:
 107              	.LFB3:
 107:Generated_Source\PSoC5/ADC_MIC_PM.c ****     }
 108:Generated_Source\PSoC5/ADC_MIC_PM.c **** }
 109:Generated_Source\PSoC5/ADC_MIC_PM.c **** 
 110:Generated_Source\PSoC5/ADC_MIC_PM.c **** 
 111:Generated_Source\PSoC5/ADC_MIC_PM.c **** /*******************************************************************************
 112:Generated_Source\PSoC5/ADC_MIC_PM.c **** * Function Name: ADC_MIC_Wakeup
 113:Generated_Source\PSoC5/ADC_MIC_PM.c **** ********************************************************************************
 114:Generated_Source\PSoC5/ADC_MIC_PM.c **** *
 115:Generated_Source\PSoC5/ADC_MIC_PM.c **** * Summary:
 116:Generated_Source\PSoC5/ADC_MIC_PM.c **** *  This is the preferred routine to restore the component to the state when
 117:Generated_Source\PSoC5/ADC_MIC_PM.c **** *  ADC_MIC_Sleep() was called. If the component was enabled before the
 118:Generated_Source\PSoC5/ADC_MIC_PM.c **** *  ADC_MIC_Sleep() function was called, the
 119:Generated_Source\PSoC5/ADC_MIC_PM.c **** *  ADC_MIC_Wakeup() function also re-enables the component.
 120:Generated_Source\PSoC5/ADC_MIC_PM.c **** *
 121:Generated_Source\PSoC5/ADC_MIC_PM.c **** * Parameters:
ARM GAS  C:\Users\mgronber\AppData\Local\Temp\ccAbRq9a.s 			page 5


 122:Generated_Source\PSoC5/ADC_MIC_PM.c **** *  None.
 123:Generated_Source\PSoC5/ADC_MIC_PM.c **** *
 124:Generated_Source\PSoC5/ADC_MIC_PM.c **** * Return:
 125:Generated_Source\PSoC5/ADC_MIC_PM.c **** *  None.
 126:Generated_Source\PSoC5/ADC_MIC_PM.c **** *
 127:Generated_Source\PSoC5/ADC_MIC_PM.c **** * Global Variables:
 128:Generated_Source\PSoC5/ADC_MIC_PM.c **** *  ADC_MIC_backup - The structure field 'enableState' is used to
 129:Generated_Source\PSoC5/ADC_MIC_PM.c **** *  restore the enable state of block after wakeup from sleep mode.
 130:Generated_Source\PSoC5/ADC_MIC_PM.c **** *
 131:Generated_Source\PSoC5/ADC_MIC_PM.c **** *******************************************************************************/
 132:Generated_Source\PSoC5/ADC_MIC_PM.c **** void ADC_MIC_Wakeup(void)
 133:Generated_Source\PSoC5/ADC_MIC_PM.c **** {
 108              		.loc 1 133 0
 109              		.cfi_startproc
 110              		@ args = 0, pretend = 0, frame = 0
 111              		@ frame_needed = 0, uses_anonymous_args = 0
 112 0000 10B5     		push	{r4, lr}
 113              		.cfi_def_cfa_offset 8
 114              		.cfi_offset 4, -8
 115              		.cfi_offset 14, -4
 134:Generated_Source\PSoC5/ADC_MIC_PM.c ****     if(ADC_MIC_backup.enableState != ADC_MIC_DISABLED)
 116              		.loc 1 134 0
 117 0002 064C     		ldr	r4, .L19
 118 0004 2378     		ldrb	r3, [r4]	@ zero_extendqisi2
 119 0006 03B9     		cbnz	r3, .L18
 120              	.L10:
 121 0008 10BD     		pop	{r4, pc}
 122              	.L18:
 135:Generated_Source\PSoC5/ADC_MIC_PM.c ****     {
 136:Generated_Source\PSoC5/ADC_MIC_PM.c ****         ADC_MIC_Enable();
 123              		.loc 1 136 0
 124 000a FFF7FEFF 		bl	ADC_MIC_Enable
 125              	.LVL1:
 137:Generated_Source\PSoC5/ADC_MIC_PM.c ****         #if(ADC_MIC_DEFAULT_CONV_MODE != ADC_MIC__HARDWARE_TRIGGER)
 138:Generated_Source\PSoC5/ADC_MIC_PM.c ****             if((ADC_MIC_backup.enableState & ADC_MIC_STARTED) != 0u)
 126              		.loc 1 138 0
 127 000e 2378     		ldrb	r3, [r4]	@ zero_extendqisi2
 128 0010 9B07     		lsls	r3, r3, #30
 129 0012 F9D5     		bpl	.L10
 139:Generated_Source\PSoC5/ADC_MIC_PM.c ****             {
 140:Generated_Source\PSoC5/ADC_MIC_PM.c ****                 ADC_MIC_StartConvert();
 141:Generated_Source\PSoC5/ADC_MIC_PM.c ****             }
 142:Generated_Source\PSoC5/ADC_MIC_PM.c ****         #endif /* End ADC_MIC_DEFAULT_CONV_MODE != ADC_MIC__HARDWARE_TRIGGER */
 143:Generated_Source\PSoC5/ADC_MIC_PM.c ****     }
 144:Generated_Source\PSoC5/ADC_MIC_PM.c **** }
 130              		.loc 1 144 0
 131 0014 BDE81040 		pop	{r4, lr}
 132              		.cfi_restore 14
 133              		.cfi_restore 4
 134              		.cfi_def_cfa_offset 0
 140:Generated_Source\PSoC5/ADC_MIC_PM.c ****             }
 135              		.loc 1 140 0
 136 0018 FFF7FEBF 		b	ADC_MIC_StartConvert
 137              	.LVL2:
 138              	.L20:
 139              		.align	2
 140              	.L19:
ARM GAS  C:\Users\mgronber\AppData\Local\Temp\ccAbRq9a.s 			page 6


 141 001c 00000000 		.word	.LANCHOR0
 142              		.cfi_endproc
 143              	.LFE3:
 144              		.size	ADC_MIC_Wakeup, .-ADC_MIC_Wakeup
 145              		.bss
 146              		.align	2
 147              		.set	.LANCHOR0,. + 0
 148              		.type	ADC_MIC_backup, %object
 149              		.size	ADC_MIC_backup, 1
 150              	ADC_MIC_backup:
 151 0000 00       		.space	1
 152 0001 000000   		.text
 153              	.Letext0:
 154              		.file 2 "Generated_Source\\PSoC5\\cytypes.h"
 155              		.file 3 "Generated_Source\\PSoC5\\ADC_MIC.h"