ARM GAS  C:\Users\mgronber\AppData\Local\Temp\ccMnmAh5.s 			page 1


   1              		.syntax unified
   2              		.cpu cortex-m3
   3              		.fpu softvfp
   4              		.eabi_attribute 20, 1
   5              		.eabi_attribute 21, 1
   6              		.eabi_attribute 23, 3
   7              		.eabi_attribute 24, 1
   8              		.eabi_attribute 25, 1
   9              		.eabi_attribute 26, 1
  10              		.eabi_attribute 30, 2
  11              		.eabi_attribute 34, 1
  12              		.eabi_attribute 18, 4
  13              		.thumb
  14              		.file	"CharLCD_I2C.c"
  15              		.text
  16              	.Ltext0:
  17              		.cfi_sections	.debug_frame
  18              		.section	.text.CharLCD_WriteData,"ax",%progbits
  19              		.align	2
  20              		.global	CharLCD_WriteData
  21              		.thumb
  22              		.thumb_func
  23              		.type	CharLCD_WriteData, %function
  24              	CharLCD_WriteData:
  25              	.LFB7:
  26              		.file 1 "Generated_Source\\PSoC5\\CharLCD_I2C.c"
   1:Generated_Source\PSoC5/CharLCD_I2C.c **** /*******************************************************************************
   2:Generated_Source\PSoC5/CharLCD_I2C.c **** * File Name: CharLCD_I2C.c
   3:Generated_Source\PSoC5/CharLCD_I2C.c **** * Version 2.0
   4:Generated_Source\PSoC5/CharLCD_I2C.c **** *
   5:Generated_Source\PSoC5/CharLCD_I2C.c **** * Description:
   6:Generated_Source\PSoC5/CharLCD_I2C.c **** *  This file provides source code for the CharLCD_I2C component's API.
   7:Generated_Source\PSoC5/CharLCD_I2C.c **** *
   8:Generated_Source\PSoC5/CharLCD_I2C.c **** * Note:
   9:Generated_Source\PSoC5/CharLCD_I2C.c **** *
  10:Generated_Source\PSoC5/CharLCD_I2C.c **** ********************************************************************************
  11:Generated_Source\PSoC5/CharLCD_I2C.c **** * Copyright 2008-2012, Cypress Semiconductor Corporation.  All rights reserved.
  12:Generated_Source\PSoC5/CharLCD_I2C.c **** * You may use this file only in accordance with the license, terms, conditions,
  13:Generated_Source\PSoC5/CharLCD_I2C.c **** * disclaimers, and limitations in the end user license agreement accompanying
  14:Generated_Source\PSoC5/CharLCD_I2C.c **** * the software package with which this file was provided.
  15:Generated_Source\PSoC5/CharLCD_I2C.c **** *******************************************************************************/
  16:Generated_Source\PSoC5/CharLCD_I2C.c **** 
  17:Generated_Source\PSoC5/CharLCD_I2C.c **** #include "CyLib.h"
  18:Generated_Source\PSoC5/CharLCD_I2C.c **** #include "CharLCD_I2C.h"
  19:Generated_Source\PSoC5/CharLCD_I2C.c **** 
  20:Generated_Source\PSoC5/CharLCD_I2C.c **** #if(CY_PSOC4)
  21:Generated_Source\PSoC5/CharLCD_I2C.c **** 	#include "I2C_CharLCD_PVT.h"
  22:Generated_Source\PSoC5/CharLCD_I2C.c **** 	#include "I2C_CharLCD_I2C_PVT.h"
  23:Generated_Source\PSoC5/CharLCD_I2C.c **** #else
  24:Generated_Source\PSoC5/CharLCD_I2C.c **** 	#include "I2C_CharLCD.h"
  25:Generated_Source\PSoC5/CharLCD_I2C.c **** 	#include "I2C_CharLCD_PVT.h"
  26:Generated_Source\PSoC5/CharLCD_I2C.c **** #endif /*PSOC4*/
  27:Generated_Source\PSoC5/CharLCD_I2C.c **** 
  28:Generated_Source\PSoC5/CharLCD_I2C.c **** /* Stores the state of conponent. Indicates wherewer component is 
  29:Generated_Source\PSoC5/CharLCD_I2C.c **** * in enabled state or not.
  30:Generated_Source\PSoC5/CharLCD_I2C.c **** */
  31:Generated_Source\PSoC5/CharLCD_I2C.c **** uint8 CharLCD_enableState = 0u;
ARM GAS  C:\Users\mgronber\AppData\Local\Temp\ccMnmAh5.s 			page 2


  32:Generated_Source\PSoC5/CharLCD_I2C.c **** 
  33:Generated_Source\PSoC5/CharLCD_I2C.c **** uint8 CharLCD_initVar = 0u;
  34:Generated_Source\PSoC5/CharLCD_I2C.c **** 
  35:Generated_Source\PSoC5/CharLCD_I2C.c **** 
  36:Generated_Source\PSoC5/CharLCD_I2C.c **** /*******************************************************************************
  37:Generated_Source\PSoC5/CharLCD_I2C.c **** * Function Name: CharLCD_Init
  38:Generated_Source\PSoC5/CharLCD_I2C.c **** ********************************************************************************
  39:Generated_Source\PSoC5/CharLCD_I2C.c **** *
  40:Generated_Source\PSoC5/CharLCD_I2C.c **** * Summary:
  41:Generated_Source\PSoC5/CharLCD_I2C.c **** *  Perform initialization required for components normal work.
  42:Generated_Source\PSoC5/CharLCD_I2C.c **** *  This function initializes the LCD hardware module as follows:
  43:Generated_Source\PSoC5/CharLCD_I2C.c **** *        Enable 4-bit interface
  44:Generated_Source\PSoC5/CharLCD_I2C.c **** *        Clear the display
  45:Generated_Source\PSoC5/CharLCD_I2C.c **** *        Enable auto cursor increment
  46:Generated_Source\PSoC5/CharLCD_I2C.c **** *        Resets the cursor to start position
  47:Generated_Source\PSoC5/CharLCD_I2C.c **** *  Also loads custom character set to LCD if it was defined in the customizer.
  48:Generated_Source\PSoC5/CharLCD_I2C.c **** *
  49:Generated_Source\PSoC5/CharLCD_I2C.c **** * Parameters:
  50:Generated_Source\PSoC5/CharLCD_I2C.c **** *  None.
  51:Generated_Source\PSoC5/CharLCD_I2C.c **** *
  52:Generated_Source\PSoC5/CharLCD_I2C.c **** * Return:
  53:Generated_Source\PSoC5/CharLCD_I2C.c **** *  None.
  54:Generated_Source\PSoC5/CharLCD_I2C.c **** *
  55:Generated_Source\PSoC5/CharLCD_I2C.c **** * Reentrant:
  56:Generated_Source\PSoC5/CharLCD_I2C.c **** *  No.
  57:Generated_Source\PSoC5/CharLCD_I2C.c **** *
  58:Generated_Source\PSoC5/CharLCD_I2C.c **** *******************************************************************************/
  59:Generated_Source\PSoC5/CharLCD_I2C.c **** void CharLCD_Init(void) 
  60:Generated_Source\PSoC5/CharLCD_I2C.c **** {
  61:Generated_Source\PSoC5/CharLCD_I2C.c ****     /* INIT CODE */
  62:Generated_Source\PSoC5/CharLCD_I2C.c ****     CyDelay(CharLCD_INIT_DELAY);									/* Delay 20 ms */
  63:Generated_Source\PSoC5/CharLCD_I2C.c ****     CharLCD_WrtCntrlUpNib(CharLCD_DISPLAY_8_BIT_INIT);   	/* Selects 8-bit mode */
  64:Generated_Source\PSoC5/CharLCD_I2C.c ****     CyDelay(CharLCD_INIT_UP_NIB_DELAY);								/* Delay 5 ms */
  65:Generated_Source\PSoC5/CharLCD_I2C.c **** 	CharLCD_WrtCntrlUpNib(CharLCD_DISPLAY_8_BIT_INIT);  	/* Selects 8-bit mode */
  66:Generated_Source\PSoC5/CharLCD_I2C.c ****     CyDelay(CharLCD_INIT_UP_NIB_DELAY);								/* Delay 5 ms */
  67:Generated_Source\PSoC5/CharLCD_I2C.c **** 	CharLCD_WrtCntrlUpNib(CharLCD_DISPLAY_8_BIT_INIT);  	/* Selects 8-bit mode */
  68:Generated_Source\PSoC5/CharLCD_I2C.c **** 	CyDelay(CharLCD_INIT_UP_NIB_DELAY);								/* Delay 5 ms */
  69:Generated_Source\PSoC5/CharLCD_I2C.c **** 	CharLCD_WrtCntrlUpNib(CharLCD_DISPLAY_4_BIT_INIT);   	/* Selects 4-bit mode */
  70:Generated_Source\PSoC5/CharLCD_I2C.c **** 	CyDelay(CharLCD_INIT_UP_NIB_DELAY);								/* Delay 5 ms */
  71:Generated_Source\PSoC5/CharLCD_I2C.c **** 
  72:Generated_Source\PSoC5/CharLCD_I2C.c **** 	CharLCD_WriteControl(CharLCD_DISPLAY_4_BIT_INIT);		/* Write 4-bit Mode 2x16 or 4x20 Char */
  73:Generated_Source\PSoC5/CharLCD_I2C.c **** 	CyDelay(CharLCD_INIT_CMD_DELAY);								/* Delay 5 ms */
  74:Generated_Source\PSoC5/CharLCD_I2C.c ****     CharLCD_WriteControl(CharLCD_CLEAR_DISPLAY);			/* Clear LCD Screen */
  75:Generated_Source\PSoC5/CharLCD_I2C.c **** 	CyDelay(CharLCD_INIT_CMD_DELAY);								/* Delay 5 ms */
  76:Generated_Source\PSoC5/CharLCD_I2C.c ****     CharLCD_WriteControl(CharLCD_CURSOR_AUTO_INCR_ON);		/* Incr Cursor One Space to Right After Wri
  77:Generated_Source\PSoC5/CharLCD_I2C.c **** 	CyDelay(CharLCD_INIT_CMD_DELAY);								/* Delay 5 ms */
  78:Generated_Source\PSoC5/CharLCD_I2C.c **** 	CharLCD_WriteControl(CharLCD_DISPLAY_ON_CURSOR_OFF);	/* Display ON Cursor OFF */
  79:Generated_Source\PSoC5/CharLCD_I2C.c ****  	CyDelay(CharLCD_INIT_CMD_DELAY);								/* Delay 5 ms */  
  80:Generated_Source\PSoC5/CharLCD_I2C.c **** 	
  81:Generated_Source\PSoC5/CharLCD_I2C.c **** 	#if(CharLCD_CUSTOM_CHAR_SET != CharLCD_NONE)
  82:Generated_Source\PSoC5/CharLCD_I2C.c ****         CharLCD_LoadCustomFonts(CharLCD_customFonts);
  83:Generated_Source\PSoC5/CharLCD_I2C.c ****     #endif /* CharLCD_CUSTOM_CHAR_SET != CharLCD_NONE */
  84:Generated_Source\PSoC5/CharLCD_I2C.c **** }
  85:Generated_Source\PSoC5/CharLCD_I2C.c **** 
  86:Generated_Source\PSoC5/CharLCD_I2C.c **** 
  87:Generated_Source\PSoC5/CharLCD_I2C.c **** /*******************************************************************************
  88:Generated_Source\PSoC5/CharLCD_I2C.c **** * Function Name: CharLCD_Enable									   *
ARM GAS  C:\Users\mgronber\AppData\Local\Temp\ccMnmAh5.s 			page 3


  89:Generated_Source\PSoC5/CharLCD_I2C.c **** ********************************************************************************
  90:Generated_Source\PSoC5/CharLCD_I2C.c **** *
  91:Generated_Source\PSoC5/CharLCD_I2C.c **** * Summary:
  92:Generated_Source\PSoC5/CharLCD_I2C.c **** *  Turns on the display.
  93:Generated_Source\PSoC5/CharLCD_I2C.c **** *
  94:Generated_Source\PSoC5/CharLCD_I2C.c **** * Parameters:
  95:Generated_Source\PSoC5/CharLCD_I2C.c **** *  None.
  96:Generated_Source\PSoC5/CharLCD_I2C.c **** *
  97:Generated_Source\PSoC5/CharLCD_I2C.c **** * Return:
  98:Generated_Source\PSoC5/CharLCD_I2C.c **** *  None.
  99:Generated_Source\PSoC5/CharLCD_I2C.c **** *
 100:Generated_Source\PSoC5/CharLCD_I2C.c **** * Reentrant:
 101:Generated_Source\PSoC5/CharLCD_I2C.c **** *  No.
 102:Generated_Source\PSoC5/CharLCD_I2C.c **** *
 103:Generated_Source\PSoC5/CharLCD_I2C.c **** * Theory:
 104:Generated_Source\PSoC5/CharLCD_I2C.c **** *  This finction has no effect when it called first time as
 105:Generated_Source\PSoC5/CharLCD_I2C.c **** *  CharLCD_Init() turns on the LCD.
 106:Generated_Source\PSoC5/CharLCD_I2C.c **** *
 107:Generated_Source\PSoC5/CharLCD_I2C.c **** *******************************************************************************/
 108:Generated_Source\PSoC5/CharLCD_I2C.c **** void CharLCD_Enable(void) 
 109:Generated_Source\PSoC5/CharLCD_I2C.c **** {
 110:Generated_Source\PSoC5/CharLCD_I2C.c ****     CharLCD_DisplayOn();
 111:Generated_Source\PSoC5/CharLCD_I2C.c ****     CharLCD_enableState = 1u;
 112:Generated_Source\PSoC5/CharLCD_I2C.c **** }
 113:Generated_Source\PSoC5/CharLCD_I2C.c **** 
 114:Generated_Source\PSoC5/CharLCD_I2C.c **** 
 115:Generated_Source\PSoC5/CharLCD_I2C.c **** /*******************************************************************************
 116:Generated_Source\PSoC5/CharLCD_I2C.c **** * Function Name: CharLCD_Start
 117:Generated_Source\PSoC5/CharLCD_I2C.c **** ********************************************************************************
 118:Generated_Source\PSoC5/CharLCD_I2C.c **** *
 119:Generated_Source\PSoC5/CharLCD_I2C.c **** * Summary:
 120:Generated_Source\PSoC5/CharLCD_I2C.c **** *  Perform initialization required for components normal work.
 121:Generated_Source\PSoC5/CharLCD_I2C.c **** *  This function initializes the LCD hardware module as follows:
 122:Generated_Source\PSoC5/CharLCD_I2C.c **** *        Enable 4-bit interface
 123:Generated_Source\PSoC5/CharLCD_I2C.c **** *        Clear the display
 124:Generated_Source\PSoC5/CharLCD_I2C.c **** *        Enable auto cursor increment
 125:Generated_Source\PSoC5/CharLCD_I2C.c **** *        Resets the cursor to start position
 126:Generated_Source\PSoC5/CharLCD_I2C.c **** *  Also loads custom character set to LCD if it was defined in the customizer.
 127:Generated_Source\PSoC5/CharLCD_I2C.c **** *  If it was not the first call in this project then it just turns on the
 128:Generated_Source\PSoC5/CharLCD_I2C.c **** *  display
 129:Generated_Source\PSoC5/CharLCD_I2C.c **** *
 130:Generated_Source\PSoC5/CharLCD_I2C.c **** *
 131:Generated_Source\PSoC5/CharLCD_I2C.c **** * Parameters:
 132:Generated_Source\PSoC5/CharLCD_I2C.c **** *  CharLCD_initVar - global variable.
 133:Generated_Source\PSoC5/CharLCD_I2C.c **** *
 134:Generated_Source\PSoC5/CharLCD_I2C.c **** * Return:
 135:Generated_Source\PSoC5/CharLCD_I2C.c **** *  CharLCD_initVar - global variable.
 136:Generated_Source\PSoC5/CharLCD_I2C.c **** *
 137:Generated_Source\PSoC5/CharLCD_I2C.c **** * Reentrant:
 138:Generated_Source\PSoC5/CharLCD_I2C.c **** *  No.
 139:Generated_Source\PSoC5/CharLCD_I2C.c **** *
 140:Generated_Source\PSoC5/CharLCD_I2C.c **** *******************************************************************************/
 141:Generated_Source\PSoC5/CharLCD_I2C.c **** void CharLCD_Start(void) 
 142:Generated_Source\PSoC5/CharLCD_I2C.c **** {
 143:Generated_Source\PSoC5/CharLCD_I2C.c ****     /* If not initialized then perform initialization */
 144:Generated_Source\PSoC5/CharLCD_I2C.c ****     if(CharLCD_initVar == 0u)
 145:Generated_Source\PSoC5/CharLCD_I2C.c ****     {
ARM GAS  C:\Users\mgronber\AppData\Local\Temp\ccMnmAh5.s 			page 4


 146:Generated_Source\PSoC5/CharLCD_I2C.c ****         CharLCD_Init();
 147:Generated_Source\PSoC5/CharLCD_I2C.c ****         CharLCD_initVar = 1u;
 148:Generated_Source\PSoC5/CharLCD_I2C.c ****     }
 149:Generated_Source\PSoC5/CharLCD_I2C.c **** 
 150:Generated_Source\PSoC5/CharLCD_I2C.c ****     /* Turn on the LCD */
 151:Generated_Source\PSoC5/CharLCD_I2C.c ****     CharLCD_Enable();
 152:Generated_Source\PSoC5/CharLCD_I2C.c **** }
 153:Generated_Source\PSoC5/CharLCD_I2C.c **** 
 154:Generated_Source\PSoC5/CharLCD_I2C.c **** 
 155:Generated_Source\PSoC5/CharLCD_I2C.c **** /*******************************************************************************
 156:Generated_Source\PSoC5/CharLCD_I2C.c **** * Function Name: CharLCD_Stop
 157:Generated_Source\PSoC5/CharLCD_I2C.c **** ********************************************************************************
 158:Generated_Source\PSoC5/CharLCD_I2C.c **** *
 159:Generated_Source\PSoC5/CharLCD_I2C.c **** * Summary:
 160:Generated_Source\PSoC5/CharLCD_I2C.c **** *  Turns off the display of the LCD screen.
 161:Generated_Source\PSoC5/CharLCD_I2C.c **** *
 162:Generated_Source\PSoC5/CharLCD_I2C.c **** * Parameters:
 163:Generated_Source\PSoC5/CharLCD_I2C.c **** *  None.
 164:Generated_Source\PSoC5/CharLCD_I2C.c **** *
 165:Generated_Source\PSoC5/CharLCD_I2C.c **** * Return:
 166:Generated_Source\PSoC5/CharLCD_I2C.c **** *  None.
 167:Generated_Source\PSoC5/CharLCD_I2C.c **** *
 168:Generated_Source\PSoC5/CharLCD_I2C.c **** * Reentrant:
 169:Generated_Source\PSoC5/CharLCD_I2C.c **** *  No.
 170:Generated_Source\PSoC5/CharLCD_I2C.c **** *
 171:Generated_Source\PSoC5/CharLCD_I2C.c **** *******************************************************************************/
 172:Generated_Source\PSoC5/CharLCD_I2C.c **** void CharLCD_Stop(void) 
 173:Generated_Source\PSoC5/CharLCD_I2C.c **** {
 174:Generated_Source\PSoC5/CharLCD_I2C.c ****     /* Calls LCD Off Macro */
 175:Generated_Source\PSoC5/CharLCD_I2C.c ****     CharLCD_DisplayOff();
 176:Generated_Source\PSoC5/CharLCD_I2C.c ****     CharLCD_enableState = 0u;
 177:Generated_Source\PSoC5/CharLCD_I2C.c **** }
 178:Generated_Source\PSoC5/CharLCD_I2C.c **** 
 179:Generated_Source\PSoC5/CharLCD_I2C.c **** 
 180:Generated_Source\PSoC5/CharLCD_I2C.c **** /*******************************************************************************
 181:Generated_Source\PSoC5/CharLCD_I2C.c **** *  Function Name: CharLCD_Position
 182:Generated_Source\PSoC5/CharLCD_I2C.c **** ********************************************************************************
 183:Generated_Source\PSoC5/CharLCD_I2C.c **** *
 184:Generated_Source\PSoC5/CharLCD_I2C.c **** * Summary:
 185:Generated_Source\PSoC5/CharLCD_I2C.c **** *  Moves active cursor location to a point specified by the input arguments
 186:Generated_Source\PSoC5/CharLCD_I2C.c **** *
 187:Generated_Source\PSoC5/CharLCD_I2C.c **** * Parameters:
 188:Generated_Source\PSoC5/CharLCD_I2C.c **** *  row:     Specific row of LCD module to be written
 189:Generated_Source\PSoC5/CharLCD_I2C.c **** *  column:  Column of LCD module to be written
 190:Generated_Source\PSoC5/CharLCD_I2C.c **** *
 191:Generated_Source\PSoC5/CharLCD_I2C.c **** * Return:
 192:Generated_Source\PSoC5/CharLCD_I2C.c **** *  None.
 193:Generated_Source\PSoC5/CharLCD_I2C.c **** *
 194:Generated_Source\PSoC5/CharLCD_I2C.c **** * Note:
 195:Generated_Source\PSoC5/CharLCD_I2C.c **** *  This only applies for LCD displays which use the 2X40 address mode.
 196:Generated_Source\PSoC5/CharLCD_I2C.c **** *  This results in Row 2 offset from row one by 0x28.
 197:Generated_Source\PSoC5/CharLCD_I2C.c **** *  When there are more than 2 rows, each row must be fewer than 20 characters.
 198:Generated_Source\PSoC5/CharLCD_I2C.c **** *
 199:Generated_Source\PSoC5/CharLCD_I2C.c **** *******************************************************************************/
 200:Generated_Source\PSoC5/CharLCD_I2C.c **** void CharLCD_Position(uint8 row, uint8 column) 
 201:Generated_Source\PSoC5/CharLCD_I2C.c **** {
 202:Generated_Source\PSoC5/CharLCD_I2C.c ****     switch (row)
ARM GAS  C:\Users\mgronber\AppData\Local\Temp\ccMnmAh5.s 			page 5


 203:Generated_Source\PSoC5/CharLCD_I2C.c ****     {
 204:Generated_Source\PSoC5/CharLCD_I2C.c ****         case (uint8)0:
 205:Generated_Source\PSoC5/CharLCD_I2C.c ****             CharLCD_WriteControl(CharLCD_ROW_0_START + column);
 206:Generated_Source\PSoC5/CharLCD_I2C.c ****             break;
 207:Generated_Source\PSoC5/CharLCD_I2C.c ****         case (uint8) 1:
 208:Generated_Source\PSoC5/CharLCD_I2C.c ****             CharLCD_WriteControl(CharLCD_ROW_1_START + column);
 209:Generated_Source\PSoC5/CharLCD_I2C.c ****             break;
 210:Generated_Source\PSoC5/CharLCD_I2C.c ****         case (uint8) 2:
 211:Generated_Source\PSoC5/CharLCD_I2C.c ****             CharLCD_WriteControl(CharLCD_ROW_2_START + column);
 212:Generated_Source\PSoC5/CharLCD_I2C.c ****             break;
 213:Generated_Source\PSoC5/CharLCD_I2C.c ****         case (uint8) 3:
 214:Generated_Source\PSoC5/CharLCD_I2C.c ****             CharLCD_WriteControl(CharLCD_ROW_3_START + column);
 215:Generated_Source\PSoC5/CharLCD_I2C.c ****             break;
 216:Generated_Source\PSoC5/CharLCD_I2C.c ****         default:
 217:Generated_Source\PSoC5/CharLCD_I2C.c ****             /* if default case is hit, invalid row argument was passed.*/
 218:Generated_Source\PSoC5/CharLCD_I2C.c ****             break;
 219:Generated_Source\PSoC5/CharLCD_I2C.c ****     }
 220:Generated_Source\PSoC5/CharLCD_I2C.c **** }
 221:Generated_Source\PSoC5/CharLCD_I2C.c **** 
 222:Generated_Source\PSoC5/CharLCD_I2C.c **** 
 223:Generated_Source\PSoC5/CharLCD_I2C.c **** /*******************************************************************************
 224:Generated_Source\PSoC5/CharLCD_I2C.c **** * Function Name: CharLCD_PrintString
 225:Generated_Source\PSoC5/CharLCD_I2C.c **** ********************************************************************************
 226:Generated_Source\PSoC5/CharLCD_I2C.c **** *
 227:Generated_Source\PSoC5/CharLCD_I2C.c **** * Summary:
 228:Generated_Source\PSoC5/CharLCD_I2C.c **** *  Writes a zero terminated string to the LCD.
 229:Generated_Source\PSoC5/CharLCD_I2C.c **** *
 230:Generated_Source\PSoC5/CharLCD_I2C.c **** * Parameters:
 231:Generated_Source\PSoC5/CharLCD_I2C.c **** *  string:  pointer to head of char8 array to be written to the LCD module
 232:Generated_Source\PSoC5/CharLCD_I2C.c **** *
 233:Generated_Source\PSoC5/CharLCD_I2C.c **** * Return:
 234:Generated_Source\PSoC5/CharLCD_I2C.c **** *  None.
 235:Generated_Source\PSoC5/CharLCD_I2C.c **** *
 236:Generated_Source\PSoC5/CharLCD_I2C.c **** *******************************************************************************/
 237:Generated_Source\PSoC5/CharLCD_I2C.c **** void CharLCD_PrintString(char8 const string[]) 
 238:Generated_Source\PSoC5/CharLCD_I2C.c **** {
 239:Generated_Source\PSoC5/CharLCD_I2C.c ****     uint8 indexU8 = 1u;
 240:Generated_Source\PSoC5/CharLCD_I2C.c ****     char8 current = *string;
 241:Generated_Source\PSoC5/CharLCD_I2C.c **** 
 242:Generated_Source\PSoC5/CharLCD_I2C.c ****     /* Until null is reached, print next character */
 243:Generated_Source\PSoC5/CharLCD_I2C.c ****     while((char8) '\0' != current)
 244:Generated_Source\PSoC5/CharLCD_I2C.c ****     {
 245:Generated_Source\PSoC5/CharLCD_I2C.c ****         CharLCD_WriteData((uint8)current);
 246:Generated_Source\PSoC5/CharLCD_I2C.c ****         current = string[indexU8];
 247:Generated_Source\PSoC5/CharLCD_I2C.c ****         indexU8++;
 248:Generated_Source\PSoC5/CharLCD_I2C.c ****     }
 249:Generated_Source\PSoC5/CharLCD_I2C.c **** }
 250:Generated_Source\PSoC5/CharLCD_I2C.c **** 
 251:Generated_Source\PSoC5/CharLCD_I2C.c **** 
 252:Generated_Source\PSoC5/CharLCD_I2C.c **** /*******************************************************************************
 253:Generated_Source\PSoC5/CharLCD_I2C.c **** *  Function Name: CharLCD_PutChar
 254:Generated_Source\PSoC5/CharLCD_I2C.c **** ********************************************************************************
 255:Generated_Source\PSoC5/CharLCD_I2C.c **** *
 256:Generated_Source\PSoC5/CharLCD_I2C.c **** * Summary:
 257:Generated_Source\PSoC5/CharLCD_I2C.c **** *  Writes a single character to the current cursor position of the LCD module.
 258:Generated_Source\PSoC5/CharLCD_I2C.c **** *  Custom character names (_CUSTOM_0 through
 259:Generated_Source\PSoC5/CharLCD_I2C.c **** *  _CUSTOM_7) are acceptable as inputs.
ARM GAS  C:\Users\mgronber\AppData\Local\Temp\ccMnmAh5.s 			page 6


 260:Generated_Source\PSoC5/CharLCD_I2C.c **** *
 261:Generated_Source\PSoC5/CharLCD_I2C.c **** * Parameters:
 262:Generated_Source\PSoC5/CharLCD_I2C.c **** *  character:  character to be written to the LCD
 263:Generated_Source\PSoC5/CharLCD_I2C.c **** *
 264:Generated_Source\PSoC5/CharLCD_I2C.c **** * Return:
 265:Generated_Source\PSoC5/CharLCD_I2C.c **** *  None.
 266:Generated_Source\PSoC5/CharLCD_I2C.c **** *
 267:Generated_Source\PSoC5/CharLCD_I2C.c **** *******************************************************************************/
 268:Generated_Source\PSoC5/CharLCD_I2C.c **** void CharLCD_PutChar(char8 character) 
 269:Generated_Source\PSoC5/CharLCD_I2C.c **** {
 270:Generated_Source\PSoC5/CharLCD_I2C.c ****     CharLCD_WriteData((uint8)character);
 271:Generated_Source\PSoC5/CharLCD_I2C.c **** }
 272:Generated_Source\PSoC5/CharLCD_I2C.c **** 
 273:Generated_Source\PSoC5/CharLCD_I2C.c **** 
 274:Generated_Source\PSoC5/CharLCD_I2C.c **** /*******************************************************************************
 275:Generated_Source\PSoC5/CharLCD_I2C.c **** *  Function Name: CharLCD_WriteData
 276:Generated_Source\PSoC5/CharLCD_I2C.c **** ********************************************************************************
 277:Generated_Source\PSoC5/CharLCD_I2C.c **** *
 278:Generated_Source\PSoC5/CharLCD_I2C.c **** * Summary:
 279:Generated_Source\PSoC5/CharLCD_I2C.c **** *   Writes a DATA Command to the LCD by sending the Upper Nibble and
 280:Generated_Source\PSoC5/CharLCD_I2C.c **** *   the Lower Nibble twice, once with the E input High and once with the 
 281:Generated_Source\PSoC5/CharLCD_I2C.c **** *	E input Low with the the RS input held High and the RW input held Low 
 282:Generated_Source\PSoC5/CharLCD_I2C.c **** *	while the K input or Back Light (BL) input is held High.
 283:Generated_Source\PSoC5/CharLCD_I2C.c **** *
 284:Generated_Source\PSoC5/CharLCD_I2C.c **** *******************************************************************************/	
 285:Generated_Source\PSoC5/CharLCD_I2C.c **** 
 286:Generated_Source\PSoC5/CharLCD_I2C.c **** void CharLCD_WriteData(uint8 dByte) 
 287:Generated_Source\PSoC5/CharLCD_I2C.c **** 
 288:Generated_Source\PSoC5/CharLCD_I2C.c **** {
  27              		.loc 1 288 0
  28              		.cfi_startproc
  29              		@ args = 0, pretend = 0, frame = 8
  30              		@ frame_needed = 0, uses_anonymous_args = 0
  31              	.LVL0:
  32 0000 F0B5     		push	{r4, r5, r6, r7, lr}
  33              		.cfi_def_cfa_offset 20
  34              		.cfi_offset 4, -20
  35              		.cfi_offset 5, -16
  36              		.cfi_offset 6, -12
  37              		.cfi_offset 7, -8
  38              		.cfi_offset 14, -4
 289:Generated_Source\PSoC5/CharLCD_I2C.c ****     uint8 buffer[CharLCD_BUFFER_SIZE], UPPER_NIB, LOWER_NIB;
 290:Generated_Source\PSoC5/CharLCD_I2C.c **** 	uint8 BLH_EH_RWL_RSH, BLH_EL_RWL_RSH;
 291:Generated_Source\PSoC5/CharLCD_I2C.c **** 	
 292:Generated_Source\PSoC5/CharLCD_I2C.c **** 	UPPER_NIB = dByte & CharLCD_UPPER_NIB_MASK;
 293:Generated_Source\PSoC5/CharLCD_I2C.c ****    	LOWER_NIB = (dByte & CharLCD_LOWER_NIB_MASK) << CharLCD_LOWER_NIB_SHIFT;
  39              		.loc 1 293 0
  40 0002 0301     		lsls	r3, r0, #4
 288:Generated_Source\PSoC5/CharLCD_I2C.c ****     uint8 buffer[CharLCD_BUFFER_SIZE], UPPER_NIB, LOWER_NIB;
  41              		.loc 1 288 0
  42 0004 83B0     		sub	sp, sp, #12
  43              		.cfi_def_cfa_offset 32
  44              		.loc 1 293 0
  45 0006 DBB2     		uxtb	r3, r3
 292:Generated_Source\PSoC5/CharLCD_I2C.c ****    	LOWER_NIB = (dByte & CharLCD_LOWER_NIB_MASK) << CharLCD_LOWER_NIB_SHIFT;
  46              		.loc 1 292 0
  47 0008 00F0F000 		and	r0, r0, #240
ARM GAS  C:\Users\mgronber\AppData\Local\Temp\ccMnmAh5.s 			page 7


  48              	.LVL1:
 294:Generated_Source\PSoC5/CharLCD_I2C.c **** 	
 295:Generated_Source\PSoC5/CharLCD_I2C.c **** 	BLH_EH_RWL_RSH = CharLCD_BLH + CharLCD_EH + CharLCD_RSH;
 296:Generated_Source\PSoC5/CharLCD_I2C.c **** 	BLH_EL_RWL_RSH = CharLCD_BLH + CharLCD_RSH;
 297:Generated_Source\PSoC5/CharLCD_I2C.c **** 	
 298:Generated_Source\PSoC5/CharLCD_I2C.c **** 	/* Initialize buffer with packet */
 299:Generated_Source\PSoC5/CharLCD_I2C.c ****    
 300:Generated_Source\PSoC5/CharLCD_I2C.c **** 	buffer[CharLCD_PACKET_0_POS] = UPPER_NIB | BLH_EH_RWL_RSH;
 301:Generated_Source\PSoC5/CharLCD_I2C.c ****     buffer[CharLCD_PACKET_1_POS] = UPPER_NIB | BLH_EL_RWL_RSH;
 302:Generated_Source\PSoC5/CharLCD_I2C.c ****     buffer[CharLCD_PACKET_2_POS] = LOWER_NIB | BLH_EH_RWL_RSH;
  49              		.loc 1 302 0
  50 000c 43F00D07 		orr	r7, r3, #13
 303:Generated_Source\PSoC5/CharLCD_I2C.c ****     buffer[CharLCD_PACKET_3_POS] = LOWER_NIB | BLH_EL_RWL_RSH;
  51              		.loc 1 303 0
  52 0010 43F00905 		orr	r5, r3, #9
 300:Generated_Source\PSoC5/CharLCD_I2C.c ****     buffer[CharLCD_PACKET_1_POS] = UPPER_NIB | BLH_EL_RWL_RSH;
  53              		.loc 1 300 0
  54 0014 40F00D06 		orr	r6, r0, #13
 301:Generated_Source\PSoC5/CharLCD_I2C.c ****     buffer[CharLCD_PACKET_2_POS] = LOWER_NIB | BLH_EH_RWL_RSH;
  55              		.loc 1 301 0
  56 0018 40F00904 		orr	r4, r0, #9
 304:Generated_Source\PSoC5/CharLCD_I2C.c ****     
 305:Generated_Source\PSoC5/CharLCD_I2C.c **** #if(CY_PSOC4)
 306:Generated_Source\PSoC5/CharLCD_I2C.c **** 	
 307:Generated_Source\PSoC5/CharLCD_I2C.c **** 	(void) I2C_CharLCD_I2CMasterWriteBuf(CharLCD_I2C_SLAVE_ADDR, buffer, CharLCD_PACKET_SIZE, \
 308:Generated_Source\PSoC5/CharLCD_I2C.c ****                                   I2C_CharLCD_I2C_MODE_COMPLETE_XFER);
 309:Generated_Source\PSoC5/CharLCD_I2C.c **** 
 310:Generated_Source\PSoC5/CharLCD_I2C.c **** #else    
 311:Generated_Source\PSoC5/CharLCD_I2C.c ****    	
 312:Generated_Source\PSoC5/CharLCD_I2C.c **** 	(void) I2C_CharLCD_MasterWriteBuf(CharLCD_I2C_SLAVE_ADDR, buffer, CharLCD_PACKET_SIZE, \
  57              		.loc 1 312 0
  58 001c 01A9     		add	r1, sp, #4
  59 001e 0422     		movs	r2, #4
  60 0020 0023     		movs	r3, #0
  61              	.LVL2:
  62 0022 2720     		movs	r0, #39
  63              	.LVL3:
 302:Generated_Source\PSoC5/CharLCD_I2C.c ****     buffer[CharLCD_PACKET_3_POS] = LOWER_NIB | BLH_EL_RWL_RSH;
  64              		.loc 1 302 0
  65 0024 8DF80670 		strb	r7, [sp, #6]
 303:Generated_Source\PSoC5/CharLCD_I2C.c ****     
  66              		.loc 1 303 0
  67 0028 8DF80750 		strb	r5, [sp, #7]
 300:Generated_Source\PSoC5/CharLCD_I2C.c ****     buffer[CharLCD_PACKET_1_POS] = UPPER_NIB | BLH_EL_RWL_RSH;
  68              		.loc 1 300 0
  69 002c 8DF80460 		strb	r6, [sp, #4]
 301:Generated_Source\PSoC5/CharLCD_I2C.c ****     buffer[CharLCD_PACKET_2_POS] = LOWER_NIB | BLH_EH_RWL_RSH;
  70              		.loc 1 301 0
  71 0030 8DF80540 		strb	r4, [sp, #5]
  72              		.loc 1 312 0
  73 0034 FFF7FEFF 		bl	I2C_CharLCD_MasterWriteBuf
  74              	.LVL4:
 313:Generated_Source\PSoC5/CharLCD_I2C.c ****                                   I2C_CharLCD_MODE_COMPLETE_XFER);
 314:Generated_Source\PSoC5/CharLCD_I2C.c **** 
 315:Generated_Source\PSoC5/CharLCD_I2C.c **** #endif /*PSOC4*/ 
 316:Generated_Source\PSoC5/CharLCD_I2C.c **** 
 317:Generated_Source\PSoC5/CharLCD_I2C.c **** 	CyDelayUs(CharLCD_DATA_DELAY_US);
ARM GAS  C:\Users\mgronber\AppData\Local\Temp\ccMnmAh5.s 			page 8


  75              		.loc 1 317 0
  76 0038 4FF4FA70 		mov	r0, #500
  77 003c FFF7FEFF 		bl	CyDelayUs
  78              	.LVL5:
 318:Generated_Source\PSoC5/CharLCD_I2C.c **** }
  79              		.loc 1 318 0
  80 0040 03B0     		add	sp, sp, #12
  81              		.cfi_def_cfa_offset 20
  82              		@ sp needed
  83 0042 F0BD     		pop	{r4, r5, r6, r7, pc}
  84              		.cfi_endproc
  85              	.LFE7:
  86              		.size	CharLCD_WriteData, .-CharLCD_WriteData
  87              		.section	.text.CharLCD_PrintString,"ax",%progbits
  88              		.align	2
  89              		.global	CharLCD_PrintString
  90              		.thumb
  91              		.thumb_func
  92              		.type	CharLCD_PrintString, %function
  93              	CharLCD_PrintString:
  94              	.LFB5:
 238:Generated_Source\PSoC5/CharLCD_I2C.c ****     uint8 indexU8 = 1u;
  95              		.loc 1 238 0
  96              		.cfi_startproc
  97              		@ args = 0, pretend = 0, frame = 0
  98              		@ frame_needed = 0, uses_anonymous_args = 0
  99              	.LVL6:
 100 0000 38B5     		push	{r3, r4, r5, lr}
 101              		.cfi_def_cfa_offset 16
 102              		.cfi_offset 3, -16
 103              		.cfi_offset 4, -12
 104              		.cfi_offset 5, -8
 105              		.cfi_offset 14, -4
 238:Generated_Source\PSoC5/CharLCD_I2C.c ****     uint8 indexU8 = 1u;
 106              		.loc 1 238 0
 107 0002 0546     		mov	r5, r0
 240:Generated_Source\PSoC5/CharLCD_I2C.c **** 
 108              		.loc 1 240 0
 109 0004 0078     		ldrb	r0, [r0]	@ zero_extendqisi2
 110              	.LVL7:
 243:Generated_Source\PSoC5/CharLCD_I2C.c ****     {
 111              		.loc 1 243 0
 112 0006 38B1     		cbz	r0, .L3
 113 0008 0124     		movs	r4, #1
 114              	.LVL8:
 115              	.L5:
 245:Generated_Source\PSoC5/CharLCD_I2C.c ****         current = string[indexU8];
 116              		.loc 1 245 0
 117 000a FFF7FEFF 		bl	CharLCD_WriteData
 118              	.LVL9:
 246:Generated_Source\PSoC5/CharLCD_I2C.c ****         indexU8++;
 119              		.loc 1 246 0
 120 000e 285D     		ldrb	r0, [r5, r4]	@ zero_extendqisi2
 121              	.LVL10:
 247:Generated_Source\PSoC5/CharLCD_I2C.c ****     }
 122              		.loc 1 247 0
 123 0010 0134     		adds	r4, r4, #1
ARM GAS  C:\Users\mgronber\AppData\Local\Temp\ccMnmAh5.s 			page 9


 124              	.LVL11:
 125 0012 E4B2     		uxtb	r4, r4
 126              	.LVL12:
 243:Generated_Source\PSoC5/CharLCD_I2C.c ****     {
 127              		.loc 1 243 0
 128 0014 0028     		cmp	r0, #0
 129 0016 F8D1     		bne	.L5
 130              	.LVL13:
 131              	.L3:
 132 0018 38BD     		pop	{r3, r4, r5, pc}
 133              		.cfi_endproc
 134              	.LFE5:
 135              		.size	CharLCD_PrintString, .-CharLCD_PrintString
 136 001a 00BF     		.section	.text.CharLCD_PutChar,"ax",%progbits
 137              		.align	2
 138              		.global	CharLCD_PutChar
 139              		.thumb
 140              		.thumb_func
 141              		.type	CharLCD_PutChar, %function
 142              	CharLCD_PutChar:
 143              	.LFB6:
 269:Generated_Source\PSoC5/CharLCD_I2C.c ****     CharLCD_WriteData((uint8)character);
 144              		.loc 1 269 0
 145              		.cfi_startproc
 146              		@ args = 0, pretend = 0, frame = 0
 147              		@ frame_needed = 0, uses_anonymous_args = 0
 148              		@ link register save eliminated.
 149              	.LVL14:
 270:Generated_Source\PSoC5/CharLCD_I2C.c **** }
 150              		.loc 1 270 0
 151 0000 FFF7FEBF 		b	CharLCD_WriteData
 152              	.LVL15:
 153              		.cfi_endproc
 154              	.LFE6:
 155              		.size	CharLCD_PutChar, .-CharLCD_PutChar
 156              		.section	.text.CharLCD_WriteControl,"ax",%progbits
 157              		.align	2
 158              		.global	CharLCD_WriteControl
 159              		.thumb
 160              		.thumb_func
 161              		.type	CharLCD_WriteControl, %function
 162              	CharLCD_WriteControl:
 163              	.LFB8:
 319:Generated_Source\PSoC5/CharLCD_I2C.c **** 
 320:Generated_Source\PSoC5/CharLCD_I2C.c **** /*******************************************************************************
 321:Generated_Source\PSoC5/CharLCD_I2C.c **** *  Function Name: CharLCD_WriteControl
 322:Generated_Source\PSoC5/CharLCD_I2C.c **** ********************************************************************************
 323:Generated_Source\PSoC5/CharLCD_I2C.c **** *
 324:Generated_Source\PSoC5/CharLCD_I2C.c **** * Summary:
 325:Generated_Source\PSoC5/CharLCD_I2C.c **** *   Writes a CONTROL Command to the LCD by sending the Upper Nibble and
 326:Generated_Source\PSoC5/CharLCD_I2C.c **** *   the Lower Nibble twice, once with the E input High and once with the 
 327:Generated_Source\PSoC5/CharLCD_I2C.c **** *	E input Low with the the RS and the RW input held Low while the
 328:Generated_Source\PSoC5/CharLCD_I2C.c **** *	K input or Back Light (BL) input is held High.
 329:Generated_Source\PSoC5/CharLCD_I2C.c **** *
 330:Generated_Source\PSoC5/CharLCD_I2C.c **** *******************************************************************************/	
 331:Generated_Source\PSoC5/CharLCD_I2C.c **** 
 332:Generated_Source\PSoC5/CharLCD_I2C.c **** void CharLCD_WriteControl(uint8 cByte) 
ARM GAS  C:\Users\mgronber\AppData\Local\Temp\ccMnmAh5.s 			page 10


 333:Generated_Source\PSoC5/CharLCD_I2C.c **** {
 164              		.loc 1 333 0
 165              		.cfi_startproc
 166              		@ args = 0, pretend = 0, frame = 8
 167              		@ frame_needed = 0, uses_anonymous_args = 0
 168              	.LVL16:
 169 0000 F0B5     		push	{r4, r5, r6, r7, lr}
 170              		.cfi_def_cfa_offset 20
 171              		.cfi_offset 4, -20
 172              		.cfi_offset 5, -16
 173              		.cfi_offset 6, -12
 174              		.cfi_offset 7, -8
 175              		.cfi_offset 14, -4
 334:Generated_Source\PSoC5/CharLCD_I2C.c ****     uint8 buffer[CharLCD_BUFFER_SIZE], UPPER_NIB, LOWER_NIB;
 335:Generated_Source\PSoC5/CharLCD_I2C.c **** 	uint8 BLH_EH_RWL_RSL, BLH_EL_RWL_RSL;
 336:Generated_Source\PSoC5/CharLCD_I2C.c **** 	
 337:Generated_Source\PSoC5/CharLCD_I2C.c **** 	UPPER_NIB = cByte & CharLCD_UPPER_NIB_MASK;
 338:Generated_Source\PSoC5/CharLCD_I2C.c ****    	LOWER_NIB = (cByte & CharLCD_LOWER_NIB_MASK) << CharLCD_LOWER_NIB_SHIFT;
 176              		.loc 1 338 0
 177 0002 0301     		lsls	r3, r0, #4
 333:Generated_Source\PSoC5/CharLCD_I2C.c ****     uint8 buffer[CharLCD_BUFFER_SIZE], UPPER_NIB, LOWER_NIB;
 178              		.loc 1 333 0
 179 0004 83B0     		sub	sp, sp, #12
 180              		.cfi_def_cfa_offset 32
 181              		.loc 1 338 0
 182 0006 DBB2     		uxtb	r3, r3
 337:Generated_Source\PSoC5/CharLCD_I2C.c ****    	LOWER_NIB = (cByte & CharLCD_LOWER_NIB_MASK) << CharLCD_LOWER_NIB_SHIFT;
 183              		.loc 1 337 0
 184 0008 00F0F000 		and	r0, r0, #240
 185              	.LVL17:
 339:Generated_Source\PSoC5/CharLCD_I2C.c **** 	
 340:Generated_Source\PSoC5/CharLCD_I2C.c **** 	BLH_EH_RWL_RSL = CharLCD_BLH + CharLCD_EH;
 341:Generated_Source\PSoC5/CharLCD_I2C.c **** 	BLH_EL_RWL_RSL = CharLCD_BLH;
 342:Generated_Source\PSoC5/CharLCD_I2C.c **** 	
 343:Generated_Source\PSoC5/CharLCD_I2C.c **** 	/* Initialize buffer with packet */
 344:Generated_Source\PSoC5/CharLCD_I2C.c ****    
 345:Generated_Source\PSoC5/CharLCD_I2C.c **** 	buffer[CharLCD_PACKET_0_POS] = UPPER_NIB | BLH_EH_RWL_RSL;
 346:Generated_Source\PSoC5/CharLCD_I2C.c ****     buffer[CharLCD_PACKET_1_POS] = UPPER_NIB | BLH_EL_RWL_RSL;
 347:Generated_Source\PSoC5/CharLCD_I2C.c ****     buffer[CharLCD_PACKET_2_POS] = LOWER_NIB | BLH_EH_RWL_RSL;
 186              		.loc 1 347 0
 187 000c 43F00C07 		orr	r7, r3, #12
 348:Generated_Source\PSoC5/CharLCD_I2C.c ****     buffer[CharLCD_PACKET_3_POS] = LOWER_NIB | BLH_EL_RWL_RSL;
 188              		.loc 1 348 0
 189 0010 43F00805 		orr	r5, r3, #8
 345:Generated_Source\PSoC5/CharLCD_I2C.c ****     buffer[CharLCD_PACKET_1_POS] = UPPER_NIB | BLH_EL_RWL_RSL;
 190              		.loc 1 345 0
 191 0014 40F00C06 		orr	r6, r0, #12
 346:Generated_Source\PSoC5/CharLCD_I2C.c ****     buffer[CharLCD_PACKET_2_POS] = LOWER_NIB | BLH_EH_RWL_RSL;
 192              		.loc 1 346 0
 193 0018 40F00804 		orr	r4, r0, #8
 349:Generated_Source\PSoC5/CharLCD_I2C.c ****      
 350:Generated_Source\PSoC5/CharLCD_I2C.c **** #if(CY_PSOC4)
 351:Generated_Source\PSoC5/CharLCD_I2C.c **** 	
 352:Generated_Source\PSoC5/CharLCD_I2C.c **** 	(void) I2C_CharLCD_I2CMasterWriteBuf(CharLCD_I2C_SLAVE_ADDR, buffer, CharLCD_PACKET_SIZE, \
 353:Generated_Source\PSoC5/CharLCD_I2C.c ****                                   I2C_CharLCD_I2C_MODE_COMPLETE_XFER);
 354:Generated_Source\PSoC5/CharLCD_I2C.c **** #else    
 355:Generated_Source\PSoC5/CharLCD_I2C.c ****    	
ARM GAS  C:\Users\mgronber\AppData\Local\Temp\ccMnmAh5.s 			page 11


 356:Generated_Source\PSoC5/CharLCD_I2C.c **** 	(void) I2C_CharLCD_MasterWriteBuf(CharLCD_I2C_SLAVE_ADDR, buffer, CharLCD_PACKET_SIZE, \
 194              		.loc 1 356 0
 195 001c 01A9     		add	r1, sp, #4
 196 001e 0422     		movs	r2, #4
 197 0020 0023     		movs	r3, #0
 198              	.LVL18:
 199 0022 2720     		movs	r0, #39
 200              	.LVL19:
 347:Generated_Source\PSoC5/CharLCD_I2C.c ****     buffer[CharLCD_PACKET_3_POS] = LOWER_NIB | BLH_EL_RWL_RSL;
 201              		.loc 1 347 0
 202 0024 8DF80670 		strb	r7, [sp, #6]
 348:Generated_Source\PSoC5/CharLCD_I2C.c ****      
 203              		.loc 1 348 0
 204 0028 8DF80750 		strb	r5, [sp, #7]
 345:Generated_Source\PSoC5/CharLCD_I2C.c ****     buffer[CharLCD_PACKET_1_POS] = UPPER_NIB | BLH_EL_RWL_RSL;
 205              		.loc 1 345 0
 206 002c 8DF80460 		strb	r6, [sp, #4]
 346:Generated_Source\PSoC5/CharLCD_I2C.c ****     buffer[CharLCD_PACKET_2_POS] = LOWER_NIB | BLH_EH_RWL_RSL;
 207              		.loc 1 346 0
 208 0030 8DF80540 		strb	r4, [sp, #5]
 209              		.loc 1 356 0
 210 0034 FFF7FEFF 		bl	I2C_CharLCD_MasterWriteBuf
 211              	.LVL20:
 357:Generated_Source\PSoC5/CharLCD_I2C.c ****                                   I2C_CharLCD_MODE_COMPLETE_XFER);
 358:Generated_Source\PSoC5/CharLCD_I2C.c **** 
 359:Generated_Source\PSoC5/CharLCD_I2C.c **** #endif /*PSOC4*/ 
 360:Generated_Source\PSoC5/CharLCD_I2C.c **** 
 361:Generated_Source\PSoC5/CharLCD_I2C.c **** 	CyDelayUs(CharLCD_CMD_DELAY_US);
 212              		.loc 1 361 0
 213 0038 4FF4FA60 		mov	r0, #2000
 214 003c FFF7FEFF 		bl	CyDelayUs
 215              	.LVL21:
 362:Generated_Source\PSoC5/CharLCD_I2C.c **** }
 216              		.loc 1 362 0
 217 0040 03B0     		add	sp, sp, #12
 218              		.cfi_def_cfa_offset 20
 219              		@ sp needed
 220 0042 F0BD     		pop	{r4, r5, r6, r7, pc}
 221              		.cfi_endproc
 222              	.LFE8:
 223              		.size	CharLCD_WriteControl, .-CharLCD_WriteControl
 224              		.section	.text.CharLCD_Enable,"ax",%progbits
 225              		.align	2
 226              		.global	CharLCD_Enable
 227              		.thumb
 228              		.thumb_func
 229              		.type	CharLCD_Enable, %function
 230              	CharLCD_Enable:
 231              	.LFB1:
 109:Generated_Source\PSoC5/CharLCD_I2C.c ****     CharLCD_DisplayOn();
 232              		.loc 1 109 0
 233              		.cfi_startproc
 234              		@ args = 0, pretend = 0, frame = 0
 235              		@ frame_needed = 0, uses_anonymous_args = 0
 236 0000 08B5     		push	{r3, lr}
 237              		.cfi_def_cfa_offset 8
 238              		.cfi_offset 3, -8
ARM GAS  C:\Users\mgronber\AppData\Local\Temp\ccMnmAh5.s 			page 12


 239              		.cfi_offset 14, -4
 110:Generated_Source\PSoC5/CharLCD_I2C.c ****     CharLCD_enableState = 1u;
 240              		.loc 1 110 0
 241 0002 0C20     		movs	r0, #12
 242 0004 FFF7FEFF 		bl	CharLCD_WriteControl
 243              	.LVL22:
 111:Generated_Source\PSoC5/CharLCD_I2C.c **** }
 244              		.loc 1 111 0
 245 0008 014B     		ldr	r3, .L15
 246 000a 0122     		movs	r2, #1
 247 000c 1A70     		strb	r2, [r3]
 248 000e 08BD     		pop	{r3, pc}
 249              	.L16:
 250              		.align	2
 251              	.L15:
 252 0010 00000000 		.word	.LANCHOR0
 253              		.cfi_endproc
 254              	.LFE1:
 255              		.size	CharLCD_Enable, .-CharLCD_Enable
 256              		.section	.text.CharLCD_Stop,"ax",%progbits
 257              		.align	2
 258              		.global	CharLCD_Stop
 259              		.thumb
 260              		.thumb_func
 261              		.type	CharLCD_Stop, %function
 262              	CharLCD_Stop:
 263              	.LFB3:
 173:Generated_Source\PSoC5/CharLCD_I2C.c ****     /* Calls LCD Off Macro */
 264              		.loc 1 173 0
 265              		.cfi_startproc
 266              		@ args = 0, pretend = 0, frame = 0
 267              		@ frame_needed = 0, uses_anonymous_args = 0
 268 0000 08B5     		push	{r3, lr}
 269              		.cfi_def_cfa_offset 8
 270              		.cfi_offset 3, -8
 271              		.cfi_offset 14, -4
 175:Generated_Source\PSoC5/CharLCD_I2C.c ****     CharLCD_enableState = 0u;
 272              		.loc 1 175 0
 273 0002 0820     		movs	r0, #8
 274 0004 FFF7FEFF 		bl	CharLCD_WriteControl
 275              	.LVL23:
 176:Generated_Source\PSoC5/CharLCD_I2C.c **** }
 276              		.loc 1 176 0
 277 0008 014B     		ldr	r3, .L19
 278 000a 0022     		movs	r2, #0
 279 000c 1A70     		strb	r2, [r3]
 280 000e 08BD     		pop	{r3, pc}
 281              	.L20:
 282              		.align	2
 283              	.L19:
 284 0010 00000000 		.word	.LANCHOR0
 285              		.cfi_endproc
 286              	.LFE3:
 287              		.size	CharLCD_Stop, .-CharLCD_Stop
 288              		.section	.text.CharLCD_Position,"ax",%progbits
 289              		.align	2
 290              		.global	CharLCD_Position
ARM GAS  C:\Users\mgronber\AppData\Local\Temp\ccMnmAh5.s 			page 13


 291              		.thumb
 292              		.thumb_func
 293              		.type	CharLCD_Position, %function
 294              	CharLCD_Position:
 295              	.LFB4:
 201:Generated_Source\PSoC5/CharLCD_I2C.c ****     switch (row)
 296              		.loc 1 201 0
 297              		.cfi_startproc
 298              		@ args = 0, pretend = 0, frame = 0
 299              		@ frame_needed = 0, uses_anonymous_args = 0
 300              		@ link register save eliminated.
 301              	.LVL24:
 202:Generated_Source\PSoC5/CharLCD_I2C.c ****     {
 302              		.loc 1 202 0
 303 0000 0328     		cmp	r0, #3
 304 0002 16D8     		bhi	.L21
 305 0004 DFE800F0 		tbb	[pc, r0]
 306              	.L24:
 307 0008 11       		.byte	(.L23-.L24)/2
 308 0009 0C       		.byte	(.L25-.L24)/2
 309 000a 07       		.byte	(.L26-.L24)/2
 310 000b 02       		.byte	(.L27-.L24)/2
 311              		.p2align 1
 312              	.L27:
 214:Generated_Source\PSoC5/CharLCD_I2C.c ****             break;
 313              		.loc 1 214 0
 314 000c A1F12C00 		sub	r0, r1, #44
 315              	.LVL25:
 316 0010 C0B2     		uxtb	r0, r0
 317 0012 FFF7FEBF 		b	CharLCD_WriteControl
 318              	.LVL26:
 319              	.L26:
 211:Generated_Source\PSoC5/CharLCD_I2C.c ****             break;
 320              		.loc 1 211 0
 321 0016 A1F16C00 		sub	r0, r1, #108
 322              	.LVL27:
 323 001a C0B2     		uxtb	r0, r0
 324 001c FFF7FEBF 		b	CharLCD_WriteControl
 325              	.LVL28:
 326              	.L25:
 208:Generated_Source\PSoC5/CharLCD_I2C.c ****             break;
 327              		.loc 1 208 0
 328 0020 A1F14000 		sub	r0, r1, #64
 329              	.LVL29:
 330 0024 C0B2     		uxtb	r0, r0
 331 0026 FFF7FEBF 		b	CharLCD_WriteControl
 332              	.LVL30:
 333              	.L23:
 205:Generated_Source\PSoC5/CharLCD_I2C.c ****             break;
 334              		.loc 1 205 0
 335 002a 81F08000 		eor	r0, r1, #128
 336              	.LVL31:
 337 002e FFF7FEBF 		b	CharLCD_WriteControl
 338              	.LVL32:
 339              	.L21:
 340 0032 7047     		bx	lr
 341              		.cfi_endproc
ARM GAS  C:\Users\mgronber\AppData\Local\Temp\ccMnmAh5.s 			page 14


 342              	.LFE4:
 343              		.size	CharLCD_Position, .-CharLCD_Position
 344              		.section	.text.CharLCD_WrtCntrlUpNib,"ax",%progbits
 345              		.align	2
 346              		.global	CharLCD_WrtCntrlUpNib
 347              		.thumb
 348              		.thumb_func
 349              		.type	CharLCD_WrtCntrlUpNib, %function
 350              	CharLCD_WrtCntrlUpNib:
 351              	.LFB9:
 363:Generated_Source\PSoC5/CharLCD_I2C.c **** 
 364:Generated_Source\PSoC5/CharLCD_I2C.c **** /*******************************************************************************
 365:Generated_Source\PSoC5/CharLCD_I2C.c **** *  Function Name: CharLCD_WrtCntrlUpNib
 366:Generated_Source\PSoC5/CharLCD_I2C.c **** ********************************************************************************
 367:Generated_Source\PSoC5/CharLCD_I2C.c **** *
 368:Generated_Source\PSoC5/CharLCD_I2C.c **** * Summary:
 369:Generated_Source\PSoC5/CharLCD_I2C.c **** *   Writes a CONTROL Command to the LCD by sending only the UPPER NIBBLE twice,
 370:Generated_Source\PSoC5/CharLCD_I2C.c **** *	once with the E input High and once with the E input Low with the RS input 
 371:Generated_Source\PSoC5/CharLCD_I2C.c **** *	and RW input held Low while the K input or Back Light (BL) input is held High.
 372:Generated_Source\PSoC5/CharLCD_I2C.c **** *
 373:Generated_Source\PSoC5/CharLCD_I2C.c **** *******************************************************************************/
 374:Generated_Source\PSoC5/CharLCD_I2C.c **** void CharLCD_WrtCntrlUpNib(uint8 cByte) 
 375:Generated_Source\PSoC5/CharLCD_I2C.c **** {
 352              		.loc 1 375 0
 353              		.cfi_startproc
 354              		@ args = 0, pretend = 0, frame = 8
 355              		@ frame_needed = 0, uses_anonymous_args = 0
 356              	.LVL33:
 357 0000 30B5     		push	{r4, r5, lr}
 358              		.cfi_def_cfa_offset 12
 359              		.cfi_offset 4, -12
 360              		.cfi_offset 5, -8
 361              		.cfi_offset 14, -4
 376:Generated_Source\PSoC5/CharLCD_I2C.c ****     uint8 buffer[CharLCD_UPPER_NIB_BUFFER_SIZE], UPPER_NIB;
 377:Generated_Source\PSoC5/CharLCD_I2C.c **** 	uint8 BLH_EH_RWL_RSL, BLH_EL_RWL_RSL;
 378:Generated_Source\PSoC5/CharLCD_I2C.c **** 	
 379:Generated_Source\PSoC5/CharLCD_I2C.c **** 	UPPER_NIB = cByte & CharLCD_UPPER_NIB_MASK;
 362              		.loc 1 379 0
 363 0002 00F0F000 		and	r0, r0, #240
 364              	.LVL34:
 375:Generated_Source\PSoC5/CharLCD_I2C.c ****     uint8 buffer[CharLCD_UPPER_NIB_BUFFER_SIZE], UPPER_NIB;
 365              		.loc 1 375 0
 366 0006 83B0     		sub	sp, sp, #12
 367              		.cfi_def_cfa_offset 24
 380:Generated_Source\PSoC5/CharLCD_I2C.c **** 	
 381:Generated_Source\PSoC5/CharLCD_I2C.c **** 	BLH_EH_RWL_RSL = CharLCD_BLH + CharLCD_EH;
 382:Generated_Source\PSoC5/CharLCD_I2C.c **** 	BLH_EL_RWL_RSL = CharLCD_BLH;
 383:Generated_Source\PSoC5/CharLCD_I2C.c **** 	
 384:Generated_Source\PSoC5/CharLCD_I2C.c **** 	/* Initialize buffer with packet */
 385:Generated_Source\PSoC5/CharLCD_I2C.c ****    
 386:Generated_Source\PSoC5/CharLCD_I2C.c **** 	buffer[CharLCD_PACKET_0_POS] = UPPER_NIB | BLH_EH_RWL_RSL;
 368              		.loc 1 386 0
 369 0008 40F00C05 		orr	r5, r0, #12
 387:Generated_Source\PSoC5/CharLCD_I2C.c ****     buffer[CharLCD_PACKET_1_POS] = UPPER_NIB | BLH_EL_RWL_RSL;
 370              		.loc 1 387 0
 371 000c 40F00804 		orr	r4, r0, #8
 388:Generated_Source\PSoC5/CharLCD_I2C.c ****      
ARM GAS  C:\Users\mgronber\AppData\Local\Temp\ccMnmAh5.s 			page 15


 389:Generated_Source\PSoC5/CharLCD_I2C.c **** #if(CY_PSOC4)
 390:Generated_Source\PSoC5/CharLCD_I2C.c **** 	
 391:Generated_Source\PSoC5/CharLCD_I2C.c **** 	(void) I2C_CharLCD_I2CMasterWriteBuf(CharLCD_I2C_SLAVE_ADDR, buffer, CharLCD_UPPER_NIB_PACKET_SIZE
 392:Generated_Source\PSoC5/CharLCD_I2C.c ****                                   I2C_CharLCD_I2C_MODE_COMPLETE_XFER);
 393:Generated_Source\PSoC5/CharLCD_I2C.c **** 	
 394:Generated_Source\PSoC5/CharLCD_I2C.c **** #else    
 395:Generated_Source\PSoC5/CharLCD_I2C.c ****    	
 396:Generated_Source\PSoC5/CharLCD_I2C.c **** 	(void) I2C_CharLCD_MasterWriteBuf(CharLCD_I2C_SLAVE_ADDR, buffer, CharLCD_UPPER_NIB_PACKET_SIZE, \
 372              		.loc 1 396 0
 373 0010 01A9     		add	r1, sp, #4
 374 0012 0222     		movs	r2, #2
 375 0014 0023     		movs	r3, #0
 376 0016 2720     		movs	r0, #39
 377              	.LVL35:
 386:Generated_Source\PSoC5/CharLCD_I2C.c ****     buffer[CharLCD_PACKET_1_POS] = UPPER_NIB | BLH_EL_RWL_RSL;
 378              		.loc 1 386 0
 379 0018 8DF80450 		strb	r5, [sp, #4]
 387:Generated_Source\PSoC5/CharLCD_I2C.c ****     buffer[CharLCD_PACKET_1_POS] = UPPER_NIB | BLH_EL_RWL_RSL;
 380              		.loc 1 387 0
 381 001c 8DF80540 		strb	r4, [sp, #5]
 382              		.loc 1 396 0
 383 0020 FFF7FEFF 		bl	I2C_CharLCD_MasterWriteBuf
 384              	.LVL36:
 397:Generated_Source\PSoC5/CharLCD_I2C.c ****                                   I2C_CharLCD_MODE_COMPLETE_XFER);
 398:Generated_Source\PSoC5/CharLCD_I2C.c **** 
 399:Generated_Source\PSoC5/CharLCD_I2C.c **** #endif /*PSOC4*/ 
 400:Generated_Source\PSoC5/CharLCD_I2C.c **** 	
 401:Generated_Source\PSoC5/CharLCD_I2C.c **** 	CyDelayUs(CharLCD_CMD_DELAY_US);
 385              		.loc 1 401 0
 386 0024 4FF4FA60 		mov	r0, #2000
 387 0028 FFF7FEFF 		bl	CyDelayUs
 388              	.LVL37:
 402:Generated_Source\PSoC5/CharLCD_I2C.c **** 
 403:Generated_Source\PSoC5/CharLCD_I2C.c **** }
 389              		.loc 1 403 0
 390 002c 03B0     		add	sp, sp, #12
 391              		.cfi_def_cfa_offset 12
 392              		@ sp needed
 393 002e 30BD     		pop	{r4, r5, pc}
 394              		.cfi_endproc
 395              	.LFE9:
 396              		.size	CharLCD_WrtCntrlUpNib, .-CharLCD_WrtCntrlUpNib
 397              		.section	.text.CharLCD_Init,"ax",%progbits
 398              		.align	2
 399              		.global	CharLCD_Init
 400              		.thumb
 401              		.thumb_func
 402              		.type	CharLCD_Init, %function
 403              	CharLCD_Init:
 404              	.LFB0:
  60:Generated_Source\PSoC5/CharLCD_I2C.c ****     /* INIT CODE */
 405              		.loc 1 60 0
 406              		.cfi_startproc
 407              		@ args = 0, pretend = 0, frame = 0
 408              		@ frame_needed = 0, uses_anonymous_args = 0
 409 0000 08B5     		push	{r3, lr}
 410              		.cfi_def_cfa_offset 8
ARM GAS  C:\Users\mgronber\AppData\Local\Temp\ccMnmAh5.s 			page 16


 411              		.cfi_offset 3, -8
 412              		.cfi_offset 14, -4
  62:Generated_Source\PSoC5/CharLCD_I2C.c ****     CharLCD_WrtCntrlUpNib(CharLCD_DISPLAY_8_BIT_INIT);   	/* Selects 8-bit mode */
 413              		.loc 1 62 0
 414 0002 1420     		movs	r0, #20
 415 0004 FFF7FEFF 		bl	CyDelay
 416              	.LVL38:
  63:Generated_Source\PSoC5/CharLCD_I2C.c ****     CyDelay(CharLCD_INIT_UP_NIB_DELAY);								/* Delay 5 ms */
 417              		.loc 1 63 0
 418 0008 3820     		movs	r0, #56
 419 000a FFF7FEFF 		bl	CharLCD_WrtCntrlUpNib
 420              	.LVL39:
  64:Generated_Source\PSoC5/CharLCD_I2C.c **** 	CharLCD_WrtCntrlUpNib(CharLCD_DISPLAY_8_BIT_INIT);  	/* Selects 8-bit mode */
 421              		.loc 1 64 0
 422 000e 0520     		movs	r0, #5
 423 0010 FFF7FEFF 		bl	CyDelay
 424              	.LVL40:
  65:Generated_Source\PSoC5/CharLCD_I2C.c ****     CyDelay(CharLCD_INIT_UP_NIB_DELAY);								/* Delay 5 ms */
 425              		.loc 1 65 0
 426 0014 3820     		movs	r0, #56
 427 0016 FFF7FEFF 		bl	CharLCD_WrtCntrlUpNib
 428              	.LVL41:
  66:Generated_Source\PSoC5/CharLCD_I2C.c **** 	CharLCD_WrtCntrlUpNib(CharLCD_DISPLAY_8_BIT_INIT);  	/* Selects 8-bit mode */
 429              		.loc 1 66 0
 430 001a 0520     		movs	r0, #5
 431 001c FFF7FEFF 		bl	CyDelay
 432              	.LVL42:
  67:Generated_Source\PSoC5/CharLCD_I2C.c **** 	CyDelay(CharLCD_INIT_UP_NIB_DELAY);								/* Delay 5 ms */
 433              		.loc 1 67 0
 434 0020 3820     		movs	r0, #56
 435 0022 FFF7FEFF 		bl	CharLCD_WrtCntrlUpNib
 436              	.LVL43:
  68:Generated_Source\PSoC5/CharLCD_I2C.c **** 	CharLCD_WrtCntrlUpNib(CharLCD_DISPLAY_4_BIT_INIT);   	/* Selects 4-bit mode */
 437              		.loc 1 68 0
 438 0026 0520     		movs	r0, #5
 439 0028 FFF7FEFF 		bl	CyDelay
 440              	.LVL44:
  69:Generated_Source\PSoC5/CharLCD_I2C.c **** 	CyDelay(CharLCD_INIT_UP_NIB_DELAY);								/* Delay 5 ms */
 441              		.loc 1 69 0
 442 002c 2820     		movs	r0, #40
 443 002e FFF7FEFF 		bl	CharLCD_WrtCntrlUpNib
 444              	.LVL45:
  70:Generated_Source\PSoC5/CharLCD_I2C.c **** 
 445              		.loc 1 70 0
 446 0032 0520     		movs	r0, #5
 447 0034 FFF7FEFF 		bl	CyDelay
 448              	.LVL46:
  72:Generated_Source\PSoC5/CharLCD_I2C.c **** 	CyDelay(CharLCD_INIT_CMD_DELAY);								/* Delay 5 ms */
 449              		.loc 1 72 0
 450 0038 2820     		movs	r0, #40
 451 003a FFF7FEFF 		bl	CharLCD_WriteControl
 452              	.LVL47:
  73:Generated_Source\PSoC5/CharLCD_I2C.c ****     CharLCD_WriteControl(CharLCD_CLEAR_DISPLAY);			/* Clear LCD Screen */
 453              		.loc 1 73 0
 454 003e 0520     		movs	r0, #5
 455 0040 FFF7FEFF 		bl	CyDelay
 456              	.LVL48:
ARM GAS  C:\Users\mgronber\AppData\Local\Temp\ccMnmAh5.s 			page 17


  74:Generated_Source\PSoC5/CharLCD_I2C.c **** 	CyDelay(CharLCD_INIT_CMD_DELAY);								/* Delay 5 ms */
 457              		.loc 1 74 0
 458 0044 0120     		movs	r0, #1
 459 0046 FFF7FEFF 		bl	CharLCD_WriteControl
 460              	.LVL49:
  75:Generated_Source\PSoC5/CharLCD_I2C.c ****     CharLCD_WriteControl(CharLCD_CURSOR_AUTO_INCR_ON);		/* Incr Cursor One Space to Right After Wri
 461              		.loc 1 75 0
 462 004a 0520     		movs	r0, #5
 463 004c FFF7FEFF 		bl	CyDelay
 464              	.LVL50:
  76:Generated_Source\PSoC5/CharLCD_I2C.c **** 	CyDelay(CharLCD_INIT_CMD_DELAY);								/* Delay 5 ms */
 465              		.loc 1 76 0
 466 0050 0620     		movs	r0, #6
 467 0052 FFF7FEFF 		bl	CharLCD_WriteControl
 468              	.LVL51:
  77:Generated_Source\PSoC5/CharLCD_I2C.c **** 	CharLCD_WriteControl(CharLCD_DISPLAY_ON_CURSOR_OFF);	/* Display ON Cursor OFF */
 469              		.loc 1 77 0
 470 0056 0520     		movs	r0, #5
 471 0058 FFF7FEFF 		bl	CyDelay
 472              	.LVL52:
  78:Generated_Source\PSoC5/CharLCD_I2C.c ****  	CyDelay(CharLCD_INIT_CMD_DELAY);								/* Delay 5 ms */  
 473              		.loc 1 78 0
 474 005c 0C20     		movs	r0, #12
 475 005e FFF7FEFF 		bl	CharLCD_WriteControl
 476              	.LVL53:
  84:Generated_Source\PSoC5/CharLCD_I2C.c **** 
 477              		.loc 1 84 0
 478 0062 BDE80840 		pop	{r3, lr}
 479              		.cfi_restore 14
 480              		.cfi_restore 3
 481              		.cfi_def_cfa_offset 0
  79:Generated_Source\PSoC5/CharLCD_I2C.c **** 	
 482              		.loc 1 79 0
 483 0066 0520     		movs	r0, #5
 484 0068 FFF7FEBF 		b	CyDelay
 485              	.LVL54:
 486              		.cfi_endproc
 487              	.LFE0:
 488              		.size	CharLCD_Init, .-CharLCD_Init
 489              		.section	.text.CharLCD_Start,"ax",%progbits
 490              		.align	2
 491              		.global	CharLCD_Start
 492              		.thumb
 493              		.thumb_func
 494              		.type	CharLCD_Start, %function
 495              	CharLCD_Start:
 496              	.LFB2:
 142:Generated_Source\PSoC5/CharLCD_I2C.c ****     /* If not initialized then perform initialization */
 497              		.loc 1 142 0
 498              		.cfi_startproc
 499              		@ args = 0, pretend = 0, frame = 0
 500              		@ frame_needed = 0, uses_anonymous_args = 0
 501 0000 10B5     		push	{r4, lr}
 502              		.cfi_def_cfa_offset 8
 503              		.cfi_offset 4, -8
 504              		.cfi_offset 14, -4
 144:Generated_Source\PSoC5/CharLCD_I2C.c ****     {
ARM GAS  C:\Users\mgronber\AppData\Local\Temp\ccMnmAh5.s 			page 18


 505              		.loc 1 144 0
 506 0002 064C     		ldr	r4, .L35
 507 0004 6378     		ldrb	r3, [r4, #1]	@ zero_extendqisi2
 508 0006 1BB9     		cbnz	r3, .L33
 146:Generated_Source\PSoC5/CharLCD_I2C.c ****         CharLCD_initVar = 1u;
 509              		.loc 1 146 0
 510 0008 FFF7FEFF 		bl	CharLCD_Init
 511              	.LVL55:
 147:Generated_Source\PSoC5/CharLCD_I2C.c ****     }
 512              		.loc 1 147 0
 513 000c 0123     		movs	r3, #1
 514 000e 6370     		strb	r3, [r4, #1]
 515              	.L33:
 516              	.LBB8:
 517              	.LBB9:
 110:Generated_Source\PSoC5/CharLCD_I2C.c ****     CharLCD_enableState = 1u;
 518              		.loc 1 110 0
 519 0010 0C20     		movs	r0, #12
 520 0012 FFF7FEFF 		bl	CharLCD_WriteControl
 521              	.LVL56:
 111:Generated_Source\PSoC5/CharLCD_I2C.c **** }
 522              		.loc 1 111 0
 523 0016 0123     		movs	r3, #1
 524 0018 2370     		strb	r3, [r4]
 525 001a 10BD     		pop	{r4, pc}
 526              	.L36:
 527              		.align	2
 528              	.L35:
 529 001c 00000000 		.word	.LANCHOR0
 530              	.LBE9:
 531              	.LBE8:
 532              		.cfi_endproc
 533              	.LFE2:
 534              		.size	CharLCD_Start, .-CharLCD_Start
 535              		.section	.text.CharLCD_IsReady,"ax",%progbits
 536              		.align	2
 537              		.global	CharLCD_IsReady
 538              		.thumb
 539              		.thumb_func
 540              		.type	CharLCD_IsReady, %function
 541              	CharLCD_IsReady:
 542              	.LFB10:
 404:Generated_Source\PSoC5/CharLCD_I2C.c **** /*******************************************************************************
 405:Generated_Source\PSoC5/CharLCD_I2C.c **** * Function Name: CharLCD_IsReady
 406:Generated_Source\PSoC5/CharLCD_I2C.c **** ********************************************************************************
 407:Generated_Source\PSoC5/CharLCD_I2C.c **** *
 408:Generated_Source\PSoC5/CharLCD_I2C.c **** * Summary:
 409:Generated_Source\PSoC5/CharLCD_I2C.c **** *  Polls LCD until the ready bit is set.
 410:Generated_Source\PSoC5/CharLCD_I2C.c **** *
 411:Generated_Source\PSoC5/CharLCD_I2C.c **** * Parameters:
 412:Generated_Source\PSoC5/CharLCD_I2C.c **** *  None.
 413:Generated_Source\PSoC5/CharLCD_I2C.c **** *
 414:Generated_Source\PSoC5/CharLCD_I2C.c **** * Return:
 415:Generated_Source\PSoC5/CharLCD_I2C.c **** *  None.
 416:Generated_Source\PSoC5/CharLCD_I2C.c **** *
 417:Generated_Source\PSoC5/CharLCD_I2C.c **** * Note:
 418:Generated_Source\PSoC5/CharLCD_I2C.c **** *  Changes pins to High-Z.
ARM GAS  C:\Users\mgronber\AppData\Local\Temp\ccMnmAh5.s 			page 19


 419:Generated_Source\PSoC5/CharLCD_I2C.c **** *
 420:Generated_Source\PSoC5/CharLCD_I2C.c **** *******************************************************************************/
 421:Generated_Source\PSoC5/CharLCD_I2C.c **** void CharLCD_IsReady(void) 
 422:Generated_Source\PSoC5/CharLCD_I2C.c **** {
 543              		.loc 1 422 0
 544              		.cfi_startproc
 545              		@ args = 0, pretend = 0, frame = 0
 546              		@ frame_needed = 0, uses_anonymous_args = 0
 547              		@ link register save eliminated.
 423:Generated_Source\PSoC5/CharLCD_I2C.c ****    
 424:Generated_Source\PSoC5/CharLCD_I2C.c **** 	CyDelay(1u);
 548              		.loc 1 424 0
 549 0000 0120     		movs	r0, #1
 550 0002 FFF7FEBF 		b	CyDelay
 551              	.LVL57:
 552              		.cfi_endproc
 553              	.LFE10:
 554              		.size	CharLCD_IsReady, .-CharLCD_IsReady
 555 0006 00BF     		.section	.text.CharLCD_PrintInt8,"ax",%progbits
 556              		.align	2
 557              		.global	CharLCD_PrintInt8
 558              		.thumb
 559              		.thumb_func
 560              		.type	CharLCD_PrintInt8, %function
 561              	CharLCD_PrintInt8:
 562              	.LFB11:
 425:Generated_Source\PSoC5/CharLCD_I2C.c **** 	
 426:Generated_Source\PSoC5/CharLCD_I2C.c **** }
 427:Generated_Source\PSoC5/CharLCD_I2C.c **** 
 428:Generated_Source\PSoC5/CharLCD_I2C.c **** #if(CharLCD_CONVERSION_ROUTINES == 1u)
 429:Generated_Source\PSoC5/CharLCD_I2C.c **** 
 430:Generated_Source\PSoC5/CharLCD_I2C.c ****     /*******************************************************************************
 431:Generated_Source\PSoC5/CharLCD_I2C.c ****     *  Function Name: CharLCD_PrintInt8
 432:Generated_Source\PSoC5/CharLCD_I2C.c ****     ********************************************************************************
 433:Generated_Source\PSoC5/CharLCD_I2C.c ****     *
 434:Generated_Source\PSoC5/CharLCD_I2C.c ****     * Summary:
 435:Generated_Source\PSoC5/CharLCD_I2C.c ****     *  Print a byte as two ASCII characters.
 436:Generated_Source\PSoC5/CharLCD_I2C.c ****     *
 437:Generated_Source\PSoC5/CharLCD_I2C.c ****     * Parameters:
 438:Generated_Source\PSoC5/CharLCD_I2C.c ****     *  value:  The byte to be printed out as ASCII characters.
 439:Generated_Source\PSoC5/CharLCD_I2C.c ****     *
 440:Generated_Source\PSoC5/CharLCD_I2C.c ****     * Return:
 441:Generated_Source\PSoC5/CharLCD_I2C.c ****     *  None.
 442:Generated_Source\PSoC5/CharLCD_I2C.c ****     *
 443:Generated_Source\PSoC5/CharLCD_I2C.c ****     *******************************************************************************/
 444:Generated_Source\PSoC5/CharLCD_I2C.c ****     void CharLCD_PrintInt8(uint8 value) 
 445:Generated_Source\PSoC5/CharLCD_I2C.c ****     {
 563              		.loc 1 445 0
 564              		.cfi_startproc
 565              		@ args = 0, pretend = 0, frame = 0
 566              		@ frame_needed = 0, uses_anonymous_args = 0
 567              	.LVL58:
 568 0000 38B5     		push	{r3, r4, r5, lr}
 569              		.cfi_def_cfa_offset 16
 570              		.cfi_offset 3, -16
 571              		.cfi_offset 4, -12
 572              		.cfi_offset 5, -8
ARM GAS  C:\Users\mgronber\AppData\Local\Temp\ccMnmAh5.s 			page 20


 573              		.cfi_offset 14, -4
 574              		.loc 1 445 0
 575 0002 0446     		mov	r4, r0
 576              	.LVL59:
 446:Generated_Source\PSoC5/CharLCD_I2C.c ****         static char8 const CYCODE CharLCD_hex[16u] = "0123456789ABCDEF";
 447:Generated_Source\PSoC5/CharLCD_I2C.c ****         
 448:Generated_Source\PSoC5/CharLCD_I2C.c ****         CharLCD_PutChar((char8) CharLCD_hex[value >> CharLCD_BYTE_UPPER_NIBBLE_SHIFT]);
 577              		.loc 1 448 0
 578 0004 054D     		ldr	r5, .L40
 579 0006 0309     		lsrs	r3, r0, #4
 580              	.LBB10:
 581              	.LBB11:
 270:Generated_Source\PSoC5/CharLCD_I2C.c **** }
 582              		.loc 1 270 0
 583 0008 E85C     		ldrb	r0, [r5, r3]	@ zero_extendqisi2
 584              	.LVL60:
 585              	.LBE11:
 586              	.LBE10:
 449:Generated_Source\PSoC5/CharLCD_I2C.c ****         CharLCD_PutChar((char8) CharLCD_hex[value & CharLCD_BYTE_LOWER_NIBBLE_MASK]);
 587              		.loc 1 449 0
 588 000a 04F00F04 		and	r4, r4, #15
 589              	.LBB13:
 590              	.LBB12:
 270:Generated_Source\PSoC5/CharLCD_I2C.c **** }
 591              		.loc 1 270 0
 592 000e FFF7FEFF 		bl	CharLCD_WriteData
 593              	.LVL61:
 594              	.LBE12:
 595              	.LBE13:
 596              	.LBB14:
 597              	.LBB15:
 598 0012 285D     		ldrb	r0, [r5, r4]	@ zero_extendqisi2
 599              	.LBE15:
 600              	.LBE14:
 450:Generated_Source\PSoC5/CharLCD_I2C.c ****     }
 601              		.loc 1 450 0
 602 0014 BDE83840 		pop	{r3, r4, r5, lr}
 603              		.cfi_restore 14
 604              		.cfi_restore 5
 605              		.cfi_restore 4
 606              		.cfi_restore 3
 607              		.cfi_def_cfa_offset 0
 608              	.LBB17:
 609              	.LBB16:
 270:Generated_Source\PSoC5/CharLCD_I2C.c **** }
 610              		.loc 1 270 0
 611 0018 FFF7FEBF 		b	CharLCD_WriteData
 612              	.LVL62:
 613              	.L41:
 614              		.align	2
 615              	.L40:
 616 001c 00000000 		.word	.LANCHOR1
 617              	.LBE16:
 618              	.LBE17:
 619              		.cfi_endproc
 620              	.LFE11:
 621              		.size	CharLCD_PrintInt8, .-CharLCD_PrintInt8
ARM GAS  C:\Users\mgronber\AppData\Local\Temp\ccMnmAh5.s 			page 21


 622              		.section	.text.CharLCD_PrintInt16,"ax",%progbits
 623              		.align	2
 624              		.global	CharLCD_PrintInt16
 625              		.thumb
 626              		.thumb_func
 627              		.type	CharLCD_PrintInt16, %function
 628              	CharLCD_PrintInt16:
 629              	.LFB12:
 451:Generated_Source\PSoC5/CharLCD_I2C.c **** 
 452:Generated_Source\PSoC5/CharLCD_I2C.c **** 
 453:Generated_Source\PSoC5/CharLCD_I2C.c ****     /*******************************************************************************
 454:Generated_Source\PSoC5/CharLCD_I2C.c ****     *  Function Name: CharLCD_PrintInt16
 455:Generated_Source\PSoC5/CharLCD_I2C.c ****     ********************************************************************************
 456:Generated_Source\PSoC5/CharLCD_I2C.c ****     *
 457:Generated_Source\PSoC5/CharLCD_I2C.c ****     * Summary:
 458:Generated_Source\PSoC5/CharLCD_I2C.c ****     *  Print a uint16 as four ASCII characters.
 459:Generated_Source\PSoC5/CharLCD_I2C.c ****     *
 460:Generated_Source\PSoC5/CharLCD_I2C.c ****     * Parameters:
 461:Generated_Source\PSoC5/CharLCD_I2C.c ****     *  value:   The uint16 to be printed out as ASCII characters.
 462:Generated_Source\PSoC5/CharLCD_I2C.c ****     *
 463:Generated_Source\PSoC5/CharLCD_I2C.c ****     * Return:
 464:Generated_Source\PSoC5/CharLCD_I2C.c ****     *  None.
 465:Generated_Source\PSoC5/CharLCD_I2C.c ****     *
 466:Generated_Source\PSoC5/CharLCD_I2C.c ****     *******************************************************************************/
 467:Generated_Source\PSoC5/CharLCD_I2C.c ****     void CharLCD_PrintInt16(uint16 value) 
 468:Generated_Source\PSoC5/CharLCD_I2C.c ****     {
 630              		.loc 1 468 0
 631              		.cfi_startproc
 632              		@ args = 0, pretend = 0, frame = 0
 633              		@ frame_needed = 0, uses_anonymous_args = 0
 634              	.LVL63:
 635 0000 10B5     		push	{r4, lr}
 636              		.cfi_def_cfa_offset 8
 637              		.cfi_offset 4, -8
 638              		.cfi_offset 14, -4
 639              		.loc 1 468 0
 640 0002 0446     		mov	r4, r0
 469:Generated_Source\PSoC5/CharLCD_I2C.c ****         CharLCD_PrintInt8((uint8)(value >> CharLCD_U16_UPPER_BYTE_SHIFT));
 641              		.loc 1 469 0
 642 0004 000A     		lsrs	r0, r0, #8
 643              	.LVL64:
 644 0006 FFF7FEFF 		bl	CharLCD_PrintInt8
 645              	.LVL65:
 470:Generated_Source\PSoC5/CharLCD_I2C.c ****         CharLCD_PrintInt8((uint8)(value & CharLCD_U16_LOWER_BYTE_MASK));
 646              		.loc 1 470 0
 647 000a E0B2     		uxtb	r0, r4
 471:Generated_Source\PSoC5/CharLCD_I2C.c ****     }
 648              		.loc 1 471 0
 649 000c BDE81040 		pop	{r4, lr}
 650              		.cfi_restore 14
 651              		.cfi_restore 4
 652              		.cfi_def_cfa_offset 0
 470:Generated_Source\PSoC5/CharLCD_I2C.c ****         CharLCD_PrintInt8((uint8)(value & CharLCD_U16_LOWER_BYTE_MASK));
 653              		.loc 1 470 0
 654 0010 FFF7FEBF 		b	CharLCD_PrintInt8
 655              	.LVL66:
 656              		.cfi_endproc
ARM GAS  C:\Users\mgronber\AppData\Local\Temp\ccMnmAh5.s 			page 22


 657              	.LFE12:
 658              		.size	CharLCD_PrintInt16, .-CharLCD_PrintInt16
 659              		.section	.text.CharLCD_PrintNumber,"ax",%progbits
 660              		.align	2
 661              		.global	CharLCD_PrintNumber
 662              		.thumb
 663              		.thumb_func
 664              		.type	CharLCD_PrintNumber, %function
 665              	CharLCD_PrintNumber:
 666              	.LFB13:
 472:Generated_Source\PSoC5/CharLCD_I2C.c **** 
 473:Generated_Source\PSoC5/CharLCD_I2C.c **** 
 474:Generated_Source\PSoC5/CharLCD_I2C.c ****     /*******************************************************************************
 475:Generated_Source\PSoC5/CharLCD_I2C.c ****     *  Function Name: CharLCD_PrintNumber
 476:Generated_Source\PSoC5/CharLCD_I2C.c ****     ********************************************************************************
 477:Generated_Source\PSoC5/CharLCD_I2C.c ****     *
 478:Generated_Source\PSoC5/CharLCD_I2C.c ****     * Summary:
 479:Generated_Source\PSoC5/CharLCD_I2C.c ****     *  Print an uint32 value as a left-justified decimal value.
 480:Generated_Source\PSoC5/CharLCD_I2C.c ****     *
 481:Generated_Source\PSoC5/CharLCD_I2C.c ****     * Parameters:
 482:Generated_Source\PSoC5/CharLCD_I2C.c ****     *  value:  The byte to be printed out as ASCII characters.
 483:Generated_Source\PSoC5/CharLCD_I2C.c ****     *
 484:Generated_Source\PSoC5/CharLCD_I2C.c ****     * Return:
 485:Generated_Source\PSoC5/CharLCD_I2C.c ****     *  None.
 486:Generated_Source\PSoC5/CharLCD_I2C.c ****     *
 487:Generated_Source\PSoC5/CharLCD_I2C.c ****     *******************************************************************************/
 488:Generated_Source\PSoC5/CharLCD_I2C.c ****     void CharLCD_PrintNumber(uint16 value) 
 489:Generated_Source\PSoC5/CharLCD_I2C.c ****     {
 667              		.loc 1 489 0
 668              		.cfi_startproc
 669              		@ args = 0, pretend = 0, frame = 16
 670              		@ frame_needed = 0, uses_anonymous_args = 0
 671              	.LVL67:
 672 0000 10B5     		push	{r4, lr}
 673              		.cfi_def_cfa_offset 8
 674              		.cfi_offset 4, -8
 675              		.cfi_offset 14, -4
 490:Generated_Source\PSoC5/CharLCD_I2C.c **** 
 491:Generated_Source\PSoC5/CharLCD_I2C.c ****         char8 number[CharLCD_NUMBER_OF_REMAINDERS];
 492:Generated_Source\PSoC5/CharLCD_I2C.c ****         char8 temp[CharLCD_NUMBER_OF_REMAINDERS];
 493:Generated_Source\PSoC5/CharLCD_I2C.c **** 
 494:Generated_Source\PSoC5/CharLCD_I2C.c ****         uint8 digIndex = 0u;
 495:Generated_Source\PSoC5/CharLCD_I2C.c ****         uint8 numDigits;
 496:Generated_Source\PSoC5/CharLCD_I2C.c **** 
 497:Generated_Source\PSoC5/CharLCD_I2C.c ****         /* Load these in reverse order */
 498:Generated_Source\PSoC5/CharLCD_I2C.c ****         while(value >= CharLCD_TEN)
 676              		.loc 1 498 0
 677 0002 0928     		cmp	r0, #9
 489:Generated_Source\PSoC5/CharLCD_I2C.c **** 
 678              		.loc 1 489 0
 679 0004 84B0     		sub	sp, sp, #16
 680              		.cfi_def_cfa_offset 24
 681              		.loc 1 498 0
 682 0006 43D9     		bls	.L45
 499:Generated_Source\PSoC5/CharLCD_I2C.c ****         {
 500:Generated_Source\PSoC5/CharLCD_I2C.c ****             temp[digIndex] = (value % CharLCD_TEN) + '0';
 683              		.loc 1 500 0
ARM GAS  C:\Users\mgronber\AppData\Local\Temp\ccMnmAh5.s 			page 23


 684 0008 2A4C     		ldr	r4, .L57
 498:Generated_Source\PSoC5/CharLCD_I2C.c ****         {
 685              		.loc 1 498 0
 686 000a 0023     		movs	r3, #0
 687              	.LVL68:
 688              	.L46:
 689              		.loc 1 500 0
 690 000c A4FB0021 		umull	r2, r1, r4, r0
 691 0010 C908     		lsrs	r1, r1, #3
 692 0012 01EB8102 		add	r2, r1, r1, lsl #2
 693 0016 A0EB4202 		sub	r2, r0, r2, lsl #1
 501:Generated_Source\PSoC5/CharLCD_I2C.c ****             value /= CharLCD_TEN;
 694              		.loc 1 501 0
 695 001a 88B2     		uxth	r0, r1
 696              	.LVL69:
 500:Generated_Source\PSoC5/CharLCD_I2C.c ****             value /= CharLCD_TEN;
 697              		.loc 1 500 0
 698 001c 04A9     		add	r1, sp, #16
 699 001e 3032     		adds	r2, r2, #48
 700 0020 1944     		add	r1, r1, r3
 498:Generated_Source\PSoC5/CharLCD_I2C.c ****         {
 701              		.loc 1 498 0
 702 0022 0928     		cmp	r0, #9
 502:Generated_Source\PSoC5/CharLCD_I2C.c ****             digIndex++;
 703              		.loc 1 502 0
 704 0024 03F10103 		add	r3, r3, #1
 705              	.LVL70:
 500:Generated_Source\PSoC5/CharLCD_I2C.c ****             value /= CharLCD_TEN;
 706              		.loc 1 500 0
 707 0028 01F8082C 		strb	r2, [r1, #-8]
 708              		.loc 1 502 0
 709 002c DBB2     		uxtb	r3, r3
 710              	.LVL71:
 500:Generated_Source\PSoC5/CharLCD_I2C.c ****             value /= CharLCD_TEN;
 711              		.loc 1 500 0
 712 002e 214A     		ldr	r2, .L57
 498:Generated_Source\PSoC5/CharLCD_I2C.c ****         {
 713              		.loc 1 498 0
 714 0030 ECD8     		bhi	.L46
 503:Generated_Source\PSoC5/CharLCD_I2C.c ****         }
 504:Generated_Source\PSoC5/CharLCD_I2C.c **** 
 505:Generated_Source\PSoC5/CharLCD_I2C.c ****         temp[digIndex] = (value % CharLCD_TEN) + '0';
 715              		.loc 1 505 0
 716 0032 A2FB0012 		umull	r1, r2, r2, r0
 717 0036 D208     		lsrs	r2, r2, #3
 718 0038 02EB8202 		add	r2, r2, r2, lsl #2
 719 003c A0EB4202 		sub	r2, r0, r2, lsl #1
 720 0040 3032     		adds	r2, r2, #48
 721 0042 04A9     		add	r1, sp, #16
 722 0044 D2B2     		uxtb	r2, r2
 723 0046 1944     		add	r1, r1, r3
 724 0048 1C46     		mov	r4, r3
 725 004a 01F8082C 		strb	r2, [r1, #-8]
 726              	.LVL72:
 502:Generated_Source\PSoC5/CharLCD_I2C.c ****         }
 727              		.loc 1 502 0
 728 004e 1846     		mov	r0, r3
ARM GAS  C:\Users\mgronber\AppData\Local\Temp\ccMnmAh5.s 			page 24


 729              	.LVL73:
 506:Generated_Source\PSoC5/CharLCD_I2C.c ****         numDigits = digIndex;
 507:Generated_Source\PSoC5/CharLCD_I2C.c **** 
 508:Generated_Source\PSoC5/CharLCD_I2C.c ****         /* While index is greater than or equal to zero copy number
 509:Generated_Source\PSoC5/CharLCD_I2C.c ****         * from temporary array to number[].
 510:Generated_Source\PSoC5/CharLCD_I2C.c ****         */
 511:Generated_Source\PSoC5/CharLCD_I2C.c ****         while (digIndex != 0u)
 730              		.loc 1 511 0
 731 0050 13B9     		cbnz	r3, .L48
 732 0052 2AE0     		b	.L55
 733              	.LVL74:
 734              	.L56:
 735 0054 12F8082C 		ldrb	r2, [r2, #-8]	@ zero_extendqisi2
 736              	.L48:
 737              	.LVL75:
 512:Generated_Source\PSoC5/CharLCD_I2C.c ****         {
 513:Generated_Source\PSoC5/CharLCD_I2C.c ****             number[numDigits - digIndex] = temp[digIndex];
 738              		.loc 1 513 0
 739 0058 E11A     		subs	r1, r4, r3
 740 005a 0DF1100E 		add	lr, sp, #16
 741 005e 7144     		add	r1, r1, lr
 742 0060 01F8102C 		strb	r2, [r1, #-16]
 743 0064 7246     		mov	r2, lr
 514:Generated_Source\PSoC5/CharLCD_I2C.c ****             digIndex--;
 744              		.loc 1 514 0
 745 0066 013B     		subs	r3, r3, #1
 746              	.LVL76:
 511:Generated_Source\PSoC5/CharLCD_I2C.c ****         {
 747              		.loc 1 511 0
 748 0068 13F0FF03 		ands	r3, r3, #255
 749              	.LVL77:
 750 006c 1A44     		add	r2, r2, r3
 751 006e F1D1     		bne	.L56
 752 0070 9DF80830 		ldrb	r3, [sp, #8]	@ zero_extendqisi2
 753 0074 421C     		adds	r2, r0, #1
 754              	.LVL78:
 755              	.L49:
 515:Generated_Source\PSoC5/CharLCD_I2C.c ****         }
 516:Generated_Source\PSoC5/CharLCD_I2C.c ****         
 517:Generated_Source\PSoC5/CharLCD_I2C.c ****         /* Copy last digit */
 518:Generated_Source\PSoC5/CharLCD_I2C.c ****         number[numDigits] = temp[0u];
 756              		.loc 1 518 0
 757 0076 04A9     		add	r1, sp, #16
 519:Generated_Source\PSoC5/CharLCD_I2C.c **** 
 520:Generated_Source\PSoC5/CharLCD_I2C.c ****         /* Null Termination */
 521:Generated_Source\PSoC5/CharLCD_I2C.c ****         number[numDigits + 1u] = (char8) '\0';
 758              		.loc 1 521 0
 759 0078 0A44     		add	r2, r2, r1
 518:Generated_Source\PSoC5/CharLCD_I2C.c **** 
 760              		.loc 1 518 0
 761 007a 0C44     		add	r4, r4, r1
 522:Generated_Source\PSoC5/CharLCD_I2C.c **** 
 523:Generated_Source\PSoC5/CharLCD_I2C.c ****         /* Print out number */
 524:Generated_Source\PSoC5/CharLCD_I2C.c ****         CharLCD_PrintString(&number[0u]);
 762              		.loc 1 524 0
 763 007c 6846     		mov	r0, sp
 521:Generated_Source\PSoC5/CharLCD_I2C.c **** 
ARM GAS  C:\Users\mgronber\AppData\Local\Temp\ccMnmAh5.s 			page 25


 764              		.loc 1 521 0
 765 007e 0021     		movs	r1, #0
 518:Generated_Source\PSoC5/CharLCD_I2C.c **** 
 766              		.loc 1 518 0
 767 0080 04F8103C 		strb	r3, [r4, #-16]
 521:Generated_Source\PSoC5/CharLCD_I2C.c **** 
 768              		.loc 1 521 0
 769 0084 02F8101C 		strb	r1, [r2, #-16]
 770              		.loc 1 524 0
 771 0088 FFF7FEFF 		bl	CharLCD_PrintString
 772              	.LVL79:
 525:Generated_Source\PSoC5/CharLCD_I2C.c ****     }
 773              		.loc 1 525 0
 774 008c 04B0     		add	sp, sp, #16
 775              		.cfi_remember_state
 776              		.cfi_def_cfa_offset 8
 777              		@ sp needed
 778 008e 10BD     		pop	{r4, pc}
 779              	.LVL80:
 780              	.L45:
 781              		.cfi_restore_state
 505:Generated_Source\PSoC5/CharLCD_I2C.c ****         numDigits = digIndex;
 782              		.loc 1 505 0
 783 0090 084B     		ldr	r3, .L57
 784 0092 0122     		movs	r2, #1
 785 0094 A3FB0013 		umull	r1, r3, r3, r0
 786 0098 DB08     		lsrs	r3, r3, #3
 787 009a 03EB8303 		add	r3, r3, r3, lsl #2
 788 009e A0EB4303 		sub	r3, r0, r3, lsl #1
 789 00a2 3033     		adds	r3, r3, #48
 790 00a4 DBB2     		uxtb	r3, r3
 791              	.LVL81:
 792 00a6 0024     		movs	r4, #0
 793 00a8 E5E7     		b	.L49
 794              	.LVL82:
 795              	.L55:
 796 00aa 9DF80830 		ldrb	r3, [sp, #8]	@ zero_extendqisi2
 797              	.LVL83:
 511:Generated_Source\PSoC5/CharLCD_I2C.c ****         {
 798              		.loc 1 511 0
 799 00ae 0122     		movs	r2, #1
 800 00b0 E1E7     		b	.L49
 801              	.L58:
 802 00b2 00BF     		.align	2
 803              	.L57:
 804 00b4 CDCCCCCC 		.word	-858993459
 805              		.cfi_endproc
 806              	.LFE13:
 807              		.size	CharLCD_PrintNumber, .-CharLCD_PrintNumber
 808              		.global	CharLCD_initVar
 809              		.global	CharLCD_enableState
 810              		.section	.rodata
 811              		.align	2
 812              		.set	.LANCHOR1,. + 0
 813              		.type	CharLCD_hex.4933, %object
 814              		.size	CharLCD_hex.4933, 16
 815              	CharLCD_hex.4933:
ARM GAS  C:\Users\mgronber\AppData\Local\Temp\ccMnmAh5.s 			page 26


 816 0000 30313233 		.ascii	"0123456789ABCDEF"
 816      34353637 
 816      38394142 
 816      43444546 
 817              		.bss
 818              		.set	.LANCHOR0,. + 0
 819              		.type	CharLCD_enableState, %object
 820              		.size	CharLCD_enableState, 1
 821              	CharLCD_enableState:
 822 0000 00       		.space	1
 823              		.type	CharLCD_initVar, %object
 824              		.size	CharLCD_initVar, 1
 825              	CharLCD_initVar:
 826 0001 00       		.space	1
 827              		.text
 828              	.Letext0:
 829              		.file 2 "Generated_Source\\PSoC5\\cytypes.h"
 830              		.file 3 "Generated_Source\\PSoC5\\CyLib.h"
 831              		.file 4 "Generated_Source\\PSoC5\\I2C_CharLCD.h"