ARM GAS  C:\Users\anjmarqu\AppData\Local\Temp\cc5KoQAT.s 			page 1


   1              		.syntax unified
   2              		.cpu cortex-m3
   3              		.fpu softvfp
   4              		.eabi_attribute 20, 1
   5              		.eabi_attribute 21, 1
   6              		.eabi_attribute 23, 3
   7              		.eabi_attribute 24, 1
   8              		.eabi_attribute 25, 1
   9              		.eabi_attribute 26, 1
  10              		.eabi_attribute 30, 2
  11              		.eabi_attribute 34, 1
  12              		.eabi_attribute 18, 4
  13              		.thumb
  14              		.file	"CharLCD_I2C_PM.c"
  15              		.text
  16              	.Ltext0:
  17              		.cfi_sections	.debug_frame
  18              		.section	.text.CharLCD_SaveConfig,"ax",%progbits
  19              		.align	2
  20              		.global	CharLCD_SaveConfig
  21              		.thumb
  22              		.thumb_func
  23              		.type	CharLCD_SaveConfig, %function
  24              	CharLCD_SaveConfig:
  25              	.LFB0:
  26              		.file 1 "Generated_Source\\PSoC5\\CharLCD_I2C_PM.c"
   1:Generated_Source\PSoC5/CharLCD_I2C_PM.c **** /*******************************************************************************
   2:Generated_Source\PSoC5/CharLCD_I2C_PM.c **** * File Name: CharLCD_I2C_PM.c
   3:Generated_Source\PSoC5/CharLCD_I2C_PM.c **** * Version 2.0
   4:Generated_Source\PSoC5/CharLCD_I2C_PM.c **** *
   5:Generated_Source\PSoC5/CharLCD_I2C_PM.c **** * Description:
   6:Generated_Source\PSoC5/CharLCD_I2C_PM.c **** *  This file provides the API source code for the Static Segment LCD component.
   7:Generated_Source\PSoC5/CharLCD_I2C_PM.c **** *
   8:Generated_Source\PSoC5/CharLCD_I2C_PM.c **** * Note:
   9:Generated_Source\PSoC5/CharLCD_I2C_PM.c **** *
  10:Generated_Source\PSoC5/CharLCD_I2C_PM.c **** ********************************************************************************
  11:Generated_Source\PSoC5/CharLCD_I2C_PM.c **** * Copyright 2008-2012, Cypress Semiconductor Corporation.  All rights reserved.
  12:Generated_Source\PSoC5/CharLCD_I2C_PM.c **** * You may use this file only in accordance with the license, terms, conditions,
  13:Generated_Source\PSoC5/CharLCD_I2C_PM.c **** * disclaimers, and limitations in the end user license agreement accompanying
  14:Generated_Source\PSoC5/CharLCD_I2C_PM.c **** * the software package with which this file was provided.
  15:Generated_Source\PSoC5/CharLCD_I2C_PM.c **** *******************************************************************************/
  16:Generated_Source\PSoC5/CharLCD_I2C_PM.c **** 
  17:Generated_Source\PSoC5/CharLCD_I2C_PM.c **** #include "CharLCD_I2C.h"
  18:Generated_Source\PSoC5/CharLCD_I2C_PM.c **** 
  19:Generated_Source\PSoC5/CharLCD_I2C_PM.c **** 
  20:Generated_Source\PSoC5/CharLCD_I2C_PM.c **** static CharLCD_BACKUP_STRUCT CharLCD_backup;
  21:Generated_Source\PSoC5/CharLCD_I2C_PM.c **** 
  22:Generated_Source\PSoC5/CharLCD_I2C_PM.c **** 
  23:Generated_Source\PSoC5/CharLCD_I2C_PM.c **** /*******************************************************************************
  24:Generated_Source\PSoC5/CharLCD_I2C_PM.c **** * Function Name: CharLCD_SaveConfig
  25:Generated_Source\PSoC5/CharLCD_I2C_PM.c **** ********************************************************************************
  26:Generated_Source\PSoC5/CharLCD_I2C_PM.c **** *
  27:Generated_Source\PSoC5/CharLCD_I2C_PM.c **** * Summary:
  28:Generated_Source\PSoC5/CharLCD_I2C_PM.c **** *  Does nothing, provided for consistency.
  29:Generated_Source\PSoC5/CharLCD_I2C_PM.c **** *
  30:Generated_Source\PSoC5/CharLCD_I2C_PM.c **** * Parameters:
  31:Generated_Source\PSoC5/CharLCD_I2C_PM.c **** *  None.
ARM GAS  C:\Users\anjmarqu\AppData\Local\Temp\cc5KoQAT.s 			page 2


  32:Generated_Source\PSoC5/CharLCD_I2C_PM.c **** *
  33:Generated_Source\PSoC5/CharLCD_I2C_PM.c **** * Return:
  34:Generated_Source\PSoC5/CharLCD_I2C_PM.c **** *  None.
  35:Generated_Source\PSoC5/CharLCD_I2C_PM.c **** *
  36:Generated_Source\PSoC5/CharLCD_I2C_PM.c **** *******************************************************************************/
  37:Generated_Source\PSoC5/CharLCD_I2C_PM.c **** void CharLCD_SaveConfig(void) 
  38:Generated_Source\PSoC5/CharLCD_I2C_PM.c **** {
  27              		.loc 1 38 0
  28              		.cfi_startproc
  29              		@ args = 0, pretend = 0, frame = 0
  30              		@ frame_needed = 0, uses_anonymous_args = 0
  31              		@ link register save eliminated.
  32 0000 7047     		bx	lr
  33              		.cfi_endproc
  34              	.LFE0:
  35              		.size	CharLCD_SaveConfig, .-CharLCD_SaveConfig
  36 0002 00BF     		.section	.text.CharLCD_RestoreConfig,"ax",%progbits
  37              		.align	2
  38              		.global	CharLCD_RestoreConfig
  39              		.thumb
  40              		.thumb_func
  41              		.type	CharLCD_RestoreConfig, %function
  42              	CharLCD_RestoreConfig:
  43              	.LFB1:
  39:Generated_Source\PSoC5/CharLCD_I2C_PM.c **** }
  40:Generated_Source\PSoC5/CharLCD_I2C_PM.c **** 
  41:Generated_Source\PSoC5/CharLCD_I2C_PM.c **** 
  42:Generated_Source\PSoC5/CharLCD_I2C_PM.c **** /*******************************************************************************
  43:Generated_Source\PSoC5/CharLCD_I2C_PM.c **** * Function Name: CharLCD_RestoreConfig
  44:Generated_Source\PSoC5/CharLCD_I2C_PM.c **** ********************************************************************************
  45:Generated_Source\PSoC5/CharLCD_I2C_PM.c **** *
  46:Generated_Source\PSoC5/CharLCD_I2C_PM.c **** * Summary:
  47:Generated_Source\PSoC5/CharLCD_I2C_PM.c **** *  Does nothing, provided for consistency.
  48:Generated_Source\PSoC5/CharLCD_I2C_PM.c **** *
  49:Generated_Source\PSoC5/CharLCD_I2C_PM.c **** * Parameters:
  50:Generated_Source\PSoC5/CharLCD_I2C_PM.c **** *  None.
  51:Generated_Source\PSoC5/CharLCD_I2C_PM.c **** *
  52:Generated_Source\PSoC5/CharLCD_I2C_PM.c **** * Return:
  53:Generated_Source\PSoC5/CharLCD_I2C_PM.c **** *  None.
  54:Generated_Source\PSoC5/CharLCD_I2C_PM.c **** *
  55:Generated_Source\PSoC5/CharLCD_I2C_PM.c **** *******************************************************************************/
  56:Generated_Source\PSoC5/CharLCD_I2C_PM.c **** void CharLCD_RestoreConfig(void) 
  57:Generated_Source\PSoC5/CharLCD_I2C_PM.c **** {
  44              		.loc 1 57 0
  45              		.cfi_startproc
  46              		@ args = 0, pretend = 0, frame = 0
  47              		@ frame_needed = 0, uses_anonymous_args = 0
  48              		@ link register save eliminated.
  49 0000 7047     		bx	lr
  50              		.cfi_endproc
  51              	.LFE1:
  52              		.size	CharLCD_RestoreConfig, .-CharLCD_RestoreConfig
  53 0002 00BF     		.section	.text.CharLCD_Sleep,"ax",%progbits
  54              		.align	2
  55              		.global	CharLCD_Sleep
  56              		.thumb
  57              		.thumb_func
ARM GAS  C:\Users\anjmarqu\AppData\Local\Temp\cc5KoQAT.s 			page 3


  58              		.type	CharLCD_Sleep, %function
  59              	CharLCD_Sleep:
  60              	.LFB2:
  58:Generated_Source\PSoC5/CharLCD_I2C_PM.c **** }
  59:Generated_Source\PSoC5/CharLCD_I2C_PM.c **** 
  60:Generated_Source\PSoC5/CharLCD_I2C_PM.c **** 
  61:Generated_Source\PSoC5/CharLCD_I2C_PM.c **** /*******************************************************************************
  62:Generated_Source\PSoC5/CharLCD_I2C_PM.c **** * Function Name: CharLCD_Sleep
  63:Generated_Source\PSoC5/CharLCD_I2C_PM.c **** ********************************************************************************
  64:Generated_Source\PSoC5/CharLCD_I2C_PM.c **** *
  65:Generated_Source\PSoC5/CharLCD_I2C_PM.c **** * Summary:
  66:Generated_Source\PSoC5/CharLCD_I2C_PM.c **** *  Prepares component for entering the sleep mode.
  67:Generated_Source\PSoC5/CharLCD_I2C_PM.c **** *
  68:Generated_Source\PSoC5/CharLCD_I2C_PM.c **** * Parameters:
  69:Generated_Source\PSoC5/CharLCD_I2C_PM.c **** *  None.
  70:Generated_Source\PSoC5/CharLCD_I2C_PM.c **** *
  71:Generated_Source\PSoC5/CharLCD_I2C_PM.c **** * Return:
  72:Generated_Source\PSoC5/CharLCD_I2C_PM.c **** *  None.
  73:Generated_Source\PSoC5/CharLCD_I2C_PM.c **** *
  74:Generated_Source\PSoC5/CharLCD_I2C_PM.c **** * Reentrant:
  75:Generated_Source\PSoC5/CharLCD_I2C_PM.c **** *  No.
  76:Generated_Source\PSoC5/CharLCD_I2C_PM.c **** *
  77:Generated_Source\PSoC5/CharLCD_I2C_PM.c **** *******************************************************************************/
  78:Generated_Source\PSoC5/CharLCD_I2C_PM.c **** void CharLCD_Sleep(void) 
  79:Generated_Source\PSoC5/CharLCD_I2C_PM.c **** {
  61              		.loc 1 79 0
  62              		.cfi_startproc
  63              		@ args = 0, pretend = 0, frame = 0
  64              		@ frame_needed = 0, uses_anonymous_args = 0
  65              		@ link register save eliminated.
  80:Generated_Source\PSoC5/CharLCD_I2C_PM.c ****     CharLCD_backup.enableState = CharLCD_enableState;
  66              		.loc 1 80 0
  67 0000 024A     		ldr	r2, .L4
  68 0002 034B     		ldr	r3, .L4+4
  69 0004 1278     		ldrb	r2, [r2]	@ zero_extendqisi2
  70 0006 1A70     		strb	r2, [r3]
  81:Generated_Source\PSoC5/CharLCD_I2C_PM.c ****     CharLCD_SaveConfig();
  82:Generated_Source\PSoC5/CharLCD_I2C_PM.c ****     CharLCD_Stop();
  71              		.loc 1 82 0
  72 0008 FFF7FEBF 		b	CharLCD_Stop
  73              	.LVL0:
  74              	.L5:
  75              		.align	2
  76              	.L4:
  77 000c 00000000 		.word	CharLCD_enableState
  78 0010 00000000 		.word	.LANCHOR0
  79              		.cfi_endproc
  80              	.LFE2:
  81              		.size	CharLCD_Sleep, .-CharLCD_Sleep
  82              		.section	.text.CharLCD_Wakeup,"ax",%progbits
  83              		.align	2
  84              		.global	CharLCD_Wakeup
  85              		.thumb
  86              		.thumb_func
  87              		.type	CharLCD_Wakeup, %function
  88              	CharLCD_Wakeup:
  89              	.LFB3:
ARM GAS  C:\Users\anjmarqu\AppData\Local\Temp\cc5KoQAT.s 			page 4


  83:Generated_Source\PSoC5/CharLCD_I2C_PM.c **** }
  84:Generated_Source\PSoC5/CharLCD_I2C_PM.c **** 
  85:Generated_Source\PSoC5/CharLCD_I2C_PM.c **** 
  86:Generated_Source\PSoC5/CharLCD_I2C_PM.c **** /*******************************************************************************
  87:Generated_Source\PSoC5/CharLCD_I2C_PM.c **** * Function Name: CharLCD_Wakeup
  88:Generated_Source\PSoC5/CharLCD_I2C_PM.c **** ********************************************************************************
  89:Generated_Source\PSoC5/CharLCD_I2C_PM.c **** *
  90:Generated_Source\PSoC5/CharLCD_I2C_PM.c **** * Summary:
  91:Generated_Source\PSoC5/CharLCD_I2C_PM.c **** *  Wakes component from sleep mode. Configures DMA and enables the component for
  92:Generated_Source\PSoC5/CharLCD_I2C_PM.c **** *  normal operation.
  93:Generated_Source\PSoC5/CharLCD_I2C_PM.c **** *
  94:Generated_Source\PSoC5/CharLCD_I2C_PM.c **** * Parameters:
  95:Generated_Source\PSoC5/CharLCD_I2C_PM.c **** *  CharLCD_enableState - Global variable.
  96:Generated_Source\PSoC5/CharLCD_I2C_PM.c **** *
  97:Generated_Source\PSoC5/CharLCD_I2C_PM.c **** * Return:
  98:Generated_Source\PSoC5/CharLCD_I2C_PM.c **** *  Status one of standard status for PSoC3 Component
  99:Generated_Source\PSoC5/CharLCD_I2C_PM.c **** *       CYRET_SUCCESS - Function completed successfully.
 100:Generated_Source\PSoC5/CharLCD_I2C_PM.c **** *       CYRET_LOCKED - The object was locked, already in use. Some of TDs or
 101:Generated_Source\PSoC5/CharLCD_I2C_PM.c **** *                      a channel already in use.
 102:Generated_Source\PSoC5/CharLCD_I2C_PM.c **** *
 103:Generated_Source\PSoC5/CharLCD_I2C_PM.c **** * Reentrant:
 104:Generated_Source\PSoC5/CharLCD_I2C_PM.c **** *  No.
 105:Generated_Source\PSoC5/CharLCD_I2C_PM.c **** *
 106:Generated_Source\PSoC5/CharLCD_I2C_PM.c **** *******************************************************************************/
 107:Generated_Source\PSoC5/CharLCD_I2C_PM.c **** void CharLCD_Wakeup(void) 
 108:Generated_Source\PSoC5/CharLCD_I2C_PM.c **** {
  90              		.loc 1 108 0
  91              		.cfi_startproc
  92              		@ args = 0, pretend = 0, frame = 0
  93              		@ frame_needed = 0, uses_anonymous_args = 0
  94              		@ link register save eliminated.
 109:Generated_Source\PSoC5/CharLCD_I2C_PM.c ****     CharLCD_RestoreConfig();
 110:Generated_Source\PSoC5/CharLCD_I2C_PM.c **** 
 111:Generated_Source\PSoC5/CharLCD_I2C_PM.c ****     if(CharLCD_backup.enableState == 1u)
  95              		.loc 1 111 0
  96 0000 034B     		ldr	r3, .L10
  97 0002 1B78     		ldrb	r3, [r3]	@ zero_extendqisi2
  98 0004 012B     		cmp	r3, #1
  99 0006 00D0     		beq	.L9
 100 0008 7047     		bx	lr
 101              	.L9:
 112:Generated_Source\PSoC5/CharLCD_I2C_PM.c ****     {
 113:Generated_Source\PSoC5/CharLCD_I2C_PM.c ****         CharLCD_Enable();
 102              		.loc 1 113 0
 103 000a FFF7FEBF 		b	CharLCD_Enable
 104              	.LVL1:
 105              	.L11:
 106 000e 00BF     		.align	2
 107              	.L10:
 108 0010 00000000 		.word	.LANCHOR0
 109              		.cfi_endproc
 110              	.LFE3:
 111              		.size	CharLCD_Wakeup, .-CharLCD_Wakeup
 112              		.bss
 113              		.align	2
 114              		.set	.LANCHOR0,. + 0
 115              		.type	CharLCD_backup, %object
ARM GAS  C:\Users\anjmarqu\AppData\Local\Temp\cc5KoQAT.s 			page 5


 116              		.size	CharLCD_backup, 1
 117              	CharLCD_backup:
 118 0000 00       		.space	1
 119 0001 000000   		.text
 120              	.Letext0:
 121              		.file 2 "Generated_Source\\PSoC5\\cytypes.h"
 122              		.file 3 "Generated_Source\\PSoC5\\CharLCD_I2C.h"