ARM GAS  C:\Users\mgronber\AppData\Local\Temp\ccIIwJvg.s 			page 1


   1              		.syntax unified
   2              		.cpu cortex-m3
   3              		.fpu softvfp
   4              		.eabi_attribute 20, 1
   5              		.eabi_attribute 21, 1
   6              		.eabi_attribute 23, 3
   7              		.eabi_attribute 24, 1
   8              		.eabi_attribute 25, 1
   9              		.eabi_attribute 26, 1
  10              		.eabi_attribute 30, 2
  11              		.eabi_attribute 34, 1
  12              		.eabi_attribute 18, 4
  13              		.thumb
  14              		.file	"cyfitter_cfg.c"
  15              		.text
  16              	.Ltext0:
  17              		.cfi_sections	.debug_frame
  18              		.section	.text.SetAnalogRoutingPumps,"ax",%progbits
  19              		.align	2
  20              		.global	SetAnalogRoutingPumps
  21              		.thumb
  22              		.thumb_func
  23              		.type	SetAnalogRoutingPumps, %function
  24              	SetAnalogRoutingPumps:
  25              	.LFB7:
  26              		.file 1 "Generated_Source\\PSoC5\\cyfitter_cfg.c"
   1:Generated_Source\PSoC5/cyfitter_cfg.c **** /*******************************************************************************
   2:Generated_Source\PSoC5/cyfitter_cfg.c **** * File Name: cyfitter_cfg.c
   3:Generated_Source\PSoC5/cyfitter_cfg.c **** * 
   4:Generated_Source\PSoC5/cyfitter_cfg.c **** * PSoC Creator  4.0 Update 1
   5:Generated_Source\PSoC5/cyfitter_cfg.c **** *
   6:Generated_Source\PSoC5/cyfitter_cfg.c **** * Description:
   7:Generated_Source\PSoC5/cyfitter_cfg.c **** * This file contains device initialization code.
   8:Generated_Source\PSoC5/cyfitter_cfg.c **** * Except for the user defined sections in CyClockStartupError(), this file should not be modified.
   9:Generated_Source\PSoC5/cyfitter_cfg.c **** * This file is automatically generated by PSoC Creator.
  10:Generated_Source\PSoC5/cyfitter_cfg.c **** *
  11:Generated_Source\PSoC5/cyfitter_cfg.c **** ********************************************************************************
  12:Generated_Source\PSoC5/cyfitter_cfg.c **** * Copyright (c) 2007-2016 Cypress Semiconductor.  All rights reserved.
  13:Generated_Source\PSoC5/cyfitter_cfg.c **** * You may use this file only in accordance with the license, terms, conditions, 
  14:Generated_Source\PSoC5/cyfitter_cfg.c **** * disclaimers, and limitations in the end user license agreement accompanying 
  15:Generated_Source\PSoC5/cyfitter_cfg.c **** * the software package with which this file was provided.
  16:Generated_Source\PSoC5/cyfitter_cfg.c **** ********************************************************************************/
  17:Generated_Source\PSoC5/cyfitter_cfg.c **** 
  18:Generated_Source\PSoC5/cyfitter_cfg.c **** #include <string.h>
  19:Generated_Source\PSoC5/cyfitter_cfg.c **** #include "cytypes.h"
  20:Generated_Source\PSoC5/cyfitter_cfg.c **** #include "cydevice_trm.h"
  21:Generated_Source\PSoC5/cyfitter_cfg.c **** #include "cyfitter.h"
  22:Generated_Source\PSoC5/cyfitter_cfg.c **** #include "CyLib.h"
  23:Generated_Source\PSoC5/cyfitter_cfg.c **** #include "cyfitter_cfg.h"
  24:Generated_Source\PSoC5/cyfitter_cfg.c **** 
  25:Generated_Source\PSoC5/cyfitter_cfg.c **** #define CY_NEED_CYCLOCKSTARTUPERROR 1
  26:Generated_Source\PSoC5/cyfitter_cfg.c **** 
  27:Generated_Source\PSoC5/cyfitter_cfg.c **** 
  28:Generated_Source\PSoC5/cyfitter_cfg.c **** #if defined(__GNUC__) || defined(__ARMCC_VERSION)
  29:Generated_Source\PSoC5/cyfitter_cfg.c ****     #define CYPACKED 
  30:Generated_Source\PSoC5/cyfitter_cfg.c ****     #define CYPACKED_ATTR __attribute__ ((packed))
  31:Generated_Source\PSoC5/cyfitter_cfg.c ****     #define CYALIGNED __attribute__ ((aligned))
ARM GAS  C:\Users\mgronber\AppData\Local\Temp\ccIIwJvg.s 			page 2


  32:Generated_Source\PSoC5/cyfitter_cfg.c ****     #define CY_CFG_UNUSED __attribute__ ((unused))
  33:Generated_Source\PSoC5/cyfitter_cfg.c ****     #ifndef CY_CFG_SECTION
  34:Generated_Source\PSoC5/cyfitter_cfg.c ****         #define CY_CFG_SECTION __attribute__ ((section(".psocinit")))
  35:Generated_Source\PSoC5/cyfitter_cfg.c ****     #endif
  36:Generated_Source\PSoC5/cyfitter_cfg.c ****     
  37:Generated_Source\PSoC5/cyfitter_cfg.c ****     #if defined(__ARMCC_VERSION)
  38:Generated_Source\PSoC5/cyfitter_cfg.c ****         #define CY_CFG_MEMORY_BARRIER() __memory_changed()
  39:Generated_Source\PSoC5/cyfitter_cfg.c ****     #else
  40:Generated_Source\PSoC5/cyfitter_cfg.c ****         #define CY_CFG_MEMORY_BARRIER() __sync_synchronize()
  41:Generated_Source\PSoC5/cyfitter_cfg.c ****     #endif
  42:Generated_Source\PSoC5/cyfitter_cfg.c ****     
  43:Generated_Source\PSoC5/cyfitter_cfg.c **** #elif defined(__ICCARM__)
  44:Generated_Source\PSoC5/cyfitter_cfg.c ****     #include <intrinsics.h>
  45:Generated_Source\PSoC5/cyfitter_cfg.c **** 
  46:Generated_Source\PSoC5/cyfitter_cfg.c ****     #define CYPACKED __packed
  47:Generated_Source\PSoC5/cyfitter_cfg.c ****     #define CYPACKED_ATTR 
  48:Generated_Source\PSoC5/cyfitter_cfg.c ****     #define CYALIGNED _Pragma("data_alignment=4")
  49:Generated_Source\PSoC5/cyfitter_cfg.c ****     #define CY_CFG_UNUSED _Pragma("diag_suppress=Pe177")
  50:Generated_Source\PSoC5/cyfitter_cfg.c ****     #define CY_CFG_SECTION _Pragma("location=\".psocinit\"")
  51:Generated_Source\PSoC5/cyfitter_cfg.c ****     
  52:Generated_Source\PSoC5/cyfitter_cfg.c ****     #define CY_CFG_MEMORY_BARRIER() __DMB()
  53:Generated_Source\PSoC5/cyfitter_cfg.c ****     
  54:Generated_Source\PSoC5/cyfitter_cfg.c **** #else
  55:Generated_Source\PSoC5/cyfitter_cfg.c ****     #error Unsupported toolchain
  56:Generated_Source\PSoC5/cyfitter_cfg.c **** #endif
  57:Generated_Source\PSoC5/cyfitter_cfg.c **** 
  58:Generated_Source\PSoC5/cyfitter_cfg.c **** 
  59:Generated_Source\PSoC5/cyfitter_cfg.c **** CY_CFG_UNUSED
  60:Generated_Source\PSoC5/cyfitter_cfg.c **** static void CYMEMZERO(void *s, size_t n);
  61:Generated_Source\PSoC5/cyfitter_cfg.c **** CY_CFG_UNUSED
  62:Generated_Source\PSoC5/cyfitter_cfg.c **** static void CYMEMZERO(void *s, size_t n)
  63:Generated_Source\PSoC5/cyfitter_cfg.c **** {
  64:Generated_Source\PSoC5/cyfitter_cfg.c **** 	(void)memset(s, 0, n);
  65:Generated_Source\PSoC5/cyfitter_cfg.c **** }
  66:Generated_Source\PSoC5/cyfitter_cfg.c **** CY_CFG_UNUSED
  67:Generated_Source\PSoC5/cyfitter_cfg.c **** static void CYCONFIGCPY(void *dest, const void *src, size_t n);
  68:Generated_Source\PSoC5/cyfitter_cfg.c **** CY_CFG_UNUSED
  69:Generated_Source\PSoC5/cyfitter_cfg.c **** static void CYCONFIGCPY(void *dest, const void *src, size_t n)
  70:Generated_Source\PSoC5/cyfitter_cfg.c **** {
  71:Generated_Source\PSoC5/cyfitter_cfg.c **** 	(void)memcpy(dest, src, n);
  72:Generated_Source\PSoC5/cyfitter_cfg.c **** }
  73:Generated_Source\PSoC5/cyfitter_cfg.c **** CY_CFG_UNUSED
  74:Generated_Source\PSoC5/cyfitter_cfg.c **** static void CYCONFIGCPYCODE(void *dest, const void *src, size_t n);
  75:Generated_Source\PSoC5/cyfitter_cfg.c **** CY_CFG_UNUSED
  76:Generated_Source\PSoC5/cyfitter_cfg.c **** static void CYCONFIGCPYCODE(void *dest, const void *src, size_t n)
  77:Generated_Source\PSoC5/cyfitter_cfg.c **** {
  78:Generated_Source\PSoC5/cyfitter_cfg.c **** 	(void)memcpy(dest, src, n);
  79:Generated_Source\PSoC5/cyfitter_cfg.c **** }
  80:Generated_Source\PSoC5/cyfitter_cfg.c **** 
  81:Generated_Source\PSoC5/cyfitter_cfg.c **** 
  82:Generated_Source\PSoC5/cyfitter_cfg.c **** 
  83:Generated_Source\PSoC5/cyfitter_cfg.c **** 
  84:Generated_Source\PSoC5/cyfitter_cfg.c **** /* Clock startup error codes                                                   */
  85:Generated_Source\PSoC5/cyfitter_cfg.c **** #define CYCLOCKSTART_NO_ERROR    0u
  86:Generated_Source\PSoC5/cyfitter_cfg.c **** #define CYCLOCKSTART_XTAL_ERROR  1u
  87:Generated_Source\PSoC5/cyfitter_cfg.c **** #define CYCLOCKSTART_32KHZ_ERROR 2u
  88:Generated_Source\PSoC5/cyfitter_cfg.c **** #define CYCLOCKSTART_PLL_ERROR   3u
ARM GAS  C:\Users\mgronber\AppData\Local\Temp\ccIIwJvg.s 			page 3


  89:Generated_Source\PSoC5/cyfitter_cfg.c **** 
  90:Generated_Source\PSoC5/cyfitter_cfg.c **** 
  91:Generated_Source\PSoC5/cyfitter_cfg.c **** #ifdef CY_NEED_CYCLOCKSTARTUPERROR
  92:Generated_Source\PSoC5/cyfitter_cfg.c **** /*******************************************************************************
  93:Generated_Source\PSoC5/cyfitter_cfg.c **** * Function Name: CyClockStartupError
  94:Generated_Source\PSoC5/cyfitter_cfg.c **** ********************************************************************************
  95:Generated_Source\PSoC5/cyfitter_cfg.c **** * Summary:
  96:Generated_Source\PSoC5/cyfitter_cfg.c **** *  If an error is encountered during clock configuration (crystal startup error,
  97:Generated_Source\PSoC5/cyfitter_cfg.c **** *  PLL lock error, etc.), the system will end up here.  Unless reimplemented by
  98:Generated_Source\PSoC5/cyfitter_cfg.c **** *  the customer, this function will stop in an infinite loop.
  99:Generated_Source\PSoC5/cyfitter_cfg.c **** *
 100:Generated_Source\PSoC5/cyfitter_cfg.c **** * Parameters:
 101:Generated_Source\PSoC5/cyfitter_cfg.c **** *   void
 102:Generated_Source\PSoC5/cyfitter_cfg.c **** *
 103:Generated_Source\PSoC5/cyfitter_cfg.c **** * Return:
 104:Generated_Source\PSoC5/cyfitter_cfg.c **** *   void
 105:Generated_Source\PSoC5/cyfitter_cfg.c **** *
 106:Generated_Source\PSoC5/cyfitter_cfg.c **** *******************************************************************************/
 107:Generated_Source\PSoC5/cyfitter_cfg.c **** CY_CFG_UNUSED
 108:Generated_Source\PSoC5/cyfitter_cfg.c **** static void CyClockStartupError(uint8 errorCode);
 109:Generated_Source\PSoC5/cyfitter_cfg.c **** CY_CFG_UNUSED
 110:Generated_Source\PSoC5/cyfitter_cfg.c **** static void CyClockStartupError(uint8 errorCode)
 111:Generated_Source\PSoC5/cyfitter_cfg.c **** {
 112:Generated_Source\PSoC5/cyfitter_cfg.c ****     /* To remove the compiler warning if errorCode not used.                */
 113:Generated_Source\PSoC5/cyfitter_cfg.c ****     errorCode = errorCode;
 114:Generated_Source\PSoC5/cyfitter_cfg.c **** 
 115:Generated_Source\PSoC5/cyfitter_cfg.c ****     /* If we have a clock startup error (bad MHz crystal, PLL lock, etc.),  */
 116:Generated_Source\PSoC5/cyfitter_cfg.c ****     /* we will end up here to allow the customer to implement something to  */
 117:Generated_Source\PSoC5/cyfitter_cfg.c ****     /* deal with the clock condition.                                       */
 118:Generated_Source\PSoC5/cyfitter_cfg.c **** 
 119:Generated_Source\PSoC5/cyfitter_cfg.c **** #ifdef CY_CFG_CLOCK_STARTUP_ERROR_CALLBACK
 120:Generated_Source\PSoC5/cyfitter_cfg.c **** 	CY_CFG_Clock_Startup_ErrorCallback();
 121:Generated_Source\PSoC5/cyfitter_cfg.c **** #else
 122:Generated_Source\PSoC5/cyfitter_cfg.c **** 	/*  If not using CY_CFG_CLOCK_STARTUP_ERROR_CALLBACK, place your clock startup code here. */
 123:Generated_Source\PSoC5/cyfitter_cfg.c ****     /* `#START CyClockStartupError` */
 124:Generated_Source\PSoC5/cyfitter_cfg.c **** 
 125:Generated_Source\PSoC5/cyfitter_cfg.c **** 
 126:Generated_Source\PSoC5/cyfitter_cfg.c **** 
 127:Generated_Source\PSoC5/cyfitter_cfg.c ****     /* `#END` */
 128:Generated_Source\PSoC5/cyfitter_cfg.c **** 
 129:Generated_Source\PSoC5/cyfitter_cfg.c ****     /* If nothing else, stop here since the clocks have not started         */
 130:Generated_Source\PSoC5/cyfitter_cfg.c ****     /* correctly.                                                           */
 131:Generated_Source\PSoC5/cyfitter_cfg.c ****     while(1) {}
 132:Generated_Source\PSoC5/cyfitter_cfg.c **** #endif /* CY_CFG_CLOCK_STARTUP_ERROR_CALLBACK */ 
 133:Generated_Source\PSoC5/cyfitter_cfg.c **** }
 134:Generated_Source\PSoC5/cyfitter_cfg.c **** #endif
 135:Generated_Source\PSoC5/cyfitter_cfg.c **** 
 136:Generated_Source\PSoC5/cyfitter_cfg.c **** #define CY_CFG_BASE_ADDR_COUNT 43u
 137:Generated_Source\PSoC5/cyfitter_cfg.c **** CYPACKED typedef struct
 138:Generated_Source\PSoC5/cyfitter_cfg.c **** {
 139:Generated_Source\PSoC5/cyfitter_cfg.c **** 	uint8 offset;
 140:Generated_Source\PSoC5/cyfitter_cfg.c **** 	uint8 value;
 141:Generated_Source\PSoC5/cyfitter_cfg.c **** } CYPACKED_ATTR cy_cfg_addrvalue_t;
 142:Generated_Source\PSoC5/cyfitter_cfg.c **** 
 143:Generated_Source\PSoC5/cyfitter_cfg.c **** #define cy_cfg_addr_table ((const uint32 CYFAR *)0x48000000u)
 144:Generated_Source\PSoC5/cyfitter_cfg.c **** #define cy_cfg_data_table ((const cy_cfg_addrvalue_t CYFAR *)0x480000ACu)
 145:Generated_Source\PSoC5/cyfitter_cfg.c **** 
ARM GAS  C:\Users\mgronber\AppData\Local\Temp\ccIIwJvg.s 			page 4


 146:Generated_Source\PSoC5/cyfitter_cfg.c **** /* IDMUX_IRQ Address: CYREG_IDMUX_IRQ_CTL0 Size (bytes): 8 */
 147:Generated_Source\PSoC5/cyfitter_cfg.c **** #define BS_IDMUX_IRQ_VAL ((const uint8 CYFAR *)0x48000E5Cu)
 148:Generated_Source\PSoC5/cyfitter_cfg.c **** 
 149:Generated_Source\PSoC5/cyfitter_cfg.c **** /* UDB_1_1_0_CONFIG Address: CYDEV_UCFG_B1_P3_U1_BASE Size (bytes): 128 */
 150:Generated_Source\PSoC5/cyfitter_cfg.c **** #define BS_UDB_1_1_0_CONFIG_VAL ((const uint8 CYFAR *)0x48000E64u)
 151:Generated_Source\PSoC5/cyfitter_cfg.c **** 
 152:Generated_Source\PSoC5/cyfitter_cfg.c **** /* UCFG_BCTL0 Address: CYREG_BCTL0_MDCLK_EN Size (bytes): 16 */
 153:Generated_Source\PSoC5/cyfitter_cfg.c **** #define BS_UCFG_BCTL0_VAL ((const uint8 CYFAR *)0x48000EE4u)
 154:Generated_Source\PSoC5/cyfitter_cfg.c **** 
 155:Generated_Source\PSoC5/cyfitter_cfg.c **** /* IOPINS0_7 Address: CYREG_PRT12_DR Size (bytes): 10 */
 156:Generated_Source\PSoC5/cyfitter_cfg.c **** #define BS_IOPINS0_7_VAL ((const uint8 CYFAR *)0x48000EF4u)
 157:Generated_Source\PSoC5/cyfitter_cfg.c **** 
 158:Generated_Source\PSoC5/cyfitter_cfg.c **** /* IOPINS0_8 Address: CYREG_PRT15_DR Size (bytes): 10 */
 159:Generated_Source\PSoC5/cyfitter_cfg.c **** #define BS_IOPINS0_8_VAL ((const uint8 CYFAR *)0x48000F00u)
 160:Generated_Source\PSoC5/cyfitter_cfg.c **** 
 161:Generated_Source\PSoC5/cyfitter_cfg.c **** /* IOPINS0_1 Address: CYREG_PRT1_DM0 Size (bytes): 8 */
 162:Generated_Source\PSoC5/cyfitter_cfg.c **** #define BS_IOPINS0_1_VAL ((const uint8 CYFAR *)0x48000F0Cu)
 163:Generated_Source\PSoC5/cyfitter_cfg.c **** 
 164:Generated_Source\PSoC5/cyfitter_cfg.c **** /* IOPINS0_2 Address: CYREG_PRT2_DM0 Size (bytes): 8 */
 165:Generated_Source\PSoC5/cyfitter_cfg.c **** #define BS_IOPINS0_2_VAL ((const uint8 CYFAR *)0x48000F14u)
 166:Generated_Source\PSoC5/cyfitter_cfg.c **** 
 167:Generated_Source\PSoC5/cyfitter_cfg.c **** /* IOPINS0_3 Address: CYREG_PRT3_DR Size (bytes): 10 */
 168:Generated_Source\PSoC5/cyfitter_cfg.c **** #define BS_IOPINS0_3_VAL ((const uint8 CYFAR *)0x48000F1Cu)
 169:Generated_Source\PSoC5/cyfitter_cfg.c **** 
 170:Generated_Source\PSoC5/cyfitter_cfg.c **** /* PHUB_CFGMEM1 Address: CYREG_PHUB_CFGMEM1_CFG0 Size (bytes): 4 */
 171:Generated_Source\PSoC5/cyfitter_cfg.c **** #define BS_PHUB_CFGMEM1_VAL ((const uint8 CYFAR *)0x48000F28u)
 172:Generated_Source\PSoC5/cyfitter_cfg.c **** 
 173:Generated_Source\PSoC5/cyfitter_cfg.c **** 
 174:Generated_Source\PSoC5/cyfitter_cfg.c **** /*******************************************************************************
 175:Generated_Source\PSoC5/cyfitter_cfg.c **** * Function Name: cfg_write_bytes32
 176:Generated_Source\PSoC5/cyfitter_cfg.c **** ********************************************************************************
 177:Generated_Source\PSoC5/cyfitter_cfg.c **** * Summary:
 178:Generated_Source\PSoC5/cyfitter_cfg.c **** *  This function is used for setting up the chip configuration areas that
 179:Generated_Source\PSoC5/cyfitter_cfg.c **** *  contain relatively sparse data.
 180:Generated_Source\PSoC5/cyfitter_cfg.c **** *
 181:Generated_Source\PSoC5/cyfitter_cfg.c **** * Parameters:
 182:Generated_Source\PSoC5/cyfitter_cfg.c **** *   void
 183:Generated_Source\PSoC5/cyfitter_cfg.c **** *
 184:Generated_Source\PSoC5/cyfitter_cfg.c **** * Return:
 185:Generated_Source\PSoC5/cyfitter_cfg.c **** *   void
 186:Generated_Source\PSoC5/cyfitter_cfg.c **** *
 187:Generated_Source\PSoC5/cyfitter_cfg.c **** *******************************************************************************/
 188:Generated_Source\PSoC5/cyfitter_cfg.c **** static void cfg_write_bytes32(const uint32 addr_table[], const cy_cfg_addrvalue_t data_table[]);
 189:Generated_Source\PSoC5/cyfitter_cfg.c **** static void cfg_write_bytes32(const uint32 addr_table[], const cy_cfg_addrvalue_t data_table[])
 190:Generated_Source\PSoC5/cyfitter_cfg.c **** {
 191:Generated_Source\PSoC5/cyfitter_cfg.c **** 	/* For 32-bit little-endian architectures */
 192:Generated_Source\PSoC5/cyfitter_cfg.c **** 	uint32 i, j = 0u;
 193:Generated_Source\PSoC5/cyfitter_cfg.c **** 	for (i = 0u; i < CY_CFG_BASE_ADDR_COUNT; i++)
 194:Generated_Source\PSoC5/cyfitter_cfg.c **** 	{
 195:Generated_Source\PSoC5/cyfitter_cfg.c **** 		uint32 baseAddr = addr_table[i];
 196:Generated_Source\PSoC5/cyfitter_cfg.c **** 		uint8 count = (uint8)baseAddr;
 197:Generated_Source\PSoC5/cyfitter_cfg.c **** 		baseAddr &= 0xFFFFFF00u;
 198:Generated_Source\PSoC5/cyfitter_cfg.c **** 		while (count != 0u)
 199:Generated_Source\PSoC5/cyfitter_cfg.c **** 		{
 200:Generated_Source\PSoC5/cyfitter_cfg.c **** 			CY_SET_XTND_REG8((void CYFAR *)(baseAddr + data_table[j].offset), data_table[j].value);
 201:Generated_Source\PSoC5/cyfitter_cfg.c **** 			j++;
 202:Generated_Source\PSoC5/cyfitter_cfg.c **** 			count--;
ARM GAS  C:\Users\mgronber\AppData\Local\Temp\ccIIwJvg.s 			page 5


 203:Generated_Source\PSoC5/cyfitter_cfg.c **** 		}
 204:Generated_Source\PSoC5/cyfitter_cfg.c **** 	}
 205:Generated_Source\PSoC5/cyfitter_cfg.c **** }
 206:Generated_Source\PSoC5/cyfitter_cfg.c **** 
 207:Generated_Source\PSoC5/cyfitter_cfg.c **** /*******************************************************************************
 208:Generated_Source\PSoC5/cyfitter_cfg.c **** * Function Name: ClockSetup
 209:Generated_Source\PSoC5/cyfitter_cfg.c **** ********************************************************************************
 210:Generated_Source\PSoC5/cyfitter_cfg.c **** *
 211:Generated_Source\PSoC5/cyfitter_cfg.c **** * Summary:
 212:Generated_Source\PSoC5/cyfitter_cfg.c **** *  Performs the initialization of all of the clocks in the device based on the
 213:Generated_Source\PSoC5/cyfitter_cfg.c **** *  settings in the Clock tab of the DWR.  This includes enabling the requested
 214:Generated_Source\PSoC5/cyfitter_cfg.c **** *  clocks and setting the necessary dividers to produce the desired frequency. 
 215:Generated_Source\PSoC5/cyfitter_cfg.c **** *
 216:Generated_Source\PSoC5/cyfitter_cfg.c **** * Parameters:
 217:Generated_Source\PSoC5/cyfitter_cfg.c **** *  void
 218:Generated_Source\PSoC5/cyfitter_cfg.c **** *
 219:Generated_Source\PSoC5/cyfitter_cfg.c **** * Return:
 220:Generated_Source\PSoC5/cyfitter_cfg.c **** *  void
 221:Generated_Source\PSoC5/cyfitter_cfg.c **** *
 222:Generated_Source\PSoC5/cyfitter_cfg.c **** *******************************************************************************/
 223:Generated_Source\PSoC5/cyfitter_cfg.c **** static void ClockSetup(void);
 224:Generated_Source\PSoC5/cyfitter_cfg.c **** static void ClockSetup(void)
 225:Generated_Source\PSoC5/cyfitter_cfg.c **** {
 226:Generated_Source\PSoC5/cyfitter_cfg.c **** 	uint32 timeout;
 227:Generated_Source\PSoC5/cyfitter_cfg.c **** 	uint8 pllLock;
 228:Generated_Source\PSoC5/cyfitter_cfg.c **** 
 229:Generated_Source\PSoC5/cyfitter_cfg.c **** 
 230:Generated_Source\PSoC5/cyfitter_cfg.c **** 	/* Configure Digital Clocks based on settings from Clock DWR */
 231:Generated_Source\PSoC5/cyfitter_cfg.c **** 	CY_SET_XTND_REG16((void CYFAR *)(CYREG_CLKDIST_DCFG0_CFG0), 0x003Au);
 232:Generated_Source\PSoC5/cyfitter_cfg.c **** 	CY_SET_XTND_REG8((void CYFAR *)(CYREG_CLKDIST_DCFG0_CFG0 + 0x2u), 0x18u);
 233:Generated_Source\PSoC5/cyfitter_cfg.c **** 	CY_SET_XTND_REG16((void CYFAR *)(CYREG_CLKDIST_DCFG1_CFG0), 0x0017u);
 234:Generated_Source\PSoC5/cyfitter_cfg.c **** 	CY_SET_XTND_REG8((void CYFAR *)(CYREG_CLKDIST_DCFG1_CFG0 + 0x2u), 0x19u);
 235:Generated_Source\PSoC5/cyfitter_cfg.c **** 	CY_SET_XTND_REG16((void CYFAR *)(CYREG_CLKDIST_DCFG2_CFG0), 0x005Fu);
 236:Generated_Source\PSoC5/cyfitter_cfg.c **** 	CY_SET_XTND_REG8((void CYFAR *)(CYREG_CLKDIST_DCFG2_CFG0 + 0x2u), 0x19u);
 237:Generated_Source\PSoC5/cyfitter_cfg.c **** 	CY_SET_XTND_REG16((void CYFAR *)(CYREG_CLKDIST_DCFG3_CFG0), 0x005Fu);
 238:Generated_Source\PSoC5/cyfitter_cfg.c **** 	CY_SET_XTND_REG8((void CYFAR *)(CYREG_CLKDIST_DCFG3_CFG0 + 0x2u), 0x19u);
 239:Generated_Source\PSoC5/cyfitter_cfg.c **** 
 240:Generated_Source\PSoC5/cyfitter_cfg.c **** 	/* Configure ILO based on settings from Clock DWR */
 241:Generated_Source\PSoC5/cyfitter_cfg.c **** 	CY_SET_XTND_REG8((void CYFAR *)(CYREG_SLOWCLK_ILO_CR0), 0x06u);
 242:Generated_Source\PSoC5/cyfitter_cfg.c **** 
 243:Generated_Source\PSoC5/cyfitter_cfg.c **** 	/* Configure IMO based on settings from Clock DWR */
 244:Generated_Source\PSoC5/cyfitter_cfg.c **** 	CY_SET_XTND_REG8((void CYFAR *)(CYREG_IMO_TR1), (CY_GET_XTND_REG8((void CYFAR *)CYREG_FLSHID_CUST_
 245:Generated_Source\PSoC5/cyfitter_cfg.c **** 	CY_SET_XTND_REG8((void CYFAR *)(CYREG_FASTCLK_IMO_CR), 0x52u);
 246:Generated_Source\PSoC5/cyfitter_cfg.c **** 
 247:Generated_Source\PSoC5/cyfitter_cfg.c **** 	/* Configure PLL based on settings from Clock DWR */
 248:Generated_Source\PSoC5/cyfitter_cfg.c **** 	CY_SET_XTND_REG16((void CYFAR *)(CYREG_FASTCLK_PLL_P), 0x0919u);
 249:Generated_Source\PSoC5/cyfitter_cfg.c **** 	CY_SET_XTND_REG16((void CYFAR *)(CYREG_FASTCLK_PLL_CFG0), 0x1251u);
 250:Generated_Source\PSoC5/cyfitter_cfg.c **** 	/* Wait up to 250us for the PLL to lock */
 251:Generated_Source\PSoC5/cyfitter_cfg.c **** 	pllLock = 0u;
 252:Generated_Source\PSoC5/cyfitter_cfg.c **** 	for (timeout = 250u / 10u; (timeout > 0u) && (pllLock != 0x03u); timeout--)
 253:Generated_Source\PSoC5/cyfitter_cfg.c **** 	{ 
 254:Generated_Source\PSoC5/cyfitter_cfg.c **** 		pllLock = 0x03u & ((uint8)((uint8)pllLock << 1) | ((CY_GET_XTND_REG8((void CYFAR *)CYREG_FASTCLK_
 255:Generated_Source\PSoC5/cyfitter_cfg.c **** 		CyDelayCycles(10u * 12u); /* Delay 10us based on 12MHz clock */
 256:Generated_Source\PSoC5/cyfitter_cfg.c **** 	}
 257:Generated_Source\PSoC5/cyfitter_cfg.c **** 	/* If we ran out of time the PLL didn't lock so go to the error function */
 258:Generated_Source\PSoC5/cyfitter_cfg.c **** 	if (timeout == 0u)
 259:Generated_Source\PSoC5/cyfitter_cfg.c **** 	{
ARM GAS  C:\Users\mgronber\AppData\Local\Temp\ccIIwJvg.s 			page 6


 260:Generated_Source\PSoC5/cyfitter_cfg.c **** 		CyClockStartupError(CYCLOCKSTART_PLL_ERROR);
 261:Generated_Source\PSoC5/cyfitter_cfg.c **** 	}
 262:Generated_Source\PSoC5/cyfitter_cfg.c **** 
 263:Generated_Source\PSoC5/cyfitter_cfg.c **** 	/* Configure Bus/Master Clock based on settings from Clock DWR */
 264:Generated_Source\PSoC5/cyfitter_cfg.c **** 	CY_SET_XTND_REG16((void CYFAR *)(CYREG_CLKDIST_MSTR0), 0x0100u);
 265:Generated_Source\PSoC5/cyfitter_cfg.c **** 	CY_SET_XTND_REG8((void CYFAR *)(CYREG_CLKDIST_MSTR0), 0x07u);
 266:Generated_Source\PSoC5/cyfitter_cfg.c **** 	CY_SET_XTND_REG8((void CYFAR *)(CYREG_CLKDIST_BCFG0), 0x00u);
 267:Generated_Source\PSoC5/cyfitter_cfg.c **** 	CY_SET_XTND_REG8((void CYFAR *)(CYREG_CLKDIST_BCFG2), 0x48u);
 268:Generated_Source\PSoC5/cyfitter_cfg.c **** 	CY_SET_XTND_REG8((void CYFAR *)(CYREG_CLKDIST_MSTR0), 0x00u);
 269:Generated_Source\PSoC5/cyfitter_cfg.c **** 
 270:Generated_Source\PSoC5/cyfitter_cfg.c **** 	/* Configure USB Clock based on settings from Clock DWR */
 271:Generated_Source\PSoC5/cyfitter_cfg.c **** 	CY_SET_XTND_REG8((void CYFAR *)(CYREG_CLKDIST_UCFG), 0x00u);
 272:Generated_Source\PSoC5/cyfitter_cfg.c **** 	CY_SET_XTND_REG8((void CYFAR *)(CYREG_CLKDIST_LD), 0x02u);
 273:Generated_Source\PSoC5/cyfitter_cfg.c **** 
 274:Generated_Source\PSoC5/cyfitter_cfg.c **** 	CY_SET_XTND_REG8((void CYFAR *)(CYREG_PM_ACT_CFG2), ((CY_GET_XTND_REG8((void CYFAR *)CYREG_PM_ACT_
 275:Generated_Source\PSoC5/cyfitter_cfg.c **** }
 276:Generated_Source\PSoC5/cyfitter_cfg.c **** 
 277:Generated_Source\PSoC5/cyfitter_cfg.c **** 
 278:Generated_Source\PSoC5/cyfitter_cfg.c **** /* Analog API Functions */
 279:Generated_Source\PSoC5/cyfitter_cfg.c **** 
 280:Generated_Source\PSoC5/cyfitter_cfg.c **** 
 281:Generated_Source\PSoC5/cyfitter_cfg.c **** /*******************************************************************************
 282:Generated_Source\PSoC5/cyfitter_cfg.c **** * Function Name: AnalogSetDefault
 283:Generated_Source\PSoC5/cyfitter_cfg.c **** ********************************************************************************
 284:Generated_Source\PSoC5/cyfitter_cfg.c **** *
 285:Generated_Source\PSoC5/cyfitter_cfg.c **** * Summary:
 286:Generated_Source\PSoC5/cyfitter_cfg.c **** *  Sets up the analog portions of the chip to default values based on chip
 287:Generated_Source\PSoC5/cyfitter_cfg.c **** *  configuration options from the project.
 288:Generated_Source\PSoC5/cyfitter_cfg.c **** *
 289:Generated_Source\PSoC5/cyfitter_cfg.c **** * Parameters:
 290:Generated_Source\PSoC5/cyfitter_cfg.c **** *  void
 291:Generated_Source\PSoC5/cyfitter_cfg.c **** *
 292:Generated_Source\PSoC5/cyfitter_cfg.c **** * Return:
 293:Generated_Source\PSoC5/cyfitter_cfg.c **** *  void
 294:Generated_Source\PSoC5/cyfitter_cfg.c **** *
 295:Generated_Source\PSoC5/cyfitter_cfg.c **** *******************************************************************************/
 296:Generated_Source\PSoC5/cyfitter_cfg.c **** static void AnalogSetDefault(void);
 297:Generated_Source\PSoC5/cyfitter_cfg.c **** static void AnalogSetDefault(void)
 298:Generated_Source\PSoC5/cyfitter_cfg.c **** {
 299:Generated_Source\PSoC5/cyfitter_cfg.c **** 	uint8 bg_xover_inl_trim = CY_GET_XTND_REG8((void CYFAR *)(CYREG_FLSHID_MFG_CFG_BG_XOVER_INL_TRIM +
 300:Generated_Source\PSoC5/cyfitter_cfg.c **** 	uint8 cr4 = CY_GET_XTND_REG8((void CYFAR *)(CYREG_RESET_CR4));
 301:Generated_Source\PSoC5/cyfitter_cfg.c **** 	uint8 cr5 = CY_GET_XTND_REG8((void CYFAR *)(CYREG_RESET_CR5));
 302:Generated_Source\PSoC5/cyfitter_cfg.c **** 	CY_SET_XTND_REG8((void CYFAR *)(CYREG_BG_DFT0), (bg_xover_inl_trim & 0x07u));
 303:Generated_Source\PSoC5/cyfitter_cfg.c **** 	CY_SET_XTND_REG8((void CYFAR *)(CYREG_BG_DFT1), ((bg_xover_inl_trim >> 4) & 0x0Fu));
 304:Generated_Source\PSoC5/cyfitter_cfg.c **** 	/* Disable PRES while setting up SAR voltage reference */
 305:Generated_Source\PSoC5/cyfitter_cfg.c **** 	CY_SET_XTND_REG8((void CYFAR *)(CYREG_RESET_CR4), (cr4 | 0x03u));
 306:Generated_Source\PSoC5/cyfitter_cfg.c **** 	CY_SET_XTND_REG8((void CYFAR *)(CYREG_RESET_CR5), (cr5 | 0x03u));
 307:Generated_Source\PSoC5/cyfitter_cfg.c **** 	CY_SET_XTND_REG8((void CYFAR *)CYREG_PRT1_AMUX, 0x40u);
 308:Generated_Source\PSoC5/cyfitter_cfg.c **** 	CY_SET_XTND_REG16((void CYFAR *)CYREG_PRT2_AMUX, 0x6106u);
 309:Generated_Source\PSoC5/cyfitter_cfg.c **** 	CY_SET_XTND_REG16((void CYFAR *)CYREG_PRT15_AMUX, 0x0808u);
 310:Generated_Source\PSoC5/cyfitter_cfg.c **** 	CY_SET_XTND_REG8((void CYFAR *)CYREG_SAR0_CSR1, 0x40u);
 311:Generated_Source\PSoC5/cyfitter_cfg.c **** 	CY_SET_XTND_REG8((void CYFAR *)CYREG_SAR0_CSR3, 0x40u);
 312:Generated_Source\PSoC5/cyfitter_cfg.c **** 	CY_SET_XTND_REG8((void CYFAR *)CYREG_SAR1_CSR1, 0x80u);
 313:Generated_Source\PSoC5/cyfitter_cfg.c **** 	CY_SET_XTND_REG8((void CYFAR *)CYREG_DSM0_SW0, 0x12u);
 314:Generated_Source\PSoC5/cyfitter_cfg.c **** 	CY_SET_XTND_REG8((void CYFAR *)CYREG_SAR0_SW0, 0x81u);
 315:Generated_Source\PSoC5/cyfitter_cfg.c **** 	CY_SET_XTND_REG8((void CYFAR *)CYREG_SAR0_SW3, 0x21u);
 316:Generated_Source\PSoC5/cyfitter_cfg.c **** 	CY_SET_XTND_REG8((void CYFAR *)CYREG_SAR1_SW0, 0x04u);
ARM GAS  C:\Users\mgronber\AppData\Local\Temp\ccIIwJvg.s 			page 7


 317:Generated_Source\PSoC5/cyfitter_cfg.c **** 	CY_SET_XTND_REG8((void CYFAR *)CYREG_SAR1_SW4, 0x10u);
 318:Generated_Source\PSoC5/cyfitter_cfg.c **** 	CY_SET_XTND_REG8((void CYFAR *)CYREG_BUS_SW0, 0x94u);
 319:Generated_Source\PSoC5/cyfitter_cfg.c **** 	CyDelayUs(10u); /* Allow vref to settle before re-enabling PRES */
 320:Generated_Source\PSoC5/cyfitter_cfg.c **** 	CY_SET_XTND_REG8((void CYFAR *)(CYREG_RESET_CR5), (cr5));
 321:Generated_Source\PSoC5/cyfitter_cfg.c **** 	CY_SET_XTND_REG8((void CYFAR *)(CYREG_RESET_CR4), (cr4));
 322:Generated_Source\PSoC5/cyfitter_cfg.c **** 	CY_SET_XTND_REG8((void CYFAR *)CYREG_PUMP_CR0, 0x44u);
 323:Generated_Source\PSoC5/cyfitter_cfg.c **** }
 324:Generated_Source\PSoC5/cyfitter_cfg.c **** 
 325:Generated_Source\PSoC5/cyfitter_cfg.c **** 
 326:Generated_Source\PSoC5/cyfitter_cfg.c **** /*******************************************************************************
 327:Generated_Source\PSoC5/cyfitter_cfg.c **** * Function Name: SetAnalogRoutingPumps
 328:Generated_Source\PSoC5/cyfitter_cfg.c **** ********************************************************************************
 329:Generated_Source\PSoC5/cyfitter_cfg.c **** *
 330:Generated_Source\PSoC5/cyfitter_cfg.c **** * Summary:
 331:Generated_Source\PSoC5/cyfitter_cfg.c **** * Enables or disables the analog pumps feeding analog routing switches.
 332:Generated_Source\PSoC5/cyfitter_cfg.c **** * Intended to be called at startup, based on the Vdda system configuration;
 333:Generated_Source\PSoC5/cyfitter_cfg.c **** * may be called during operation when the user informs us that the Vdda voltage
 334:Generated_Source\PSoC5/cyfitter_cfg.c **** * crossed the pump threshold.
 335:Generated_Source\PSoC5/cyfitter_cfg.c **** *
 336:Generated_Source\PSoC5/cyfitter_cfg.c **** * Parameters:
 337:Generated_Source\PSoC5/cyfitter_cfg.c **** *  enabled - 1 to enable the pumps, 0 to disable the pumps
 338:Generated_Source\PSoC5/cyfitter_cfg.c **** *
 339:Generated_Source\PSoC5/cyfitter_cfg.c **** * Return:
 340:Generated_Source\PSoC5/cyfitter_cfg.c **** *  void
 341:Generated_Source\PSoC5/cyfitter_cfg.c **** *
 342:Generated_Source\PSoC5/cyfitter_cfg.c **** *******************************************************************************/
 343:Generated_Source\PSoC5/cyfitter_cfg.c **** void SetAnalogRoutingPumps(uint8 enabled)
 344:Generated_Source\PSoC5/cyfitter_cfg.c **** {
  27              		.loc 1 344 0
  28              		.cfi_startproc
  29              		@ args = 0, pretend = 0, frame = 0
  30              		@ frame_needed = 0, uses_anonymous_args = 0
  31              		@ link register save eliminated.
  32              	.LVL0:
 345:Generated_Source\PSoC5/cyfitter_cfg.c **** 	uint8 regValue = CY_GET_XTND_REG8((void CYFAR *)CYREG_PUMP_CR0);
  33              		.loc 1 345 0
  34 0000 064B     		ldr	r3, .L6
  35 0002 1B78     		ldrb	r3, [r3]	@ zero_extendqisi2
  36 0004 DBB2     		uxtb	r3, r3
  37              	.LVL1:
 346:Generated_Source\PSoC5/cyfitter_cfg.c **** 	if (enabled != 0u)
  38              		.loc 1 346 0
  39 0006 20B9     		cbnz	r0, .L5
 347:Generated_Source\PSoC5/cyfitter_cfg.c **** 	{
 348:Generated_Source\PSoC5/cyfitter_cfg.c **** 		regValue |= 0x22u;
 349:Generated_Source\PSoC5/cyfitter_cfg.c **** 	}
 350:Generated_Source\PSoC5/cyfitter_cfg.c **** 	else
 351:Generated_Source\PSoC5/cyfitter_cfg.c **** 	{
 352:Generated_Source\PSoC5/cyfitter_cfg.c **** 		regValue &= (uint8)~0x22u;
 353:Generated_Source\PSoC5/cyfitter_cfg.c **** 	}
 354:Generated_Source\PSoC5/cyfitter_cfg.c **** 	CY_SET_XTND_REG8((void CYFAR *)CYREG_PUMP_CR0, regValue);
  40              		.loc 1 354 0
  41 0008 044A     		ldr	r2, .L6
 352:Generated_Source\PSoC5/cyfitter_cfg.c **** 	}
  42              		.loc 1 352 0
  43 000a 03F0DD03 		and	r3, r3, #221
  44              	.LVL2:
ARM GAS  C:\Users\mgronber\AppData\Local\Temp\ccIIwJvg.s 			page 8


  45              		.loc 1 354 0
  46 000e 1370     		strb	r3, [r2]
  47 0010 7047     		bx	lr
  48              	.L5:
  49 0012 024A     		ldr	r2, .L6
 348:Generated_Source\PSoC5/cyfitter_cfg.c **** 	}
  50              		.loc 1 348 0
  51 0014 43F02203 		orr	r3, r3, #34
  52              	.LVL3:
  53              		.loc 1 354 0
  54 0018 1370     		strb	r3, [r2]
  55 001a 7047     		bx	lr
  56              	.L7:
  57              		.align	2
  58              	.L6:
  59 001c 76580040 		.word	1073764470
  60              		.cfi_endproc
  61              	.LFE7:
  62              		.size	SetAnalogRoutingPumps, .-SetAnalogRoutingPumps
  63              		.section	.text.cyfitter_cfg,"ax",%progbits
  64              		.align	2
  65              		.global	cyfitter_cfg
  66              		.thumb
  67              		.thumb_func
  68              		.type	cyfitter_cfg, %function
  69              	cyfitter_cfg:
  70              	.LFB8:
 355:Generated_Source\PSoC5/cyfitter_cfg.c **** }
 356:Generated_Source\PSoC5/cyfitter_cfg.c **** 
 357:Generated_Source\PSoC5/cyfitter_cfg.c **** #define CY_AMUX_UNUSED CYREG_BOOST_SR
 358:Generated_Source\PSoC5/cyfitter_cfg.c **** 
 359:Generated_Source\PSoC5/cyfitter_cfg.c **** 
 360:Generated_Source\PSoC5/cyfitter_cfg.c **** /*******************************************************************************
 361:Generated_Source\PSoC5/cyfitter_cfg.c **** * Function Name: cyfitter_cfg
 362:Generated_Source\PSoC5/cyfitter_cfg.c **** ********************************************************************************
 363:Generated_Source\PSoC5/cyfitter_cfg.c **** * Summary:
 364:Generated_Source\PSoC5/cyfitter_cfg.c **** *  This function is called by the start-up code for the selected device. It
 365:Generated_Source\PSoC5/cyfitter_cfg.c **** *  performs all of the necessary device configuration based on the design
 366:Generated_Source\PSoC5/cyfitter_cfg.c **** *  settings.  This includes settings from the Design Wide Resources (DWR) such
 367:Generated_Source\PSoC5/cyfitter_cfg.c **** *  as Clocks and Pins as well as any component configuration that is necessary.
 368:Generated_Source\PSoC5/cyfitter_cfg.c **** *
 369:Generated_Source\PSoC5/cyfitter_cfg.c **** * Parameters:  
 370:Generated_Source\PSoC5/cyfitter_cfg.c **** *   void
 371:Generated_Source\PSoC5/cyfitter_cfg.c **** *
 372:Generated_Source\PSoC5/cyfitter_cfg.c **** * Return:
 373:Generated_Source\PSoC5/cyfitter_cfg.c **** *   void
 374:Generated_Source\PSoC5/cyfitter_cfg.c **** *
 375:Generated_Source\PSoC5/cyfitter_cfg.c **** *******************************************************************************/
 376:Generated_Source\PSoC5/cyfitter_cfg.c **** 
 377:Generated_Source\PSoC5/cyfitter_cfg.c **** void cyfitter_cfg(void)
 378:Generated_Source\PSoC5/cyfitter_cfg.c **** {
  71              		.loc 1 378 0
  72              		.cfi_startproc
  73              		@ args = 0, pretend = 0, frame = 0
  74              		@ frame_needed = 0, uses_anonymous_args = 0
  75 0000 2DE9F84F 		push	{r3, r4, r5, r6, r7, r8, r9, r10, fp, lr}
  76              		.cfi_def_cfa_offset 40
ARM GAS  C:\Users\mgronber\AppData\Local\Temp\ccIIwJvg.s 			page 9


  77              		.cfi_offset 3, -40
  78              		.cfi_offset 4, -36
  79              		.cfi_offset 5, -32
  80              		.cfi_offset 6, -28
  81              		.cfi_offset 7, -24
  82              		.cfi_offset 8, -20
  83              		.cfi_offset 9, -16
  84              		.cfi_offset 10, -12
  85              		.cfi_offset 11, -8
  86              		.cfi_offset 14, -4
 379:Generated_Source\PSoC5/cyfitter_cfg.c **** #ifdef CYGlobalIntDisable
 380:Generated_Source\PSoC5/cyfitter_cfg.c **** 	/* Disable interrupts by default. Let user enable if/when they want. */
 381:Generated_Source\PSoC5/cyfitter_cfg.c **** 	CYGlobalIntDisable
  87              		.loc 1 381 0
  88              	@ 381 "Generated_Source\PSoC5\cyfitter_cfg.c" 1
  89 0004 72B6     		CPSID   i
  90              	@ 0 "" 2
  91              		.thumb
  92              	.LBB58:
  93              	.LBB59:
 248:Generated_Source\PSoC5/cyfitter_cfg.c **** 	CY_SET_XTND_REG16((void CYFAR *)(CYREG_FASTCLK_PLL_CFG0), 0x1251u);
  94              		.loc 1 248 0
  95 0006 40F61916 		movw	r6, #2329
 249:Generated_Source\PSoC5/cyfitter_cfg.c **** 	/* Wait up to 250us for the PLL to lock */
  96              		.loc 1 249 0
  97 000a 41F25121 		movw	r1, #4689
  98              	.LBE59:
  99              	.LBE58:
 382:Generated_Source\PSoC5/cyfitter_cfg.c **** #endif
 383:Generated_Source\PSoC5/cyfitter_cfg.c **** 
 384:Generated_Source\PSoC5/cyfitter_cfg.c **** 
 385:Generated_Source\PSoC5/cyfitter_cfg.c **** 	/* Set Flash Cycles based on max possible frequency in case a glitch occurs during ClockSetup(). *
 386:Generated_Source\PSoC5/cyfitter_cfg.c **** 	CY_SET_XTND_REG8((void CYFAR *)(CYREG_CACHE_CC_CTL), (((CYDEV_INSTRUCT_CACHE_ENABLED) != 0) ? 0x61
 100              		.loc 1 386 0
 101 000e AC4C     		ldr	r4, .L32
 102              	.LBB64:
 103              	.LBB60:
 231:Generated_Source\PSoC5/cyfitter_cfg.c **** 	CY_SET_XTND_REG8((void CYFAR *)(CYREG_CLKDIST_DCFG0_CFG0 + 0x2u), 0x18u);
 104              		.loc 1 231 0
 105 0010 AC4F     		ldr	r7, .L32+4
 106              	.LBE60:
 107              	.LBE64:
 108              		.loc 1 386 0
 109 0012 4FF0610B 		mov	fp, #97
 110 0016 84F800B0 		strb	fp, [r4]
 111              	.LBB65:
 112              	.LBB61:
 232:Generated_Source\PSoC5/cyfitter_cfg.c **** 	CY_SET_XTND_REG16((void CYFAR *)(CYREG_CLKDIST_DCFG1_CFG0), 0x0017u);
 113              		.loc 1 232 0
 114 001a AB4A     		ldr	r2, .L32+8
 233:Generated_Source\PSoC5/cyfitter_cfg.c **** 	CY_SET_XTND_REG8((void CYFAR *)(CYREG_CLKDIST_DCFG1_CFG0 + 0x2u), 0x19u);
 115              		.loc 1 233 0
 116 001c AB48     		ldr	r0, .L32+12
 231:Generated_Source\PSoC5/cyfitter_cfg.c **** 	CY_SET_XTND_REG8((void CYFAR *)(CYREG_CLKDIST_DCFG0_CFG0 + 0x2u), 0x18u);
 117              		.loc 1 231 0
 118 001e 4FF03A0B 		mov	fp, #58
 119 0022 A7F800B0 		strh	fp, [r7]	@ movhi
ARM GAS  C:\Users\mgronber\AppData\Local\Temp\ccIIwJvg.s 			page 10


 237:Generated_Source\PSoC5/cyfitter_cfg.c **** 	CY_SET_XTND_REG8((void CYFAR *)(CYREG_CLKDIST_DCFG3_CFG0 + 0x2u), 0x19u);
 120              		.loc 1 237 0
 121 0026 DFF810C3 		ldr	ip, .L32+120
 238:Generated_Source\PSoC5/cyfitter_cfg.c **** 
 122              		.loc 1 238 0
 123 002a DFF810E3 		ldr	lr, .L32+124
 232:Generated_Source\PSoC5/cyfitter_cfg.c **** 	CY_SET_XTND_REG16((void CYFAR *)(CYREG_CLKDIST_DCFG1_CFG0), 0x0017u);
 124              		.loc 1 232 0
 125 002e 1827     		movs	r7, #24
 234:Generated_Source\PSoC5/cyfitter_cfg.c **** 	CY_SET_XTND_REG16((void CYFAR *)(CYREG_CLKDIST_DCFG2_CFG0), 0x005Fu);
 126              		.loc 1 234 0
 127 0030 DFF80CA3 		ldr	r10, .L32+128
 235:Generated_Source\PSoC5/cyfitter_cfg.c **** 	CY_SET_XTND_REG8((void CYFAR *)(CYREG_CLKDIST_DCFG2_CFG0 + 0x2u), 0x19u);
 128              		.loc 1 235 0
 129 0034 DFF80C93 		ldr	r9, .L32+132
 236:Generated_Source\PSoC5/cyfitter_cfg.c **** 	CY_SET_XTND_REG16((void CYFAR *)(CYREG_CLKDIST_DCFG3_CFG0), 0x005Fu);
 130              		.loc 1 236 0
 131 0038 DFF80C83 		ldr	r8, .L32+136
 233:Generated_Source\PSoC5/cyfitter_cfg.c **** 	CY_SET_XTND_REG8((void CYFAR *)(CYREG_CLKDIST_DCFG1_CFG0 + 0x2u), 0x19u);
 132              		.loc 1 233 0
 133 003c 4FF0170B 		mov	fp, #23
 232:Generated_Source\PSoC5/cyfitter_cfg.c **** 	CY_SET_XTND_REG16((void CYFAR *)(CYREG_CLKDIST_DCFG1_CFG0), 0x0017u);
 134              		.loc 1 232 0
 135 0040 1770     		strb	r7, [r2]
 234:Generated_Source\PSoC5/cyfitter_cfg.c **** 	CY_SET_XTND_REG16((void CYFAR *)(CYREG_CLKDIST_DCFG2_CFG0), 0x005Fu);
 136              		.loc 1 234 0
 137 0042 1923     		movs	r3, #25
 233:Generated_Source\PSoC5/cyfitter_cfg.c **** 	CY_SET_XTND_REG8((void CYFAR *)(CYREG_CLKDIST_DCFG1_CFG0 + 0x2u), 0x19u);
 138              		.loc 1 233 0
 139 0044 A0F800B0 		strh	fp, [r0]	@ movhi
 241:Generated_Source\PSoC5/cyfitter_cfg.c **** 
 140              		.loc 1 241 0
 141 0048 A4F5A064 		sub	r4, r4, #1280
 235:Generated_Source\PSoC5/cyfitter_cfg.c **** 	CY_SET_XTND_REG8((void CYFAR *)(CYREG_CLKDIST_DCFG2_CFG0 + 0x2u), 0x19u);
 142              		.loc 1 235 0
 143 004c 5F22     		movs	r2, #95
 241:Generated_Source\PSoC5/cyfitter_cfg.c **** 
 144              		.loc 1 241 0
 145 004e 0627     		movs	r7, #6
 244:Generated_Source\PSoC5/cyfitter_cfg.c **** 	CY_SET_XTND_REG8((void CYFAR *)(CYREG_FASTCLK_IMO_CR), 0x52u);
 146              		.loc 1 244 0
 147 0050 9F48     		ldr	r0, .L32+16
 234:Generated_Source\PSoC5/cyfitter_cfg.c **** 	CY_SET_XTND_REG16((void CYFAR *)(CYREG_CLKDIST_DCFG2_CFG0), 0x005Fu);
 148              		.loc 1 234 0
 149 0052 8AF80030 		strb	r3, [r10]
 235:Generated_Source\PSoC5/cyfitter_cfg.c **** 	CY_SET_XTND_REG8((void CYFAR *)(CYREG_CLKDIST_DCFG2_CFG0 + 0x2u), 0x19u);
 150              		.loc 1 235 0
 151 0056 A9F80020 		strh	r2, [r9]	@ movhi
 236:Generated_Source\PSoC5/cyfitter_cfg.c **** 	CY_SET_XTND_REG16((void CYFAR *)(CYREG_CLKDIST_DCFG3_CFG0), 0x005Fu);
 152              		.loc 1 236 0
 153 005a 88F80030 		strb	r3, [r8]
 237:Generated_Source\PSoC5/cyfitter_cfg.c **** 	CY_SET_XTND_REG8((void CYFAR *)(CYREG_CLKDIST_DCFG3_CFG0 + 0x2u), 0x19u);
 154              		.loc 1 237 0
 155 005e ACF80020 		strh	r2, [ip]	@ movhi
 238:Generated_Source\PSoC5/cyfitter_cfg.c **** 
 156              		.loc 1 238 0
 157 0062 8EF80030 		strb	r3, [lr]
ARM GAS  C:\Users\mgronber\AppData\Local\Temp\ccIIwJvg.s 			page 11


 241:Generated_Source\PSoC5/cyfitter_cfg.c **** 
 158              		.loc 1 241 0
 159 0066 2770     		strb	r7, [r4]
 249:Generated_Source\PSoC5/cyfitter_cfg.c **** 	/* Wait up to 250us for the PLL to lock */
 160              		.loc 1 249 0
 161 0068 1D46     		mov	r5, r3
 244:Generated_Source\PSoC5/cyfitter_cfg.c **** 	CY_SET_XTND_REG8((void CYFAR *)(CYREG_FASTCLK_IMO_CR), 0x52u);
 162              		.loc 1 244 0
 163 006a 0378     		ldrb	r3, [r0]	@ zero_extendqisi2
 249:Generated_Source\PSoC5/cyfitter_cfg.c **** 	/* Wait up to 250us for the PLL to lock */
 164              		.loc 1 249 0
 165 006c 994A     		ldr	r2, .L32+20
 248:Generated_Source\PSoC5/cyfitter_cfg.c **** 	CY_SET_XTND_REG16((void CYFAR *)(CYREG_FASTCLK_PLL_CFG0), 0x1251u);
 166              		.loc 1 248 0
 167 006e 9A48     		ldr	r0, .L32+24
 244:Generated_Source\PSoC5/cyfitter_cfg.c **** 	CY_SET_XTND_REG8((void CYFAR *)(CYREG_FASTCLK_IMO_CR), 0x52u);
 168              		.loc 1 244 0
 169 0070 DBB2     		uxtb	r3, r3
 245:Generated_Source\PSoC5/cyfitter_cfg.c **** 
 170              		.loc 1 245 0
 171 0072 4FF0520C 		mov	ip, #82
 244:Generated_Source\PSoC5/cyfitter_cfg.c **** 	CY_SET_XTND_REG8((void CYFAR *)(CYREG_FASTCLK_IMO_CR), 0x52u);
 172              		.loc 1 244 0
 173 0076 84F8A133 		strb	r3, [r4, #929]
 254:Generated_Source\PSoC5/cyfitter_cfg.c **** 		CyDelayCycles(10u * 12u); /* Delay 10us based on 12MHz clock */
 174              		.loc 1 254 0
 175 007a 984F     		ldr	r7, .L32+28
 245:Generated_Source\PSoC5/cyfitter_cfg.c **** 
 176              		.loc 1 245 0
 177 007c 8EF872C1 		strb	ip, [lr, #370]
 251:Generated_Source\PSoC5/cyfitter_cfg.c **** 	for (timeout = 250u / 10u; (timeout > 0u) && (pllLock != 0x03u); timeout--)
 178              		.loc 1 251 0
 179 0080 0024     		movs	r4, #0
 248:Generated_Source\PSoC5/cyfitter_cfg.c **** 	CY_SET_XTND_REG16((void CYFAR *)(CYREG_FASTCLK_PLL_CFG0), 0x1251u);
 180              		.loc 1 248 0
 181 0082 0680     		strh	r6, [r0]	@ movhi
 249:Generated_Source\PSoC5/cyfitter_cfg.c **** 	/* Wait up to 250us for the PLL to lock */
 182              		.loc 1 249 0
 183 0084 1180     		strh	r1, [r2]	@ movhi
 184              	.LVL4:
 185 0086 01E0     		b	.L10
 186              	.LVL5:
 187              	.L31:
 252:Generated_Source\PSoC5/cyfitter_cfg.c **** 	{ 
 188              		.loc 1 252 0
 189 0088 032C     		cmp	r4, #3
 190 008a 0CD0     		beq	.L30
 191              	.LVL6:
 192              	.L10:
 254:Generated_Source\PSoC5/cyfitter_cfg.c **** 		CyDelayCycles(10u * 12u); /* Delay 10us based on 12MHz clock */
 193              		.loc 1 254 0
 194 008c 3B78     		ldrb	r3, [r7]	@ zero_extendqisi2
 255:Generated_Source\PSoC5/cyfitter_cfg.c **** 	}
 195              		.loc 1 255 0
 196 008e 7820     		movs	r0, #120
 254:Generated_Source\PSoC5/cyfitter_cfg.c **** 		CyDelayCycles(10u * 12u); /* Delay 10us based on 12MHz clock */
 197              		.loc 1 254 0
ARM GAS  C:\Users\mgronber\AppData\Local\Temp\ccIIwJvg.s 			page 12


 198 0090 03F00103 		and	r3, r3, #1
 199 0094 43EA4404 		orr	r4, r3, r4, lsl #1
 200              	.LVL7:
 255:Generated_Source\PSoC5/cyfitter_cfg.c **** 	}
 201              		.loc 1 255 0
 202 0098 FFF7FEFF 		bl	CyDelayCycles
 203              	.LVL8:
 252:Generated_Source\PSoC5/cyfitter_cfg.c **** 	{ 
 204              		.loc 1 252 0
 205 009c 013D     		subs	r5, r5, #1
 206              	.LVL9:
 254:Generated_Source\PSoC5/cyfitter_cfg.c **** 		CyDelayCycles(10u * 12u); /* Delay 10us based on 12MHz clock */
 207              		.loc 1 254 0
 208 009e 04F00304 		and	r4, r4, #3
 209              	.LVL10:
 252:Generated_Source\PSoC5/cyfitter_cfg.c **** 	{ 
 210              		.loc 1 252 0
 211 00a2 F1D1     		bne	.L31
 212              	.L9:
 213 00a4 FEE7     		b	.L9
 214              	.L30:
 215 00a6 8E4E     		ldr	r6, .L32+32
 264:Generated_Source\PSoC5/cyfitter_cfg.c **** 	CY_SET_XTND_REG8((void CYFAR *)(CYREG_CLKDIST_MSTR0), 0x07u);
 216              		.loc 1 264 0
 217 00a8 8E4A     		ldr	r2, .L32+36
 218 00aa 3546     		mov	r5, r6
 219              	.LVL11:
 272:Generated_Source\PSoC5/cyfitter_cfg.c **** 
 220              		.loc 1 272 0
 221 00ac 8E48     		ldr	r0, .L32+40
 266:Generated_Source\PSoC5/cyfitter_cfg.c **** 	CY_SET_XTND_REG8((void CYFAR *)(CYREG_CLKDIST_BCFG2), 0x48u);
 222              		.loc 1 266 0
 223 00ae DFF89C92 		ldr	r9, .L32+140
 267:Generated_Source\PSoC5/cyfitter_cfg.c **** 	CY_SET_XTND_REG8((void CYFAR *)(CYREG_CLKDIST_MSTR0), 0x00u);
 224              		.loc 1 267 0
 225 00b2 DFF89CC2 		ldr	ip, .L32+144
 271:Generated_Source\PSoC5/cyfitter_cfg.c **** 	CY_SET_XTND_REG8((void CYFAR *)(CYREG_CLKDIST_LD), 0x02u);
 226              		.loc 1 271 0
 227 00b6 DFF89CE2 		ldr	lr, .L32+148
 266:Generated_Source\PSoC5/cyfitter_cfg.c **** 	CY_SET_XTND_REG8((void CYFAR *)(CYREG_CLKDIST_BCFG2), 0x48u);
 228              		.loc 1 266 0
 229 00ba 0023     		movs	r3, #0
 272:Generated_Source\PSoC5/cyfitter_cfg.c **** 
 230              		.loc 1 272 0
 231 00bc 0227     		movs	r7, #2
 274:Generated_Source\PSoC5/cyfitter_cfg.c **** }
 232              		.loc 1 274 0
 233 00be 8B49     		ldr	r1, .L32+44
 264:Generated_Source\PSoC5/cyfitter_cfg.c **** 	CY_SET_XTND_REG8((void CYFAR *)(CYREG_CLKDIST_MSTR0), 0x07u);
 234              		.loc 1 264 0
 235 00c0 4FF4807B 		mov	fp, #256
 265:Generated_Source\PSoC5/cyfitter_cfg.c **** 	CY_SET_XTND_REG8((void CYFAR *)(CYREG_CLKDIST_BCFG0), 0x00u);
 236              		.loc 1 265 0
 237 00c4 4FF0070A 		mov	r10, #7
 267:Generated_Source\PSoC5/cyfitter_cfg.c **** 	CY_SET_XTND_REG8((void CYFAR *)(CYREG_CLKDIST_MSTR0), 0x00u);
 238              		.loc 1 267 0
 239 00c8 4FF04808 		mov	r8, #72
ARM GAS  C:\Users\mgronber\AppData\Local\Temp\ccIIwJvg.s 			page 13


 264:Generated_Source\PSoC5/cyfitter_cfg.c **** 	CY_SET_XTND_REG8((void CYFAR *)(CYREG_CLKDIST_MSTR0), 0x07u);
 240              		.loc 1 264 0
 241 00cc A2F800B0 		strh	fp, [r2]	@ movhi
 265:Generated_Source\PSoC5/cyfitter_cfg.c **** 	CY_SET_XTND_REG8((void CYFAR *)(CYREG_CLKDIST_BCFG0), 0x00u);
 242              		.loc 1 265 0
 243 00d0 82F800A0 		strb	r10, [r2]
 266:Generated_Source\PSoC5/cyfitter_cfg.c **** 	CY_SET_XTND_REG8((void CYFAR *)(CYREG_CLKDIST_BCFG2), 0x48u);
 244              		.loc 1 266 0
 245 00d4 89F80030 		strb	r3, [r9]
 267:Generated_Source\PSoC5/cyfitter_cfg.c **** 	CY_SET_XTND_REG8((void CYFAR *)(CYREG_CLKDIST_MSTR0), 0x00u);
 246              		.loc 1 267 0
 247 00d8 8CF80080 		strb	r8, [ip]
 268:Generated_Source\PSoC5/cyfitter_cfg.c **** 
 248              		.loc 1 268 0
 249 00dc 1370     		strb	r3, [r2]
 271:Generated_Source\PSoC5/cyfitter_cfg.c **** 	CY_SET_XTND_REG8((void CYFAR *)(CYREG_CLKDIST_LD), 0x02u);
 250              		.loc 1 271 0
 251 00de 8EF80030 		strb	r3, [lr]
 272:Generated_Source\PSoC5/cyfitter_cfg.c **** 
 252              		.loc 1 272 0
 253 00e2 0770     		strb	r7, [r0]
 254              	.LBE61:
 255              	.LBE65:
 387:Generated_Source\PSoC5/cyfitter_cfg.c **** 	/* Setup clocks based on selections from Clock DWR */
 388:Generated_Source\PSoC5/cyfitter_cfg.c **** 	ClockSetup();
 389:Generated_Source\PSoC5/cyfitter_cfg.c **** 	/* Set Flash Cycles based on newly configured 60.00MHz Bus Clock. */
 390:Generated_Source\PSoC5/cyfitter_cfg.c **** 	CY_SET_XTND_REG8((void CYFAR *)(CYREG_CACHE_CC_CTL), (((CYDEV_INSTRUCT_CACHE_ENABLED) != 0) ? 0x01
 391:Generated_Source\PSoC5/cyfitter_cfg.c **** 	/* Enable/Disable Debug functionality based on settings from System DWR */
 392:Generated_Source\PSoC5/cyfitter_cfg.c **** 	CY_SET_XTND_REG8((void CYFAR *)CYREG_MLOGIC_DEBUG, (CY_GET_XTND_REG8((void CYFAR *)CYREG_MLOGIC_DE
 256              		.loc 1 392 0
 257 00e4 1C46     		mov	r4, r3
 258              	.LVL12:
 259              	.LBB66:
 260              	.LBB62:
 274:Generated_Source\PSoC5/cyfitter_cfg.c **** }
 261              		.loc 1 274 0
 262 00e6 0B78     		ldrb	r3, [r1]	@ zero_extendqisi2
 263              	.LBE62:
 264              	.LBE66:
 390:Generated_Source\PSoC5/cyfitter_cfg.c **** 	/* Enable/Disable Debug functionality based on settings from System DWR */
 265              		.loc 1 390 0
 266 00e8 0127     		movs	r7, #1
 267              	.LBB67:
 268              	.LBB63:
 274:Generated_Source\PSoC5/cyfitter_cfg.c **** }
 269              		.loc 1 274 0
 270 00ea 43F00F03 		orr	r3, r3, #15
 271 00ee 0B70     		strb	r3, [r1]
 272              	.LBE63:
 273              	.LBE67:
 390:Generated_Source\PSoC5/cyfitter_cfg.c **** 	/* Enable/Disable Debug functionality based on settings from System DWR */
 274              		.loc 1 390 0
 275 00f0 80F8FF77 		strb	r7, [r0, #2047]
 276              		.loc 1 392 0
 277 00f4 92F8E436 		ldrb	r3, [r2, #1764]	@ zero_extendqisi2
 278 00f8 43F00403 		orr	r3, r3, #4
 279 00fc 82F8E436 		strb	r3, [r2, #1764]
ARM GAS  C:\Users\mgronber\AppData\Local\Temp\ccIIwJvg.s 			page 14


 280              	.LVL13:
 281              	.L12:
 282              	.LBB68:
 283              	.LBB69:
 393:Generated_Source\PSoC5/cyfitter_cfg.c **** 
 394:Generated_Source\PSoC5/cyfitter_cfg.c **** 	{
 395:Generated_Source\PSoC5/cyfitter_cfg.c **** 
 396:Generated_Source\PSoC5/cyfitter_cfg.c **** 		CYPACKED typedef struct {
 397:Generated_Source\PSoC5/cyfitter_cfg.c **** 			void CYFAR *address;
 398:Generated_Source\PSoC5/cyfitter_cfg.c **** 			uint16 size;
 399:Generated_Source\PSoC5/cyfitter_cfg.c **** 		} CYPACKED_ATTR cfg_memset_t;
 400:Generated_Source\PSoC5/cyfitter_cfg.c **** 
 401:Generated_Source\PSoC5/cyfitter_cfg.c **** 
 402:Generated_Source\PSoC5/cyfitter_cfg.c **** 		CYPACKED typedef struct {
 403:Generated_Source\PSoC5/cyfitter_cfg.c **** 			void CYFAR *dest;
 404:Generated_Source\PSoC5/cyfitter_cfg.c **** 			const void CYFAR *src;
 405:Generated_Source\PSoC5/cyfitter_cfg.c **** 			uint16 size;
 406:Generated_Source\PSoC5/cyfitter_cfg.c **** 		} CYPACKED_ATTR cfg_memcpy_t;
 407:Generated_Source\PSoC5/cyfitter_cfg.c **** 
 408:Generated_Source\PSoC5/cyfitter_cfg.c **** 		static const cfg_memset_t CYCODE cfg_memset_list [] = {
 409:Generated_Source\PSoC5/cyfitter_cfg.c **** 			/* address, size */
 410:Generated_Source\PSoC5/cyfitter_cfg.c **** 			{(void CYFAR *)(CYREG_I2C_XCFG), 25u},
 411:Generated_Source\PSoC5/cyfitter_cfg.c **** 			{(void CYFAR *)(CYREG_PRT0_DR), 16u},
 412:Generated_Source\PSoC5/cyfitter_cfg.c **** 			{(void CYFAR *)(CYREG_PRT4_DR), 48u},
 413:Generated_Source\PSoC5/cyfitter_cfg.c **** 			{(void CYFAR *)(CYDEV_UCFG_B0_P0_U0_BASE), 4096u},
 414:Generated_Source\PSoC5/cyfitter_cfg.c **** 			{(void CYFAR *)(CYDEV_UCFG_B1_P2_U0_BASE), 640u},
 415:Generated_Source\PSoC5/cyfitter_cfg.c **** 			{(void CYFAR *)(CYDEV_UCFG_B1_P3_ROUTE_BASE), 1280u},
 416:Generated_Source\PSoC5/cyfitter_cfg.c **** 			{(void CYFAR *)(CYDEV_UCFG_DSI0_BASE), 2560u},
 417:Generated_Source\PSoC5/cyfitter_cfg.c **** 			{(void CYFAR *)(CYDEV_UCFG_DSI12_BASE), 512u},
 418:Generated_Source\PSoC5/cyfitter_cfg.c **** 			{(void CYFAR *)(CYREG_BCTL1_MDCLK_EN), 16u},
 419:Generated_Source\PSoC5/cyfitter_cfg.c **** 		};
 420:Generated_Source\PSoC5/cyfitter_cfg.c **** 
 421:Generated_Source\PSoC5/cyfitter_cfg.c **** 		static const cfg_memcpy_t CYCODE cfg_memcpy_list [] = {
 422:Generated_Source\PSoC5/cyfitter_cfg.c **** 			/* dest, src, size */
 423:Generated_Source\PSoC5/cyfitter_cfg.c **** 			{(void CYFAR *)(CYREG_IDMUX_IRQ_CTL0), BS_IDMUX_IRQ_VAL, 8u},
 424:Generated_Source\PSoC5/cyfitter_cfg.c **** 			{(void CYFAR *)(CYDEV_UCFG_B1_P3_U1_BASE), BS_UDB_1_1_0_CONFIG_VAL, 128u},
 425:Generated_Source\PSoC5/cyfitter_cfg.c **** 			{(void CYFAR *)(CYREG_BCTL0_MDCLK_EN), BS_UCFG_BCTL0_VAL, 16u},
 426:Generated_Source\PSoC5/cyfitter_cfg.c **** 		};
 427:Generated_Source\PSoC5/cyfitter_cfg.c **** 
 428:Generated_Source\PSoC5/cyfitter_cfg.c **** 		uint8 CYDATA i;
 429:Generated_Source\PSoC5/cyfitter_cfg.c **** 
 430:Generated_Source\PSoC5/cyfitter_cfg.c **** 		/* Zero out critical memory blocks before beginning configuration */
 431:Generated_Source\PSoC5/cyfitter_cfg.c **** 		for (i = 0u; i < (sizeof(cfg_memset_list)/sizeof(cfg_memset_list[0])); i++)
 432:Generated_Source\PSoC5/cyfitter_cfg.c **** 		{
 433:Generated_Source\PSoC5/cyfitter_cfg.c **** 			const cfg_memset_t CYCODE * CYDATA ms = &cfg_memset_list[i];
 434:Generated_Source\PSoC5/cyfitter_cfg.c **** 			CYMEMZERO(ms->address, (size_t)(uint32)(ms->size));
 284              		.loc 1 434 0 discriminator 3
 285 0100 04EB4403 		add	r3, r4, r4, lsl #1
 286              	.LBB70:
 287              	.LBB71:
  64:Generated_Source\PSoC5/cyfitter_cfg.c **** }
 288              		.loc 1 64 0 discriminator 3
 289 0104 AA88     		ldrh	r2, [r5, #4]
 290              	.LVL14:
 291 0106 56F81300 		ldr	r0, [r6, r3, lsl #1]	@ unaligned
 292 010a 0134     		adds	r4, r4, #1
 293              	.LVL15:
ARM GAS  C:\Users\mgronber\AppData\Local\Temp\ccIIwJvg.s 			page 15


 294 010c 0021     		movs	r1, #0
 295 010e FFF7FEFF 		bl	memset
 296              	.LVL16:
 297              	.LBE71:
 298              	.LBE70:
 299              	.LBE69:
 431:Generated_Source\PSoC5/cyfitter_cfg.c **** 		{
 300              		.loc 1 431 0 discriminator 3
 301 0112 092C     		cmp	r4, #9
 302 0114 05F10605 		add	r5, r5, #6
 303 0118 F2D1     		bne	.L12
 304 011a 754D     		ldr	r5, .L32+48
 431:Generated_Source\PSoC5/cyfitter_cfg.c **** 		{
 305              		.loc 1 431 0 is_stmt 0
 306 011c 0024     		movs	r4, #0
 307              	.LVL17:
 308              	.L13:
 309              	.LBB72:
 435:Generated_Source\PSoC5/cyfitter_cfg.c **** 		}
 436:Generated_Source\PSoC5/cyfitter_cfg.c **** 
 437:Generated_Source\PSoC5/cyfitter_cfg.c **** 		/* Copy device configuration data into registers */
 438:Generated_Source\PSoC5/cyfitter_cfg.c **** 		for (i = 0u; i < (sizeof(cfg_memcpy_list)/sizeof(cfg_memcpy_list[0])); i++)
 439:Generated_Source\PSoC5/cyfitter_cfg.c **** 		{
 440:Generated_Source\PSoC5/cyfitter_cfg.c **** 			const cfg_memcpy_t CYCODE * CYDATA mc = &cfg_memcpy_list[i];
 441:Generated_Source\PSoC5/cyfitter_cfg.c **** 			void * CYDATA destPtr = mc->dest;
 310              		.loc 1 441 0 is_stmt 1 discriminator 3
 311 011e 04EB8403 		add	r3, r4, r4, lsl #2
 312 0122 06EB4303 		add	r3, r6, r3, lsl #1
 313 0126 53F8380F 		ldr	r0, [r3, #56]!	@ unaligned
 314              	.LBB73:
 315              	.LBB74:
  71:Generated_Source\PSoC5/cyfitter_cfg.c **** }
 316              		.loc 1 71 0 discriminator 3
 317 012a 2A89     		ldrh	r2, [r5, #8]
 318              	.LVL18:
 319 012c 0134     		adds	r4, r4, #1
 320              	.LVL19:
 321 012e 5968     		ldr	r1, [r3, #4]	@ unaligned
 322 0130 FFF7FEFF 		bl	memcpy
 323              	.LVL20:
 324              	.LBE74:
 325              	.LBE73:
 326              	.LBE72:
 438:Generated_Source\PSoC5/cyfitter_cfg.c **** 		{
 327              		.loc 1 438 0 discriminator 3
 328 0134 032C     		cmp	r4, #3
 329 0136 05F10A05 		add	r5, r5, #10
 330 013a F0D1     		bne	.L13
 331 013c 6D4E     		ldr	r6, .L32+52
 332              	.LBB75:
 333              	.LBB76:
 193:Generated_Source\PSoC5/cyfitter_cfg.c **** 	{
 334              		.loc 1 193 0
 335 013e 6E4F     		ldr	r7, .L32+56
 336              	.LBE76:
 337              	.LBE75:
 338 0140 0025     		movs	r5, #0
ARM GAS  C:\Users\mgronber\AppData\Local\Temp\ccIIwJvg.s 			page 16


 339              	.LVL21:
 340              	.L16:
 341              	.LBB79:
 342              	.LBB78:
 343              	.LBB77:
 195:Generated_Source\PSoC5/cyfitter_cfg.c **** 		uint8 count = (uint8)baseAddr;
 344              		.loc 1 195 0
 345 0142 56F8043F 		ldr	r3, [r6, #4]!
 346              	.LVL22:
 198:Generated_Source\PSoC5/cyfitter_cfg.c **** 		{
 347              		.loc 1 198 0
 348 0146 13F0FF0E 		ands	lr, r3, #255
 197:Generated_Source\PSoC5/cyfitter_cfg.c **** 		while (count != 0u)
 349              		.loc 1 197 0
 350 014a 23F0FF04 		bic	r4, r3, #255
 351              	.LVL23:
 198:Generated_Source\PSoC5/cyfitter_cfg.c **** 		{
 352              		.loc 1 198 0
 353 014e 13D0     		beq	.L14
 354 0150 05F11053 		add	r3, r5, #603979776
 355              	.LVL24:
 356 0154 0EF1FF3E 		add	lr, lr, #-1
 357 0158 03F15700 		add	r0, r3, #87
 358 015c 5FFA8EFE 		uxtb	lr, lr
 359 0160 7044     		add	r0, r0, lr
 360 0162 5633     		adds	r3, r3, #86
 361 0164 4000     		lsls	r0, r0, #1
 362 0166 5B00     		lsls	r3, r3, #1
 363              	.LVL25:
 364              	.L15:
 200:Generated_Source\PSoC5/cyfitter_cfg.c **** 			j++;
 365              		.loc 1 200 0
 366 0168 1A78     		ldrb	r2, [r3]	@ zero_extendqisi2
 367 016a 5978     		ldrb	r1, [r3, #1]	@ zero_extendqisi2
 368 016c 0233     		adds	r3, r3, #2
 198:Generated_Source\PSoC5/cyfitter_cfg.c **** 		{
 369              		.loc 1 198 0
 370 016e 8342     		cmp	r3, r0
 200:Generated_Source\PSoC5/cyfitter_cfg.c **** 			j++;
 371              		.loc 1 200 0
 372 0170 1155     		strb	r1, [r2, r4]
 198:Generated_Source\PSoC5/cyfitter_cfg.c **** 		{
 373              		.loc 1 198 0
 374 0172 F9D1     		bne	.L15
 375 0174 0135     		adds	r5, r5, #1
 376 0176 7544     		add	r5, r5, lr
 377              	.L14:
 378              	.LVL26:
 379              	.LBE77:
 193:Generated_Source\PSoC5/cyfitter_cfg.c **** 	{
 380              		.loc 1 193 0
 381 0178 BE42     		cmp	r6, r7
 382 017a E2D1     		bne	.L16
 383              	.LVL27:
 384              	.LBE78:
 385              	.LBE79:
 442:Generated_Source\PSoC5/cyfitter_cfg.c **** 			const void * CYDATA srcPtr = mc->src;
ARM GAS  C:\Users\mgronber\AppData\Local\Temp\ccIIwJvg.s 			page 17


 443:Generated_Source\PSoC5/cyfitter_cfg.c **** 			uint16 CYDATA numBytes = mc->size;
 444:Generated_Source\PSoC5/cyfitter_cfg.c **** 			CYCONFIGCPY(destPtr, srcPtr, numBytes);
 445:Generated_Source\PSoC5/cyfitter_cfg.c **** 		}
 446:Generated_Source\PSoC5/cyfitter_cfg.c **** 
 447:Generated_Source\PSoC5/cyfitter_cfg.c **** 		cfg_write_bytes32(cy_cfg_addr_table, cy_cfg_data_table);
 448:Generated_Source\PSoC5/cyfitter_cfg.c **** 
 449:Generated_Source\PSoC5/cyfitter_cfg.c **** 		/* Perform normal device configuration. Order is not critical for these items. */
 450:Generated_Source\PSoC5/cyfitter_cfg.c **** 		CYMEMZERO((void CYFAR *)(CYREG_PHUB_CFGMEM0_CFG0), 4u);
 451:Generated_Source\PSoC5/cyfitter_cfg.c **** 		CYCONFIGCPY((void CYFAR *)(CYREG_PHUB_CFGMEM1_CFG0), (const void CYFAR *)(BS_PHUB_CFGMEM1_VAL), 4
 452:Generated_Source\PSoC5/cyfitter_cfg.c **** 
 453:Generated_Source\PSoC5/cyfitter_cfg.c **** 		/* Enable digital routing */
 454:Generated_Source\PSoC5/cyfitter_cfg.c **** 		CY_SET_XTND_REG8((void CYFAR *)CYREG_BCTL0_BANK_CTL, CY_GET_XTND_REG8((void CYFAR *)CYREG_BCTL0_B
 386              		.loc 1 454 0
 387 017c 5F49     		ldr	r1, .L32+60
 455:Generated_Source\PSoC5/cyfitter_cfg.c **** 		CY_SET_XTND_REG8((void CYFAR *)CYREG_BCTL1_BANK_CTL, CY_GET_XTND_REG8((void CYFAR *)CYREG_BCTL1_B
 388              		.loc 1 455 0
 389 017e 604A     		ldr	r2, .L32+64
 454:Generated_Source\PSoC5/cyfitter_cfg.c **** 		CY_SET_XTND_REG8((void CYFAR *)CYREG_BCTL1_BANK_CTL, CY_GET_XTND_REG8((void CYFAR *)CYREG_BCTL1_B
 390              		.loc 1 454 0
 391 0180 0B78     		ldrb	r3, [r1]	@ zero_extendqisi2
 456:Generated_Source\PSoC5/cyfitter_cfg.c **** 
 457:Generated_Source\PSoC5/cyfitter_cfg.c **** 		/* Enable UDB array */
 458:Generated_Source\PSoC5/cyfitter_cfg.c **** 		CY_SET_XTND_REG8((void CYFAR *)CYREG_PM_ACT_CFG0, CY_GET_XTND_REG8((void CYFAR *)CYREG_PM_ACT_CFG
 392              		.loc 1 458 0
 393 0182 604C     		ldr	r4, .L32+68
 394              	.LVL28:
 454:Generated_Source\PSoC5/cyfitter_cfg.c **** 		CY_SET_XTND_REG8((void CYFAR *)CYREG_BCTL1_BANK_CTL, CY_GET_XTND_REG8((void CYFAR *)CYREG_BCTL1_B
 395              		.loc 1 454 0
 396 0184 43F00203 		orr	r3, r3, #2
 397 0188 0B70     		strb	r3, [r1]
 455:Generated_Source\PSoC5/cyfitter_cfg.c **** 
 398              		.loc 1 455 0
 399 018a 1378     		ldrb	r3, [r2]	@ zero_extendqisi2
 400              	.LBE68:
 401              	.LBB92:
 402              	.LBB93:
 308:Generated_Source\PSoC5/cyfitter_cfg.c **** 	CY_SET_XTND_REG16((void CYFAR *)CYREG_PRT15_AMUX, 0x0808u);
 403              		.loc 1 308 0
 404 018c 46F20619 		movw	r9, #24838
 405              	.LBE93:
 406              	.LBE92:
 407              	.LBB99:
 455:Generated_Source\PSoC5/cyfitter_cfg.c **** 
 408              		.loc 1 455 0
 409 0190 43F00203 		orr	r3, r3, #2
 410 0194 1370     		strb	r3, [r2]
 411              		.loc 1 458 0
 412 0196 2378     		ldrb	r3, [r4]	@ zero_extendqisi2
 413              	.LBE99:
 414              	.LBB100:
 415              	.LBB94:
 309:Generated_Source\PSoC5/cyfitter_cfg.c **** 	CY_SET_XTND_REG8((void CYFAR *)CYREG_SAR0_CSR1, 0x40u);
 416              		.loc 1 309 0
 417 0198 40F6080C 		movw	ip, #2056
 418              	.LBE94:
 419              	.LBE100:
 420              	.LBB101:
ARM GAS  C:\Users\mgronber\AppData\Local\Temp\ccIIwJvg.s 			page 18


 459:Generated_Source\PSoC5/cyfitter_cfg.c **** 		CY_SET_XTND_REG8((void CYFAR *)CYREG_PM_AVAIL_CR2, CY_GET_XTND_REG8((void CYFAR *)CYREG_PM_AVAIL_
 421              		.loc 1 459 0
 422 019c 5A48     		ldr	r0, .L32+72
 458:Generated_Source\PSoC5/cyfitter_cfg.c **** 		CY_SET_XTND_REG8((void CYFAR *)CYREG_PM_AVAIL_CR2, CY_GET_XTND_REG8((void CYFAR *)CYREG_PM_AVAIL_
 423              		.loc 1 458 0
 424 019e 43F04003 		orr	r3, r3, #64
 425 01a2 2370     		strb	r3, [r4]
 426              	.LBB80:
 427              	.LBB81:
  71:Generated_Source\PSoC5/cyfitter_cfg.c **** }
 428              		.loc 1 71 0
 429 01a4 594A     		ldr	r2, .L32+76
 430              	.LBE81:
 431              	.LBE80:
 432              		.loc 1 459 0
 433 01a6 0178     		ldrb	r1, [r0]	@ zero_extendqisi2
 434              	.LBB84:
 435              	.LBB82:
  71:Generated_Source\PSoC5/cyfitter_cfg.c **** }
 436              		.loc 1 71 0
 437 01a8 D2F800E0 		ldr	lr, [r2]
 438 01ac 584F     		ldr	r7, .L32+80
 439              	.LBE82:
 440              	.LBE84:
 441              	.LBB85:
 442              	.LBB86:
  64:Generated_Source\PSoC5/cyfitter_cfg.c **** }
 443              		.loc 1 64 0
 444 01ae 594D     		ldr	r5, .L32+84
 445              	.LVL29:
 446              	.LBE86:
 447              	.LBE85:
 448              		.loc 1 459 0
 449 01b0 41F01001 		orr	r1, r1, #16
 450              	.LBB89:
 451              	.LBB87:
  64:Generated_Source\PSoC5/cyfitter_cfg.c **** }
 452              		.loc 1 64 0
 453 01b4 0026     		movs	r6, #0
 454              	.LBE87:
 455              	.LBE89:
 456              	.LBE101:
 457              	.LBB102:
 458              	.LBB103:
  71:Generated_Source\PSoC5/cyfitter_cfg.c **** }
 459              		.loc 1 71 0
 460 01b6 584B     		ldr	r3, .L32+88
 461              	.LBE103:
 462              	.LBE102:
 463              	.LBB107:
 464              		.loc 1 459 0
 465 01b8 0170     		strb	r1, [r0]
 466              	.LBE107:
 467              	.LBB108:
 468              	.LBB104:
  71:Generated_Source\PSoC5/cyfitter_cfg.c **** }
 469              		.loc 1 71 0
ARM GAS  C:\Users\mgronber\AppData\Local\Temp\ccIIwJvg.s 			page 19


 470 01ba 343A     		subs	r2, r2, #52
 471              	.LBE104:
 472              	.LBE108:
 473              	.LBB109:
 474              	.LBB90:
 475              	.LBB83:
 476 01bc C7F800E0 		str	lr, [r7]
 477              	.LBE83:
 478              	.LBE90:
 479              	.LBB91:
 480              	.LBB88:
  64:Generated_Source\PSoC5/cyfitter_cfg.c **** }
 481              		.loc 1 64 0
 482 01c0 2E60     		str	r6, [r5]
 483              	.LVL30:
 484              	.LBE88:
 485              	.LBE91:
 486              	.LBE109:
 487              	.LBB110:
 488              	.LBB105:
  71:Generated_Source\PSoC5/cyfitter_cfg.c **** }
 489              		.loc 1 71 0
 490 01c2 07CA     		ldmia	r2, {r0, r1, r2}
 491 01c4 03C3     		stmia	r3!, {r0, r1}
 492              	.LBE105:
 493              	.LBE110:
 494              	.LBB111:
 495              	.LBB112:
 496 01c6 A5F51055 		sub	r5, r5, #9216
 497 01ca 5449     		ldr	r1, .L32+92
 498              	.LBE112:
 499              	.LBE111:
 500              	.LBB115:
 501              	.LBB106:
 502 01cc 1A80     		strh	r2, [r3]	@ movhi
 503              	.LVL31:
 504              	.LBE106:
 505              	.LBE115:
 506              	.LBB116:
 507              	.LBB113:
 508 01ce 103D     		subs	r5, r5, #16
 509 01d0 07C9     		ldmia	r1, {r0, r1, r2}
 510 01d2 03C5     		stmia	r5!, {r0, r1}
 511              	.LBE113:
 512              	.LBE116:
 513              	.LBB117:
 514              	.LBB118:
 515 01d4 524B     		ldr	r3, .L32+96
 516              	.LBE118:
 517              	.LBE117:
 518              	.LBB120:
 519              	.LBB114:
 520 01d6 2A80     		strh	r2, [r5]	@ movhi
 521              	.LVL32:
 522              	.LBE114:
 523              	.LBE120:
 524              	.LBB121:
ARM GAS  C:\Users\mgronber\AppData\Local\Temp\ccIIwJvg.s 			page 20


 525              	.LBB122:
 526 01d8 524A     		ldr	r2, .L32+100
 527              	.LBE122:
 528              	.LBE121:
 529              	.LBB125:
 530              	.LBB119:
 531 01da 03CB     		ldmia	r3!, {r0, r1}
 532 01dc 45F8E60C 		str	r0, [r5, #-230]	@ unaligned
 533 01e0 45F8E21C 		str	r1, [r5, #-226]	@ unaligned
 534              	.LVL33:
 535              	.LBE119:
 536              	.LBE125:
 537              	.LBB126:
 538              	.LBB123:
 539 01e4 03CB     		ldmia	r3!, {r0, r1}
 540              	.LBE123:
 541              	.LBE126:
 542              	.LBB127:
 543              	.LBB128:
 544 01e6 C83D     		subs	r5, r5, #200
 545              	.LBE128:
 546              	.LBE127:
 547              	.LBB131:
 548              	.LBB124:
 549 01e8 1060     		str	r0, [r2]	@ unaligned
 550 01ea 5160     		str	r1, [r2, #4]	@ unaligned
 551              	.LVL34:
 552              	.LBE124:
 553              	.LBE131:
 554              	.LBB132:
 555              	.LBB129:
 556 01ec 93E80700 		ldmia	r3, {r0, r1, r2}
 557 01f0 03C5     		stmia	r5!, {r0, r1}
 558              	.LBE129:
 559              	.LBE132:
 460:Generated_Source\PSoC5/cyfitter_cfg.c **** 	}
 461:Generated_Source\PSoC5/cyfitter_cfg.c **** 
 462:Generated_Source\PSoC5/cyfitter_cfg.c **** 
 463:Generated_Source\PSoC5/cyfitter_cfg.c **** 	/* Perform second pass device configuration. These items must be configured in specific order afte
 464:Generated_Source\PSoC5/cyfitter_cfg.c **** 	CYCONFIGCPY((void CYFAR *)(CYREG_PRT12_DR), (const void CYFAR *)(BS_IOPINS0_7_VAL), 10u);
 465:Generated_Source\PSoC5/cyfitter_cfg.c **** 	CYCONFIGCPY((void CYFAR *)(CYREG_PRT15_DR), (const void CYFAR *)(BS_IOPINS0_8_VAL), 10u);
 466:Generated_Source\PSoC5/cyfitter_cfg.c **** 	CYCONFIGCPY((void CYFAR *)(CYREG_PRT1_DM0), (const void CYFAR *)(BS_IOPINS0_1_VAL), 8u);
 467:Generated_Source\PSoC5/cyfitter_cfg.c **** 	CYCONFIGCPY((void CYFAR *)(CYREG_PRT2_DM0), (const void CYFAR *)(BS_IOPINS0_2_VAL), 8u);
 468:Generated_Source\PSoC5/cyfitter_cfg.c **** 	CYCONFIGCPY((void CYFAR *)(CYREG_PRT3_DR), (const void CYFAR *)(BS_IOPINS0_3_VAL), 10u);
 469:Generated_Source\PSoC5/cyfitter_cfg.c **** 	/* Switch Boost to the precision bandgap reference from its internal reference */
 470:Generated_Source\PSoC5/cyfitter_cfg.c **** 	CY_SET_REG8((void CYXDATA *)CYREG_BOOST_CR2, (CY_GET_REG8((void CYXDATA *)CYREG_BOOST_CR2) | 0x08u
 560              		.loc 1 470 0
 561 01f2 4D49     		ldr	r1, .L32+104
 562              	.LBB133:
 563              	.LBB130:
  71:Generated_Source\PSoC5/cyfitter_cfg.c **** }
 564              		.loc 1 71 0
 565 01f4 2A80     		strh	r2, [r5]	@ movhi
 566              	.LBE130:
 567              	.LBE133:
 568              		.loc 1 470 0
 569 01f6 0B78     		ldrb	r3, [r1]	@ zero_extendqisi2
ARM GAS  C:\Users\mgronber\AppData\Local\Temp\ccIIwJvg.s 			page 21


 570              	.LBB134:
 571              	.LBB95:
 299:Generated_Source\PSoC5/cyfitter_cfg.c **** 	uint8 cr4 = CY_GET_XTND_REG8((void CYFAR *)(CYREG_RESET_CR4));
 572              		.loc 1 299 0
 573 01f8 4C4A     		ldr	r2, .L32+108
 574              	.LBE95:
 575              	.LBE134:
 576              		.loc 1 470 0
 577 01fa 43F00803 		orr	r3, r3, #8
 578 01fe 0B70     		strb	r3, [r1]
 579              	.LBB135:
 580              	.LBB96:
 300:Generated_Source\PSoC5/cyfitter_cfg.c **** 	uint8 cr5 = CY_GET_XTND_REG8((void CYFAR *)(CYREG_RESET_CR5));
 581              		.loc 1 300 0
 582 0200 A7F53C57 		sub	r7, r7, #12032
 299:Generated_Source\PSoC5/cyfitter_cfg.c **** 	uint8 cr4 = CY_GET_XTND_REG8((void CYFAR *)(CYREG_RESET_CR4));
 583              		.loc 1 299 0
 584 0204 1378     		ldrb	r3, [r2]	@ zero_extendqisi2
 300:Generated_Source\PSoC5/cyfitter_cfg.c **** 	uint8 cr5 = CY_GET_XTND_REG8((void CYFAR *)(CYREG_RESET_CR5));
 585              		.loc 1 300 0
 586 0206 103F     		subs	r7, r7, #16
 301:Generated_Source\PSoC5/cyfitter_cfg.c **** 	CY_SET_XTND_REG8((void CYFAR *)(CYREG_BG_DFT0), (bg_xover_inl_trim & 0x07u));
 587              		.loc 1 301 0
 588 0208 DFF84C81 		ldr	r8, .L32+152
 300:Generated_Source\PSoC5/cyfitter_cfg.c **** 	uint8 cr5 = CY_GET_XTND_REG8((void CYFAR *)(CYREG_RESET_CR5));
 589              		.loc 1 300 0
 590 020c 3D78     		ldrb	r5, [r7]	@ zero_extendqisi2
 302:Generated_Source\PSoC5/cyfitter_cfg.c **** 	CY_SET_XTND_REG8((void CYFAR *)(CYREG_BG_DFT1), ((bg_xover_inl_trim >> 4) & 0x0Fu));
 591              		.loc 1 302 0
 592 020e DFF84CE1 		ldr	lr, .L32+156
 301:Generated_Source\PSoC5/cyfitter_cfg.c **** 	CY_SET_XTND_REG8((void CYFAR *)(CYREG_BG_DFT0), (bg_xover_inl_trim & 0x07u));
 593              		.loc 1 301 0
 594 0212 98F80060 		ldrb	r6, [r8]	@ zero_extendqisi2
 303:Generated_Source\PSoC5/cyfitter_cfg.c **** 	/* Disable PRES while setting up SAR voltage reference */
 595              		.loc 1 303 0
 596 0216 4648     		ldr	r0, .L32+112
 299:Generated_Source\PSoC5/cyfitter_cfg.c **** 	uint8 cr4 = CY_GET_XTND_REG8((void CYFAR *)(CYREG_RESET_CR4));
 597              		.loc 1 299 0
 598 0218 DBB2     		uxtb	r3, r3
 599              	.LVL35:
 302:Generated_Source\PSoC5/cyfitter_cfg.c **** 	CY_SET_XTND_REG8((void CYFAR *)(CYREG_BG_DFT1), ((bg_xover_inl_trim >> 4) & 0x0Fu));
 600              		.loc 1 302 0
 601 021a 03F0070A 		and	r10, r3, #7
 300:Generated_Source\PSoC5/cyfitter_cfg.c **** 	uint8 cr5 = CY_GET_XTND_REG8((void CYFAR *)(CYREG_RESET_CR5));
 602              		.loc 1 300 0
 603 021e EDB2     		uxtb	r5, r5
 604              	.LVL36:
 303:Generated_Source\PSoC5/cyfitter_cfg.c **** 	/* Disable PRES while setting up SAR voltage reference */
 605              		.loc 1 303 0
 606 0220 1B09     		lsrs	r3, r3, #4
 607              	.LVL37:
 302:Generated_Source\PSoC5/cyfitter_cfg.c **** 	CY_SET_XTND_REG8((void CYFAR *)(CYREG_BG_DFT1), ((bg_xover_inl_trim >> 4) & 0x0Fu));
 608              		.loc 1 302 0
 609 0222 8EF800A0 		strb	r10, [lr]
 301:Generated_Source\PSoC5/cyfitter_cfg.c **** 	CY_SET_XTND_REG8((void CYFAR *)(CYREG_BG_DFT0), (bg_xover_inl_trim & 0x07u));
 610              		.loc 1 301 0
 611 0226 F6B2     		uxtb	r6, r6
ARM GAS  C:\Users\mgronber\AppData\Local\Temp\ccIIwJvg.s 			page 22


 612              	.LVL38:
 303:Generated_Source\PSoC5/cyfitter_cfg.c **** 	/* Disable PRES while setting up SAR voltage reference */
 613              		.loc 1 303 0
 614 0228 0370     		strb	r3, [r0]
 305:Generated_Source\PSoC5/cyfitter_cfg.c **** 	CY_SET_XTND_REG8((void CYFAR *)(CYREG_RESET_CR5), (cr5 | 0x03u));
 615              		.loc 1 305 0
 616 022a 45F00303 		orr	r3, r5, #3
 617 022e 3B70     		strb	r3, [r7]
 308:Generated_Source\PSoC5/cyfitter_cfg.c **** 	CY_SET_XTND_REG16((void CYFAR *)CYREG_PRT15_AMUX, 0x0808u);
 618              		.loc 1 308 0
 619 0230 404A     		ldr	r2, .L32+116
 309:Generated_Source\PSoC5/cyfitter_cfg.c **** 	CY_SET_XTND_REG8((void CYFAR *)CYREG_SAR0_CSR1, 0x40u);
 620              		.loc 1 309 0
 621 0232 DFF82CB1 		ldr	fp, .L32+160
 310:Generated_Source\PSoC5/cyfitter_cfg.c **** 	CY_SET_XTND_REG8((void CYFAR *)CYREG_SAR0_CSR3, 0x40u);
 622              		.loc 1 310 0
 623 0236 DFF82CA1 		ldr	r10, .L32+164
 306:Generated_Source\PSoC5/cyfitter_cfg.c **** 	CY_SET_XTND_REG8((void CYFAR *)CYREG_PRT1_AMUX, 0x40u);
 624              		.loc 1 306 0
 625 023a 46F00303 		orr	r3, r6, #3
 626 023e 88F80030 		strb	r3, [r8]
 307:Generated_Source\PSoC5/cyfitter_cfg.c **** 	CY_SET_XTND_REG16((void CYFAR *)CYREG_PRT2_AMUX, 0x6106u);
 627              		.loc 1 307 0
 628 0242 4023     		movs	r3, #64
 629 0244 81F8FA3D 		strb	r3, [r1, #3578]
 308:Generated_Source\PSoC5/cyfitter_cfg.c **** 	CY_SET_XTND_REG16((void CYFAR *)CYREG_PRT15_AMUX, 0x0808u);
 630              		.loc 1 308 0
 631 0248 A2F80090 		strh	r9, [r2]	@ movhi
 309:Generated_Source\PSoC5/cyfitter_cfg.c **** 	CY_SET_XTND_REG8((void CYFAR *)CYREG_SAR0_CSR1, 0x40u);
 632              		.loc 1 309 0
 633 024c ABF800C0 		strh	ip, [fp]	@ movhi
 314:Generated_Source\PSoC5/cyfitter_cfg.c **** 	CY_SET_XTND_REG8((void CYFAR *)CYREG_SAR0_SW3, 0x21u);
 634              		.loc 1 314 0
 635 0250 09F18049 		add	r9, r9, #1073741824
 310:Generated_Source\PSoC5/cyfitter_cfg.c **** 	CY_SET_XTND_REG8((void CYFAR *)CYREG_SAR0_CSR3, 0x40u);
 636              		.loc 1 310 0
 637 0254 8AF80030 		strb	r3, [r10]
 311:Generated_Source\PSoC5/cyfitter_cfg.c **** 	CY_SET_XTND_REG8((void CYFAR *)CYREG_SAR1_CSR1, 0x80u);
 638              		.loc 1 311 0
 639 0258 8EF89530 		strb	r3, [lr, #149]
 312:Generated_Source\PSoC5/cyfitter_cfg.c **** 	CY_SET_XTND_REG8((void CYFAR *)CYREG_DSM0_SW0, 0x12u);
 640              		.loc 1 312 0
 641 025c 4FF0800E 		mov	lr, #128
 642 0260 80F89AE0 		strb	lr, [r0, #154]
 316:Generated_Source\PSoC5/cyfitter_cfg.c **** 	CY_SET_XTND_REG8((void CYFAR *)CYREG_SAR1_SW4, 0x10u);
 643              		.loc 1 316 0
 644 0264 DFF800C1 		ldr	ip, .L32+168
 307:Generated_Source\PSoC5/cyfitter_cfg.c **** 	CY_SET_XTND_REG16((void CYFAR *)CYREG_PRT2_AMUX, 0x6106u);
 645              		.loc 1 307 0
 646 0268 01F6FA51 		addw	r1, r1, #3578
 313:Generated_Source\PSoC5/cyfitter_cfg.c **** 	CY_SET_XTND_REG8((void CYFAR *)CYREG_SAR0_SW0, 0x81u);
 647              		.loc 1 313 0
 648 026c 1223     		movs	r3, #18
 314:Generated_Source\PSoC5/cyfitter_cfg.c **** 	CY_SET_XTND_REG8((void CYFAR *)CYREG_SAR0_SW3, 0x21u);
 649              		.loc 1 314 0
 650 026e 4FF0810E 		mov	lr, #129
 651 0272 A9F2E659 		subw	r9, r9, #1510
ARM GAS  C:\Users\mgronber\AppData\Local\Temp\ccIIwJvg.s 			page 23


 313:Generated_Source\PSoC5/cyfitter_cfg.c **** 	CY_SET_XTND_REG8((void CYFAR *)CYREG_SAR0_SW0, 0x81u);
 652              		.loc 1 313 0
 653 0276 81F8E439 		strb	r3, [r1, #2532]
 315:Generated_Source\PSoC5/cyfitter_cfg.c **** 	CY_SET_XTND_REG8((void CYFAR *)CYREG_SAR1_SW0, 0x04u);
 654              		.loc 1 315 0
 655 027a 2120     		movs	r0, #33
 314:Generated_Source\PSoC5/cyfitter_cfg.c **** 	CY_SET_XTND_REG8((void CYFAR *)CYREG_SAR0_SW3, 0x21u);
 656              		.loc 1 314 0
 657 027c 89F800E0 		strb	lr, [r9]
 316:Generated_Source\PSoC5/cyfitter_cfg.c **** 	CY_SET_XTND_REG8((void CYFAR *)CYREG_SAR1_SW4, 0x10u);
 658              		.loc 1 316 0
 659 0280 0421     		movs	r1, #4
 317:Generated_Source\PSoC5/cyfitter_cfg.c **** 	CY_SET_XTND_REG8((void CYFAR *)CYREG_BUS_SW0, 0x94u);
 660              		.loc 1 317 0
 661 0282 1023     		movs	r3, #16
 318:Generated_Source\PSoC5/cyfitter_cfg.c **** 	CyDelayUs(10u); /* Allow vref to settle before re-enabling PRES */
 662              		.loc 1 318 0
 663 0284 4FF0940E 		mov	lr, #148
 315:Generated_Source\PSoC5/cyfitter_cfg.c **** 	CY_SET_XTND_REG8((void CYFAR *)CYREG_SAR1_SW0, 0x04u);
 664              		.loc 1 315 0
 665 0288 82F8F709 		strb	r0, [r2, #2551]
 316:Generated_Source\PSoC5/cyfitter_cfg.c **** 	CY_SET_XTND_REG8((void CYFAR *)CYREG_SAR1_SW4, 0x10u);
 666              		.loc 1 316 0
 667 028c 8CF80010 		strb	r1, [ip]
 319:Generated_Source\PSoC5/cyfitter_cfg.c **** 	CY_SET_XTND_REG8((void CYFAR *)(CYREG_RESET_CR5), (cr5));
 668              		.loc 1 319 0
 669 0290 0A20     		movs	r0, #10
 317:Generated_Source\PSoC5/cyfitter_cfg.c **** 	CY_SET_XTND_REG8((void CYFAR *)CYREG_BUS_SW0, 0x94u);
 670              		.loc 1 317 0
 671 0292 8BF83039 		strb	r3, [fp, #2352]
 318:Generated_Source\PSoC5/cyfitter_cfg.c **** 	CyDelayUs(10u); /* Allow vref to settle before re-enabling PRES */
 672              		.loc 1 318 0
 673 0296 8AF857E2 		strb	lr, [r10, #599]
 319:Generated_Source\PSoC5/cyfitter_cfg.c **** 	CY_SET_XTND_REG8((void CYFAR *)(CYREG_RESET_CR5), (cr5));
 674              		.loc 1 319 0
 675 029a FFF7FEFF 		bl	CyDelayUs
 676              	.LVL39:
 677              	.LBE96:
 678              	.LBE135:
 679              	.LBB136:
 680              	.LBB137:
  71:Generated_Source\PSoC5/cyfitter_cfg.c **** }
 681              		.loc 1 71 0
 682 029e 94E80F00 		ldmia	r4, {r0, r1, r2, r3}
 683              	.LBE137:
 684              	.LBE136:
 685              	.LBB140:
 686              	.LBB97:
 322:Generated_Source\PSoC5/cyfitter_cfg.c **** }
 687              		.loc 1 322 0
 688 02a2 DFF8C8E0 		ldr	lr, .L32+172
 689              	.LBE97:
 690              	.LBE140:
 691              	.LBB141:
 692              	.LBB138:
  71:Generated_Source\PSoC5/cyfitter_cfg.c **** }
 693              		.loc 1 71 0
ARM GAS  C:\Users\mgronber\AppData\Local\Temp\ccIIwJvg.s 			page 24


 694 02a6 1034     		adds	r4, r4, #16
 695              	.LBE138:
 696              	.LBE141:
 697              	.LBB142:
 698              	.LBB98:
 322:Generated_Source\PSoC5/cyfitter_cfg.c **** }
 699              		.loc 1 322 0
 700 02a8 4FF0440C 		mov	ip, #68
 320:Generated_Source\PSoC5/cyfitter_cfg.c **** 	CY_SET_XTND_REG8((void CYFAR *)(CYREG_RESET_CR4), (cr4));
 701              		.loc 1 320 0
 702 02ac 88F80060 		strb	r6, [r8]
 321:Generated_Source\PSoC5/cyfitter_cfg.c **** 	CY_SET_XTND_REG8((void CYFAR *)CYREG_PUMP_CR0, 0x44u);
 703              		.loc 1 321 0
 704 02b0 3D70     		strb	r5, [r7]
 322:Generated_Source\PSoC5/cyfitter_cfg.c **** }
 705              		.loc 1 322 0
 706 02b2 8EF800C0 		strb	ip, [lr]
 707              	.LVL40:
 708              	.LBE98:
 709              	.LBE142:
 710              	.LBB143:
 711              	.LBB139:
  71:Generated_Source\PSoC5/cyfitter_cfg.c **** }
 712              		.loc 1 71 0
 713 02b6 07C4     		stmia	r4!, {r0, r1, r2}
 714 02b8 2380     		strh	r3, [r4]	@ movhi
 715 02ba BDE8F88F 		pop	{r3, r4, r5, r6, r7, r8, r9, r10, fp, pc}
 716              	.LVL41:
 717              	.L33:
 718 02be 00BF     		.align	2
 719              	.L32:
 720 02c0 00480040 		.word	1073760256
 721 02c4 80400040 		.word	1073758336
 722 02c8 82400040 		.word	1073758338
 723 02cc 84400040 		.word	1073758340
 724 02d0 0F010049 		.word	1224737039
 725 02d4 20420040 		.word	1073758752
 726 02d8 22420040 		.word	1073758754
 727 02dc 25420040 		.word	1073758757
 728 02e0 00000000 		.word	.LANCHOR0
 729 02e4 04400040 		.word	1073758212
 730 02e8 01400040 		.word	1073758209
 731 02ec A2430040 		.word	1073759138
 732 02f0 38000000 		.word	.LANCHOR0+56
 733 02f4 FCFFFF47 		.word	1207959548
 734 02f8 A8000048 		.word	1207959720
 735 02fc 03500140 		.word	1073827843
 736 0300 13500140 		.word	1073827859
 737 0304 A0430040 		.word	1073759136
 738 0308 C2430040 		.word	1073759170
 739 030c 280F0048 		.word	1207963432
 740 0310 08760040 		.word	1073772040
 741 0314 00760040 		.word	1073772032
 742 0318 C0510040 		.word	1073762752
 743 031c 000F0048 		.word	1207963392
 744 0320 0C0F0048 		.word	1207963404
 745 0324 22510040 		.word	1073762594
ARM GAS  C:\Users\mgronber\AppData\Local\Temp\ccIIwJvg.s 			page 25


 746 0328 22430040 		.word	1073759010
 747 032c CF010049 		.word	1224737231
 748 0330 6F580040 		.word	1073764463
 749 0334 2C510040 		.word	1073762604
 750 0338 8C400040 		.word	1073758348
 751 033c 8E400040 		.word	1073758350
 752 0340 86400040 		.word	1073758342
 753 0344 88400040 		.word	1073758344
 754 0348 8A400040 		.word	1073758346
 755 034c 06400040 		.word	1073758214
 756 0350 08400040 		.word	1073758216
 757 0354 09400040 		.word	1073758217
 758 0358 F9460040 		.word	1073759993
 759 035c 6E580040 		.word	1073764462
 760 0360 FC510040 		.word	1073762812
 761 0364 01590040 		.word	1073764609
 762 0368 285B0040 		.word	1073765160
 763 036c 76580040 		.word	1073764470
 764              	.LBE139:
 765              	.LBE143:
 766              		.cfi_endproc
 767              	.LFE8:
 768              		.size	cyfitter_cfg, .-cyfitter_cfg
 769              		.section	.rodata
 770              		.align	2
 771              		.set	.LANCHOR0,. + 0
 772              		.type	cfg_memset_list.4843, %object
 773              		.size	cfg_memset_list.4843, 54
 774              	cfg_memset_list.4843:
 775 0000 C8490040 		.word	1073760712
 776 0004 1900     		.short	25
 777 0006 00510040 		.4byte	1073762560
 778 000a 1000     		.short	16
 779 000c 40510040 		.word	1073762624
 780 0010 3000     		.short	48
 781 0012 00000140 		.4byte	1073807360
 782 0016 0010     		.short	4096
 783 0018 00140140 		.word	1073812480
 784 001c 8002     		.short	640
 785 001e 00170140 		.4byte	1073813248
 786 0022 0005     		.short	1280
 787 0024 00400140 		.word	1073823744
 788 0028 000A     		.short	2560
 789 002a 004C0140 		.4byte	1073826816
 790 002e 0002     		.short	512
 791 0030 10500140 		.word	1073827856
 792 0034 1000     		.short	16
 793 0036 0000     		.space	2
 794              		.type	cfg_memcpy_list.4844, %object
 795              		.size	cfg_memcpy_list.4844, 30
 796              	cfg_memcpy_list.4844:
 797 0038 00510140 		.word	1073828096
 798 003c 5C0E0048 		.word	1207963228
 799 0040 0800     		.short	8
 800 0042 80160140 		.4byte	1073813120
 801 0046 640E0048 		.4byte	1207963236
 802 004a 8000     		.short	128
ARM GAS  C:\Users\mgronber\AppData\Local\Temp\ccIIwJvg.s 			page 26


 803 004c 00500140 		.word	1073827840
 804 0050 E40E0048 		.word	1207963364
 805 0054 1000     		.short	16
 806 0056 0000     		.text
 807              	.Letext0:
 808              		.file 2 "c:\\program files (x86)\\cypress\\psoc creator\\4.0\\psoc creator\\import\\gnu\\arm\\4.9.
 809              		.file 3 "Generated_Source\\PSoC5\\cytypes.h"
 810              		.file 4 "Generated_Source\\PSoC5\\CyLib.h"