ARM GAS  C:\Users\mgronber\AppData\Local\Temp\ccrZn5Va.s 			page 1


   1              		.syntax unified
   2              		.cpu cortex-m3
   3              		.fpu softvfp
   4              		.eabi_attribute 20, 1
   5              		.eabi_attribute 21, 1
   6              		.eabi_attribute 23, 3
   7              		.eabi_attribute 24, 1
   8              		.eabi_attribute 25, 1
   9              		.eabi_attribute 26, 1
  10              		.eabi_attribute 30, 2
  11              		.eabi_attribute 34, 1
  12              		.eabi_attribute 18, 4
  13              		.thumb
  14              		.file	"CyFlash.c"
  15              		.text
  16              	.Ltext0:
  17              		.cfi_sections	.debug_frame
  18              		.section	.text.CySetTempInt.part.0,"ax",%progbits
  19              		.align	2
  20              		.thumb
  21              		.thumb_func
  22              		.type	CySetTempInt.part.0, %function
  23              	CySetTempInt.part.0:
  24              	.LFB12:
  25              		.file 1 "Generated_Source\\PSoC5\\CyFlash.c"
   1:Generated_Source\PSoC5/CyFlash.c **** /*******************************************************************************
   2:Generated_Source\PSoC5/CyFlash.c **** * File Name: CyFlash.c
   3:Generated_Source\PSoC5/CyFlash.c **** * Version 4.11
   4:Generated_Source\PSoC5/CyFlash.c **** *
   5:Generated_Source\PSoC5/CyFlash.c **** *  Description:
   6:Generated_Source\PSoC5/CyFlash.c **** *   Provides an API for the FLASH/EEPROM.
   7:Generated_Source\PSoC5/CyFlash.c **** *
   8:Generated_Source\PSoC5/CyFlash.c **** *  Note:
   9:Generated_Source\PSoC5/CyFlash.c **** *   This code is endian agnostic.
  10:Generated_Source\PSoC5/CyFlash.c **** *
  11:Generated_Source\PSoC5/CyFlash.c **** *  Note:
  12:Generated_Source\PSoC5/CyFlash.c **** *   Documentation of the API's in this file is located in the
  13:Generated_Source\PSoC5/CyFlash.c **** *   System Reference Guide provided with PSoC Creator.
  14:Generated_Source\PSoC5/CyFlash.c **** *
  15:Generated_Source\PSoC5/CyFlash.c **** ********************************************************************************
  16:Generated_Source\PSoC5/CyFlash.c **** * Copyright 2008-2014, Cypress Semiconductor Corporation. All rights reserved.
  17:Generated_Source\PSoC5/CyFlash.c **** * You may use this file only in accordance with the license, terms, conditions,
  18:Generated_Source\PSoC5/CyFlash.c **** * disclaimers, and limitations in the end user license agreement accompanying
  19:Generated_Source\PSoC5/CyFlash.c **** * the software package with which this file was provided.
  20:Generated_Source\PSoC5/CyFlash.c **** *******************************************************************************/
  21:Generated_Source\PSoC5/CyFlash.c **** 
  22:Generated_Source\PSoC5/CyFlash.c **** #include "CyFlash.h"
  23:Generated_Source\PSoC5/CyFlash.c **** 
  24:Generated_Source\PSoC5/CyFlash.c **** 
  25:Generated_Source\PSoC5/CyFlash.c **** /*******************************************************************************
  26:Generated_Source\PSoC5/CyFlash.c **** * Holds the die temperature, updated by CySetTemp(). Used for flash writing.
  27:Generated_Source\PSoC5/CyFlash.c **** * The first byte is the sign of the temperature (0 = negative, 1 = positive).
  28:Generated_Source\PSoC5/CyFlash.c **** * The second byte is the magnitude.
  29:Generated_Source\PSoC5/CyFlash.c **** *******************************************************************************/
  30:Generated_Source\PSoC5/CyFlash.c **** uint8 dieTemperature[CY_FLASH_DIE_TEMP_DATA_SIZE];
  31:Generated_Source\PSoC5/CyFlash.c **** 
  32:Generated_Source\PSoC5/CyFlash.c **** #if(CYDEV_ECC_ENABLE == 0)
ARM GAS  C:\Users\mgronber\AppData\Local\Temp\ccrZn5Va.s 			page 2


  33:Generated_Source\PSoC5/CyFlash.c ****     static uint8 * rowBuffer = 0;
  34:Generated_Source\PSoC5/CyFlash.c **** #endif  /* (CYDEV_ECC_ENABLE == 0) */
  35:Generated_Source\PSoC5/CyFlash.c **** 
  36:Generated_Source\PSoC5/CyFlash.c **** 
  37:Generated_Source\PSoC5/CyFlash.c **** static cystatus CySetTempInt(void);
  38:Generated_Source\PSoC5/CyFlash.c **** 
  39:Generated_Source\PSoC5/CyFlash.c **** 
  40:Generated_Source\PSoC5/CyFlash.c **** /*******************************************************************************
  41:Generated_Source\PSoC5/CyFlash.c **** * Function Name: CyFlash_Start
  42:Generated_Source\PSoC5/CyFlash.c **** ********************************************************************************
  43:Generated_Source\PSoC5/CyFlash.c **** *
  44:Generated_Source\PSoC5/CyFlash.c **** * Summary:
  45:Generated_Source\PSoC5/CyFlash.c **** *  Enable the Flash.
  46:Generated_Source\PSoC5/CyFlash.c **** *
  47:Generated_Source\PSoC5/CyFlash.c **** * Parameters:
  48:Generated_Source\PSoC5/CyFlash.c **** *  None
  49:Generated_Source\PSoC5/CyFlash.c **** *
  50:Generated_Source\PSoC5/CyFlash.c **** * Return:
  51:Generated_Source\PSoC5/CyFlash.c **** *  None
  52:Generated_Source\PSoC5/CyFlash.c **** *
  53:Generated_Source\PSoC5/CyFlash.c **** *******************************************************************************/
  54:Generated_Source\PSoC5/CyFlash.c **** void CyFlash_Start(void) 
  55:Generated_Source\PSoC5/CyFlash.c **** {
  56:Generated_Source\PSoC5/CyFlash.c ****     /* Active Power Mode */
  57:Generated_Source\PSoC5/CyFlash.c ****     *CY_FLASH_PM_ACT_EEFLASH_PTR |= CY_FLASH_PM_FLASH_MASK;
  58:Generated_Source\PSoC5/CyFlash.c **** 
  59:Generated_Source\PSoC5/CyFlash.c ****     /* Standby Power Mode */
  60:Generated_Source\PSoC5/CyFlash.c ****     *CY_FLASH_PM_ALTACT_EEFLASH_PTR |= CY_FLASH_PM_FLASH_MASK;
  61:Generated_Source\PSoC5/CyFlash.c **** 
  62:Generated_Source\PSoC5/CyFlash.c ****     CyDelayUs(CY_FLASH_EE_STARTUP_DELAY);
  63:Generated_Source\PSoC5/CyFlash.c **** }
  64:Generated_Source\PSoC5/CyFlash.c **** 
  65:Generated_Source\PSoC5/CyFlash.c **** 
  66:Generated_Source\PSoC5/CyFlash.c **** /*******************************************************************************
  67:Generated_Source\PSoC5/CyFlash.c **** * Function Name: CyFlash_Stop
  68:Generated_Source\PSoC5/CyFlash.c **** ********************************************************************************
  69:Generated_Source\PSoC5/CyFlash.c **** *
  70:Generated_Source\PSoC5/CyFlash.c **** * Summary:
  71:Generated_Source\PSoC5/CyFlash.c **** *  Disable the Flash.
  72:Generated_Source\PSoC5/CyFlash.c **** *
  73:Generated_Source\PSoC5/CyFlash.c **** * Parameters:
  74:Generated_Source\PSoC5/CyFlash.c **** *  None
  75:Generated_Source\PSoC5/CyFlash.c **** *
  76:Generated_Source\PSoC5/CyFlash.c **** * Return:
  77:Generated_Source\PSoC5/CyFlash.c **** *  None
  78:Generated_Source\PSoC5/CyFlash.c **** *
  79:Generated_Source\PSoC5/CyFlash.c **** * Side Effects:
  80:Generated_Source\PSoC5/CyFlash.c **** *  This setting is ignored as long as the CPU is currently running.  This will
  81:Generated_Source\PSoC5/CyFlash.c **** *  only take effect when the CPU is later disabled.
  82:Generated_Source\PSoC5/CyFlash.c **** *
  83:Generated_Source\PSoC5/CyFlash.c **** *******************************************************************************/
  84:Generated_Source\PSoC5/CyFlash.c **** void CyFlash_Stop(void) 
  85:Generated_Source\PSoC5/CyFlash.c **** {
  86:Generated_Source\PSoC5/CyFlash.c ****     /* Active Power Mode */
  87:Generated_Source\PSoC5/CyFlash.c ****     *CY_FLASH_PM_ACT_EEFLASH_PTR &= ((uint8)(~CY_FLASH_PM_FLASH_MASK));
  88:Generated_Source\PSoC5/CyFlash.c **** 
  89:Generated_Source\PSoC5/CyFlash.c ****     /* Standby Power Mode */
ARM GAS  C:\Users\mgronber\AppData\Local\Temp\ccrZn5Va.s 			page 3


  90:Generated_Source\PSoC5/CyFlash.c ****     *CY_FLASH_PM_ALTACT_EEFLASH_PTR &= ((uint8)(~CY_FLASH_PM_FLASH_MASK));
  91:Generated_Source\PSoC5/CyFlash.c **** }
  92:Generated_Source\PSoC5/CyFlash.c **** 
  93:Generated_Source\PSoC5/CyFlash.c **** 
  94:Generated_Source\PSoC5/CyFlash.c **** /*******************************************************************************
  95:Generated_Source\PSoC5/CyFlash.c **** * Function Name: CySetTempInt
  96:Generated_Source\PSoC5/CyFlash.c **** ********************************************************************************
  97:Generated_Source\PSoC5/CyFlash.c **** *
  98:Generated_Source\PSoC5/CyFlash.c **** * Summary:
  99:Generated_Source\PSoC5/CyFlash.c **** *  Sends a command to the SPC to read the die temperature. Sets a global value
 100:Generated_Source\PSoC5/CyFlash.c **** *  used by the Write function. This function must be called once before
 101:Generated_Source\PSoC5/CyFlash.c **** *  executing a series of Flash writing functions.
 102:Generated_Source\PSoC5/CyFlash.c **** *
 103:Generated_Source\PSoC5/CyFlash.c **** * Parameters:
 104:Generated_Source\PSoC5/CyFlash.c **** *  None
 105:Generated_Source\PSoC5/CyFlash.c **** *
 106:Generated_Source\PSoC5/CyFlash.c **** * Return:
 107:Generated_Source\PSoC5/CyFlash.c **** *  status:
 108:Generated_Source\PSoC5/CyFlash.c **** *   CYRET_SUCCESS - if successful
 109:Generated_Source\PSoC5/CyFlash.c **** *   CYRET_LOCKED  - if Flash writing already in use
 110:Generated_Source\PSoC5/CyFlash.c **** *   CYRET_UNKNOWN - if there was an SPC error
 111:Generated_Source\PSoC5/CyFlash.c **** *
 112:Generated_Source\PSoC5/CyFlash.c **** *******************************************************************************/
 113:Generated_Source\PSoC5/CyFlash.c **** static cystatus CySetTempInt(void) 
  26              		.loc 1 113 0
  27              		.cfi_startproc
  28              		@ args = 0, pretend = 0, frame = 0
  29              		@ frame_needed = 0, uses_anonymous_args = 0
  30 0000 10B5     		push	{r4, lr}
  31              		.cfi_def_cfa_offset 8
  32              		.cfi_offset 4, -8
  33              		.cfi_offset 14, -4
 114:Generated_Source\PSoC5/CyFlash.c **** {
 115:Generated_Source\PSoC5/CyFlash.c ****     cystatus status;
 116:Generated_Source\PSoC5/CyFlash.c **** 
 117:Generated_Source\PSoC5/CyFlash.c ****     /* Make sure SPC is powered */
 118:Generated_Source\PSoC5/CyFlash.c ****     CySpcStart();
 119:Generated_Source\PSoC5/CyFlash.c **** 
 120:Generated_Source\PSoC5/CyFlash.c ****     /* Plan for failure. */
 121:Generated_Source\PSoC5/CyFlash.c ****     status = CYRET_UNKNOWN;
 122:Generated_Source\PSoC5/CyFlash.c **** 
 123:Generated_Source\PSoC5/CyFlash.c ****     if(CySpcLock() == CYRET_SUCCESS)
 124:Generated_Source\PSoC5/CyFlash.c ****     {
 125:Generated_Source\PSoC5/CyFlash.c ****         /* Write the command. */
 126:Generated_Source\PSoC5/CyFlash.c ****         if(CYRET_STARTED == CySpcGetTemp(CY_TEMP_NUMBER_OF_SAMPLES))
  34              		.loc 1 126 0
  35 0002 0120     		movs	r0, #1
  36 0004 FFF7FEFF 		bl	CySpcGetTemp
  37              	.LVL0:
  38 0008 0728     		cmp	r0, #7
  39 000a 05D0     		beq	.L16
  40              	.L7:
 121:Generated_Source\PSoC5/CyFlash.c **** 
  41              		.loc 1 121 0
  42 000c 4FF0FF34 		mov	r4, #-1
  43              	.LVL1:
 127:Generated_Source\PSoC5/CyFlash.c ****         {
ARM GAS  C:\Users\mgronber\AppData\Local\Temp\ccrZn5Va.s 			page 4


 128:Generated_Source\PSoC5/CyFlash.c ****             do
 129:Generated_Source\PSoC5/CyFlash.c ****             {
 130:Generated_Source\PSoC5/CyFlash.c ****                 if(CySpcReadData(dieTemperature, CY_FLASH_DIE_TEMP_DATA_SIZE) == CY_FLASH_DIE_TEMP_
 131:Generated_Source\PSoC5/CyFlash.c ****                 {
 132:Generated_Source\PSoC5/CyFlash.c ****                     status = CYRET_SUCCESS;
 133:Generated_Source\PSoC5/CyFlash.c **** 
 134:Generated_Source\PSoC5/CyFlash.c ****                     while(CY_SPC_BUSY)
 135:Generated_Source\PSoC5/CyFlash.c ****                     {
 136:Generated_Source\PSoC5/CyFlash.c ****                         /* Spin until idle. */
 137:Generated_Source\PSoC5/CyFlash.c ****                         CyDelayUs(1u);
 138:Generated_Source\PSoC5/CyFlash.c ****                     }
 139:Generated_Source\PSoC5/CyFlash.c ****                     break;
 140:Generated_Source\PSoC5/CyFlash.c ****                 }
 141:Generated_Source\PSoC5/CyFlash.c **** 
 142:Generated_Source\PSoC5/CyFlash.c ****             } while(CY_SPC_BUSY);
 143:Generated_Source\PSoC5/CyFlash.c ****         }
 144:Generated_Source\PSoC5/CyFlash.c **** 
 145:Generated_Source\PSoC5/CyFlash.c ****         CySpcUnlock();
  44              		.loc 1 145 0
  45 0010 FFF7FEFF 		bl	CySpcUnlock
  46              	.LVL2:
 146:Generated_Source\PSoC5/CyFlash.c ****     }
 147:Generated_Source\PSoC5/CyFlash.c ****     else
 148:Generated_Source\PSoC5/CyFlash.c ****     {
 149:Generated_Source\PSoC5/CyFlash.c ****         status = CYRET_LOCKED;
 150:Generated_Source\PSoC5/CyFlash.c ****     }
 151:Generated_Source\PSoC5/CyFlash.c **** 
 152:Generated_Source\PSoC5/CyFlash.c ****     return (status);
 153:Generated_Source\PSoC5/CyFlash.c **** }
  47              		.loc 1 153 0
  48 0014 2046     		mov	r0, r4
  49 0016 10BD     		pop	{r4, pc}
  50              	.LVL3:
  51              	.L16:
 142:Generated_Source\PSoC5/CyFlash.c ****         }
  52              		.loc 1 142 0
  53 0018 0C4C     		ldr	r4, .L17
  54 001a 02E0     		b	.L2
  55              	.L4:
  56 001c 2378     		ldrb	r3, [r4]	@ zero_extendqisi2
  57 001e 9B07     		lsls	r3, r3, #30
  58 0020 F4D4     		bmi	.L7
  59              	.L2:
 130:Generated_Source\PSoC5/CyFlash.c ****                 {
  60              		.loc 1 130 0
  61 0022 0B48     		ldr	r0, .L17+4
  62 0024 0221     		movs	r1, #2
  63 0026 FFF7FEFF 		bl	CySpcReadData
  64              	.LVL4:
  65 002a 0228     		cmp	r0, #2
  66 002c F6D1     		bne	.L4
 134:Generated_Source\PSoC5/CyFlash.c ****                     {
  67              		.loc 1 134 0
  68 002e 074C     		ldr	r4, .L17
  69 0030 2378     		ldrb	r3, [r4]	@ zero_extendqisi2
  70 0032 9907     		lsls	r1, r3, #30
  71 0034 05D4     		bmi	.L6
ARM GAS  C:\Users\mgronber\AppData\Local\Temp\ccrZn5Va.s 			page 5


  72              	.L5:
 137:Generated_Source\PSoC5/CyFlash.c ****                     }
  73              		.loc 1 137 0
  74 0036 0120     		movs	r0, #1
  75 0038 FFF7FEFF 		bl	CyDelayUs
  76              	.LVL5:
 134:Generated_Source\PSoC5/CyFlash.c ****                     {
  77              		.loc 1 134 0
  78 003c 2378     		ldrb	r3, [r4]	@ zero_extendqisi2
  79 003e 9A07     		lsls	r2, r3, #30
  80 0040 F9D5     		bpl	.L5
  81              	.L6:
 132:Generated_Source\PSoC5/CyFlash.c **** 
  82              		.loc 1 132 0
  83 0042 0024     		movs	r4, #0
  84              	.LVL6:
 145:Generated_Source\PSoC5/CyFlash.c ****     }
  85              		.loc 1 145 0
  86 0044 FFF7FEFF 		bl	CySpcUnlock
  87              	.LVL7:
  88              		.loc 1 153 0
  89 0048 2046     		mov	r0, r4
  90 004a 10BD     		pop	{r4, pc}
  91              	.LVL8:
  92              	.L18:
  93              		.align	2
  94              	.L17:
  95 004c 22470040 		.word	1073760034
  96 0050 00000000 		.word	dieTemperature
  97              		.cfi_endproc
  98              	.LFE12:
  99              		.size	CySetTempInt.part.0, .-CySetTempInt.part.0
 100              		.section	.text.CyFlash_Start,"ax",%progbits
 101              		.align	2
 102              		.global	CyFlash_Start
 103              		.thumb
 104              		.thumb_func
 105              		.type	CyFlash_Start, %function
 106              	CyFlash_Start:
 107              	.LFB0:
  55:Generated_Source\PSoC5/CyFlash.c ****     /* Active Power Mode */
 108              		.loc 1 55 0
 109              		.cfi_startproc
 110              		@ args = 0, pretend = 0, frame = 0
 111              		@ frame_needed = 0, uses_anonymous_args = 0
 112              		@ link register save eliminated.
  57:Generated_Source\PSoC5/CyFlash.c **** 
 113              		.loc 1 57 0
 114 0000 0649     		ldr	r1, .L20
  60:Generated_Source\PSoC5/CyFlash.c **** 
 115              		.loc 1 60 0
 116 0002 074A     		ldr	r2, .L20+4
  57:Generated_Source\PSoC5/CyFlash.c **** 
 117              		.loc 1 57 0
 118 0004 0B78     		ldrb	r3, [r1]	@ zero_extendqisi2
  62:Generated_Source\PSoC5/CyFlash.c **** }
 119              		.loc 1 62 0
ARM GAS  C:\Users\mgronber\AppData\Local\Temp\ccrZn5Va.s 			page 6


 120 0006 0520     		movs	r0, #5
  57:Generated_Source\PSoC5/CyFlash.c **** 
 121              		.loc 1 57 0
 122 0008 43F00103 		orr	r3, r3, #1
 123 000c 0B70     		strb	r3, [r1]
  60:Generated_Source\PSoC5/CyFlash.c **** 
 124              		.loc 1 60 0
 125 000e 1378     		ldrb	r3, [r2]	@ zero_extendqisi2
 126 0010 43F00103 		orr	r3, r3, #1
 127 0014 1370     		strb	r3, [r2]
  62:Generated_Source\PSoC5/CyFlash.c **** }
 128              		.loc 1 62 0
 129 0016 FFF7FEBF 		b	CyDelayUs
 130              	.LVL9:
 131              	.L21:
 132 001a 00BF     		.align	2
 133              	.L20:
 134 001c AC430040 		.word	1073759148
 135 0020 BC430040 		.word	1073759164
 136              		.cfi_endproc
 137              	.LFE0:
 138              		.size	CyFlash_Start, .-CyFlash_Start
 139              		.section	.text.CyFlash_Stop,"ax",%progbits
 140              		.align	2
 141              		.global	CyFlash_Stop
 142              		.thumb
 143              		.thumb_func
 144              		.type	CyFlash_Stop, %function
 145              	CyFlash_Stop:
 146              	.LFB1:
  85:Generated_Source\PSoC5/CyFlash.c ****     /* Active Power Mode */
 147              		.loc 1 85 0
 148              		.cfi_startproc
 149              		@ args = 0, pretend = 0, frame = 0
 150              		@ frame_needed = 0, uses_anonymous_args = 0
 151              		@ link register save eliminated.
  87:Generated_Source\PSoC5/CyFlash.c **** 
 152              		.loc 1 87 0
 153 0000 0549     		ldr	r1, .L23
  90:Generated_Source\PSoC5/CyFlash.c **** }
 154              		.loc 1 90 0
 155 0002 064A     		ldr	r2, .L23+4
  87:Generated_Source\PSoC5/CyFlash.c **** 
 156              		.loc 1 87 0
 157 0004 0B78     		ldrb	r3, [r1]	@ zero_extendqisi2
 158 0006 03F0FE03 		and	r3, r3, #254
 159 000a 0B70     		strb	r3, [r1]
  90:Generated_Source\PSoC5/CyFlash.c **** }
 160              		.loc 1 90 0
 161 000c 1378     		ldrb	r3, [r2]	@ zero_extendqisi2
 162 000e 03F0FE03 		and	r3, r3, #254
 163 0012 1370     		strb	r3, [r2]
 164 0014 7047     		bx	lr
 165              	.L24:
 166 0016 00BF     		.align	2
 167              	.L23:
 168 0018 AC430040 		.word	1073759148
ARM GAS  C:\Users\mgronber\AppData\Local\Temp\ccrZn5Va.s 			page 7


 169 001c BC430040 		.word	1073759164
 170              		.cfi_endproc
 171              	.LFE1:
 172              		.size	CyFlash_Stop, .-CyFlash_Stop
 173              		.section	.text.CySetTemp,"ax",%progbits
 174              		.align	2
 175              		.global	CySetTemp
 176              		.thumb
 177              		.thumb_func
 178              		.type	CySetTemp, %function
 179              	CySetTemp:
 180              	.LFB3:
 154:Generated_Source\PSoC5/CyFlash.c **** 
 155:Generated_Source\PSoC5/CyFlash.c **** 
 156:Generated_Source\PSoC5/CyFlash.c **** /*******************************************************************************
 157:Generated_Source\PSoC5/CyFlash.c **** * Function Name: CySetTemp
 158:Generated_Source\PSoC5/CyFlash.c **** ********************************************************************************
 159:Generated_Source\PSoC5/CyFlash.c **** *
 160:Generated_Source\PSoC5/CyFlash.c **** * Summary:
 161:Generated_Source\PSoC5/CyFlash.c **** *  This is a wraparound for CySetTempInt(). It is used to return the second
 162:Generated_Source\PSoC5/CyFlash.c **** *  successful read of the temperature value.
 163:Generated_Source\PSoC5/CyFlash.c **** *
 164:Generated_Source\PSoC5/CyFlash.c **** * Parameters:
 165:Generated_Source\PSoC5/CyFlash.c **** *  None
 166:Generated_Source\PSoC5/CyFlash.c **** *
 167:Generated_Source\PSoC5/CyFlash.c **** * Return:
 168:Generated_Source\PSoC5/CyFlash.c **** *  status:
 169:Generated_Source\PSoC5/CyFlash.c **** *   CYRET_SUCCESS if successful.
 170:Generated_Source\PSoC5/CyFlash.c **** *   CYRET_LOCKED  if Flash writing already in use
 171:Generated_Source\PSoC5/CyFlash.c **** *   CYRET_UNKNOWN if there was an SPC error.
 172:Generated_Source\PSoC5/CyFlash.c **** *
 173:Generated_Source\PSoC5/CyFlash.c **** *  uint8 dieTemperature[2]:
 174:Generated_Source\PSoC5/CyFlash.c **** *   Holds the die temperature for the flash writing algorithm. The first byte is
 175:Generated_Source\PSoC5/CyFlash.c **** *   the sign of the temperature (0 = negative, 1 = positive). The second byte is
 176:Generated_Source\PSoC5/CyFlash.c **** *   the magnitude.
 177:Generated_Source\PSoC5/CyFlash.c **** *
 178:Generated_Source\PSoC5/CyFlash.c **** *******************************************************************************/
 179:Generated_Source\PSoC5/CyFlash.c **** cystatus CySetTemp(void) 
 180:Generated_Source\PSoC5/CyFlash.c **** {
 181              		.loc 1 180 0
 182              		.cfi_startproc
 183              		@ args = 0, pretend = 0, frame = 0
 184              		@ frame_needed = 0, uses_anonymous_args = 0
 185 0000 08B5     		push	{r3, lr}
 186              		.cfi_def_cfa_offset 8
 187              		.cfi_offset 3, -8
 188              		.cfi_offset 14, -4
 189              	.LBB6:
 190              	.LBB7:
 118:Generated_Source\PSoC5/CyFlash.c **** 
 191              		.loc 1 118 0
 192 0002 FFF7FEFF 		bl	CySpcStart
 193              	.LVL10:
 123:Generated_Source\PSoC5/CyFlash.c ****     {
 194              		.loc 1 123 0
 195 0006 FFF7FEFF 		bl	CySpcLock
 196              	.LVL11:
ARM GAS  C:\Users\mgronber\AppData\Local\Temp\ccrZn5Va.s 			page 8


 197 000a 08B1     		cbz	r0, .L26
 198              	.LVL12:
 199              	.L28:
 149:Generated_Source\PSoC5/CyFlash.c ****     }
 200              		.loc 1 149 0
 201 000c 0420     		movs	r0, #4
 202 000e 08BD     		pop	{r3, pc}
 203              	.LVL13:
 204              	.L26:
 205 0010 FFF7FEFF 		bl	CySetTempInt.part.0
 206              	.LVL14:
 207              	.LBE7:
 208              	.LBE6:
 181:Generated_Source\PSoC5/CyFlash.c ****     cystatus status = CySetTempInt();
 182:Generated_Source\PSoC5/CyFlash.c **** 
 183:Generated_Source\PSoC5/CyFlash.c ****     if(status == CYRET_SUCCESS)
 209              		.loc 1 183 0
 210 0014 48B9     		cbnz	r0, .L27
 211              	.LBB8:
 212              	.LBB9:
 118:Generated_Source\PSoC5/CyFlash.c **** 
 213              		.loc 1 118 0
 214 0016 FFF7FEFF 		bl	CySpcStart
 215              	.LVL15:
 123:Generated_Source\PSoC5/CyFlash.c ****     {
 216              		.loc 1 123 0
 217 001a FFF7FEFF 		bl	CySpcLock
 218              	.LVL16:
 219 001e 0028     		cmp	r0, #0
 220 0020 F4D1     		bne	.L28
 221              	.LBE9:
 222              	.LBE8:
 184:Generated_Source\PSoC5/CyFlash.c ****     {
 185:Generated_Source\PSoC5/CyFlash.c ****         status = CySetTempInt();
 186:Generated_Source\PSoC5/CyFlash.c ****     }
 187:Generated_Source\PSoC5/CyFlash.c **** 
 188:Generated_Source\PSoC5/CyFlash.c ****     return (status);
 189:Generated_Source\PSoC5/CyFlash.c **** }
 223              		.loc 1 189 0
 224 0022 BDE80840 		pop	{r3, lr}
 225              		.cfi_remember_state
 226              		.cfi_restore 14
 227              		.cfi_restore 3
 228              		.cfi_def_cfa_offset 0
 229              	.LBB11:
 230              	.LBB10:
 231 0026 FFF7FEBF 		b	CySetTempInt.part.0
 232              	.LVL17:
 233              	.L27:
 234              		.cfi_restore_state
 235              	.LBE10:
 236              	.LBE11:
 237 002a 08BD     		pop	{r3, pc}
 238              		.cfi_endproc
 239              	.LFE3:
 240              		.size	CySetTemp, .-CySetTemp
 241              		.section	.text.CySetFlashEEBuffer,"ax",%progbits
ARM GAS  C:\Users\mgronber\AppData\Local\Temp\ccrZn5Va.s 			page 9


 242              		.align	2
 243              		.global	CySetFlashEEBuffer
 244              		.thumb
 245              		.thumb_func
 246              		.type	CySetFlashEEBuffer, %function
 247              	CySetFlashEEBuffer:
 248              	.LFB4:
 190:Generated_Source\PSoC5/CyFlash.c **** 
 191:Generated_Source\PSoC5/CyFlash.c **** 
 192:Generated_Source\PSoC5/CyFlash.c **** /*******************************************************************************
 193:Generated_Source\PSoC5/CyFlash.c **** * Function Name: CySetFlashEEBuffer
 194:Generated_Source\PSoC5/CyFlash.c **** ********************************************************************************
 195:Generated_Source\PSoC5/CyFlash.c **** *
 196:Generated_Source\PSoC5/CyFlash.c **** * Summary:
 197:Generated_Source\PSoC5/CyFlash.c **** *  Sets the user supplied temporary buffer to store SPC data while performing
 198:Generated_Source\PSoC5/CyFlash.c **** *  Flash and EEPROM commands. This buffer is only necessary when the Flash ECC is
 199:Generated_Source\PSoC5/CyFlash.c **** *  disabled.
 200:Generated_Source\PSoC5/CyFlash.c **** *
 201:Generated_Source\PSoC5/CyFlash.c **** * Parameters:
 202:Generated_Source\PSoC5/CyFlash.c **** *  buffer:
 203:Generated_Source\PSoC5/CyFlash.c **** *   The address of a block of memory to store temporary memory. The size of the block
 204:Generated_Source\PSoC5/CyFlash.c **** *   of memory is CYDEV_FLS_ROW_SIZE + CYDEV_ECC_ROW_SIZE.
 205:Generated_Source\PSoC5/CyFlash.c **** *
 206:Generated_Source\PSoC5/CyFlash.c **** * Return:
 207:Generated_Source\PSoC5/CyFlash.c **** *  status:
 208:Generated_Source\PSoC5/CyFlash.c **** *   CYRET_SUCCESS if successful.
 209:Generated_Source\PSoC5/CyFlash.c **** *   CYRET_BAD_PARAM if the buffer is NULL
 210:Generated_Source\PSoC5/CyFlash.c **** *
 211:Generated_Source\PSoC5/CyFlash.c **** *******************************************************************************/
 212:Generated_Source\PSoC5/CyFlash.c **** cystatus CySetFlashEEBuffer(uint8 * buffer) 
 213:Generated_Source\PSoC5/CyFlash.c **** {
 249              		.loc 1 213 0
 250              		.cfi_startproc
 251              		@ args = 0, pretend = 0, frame = 8
 252              		@ frame_needed = 0, uses_anonymous_args = 0
 253              	.LVL18:
 254 0000 10B5     		push	{r4, lr}
 255              		.cfi_def_cfa_offset 8
 256              		.cfi_offset 4, -8
 257              		.cfi_offset 14, -4
 258 0002 0446     		mov	r4, r0
 259 0004 82B0     		sub	sp, sp, #8
 260              		.cfi_def_cfa_offset 16
 214:Generated_Source\PSoC5/CyFlash.c ****     cystatus status = CYRET_SUCCESS;
 215:Generated_Source\PSoC5/CyFlash.c **** 
 216:Generated_Source\PSoC5/CyFlash.c ****     CySpcStart();
 261              		.loc 1 216 0
 262 0006 FFF7FEFF 		bl	CySpcStart
 263              	.LVL19:
 217:Generated_Source\PSoC5/CyFlash.c **** 
 218:Generated_Source\PSoC5/CyFlash.c ****     #if(CYDEV_ECC_ENABLE == 0)
 219:Generated_Source\PSoC5/CyFlash.c **** 
 220:Generated_Source\PSoC5/CyFlash.c ****         if(NULL == buffer)
 264              		.loc 1 220 0
 265 000a 2CB1     		cbz	r4, .L32
 221:Generated_Source\PSoC5/CyFlash.c ****         {
 222:Generated_Source\PSoC5/CyFlash.c ****             rowBuffer = rowBuffer;
ARM GAS  C:\Users\mgronber\AppData\Local\Temp\ccrZn5Va.s 			page 10


 223:Generated_Source\PSoC5/CyFlash.c ****             status = CYRET_BAD_PARAM;
 224:Generated_Source\PSoC5/CyFlash.c ****         }
 225:Generated_Source\PSoC5/CyFlash.c ****         else if(CySpcLock() != CYRET_SUCCESS)
 266              		.loc 1 225 0
 267 000c FFF7FEFF 		bl	CySpcLock
 268              	.LVL20:
 269 0010 28B1     		cbz	r0, .L35
 226:Generated_Source\PSoC5/CyFlash.c ****         {
 227:Generated_Source\PSoC5/CyFlash.c ****             rowBuffer = rowBuffer;
 228:Generated_Source\PSoC5/CyFlash.c ****             status = CYRET_LOCKED;
 270              		.loc 1 228 0
 271 0012 0420     		movs	r0, #4
 272              	.LVL21:
 229:Generated_Source\PSoC5/CyFlash.c ****         }
 230:Generated_Source\PSoC5/CyFlash.c ****         else
 231:Generated_Source\PSoC5/CyFlash.c ****         {
 232:Generated_Source\PSoC5/CyFlash.c ****             rowBuffer = buffer;
 233:Generated_Source\PSoC5/CyFlash.c ****             CySpcUnlock();
 234:Generated_Source\PSoC5/CyFlash.c ****         }
 235:Generated_Source\PSoC5/CyFlash.c **** 
 236:Generated_Source\PSoC5/CyFlash.c ****     #else
 237:Generated_Source\PSoC5/CyFlash.c **** 
 238:Generated_Source\PSoC5/CyFlash.c ****         /* To suppress warning */
 239:Generated_Source\PSoC5/CyFlash.c ****         buffer = buffer;
 240:Generated_Source\PSoC5/CyFlash.c **** 
 241:Generated_Source\PSoC5/CyFlash.c ****     #endif  /* (CYDEV_ECC_ENABLE == 0u) */
 242:Generated_Source\PSoC5/CyFlash.c **** 
 243:Generated_Source\PSoC5/CyFlash.c ****     return(status);
 244:Generated_Source\PSoC5/CyFlash.c **** }
 273              		.loc 1 244 0
 274 0014 02B0     		add	sp, sp, #8
 275              		.cfi_remember_state
 276              		.cfi_def_cfa_offset 8
 277              		@ sp needed
 278 0016 10BD     		pop	{r4, pc}
 279              	.LVL22:
 280              	.L32:
 281              		.cfi_restore_state
 223:Generated_Source\PSoC5/CyFlash.c ****         }
 282              		.loc 1 223 0
 283 0018 0120     		movs	r0, #1
 284              	.LVL23:
 285              		.loc 1 244 0
 286 001a 02B0     		add	sp, sp, #8
 287              		.cfi_remember_state
 288              		.cfi_def_cfa_offset 8
 289              		@ sp needed
 290 001c 10BD     		pop	{r4, pc}
 291              	.LVL24:
 292              	.L35:
 293              		.cfi_restore_state
 232:Generated_Source\PSoC5/CyFlash.c ****             CySpcUnlock();
 294              		.loc 1 232 0
 295 001e 044B     		ldr	r3, .L36
 296 0020 0190     		str	r0, [sp, #4]
 297 0022 1C60     		str	r4, [r3]
 233:Generated_Source\PSoC5/CyFlash.c ****         }
ARM GAS  C:\Users\mgronber\AppData\Local\Temp\ccrZn5Va.s 			page 11


 298              		.loc 1 233 0
 299 0024 FFF7FEFF 		bl	CySpcUnlock
 300              	.LVL25:
 214:Generated_Source\PSoC5/CyFlash.c **** 
 301              		.loc 1 214 0
 302 0028 0198     		ldr	r0, [sp, #4]
 303              	.LVL26:
 304              		.loc 1 244 0
 305 002a 02B0     		add	sp, sp, #8
 306              		.cfi_def_cfa_offset 8
 307              		@ sp needed
 308 002c 10BD     		pop	{r4, pc}
 309              	.LVL27:
 310              	.L37:
 311 002e 00BF     		.align	2
 312              	.L36:
 313 0030 00000000 		.word	.LANCHOR0
 314              		.cfi_endproc
 315              	.LFE4:
 316              		.size	CySetFlashEEBuffer, .-CySetFlashEEBuffer
 317              		.section	.text.CyWriteRowFull,"ax",%progbits
 318              		.align	2
 319              		.global	CyWriteRowFull
 320              		.thumb
 321              		.thumb_func
 322              		.type	CyWriteRowFull, %function
 323              	CyWriteRowFull:
 324              	.LFB6:
 245:Generated_Source\PSoC5/CyFlash.c **** 
 246:Generated_Source\PSoC5/CyFlash.c **** 
 247:Generated_Source\PSoC5/CyFlash.c **** #if(CYDEV_ECC_ENABLE == 1)
 248:Generated_Source\PSoC5/CyFlash.c **** 
 249:Generated_Source\PSoC5/CyFlash.c ****     /*******************************************************************************
 250:Generated_Source\PSoC5/CyFlash.c ****     * Function Name: CyWriteRowData
 251:Generated_Source\PSoC5/CyFlash.c ****     ********************************************************************************
 252:Generated_Source\PSoC5/CyFlash.c ****     *
 253:Generated_Source\PSoC5/CyFlash.c ****     * Summary:
 254:Generated_Source\PSoC5/CyFlash.c ****     *  Sends a command to the SPC to load and program a row of data in
 255:Generated_Source\PSoC5/CyFlash.c ****     *  Flash or EEPROM.
 256:Generated_Source\PSoC5/CyFlash.c ****     *
 257:Generated_Source\PSoC5/CyFlash.c ****     * Parameters:
 258:Generated_Source\PSoC5/CyFlash.c ****     *  arrayID:    ID of the array to write.
 259:Generated_Source\PSoC5/CyFlash.c ****     *   The type of write, Flash or EEPROM, is determined from the array ID.
 260:Generated_Source\PSoC5/CyFlash.c ****     *   The arrays in the part are sequential starting at the first ID for the
 261:Generated_Source\PSoC5/CyFlash.c ****     *   specific memory type. The array ID for the Flash memory lasts from 0x00 to
 262:Generated_Source\PSoC5/CyFlash.c ****     *   0x3F and for the EEPROM memory it lasts from 0x40 to 0x7F.
 263:Generated_Source\PSoC5/CyFlash.c ****     *  rowAddress: rowAddress of flash row to program.
 264:Generated_Source\PSoC5/CyFlash.c ****     *  rowData:    Array of bytes to write.
 265:Generated_Source\PSoC5/CyFlash.c ****     *
 266:Generated_Source\PSoC5/CyFlash.c ****     * Return:
 267:Generated_Source\PSoC5/CyFlash.c ****     *  status:
 268:Generated_Source\PSoC5/CyFlash.c ****     *   CYRET_SUCCESS if successful.
 269:Generated_Source\PSoC5/CyFlash.c ****     *   CYRET_LOCKED if the SPC is already in use.
 270:Generated_Source\PSoC5/CyFlash.c ****     *   CYRET_CANCELED if command not accepted
 271:Generated_Source\PSoC5/CyFlash.c ****     *   CYRET_UNKNOWN if there was an SPC error.
 272:Generated_Source\PSoC5/CyFlash.c ****     *
 273:Generated_Source\PSoC5/CyFlash.c ****     *******************************************************************************/
ARM GAS  C:\Users\mgronber\AppData\Local\Temp\ccrZn5Va.s 			page 12


 274:Generated_Source\PSoC5/CyFlash.c ****     cystatus CyWriteRowData(uint8 arrayId, uint16 rowAddress, const uint8 * rowData) 
 275:Generated_Source\PSoC5/CyFlash.c ****     {
 276:Generated_Source\PSoC5/CyFlash.c ****         uint16 rowSize;
 277:Generated_Source\PSoC5/CyFlash.c ****         cystatus status;
 278:Generated_Source\PSoC5/CyFlash.c **** 
 279:Generated_Source\PSoC5/CyFlash.c ****         rowSize = (arrayId > CY_SPC_LAST_FLASH_ARRAYID) ? CYDEV_EEPROM_ROW_SIZE : CYDEV_FLS_ROW_SIZ
 280:Generated_Source\PSoC5/CyFlash.c ****         status = CyWriteRowFull(arrayId, rowAddress, rowData, rowSize);
 281:Generated_Source\PSoC5/CyFlash.c **** 
 282:Generated_Source\PSoC5/CyFlash.c ****         return(status);
 283:Generated_Source\PSoC5/CyFlash.c ****     }
 284:Generated_Source\PSoC5/CyFlash.c **** 
 285:Generated_Source\PSoC5/CyFlash.c **** #else
 286:Generated_Source\PSoC5/CyFlash.c **** 
 287:Generated_Source\PSoC5/CyFlash.c ****     /*******************************************************************************
 288:Generated_Source\PSoC5/CyFlash.c ****     * Function Name: CyWriteRowData
 289:Generated_Source\PSoC5/CyFlash.c ****     ********************************************************************************
 290:Generated_Source\PSoC5/CyFlash.c ****     *
 291:Generated_Source\PSoC5/CyFlash.c ****     * Summary:
 292:Generated_Source\PSoC5/CyFlash.c ****     *   Sends a command to the SPC to load and program a row of data in
 293:Generated_Source\PSoC5/CyFlash.c ****     *   Flash or EEPROM.
 294:Generated_Source\PSoC5/CyFlash.c ****     *
 295:Generated_Source\PSoC5/CyFlash.c ****     * Parameters:
 296:Generated_Source\PSoC5/CyFlash.c ****     *  arrayID      : ID of the array to write.
 297:Generated_Source\PSoC5/CyFlash.c ****     *   The type of write, Flash or EEPROM, is determined from the array ID.
 298:Generated_Source\PSoC5/CyFlash.c ****     *   The arrays in the part are sequential starting at the first ID for the
 299:Generated_Source\PSoC5/CyFlash.c ****     *   specific memory type. The array ID for the Flash memory lasts from 0x00 to
 300:Generated_Source\PSoC5/CyFlash.c ****     *   0x3F and for the EEPROM memory it lasts from 0x40 to 0x7F.
 301:Generated_Source\PSoC5/CyFlash.c ****     *  rowAddress   : rowAddress of flash row to program.
 302:Generated_Source\PSoC5/CyFlash.c ****     *  rowData      : Array of bytes to write.
 303:Generated_Source\PSoC5/CyFlash.c ****     *
 304:Generated_Source\PSoC5/CyFlash.c ****     * Return:
 305:Generated_Source\PSoC5/CyFlash.c ****     *  status:
 306:Generated_Source\PSoC5/CyFlash.c ****     *   CYRET_SUCCESS if successful.
 307:Generated_Source\PSoC5/CyFlash.c ****     *   CYRET_LOCKED if the SPC is already in use.
 308:Generated_Source\PSoC5/CyFlash.c ****     *   CYRET_CANCELED if command not accepted
 309:Generated_Source\PSoC5/CyFlash.c ****     *   CYRET_UNKNOWN if there was an SPC error.
 310:Generated_Source\PSoC5/CyFlash.c ****     *
 311:Generated_Source\PSoC5/CyFlash.c ****     *******************************************************************************/
 312:Generated_Source\PSoC5/CyFlash.c ****     cystatus CyWriteRowData(uint8 arrayId, uint16 rowAddress, const uint8 * rowData) 
 313:Generated_Source\PSoC5/CyFlash.c ****     {
 314:Generated_Source\PSoC5/CyFlash.c ****         uint8 i;
 315:Generated_Source\PSoC5/CyFlash.c ****         uint32 offset;
 316:Generated_Source\PSoC5/CyFlash.c ****         uint16 rowSize;
 317:Generated_Source\PSoC5/CyFlash.c ****         cystatus status;
 318:Generated_Source\PSoC5/CyFlash.c **** 
 319:Generated_Source\PSoC5/CyFlash.c ****         /* Check whether rowBuffer pointer has been initialized by CySetFlashEEBuffer() */
 320:Generated_Source\PSoC5/CyFlash.c ****         if(NULL != rowBuffer)
 321:Generated_Source\PSoC5/CyFlash.c ****         {
 322:Generated_Source\PSoC5/CyFlash.c ****             if(arrayId > CY_SPC_LAST_FLASH_ARRAYID)
 323:Generated_Source\PSoC5/CyFlash.c ****             {
 324:Generated_Source\PSoC5/CyFlash.c ****                 rowSize = CYDEV_EEPROM_ROW_SIZE;
 325:Generated_Source\PSoC5/CyFlash.c ****             }
 326:Generated_Source\PSoC5/CyFlash.c ****             else
 327:Generated_Source\PSoC5/CyFlash.c ****             {
 328:Generated_Source\PSoC5/CyFlash.c ****                 rowSize = CYDEV_FLS_ROW_SIZE + CYDEV_ECC_ROW_SIZE;
 329:Generated_Source\PSoC5/CyFlash.c **** 
 330:Generated_Source\PSoC5/CyFlash.c ****                 /* Save ECC area. */
ARM GAS  C:\Users\mgronber\AppData\Local\Temp\ccrZn5Va.s 			page 13


 331:Generated_Source\PSoC5/CyFlash.c ****                 offset = CYDEV_ECC_BASE +
 332:Generated_Source\PSoC5/CyFlash.c ****                         ((uint32)arrayId * CYDEV_ECC_SECTOR_SIZE) +
 333:Generated_Source\PSoC5/CyFlash.c ****                         ((uint32)rowAddress * CYDEV_ECC_ROW_SIZE);
 334:Generated_Source\PSoC5/CyFlash.c **** 
 335:Generated_Source\PSoC5/CyFlash.c ****                 for(i = 0u; i < CYDEV_ECC_ROW_SIZE; i++)
 336:Generated_Source\PSoC5/CyFlash.c ****                 {
 337:Generated_Source\PSoC5/CyFlash.c ****                     *(rowBuffer + CYDEV_FLS_ROW_SIZE + i) = CY_GET_XTND_REG8((void CYFAR *)(offset 
 338:Generated_Source\PSoC5/CyFlash.c ****                 }
 339:Generated_Source\PSoC5/CyFlash.c ****             }
 340:Generated_Source\PSoC5/CyFlash.c **** 
 341:Generated_Source\PSoC5/CyFlash.c ****             /* Copy rowdata to temporary buffer. */
 342:Generated_Source\PSoC5/CyFlash.c ****         #if(CY_PSOC3)
 343:Generated_Source\PSoC5/CyFlash.c ****             (void) memcpy((void *) rowBuffer, (void *)((uint32) rowData), (int16) CYDEV_FLS_ROW_SIZ
 344:Generated_Source\PSoC5/CyFlash.c ****         #else
 345:Generated_Source\PSoC5/CyFlash.c ****             (void) memcpy((void *) rowBuffer, (const void *) rowData, CYDEV_FLS_ROW_SIZE);
 346:Generated_Source\PSoC5/CyFlash.c ****         #endif  /* (CY_PSOC3) */
 347:Generated_Source\PSoC5/CyFlash.c **** 
 348:Generated_Source\PSoC5/CyFlash.c ****             status = CyWriteRowFull(arrayId, rowAddress, rowBuffer, rowSize);
 349:Generated_Source\PSoC5/CyFlash.c ****         }
 350:Generated_Source\PSoC5/CyFlash.c ****         else
 351:Generated_Source\PSoC5/CyFlash.c ****         {
 352:Generated_Source\PSoC5/CyFlash.c ****             status = CYRET_UNKNOWN;
 353:Generated_Source\PSoC5/CyFlash.c ****         }
 354:Generated_Source\PSoC5/CyFlash.c **** 
 355:Generated_Source\PSoC5/CyFlash.c ****         return(status);
 356:Generated_Source\PSoC5/CyFlash.c ****     }
 357:Generated_Source\PSoC5/CyFlash.c **** 
 358:Generated_Source\PSoC5/CyFlash.c **** #endif /* (CYDEV_ECC_ENABLE == 0u) */
 359:Generated_Source\PSoC5/CyFlash.c **** 
 360:Generated_Source\PSoC5/CyFlash.c **** 
 361:Generated_Source\PSoC5/CyFlash.c **** #if ((CYDEV_ECC_ENABLE == 0u) && (CYDEV_CONFIGURATION_ECC == 0u))
 362:Generated_Source\PSoC5/CyFlash.c **** 
 363:Generated_Source\PSoC5/CyFlash.c ****     /*******************************************************************************
 364:Generated_Source\PSoC5/CyFlash.c ****     * Function Name: CyWriteRowConfig
 365:Generated_Source\PSoC5/CyFlash.c ****     ********************************************************************************
 366:Generated_Source\PSoC5/CyFlash.c ****     *
 367:Generated_Source\PSoC5/CyFlash.c ****     * Summary:
 368:Generated_Source\PSoC5/CyFlash.c ****     *  Sends a command to the SPC to load and program a row of config data in the Flash.
 369:Generated_Source\PSoC5/CyFlash.c ****     *  This function is only valid for Flash array IDs (not for EEPROM).
 370:Generated_Source\PSoC5/CyFlash.c ****     *
 371:Generated_Source\PSoC5/CyFlash.c ****     * Parameters:
 372:Generated_Source\PSoC5/CyFlash.c ****     *  arrayId:      ID of the array to write
 373:Generated_Source\PSoC5/CyFlash.c ****     *   The arrays in the part are sequential starting at the first ID for the
 374:Generated_Source\PSoC5/CyFlash.c ****     *   specific memory type. The array ID for the Flash memory lasts
 375:Generated_Source\PSoC5/CyFlash.c ****     *   from 0x00 to 0x3F.
 376:Generated_Source\PSoC5/CyFlash.c ****     *  rowAddress:   The address of the sector to erase.
 377:Generated_Source\PSoC5/CyFlash.c ****     *  rowECC:       The array of bytes to write.
 378:Generated_Source\PSoC5/CyFlash.c ****     *
 379:Generated_Source\PSoC5/CyFlash.c ****     * Return:
 380:Generated_Source\PSoC5/CyFlash.c ****     *  status:
 381:Generated_Source\PSoC5/CyFlash.c ****     *   CYRET_SUCCESS if successful.
 382:Generated_Source\PSoC5/CyFlash.c ****     *   CYRET_LOCKED if the SPC is already in use.
 383:Generated_Source\PSoC5/CyFlash.c ****     *   CYRET_CANCELED if command not accepted
 384:Generated_Source\PSoC5/CyFlash.c ****     *   CYRET_UNKNOWN if there was an SPC error.
 385:Generated_Source\PSoC5/CyFlash.c ****     *
 386:Generated_Source\PSoC5/CyFlash.c ****     *******************************************************************************/
 387:Generated_Source\PSoC5/CyFlash.c ****     cystatus CyWriteRowConfig(uint8 arrayId, uint16 rowAddress, const uint8 * rowECC)\
ARM GAS  C:\Users\mgronber\AppData\Local\Temp\ccrZn5Va.s 			page 14


 388:Generated_Source\PSoC5/CyFlash.c ****     
 389:Generated_Source\PSoC5/CyFlash.c ****     {
 390:Generated_Source\PSoC5/CyFlash.c ****         uint32 offset;
 391:Generated_Source\PSoC5/CyFlash.c ****         uint16 i;
 392:Generated_Source\PSoC5/CyFlash.c ****         cystatus status;
 393:Generated_Source\PSoC5/CyFlash.c **** 
 394:Generated_Source\PSoC5/CyFlash.c ****         /* Check whether rowBuffer pointer has been initialized by CySetFlashEEBuffer() */
 395:Generated_Source\PSoC5/CyFlash.c ****         if(NULL != rowBuffer)
 396:Generated_Source\PSoC5/CyFlash.c ****         {
 397:Generated_Source\PSoC5/CyFlash.c ****             /* Read existing flash data. */
 398:Generated_Source\PSoC5/CyFlash.c ****             offset = ((uint32)arrayId * CYDEV_FLS_SECTOR_SIZE) +
 399:Generated_Source\PSoC5/CyFlash.c ****                      ((uint32)rowAddress * CYDEV_FLS_ROW_SIZE);
 400:Generated_Source\PSoC5/CyFlash.c **** 
 401:Generated_Source\PSoC5/CyFlash.c ****             #if (CYDEV_FLS_BASE != 0u)
 402:Generated_Source\PSoC5/CyFlash.c ****                 offset += CYDEV_FLS_BASE;
 403:Generated_Source\PSoC5/CyFlash.c ****             #endif  /* (CYDEV_FLS_BASE != 0u) */
 404:Generated_Source\PSoC5/CyFlash.c **** 
 405:Generated_Source\PSoC5/CyFlash.c ****             for (i = 0u; i < CYDEV_FLS_ROW_SIZE; i++)
 406:Generated_Source\PSoC5/CyFlash.c ****             {
 407:Generated_Source\PSoC5/CyFlash.c ****                 rowBuffer[i] = CY_GET_XTND_REG8((void CYFAR *)(offset + i));
 408:Generated_Source\PSoC5/CyFlash.c ****             }
 409:Generated_Source\PSoC5/CyFlash.c **** 
 410:Generated_Source\PSoC5/CyFlash.c ****             #if(CY_PSOC3)
 411:Generated_Source\PSoC5/CyFlash.c ****                 (void) memcpy((void *)&rowBuffer[CYDEV_FLS_ROW_SIZE],
 412:Generated_Source\PSoC5/CyFlash.c ****                               (void *)(uint32)rowECC,
 413:Generated_Source\PSoC5/CyFlash.c ****                               (int16)CYDEV_ECC_ROW_SIZE);
 414:Generated_Source\PSoC5/CyFlash.c ****             #else
 415:Generated_Source\PSoC5/CyFlash.c ****                 (void) memcpy((void *)&rowBuffer[CYDEV_FLS_ROW_SIZE],
 416:Generated_Source\PSoC5/CyFlash.c ****                               (const void *)rowECC,
 417:Generated_Source\PSoC5/CyFlash.c ****                               CYDEV_ECC_ROW_SIZE);
 418:Generated_Source\PSoC5/CyFlash.c ****             #endif  /* (CY_PSOC3) */
 419:Generated_Source\PSoC5/CyFlash.c **** 
 420:Generated_Source\PSoC5/CyFlash.c ****             status = CyWriteRowFull(arrayId, rowAddress, rowBuffer, CYDEV_FLS_ROW_SIZE + CYDEV_ECC_
 421:Generated_Source\PSoC5/CyFlash.c ****         }
 422:Generated_Source\PSoC5/CyFlash.c ****         else
 423:Generated_Source\PSoC5/CyFlash.c ****         {
 424:Generated_Source\PSoC5/CyFlash.c ****             status = CYRET_UNKNOWN;
 425:Generated_Source\PSoC5/CyFlash.c ****         }
 426:Generated_Source\PSoC5/CyFlash.c **** 
 427:Generated_Source\PSoC5/CyFlash.c ****         return (status);
 428:Generated_Source\PSoC5/CyFlash.c ****     }
 429:Generated_Source\PSoC5/CyFlash.c **** 
 430:Generated_Source\PSoC5/CyFlash.c **** #endif  /* ((CYDEV_ECC_ENABLE == 0u) && (CYDEV_CONFIGURATION_ECC == 0u)) */
 431:Generated_Source\PSoC5/CyFlash.c **** 
 432:Generated_Source\PSoC5/CyFlash.c **** 
 433:Generated_Source\PSoC5/CyFlash.c **** 
 434:Generated_Source\PSoC5/CyFlash.c **** /*******************************************************************************
 435:Generated_Source\PSoC5/CyFlash.c **** * Function Name: CyWriteRowFull
 436:Generated_Source\PSoC5/CyFlash.c **** ********************************************************************************
 437:Generated_Source\PSoC5/CyFlash.c **** * Summary:
 438:Generated_Source\PSoC5/CyFlash.c **** *  Sends a command to the SPC to load and program a row of data in the Flash.
 439:Generated_Source\PSoC5/CyFlash.c **** *  rowData array is expected to contain Flash and ECC data if needed.
 440:Generated_Source\PSoC5/CyFlash.c **** *
 441:Generated_Source\PSoC5/CyFlash.c **** * Parameters:
 442:Generated_Source\PSoC5/CyFlash.c **** *  arrayId:    FLASH or EEPROM array id.
 443:Generated_Source\PSoC5/CyFlash.c **** *  rowData:    Pointer to a row of data to write.
 444:Generated_Source\PSoC5/CyFlash.c **** *  rowNumber:  Zero based number of the row.
ARM GAS  C:\Users\mgronber\AppData\Local\Temp\ccrZn5Va.s 			page 15


 445:Generated_Source\PSoC5/CyFlash.c **** *  rowSize:    Size of the row.
 446:Generated_Source\PSoC5/CyFlash.c **** *
 447:Generated_Source\PSoC5/CyFlash.c **** * Return:
 448:Generated_Source\PSoC5/CyFlash.c **** *  CYRET_SUCCESS if successful.
 449:Generated_Source\PSoC5/CyFlash.c **** *  CYRET_LOCKED if the SPC is already in use.
 450:Generated_Source\PSoC5/CyFlash.c **** *  CYRET_CANCELED if command not accepted
 451:Generated_Source\PSoC5/CyFlash.c **** *  CYRET_UNKNOWN if there was an SPC error.
 452:Generated_Source\PSoC5/CyFlash.c **** *
 453:Generated_Source\PSoC5/CyFlash.c **** *******************************************************************************/
 454:Generated_Source\PSoC5/CyFlash.c **** cystatus CyWriteRowFull(uint8 arrayId, uint16 rowNumber, const uint8* rowData, uint16 rowSize) \
 455:Generated_Source\PSoC5/CyFlash.c ****         
 456:Generated_Source\PSoC5/CyFlash.c **** {
 325              		.loc 1 456 0
 326              		.cfi_startproc
 327              		@ args = 0, pretend = 0, frame = 8
 328              		@ frame_needed = 0, uses_anonymous_args = 0
 329              	.LVL28:
 330 0000 F0B5     		push	{r4, r5, r6, r7, lr}
 331              		.cfi_def_cfa_offset 20
 332              		.cfi_offset 4, -20
 333              		.cfi_offset 5, -16
 334              		.cfi_offset 6, -12
 335              		.cfi_offset 7, -8
 336              		.cfi_offset 14, -4
 337 0002 83B0     		sub	sp, sp, #12
 338              		.cfi_def_cfa_offset 32
 339              		.loc 1 456 0
 340 0004 0446     		mov	r4, r0
 341 0006 0F46     		mov	r7, r1
 342 0008 1646     		mov	r6, r2
 343 000a 1D46     		mov	r5, r3
 457:Generated_Source\PSoC5/CyFlash.c ****     cystatus status;
 458:Generated_Source\PSoC5/CyFlash.c **** 
 459:Generated_Source\PSoC5/CyFlash.c ****     if(CySpcLock() == CYRET_SUCCESS)
 344              		.loc 1 459 0
 345 000c FFF7FEFF 		bl	CySpcLock
 346              	.LVL29:
 347 0010 10B1     		cbz	r0, .L58
 460:Generated_Source\PSoC5/CyFlash.c ****     {
 461:Generated_Source\PSoC5/CyFlash.c ****         /* Load row data into SPC internal latch */
 462:Generated_Source\PSoC5/CyFlash.c ****         status = CySpcLoadRow(arrayId, rowData, rowSize);
 463:Generated_Source\PSoC5/CyFlash.c **** 
 464:Generated_Source\PSoC5/CyFlash.c ****         if(CYRET_STARTED == status)
 465:Generated_Source\PSoC5/CyFlash.c ****         {
 466:Generated_Source\PSoC5/CyFlash.c ****             while(CY_SPC_BUSY)
 467:Generated_Source\PSoC5/CyFlash.c ****             {
 468:Generated_Source\PSoC5/CyFlash.c ****                 /* Wait for SPC to finish and get SPC status */
 469:Generated_Source\PSoC5/CyFlash.c ****                 CyDelayUs(1u);
 470:Generated_Source\PSoC5/CyFlash.c ****             }
 471:Generated_Source\PSoC5/CyFlash.c **** 
 472:Generated_Source\PSoC5/CyFlash.c ****             /* Hide SPC status */
 473:Generated_Source\PSoC5/CyFlash.c ****             if(CY_SPC_STATUS_SUCCESS == CY_SPC_READ_STATUS)
 474:Generated_Source\PSoC5/CyFlash.c ****             {
 475:Generated_Source\PSoC5/CyFlash.c ****                 status = CYRET_SUCCESS;
 476:Generated_Source\PSoC5/CyFlash.c ****             }
 477:Generated_Source\PSoC5/CyFlash.c ****             else
 478:Generated_Source\PSoC5/CyFlash.c ****             {
ARM GAS  C:\Users\mgronber\AppData\Local\Temp\ccrZn5Va.s 			page 16


 479:Generated_Source\PSoC5/CyFlash.c ****                 status = CYRET_UNKNOWN;
 480:Generated_Source\PSoC5/CyFlash.c ****             }
 481:Generated_Source\PSoC5/CyFlash.c **** 
 482:Generated_Source\PSoC5/CyFlash.c ****             if(CYRET_SUCCESS == status)
 483:Generated_Source\PSoC5/CyFlash.c ****             {
 484:Generated_Source\PSoC5/CyFlash.c ****                 /* Erase and program flash with data from SPC interval latch */
 485:Generated_Source\PSoC5/CyFlash.c ****                 status = CySpcWriteRow(arrayId, rowNumber, dieTemperature[0u], dieTemperature[1u]);
 486:Generated_Source\PSoC5/CyFlash.c **** 
 487:Generated_Source\PSoC5/CyFlash.c ****                 if(CYRET_STARTED == status)
 488:Generated_Source\PSoC5/CyFlash.c ****                 {
 489:Generated_Source\PSoC5/CyFlash.c ****                     while(CY_SPC_BUSY)
 490:Generated_Source\PSoC5/CyFlash.c ****                     {
 491:Generated_Source\PSoC5/CyFlash.c ****                         /* Wait for SPC to finish and get SPC status */
 492:Generated_Source\PSoC5/CyFlash.c ****                         CyDelayUs(1u);
 493:Generated_Source\PSoC5/CyFlash.c ****                     }
 494:Generated_Source\PSoC5/CyFlash.c **** 
 495:Generated_Source\PSoC5/CyFlash.c ****                     /* Hide SPC status */
 496:Generated_Source\PSoC5/CyFlash.c ****                     if(CY_SPC_STATUS_SUCCESS == CY_SPC_READ_STATUS)
 497:Generated_Source\PSoC5/CyFlash.c ****                     {
 498:Generated_Source\PSoC5/CyFlash.c ****                         status = CYRET_SUCCESS;
 499:Generated_Source\PSoC5/CyFlash.c ****                     }
 500:Generated_Source\PSoC5/CyFlash.c ****                     else
 501:Generated_Source\PSoC5/CyFlash.c ****                     {
 502:Generated_Source\PSoC5/CyFlash.c ****                         status = CYRET_UNKNOWN;
 503:Generated_Source\PSoC5/CyFlash.c ****                     }
 504:Generated_Source\PSoC5/CyFlash.c ****                 }
 505:Generated_Source\PSoC5/CyFlash.c ****             }
 506:Generated_Source\PSoC5/CyFlash.c **** 
 507:Generated_Source\PSoC5/CyFlash.c ****         }
 508:Generated_Source\PSoC5/CyFlash.c **** 
 509:Generated_Source\PSoC5/CyFlash.c ****         CySpcUnlock();
 510:Generated_Source\PSoC5/CyFlash.c ****     }
 511:Generated_Source\PSoC5/CyFlash.c ****     else
 512:Generated_Source\PSoC5/CyFlash.c ****     {
 513:Generated_Source\PSoC5/CyFlash.c ****         status = CYRET_LOCKED;
 348              		.loc 1 513 0
 349 0012 0420     		movs	r0, #4
 350              	.LVL30:
 514:Generated_Source\PSoC5/CyFlash.c ****     }
 515:Generated_Source\PSoC5/CyFlash.c **** 
 516:Generated_Source\PSoC5/CyFlash.c ****     return(status);
 517:Generated_Source\PSoC5/CyFlash.c **** }
 351              		.loc 1 517 0
 352 0014 03B0     		add	sp, sp, #12
 353              		.cfi_remember_state
 354              		.cfi_def_cfa_offset 20
 355              		@ sp needed
 356 0016 F0BD     		pop	{r4, r5, r6, r7, pc}
 357              	.LVL31:
 358              	.L58:
 359              		.cfi_restore_state
 360              	.LBB14:
 361              	.LBB15:
 462:Generated_Source\PSoC5/CyFlash.c **** 
 362              		.loc 1 462 0
 363 0018 3146     		mov	r1, r6
 364 001a 2A46     		mov	r2, r5
ARM GAS  C:\Users\mgronber\AppData\Local\Temp\ccrZn5Va.s 			page 17


 365 001c 2046     		mov	r0, r4
 366 001e FFF7FEFF 		bl	CySpcLoadRow
 367              	.LVL32:
 464:Generated_Source\PSoC5/CyFlash.c ****         {
 368              		.loc 1 464 0
 369 0022 0728     		cmp	r0, #7
 370 0024 05D0     		beq	.L59
 371              	.LVL33:
 372              	.L40:
 373 0026 0190     		str	r0, [sp, #4]
 374              	.LVL34:
 509:Generated_Source\PSoC5/CyFlash.c ****     }
 375              		.loc 1 509 0
 376 0028 FFF7FEFF 		bl	CySpcUnlock
 377              	.LVL35:
 378 002c 0198     		ldr	r0, [sp, #4]
 379              	.LBE15:
 380              	.LBE14:
 381              		.loc 1 517 0
 382 002e 03B0     		add	sp, sp, #12
 383              		.cfi_remember_state
 384              		.cfi_def_cfa_offset 20
 385              		@ sp needed
 386 0030 F0BD     		pop	{r4, r5, r6, r7, pc}
 387              	.LVL36:
 388              	.L59:
 389              		.cfi_restore_state
 390              	.LBB17:
 391              	.LBB16:
 466:Generated_Source\PSoC5/CyFlash.c ****             {
 392              		.loc 1 466 0
 393 0032 174D     		ldr	r5, .L60
 394              	.LVL37:
 395 0034 2B78     		ldrb	r3, [r5]	@ zero_extendqisi2
 396 0036 9B07     		lsls	r3, r3, #30
 397 0038 05D4     		bmi	.L43
 398              	.LVL38:
 399              	.L41:
 469:Generated_Source\PSoC5/CyFlash.c ****             }
 400              		.loc 1 469 0
 401 003a 0120     		movs	r0, #1
 402 003c FFF7FEFF 		bl	CyDelayUs
 403              	.LVL39:
 466:Generated_Source\PSoC5/CyFlash.c ****             {
 404              		.loc 1 466 0
 405 0040 2B78     		ldrb	r3, [r5]	@ zero_extendqisi2
 406 0042 9807     		lsls	r0, r3, #30
 407 0044 F9D5     		bpl	.L41
 408              	.L43:
 473:Generated_Source\PSoC5/CyFlash.c ****             {
 409              		.loc 1 473 0
 410 0046 124D     		ldr	r5, .L60
 411 0048 2B78     		ldrb	r3, [r5]	@ zero_extendqisi2
 412 004a 9E07     		lsls	r6, r3, #30
 413              	.LVL40:
 414 004c 1DD5     		bpl	.L48
 415 004e 2B78     		ldrb	r3, [r5]	@ zero_extendqisi2
ARM GAS  C:\Users\mgronber\AppData\Local\Temp\ccrZn5Va.s 			page 18


 416 0050 9B08     		lsrs	r3, r3, #2
 417 0052 1AD1     		bne	.L48
 418              	.LVL41:
 485:Generated_Source\PSoC5/CyFlash.c **** 
 419              		.loc 1 485 0
 420 0054 0F4B     		ldr	r3, .L60+4
 421 0056 2046     		mov	r0, r4
 422 0058 1A78     		ldrb	r2, [r3]	@ zero_extendqisi2
 423 005a 3946     		mov	r1, r7
 424 005c 5B78     		ldrb	r3, [r3, #1]	@ zero_extendqisi2
 425 005e FFF7FEFF 		bl	CySpcWriteRow
 426              	.LVL42:
 487:Generated_Source\PSoC5/CyFlash.c ****                 {
 427              		.loc 1 487 0
 428 0062 0728     		cmp	r0, #7
 429 0064 DFD1     		bne	.L40
 430 0066 02E0     		b	.L57
 431              	.LVL43:
 432              	.L45:
 492:Generated_Source\PSoC5/CyFlash.c ****                     }
 433              		.loc 1 492 0
 434 0068 0120     		movs	r0, #1
 435 006a FFF7FEFF 		bl	CyDelayUs
 436              	.LVL44:
 437              	.L57:
 489:Generated_Source\PSoC5/CyFlash.c ****                     {
 438              		.loc 1 489 0
 439 006e 2B78     		ldrb	r3, [r5]	@ zero_extendqisi2
 440 0070 9907     		lsls	r1, r3, #30
 441 0072 F9D5     		bpl	.L45
 496:Generated_Source\PSoC5/CyFlash.c ****                     {
 442              		.loc 1 496 0
 443 0074 064B     		ldr	r3, .L60
 444 0076 1A78     		ldrb	r2, [r3]	@ zero_extendqisi2
 445 0078 9207     		lsls	r2, r2, #30
 446 007a 06D5     		bpl	.L48
 447 007c 1B78     		ldrb	r3, [r3]	@ zero_extendqisi2
 448 007e 9B08     		lsrs	r3, r3, #2
 449 0080 14BF     		ite	ne
 450 0082 4FF0FF30 		movne	r0, #-1
 451 0086 0020     		moveq	r0, #0
 452 0088 CDE7     		b	.L40
 453              	.L48:
 502:Generated_Source\PSoC5/CyFlash.c ****                     }
 454              		.loc 1 502 0
 455 008a 4FF0FF30 		mov	r0, #-1
 456 008e CAE7     		b	.L40
 457              	.L61:
 458              		.align	2
 459              	.L60:
 460 0090 22470040 		.word	1073760034
 461 0094 00000000 		.word	dieTemperature
 462              	.LBE16:
 463              	.LBE17:
 464              		.cfi_endproc
 465              	.LFE6:
 466              		.size	CyWriteRowFull, .-CyWriteRowFull
ARM GAS  C:\Users\mgronber\AppData\Local\Temp\ccrZn5Va.s 			page 19


 467              		.section	.text.CyWriteRowData,"ax",%progbits
 468              		.align	2
 469              		.global	CyWriteRowData
 470              		.thumb
 471              		.thumb_func
 472              		.type	CyWriteRowData, %function
 473              	CyWriteRowData:
 474              	.LFB5:
 313:Generated_Source\PSoC5/CyFlash.c ****         uint8 i;
 475              		.loc 1 313 0
 476              		.cfi_startproc
 477              		@ args = 0, pretend = 0, frame = 0
 478              		@ frame_needed = 0, uses_anonymous_args = 0
 479              	.LVL45:
 320:Generated_Source\PSoC5/CyFlash.c ****         {
 480              		.loc 1 320 0
 481 0000 184B     		ldr	r3, .L69
 313:Generated_Source\PSoC5/CyFlash.c ****         uint8 i;
 482              		.loc 1 313 0
 483 0002 2DE9F041 		push	{r4, r5, r6, r7, r8, lr}
 484              		.cfi_def_cfa_offset 24
 485              		.cfi_offset 4, -24
 486              		.cfi_offset 5, -20
 487              		.cfi_offset 6, -16
 488              		.cfi_offset 7, -12
 489              		.cfi_offset 8, -8
 490              		.cfi_offset 14, -4
 320:Generated_Source\PSoC5/CyFlash.c ****         {
 491              		.loc 1 320 0
 492 0006 1F68     		ldr	r7, [r3]
 493 0008 3FB3     		cbz	r7, .L63
 322:Generated_Source\PSoC5/CyFlash.c ****             {
 494              		.loc 1 322 0
 495 000a 3F28     		cmp	r0, #63
 496 000c 23D8     		bhi	.L66
 497              	.LVL46:
 332:Generated_Source\PSoC5/CyFlash.c ****                         ((uint32)rowAddress * CYDEV_ECC_ROW_SIZE);
 498              		.loc 1 332 0
 499 000e 00F51035 		add	r5, r0, #147456
 500 0012 6FF0FE03 		mvn	r3, #254
 501 0016 DB1B     		subs	r3, r3, r7
 502 0018 01EB0525 		add	r5, r1, r5, lsl #8
 503              	.LVL47:
 504 001c 03EB4515 		add	r5, r3, r5, lsl #5
 505              	.LVL48:
 506 0020 07F21F16 		addw	r6, r7, #287
 507 0024 07F1FF03 		add	r3, r7, #255
 508              	.LVL49:
 509              	.L65:
 337:Generated_Source\PSoC5/CyFlash.c ****                 }
 510              		.loc 1 337 0 discriminator 3
 511 0028 EC5C     		ldrb	r4, [r5, r3]	@ zero_extendqisi2
 512 002a 03F8014F 		strb	r4, [r3, #1]!
 335:Generated_Source\PSoC5/CyFlash.c ****                 {
 513              		.loc 1 335 0 discriminator 3
 514 002e B342     		cmp	r3, r6
 515 0030 FAD1     		bne	.L65
ARM GAS  C:\Users\mgronber\AppData\Local\Temp\ccrZn5Va.s 			page 20


 328:Generated_Source\PSoC5/CyFlash.c **** 
 516              		.loc 1 328 0
 517 0032 4FF49076 		mov	r6, #288
 518              	.LVL50:
 519              	.L64:
 520 0036 0D46     		mov	r5, r1
 521 0038 0446     		mov	r4, r0
 522              	.LVL51:
 345:Generated_Source\PSoC5/CyFlash.c ****         #endif  /* (CY_PSOC3) */
 523              		.loc 1 345 0
 524 003a 1146     		mov	r1, r2
 525              	.LVL52:
 526 003c 3846     		mov	r0, r7
 527              	.LVL53:
 528 003e 4FF48072 		mov	r2, #256
 529              	.LVL54:
 530 0042 FFF7FEFF 		bl	memcpy
 531              	.LVL55:
 348:Generated_Source\PSoC5/CyFlash.c ****         }
 532              		.loc 1 348 0
 533 0046 2046     		mov	r0, r4
 534 0048 2946     		mov	r1, r5
 535 004a 3A46     		mov	r2, r7
 536 004c 3346     		mov	r3, r6
 356:Generated_Source\PSoC5/CyFlash.c **** 
 537              		.loc 1 356 0
 538 004e BDE8F041 		pop	{r4, r5, r6, r7, r8, lr}
 539              		.cfi_remember_state
 540              		.cfi_restore 14
 541              		.cfi_restore 8
 542              		.cfi_restore 7
 543              		.cfi_restore 6
 544              		.cfi_restore 5
 545              		.cfi_restore 4
 546              		.cfi_def_cfa_offset 0
 547              	.LVL56:
 348:Generated_Source\PSoC5/CyFlash.c ****         }
 548              		.loc 1 348 0
 549 0052 FFF7FEBF 		b	CyWriteRowFull
 550              	.LVL57:
 551              	.L66:
 552              		.cfi_restore_state
 324:Generated_Source\PSoC5/CyFlash.c ****             }
 553              		.loc 1 324 0
 554 0056 1026     		movs	r6, #16
 555 0058 EDE7     		b	.L64
 556              	.L63:
 557              	.LVL58:
 356:Generated_Source\PSoC5/CyFlash.c **** 
 558              		.loc 1 356 0
 559 005a 4FF0FF30 		mov	r0, #-1
 560              	.LVL59:
 561 005e BDE8F081 		pop	{r4, r5, r6, r7, r8, pc}
 562              	.L70:
 563 0062 00BF     		.align	2
 564              	.L69:
 565 0064 00000000 		.word	.LANCHOR0
ARM GAS  C:\Users\mgronber\AppData\Local\Temp\ccrZn5Va.s 			page 21


 566              		.cfi_endproc
 567              	.LFE5:
 568              		.size	CyWriteRowData, .-CyWriteRowData
 569              		.section	.text.CyFlash_SetWaitCycles,"ax",%progbits
 570              		.align	2
 571              		.global	CyFlash_SetWaitCycles
 572              		.thumb
 573              		.thumb_func
 574              		.type	CyFlash_SetWaitCycles, %function
 575              	CyFlash_SetWaitCycles:
 576              	.LFB7:
 518:Generated_Source\PSoC5/CyFlash.c **** 
 519:Generated_Source\PSoC5/CyFlash.c **** 
 520:Generated_Source\PSoC5/CyFlash.c **** /*******************************************************************************
 521:Generated_Source\PSoC5/CyFlash.c **** * Function Name: CyFlash_SetWaitCycles
 522:Generated_Source\PSoC5/CyFlash.c **** ********************************************************************************
 523:Generated_Source\PSoC5/CyFlash.c **** *
 524:Generated_Source\PSoC5/CyFlash.c **** * Summary:
 525:Generated_Source\PSoC5/CyFlash.c **** *  Sets the number of clock cycles the cache will wait before it samples data
 526:Generated_Source\PSoC5/CyFlash.c **** *  coming back from the Flash. This function must be called before increasing the CPU
 527:Generated_Source\PSoC5/CyFlash.c **** *  clock frequency. It can optionally be called after lowering the CPU clock
 528:Generated_Source\PSoC5/CyFlash.c **** *  frequency in order to improve the CPU performance.
 529:Generated_Source\PSoC5/CyFlash.c **** *
 530:Generated_Source\PSoC5/CyFlash.c **** * Parameters:
 531:Generated_Source\PSoC5/CyFlash.c **** *  uint8 freq:
 532:Generated_Source\PSoC5/CyFlash.c **** *   Frequency of operation in Megahertz.
 533:Generated_Source\PSoC5/CyFlash.c **** *
 534:Generated_Source\PSoC5/CyFlash.c **** * Return:
 535:Generated_Source\PSoC5/CyFlash.c **** *  None
 536:Generated_Source\PSoC5/CyFlash.c **** *
 537:Generated_Source\PSoC5/CyFlash.c **** *******************************************************************************/
 538:Generated_Source\PSoC5/CyFlash.c **** void CyFlash_SetWaitCycles(uint8 freq) 
 539:Generated_Source\PSoC5/CyFlash.c **** {
 577              		.loc 1 539 0
 578              		.cfi_startproc
 579              		@ args = 0, pretend = 0, frame = 0
 580              		@ frame_needed = 0, uses_anonymous_args = 0
 581              	.LVL60:
 582 0000 10B5     		push	{r4, lr}
 583              		.cfi_def_cfa_offset 8
 584              		.cfi_offset 4, -8
 585              		.cfi_offset 14, -4
 586              		.loc 1 539 0
 587 0002 0446     		mov	r4, r0
 540:Generated_Source\PSoC5/CyFlash.c ****     uint8 interruptState;
 541:Generated_Source\PSoC5/CyFlash.c **** 
 542:Generated_Source\PSoC5/CyFlash.c ****     /* Save current global interrupt enable and disable it */
 543:Generated_Source\PSoC5/CyFlash.c ****     interruptState = CyEnterCriticalSection();
 588              		.loc 1 543 0
 589 0004 FFF7FEFF 		bl	CyEnterCriticalSection
 590              	.LVL61:
 544:Generated_Source\PSoC5/CyFlash.c **** 
 545:Generated_Source\PSoC5/CyFlash.c ****     /***************************************************************************
 546:Generated_Source\PSoC5/CyFlash.c ****     * The number of clock cycles the cache will wait before it samples data
 547:Generated_Source\PSoC5/CyFlash.c ****     * coming back from the Flash must be equal or greater to to the CPU frequency
 548:Generated_Source\PSoC5/CyFlash.c ****     * outlined in clock cycles.
 549:Generated_Source\PSoC5/CyFlash.c ****     ***************************************************************************/
ARM GAS  C:\Users\mgronber\AppData\Local\Temp\ccrZn5Va.s 			page 22


 550:Generated_Source\PSoC5/CyFlash.c **** 
 551:Generated_Source\PSoC5/CyFlash.c ****     #if (CY_PSOC3)
 552:Generated_Source\PSoC5/CyFlash.c **** 
 553:Generated_Source\PSoC5/CyFlash.c ****         if (freq <= 22u)
 554:Generated_Source\PSoC5/CyFlash.c ****         {
 555:Generated_Source\PSoC5/CyFlash.c ****             *CY_FLASH_CONTROL_PTR = ((*CY_FLASH_CONTROL_PTR & ((uint8)(~CY_FLASH_CYCLES_MASK))) |
 556:Generated_Source\PSoC5/CyFlash.c ****                 ((uint8)(CY_FLASH_LESSER_OR_EQUAL_22MHz << CY_FLASH_CYCLES_MASK_SHIFT)));
 557:Generated_Source\PSoC5/CyFlash.c ****         }
 558:Generated_Source\PSoC5/CyFlash.c ****         else if (freq <= 44u)
 559:Generated_Source\PSoC5/CyFlash.c ****         {
 560:Generated_Source\PSoC5/CyFlash.c ****             *CY_FLASH_CONTROL_PTR = ((*CY_FLASH_CONTROL_PTR & ((uint8)(~CY_FLASH_CYCLES_MASK))) |
 561:Generated_Source\PSoC5/CyFlash.c ****                 ((uint8)(CY_FLASH_LESSER_OR_EQUAL_44MHz << CY_FLASH_CYCLES_MASK_SHIFT)));
 562:Generated_Source\PSoC5/CyFlash.c ****         }
 563:Generated_Source\PSoC5/CyFlash.c ****         else
 564:Generated_Source\PSoC5/CyFlash.c ****         {
 565:Generated_Source\PSoC5/CyFlash.c ****             *CY_FLASH_CONTROL_PTR = ((*CY_FLASH_CONTROL_PTR & ((uint8)(~CY_FLASH_CYCLES_MASK))) |
 566:Generated_Source\PSoC5/CyFlash.c ****                 ((uint8)(CY_FLASH_GREATER_44MHz << CY_FLASH_CYCLES_MASK_SHIFT)));
 567:Generated_Source\PSoC5/CyFlash.c ****         }
 568:Generated_Source\PSoC5/CyFlash.c **** 
 569:Generated_Source\PSoC5/CyFlash.c ****     #endif  /* (CY_PSOC3) */
 570:Generated_Source\PSoC5/CyFlash.c **** 
 571:Generated_Source\PSoC5/CyFlash.c **** 
 572:Generated_Source\PSoC5/CyFlash.c ****     #if (CY_PSOC5)
 573:Generated_Source\PSoC5/CyFlash.c **** 
 574:Generated_Source\PSoC5/CyFlash.c ****         if (freq <= 16u)
 575:Generated_Source\PSoC5/CyFlash.c ****         {
 576:Generated_Source\PSoC5/CyFlash.c ****             *CY_FLASH_CONTROL_PTR = ((*CY_FLASH_CONTROL_PTR & ((uint8)(~CY_FLASH_CYCLES_MASK))) |
 591              		.loc 1 576 0
 592 0008 114A     		ldr	r2, .L79
 574:Generated_Source\PSoC5/CyFlash.c ****         {
 593              		.loc 1 574 0
 594 000a 102C     		cmp	r4, #16
 595              		.loc 1 576 0
 596 000c 1378     		ldrb	r3, [r2]	@ zero_extendqisi2
 574:Generated_Source\PSoC5/CyFlash.c ****         {
 597              		.loc 1 574 0
 598 000e 15D9     		bls	.L77
 577:Generated_Source\PSoC5/CyFlash.c ****                 ((uint8)(CY_FLASH_LESSER_OR_EQUAL_16MHz << CY_FLASH_CYCLES_MASK_SHIFT)));
 578:Generated_Source\PSoC5/CyFlash.c ****         }
 579:Generated_Source\PSoC5/CyFlash.c ****         else if (freq <= 33u)
 599              		.loc 1 579 0
 600 0010 212C     		cmp	r4, #33
 601 0012 0AD9     		bls	.L78
 580:Generated_Source\PSoC5/CyFlash.c ****         {
 581:Generated_Source\PSoC5/CyFlash.c ****             *CY_FLASH_CONTROL_PTR = ((*CY_FLASH_CONTROL_PTR & ((uint8)(~CY_FLASH_CYCLES_MASK))) |
 582:Generated_Source\PSoC5/CyFlash.c ****                 ((uint8)(CY_FLASH_LESSER_OR_EQUAL_33MHz << CY_FLASH_CYCLES_MASK_SHIFT)));
 583:Generated_Source\PSoC5/CyFlash.c ****         }
 584:Generated_Source\PSoC5/CyFlash.c ****         else if (freq <= 50u)
 602              		.loc 1 584 0
 603 0014 322C     		cmp	r4, #50
 585:Generated_Source\PSoC5/CyFlash.c ****         {
 586:Generated_Source\PSoC5/CyFlash.c ****             *CY_FLASH_CONTROL_PTR = ((*CY_FLASH_CONTROL_PTR & ((uint8)(~CY_FLASH_CYCLES_MASK))) |
 604              		.loc 1 586 0
 605 0016 94BF     		ite	ls
 606 0018 43F0C003 		orrls	r3, r3, #192
 587:Generated_Source\PSoC5/CyFlash.c ****                 ((uint8)(CY_FLASH_LESSER_OR_EQUAL_50MHz << CY_FLASH_CYCLES_MASK_SHIFT)));
 588:Generated_Source\PSoC5/CyFlash.c ****         }
ARM GAS  C:\Users\mgronber\AppData\Local\Temp\ccrZn5Va.s 			page 23


 589:Generated_Source\PSoC5/CyFlash.c ****         else
 590:Generated_Source\PSoC5/CyFlash.c ****         {
 591:Generated_Source\PSoC5/CyFlash.c ****             *CY_FLASH_CONTROL_PTR = ((*CY_FLASH_CONTROL_PTR & ((uint8)(~CY_FLASH_CYCLES_MASK))) |
 607              		.loc 1 591 0
 608 001c 03F03F03 		andhi	r3, r3, #63
 609 0020 1370     		strb	r3, [r2]
 592:Generated_Source\PSoC5/CyFlash.c ****                 ((uint8)(CY_FLASH_GREATER_51MHz << CY_FLASH_CYCLES_MASK_SHIFT)));
 593:Generated_Source\PSoC5/CyFlash.c ****         }
 594:Generated_Source\PSoC5/CyFlash.c **** 
 595:Generated_Source\PSoC5/CyFlash.c ****     #endif  /* (CY_PSOC5) */
 596:Generated_Source\PSoC5/CyFlash.c **** 
 597:Generated_Source\PSoC5/CyFlash.c ****     /* Restore global interrupt enable state */
 598:Generated_Source\PSoC5/CyFlash.c ****     CyExitCriticalSection(interruptState);
 599:Generated_Source\PSoC5/CyFlash.c **** }
 610              		.loc 1 599 0
 611 0022 BDE81040 		pop	{r4, lr}
 612              		.cfi_remember_state
 613              		.cfi_restore 14
 614              		.cfi_restore 4
 615              		.cfi_def_cfa_offset 0
 598:Generated_Source\PSoC5/CyFlash.c **** }
 616              		.loc 1 598 0
 617 0026 FFF7FEBF 		b	CyExitCriticalSection
 618              	.LVL62:
 619              	.L78:
 620              		.cfi_restore_state
 581:Generated_Source\PSoC5/CyFlash.c ****                 ((uint8)(CY_FLASH_LESSER_OR_EQUAL_33MHz << CY_FLASH_CYCLES_MASK_SHIFT)));
 621              		.loc 1 581 0
 622 002a 03F03F03 		and	r3, r3, #63
 623 002e 43F08003 		orr	r3, r3, #128
 624 0032 1370     		strb	r3, [r2]
 625              		.loc 1 599 0
 626 0034 BDE81040 		pop	{r4, lr}
 627              		.cfi_remember_state
 628              		.cfi_restore 4
 629              		.cfi_restore 14
 630              		.cfi_def_cfa_offset 0
 598:Generated_Source\PSoC5/CyFlash.c **** }
 631              		.loc 1 598 0
 632 0038 FFF7FEBF 		b	CyExitCriticalSection
 633              	.LVL63:
 634              	.L77:
 635              		.cfi_restore_state
 576:Generated_Source\PSoC5/CyFlash.c ****                 ((uint8)(CY_FLASH_LESSER_OR_EQUAL_16MHz << CY_FLASH_CYCLES_MASK_SHIFT)));
 636              		.loc 1 576 0
 637 003c 03F03F03 		and	r3, r3, #63
 638 0040 43F04003 		orr	r3, r3, #64
 639 0044 1370     		strb	r3, [r2]
 640              		.loc 1 599 0
 641 0046 BDE81040 		pop	{r4, lr}
 642              		.cfi_restore 4
 643              		.cfi_restore 14
 644              		.cfi_def_cfa_offset 0
 598:Generated_Source\PSoC5/CyFlash.c **** }
 645              		.loc 1 598 0
 646 004a FFF7FEBF 		b	CyExitCriticalSection
 647              	.LVL64:
ARM GAS  C:\Users\mgronber\AppData\Local\Temp\ccrZn5Va.s 			page 24


 648              	.L80:
 649 004e 00BF     		.align	2
 650              	.L79:
 651 0050 00480040 		.word	1073760256
 652              		.cfi_endproc
 653              	.LFE7:
 654              		.size	CyFlash_SetWaitCycles, .-CyFlash_SetWaitCycles
 655              		.section	.text.CyEEPROM_Start,"ax",%progbits
 656              		.align	2
 657              		.global	CyEEPROM_Start
 658              		.thumb
 659              		.thumb_func
 660              		.type	CyEEPROM_Start, %function
 661              	CyEEPROM_Start:
 662              	.LFB8:
 600:Generated_Source\PSoC5/CyFlash.c **** 
 601:Generated_Source\PSoC5/CyFlash.c **** 
 602:Generated_Source\PSoC5/CyFlash.c **** /*******************************************************************************
 603:Generated_Source\PSoC5/CyFlash.c **** * Function Name: CyEEPROM_Start
 604:Generated_Source\PSoC5/CyFlash.c **** ********************************************************************************
 605:Generated_Source\PSoC5/CyFlash.c **** *
 606:Generated_Source\PSoC5/CyFlash.c **** * Summary:
 607:Generated_Source\PSoC5/CyFlash.c **** *  Enable the EEPROM.
 608:Generated_Source\PSoC5/CyFlash.c **** *
 609:Generated_Source\PSoC5/CyFlash.c **** * Parameters:
 610:Generated_Source\PSoC5/CyFlash.c **** *  None
 611:Generated_Source\PSoC5/CyFlash.c **** *
 612:Generated_Source\PSoC5/CyFlash.c **** * Return:
 613:Generated_Source\PSoC5/CyFlash.c **** *  None
 614:Generated_Source\PSoC5/CyFlash.c **** *
 615:Generated_Source\PSoC5/CyFlash.c **** *******************************************************************************/
 616:Generated_Source\PSoC5/CyFlash.c **** void CyEEPROM_Start(void) 
 617:Generated_Source\PSoC5/CyFlash.c **** {
 663              		.loc 1 617 0
 664              		.cfi_startproc
 665              		@ args = 0, pretend = 0, frame = 0
 666              		@ frame_needed = 0, uses_anonymous_args = 0
 667              		@ link register save eliminated.
 618:Generated_Source\PSoC5/CyFlash.c ****     /* Active Power Mode */
 619:Generated_Source\PSoC5/CyFlash.c ****     *CY_FLASH_PM_ACT_EEFLASH_PTR |= CY_FLASH_PM_EE_MASK;
 668              		.loc 1 619 0
 669 0000 0549     		ldr	r1, .L82
 620:Generated_Source\PSoC5/CyFlash.c **** 
 621:Generated_Source\PSoC5/CyFlash.c ****     /* Standby Power Mode */
 622:Generated_Source\PSoC5/CyFlash.c ****     *CY_FLASH_PM_ALTACT_EEFLASH_PTR |= CY_FLASH_PM_EE_MASK;
 670              		.loc 1 622 0
 671 0002 064A     		ldr	r2, .L82+4
 619:Generated_Source\PSoC5/CyFlash.c **** 
 672              		.loc 1 619 0
 673 0004 0B78     		ldrb	r3, [r1]	@ zero_extendqisi2
 674 0006 43F01003 		orr	r3, r3, #16
 675 000a 0B70     		strb	r3, [r1]
 676              		.loc 1 622 0
 677 000c 1378     		ldrb	r3, [r2]	@ zero_extendqisi2
 678 000e 43F01003 		orr	r3, r3, #16
 679 0012 1370     		strb	r3, [r2]
 680 0014 7047     		bx	lr
ARM GAS  C:\Users\mgronber\AppData\Local\Temp\ccrZn5Va.s 			page 25


 681              	.L83:
 682 0016 00BF     		.align	2
 683              	.L82:
 684 0018 AC430040 		.word	1073759148
 685 001c BC430040 		.word	1073759164
 686              		.cfi_endproc
 687              	.LFE8:
 688              		.size	CyEEPROM_Start, .-CyEEPROM_Start
 689              		.section	.text.CyEEPROM_Stop,"ax",%progbits
 690              		.align	2
 691              		.global	CyEEPROM_Stop
 692              		.thumb
 693              		.thumb_func
 694              		.type	CyEEPROM_Stop, %function
 695              	CyEEPROM_Stop:
 696              	.LFB9:
 623:Generated_Source\PSoC5/CyFlash.c **** }
 624:Generated_Source\PSoC5/CyFlash.c **** 
 625:Generated_Source\PSoC5/CyFlash.c **** 
 626:Generated_Source\PSoC5/CyFlash.c **** /*******************************************************************************
 627:Generated_Source\PSoC5/CyFlash.c **** * Function Name: CyEEPROM_Stop
 628:Generated_Source\PSoC5/CyFlash.c **** ********************************************************************************
 629:Generated_Source\PSoC5/CyFlash.c **** *
 630:Generated_Source\PSoC5/CyFlash.c **** * Summary:
 631:Generated_Source\PSoC5/CyFlash.c **** *  Disable the EEPROM.
 632:Generated_Source\PSoC5/CyFlash.c **** *
 633:Generated_Source\PSoC5/CyFlash.c **** * Parameters:
 634:Generated_Source\PSoC5/CyFlash.c **** *  None
 635:Generated_Source\PSoC5/CyFlash.c **** *
 636:Generated_Source\PSoC5/CyFlash.c **** * Return:
 637:Generated_Source\PSoC5/CyFlash.c **** *  None
 638:Generated_Source\PSoC5/CyFlash.c **** *
 639:Generated_Source\PSoC5/CyFlash.c **** *******************************************************************************/
 640:Generated_Source\PSoC5/CyFlash.c **** void CyEEPROM_Stop (void) 
 641:Generated_Source\PSoC5/CyFlash.c **** {
 697              		.loc 1 641 0
 698              		.cfi_startproc
 699              		@ args = 0, pretend = 0, frame = 0
 700              		@ frame_needed = 0, uses_anonymous_args = 0
 701              		@ link register save eliminated.
 642:Generated_Source\PSoC5/CyFlash.c ****     /* Active Power Mode */
 643:Generated_Source\PSoC5/CyFlash.c ****     *CY_FLASH_PM_ACT_EEFLASH_PTR &= ((uint8)(~CY_FLASH_PM_EE_MASK));
 702              		.loc 1 643 0
 703 0000 0549     		ldr	r1, .L85
 644:Generated_Source\PSoC5/CyFlash.c **** 
 645:Generated_Source\PSoC5/CyFlash.c ****     /* Standby Power Mode */
 646:Generated_Source\PSoC5/CyFlash.c ****     *CY_FLASH_PM_ALTACT_EEFLASH_PTR &= ((uint8)(~CY_FLASH_PM_EE_MASK));
 704              		.loc 1 646 0
 705 0002 064A     		ldr	r2, .L85+4
 643:Generated_Source\PSoC5/CyFlash.c **** 
 706              		.loc 1 643 0
 707 0004 0B78     		ldrb	r3, [r1]	@ zero_extendqisi2
 708 0006 03F0EF03 		and	r3, r3, #239
 709 000a 0B70     		strb	r3, [r1]
 710              		.loc 1 646 0
 711 000c 1378     		ldrb	r3, [r2]	@ zero_extendqisi2
 712 000e 03F0EF03 		and	r3, r3, #239
ARM GAS  C:\Users\mgronber\AppData\Local\Temp\ccrZn5Va.s 			page 26


 713 0012 1370     		strb	r3, [r2]
 714 0014 7047     		bx	lr
 715              	.L86:
 716 0016 00BF     		.align	2
 717              	.L85:
 718 0018 AC430040 		.word	1073759148
 719 001c BC430040 		.word	1073759164
 720              		.cfi_endproc
 721              	.LFE9:
 722              		.size	CyEEPROM_Stop, .-CyEEPROM_Stop
 723              		.section	.text.CyEEPROM_ReadReserve,"ax",%progbits
 724              		.align	2
 725              		.global	CyEEPROM_ReadReserve
 726              		.thumb
 727              		.thumb_func
 728              		.type	CyEEPROM_ReadReserve, %function
 729              	CyEEPROM_ReadReserve:
 730              	.LFB10:
 647:Generated_Source\PSoC5/CyFlash.c **** }
 648:Generated_Source\PSoC5/CyFlash.c **** 
 649:Generated_Source\PSoC5/CyFlash.c **** 
 650:Generated_Source\PSoC5/CyFlash.c **** /*******************************************************************************
 651:Generated_Source\PSoC5/CyFlash.c **** * Function Name: CyEEPROM_ReadReserve
 652:Generated_Source\PSoC5/CyFlash.c **** ********************************************************************************
 653:Generated_Source\PSoC5/CyFlash.c **** *
 654:Generated_Source\PSoC5/CyFlash.c **** * Summary:
 655:Generated_Source\PSoC5/CyFlash.c **** *  Request access to the EEPROM for reading and wait until access is available.
 656:Generated_Source\PSoC5/CyFlash.c **** *
 657:Generated_Source\PSoC5/CyFlash.c **** * Parameters:
 658:Generated_Source\PSoC5/CyFlash.c **** *  None
 659:Generated_Source\PSoC5/CyFlash.c **** *
 660:Generated_Source\PSoC5/CyFlash.c **** * Return:
 661:Generated_Source\PSoC5/CyFlash.c **** *  None
 662:Generated_Source\PSoC5/CyFlash.c **** *
 663:Generated_Source\PSoC5/CyFlash.c **** *******************************************************************************/
 664:Generated_Source\PSoC5/CyFlash.c **** void CyEEPROM_ReadReserve(void) 
 665:Generated_Source\PSoC5/CyFlash.c **** {
 731              		.loc 1 665 0
 732              		.cfi_startproc
 733              		@ args = 0, pretend = 0, frame = 0
 734              		@ frame_needed = 0, uses_anonymous_args = 0
 735              		@ link register save eliminated.
 666:Generated_Source\PSoC5/CyFlash.c ****     /* Make request for PHUB to have access */
 667:Generated_Source\PSoC5/CyFlash.c ****     CY_FLASH_EE_SCR_REG |= CY_FLASH_EE_SCR_AHB_EE_REQ;
 736              		.loc 1 667 0
 737 0000 044B     		ldr	r3, .L91
 668:Generated_Source\PSoC5/CyFlash.c **** 
 669:Generated_Source\PSoC5/CyFlash.c ****     while (0u == (CY_FLASH_EE_SCR_REG & CY_FLASH_EE_SCR_AHB_EE_ACK))
 738              		.loc 1 669 0
 739 0002 1A46     		mov	r2, r3
 667:Generated_Source\PSoC5/CyFlash.c **** 
 740              		.loc 1 667 0
 741 0004 1978     		ldrb	r1, [r3]	@ zero_extendqisi2
 742 0006 41F00101 		orr	r1, r1, #1
 743 000a 1970     		strb	r1, [r3]
 744              	.L88:
 745              		.loc 1 669 0 discriminator 1
ARM GAS  C:\Users\mgronber\AppData\Local\Temp\ccrZn5Va.s 			page 27


 746 000c 1378     		ldrb	r3, [r2]	@ zero_extendqisi2
 747 000e 9B07     		lsls	r3, r3, #30
 748 0010 FCD5     		bpl	.L88
 670:Generated_Source\PSoC5/CyFlash.c ****     {
 671:Generated_Source\PSoC5/CyFlash.c ****         /* Wait for acknowledgement from PHUB */
 672:Generated_Source\PSoC5/CyFlash.c ****     }
 673:Generated_Source\PSoC5/CyFlash.c **** }
 749              		.loc 1 673 0
 750 0012 7047     		bx	lr
 751              	.L92:
 752              		.align	2
 753              	.L91:
 754 0014 02470040 		.word	1073760002
 755              		.cfi_endproc
 756              	.LFE10:
 757              		.size	CyEEPROM_ReadReserve, .-CyEEPROM_ReadReserve
 758              		.section	.text.CyEEPROM_ReadRelease,"ax",%progbits
 759              		.align	2
 760              		.global	CyEEPROM_ReadRelease
 761              		.thumb
 762              		.thumb_func
 763              		.type	CyEEPROM_ReadRelease, %function
 764              	CyEEPROM_ReadRelease:
 765              	.LFB11:
 674:Generated_Source\PSoC5/CyFlash.c **** 
 675:Generated_Source\PSoC5/CyFlash.c **** 
 676:Generated_Source\PSoC5/CyFlash.c **** /*******************************************************************************
 677:Generated_Source\PSoC5/CyFlash.c **** * Function Name: CyEEPROM_ReadRelease
 678:Generated_Source\PSoC5/CyFlash.c **** ********************************************************************************
 679:Generated_Source\PSoC5/CyFlash.c **** *
 680:Generated_Source\PSoC5/CyFlash.c **** * Summary:
 681:Generated_Source\PSoC5/CyFlash.c **** *  Release the read reservation of the EEPROM.
 682:Generated_Source\PSoC5/CyFlash.c **** *
 683:Generated_Source\PSoC5/CyFlash.c **** * Parameters:
 684:Generated_Source\PSoC5/CyFlash.c **** *  None
 685:Generated_Source\PSoC5/CyFlash.c **** *
 686:Generated_Source\PSoC5/CyFlash.c **** * Return:
 687:Generated_Source\PSoC5/CyFlash.c **** *  None
 688:Generated_Source\PSoC5/CyFlash.c **** *
 689:Generated_Source\PSoC5/CyFlash.c **** *******************************************************************************/
 690:Generated_Source\PSoC5/CyFlash.c **** void CyEEPROM_ReadRelease(void) 
 691:Generated_Source\PSoC5/CyFlash.c **** {
 766              		.loc 1 691 0
 767              		.cfi_startproc
 768              		@ args = 0, pretend = 0, frame = 0
 769              		@ frame_needed = 0, uses_anonymous_args = 0
 770              		@ link register save eliminated.
 692:Generated_Source\PSoC5/CyFlash.c ****     CY_FLASH_EE_SCR_REG &= (uint8)(~CY_FLASH_EE_SCR_AHB_EE_REQ);
 771              		.loc 1 692 0
 772 0000 024A     		ldr	r2, .L94
 773 0002 1378     		ldrb	r3, [r2]	@ zero_extendqisi2
 774 0004 03F0FE03 		and	r3, r3, #254
 775 0008 1370     		strb	r3, [r2]
 776 000a 7047     		bx	lr
 777              	.L95:
 778              		.align	2
 779              	.L94:
ARM GAS  C:\Users\mgronber\AppData\Local\Temp\ccrZn5Va.s 			page 28


 780 000c 02470040 		.word	1073760002
 781              		.cfi_endproc
 782              	.LFE11:
 783              		.size	CyEEPROM_ReadRelease, .-CyEEPROM_ReadRelease
 784              		.comm	dieTemperature,2,4
 785              		.bss
 786              		.align	2
 787              		.set	.LANCHOR0,. + 0
 788              		.type	rowBuffer, %object
 789              		.size	rowBuffer, 4
 790              	rowBuffer:
 791 0000 00000000 		.space	4
 792              		.text
 793              	.Letext0:
 794              		.file 2 "Generated_Source\\PSoC5\\cytypes.h"
 795              		.file 3 "Generated_Source\\PSoC5\\CySpc.h"
 796              		.file 4 "Generated_Source\\PSoC5\\CyLib.h"