ARM GAS  C:\Users\mgronber\AppData\Local\Temp\ccowRMf8.s 			page 1


   1              		.syntax unified
   2              		.cpu cortex-m3
   3              		.fpu softvfp
   4              		.eabi_attribute 20, 1
   5              		.eabi_attribute 21, 1
   6              		.eabi_attribute 23, 3
   7              		.eabi_attribute 24, 1
   8              		.eabi_attribute 25, 1
   9              		.eabi_attribute 26, 1
  10              		.eabi_attribute 30, 2
  11              		.eabi_attribute 34, 1
  12              		.eabi_attribute 18, 4
  13              		.thumb
  14              		.file	"cyPm.c"
  15              		.text
  16              	.Ltext0:
  17              		.cfi_sections	.debug_frame
  18              		.section	.text.CyPmHibSlpSaveSet,"ax",%progbits
  19              		.align	2
  20              		.thumb
  21              		.thumb_func
  22              		.type	CyPmHibSlpSaveSet, %function
  23              	CyPmHibSlpSaveSet:
  24              	.LFB11:
  25              		.file 1 "Generated_Source\\PSoC5\\cyPm.c"
   1:Generated_Source\PSoC5/cyPm.c **** /*******************************************************************************
   2:Generated_Source\PSoC5/cyPm.c **** * File Name: cyPm.c
   3:Generated_Source\PSoC5/cyPm.c **** * Version 4.11
   4:Generated_Source\PSoC5/cyPm.c **** *
   5:Generated_Source\PSoC5/cyPm.c **** * Description:
   6:Generated_Source\PSoC5/cyPm.c **** *  Provides an API for the power management.
   7:Generated_Source\PSoC5/cyPm.c **** *
   8:Generated_Source\PSoC5/cyPm.c **** * Note:
   9:Generated_Source\PSoC5/cyPm.c **** *  Documentation of the API's in this file is located in the
  10:Generated_Source\PSoC5/cyPm.c **** *  System Reference Guide provided with PSoC Creator.
  11:Generated_Source\PSoC5/cyPm.c **** *
  12:Generated_Source\PSoC5/cyPm.c **** ********************************************************************************
  13:Generated_Source\PSoC5/cyPm.c **** * Copyright 2008-2014, Cypress Semiconductor Corporation.  All rights reserved.
  14:Generated_Source\PSoC5/cyPm.c **** * You may use this file only in accordance with the license, terms, conditions,
  15:Generated_Source\PSoC5/cyPm.c **** * disclaimers, and limitations in the end user license agreement accompanying
  16:Generated_Source\PSoC5/cyPm.c **** * the software package with which this file was provided.
  17:Generated_Source\PSoC5/cyPm.c **** *******************************************************************************/
  18:Generated_Source\PSoC5/cyPm.c **** 
  19:Generated_Source\PSoC5/cyPm.c **** #include "cyPm.h"
  20:Generated_Source\PSoC5/cyPm.c **** 
  21:Generated_Source\PSoC5/cyPm.c **** 
  22:Generated_Source\PSoC5/cyPm.c **** /*******************************************************************
  23:Generated_Source\PSoC5/cyPm.c **** * Place your includes, defines, and code here. Do not use the merge
  24:Generated_Source\PSoC5/cyPm.c **** * region below unless any component datasheet suggests doing so.
  25:Generated_Source\PSoC5/cyPm.c **** *******************************************************************/
  26:Generated_Source\PSoC5/cyPm.c **** /* `#START CY_PM_HEADER_INCLUDE` */
  27:Generated_Source\PSoC5/cyPm.c **** 
  28:Generated_Source\PSoC5/cyPm.c **** /* `#END` */
  29:Generated_Source\PSoC5/cyPm.c **** 
  30:Generated_Source\PSoC5/cyPm.c **** 
  31:Generated_Source\PSoC5/cyPm.c **** static CY_PM_BACKUP_STRUCT          cyPmBackup;
  32:Generated_Source\PSoC5/cyPm.c **** static CY_PM_CLOCK_BACKUP_STRUCT    cyPmClockBackup;
ARM GAS  C:\Users\mgronber\AppData\Local\Temp\ccowRMf8.s 			page 2


  33:Generated_Source\PSoC5/cyPm.c **** 
  34:Generated_Source\PSoC5/cyPm.c **** /* Convertion table between register's values and frequency in MHz  */
  35:Generated_Source\PSoC5/cyPm.c **** static const uint8 CYCODE cyPmImoFreqReg2Mhz[7u] = {12u, 6u, 24u, 3u, 48u, 62u, 74u};
  36:Generated_Source\PSoC5/cyPm.c **** 
  37:Generated_Source\PSoC5/cyPm.c **** /* Function Prototypes */
  38:Generated_Source\PSoC5/cyPm.c **** static void CyPmHibSaveSet(void);
  39:Generated_Source\PSoC5/cyPm.c **** static void CyPmHibRestore(void) ;
  40:Generated_Source\PSoC5/cyPm.c **** 
  41:Generated_Source\PSoC5/cyPm.c **** static void CyPmHibSlpSaveSet(void) ;
  42:Generated_Source\PSoC5/cyPm.c **** static void CyPmHibSlpRestore(void) ;
  43:Generated_Source\PSoC5/cyPm.c **** 
  44:Generated_Source\PSoC5/cyPm.c **** static void CyPmHviLviSaveDisable(void) ;
  45:Generated_Source\PSoC5/cyPm.c **** static void CyPmHviLviRestore(void) ;
  46:Generated_Source\PSoC5/cyPm.c **** 
  47:Generated_Source\PSoC5/cyPm.c **** 
  48:Generated_Source\PSoC5/cyPm.c **** /*******************************************************************************
  49:Generated_Source\PSoC5/cyPm.c **** * Function Name: CyPmSaveClocks
  50:Generated_Source\PSoC5/cyPm.c **** ********************************************************************************
  51:Generated_Source\PSoC5/cyPm.c **** *
  52:Generated_Source\PSoC5/cyPm.c **** * Summary:
  53:Generated_Source\PSoC5/cyPm.c **** *  This function is called in preparation for entering sleep or hibernate low
  54:Generated_Source\PSoC5/cyPm.c **** *  power modes. Saves all the states of the clocking system that do not persist
  55:Generated_Source\PSoC5/cyPm.c **** *  during sleep/hibernate or that need to be altered in preparation for
  56:Generated_Source\PSoC5/cyPm.c **** *  sleep/hibernate. Shutdowns all the digital and analog clock dividers for the
  57:Generated_Source\PSoC5/cyPm.c **** *  active power mode configuration.
  58:Generated_Source\PSoC5/cyPm.c **** *
  59:Generated_Source\PSoC5/cyPm.c **** *  Switches the master clock over to the IMO and shuts down the PLL and MHz
  60:Generated_Source\PSoC5/cyPm.c **** *  Crystal. The IMO frequency is set to either 12 MHz or 48 MHz to match the
  61:Generated_Source\PSoC5/cyPm.c **** *  Design-Wide Resources System Editor "Enable Fast IMO During Startup" setting.
  62:Generated_Source\PSoC5/cyPm.c **** *  The ILO and 32 KHz oscillators are not impacted. The current Flash wait state
  63:Generated_Source\PSoC5/cyPm.c **** *  setting is saved and the Flash wait state setting is set for the current IMO
  64:Generated_Source\PSoC5/cyPm.c **** *  speed.
  65:Generated_Source\PSoC5/cyPm.c **** *
  66:Generated_Source\PSoC5/cyPm.c **** *  Note If the Master Clock source is routed through the DSI inputs, then it
  67:Generated_Source\PSoC5/cyPm.c **** *  must be set manually to another source before using the
  68:Generated_Source\PSoC5/cyPm.c **** *  CyPmSaveClocks()/CyPmRestoreClocks() functions.
  69:Generated_Source\PSoC5/cyPm.c **** *
  70:Generated_Source\PSoC5/cyPm.c **** * Parameters:
  71:Generated_Source\PSoC5/cyPm.c **** *  None
  72:Generated_Source\PSoC5/cyPm.c **** *
  73:Generated_Source\PSoC5/cyPm.c **** * Return:
  74:Generated_Source\PSoC5/cyPm.c **** *  None
  75:Generated_Source\PSoC5/cyPm.c **** *
  76:Generated_Source\PSoC5/cyPm.c **** * Side Effects:
  77:Generated_Source\PSoC5/cyPm.c **** *  All peripheral clocks are going to be off after this API method call.
  78:Generated_Source\PSoC5/cyPm.c **** *
  79:Generated_Source\PSoC5/cyPm.c **** *******************************************************************************/
  80:Generated_Source\PSoC5/cyPm.c **** void CyPmSaveClocks(void) 
  81:Generated_Source\PSoC5/cyPm.c **** {
  82:Generated_Source\PSoC5/cyPm.c ****     /* Digital and analog clocks - save enable state and disable them all */
  83:Generated_Source\PSoC5/cyPm.c ****     cyPmClockBackup.enClkA = CY_PM_ACT_CFG1_REG & CY_PM_ACT_EN_CLK_A_MASK;
  84:Generated_Source\PSoC5/cyPm.c ****     cyPmClockBackup.enClkD = CY_PM_ACT_CFG2_REG;
  85:Generated_Source\PSoC5/cyPm.c ****     CY_PM_ACT_CFG1_REG &= ((uint8)(~CY_PM_ACT_EN_CLK_A_MASK));
  86:Generated_Source\PSoC5/cyPm.c ****     CY_PM_ACT_CFG2_REG &= ((uint8)(~CY_PM_ACT_EN_CLK_D_MASK));
  87:Generated_Source\PSoC5/cyPm.c **** 
  88:Generated_Source\PSoC5/cyPm.c ****     /* Save current flash wait cycles and set the maximum value */
  89:Generated_Source\PSoC5/cyPm.c ****     cyPmClockBackup.flashWaitCycles = CY_PM_CACHE_CR_CYCLES_MASK & CY_PM_CACHE_CR_REG;
ARM GAS  C:\Users\mgronber\AppData\Local\Temp\ccowRMf8.s 			page 3


  90:Generated_Source\PSoC5/cyPm.c ****     CyFlash_SetWaitCycles(CY_PM_MAX_FLASH_WAIT_CYCLES);
  91:Generated_Source\PSoC5/cyPm.c **** 
  92:Generated_Source\PSoC5/cyPm.c ****     /* IMO - save current IMO MHz OSC frequency and USB mode is on bit */
  93:Generated_Source\PSoC5/cyPm.c ****     cyPmClockBackup.imoFreq = CY_PM_FASTCLK_IMO_CR_REG & CY_PM_FASTCLK_IMO_CR_FREQ_MASK;
  94:Generated_Source\PSoC5/cyPm.c ****     cyPmClockBackup.imoUsbClk = CY_PM_FASTCLK_IMO_CR_REG & CY_PM_FASTCLK_IMO_CR_USB;
  95:Generated_Source\PSoC5/cyPm.c **** 
  96:Generated_Source\PSoC5/cyPm.c ****     /* IMO doubler - save enable state */
  97:Generated_Source\PSoC5/cyPm.c ****     if(0u != (CY_PM_FASTCLK_IMO_CR_REG & CY_PM_FASTCLK_IMO_CR_F2XON))
  98:Generated_Source\PSoC5/cyPm.c ****     {
  99:Generated_Source\PSoC5/cyPm.c ****         /* IMO doubler enabled - save and disable */
 100:Generated_Source\PSoC5/cyPm.c ****         cyPmClockBackup.imo2x = CY_PM_ENABLED;
 101:Generated_Source\PSoC5/cyPm.c ****     }
 102:Generated_Source\PSoC5/cyPm.c ****     else
 103:Generated_Source\PSoC5/cyPm.c ****     {
 104:Generated_Source\PSoC5/cyPm.c ****         /* IMO doubler disabled */
 105:Generated_Source\PSoC5/cyPm.c ****         cyPmClockBackup.imo2x = CY_PM_DISABLED;
 106:Generated_Source\PSoC5/cyPm.c ****     }
 107:Generated_Source\PSoC5/cyPm.c **** 
 108:Generated_Source\PSoC5/cyPm.c ****     /* Master clock - save source */
 109:Generated_Source\PSoC5/cyPm.c ****     cyPmClockBackup.masterClkSrc = CY_PM_CLKDIST_MSTR1_REG & CY_PM_MASTER_CLK_SRC_MASK;
 110:Generated_Source\PSoC5/cyPm.c **** 
 111:Generated_Source\PSoC5/cyPm.c ****     /* Switch Master clock's source from PLL's output to PLL's source */
 112:Generated_Source\PSoC5/cyPm.c ****     if(CY_MASTER_SOURCE_PLL == cyPmClockBackup.masterClkSrc)
 113:Generated_Source\PSoC5/cyPm.c ****     {
 114:Generated_Source\PSoC5/cyPm.c ****         switch (CY_PM_CLKDIST_CR_REG & CY_PM_CLKDIST_PLL_SRC_MASK)
 115:Generated_Source\PSoC5/cyPm.c ****         {
 116:Generated_Source\PSoC5/cyPm.c ****         case CY_PM_CLKDIST_PLL_SRC_IMO:
 117:Generated_Source\PSoC5/cyPm.c ****             CyMasterClk_SetSource(CY_MASTER_SOURCE_IMO);
 118:Generated_Source\PSoC5/cyPm.c ****             break;
 119:Generated_Source\PSoC5/cyPm.c **** 
 120:Generated_Source\PSoC5/cyPm.c ****         case CY_PM_CLKDIST_PLL_SRC_XTAL:
 121:Generated_Source\PSoC5/cyPm.c ****             CyMasterClk_SetSource(CY_MASTER_SOURCE_XTAL);
 122:Generated_Source\PSoC5/cyPm.c ****             break;
 123:Generated_Source\PSoC5/cyPm.c **** 
 124:Generated_Source\PSoC5/cyPm.c ****         case CY_PM_CLKDIST_PLL_SRC_DSI:
 125:Generated_Source\PSoC5/cyPm.c ****             CyMasterClk_SetSource(CY_MASTER_SOURCE_DSI);
 126:Generated_Source\PSoC5/cyPm.c ****             break;
 127:Generated_Source\PSoC5/cyPm.c **** 
 128:Generated_Source\PSoC5/cyPm.c ****         default:
 129:Generated_Source\PSoC5/cyPm.c ****             CYASSERT(0u != 0u);
 130:Generated_Source\PSoC5/cyPm.c ****             break;
 131:Generated_Source\PSoC5/cyPm.c ****         }
 132:Generated_Source\PSoC5/cyPm.c ****     }
 133:Generated_Source\PSoC5/cyPm.c **** 
 134:Generated_Source\PSoC5/cyPm.c ****     /* PLL - check enable state, disable if needed */
 135:Generated_Source\PSoC5/cyPm.c ****     if(0u != (CY_PM_FASTCLK_PLL_CFG0_REG & CY_PM_PLL_CFG0_ENABLE))
 136:Generated_Source\PSoC5/cyPm.c ****     {
 137:Generated_Source\PSoC5/cyPm.c ****         /* PLL is enabled - save state and disable */
 138:Generated_Source\PSoC5/cyPm.c ****         cyPmClockBackup.pllEnableState = CY_PM_ENABLED;
 139:Generated_Source\PSoC5/cyPm.c ****         CyPLL_OUT_Stop();
 140:Generated_Source\PSoC5/cyPm.c ****     }
 141:Generated_Source\PSoC5/cyPm.c ****     else
 142:Generated_Source\PSoC5/cyPm.c ****     {
 143:Generated_Source\PSoC5/cyPm.c ****         /* PLL is disabled - save state */
 144:Generated_Source\PSoC5/cyPm.c ****         cyPmClockBackup.pllEnableState = CY_PM_DISABLED;
 145:Generated_Source\PSoC5/cyPm.c ****     }
 146:Generated_Source\PSoC5/cyPm.c **** 
ARM GAS  C:\Users\mgronber\AppData\Local\Temp\ccowRMf8.s 			page 4


 147:Generated_Source\PSoC5/cyPm.c ****     /* IMO - set appropriate frequency for LPM */
 148:Generated_Source\PSoC5/cyPm.c ****     CyIMO_SetFreq(CY_PM_IMO_FREQ_LPM);
 149:Generated_Source\PSoC5/cyPm.c **** 
 150:Generated_Source\PSoC5/cyPm.c ****     /* IMO - save enable state and enable without wait to settle */
 151:Generated_Source\PSoC5/cyPm.c ****     if(0u != (CY_PM_ACT_CFG0_IMO & CY_PM_ACT_CFG0_REG))
 152:Generated_Source\PSoC5/cyPm.c ****     {
 153:Generated_Source\PSoC5/cyPm.c ****         /* IMO - save enabled state */
 154:Generated_Source\PSoC5/cyPm.c ****         cyPmClockBackup.imoEnable = CY_PM_ENABLED;
 155:Generated_Source\PSoC5/cyPm.c ****     }
 156:Generated_Source\PSoC5/cyPm.c ****     else
 157:Generated_Source\PSoC5/cyPm.c ****     {
 158:Generated_Source\PSoC5/cyPm.c ****         /* IMO - save disabled state */
 159:Generated_Source\PSoC5/cyPm.c ****         cyPmClockBackup.imoEnable = CY_PM_DISABLED;
 160:Generated_Source\PSoC5/cyPm.c **** 
 161:Generated_Source\PSoC5/cyPm.c ****         /* Enable the IMO. Use software delay instead of the FTW-based inside */
 162:Generated_Source\PSoC5/cyPm.c ****         CyIMO_Start(CY_PM_IMO_NO_WAIT_TO_SETTLE);
 163:Generated_Source\PSoC5/cyPm.c **** 
 164:Generated_Source\PSoC5/cyPm.c ****         /* Settling time of the IMO is of the order of less than 6us */
 165:Generated_Source\PSoC5/cyPm.c ****         CyDelayUs(6u);
 166:Generated_Source\PSoC5/cyPm.c ****     }
 167:Generated_Source\PSoC5/cyPm.c **** 
 168:Generated_Source\PSoC5/cyPm.c ****     /* IMO - save the current IMOCLK source and set to IMO if not yet */
 169:Generated_Source\PSoC5/cyPm.c ****     if(0u != (CY_PM_FASTCLK_IMO_CR_REG & CY_PM_FASTCLK_IMO_CR_XCLKEN))
 170:Generated_Source\PSoC5/cyPm.c ****     {
 171:Generated_Source\PSoC5/cyPm.c ****         /* DSI or XTAL CLK */
 172:Generated_Source\PSoC5/cyPm.c ****         cyPmClockBackup.imoClkSrc =
 173:Generated_Source\PSoC5/cyPm.c ****             (0u == (CY_PM_CLKDIST_CR_REG & CY_PM_CLKDIST_IMO2X_SRC)) ? CY_IMO_SOURCE_DSI : CY_IMO_S
 174:Generated_Source\PSoC5/cyPm.c **** 
 175:Generated_Source\PSoC5/cyPm.c ****         /* IMO -  set IMOCLK source to IMO */
 176:Generated_Source\PSoC5/cyPm.c ****         CyIMO_SetSource(CY_IMO_SOURCE_IMO);
 177:Generated_Source\PSoC5/cyPm.c ****     }
 178:Generated_Source\PSoC5/cyPm.c ****     else
 179:Generated_Source\PSoC5/cyPm.c ****     {
 180:Generated_Source\PSoC5/cyPm.c ****         /* IMO */
 181:Generated_Source\PSoC5/cyPm.c ****         cyPmClockBackup.imoClkSrc = CY_IMO_SOURCE_IMO;
 182:Generated_Source\PSoC5/cyPm.c ****     }
 183:Generated_Source\PSoC5/cyPm.c **** 
 184:Generated_Source\PSoC5/cyPm.c ****     /* Save clk_imo source */
 185:Generated_Source\PSoC5/cyPm.c ****     cyPmClockBackup.clkImoSrc = CY_PM_CLKDIST_CR_REG & CY_PM_CLKDIST_IMO_OUT_MASK;
 186:Generated_Source\PSoC5/cyPm.c **** 
 187:Generated_Source\PSoC5/cyPm.c ****     /* If IMOCLK2X or SPC OSC is source for clk_imo, set it to IMOCLK */
 188:Generated_Source\PSoC5/cyPm.c ****     if(CY_PM_CLKDIST_IMO_OUT_IMO != cyPmClockBackup.clkImoSrc)
 189:Generated_Source\PSoC5/cyPm.c ****     {
 190:Generated_Source\PSoC5/cyPm.c ****         /* Set IMOCLK to source for clk_imo */
 191:Generated_Source\PSoC5/cyPm.c ****         CY_PM_CLKDIST_CR_REG = (CY_PM_CLKDIST_CR_REG & ((uint8)(~CY_PM_CLKDIST_IMO_OUT_MASK))) |
 192:Generated_Source\PSoC5/cyPm.c ****                                 CY_PM_CLKDIST_IMO_OUT_IMO;
 193:Generated_Source\PSoC5/cyPm.c ****     }    /* Need to change nothing if IMOCLK is source clk_imo */
 194:Generated_Source\PSoC5/cyPm.c **** 
 195:Generated_Source\PSoC5/cyPm.c ****     /* IMO doubler - disable it (saved above) */
 196:Generated_Source\PSoC5/cyPm.c ****     if(0u != (CY_PM_FASTCLK_IMO_CR_REG & CY_PM_FASTCLK_IMO_CR_F2XON))
 197:Generated_Source\PSoC5/cyPm.c ****     {
 198:Generated_Source\PSoC5/cyPm.c ****         CyIMO_DisableDoubler();
 199:Generated_Source\PSoC5/cyPm.c ****     }
 200:Generated_Source\PSoC5/cyPm.c **** 
 201:Generated_Source\PSoC5/cyPm.c ****     /* Master clock - save divider and set it to divide-by-one (if no yet) */
 202:Generated_Source\PSoC5/cyPm.c ****     cyPmClockBackup.clkSyncDiv = CY_PM_CLKDIST_MSTR0_REG;
 203:Generated_Source\PSoC5/cyPm.c ****     if(CY_PM_DIV_BY_ONE != cyPmClockBackup.clkSyncDiv)
ARM GAS  C:\Users\mgronber\AppData\Local\Temp\ccowRMf8.s 			page 5


 204:Generated_Source\PSoC5/cyPm.c ****     {
 205:Generated_Source\PSoC5/cyPm.c ****         CyMasterClk_SetDivider(CY_PM_DIV_BY_ONE);
 206:Generated_Source\PSoC5/cyPm.c ****     }    /* No change if master clock divider is 1 */
 207:Generated_Source\PSoC5/cyPm.c **** 
 208:Generated_Source\PSoC5/cyPm.c ****     /* Master clock source - set it to IMO if not yet. */
 209:Generated_Source\PSoC5/cyPm.c ****     if(CY_MASTER_SOURCE_IMO != cyPmClockBackup.masterClkSrc)
 210:Generated_Source\PSoC5/cyPm.c ****     {
 211:Generated_Source\PSoC5/cyPm.c ****         CyMasterClk_SetSource(CY_MASTER_SOURCE_IMO);
 212:Generated_Source\PSoC5/cyPm.c ****     }    /* No change if master clock source is IMO */
 213:Generated_Source\PSoC5/cyPm.c **** 
 214:Generated_Source\PSoC5/cyPm.c ****     /* Bus clock - save divider and set it, if needed, to divide-by-one */
 215:Generated_Source\PSoC5/cyPm.c ****     cyPmClockBackup.clkBusDiv = (uint16) ((uint16) CY_PM_CLK_BUS_MSB_DIV_REG << 8u);
 216:Generated_Source\PSoC5/cyPm.c ****     cyPmClockBackup.clkBusDiv |= CY_PM_CLK_BUS_LSB_DIV_REG;
 217:Generated_Source\PSoC5/cyPm.c ****     if(CY_PM_BUS_CLK_DIV_BY_ONE != cyPmClockBackup.clkBusDiv)
 218:Generated_Source\PSoC5/cyPm.c ****     {
 219:Generated_Source\PSoC5/cyPm.c ****         CyBusClk_SetDivider(CY_PM_BUS_CLK_DIV_BY_ONE);
 220:Generated_Source\PSoC5/cyPm.c ****     }    /* Do nothing if saved and actual values are equal */
 221:Generated_Source\PSoC5/cyPm.c **** 
 222:Generated_Source\PSoC5/cyPm.c ****     /* Set number of wait cycles for flash according to CPU frequency in MHz */
 223:Generated_Source\PSoC5/cyPm.c ****     CyFlash_SetWaitCycles((uint8)CY_PM_GET_CPU_FREQ_MHZ);
 224:Generated_Source\PSoC5/cyPm.c **** 
 225:Generated_Source\PSoC5/cyPm.c ****     /* MHz ECO - check enable state and disable if needed */
 226:Generated_Source\PSoC5/cyPm.c ****     if(0u != (CY_PM_FASTCLK_XMHZ_CSR_REG & CY_PM_XMHZ_CSR_ENABLE))
 227:Generated_Source\PSoC5/cyPm.c ****     {
 228:Generated_Source\PSoC5/cyPm.c ****         /* MHz ECO is enabled - save state and disable */
 229:Generated_Source\PSoC5/cyPm.c ****         cyPmClockBackup.xmhzEnableState = CY_PM_ENABLED;
 230:Generated_Source\PSoC5/cyPm.c ****         CyXTAL_Stop();
 231:Generated_Source\PSoC5/cyPm.c ****     }
 232:Generated_Source\PSoC5/cyPm.c ****     else
 233:Generated_Source\PSoC5/cyPm.c ****     {
 234:Generated_Source\PSoC5/cyPm.c ****         /* MHz ECO is disabled - save state */
 235:Generated_Source\PSoC5/cyPm.c ****         cyPmClockBackup.xmhzEnableState = CY_PM_DISABLED;
 236:Generated_Source\PSoC5/cyPm.c ****     }
 237:Generated_Source\PSoC5/cyPm.c **** 
 238:Generated_Source\PSoC5/cyPm.c **** 
 239:Generated_Source\PSoC5/cyPm.c ****     /***************************************************************************
 240:Generated_Source\PSoC5/cyPm.c ****     * Save the enable state of delay between the system bus clock and each of the
 241:Generated_Source\PSoC5/cyPm.c ****     * 4 individual analog clocks. This bit non-retention and its value should
 242:Generated_Source\PSoC5/cyPm.c ****     * be restored on wakeup.
 243:Generated_Source\PSoC5/cyPm.c ****     ***************************************************************************/
 244:Generated_Source\PSoC5/cyPm.c ****     if(0u != (CY_PM_CLKDIST_DELAY_REG & CY_PM_CLKDIST_DELAY_EN))
 245:Generated_Source\PSoC5/cyPm.c ****     {
 246:Generated_Source\PSoC5/cyPm.c ****         cyPmClockBackup.clkDistDelay = CY_PM_ENABLED;
 247:Generated_Source\PSoC5/cyPm.c ****     }
 248:Generated_Source\PSoC5/cyPm.c ****     else
 249:Generated_Source\PSoC5/cyPm.c ****     {
 250:Generated_Source\PSoC5/cyPm.c ****         cyPmClockBackup.clkDistDelay = CY_PM_DISABLED;
 251:Generated_Source\PSoC5/cyPm.c ****     }
 252:Generated_Source\PSoC5/cyPm.c **** }
 253:Generated_Source\PSoC5/cyPm.c **** 
 254:Generated_Source\PSoC5/cyPm.c **** 
 255:Generated_Source\PSoC5/cyPm.c **** /*******************************************************************************
 256:Generated_Source\PSoC5/cyPm.c **** * Function Name: CyPmRestoreClocks
 257:Generated_Source\PSoC5/cyPm.c **** ********************************************************************************
 258:Generated_Source\PSoC5/cyPm.c **** *
 259:Generated_Source\PSoC5/cyPm.c **** * Summary:
 260:Generated_Source\PSoC5/cyPm.c **** *  Restores any state that was preserved by the last call to CyPmSaveClocks().
ARM GAS  C:\Users\mgronber\AppData\Local\Temp\ccowRMf8.s 			page 6


 261:Generated_Source\PSoC5/cyPm.c **** *  The Flash wait state setting is also restored.
 262:Generated_Source\PSoC5/cyPm.c **** *
 263:Generated_Source\PSoC5/cyPm.c **** *  Note If the Master Clock source is routed through the DSI inputs, then it
 264:Generated_Source\PSoC5/cyPm.c **** *  must be set manually to another source before using the
 265:Generated_Source\PSoC5/cyPm.c **** *  CyPmSaveClocks()/CyPmRestoreClocks() functions.
 266:Generated_Source\PSoC5/cyPm.c **** *
 267:Generated_Source\PSoC5/cyPm.c **** *  PSoC 3 and PSoC 5LP:
 268:Generated_Source\PSoC5/cyPm.c **** *  The merge region could be used to process state when the megahertz crystal is
 269:Generated_Source\PSoC5/cyPm.c **** *  not ready after a hold-off timeout.
 270:Generated_Source\PSoC5/cyPm.c **** *
 271:Generated_Source\PSoC5/cyPm.c **** *  PSoC 5:
 272:Generated_Source\PSoC5/cyPm.c **** *  The 130 ms is given for the megahertz crystal to stabilize. Its readiness is
 273:Generated_Source\PSoC5/cyPm.c **** *  not verified after a hold-off timeout.
 274:Generated_Source\PSoC5/cyPm.c **** *
 275:Generated_Source\PSoC5/cyPm.c **** * Parameters:
 276:Generated_Source\PSoC5/cyPm.c **** *  None
 277:Generated_Source\PSoC5/cyPm.c **** *
 278:Generated_Source\PSoC5/cyPm.c **** * Return:
 279:Generated_Source\PSoC5/cyPm.c **** *  None
 280:Generated_Source\PSoC5/cyPm.c **** *
 281:Generated_Source\PSoC5/cyPm.c **** *******************************************************************************/
 282:Generated_Source\PSoC5/cyPm.c **** void CyPmRestoreClocks(void) 
 283:Generated_Source\PSoC5/cyPm.c **** {
 284:Generated_Source\PSoC5/cyPm.c ****     cystatus status = CYRET_TIMEOUT;
 285:Generated_Source\PSoC5/cyPm.c ****     uint16 i;
 286:Generated_Source\PSoC5/cyPm.c ****     uint16 clkBusDivTmp;
 287:Generated_Source\PSoC5/cyPm.c **** 
 288:Generated_Source\PSoC5/cyPm.c **** 
 289:Generated_Source\PSoC5/cyPm.c ****     /* Convertion table between CyIMO_SetFreq() parameters and register's value */
 290:Generated_Source\PSoC5/cyPm.c ****     const uint8 CYCODE cyPmImoFreqMhz2Reg[7u] = {
 291:Generated_Source\PSoC5/cyPm.c ****         CY_IMO_FREQ_12MHZ, CY_IMO_FREQ_6MHZ,  CY_IMO_FREQ_24MHZ, CY_IMO_FREQ_3MHZ,
 292:Generated_Source\PSoC5/cyPm.c ****         CY_IMO_FREQ_48MHZ, 5u, 6u};
 293:Generated_Source\PSoC5/cyPm.c **** 
 294:Generated_Source\PSoC5/cyPm.c ****     /* Restore enable state of delay between system bus clock and ACLKs. */
 295:Generated_Source\PSoC5/cyPm.c ****     if(CY_PM_ENABLED == cyPmClockBackup.clkDistDelay)
 296:Generated_Source\PSoC5/cyPm.c ****     {
 297:Generated_Source\PSoC5/cyPm.c ****         /* Delay for both bandgap and delay line to settle out */
 298:Generated_Source\PSoC5/cyPm.c ****         CyDelayCycles((uint32)(CY_PM_CLK_DELAY_BANDGAP_SETTLE_US + CY_PM_CLK_DELAY_BIAS_SETTLE_US) 
 299:Generated_Source\PSoC5/cyPm.c ****                         CY_PM_GET_CPU_FREQ_MHZ);
 300:Generated_Source\PSoC5/cyPm.c **** 
 301:Generated_Source\PSoC5/cyPm.c ****         CY_PM_CLKDIST_DELAY_REG |= CY_PM_CLKDIST_DELAY_EN;
 302:Generated_Source\PSoC5/cyPm.c ****     }
 303:Generated_Source\PSoC5/cyPm.c **** 
 304:Generated_Source\PSoC5/cyPm.c ****     /* MHz ECO restore state */
 305:Generated_Source\PSoC5/cyPm.c ****     if(CY_PM_ENABLED == cyPmClockBackup.xmhzEnableState)
 306:Generated_Source\PSoC5/cyPm.c ****     {
 307:Generated_Source\PSoC5/cyPm.c ****         /***********************************************************************
 308:Generated_Source\PSoC5/cyPm.c ****         * Enabling XMHZ XTAL. The actual CyXTAL_Start() with a non zero wait
 309:Generated_Source\PSoC5/cyPm.c ****         * period uses FTW for period measurement. This could cause a problem
 310:Generated_Source\PSoC5/cyPm.c ****         * if CTW/FTW is used as a wake up time in the low power modes APIs.
 311:Generated_Source\PSoC5/cyPm.c ****         * So, the XTAL wait procedure is implemented with a software delay.
 312:Generated_Source\PSoC5/cyPm.c ****         ***********************************************************************/
 313:Generated_Source\PSoC5/cyPm.c **** 
 314:Generated_Source\PSoC5/cyPm.c ****         /* Enable XMHZ XTAL with no wait */
 315:Generated_Source\PSoC5/cyPm.c ****         (void) CyXTAL_Start(CY_PM_XTAL_MHZ_NO_WAIT);
 316:Generated_Source\PSoC5/cyPm.c **** 
 317:Generated_Source\PSoC5/cyPm.c ****         /* Read XERR bit to clear it */
ARM GAS  C:\Users\mgronber\AppData\Local\Temp\ccowRMf8.s 			page 7


 318:Generated_Source\PSoC5/cyPm.c ****         (void) CY_PM_FASTCLK_XMHZ_CSR_REG;
 319:Generated_Source\PSoC5/cyPm.c **** 
 320:Generated_Source\PSoC5/cyPm.c ****         /* Wait */
 321:Generated_Source\PSoC5/cyPm.c ****         for(i = CY_PM_MHZ_XTAL_WAIT_NUM_OF_200_US; i > 0u; i--)
 322:Generated_Source\PSoC5/cyPm.c ****         {
 323:Generated_Source\PSoC5/cyPm.c ****             /* Make a 200 microseconds delay */
 324:Generated_Source\PSoC5/cyPm.c ****             CyDelayCycles((uint32)CY_PM_WAIT_200_US * CY_PM_GET_CPU_FREQ_MHZ);
 325:Generated_Source\PSoC5/cyPm.c **** 
 326:Generated_Source\PSoC5/cyPm.c ****             /* High output indicates oscillator failure */
 327:Generated_Source\PSoC5/cyPm.c ****             if(0u == (CY_PM_FASTCLK_XMHZ_CSR_REG & CY_PM_XMHZ_CSR_XERR))
 328:Generated_Source\PSoC5/cyPm.c ****             {
 329:Generated_Source\PSoC5/cyPm.c ****                 status = CYRET_SUCCESS;
 330:Generated_Source\PSoC5/cyPm.c ****                 break;
 331:Generated_Source\PSoC5/cyPm.c ****             }
 332:Generated_Source\PSoC5/cyPm.c ****         }
 333:Generated_Source\PSoC5/cyPm.c **** 
 334:Generated_Source\PSoC5/cyPm.c ****         if(CYRET_TIMEOUT == status)
 335:Generated_Source\PSoC5/cyPm.c ****         {
 336:Generated_Source\PSoC5/cyPm.c ****             /*******************************************************************
 337:Generated_Source\PSoC5/cyPm.c ****             * Process the situation when megahertz crystal is not ready.
 338:Generated_Source\PSoC5/cyPm.c ****             * Time to stabilize the value is crystal specific.
 339:Generated_Source\PSoC5/cyPm.c ****             *******************************************************************/
 340:Generated_Source\PSoC5/cyPm.c ****            /* `#START_MHZ_ECO_TIMEOUT` */
 341:Generated_Source\PSoC5/cyPm.c **** 
 342:Generated_Source\PSoC5/cyPm.c ****            /* `#END` */
 343:Generated_Source\PSoC5/cyPm.c ****         }
 344:Generated_Source\PSoC5/cyPm.c ****     }   /* (CY_PM_ENABLED == cyPmClockBackup.xmhzEnableState) */
 345:Generated_Source\PSoC5/cyPm.c **** 
 346:Generated_Source\PSoC5/cyPm.c **** 
 347:Generated_Source\PSoC5/cyPm.c ****     /* Temprorary set maximum flash wait cycles */
 348:Generated_Source\PSoC5/cyPm.c ****     CyFlash_SetWaitCycles(CY_PM_MAX_FLASH_WAIT_CYCLES);
 349:Generated_Source\PSoC5/cyPm.c **** 
 350:Generated_Source\PSoC5/cyPm.c ****     /* XTAL and DSI clocks are ready to be source for Master clock. */
 351:Generated_Source\PSoC5/cyPm.c ****     if((CY_PM_MASTER_CLK_SRC_XTAL == cyPmClockBackup.masterClkSrc) ||
 352:Generated_Source\PSoC5/cyPm.c ****        (CY_PM_MASTER_CLK_SRC_DSI  == cyPmClockBackup.masterClkSrc))
 353:Generated_Source\PSoC5/cyPm.c ****     {
 354:Generated_Source\PSoC5/cyPm.c ****         /* Restore Master clock's divider */
 355:Generated_Source\PSoC5/cyPm.c ****         if(CY_PM_CLKDIST_MSTR0_REG != cyPmClockBackup.clkSyncDiv)
 356:Generated_Source\PSoC5/cyPm.c ****         {
 357:Generated_Source\PSoC5/cyPm.c ****             /* Restore Master clock divider */
 358:Generated_Source\PSoC5/cyPm.c ****             CyMasterClk_SetDivider(cyPmClockBackup.clkSyncDiv);
 359:Generated_Source\PSoC5/cyPm.c ****         }
 360:Generated_Source\PSoC5/cyPm.c **** 
 361:Generated_Source\PSoC5/cyPm.c ****         /* Restore Master clock source */
 362:Generated_Source\PSoC5/cyPm.c ****         CyMasterClk_SetSource(cyPmClockBackup.masterClkSrc);
 363:Generated_Source\PSoC5/cyPm.c ****     }
 364:Generated_Source\PSoC5/cyPm.c **** 
 365:Generated_Source\PSoC5/cyPm.c ****     /* IMO - restore IMO frequency */
 366:Generated_Source\PSoC5/cyPm.c ****     if((0u != (cyPmClockBackup.imoUsbClk & CY_PM_FASTCLK_IMO_CR_USB)) &&
 367:Generated_Source\PSoC5/cyPm.c ****         (CY_IMO_FREQ_24MHZ == cyPmImoFreqMhz2Reg[cyPmClockBackup.imoFreq]))
 368:Generated_Source\PSoC5/cyPm.c ****     {
 369:Generated_Source\PSoC5/cyPm.c ****         /* Restore IMO frequency (24 MHz) and trim it for USB */
 370:Generated_Source\PSoC5/cyPm.c ****         CyIMO_SetFreq(CY_IMO_FREQ_USB);
 371:Generated_Source\PSoC5/cyPm.c ****     }
 372:Generated_Source\PSoC5/cyPm.c ****     else
 373:Generated_Source\PSoC5/cyPm.c ****     {
 374:Generated_Source\PSoC5/cyPm.c ****         /* Restore IMO frequency */
ARM GAS  C:\Users\mgronber\AppData\Local\Temp\ccowRMf8.s 			page 8


 375:Generated_Source\PSoC5/cyPm.c ****         CyIMO_SetFreq(cyPmImoFreqMhz2Reg[cyPmClockBackup.imoFreq]);
 376:Generated_Source\PSoC5/cyPm.c **** 
 377:Generated_Source\PSoC5/cyPm.c ****         if(0u != (cyPmClockBackup.imoUsbClk & CY_PM_FASTCLK_IMO_CR_USB))
 378:Generated_Source\PSoC5/cyPm.c ****         {
 379:Generated_Source\PSoC5/cyPm.c ****             CY_PM_FASTCLK_IMO_CR_REG |= CY_PM_FASTCLK_IMO_CR_USB;
 380:Generated_Source\PSoC5/cyPm.c ****         }
 381:Generated_Source\PSoC5/cyPm.c ****         else
 382:Generated_Source\PSoC5/cyPm.c ****         {
 383:Generated_Source\PSoC5/cyPm.c ****             CY_PM_FASTCLK_IMO_CR_REG &= ((uint8)(~CY_PM_FASTCLK_IMO_CR_USB));
 384:Generated_Source\PSoC5/cyPm.c ****         }
 385:Generated_Source\PSoC5/cyPm.c ****     }
 386:Generated_Source\PSoC5/cyPm.c **** 
 387:Generated_Source\PSoC5/cyPm.c ****     /* IMO - restore enable state if needed */
 388:Generated_Source\PSoC5/cyPm.c ****     if((CY_PM_ENABLED == cyPmClockBackup.imoEnable) &&
 389:Generated_Source\PSoC5/cyPm.c ****        (0u == (CY_PM_ACT_CFG0_IMO & CY_PM_ACT_CFG0_REG)))
 390:Generated_Source\PSoC5/cyPm.c ****     {
 391:Generated_Source\PSoC5/cyPm.c ****         /* IMO - restore enabled state */
 392:Generated_Source\PSoC5/cyPm.c ****         CyIMO_Start(CY_PM_IMO_NO_WAIT_TO_SETTLE);
 393:Generated_Source\PSoC5/cyPm.c ****     }
 394:Generated_Source\PSoC5/cyPm.c **** 
 395:Generated_Source\PSoC5/cyPm.c ****     /* IMO - restore IMOCLK source */
 396:Generated_Source\PSoC5/cyPm.c ****     CyIMO_SetSource(cyPmClockBackup.imoClkSrc);
 397:Generated_Source\PSoC5/cyPm.c **** 
 398:Generated_Source\PSoC5/cyPm.c ****     /* Restore IMO doubler enable state (turned off by CyPmSaveClocks()) */
 399:Generated_Source\PSoC5/cyPm.c ****     if(CY_PM_ENABLED == cyPmClockBackup.imo2x)
 400:Generated_Source\PSoC5/cyPm.c ****     {
 401:Generated_Source\PSoC5/cyPm.c ****         CyIMO_EnableDoubler();
 402:Generated_Source\PSoC5/cyPm.c ****     }
 403:Generated_Source\PSoC5/cyPm.c **** 
 404:Generated_Source\PSoC5/cyPm.c ****     /* IMO - restore clk_imo source, if needed */
 405:Generated_Source\PSoC5/cyPm.c ****     if(cyPmClockBackup.clkImoSrc != (CY_PM_CLKDIST_CR_REG & CY_PM_CLKDIST_IMO_OUT_MASK))
 406:Generated_Source\PSoC5/cyPm.c ****     {
 407:Generated_Source\PSoC5/cyPm.c ****         CY_PM_CLKDIST_CR_REG = (CY_PM_CLKDIST_CR_REG & ((uint8)(~CY_PM_CLKDIST_IMO_OUT_MASK))) |
 408:Generated_Source\PSoC5/cyPm.c ****                                 cyPmClockBackup.clkImoSrc;
 409:Generated_Source\PSoC5/cyPm.c ****     }
 410:Generated_Source\PSoC5/cyPm.c **** 
 411:Generated_Source\PSoC5/cyPm.c **** 
 412:Generated_Source\PSoC5/cyPm.c ****     /* PLL restore state */
 413:Generated_Source\PSoC5/cyPm.c ****     if(CY_PM_ENABLED == cyPmClockBackup.pllEnableState)
 414:Generated_Source\PSoC5/cyPm.c ****     {
 415:Generated_Source\PSoC5/cyPm.c ****         /***********************************************************************
 416:Generated_Source\PSoC5/cyPm.c ****         * Enable PLL. The actual CyPLL_OUT_Start() without wait period uses FTW
 417:Generated_Source\PSoC5/cyPm.c ****         * for period measurement. This could cause a problem if CTW/FTW is used
 418:Generated_Source\PSoC5/cyPm.c ****         * as a wakeup time in the low power modes APIs. To omit this issue PLL
 419:Generated_Source\PSoC5/cyPm.c ****         * wait procedure is implemented with a software delay.
 420:Generated_Source\PSoC5/cyPm.c ****         ***********************************************************************/
 421:Generated_Source\PSoC5/cyPm.c ****         status = CYRET_TIMEOUT;
 422:Generated_Source\PSoC5/cyPm.c **** 
 423:Generated_Source\PSoC5/cyPm.c ****         /* Enable PLL */
 424:Generated_Source\PSoC5/cyPm.c ****         (void) CyPLL_OUT_Start(CY_PM_PLL_OUT_NO_WAIT);
 425:Generated_Source\PSoC5/cyPm.c **** 
 426:Generated_Source\PSoC5/cyPm.c ****         /* Read to clear lock status after delay */
 427:Generated_Source\PSoC5/cyPm.c ****         CyDelayUs((uint32)80u);
 428:Generated_Source\PSoC5/cyPm.c ****         (void) CY_PM_FASTCLK_PLL_SR_REG;
 429:Generated_Source\PSoC5/cyPm.c **** 
 430:Generated_Source\PSoC5/cyPm.c ****         /* It should take 250 us lock: 251-80 = 171 */
 431:Generated_Source\PSoC5/cyPm.c ****         for(i = 171u; i > 0u; i--)
ARM GAS  C:\Users\mgronber\AppData\Local\Temp\ccowRMf8.s 			page 9


 432:Generated_Source\PSoC5/cyPm.c ****         {
 433:Generated_Source\PSoC5/cyPm.c ****             CyDelayUs((uint32)1u);
 434:Generated_Source\PSoC5/cyPm.c **** 
 435:Generated_Source\PSoC5/cyPm.c ****             /* Accept PLL is OK after two consecutive polls indicate PLL lock */
 436:Generated_Source\PSoC5/cyPm.c ****             if((0u != (CY_PM_FASTCLK_PLL_SR_REG & CY_PM_FASTCLK_PLL_LOCKED)) &&
 437:Generated_Source\PSoC5/cyPm.c ****                (0u != (CY_PM_FASTCLK_PLL_SR_REG & CY_PM_FASTCLK_PLL_LOCKED)))
 438:Generated_Source\PSoC5/cyPm.c ****             {
 439:Generated_Source\PSoC5/cyPm.c ****                 status = CYRET_SUCCESS;
 440:Generated_Source\PSoC5/cyPm.c ****                 break;
 441:Generated_Source\PSoC5/cyPm.c ****             }
 442:Generated_Source\PSoC5/cyPm.c ****         }
 443:Generated_Source\PSoC5/cyPm.c **** 
 444:Generated_Source\PSoC5/cyPm.c ****         if(CYRET_TIMEOUT == status)
 445:Generated_Source\PSoC5/cyPm.c ****         {
 446:Generated_Source\PSoC5/cyPm.c ****             /*******************************************************************
 447:Generated_Source\PSoC5/cyPm.c ****             * Process the situation when PLL is not ready.
 448:Generated_Source\PSoC5/cyPm.c ****             *******************************************************************/
 449:Generated_Source\PSoC5/cyPm.c ****            /* `#START_PLL_TIMEOUT` */
 450:Generated_Source\PSoC5/cyPm.c **** 
 451:Generated_Source\PSoC5/cyPm.c ****            /* `#END` */
 452:Generated_Source\PSoC5/cyPm.c ****         }
 453:Generated_Source\PSoC5/cyPm.c ****     }   /* (CY_PM_ENABLED == cyPmClockBackup.pllEnableState) */
 454:Generated_Source\PSoC5/cyPm.c **** 
 455:Generated_Source\PSoC5/cyPm.c **** 
 456:Generated_Source\PSoC5/cyPm.c ****     /* PLL and IMO is ready to be source for Master clock */
 457:Generated_Source\PSoC5/cyPm.c ****     if((CY_PM_MASTER_CLK_SRC_IMO == cyPmClockBackup.masterClkSrc) ||
 458:Generated_Source\PSoC5/cyPm.c ****        (CY_PM_MASTER_CLK_SRC_PLL == cyPmClockBackup.masterClkSrc))
 459:Generated_Source\PSoC5/cyPm.c ****     {
 460:Generated_Source\PSoC5/cyPm.c ****         /* Restore Master clock divider */
 461:Generated_Source\PSoC5/cyPm.c ****         if(CY_PM_CLKDIST_MSTR0_REG != cyPmClockBackup.clkSyncDiv)
 462:Generated_Source\PSoC5/cyPm.c ****         {
 463:Generated_Source\PSoC5/cyPm.c ****             CyMasterClk_SetDivider(cyPmClockBackup.clkSyncDiv);
 464:Generated_Source\PSoC5/cyPm.c ****         }
 465:Generated_Source\PSoC5/cyPm.c **** 
 466:Generated_Source\PSoC5/cyPm.c ****         /* Restore Master clock source */
 467:Generated_Source\PSoC5/cyPm.c ****         CyMasterClk_SetSource(cyPmClockBackup.masterClkSrc);
 468:Generated_Source\PSoC5/cyPm.c ****     }
 469:Generated_Source\PSoC5/cyPm.c **** 
 470:Generated_Source\PSoC5/cyPm.c ****     /* IMO - disable if it was originally disabled */
 471:Generated_Source\PSoC5/cyPm.c ****     if((CY_PM_DISABLED == cyPmClockBackup.imoEnable) &&
 472:Generated_Source\PSoC5/cyPm.c ****        (0u != (CY_PM_ACT_CFG0_IMO & CY_PM_ACT_CFG0_REG)))
 473:Generated_Source\PSoC5/cyPm.c ****     {
 474:Generated_Source\PSoC5/cyPm.c ****         CyIMO_Stop();
 475:Generated_Source\PSoC5/cyPm.c ****     }
 476:Generated_Source\PSoC5/cyPm.c **** 
 477:Generated_Source\PSoC5/cyPm.c ****     /* Bus clock - restore divider, if needed */
 478:Generated_Source\PSoC5/cyPm.c ****     clkBusDivTmp = (uint16) ((uint16)CY_PM_CLK_BUS_MSB_DIV_REG << 8u);
 479:Generated_Source\PSoC5/cyPm.c ****     clkBusDivTmp |= CY_PM_CLK_BUS_LSB_DIV_REG;
 480:Generated_Source\PSoC5/cyPm.c ****     if(cyPmClockBackup.clkBusDiv != clkBusDivTmp)
 481:Generated_Source\PSoC5/cyPm.c ****     {
 482:Generated_Source\PSoC5/cyPm.c ****         CyBusClk_SetDivider(cyPmClockBackup.clkBusDiv);
 483:Generated_Source\PSoC5/cyPm.c ****     }
 484:Generated_Source\PSoC5/cyPm.c **** 
 485:Generated_Source\PSoC5/cyPm.c ****     /* Restore flash wait cycles */
 486:Generated_Source\PSoC5/cyPm.c ****     CY_PM_CACHE_CR_REG = ((CY_PM_CACHE_CR_REG & ((uint8)(~CY_PM_CACHE_CR_CYCLES_MASK))) |
 487:Generated_Source\PSoC5/cyPm.c ****                            cyPmClockBackup.flashWaitCycles);
 488:Generated_Source\PSoC5/cyPm.c **** 
ARM GAS  C:\Users\mgronber\AppData\Local\Temp\ccowRMf8.s 			page 10


 489:Generated_Source\PSoC5/cyPm.c ****     /* Digital and analog clocks - restore state */
 490:Generated_Source\PSoC5/cyPm.c ****     CY_PM_ACT_CFG1_REG = cyPmClockBackup.enClkA;
 491:Generated_Source\PSoC5/cyPm.c ****     CY_PM_ACT_CFG2_REG = cyPmClockBackup.enClkD;
 492:Generated_Source\PSoC5/cyPm.c **** }
 493:Generated_Source\PSoC5/cyPm.c **** 
 494:Generated_Source\PSoC5/cyPm.c **** 
 495:Generated_Source\PSoC5/cyPm.c **** /*******************************************************************************
 496:Generated_Source\PSoC5/cyPm.c **** * Function Name: CyPmAltAct
 497:Generated_Source\PSoC5/cyPm.c **** ********************************************************************************
 498:Generated_Source\PSoC5/cyPm.c **** *
 499:Generated_Source\PSoC5/cyPm.c **** * Summary:
 500:Generated_Source\PSoC5/cyPm.c **** *  Puts the part into the Alternate Active (Standby) state. The Alternate Active
 501:Generated_Source\PSoC5/cyPm.c **** *  state can allow for any of the capabilities of the device to be active, but
 502:Generated_Source\PSoC5/cyPm.c **** *  the operation of this function is dependent on the CPU being disabled during
 503:Generated_Source\PSoC5/cyPm.c **** *  the Alternate Active state. The configuration code and the component APIs
 504:Generated_Source\PSoC5/cyPm.c **** *  will configure the template for the Alternate Active state to be the same as
 505:Generated_Source\PSoC5/cyPm.c **** *  the Active state with the exception that the CPU will be disabled during
 506:Generated_Source\PSoC5/cyPm.c **** *  Alternate Active.
 507:Generated_Source\PSoC5/cyPm.c **** *
 508:Generated_Source\PSoC5/cyPm.c **** *  Note Before calling this function, you must manually configure the power mode
 509:Generated_Source\PSoC5/cyPm.c **** *  of the source clocks for the timer that is used as the wakeup timer.
 510:Generated_Source\PSoC5/cyPm.c **** *
 511:Generated_Source\PSoC5/cyPm.c **** *  PSoC 3:
 512:Generated_Source\PSoC5/cyPm.c **** *  Before switching to Alternate Active, if a wakeupTime other than NONE is
 513:Generated_Source\PSoC5/cyPm.c **** *  specified, then the appropriate timer state is configured as specified with
 514:Generated_Source\PSoC5/cyPm.c **** *  the interrupt for that timer disabled.  The wakeup source will be the
 515:Generated_Source\PSoC5/cyPm.c **** *  combination of the values specified in the wakeupSource and any timer
 516:Generated_Source\PSoC5/cyPm.c **** *  specified in the wakeupTime argument.  Once the wakeup condition is
 517:Generated_Source\PSoC5/cyPm.c **** *  satisfied, then all saved state is restored and the function returns in the
 518:Generated_Source\PSoC5/cyPm.c **** *  Active state.
 519:Generated_Source\PSoC5/cyPm.c **** *
 520:Generated_Source\PSoC5/cyPm.c **** *  Note that if the wakeupTime is made with a different value, the period before
 521:Generated_Source\PSoC5/cyPm.c **** *  the wakeup occurs can be significantly shorter than the specified time.  If
 522:Generated_Source\PSoC5/cyPm.c **** *  the next call is made with the same wakeupTime value, then the wakeup will
 523:Generated_Source\PSoC5/cyPm.c **** *  occur the specified period after the previous wakeup occurred.
 524:Generated_Source\PSoC5/cyPm.c **** *
 525:Generated_Source\PSoC5/cyPm.c **** *  If a wakeupTime other than NONE is specified, then upon exit the state of the
 526:Generated_Source\PSoC5/cyPm.c **** *  specified timer will be left as specified by wakeupTime with the timer
 527:Generated_Source\PSoC5/cyPm.c **** *  enabled and the interrupt disabled.  If the CTW, FTW or One PPS is already
 528:Generated_Source\PSoC5/cyPm.c **** *  configured for wakeup, for example with the SleepTimer or RTC components,
 529:Generated_Source\PSoC5/cyPm.c **** *  then specify NONE for the wakeupTime and include the appropriate source for
 530:Generated_Source\PSoC5/cyPm.c **** *  wakeupSource.
 531:Generated_Source\PSoC5/cyPm.c **** *
 532:Generated_Source\PSoC5/cyPm.c **** *  PSoC 5LP:
 533:Generated_Source\PSoC5/cyPm.c **** *  This function is used to both enter the Alternate Active mode and halt the
 534:Generated_Source\PSoC5/cyPm.c **** *  processor.  For PSoC 3 these two actions must be paired together.  With PSoC
 535:Generated_Source\PSoC5/cyPm.c **** *  5LP the processor can be halted independently with the __WFI() function from
 536:Generated_Source\PSoC5/cyPm.c **** *  the CMSIS library that is included in Creator.  This function should be used
 537:Generated_Source\PSoC5/cyPm.c **** *  instead when the action required is just to halt the processor until an
 538:Generated_Source\PSoC5/cyPm.c **** *  enabled interrupt occurs.
 539:Generated_Source\PSoC5/cyPm.c **** *
 540:Generated_Source\PSoC5/cyPm.c **** *  The wakeupTime parameter is not used for this device. It must be set to zero
 541:Generated_Source\PSoC5/cyPm.c **** *  (PM_ALT_ACT_TIME_NONE). The wake up time configuration can be done by a
 542:Generated_Source\PSoC5/cyPm.c **** *  separate component: the CTW wakeup interval should be configured with the
 543:Generated_Source\PSoC5/cyPm.c **** *  Sleep Timer component and one second interval should be configured with the
 544:Generated_Source\PSoC5/cyPm.c **** *  RTC component.
 545:Generated_Source\PSoC5/cyPm.c **** *
ARM GAS  C:\Users\mgronber\AppData\Local\Temp\ccowRMf8.s 			page 11


 546:Generated_Source\PSoC5/cyPm.c **** *  The wakeup behavior depends on the wakeupSource parameter in the following
 547:Generated_Source\PSoC5/cyPm.c **** *  manner: upon function execution the device will be switched from Active to
 548:Generated_Source\PSoC5/cyPm.c **** *  Alternate Active mode and then the CPU will be halted. When an enabled wakeup
 549:Generated_Source\PSoC5/cyPm.c **** *  event occurs the device will return to Active mode.  Similarly when an
 550:Generated_Source\PSoC5/cyPm.c **** *  enabled interrupt occurs the CPU will be started. These two actions will
 551:Generated_Source\PSoC5/cyPm.c **** *  occur together provided that the event that occurs is an enabled wakeup
 552:Generated_Source\PSoC5/cyPm.c **** *  source and also generates an interrupt. If just the wakeup event occurs then
 553:Generated_Source\PSoC5/cyPm.c **** *  the device will be in Active mode, but the CPU will remain halted waiting for
 554:Generated_Source\PSoC5/cyPm.c **** *  an interrupt. If an interrupt occurs from something other than a wakeup
 555:Generated_Source\PSoC5/cyPm.c **** *  source, then the CPU will restart with the device in Alternate Active mode
 556:Generated_Source\PSoC5/cyPm.c **** *  until a wakeup event occurs.
 557:Generated_Source\PSoC5/cyPm.c **** *
 558:Generated_Source\PSoC5/cyPm.c **** *  For example, if CyPmAltAct(PM_ALT_ACT_TIME_NONE, PM_ALT_ACT_SRC_PICU) is
 559:Generated_Source\PSoC5/cyPm.c **** *  called and PICU interrupt occurs, the CPU will be started and device will be
 560:Generated_Source\PSoC5/cyPm.c **** *  switched into Active mode. And if CyPmAltAct(PM_ALT_ACT_TIME_NONE,
 561:Generated_Source\PSoC5/cyPm.c **** *  PM_ALT_ACT_SRC_NONE) is called and PICU interrupt occurs, the CPU will be
 562:Generated_Source\PSoC5/cyPm.c **** *  started while device remains in Alternate Active mode.
 563:Generated_Source\PSoC5/cyPm.c **** *
 564:Generated_Source\PSoC5/cyPm.c **** * Parameters:
 565:Generated_Source\PSoC5/cyPm.c **** *  wakeupTime: Specifies a timer wakeup source and the frequency of that
 566:Generated_Source\PSoC5/cyPm.c **** *              source. For PSoC 5LP this parameter is ignored.
 567:Generated_Source\PSoC5/cyPm.c **** *
 568:Generated_Source\PSoC5/cyPm.c **** *           Define                      Time
 569:Generated_Source\PSoC5/cyPm.c **** *  PM_ALT_ACT_TIME_NONE             None
 570:Generated_Source\PSoC5/cyPm.c **** *  PM_ALT_ACT_TIME_ONE_PPS          One PPS: 1 second
 571:Generated_Source\PSoC5/cyPm.c **** *  PM_ALT_ACT_TIME_CTW_2MS          CTW: 2 ms
 572:Generated_Source\PSoC5/cyPm.c **** *  PM_ALT_ACT_TIME_CTW_4MS          CTW: 4 ms
 573:Generated_Source\PSoC5/cyPm.c **** *  PM_ALT_ACT_TIME_CTW_8MS          CTW: 8 ms
 574:Generated_Source\PSoC5/cyPm.c **** *  PM_ALT_ACT_TIME_CTW_16MS         CTW: 16 ms
 575:Generated_Source\PSoC5/cyPm.c **** *  PM_ALT_ACT_TIME_CTW_32MS         CTW: 32 ms
 576:Generated_Source\PSoC5/cyPm.c **** *  PM_ALT_ACT_TIME_CTW_64MS         CTW: 64 ms
 577:Generated_Source\PSoC5/cyPm.c **** *  PM_ALT_ACT_TIME_CTW_128MS        CTW: 128 ms
 578:Generated_Source\PSoC5/cyPm.c **** *  PM_ALT_ACT_TIME_CTW_256MS        CTW: 256 ms
 579:Generated_Source\PSoC5/cyPm.c **** *  PM_ALT_ACT_TIME_CTW_512MS        CTW: 512 ms
 580:Generated_Source\PSoC5/cyPm.c **** *  PM_ALT_ACT_TIME_CTW_1024MS       CTW: 1024 ms
 581:Generated_Source\PSoC5/cyPm.c **** *  PM_ALT_ACT_TIME_CTW_2048MS       CTW: 2048 ms
 582:Generated_Source\PSoC5/cyPm.c **** *  PM_ALT_ACT_TIME_CTW_4096MS       CTW: 4096 ms
 583:Generated_Source\PSoC5/cyPm.c **** *  PM_ALT_ACT_TIME_FTW(1-256)*       FTW: 10us to 2.56 ms
 584:Generated_Source\PSoC5/cyPm.c **** *
 585:Generated_Source\PSoC5/cyPm.c **** *  *Note:   PM_ALT_ACT_TIME_FTW() is a macro that takes an argument that
 586:Generated_Source\PSoC5/cyPm.c **** *           specifies how many increments of 10 us to delay.
 587:Generated_Source\PSoC5/cyPm.c ****             For PSoC 3 silicon the valid range of  values is 1 to 256.
 588:Generated_Source\PSoC5/cyPm.c **** *
 589:Generated_Source\PSoC5/cyPm.c **** *  wakeUpSource:    Specifies a bitwise mask of wakeup sources. In addition, if
 590:Generated_Source\PSoC5/cyPm.c **** *                   a wakeupTime has been specified, the associated timer will be
 591:Generated_Source\PSoC5/cyPm.c **** *                   included as a wakeup source.
 592:Generated_Source\PSoC5/cyPm.c **** *
 593:Generated_Source\PSoC5/cyPm.c **** *           Define                      Source
 594:Generated_Source\PSoC5/cyPm.c **** *  PM_ALT_ACT_SRC_NONE              None
 595:Generated_Source\PSoC5/cyPm.c **** *  PM_ALT_ACT_SRC_COMPARATOR0       Comparator 0
 596:Generated_Source\PSoC5/cyPm.c **** *  PM_ALT_ACT_SRC_COMPARATOR1       Comparator 1
 597:Generated_Source\PSoC5/cyPm.c **** *  PM_ALT_ACT_SRC_COMPARATOR2       Comparator 2
 598:Generated_Source\PSoC5/cyPm.c **** *  PM_ALT_ACT_SRC_COMPARATOR3       Comparator 3
 599:Generated_Source\PSoC5/cyPm.c **** *  PM_ALT_ACT_SRC_INTERRUPT         Interrupt
 600:Generated_Source\PSoC5/cyPm.c **** *  PM_ALT_ACT_SRC_PICU              PICU
 601:Generated_Source\PSoC5/cyPm.c **** *  PM_ALT_ACT_SRC_I2C               I2C
 602:Generated_Source\PSoC5/cyPm.c **** *  PM_ALT_ACT_SRC_BOOSTCONVERTER    Boost Converter
ARM GAS  C:\Users\mgronber\AppData\Local\Temp\ccowRMf8.s 			page 12


 603:Generated_Source\PSoC5/cyPm.c **** *  PM_ALT_ACT_SRC_FTW               Fast Timewheel*
 604:Generated_Source\PSoC5/cyPm.c **** *  PM_ALT_ACT_SRC_VD                High and Low Voltage Detection (HVI, LVI)*
 605:Generated_Source\PSoC5/cyPm.c **** *  PM_ALT_ACT_SRC_CTW               Central Timewheel**
 606:Generated_Source\PSoC5/cyPm.c **** *  PM_ALT_ACT_SRC_ONE_PPS           One PPS**
 607:Generated_Source\PSoC5/cyPm.c **** *  PM_ALT_ACT_SRC_LCD               LCD
 608:Generated_Source\PSoC5/cyPm.c **** *
 609:Generated_Source\PSoC5/cyPm.c **** *  *Note : FTW and HVI/LVI wakeup signals are in the same mask bit.
 610:Generated_Source\PSoC5/cyPm.c **** *  **Note: CTW and One PPS wakeup signals are in the same mask bit.
 611:Generated_Source\PSoC5/cyPm.c **** *
 612:Generated_Source\PSoC5/cyPm.c **** *  When specifying a Comparator as the wakeupSource, an instance specific define
 613:Generated_Source\PSoC5/cyPm.c **** *  that will track with the specific comparator that the instance
 614:Generated_Source\PSoC5/cyPm.c **** *  is placed into should be used. As an example, for a Comparator instance named MyComp the
 615:Generated_Source\PSoC5/cyPm.c **** *  value to OR into the mask is: MyComp_ctComp__CMP_MASK.
 616:Generated_Source\PSoC5/cyPm.c **** *
 617:Generated_Source\PSoC5/cyPm.c **** *  When CTW, FTW or One PPS is used as a wakeup source, the CyPmReadStatus()
 618:Generated_Source\PSoC5/cyPm.c **** *  function must be called upon wakeup with a corresponding parameter. Please
 619:Generated_Source\PSoC5/cyPm.c **** *  refer to the CyPmReadStatus() API in the System Reference Guide for more
 620:Generated_Source\PSoC5/cyPm.c **** *  information.
 621:Generated_Source\PSoC5/cyPm.c **** *
 622:Generated_Source\PSoC5/cyPm.c **** * Return:
 623:Generated_Source\PSoC5/cyPm.c **** *  None
 624:Generated_Source\PSoC5/cyPm.c **** *
 625:Generated_Source\PSoC5/cyPm.c **** * Reentrant:
 626:Generated_Source\PSoC5/cyPm.c **** *  No
 627:Generated_Source\PSoC5/cyPm.c **** *
 628:Generated_Source\PSoC5/cyPm.c **** * Side Effects:
 629:Generated_Source\PSoC5/cyPm.c **** *  If a wakeupTime other than NONE is specified, then upon exit the state of the
 630:Generated_Source\PSoC5/cyPm.c **** *  specified timer will be left as specified by wakeupTime with the timer
 631:Generated_Source\PSoC5/cyPm.c **** *  enabled and the interrupt disabled.  Also, the ILO 1 KHz (if CTW timer is
 632:Generated_Source\PSoC5/cyPm.c **** *  used as wakeup time) or ILO 100 KHz (if the FTW timer is used as wakeup time)
 633:Generated_Source\PSoC5/cyPm.c **** *  will be left started.
 634:Generated_Source\PSoC5/cyPm.c **** *
 635:Generated_Source\PSoC5/cyPm.c **** *******************************************************************************/
 636:Generated_Source\PSoC5/cyPm.c **** void CyPmAltAct(uint16 wakeupTime, uint16 wakeupSource) 
 637:Generated_Source\PSoC5/cyPm.c **** {
 638:Generated_Source\PSoC5/cyPm.c ****     #if(CY_PSOC5)
 639:Generated_Source\PSoC5/cyPm.c **** 
 640:Generated_Source\PSoC5/cyPm.c ****         /* Arguments expected to be 0 */
 641:Generated_Source\PSoC5/cyPm.c ****         CYASSERT(PM_ALT_ACT_TIME_NONE == wakeupTime);
 642:Generated_Source\PSoC5/cyPm.c **** 
 643:Generated_Source\PSoC5/cyPm.c ****         if(0u != wakeupTime)
 644:Generated_Source\PSoC5/cyPm.c ****         {
 645:Generated_Source\PSoC5/cyPm.c ****             /* To remove unreferenced local variable warning */
 646:Generated_Source\PSoC5/cyPm.c ****         }
 647:Generated_Source\PSoC5/cyPm.c **** 
 648:Generated_Source\PSoC5/cyPm.c ****     #endif /* (CY_PSOC5) */
 649:Generated_Source\PSoC5/cyPm.c **** 
 650:Generated_Source\PSoC5/cyPm.c **** 
 651:Generated_Source\PSoC5/cyPm.c ****     #if(CY_PSOC3)
 652:Generated_Source\PSoC5/cyPm.c **** 
 653:Generated_Source\PSoC5/cyPm.c ****         /* FTW - save current and set new configuration */
 654:Generated_Source\PSoC5/cyPm.c ****         if((wakeupTime >= PM_ALT_ACT_TIME_FTW(1u)) && (wakeupTime <= PM_ALT_ACT_TIME_FTW(256u)))
 655:Generated_Source\PSoC5/cyPm.c ****         {
 656:Generated_Source\PSoC5/cyPm.c ****             CyPmFtwSetInterval(PM_ALT_ACT_FTW_INTERVAL(wakeupTime));
 657:Generated_Source\PSoC5/cyPm.c **** 
 658:Generated_Source\PSoC5/cyPm.c ****             /* Include associated timer to wakeupSource */
 659:Generated_Source\PSoC5/cyPm.c ****             wakeupSource |= PM_ALT_ACT_SRC_FTW;
ARM GAS  C:\Users\mgronber\AppData\Local\Temp\ccowRMf8.s 			page 13


 660:Generated_Source\PSoC5/cyPm.c ****         }
 661:Generated_Source\PSoC5/cyPm.c **** 
 662:Generated_Source\PSoC5/cyPm.c ****         /* CTW - save current and set new configuration */
 663:Generated_Source\PSoC5/cyPm.c ****         if((wakeupTime >= PM_ALT_ACT_TIME_CTW_2MS) && (wakeupTime <= PM_ALT_ACT_TIME_CTW_4096MS))
 664:Generated_Source\PSoC5/cyPm.c ****         {
 665:Generated_Source\PSoC5/cyPm.c ****             /* Save current CTW configuration and set new one */
 666:Generated_Source\PSoC5/cyPm.c ****             CyPmCtwSetInterval((uint8)(wakeupTime - 1u));
 667:Generated_Source\PSoC5/cyPm.c **** 
 668:Generated_Source\PSoC5/cyPm.c ****             /* Include associated timer to wakeupSource */
 669:Generated_Source\PSoC5/cyPm.c ****             wakeupSource |= PM_ALT_ACT_SRC_CTW;
 670:Generated_Source\PSoC5/cyPm.c ****         }
 671:Generated_Source\PSoC5/cyPm.c **** 
 672:Generated_Source\PSoC5/cyPm.c ****         /* 1PPS - save current and set new configuration */
 673:Generated_Source\PSoC5/cyPm.c ****         if(PM_ALT_ACT_TIME_ONE_PPS == wakeupTime)
 674:Generated_Source\PSoC5/cyPm.c ****         {
 675:Generated_Source\PSoC5/cyPm.c ****             /* Save current 1PPS configuration and set new one */
 676:Generated_Source\PSoC5/cyPm.c ****             CyPmOppsSet();
 677:Generated_Source\PSoC5/cyPm.c **** 
 678:Generated_Source\PSoC5/cyPm.c ****             /* Include associated timer to wakeupSource */
 679:Generated_Source\PSoC5/cyPm.c ****             wakeupSource |= PM_ALT_ACT_SRC_ONE_PPS;
 680:Generated_Source\PSoC5/cyPm.c ****         }
 681:Generated_Source\PSoC5/cyPm.c **** 
 682:Generated_Source\PSoC5/cyPm.c ****     #endif /* (CY_PSOC3) */
 683:Generated_Source\PSoC5/cyPm.c **** 
 684:Generated_Source\PSoC5/cyPm.c **** 
 685:Generated_Source\PSoC5/cyPm.c ****     /* Save and set new wake up configuration */
 686:Generated_Source\PSoC5/cyPm.c **** 
 687:Generated_Source\PSoC5/cyPm.c ****     /* Interrupt, PICU, I2C, Boost converter, CTW/1PPS */
 688:Generated_Source\PSoC5/cyPm.c ****     cyPmBackup.wakeupCfg0 = CY_PM_WAKEUP_CFG0_REG;
 689:Generated_Source\PSoC5/cyPm.c ****     CY_PM_WAKEUP_CFG0_REG = (uint8) (wakeupSource >> 4u);
 690:Generated_Source\PSoC5/cyPm.c **** 
 691:Generated_Source\PSoC5/cyPm.c ****     /* Comparators */
 692:Generated_Source\PSoC5/cyPm.c ****     cyPmBackup.wakeupCfg1 = CY_PM_WAKEUP_CFG1_REG;
 693:Generated_Source\PSoC5/cyPm.c ****     CY_PM_WAKEUP_CFG1_REG = (((uint8) wakeupSource) & CY_PM_WAKEUP_SRC_CMPS_MASK);
 694:Generated_Source\PSoC5/cyPm.c **** 
 695:Generated_Source\PSoC5/cyPm.c ****     /* LCD */
 696:Generated_Source\PSoC5/cyPm.c ****     cyPmBackup.wakeupCfg2 = CY_PM_WAKEUP_CFG2_REG;
 697:Generated_Source\PSoC5/cyPm.c ****     CY_PM_WAKEUP_CFG2_REG = ((uint8) ((wakeupSource >> 12u) & 0x01u));
 698:Generated_Source\PSoC5/cyPm.c **** 
 699:Generated_Source\PSoC5/cyPm.c **** 
 700:Generated_Source\PSoC5/cyPm.c ****     /* Switch to the Alternate Active mode */
 701:Generated_Source\PSoC5/cyPm.c ****     CY_PM_MODE_CSR_REG = ((CY_PM_MODE_CSR_REG & ((uint8)(~CY_PM_MODE_CSR_MASK))) | CY_PM_MODE_CSR_A
 702:Generated_Source\PSoC5/cyPm.c **** 
 703:Generated_Source\PSoC5/cyPm.c ****     /* Recommended readback. */
 704:Generated_Source\PSoC5/cyPm.c ****     (void) CY_PM_MODE_CSR_REG;
 705:Generated_Source\PSoC5/cyPm.c **** 
 706:Generated_Source\PSoC5/cyPm.c ****     /* Two recommended NOPs to get into the mode. */
 707:Generated_Source\PSoC5/cyPm.c ****     CY_NOP;
 708:Generated_Source\PSoC5/cyPm.c ****     CY_NOP;
 709:Generated_Source\PSoC5/cyPm.c **** 
 710:Generated_Source\PSoC5/cyPm.c ****     /* Execute WFI instruction (for ARM-based devices only) */
 711:Generated_Source\PSoC5/cyPm.c ****     CY_PM_WFI;
 712:Generated_Source\PSoC5/cyPm.c **** 
 713:Generated_Source\PSoC5/cyPm.c ****     /* Point of return from Alternate Active Mode */
 714:Generated_Source\PSoC5/cyPm.c **** 
 715:Generated_Source\PSoC5/cyPm.c ****     /* Restore wake up configuration */
 716:Generated_Source\PSoC5/cyPm.c ****     CY_PM_WAKEUP_CFG0_REG = cyPmBackup.wakeupCfg0;
ARM GAS  C:\Users\mgronber\AppData\Local\Temp\ccowRMf8.s 			page 14


 717:Generated_Source\PSoC5/cyPm.c ****     CY_PM_WAKEUP_CFG1_REG = cyPmBackup.wakeupCfg1;
 718:Generated_Source\PSoC5/cyPm.c ****     CY_PM_WAKEUP_CFG2_REG = cyPmBackup.wakeupCfg2;
 719:Generated_Source\PSoC5/cyPm.c **** }
 720:Generated_Source\PSoC5/cyPm.c **** 
 721:Generated_Source\PSoC5/cyPm.c **** 
 722:Generated_Source\PSoC5/cyPm.c **** /*******************************************************************************
 723:Generated_Source\PSoC5/cyPm.c **** * Function Name: CyPmSleep
 724:Generated_Source\PSoC5/cyPm.c **** ********************************************************************************
 725:Generated_Source\PSoC5/cyPm.c **** *
 726:Generated_Source\PSoC5/cyPm.c **** * Summary:
 727:Generated_Source\PSoC5/cyPm.c **** *  Puts the part into the Sleep state.
 728:Generated_Source\PSoC5/cyPm.c **** *
 729:Generated_Source\PSoC5/cyPm.c **** *  Note Before calling this function, you must manually configure the power
 730:Generated_Source\PSoC5/cyPm.c **** *  mode of the source clocks for the timer that is used as the wakeup timer.
 731:Generated_Source\PSoC5/cyPm.c **** *
 732:Generated_Source\PSoC5/cyPm.c **** *  Note Before calling this function, you must prepare clock tree configuration
 733:Generated_Source\PSoC5/cyPm.c **** *  for the low power mode by calling CyPmSaveClocks(). And restore clock
 734:Generated_Source\PSoC5/cyPm.c **** *  configuration after CyPmSleep() execution by calling CyPmRestoreClocks(). See
 735:Generated_Source\PSoC5/cyPm.c **** *  Power Management section, Clock Configuration subsection of the System
 736:Generated_Source\PSoC5/cyPm.c **** *  Reference Guide for more information.
 737:Generated_Source\PSoC5/cyPm.c **** *
 738:Generated_Source\PSoC5/cyPm.c **** *  PSoC 3:
 739:Generated_Source\PSoC5/cyPm.c **** *  Before switching to Sleep, if a wakeupTime other than NONE is specified,
 740:Generated_Source\PSoC5/cyPm.c **** *  then the appropriate timer state is configured as specified with the
 741:Generated_Source\PSoC5/cyPm.c **** *  interrupt for that timer disabled.  The wakeup source will be a combination
 742:Generated_Source\PSoC5/cyPm.c **** *  of the values specified in the wakeupSource and any timer specified in the
 743:Generated_Source\PSoC5/cyPm.c **** *  wakeupTime argument.  Once the wakeup condition is satisfied, then all saved
 744:Generated_Source\PSoC5/cyPm.c **** *  state is restored and the function returns in the Active state.
 745:Generated_Source\PSoC5/cyPm.c **** *
 746:Generated_Source\PSoC5/cyPm.c **** *  Note that if the wakeupTime is made with a different value, the period before
 747:Generated_Source\PSoC5/cyPm.c **** *  the wakeup occurs can be significantly shorter than the specified time.  If
 748:Generated_Source\PSoC5/cyPm.c **** *  the next call is made with the same wakeupTime value, then the wakeup will
 749:Generated_Source\PSoC5/cyPm.c **** *  occur the specified period after the previous wakeup occurred.
 750:Generated_Source\PSoC5/cyPm.c **** *
 751:Generated_Source\PSoC5/cyPm.c **** *  If a wakeupTime other than NONE is specified, then upon exit the state of the
 752:Generated_Source\PSoC5/cyPm.c **** *  specified timer will be left as specified by wakeupTime with the timer
 753:Generated_Source\PSoC5/cyPm.c **** *  enabled and the interrupt disabled.  If the CTW or One PPS is already
 754:Generated_Source\PSoC5/cyPm.c **** *  configured for wakeup, for example with the SleepTimer or RTC components,
 755:Generated_Source\PSoC5/cyPm.c **** *  then specify NONE for the wakeupTime and include the appropriate source for
 756:Generated_Source\PSoC5/cyPm.c **** *  wakeupSource.
 757:Generated_Source\PSoC5/cyPm.c **** *
 758:Generated_Source\PSoC5/cyPm.c **** *  PSoC 5LP:
 759:Generated_Source\PSoC5/cyPm.c **** *  The wakeupTime parameter is not used and the only NONE can be specified.
 760:Generated_Source\PSoC5/cyPm.c **** *  The wakeup time must be configured with the component, SleepTimer for CTW
 761:Generated_Source\PSoC5/cyPm.c **** *  intervals and RTC for 1PPS interval. The component must be configured to
 762:Generated_Source\PSoC5/cyPm.c **** *  generate interrupt.
 763:Generated_Source\PSoC5/cyPm.c **** *
 764:Generated_Source\PSoC5/cyPm.c **** * Parameters:
 765:Generated_Source\PSoC5/cyPm.c **** *  wakeupTime:      Specifies a timer wakeup source and the frequency of that
 766:Generated_Source\PSoC5/cyPm.c **** *                   source. For PSoC 5LP, this parameter is ignored.
 767:Generated_Source\PSoC5/cyPm.c **** *
 768:Generated_Source\PSoC5/cyPm.c **** *           Define                      Time
 769:Generated_Source\PSoC5/cyPm.c **** *  PM_SLEEP_TIME_NONE               None
 770:Generated_Source\PSoC5/cyPm.c **** *  PM_SLEEP_TIME_ONE_PPS            One PPS: 1 second
 771:Generated_Source\PSoC5/cyPm.c **** *  PM_SLEEP_TIME_CTW_2MS            CTW: 2 ms
 772:Generated_Source\PSoC5/cyPm.c **** *  PM_SLEEP_TIME_CTW_4MS            CTW: 4 ms
 773:Generated_Source\PSoC5/cyPm.c **** *  PM_SLEEP_TIME_CTW_8MS            CTW: 8 ms
ARM GAS  C:\Users\mgronber\AppData\Local\Temp\ccowRMf8.s 			page 15


 774:Generated_Source\PSoC5/cyPm.c **** *  PM_SLEEP_TIME_CTW_16MS           CTW: 16 ms
 775:Generated_Source\PSoC5/cyPm.c **** *  PM_SLEEP_TIME_CTW_32MS           CTW: 32 ms
 776:Generated_Source\PSoC5/cyPm.c **** *  PM_SLEEP_TIME_CTW_64MS           CTW: 64 ms
 777:Generated_Source\PSoC5/cyPm.c **** *  PM_SLEEP_TIME_CTW_128MS          CTW: 128 ms
 778:Generated_Source\PSoC5/cyPm.c **** *  PM_SLEEP_TIME_CTW_256MS          CTW: 256 ms
 779:Generated_Source\PSoC5/cyPm.c **** *  PM_SLEEP_TIME_CTW_512MS          CTW: 512 ms
 780:Generated_Source\PSoC5/cyPm.c **** *  PM_SLEEP_TIME_CTW_1024MS         CTW: 1024 ms
 781:Generated_Source\PSoC5/cyPm.c **** *  PM_SLEEP_TIME_CTW_2048MS         CTW: 2048 ms
 782:Generated_Source\PSoC5/cyPm.c **** *  PM_SLEEP_TIME_CTW_4096MS         CTW: 4096 ms
 783:Generated_Source\PSoC5/cyPm.c **** *
 784:Generated_Source\PSoC5/cyPm.c **** *  wakeUpSource:    Specifies a bitwise mask of wakeup sources. In addition, if
 785:Generated_Source\PSoC5/cyPm.c **** *                   a wakeupTime has been specified the associated timer will be
 786:Generated_Source\PSoC5/cyPm.c **** *                   included as a wakeup source.
 787:Generated_Source\PSoC5/cyPm.c **** *
 788:Generated_Source\PSoC5/cyPm.c **** *           Define                      Source
 789:Generated_Source\PSoC5/cyPm.c **** *  PM_SLEEP_SRC_NONE                None
 790:Generated_Source\PSoC5/cyPm.c **** *  PM_SLEEP_SRC_COMPARATOR0         Comparator 0
 791:Generated_Source\PSoC5/cyPm.c **** *  PM_SLEEP_SRC_COMPARATOR1         Comparator 1
 792:Generated_Source\PSoC5/cyPm.c **** *  PM_SLEEP_SRC_COMPARATOR2         Comparator 2
 793:Generated_Source\PSoC5/cyPm.c **** *  PM_SLEEP_SRC_COMPARATOR3         Comparator 3
 794:Generated_Source\PSoC5/cyPm.c **** *  PM_SLEEP_SRC_PICU                PICU
 795:Generated_Source\PSoC5/cyPm.c **** *  PM_SLEEP_SRC_I2C                 I2C
 796:Generated_Source\PSoC5/cyPm.c **** *  PM_SLEEP_SRC_BOOSTCONVERTER      Boost Converter
 797:Generated_Source\PSoC5/cyPm.c **** *  PM_SLEEP_SRC_VD                  High and Low Voltage Detection (HVI, LVI)
 798:Generated_Source\PSoC5/cyPm.c **** *  PM_SLEEP_SRC_CTW                 Central Timewheel*
 799:Generated_Source\PSoC5/cyPm.c **** *  PM_SLEEP_SRC_ONE_PPS             One PPS*
 800:Generated_Source\PSoC5/cyPm.c **** *  PM_SLEEP_SRC_LCD                 LCD
 801:Generated_Source\PSoC5/cyPm.c **** *
 802:Generated_Source\PSoC5/cyPm.c **** *  *Note:   CTW and One PPS wakeup signals are in the same mask bit.
 803:Generated_Source\PSoC5/cyPm.c **** *
 804:Generated_Source\PSoC5/cyPm.c **** *  When specifying a Comparator as the wakeupSource an instance specific define
 805:Generated_Source\PSoC5/cyPm.c **** *  should be used that will track with the specific comparator that the instance
 806:Generated_Source\PSoC5/cyPm.c **** *  is placed into. As an example for a Comparator instance named MyComp the
 807:Generated_Source\PSoC5/cyPm.c **** *  value to OR into the mask is: MyComp_ctComp__CMP_MASK.
 808:Generated_Source\PSoC5/cyPm.c **** *
 809:Generated_Source\PSoC5/cyPm.c **** *  When CTW or One PPS is used as a wakeup source, the CyPmReadStatus()
 810:Generated_Source\PSoC5/cyPm.c **** *  function must be called upon wakeup with corresponding parameter. Please
 811:Generated_Source\PSoC5/cyPm.c **** *  refer to the CyPmReadStatus() API in the System Reference Guide for more
 812:Generated_Source\PSoC5/cyPm.c **** *  information.
 813:Generated_Source\PSoC5/cyPm.c **** *
 814:Generated_Source\PSoC5/cyPm.c **** * Return:
 815:Generated_Source\PSoC5/cyPm.c **** *  None
 816:Generated_Source\PSoC5/cyPm.c **** *
 817:Generated_Source\PSoC5/cyPm.c **** * Reentrant:
 818:Generated_Source\PSoC5/cyPm.c **** *  No
 819:Generated_Source\PSoC5/cyPm.c **** *
 820:Generated_Source\PSoC5/cyPm.c **** * Side Effects and Restrictions:
 821:Generated_Source\PSoC5/cyPm.c **** *  If a wakeupTime other than NONE is specified, then upon exit the state of the
 822:Generated_Source\PSoC5/cyPm.c **** *  specified timer will be left as specified by wakeupTime with the timer
 823:Generated_Source\PSoC5/cyPm.c **** *  enabled and the interrupt disabled. Also, the ILO 1 KHz (if CTW timer is
 824:Generated_Source\PSoC5/cyPm.c **** *  used as wake up time) will be left started.
 825:Generated_Source\PSoC5/cyPm.c **** *
 826:Generated_Source\PSoC5/cyPm.c **** *  The 1 kHz ILO clock is expected to be enabled for PSoC 3 and PSoC 5LP to
 827:Generated_Source\PSoC5/cyPm.c **** *  measure Hibernate/Sleep regulator settling time after a reset. The holdoff
 828:Generated_Source\PSoC5/cyPm.c **** *  delay is measured using rising edges of the 1 kHz ILO.
 829:Generated_Source\PSoC5/cyPm.c **** *
 830:Generated_Source\PSoC5/cyPm.c **** *  For PSoC 3 silicon hardware buzz should be disabled before entering a sleep
ARM GAS  C:\Users\mgronber\AppData\Local\Temp\ccowRMf8.s 			page 16


 831:Generated_Source\PSoC5/cyPm.c **** *  power mode. It is disabled by PSoC Creator during startup.
 832:Generated_Source\PSoC5/cyPm.c **** *  If a Low Voltage Interrupt (LVI), High Voltage Interrupt (HVI) or Brown Out
 833:Generated_Source\PSoC5/cyPm.c **** *  detect (power supply supervising capabilities) are required in a design
 834:Generated_Source\PSoC5/cyPm.c **** *  during sleep, use the Central Time Wheel (CTW) to periodically wake the
 835:Generated_Source\PSoC5/cyPm.c **** *  device, perform software buzz, and refresh the supervisory services. If LVI,
 836:Generated_Source\PSoC5/cyPm.c **** *  HVI, or Brown Out is not required, then CTW is not required.
 837:Generated_Source\PSoC5/cyPm.c **** *  Refer to the device errata for more information.
 838:Generated_Source\PSoC5/cyPm.c **** *
 839:Generated_Source\PSoC5/cyPm.c **** *******************************************************************************/
 840:Generated_Source\PSoC5/cyPm.c **** void CyPmSleep(uint8 wakeupTime, uint16 wakeupSource) 
 841:Generated_Source\PSoC5/cyPm.c **** {
 842:Generated_Source\PSoC5/cyPm.c ****     uint8 interruptState;
 843:Generated_Source\PSoC5/cyPm.c **** 
 844:Generated_Source\PSoC5/cyPm.c ****     /* Save current global interrupt enable and disable it */
 845:Generated_Source\PSoC5/cyPm.c ****     interruptState = CyEnterCriticalSection();
 846:Generated_Source\PSoC5/cyPm.c **** 
 847:Generated_Source\PSoC5/cyPm.c **** 
 848:Generated_Source\PSoC5/cyPm.c ****     /***********************************************************************
 849:Generated_Source\PSoC5/cyPm.c ****     * The Hibernate/Sleep regulator has a settling time after a reset.
 850:Generated_Source\PSoC5/cyPm.c ****     * During this time, the system ignores requests to enter Sleep and
 851:Generated_Source\PSoC5/cyPm.c ****     * Hibernate modes. The holdoff delay is measured using rising edges of
 852:Generated_Source\PSoC5/cyPm.c ****     * the 1 kHz ILO.
 853:Generated_Source\PSoC5/cyPm.c ****     ***********************************************************************/
 854:Generated_Source\PSoC5/cyPm.c ****     if(0u == (CY_PM_MODE_CSR_REG & CY_PM_MODE_CSR_PWRUP_PULSE_Q))
 855:Generated_Source\PSoC5/cyPm.c ****     {
 856:Generated_Source\PSoC5/cyPm.c ****         /* Disable hold off - no action on restore */
 857:Generated_Source\PSoC5/cyPm.c ****         CY_PM_PWRSYS_SLP_TR_REG &= CY_PM_PWRSYS_SLP_TR_HIBSLP_HOLDOFF_MASK;
 858:Generated_Source\PSoC5/cyPm.c ****     }
 859:Generated_Source\PSoC5/cyPm.c ****     else
 860:Generated_Source\PSoC5/cyPm.c ****     {
 861:Generated_Source\PSoC5/cyPm.c ****         /* Abort, device is not ready for low power mode entry */
 862:Generated_Source\PSoC5/cyPm.c **** 
 863:Generated_Source\PSoC5/cyPm.c ****         /* Restore global interrupt enable state */
 864:Generated_Source\PSoC5/cyPm.c ****         CyExitCriticalSection(interruptState);
 865:Generated_Source\PSoC5/cyPm.c **** 
 866:Generated_Source\PSoC5/cyPm.c ****         return;
 867:Generated_Source\PSoC5/cyPm.c ****     }
 868:Generated_Source\PSoC5/cyPm.c **** 
 869:Generated_Source\PSoC5/cyPm.c **** 
 870:Generated_Source\PSoC5/cyPm.c ****     /***********************************************************************
 871:Generated_Source\PSoC5/cyPm.c ****     * PSoC3 < TO6:
 872:Generated_Source\PSoC5/cyPm.c ****     * - Hardware buzz must be disabled before the sleep mode entry.
 873:Generated_Source\PSoC5/cyPm.c ****     * - Voltage supervision (HVI/LVI) requires hardware buzz, so they must
 874:Generated_Source\PSoC5/cyPm.c ****     *   be also disabled.
 875:Generated_Source\PSoC5/cyPm.c ****     *
 876:Generated_Source\PSoC5/cyPm.c ****     * PSoC3 >= TO6:
 877:Generated_Source\PSoC5/cyPm.c ****     * - Voltage supervision (HVI/LVI) requires hardware buzz, so hardware buzz must be
 878:Generated_Source\PSoC5/cyPm.c ****     *   enabled before the sleep mode entry and restored on the wakeup.
 879:Generated_Source\PSoC5/cyPm.c ****     ***********************************************************************/
 880:Generated_Source\PSoC5/cyPm.c ****     #if(CY_PSOC3)
 881:Generated_Source\PSoC5/cyPm.c **** 
 882:Generated_Source\PSoC5/cyPm.c ****         /* Silicon Revision ID is below TO6 */
 883:Generated_Source\PSoC5/cyPm.c ****         if(CYDEV_CHIP_REV_ACTUAL < 5u)
 884:Generated_Source\PSoC5/cyPm.c ****         {
 885:Generated_Source\PSoC5/cyPm.c ****             /* Hardware buzz expected to be disabled in Sleep mode */
 886:Generated_Source\PSoC5/cyPm.c ****             CYASSERT(0u == (CY_PM_PWRSYS_WAKE_TR2_REG & CY_PM_PWRSYS_WAKE_TR2_EN_BUZZ));
 887:Generated_Source\PSoC5/cyPm.c ****         }
ARM GAS  C:\Users\mgronber\AppData\Local\Temp\ccowRMf8.s 			page 17


 888:Generated_Source\PSoC5/cyPm.c **** 
 889:Generated_Source\PSoC5/cyPm.c **** 
 890:Generated_Source\PSoC5/cyPm.c ****         if(0u != (CY_PM_RESET_CR1_REG & (CY_PM_RESET_CR1_HVIA_EN |
 891:Generated_Source\PSoC5/cyPm.c ****             CY_PM_RESET_CR1_LVIA_EN | CY_PM_RESET_CR1_LVID_EN)))
 892:Generated_Source\PSoC5/cyPm.c ****         {
 893:Generated_Source\PSoC5/cyPm.c ****             if(CYDEV_CHIP_REV_ACTUAL < 5u)
 894:Generated_Source\PSoC5/cyPm.c ****             {
 895:Generated_Source\PSoC5/cyPm.c ****                 /* LVI/HVI requires hardware buzz to be enabled */
 896:Generated_Source\PSoC5/cyPm.c ****                 CYASSERT(0u != 0u);
 897:Generated_Source\PSoC5/cyPm.c ****             }
 898:Generated_Source\PSoC5/cyPm.c ****             else
 899:Generated_Source\PSoC5/cyPm.c ****             {
 900:Generated_Source\PSoC5/cyPm.c ****                 if (0u == (CY_PM_PWRSYS_WAKE_TR2_REG & CY_PM_PWRSYS_WAKE_TR2_EN_BUZZ))
 901:Generated_Source\PSoC5/cyPm.c ****                 {
 902:Generated_Source\PSoC5/cyPm.c ****                     cyPmBackup.hardwareBuzz = CY_PM_DISABLED;
 903:Generated_Source\PSoC5/cyPm.c ****                     CY_PM_PWRSYS_WAKE_TR2_REG |= CY_PM_PWRSYS_WAKE_TR2_EN_BUZZ;
 904:Generated_Source\PSoC5/cyPm.c ****                 }
 905:Generated_Source\PSoC5/cyPm.c ****                 else
 906:Generated_Source\PSoC5/cyPm.c ****                 {
 907:Generated_Source\PSoC5/cyPm.c ****                     cyPmBackup.hardwareBuzz = CY_PM_ENABLED;
 908:Generated_Source\PSoC5/cyPm.c ****                 }
 909:Generated_Source\PSoC5/cyPm.c ****             }
 910:Generated_Source\PSoC5/cyPm.c ****         }
 911:Generated_Source\PSoC5/cyPm.c **** 
 912:Generated_Source\PSoC5/cyPm.c ****     #endif /* (CY_PSOC3) */
 913:Generated_Source\PSoC5/cyPm.c **** 
 914:Generated_Source\PSoC5/cyPm.c **** 
 915:Generated_Source\PSoC5/cyPm.c ****     /*******************************************************************************
 916:Generated_Source\PSoC5/cyPm.c ****     * For ARM-based devices,interrupt is required for the CPU to wake up. The
 917:Generated_Source\PSoC5/cyPm.c ****     * Power Management implementation assumes that wakeup time is configured with a
 918:Generated_Source\PSoC5/cyPm.c ****     * separate component (component-based wakeup time configuration) for
 919:Generated_Source\PSoC5/cyPm.c ****     * interrupt to be issued on terminal count. For more information, refer to the
 920:Generated_Source\PSoC5/cyPm.c ****     * Wakeup Time Configuration section of System Reference Guide.
 921:Generated_Source\PSoC5/cyPm.c ****     *******************************************************************************/
 922:Generated_Source\PSoC5/cyPm.c ****     #if(CY_PSOC5)
 923:Generated_Source\PSoC5/cyPm.c **** 
 924:Generated_Source\PSoC5/cyPm.c ****         /* Arguments expected to be 0 */
 925:Generated_Source\PSoC5/cyPm.c ****         CYASSERT(PM_SLEEP_TIME_NONE == wakeupTime);
 926:Generated_Source\PSoC5/cyPm.c **** 
 927:Generated_Source\PSoC5/cyPm.c ****         if(0u != wakeupTime)
 928:Generated_Source\PSoC5/cyPm.c ****         {
 929:Generated_Source\PSoC5/cyPm.c ****             /* To remove unreferenced local variable warning */
 930:Generated_Source\PSoC5/cyPm.c ****         }
 931:Generated_Source\PSoC5/cyPm.c **** 
 932:Generated_Source\PSoC5/cyPm.c ****     #endif /* (CY_PSOC5) */
 933:Generated_Source\PSoC5/cyPm.c **** 
 934:Generated_Source\PSoC5/cyPm.c **** 
 935:Generated_Source\PSoC5/cyPm.c ****     CyPmHibSlpSaveSet();
 936:Generated_Source\PSoC5/cyPm.c **** 
 937:Generated_Source\PSoC5/cyPm.c **** 
 938:Generated_Source\PSoC5/cyPm.c ****     #if(CY_PSOC3)
 939:Generated_Source\PSoC5/cyPm.c **** 
 940:Generated_Source\PSoC5/cyPm.c ****         /* CTW - save current and set new configuration */
 941:Generated_Source\PSoC5/cyPm.c ****         if((wakeupTime >= PM_SLEEP_TIME_CTW_2MS) && (wakeupTime <= PM_SLEEP_TIME_CTW_4096MS))
 942:Generated_Source\PSoC5/cyPm.c ****         {
 943:Generated_Source\PSoC5/cyPm.c ****             /* Save current and set new configuration of CTW */
 944:Generated_Source\PSoC5/cyPm.c ****             CyPmCtwSetInterval((uint8)(wakeupTime - 1u));
ARM GAS  C:\Users\mgronber\AppData\Local\Temp\ccowRMf8.s 			page 18


 945:Generated_Source\PSoC5/cyPm.c **** 
 946:Generated_Source\PSoC5/cyPm.c ****             /* Include associated timer to wakeupSource */
 947:Generated_Source\PSoC5/cyPm.c ****             wakeupSource |= PM_SLEEP_SRC_CTW;
 948:Generated_Source\PSoC5/cyPm.c ****         }
 949:Generated_Source\PSoC5/cyPm.c **** 
 950:Generated_Source\PSoC5/cyPm.c ****         /* 1PPS - save current and set new configuration */
 951:Generated_Source\PSoC5/cyPm.c ****         if(PM_SLEEP_TIME_ONE_PPS == wakeupTime)
 952:Generated_Source\PSoC5/cyPm.c ****         {
 953:Generated_Source\PSoC5/cyPm.c ****             /* Save current and set new configuration of the 1PPS */
 954:Generated_Source\PSoC5/cyPm.c ****             CyPmOppsSet();
 955:Generated_Source\PSoC5/cyPm.c **** 
 956:Generated_Source\PSoC5/cyPm.c ****             /* Include associated timer to wakeupSource */
 957:Generated_Source\PSoC5/cyPm.c ****             wakeupSource |= PM_SLEEP_SRC_ONE_PPS;
 958:Generated_Source\PSoC5/cyPm.c ****         }
 959:Generated_Source\PSoC5/cyPm.c **** 
 960:Generated_Source\PSoC5/cyPm.c ****     #endif /* (CY_PSOC3) */
 961:Generated_Source\PSoC5/cyPm.c **** 
 962:Generated_Source\PSoC5/cyPm.c **** 
 963:Generated_Source\PSoC5/cyPm.c ****     /* Save and set new wake up configuration */
 964:Generated_Source\PSoC5/cyPm.c **** 
 965:Generated_Source\PSoC5/cyPm.c ****     /* Interrupt, PICU, I2C, Boost converter, CTW/1PPS */
 966:Generated_Source\PSoC5/cyPm.c ****     cyPmBackup.wakeupCfg0 = CY_PM_WAKEUP_CFG0_REG;
 967:Generated_Source\PSoC5/cyPm.c ****     CY_PM_WAKEUP_CFG0_REG = (uint8) (wakeupSource >> 4u);
 968:Generated_Source\PSoC5/cyPm.c **** 
 969:Generated_Source\PSoC5/cyPm.c ****     /* Comparators */
 970:Generated_Source\PSoC5/cyPm.c ****     cyPmBackup.wakeupCfg1 = CY_PM_WAKEUP_CFG1_REG;
 971:Generated_Source\PSoC5/cyPm.c ****     CY_PM_WAKEUP_CFG1_REG = (((uint8) wakeupSource) & CY_PM_WAKEUP_SRC_CMPS_MASK);
 972:Generated_Source\PSoC5/cyPm.c **** 
 973:Generated_Source\PSoC5/cyPm.c ****     /* LCD */
 974:Generated_Source\PSoC5/cyPm.c ****     cyPmBackup.wakeupCfg2 = CY_PM_WAKEUP_CFG2_REG;
 975:Generated_Source\PSoC5/cyPm.c ****     CY_PM_WAKEUP_CFG2_REG = ((uint8) ((wakeupSource >> 12u) & 0x01u));
 976:Generated_Source\PSoC5/cyPm.c **** 
 977:Generated_Source\PSoC5/cyPm.c **** 
 978:Generated_Source\PSoC5/cyPm.c ****     /*******************************************************************
 979:Generated_Source\PSoC5/cyPm.c ****     * Do not use the merge region below unless any component datasheet
 980:Generated_Source\PSoC5/cyPm.c ****     * suggests doing so.
 981:Generated_Source\PSoC5/cyPm.c ****     *******************************************************************/
 982:Generated_Source\PSoC5/cyPm.c ****     /* `#START CY_PM_JUST_BEFORE_SLEEP` */
 983:Generated_Source\PSoC5/cyPm.c **** 
 984:Generated_Source\PSoC5/cyPm.c ****     /* `#END` */
 985:Generated_Source\PSoC5/cyPm.c **** 
 986:Generated_Source\PSoC5/cyPm.c **** 
 987:Generated_Source\PSoC5/cyPm.c ****     /* Last moment IMO frequency change */
 988:Generated_Source\PSoC5/cyPm.c ****     if(0u == (CY_PM_FASTCLK_IMO_CR_REG & CY_PM_FASTCLK_IMO_CR_FREQ_MASK))
 989:Generated_Source\PSoC5/cyPm.c ****     {
 990:Generated_Source\PSoC5/cyPm.c ****         /* IMO frequency is 12 MHz */
 991:Generated_Source\PSoC5/cyPm.c ****         cyPmBackup.imoActFreq12Mhz = CY_PM_ENABLED;
 992:Generated_Source\PSoC5/cyPm.c ****     }
 993:Generated_Source\PSoC5/cyPm.c ****     else
 994:Generated_Source\PSoC5/cyPm.c ****     {
 995:Generated_Source\PSoC5/cyPm.c ****         /* IMO frequency is not 12 MHz */
 996:Generated_Source\PSoC5/cyPm.c ****         cyPmBackup.imoActFreq12Mhz = CY_PM_DISABLED;
 997:Generated_Source\PSoC5/cyPm.c **** 
 998:Generated_Source\PSoC5/cyPm.c ****         /* Save IMO frequency */
 999:Generated_Source\PSoC5/cyPm.c ****         cyPmBackup.imoActFreq = CY_PM_FASTCLK_IMO_CR_REG & CY_PM_FASTCLK_IMO_CR_FREQ_MASK;
1000:Generated_Source\PSoC5/cyPm.c **** 
1001:Generated_Source\PSoC5/cyPm.c ****         /* Set IMO frequency to 12 MHz */
ARM GAS  C:\Users\mgronber\AppData\Local\Temp\ccowRMf8.s 			page 19


1002:Generated_Source\PSoC5/cyPm.c ****         CY_PM_FASTCLK_IMO_CR_REG &= ((uint8) (~CY_PM_FASTCLK_IMO_CR_FREQ_MASK));
1003:Generated_Source\PSoC5/cyPm.c ****     }
1004:Generated_Source\PSoC5/cyPm.c **** 
1005:Generated_Source\PSoC5/cyPm.c ****     /* Switch to Sleep mode */
1006:Generated_Source\PSoC5/cyPm.c ****     CY_PM_MODE_CSR_REG = ((CY_PM_MODE_CSR_REG & ((uint8)(~CY_PM_MODE_CSR_MASK))) | CY_PM_MODE_CSR_S
1007:Generated_Source\PSoC5/cyPm.c **** 
1008:Generated_Source\PSoC5/cyPm.c ****     /* Recommended readback. */
1009:Generated_Source\PSoC5/cyPm.c ****     (void) CY_PM_MODE_CSR_REG;
1010:Generated_Source\PSoC5/cyPm.c **** 
1011:Generated_Source\PSoC5/cyPm.c ****     /* Two recommended NOPs to get into mode. */
1012:Generated_Source\PSoC5/cyPm.c ****     CY_NOP;
1013:Generated_Source\PSoC5/cyPm.c ****     CY_NOP;
1014:Generated_Source\PSoC5/cyPm.c **** 
1015:Generated_Source\PSoC5/cyPm.c ****     /* Execute WFI instruction (for ARM-based devices only) */
1016:Generated_Source\PSoC5/cyPm.c ****     CY_PM_WFI;
1017:Generated_Source\PSoC5/cyPm.c **** 
1018:Generated_Source\PSoC5/cyPm.c ****     /* Point of return from Sleep Mode */
1019:Generated_Source\PSoC5/cyPm.c **** 
1020:Generated_Source\PSoC5/cyPm.c ****     /* Restore last moment IMO frequency change */
1021:Generated_Source\PSoC5/cyPm.c ****     if(CY_PM_ENABLED != cyPmBackup.imoActFreq12Mhz)
1022:Generated_Source\PSoC5/cyPm.c ****     {
1023:Generated_Source\PSoC5/cyPm.c ****         CY_PM_FASTCLK_IMO_CR_REG  = (CY_PM_FASTCLK_IMO_CR_REG & ((uint8)(~CY_PM_FASTCLK_IMO_CR_FREQ
1024:Generated_Source\PSoC5/cyPm.c ****                                     cyPmBackup.imoActFreq;
1025:Generated_Source\PSoC5/cyPm.c ****     }
1026:Generated_Source\PSoC5/cyPm.c **** 
1027:Generated_Source\PSoC5/cyPm.c **** 
1028:Generated_Source\PSoC5/cyPm.c ****     /*******************************************************************
1029:Generated_Source\PSoC5/cyPm.c ****     * Do not use merge region below unless any component datasheet
1030:Generated_Source\PSoC5/cyPm.c ****     * suggest to do so.
1031:Generated_Source\PSoC5/cyPm.c ****     *******************************************************************/
1032:Generated_Source\PSoC5/cyPm.c ****     /* `#START CY_PM_JUST_AFTER_WAKEUP_FROM_SLEEP` */
1033:Generated_Source\PSoC5/cyPm.c **** 
1034:Generated_Source\PSoC5/cyPm.c ****     /* `#END` */
1035:Generated_Source\PSoC5/cyPm.c **** 
1036:Generated_Source\PSoC5/cyPm.c **** 
1037:Generated_Source\PSoC5/cyPm.c ****     /* Restore hardware configuration */
1038:Generated_Source\PSoC5/cyPm.c ****     CyPmHibSlpRestore();
1039:Generated_Source\PSoC5/cyPm.c **** 
1040:Generated_Source\PSoC5/cyPm.c **** 
1041:Generated_Source\PSoC5/cyPm.c ****     /* Disable hardware buzz, if it was previously enabled */
1042:Generated_Source\PSoC5/cyPm.c ****     #if(CY_PSOC3)
1043:Generated_Source\PSoC5/cyPm.c **** 
1044:Generated_Source\PSoC5/cyPm.c ****         if(0u != (CY_PM_RESET_CR1_REG & (CY_PM_RESET_CR1_HVIA_EN |
1045:Generated_Source\PSoC5/cyPm.c ****             CY_PM_RESET_CR1_LVIA_EN | CY_PM_RESET_CR1_LVID_EN)))
1046:Generated_Source\PSoC5/cyPm.c ****         {
1047:Generated_Source\PSoC5/cyPm.c ****             if(CYDEV_CHIP_REV_ACTUAL >= 5u)
1048:Generated_Source\PSoC5/cyPm.c ****             {
1049:Generated_Source\PSoC5/cyPm.c ****                 if (CY_PM_DISABLED == cyPmBackup.hardwareBuzz)
1050:Generated_Source\PSoC5/cyPm.c ****                 {
1051:Generated_Source\PSoC5/cyPm.c ****                     CY_PM_PWRSYS_WAKE_TR2_REG &= (uint8)(~CY_PM_PWRSYS_WAKE_TR2_EN_BUZZ);
1052:Generated_Source\PSoC5/cyPm.c ****                 }
1053:Generated_Source\PSoC5/cyPm.c ****             }
1054:Generated_Source\PSoC5/cyPm.c ****         }
1055:Generated_Source\PSoC5/cyPm.c **** 
1056:Generated_Source\PSoC5/cyPm.c ****     #endif /* (CY_PSOC3) */
1057:Generated_Source\PSoC5/cyPm.c **** 
1058:Generated_Source\PSoC5/cyPm.c **** 
ARM GAS  C:\Users\mgronber\AppData\Local\Temp\ccowRMf8.s 			page 20


1059:Generated_Source\PSoC5/cyPm.c ****     /* Restore current wake up configuration */
1060:Generated_Source\PSoC5/cyPm.c ****     CY_PM_WAKEUP_CFG0_REG = cyPmBackup.wakeupCfg0;
1061:Generated_Source\PSoC5/cyPm.c ****     CY_PM_WAKEUP_CFG1_REG = cyPmBackup.wakeupCfg1;
1062:Generated_Source\PSoC5/cyPm.c ****     CY_PM_WAKEUP_CFG2_REG = cyPmBackup.wakeupCfg2;
1063:Generated_Source\PSoC5/cyPm.c **** 
1064:Generated_Source\PSoC5/cyPm.c ****     /* Restore global interrupt enable state */
1065:Generated_Source\PSoC5/cyPm.c ****     CyExitCriticalSection(interruptState);
1066:Generated_Source\PSoC5/cyPm.c **** }
1067:Generated_Source\PSoC5/cyPm.c **** 
1068:Generated_Source\PSoC5/cyPm.c **** 
1069:Generated_Source\PSoC5/cyPm.c **** /*******************************************************************************
1070:Generated_Source\PSoC5/cyPm.c **** * Function Name: CyPmHibernate
1071:Generated_Source\PSoC5/cyPm.c **** ********************************************************************************
1072:Generated_Source\PSoC5/cyPm.c **** *
1073:Generated_Source\PSoC5/cyPm.c **** * Summary:
1074:Generated_Source\PSoC5/cyPm.c **** *  Puts the part into the Hibernate state.
1075:Generated_Source\PSoC5/cyPm.c **** *
1076:Generated_Source\PSoC5/cyPm.c **** *  PSoC 3 and PSoC 5LP:
1077:Generated_Source\PSoC5/cyPm.c **** *  Before switching to Hibernate, the current status of the PICU wakeup source
1078:Generated_Source\PSoC5/cyPm.c **** *  bit is saved and then set. This configures the device to wake up from the
1079:Generated_Source\PSoC5/cyPm.c **** *  PICU. Make sure you have at least one pin configured to generate PICU
1080:Generated_Source\PSoC5/cyPm.c **** *  interrupt. For pin Px.y, the register "PICU_INTTYPE_PICUx_INTTYPEy" controls
1081:Generated_Source\PSoC5/cyPm.c **** *  the PICU behavior. In the TRM, this register is "PICU[0..15]_INTTYPE[0..7]."
1082:Generated_Source\PSoC5/cyPm.c **** *  In the Pins component datasheet, this register is referred to as the IRQ
1083:Generated_Source\PSoC5/cyPm.c **** *  option. Once the wakeup occurs, the PICU wakeup source bit is restored and
1084:Generated_Source\PSoC5/cyPm.c **** *  the PSoC returns to the Active state.
1085:Generated_Source\PSoC5/cyPm.c **** *
1086:Generated_Source\PSoC5/cyPm.c **** * Parameters:
1087:Generated_Source\PSoC5/cyPm.c **** *  None
1088:Generated_Source\PSoC5/cyPm.c **** *
1089:Generated_Source\PSoC5/cyPm.c **** * Return:
1090:Generated_Source\PSoC5/cyPm.c **** *  None
1091:Generated_Source\PSoC5/cyPm.c **** *
1092:Generated_Source\PSoC5/cyPm.c **** * Reentrant:
1093:Generated_Source\PSoC5/cyPm.c **** *  No
1094:Generated_Source\PSoC5/cyPm.c **** *
1095:Generated_Source\PSoC5/cyPm.c **** * Side Effects:
1096:Generated_Source\PSoC5/cyPm.c **** *  Applications must wait 20 us before re-entering hibernate or sleep after
1097:Generated_Source\PSoC5/cyPm.c **** *  waking up from hibernate. The 20 us allows the sleep regulator time to
1098:Generated_Source\PSoC5/cyPm.c **** *  stabilize before the next hibernate / sleep event occurs. The 20 us
1099:Generated_Source\PSoC5/cyPm.c **** *  requirement begins when the device wakes up. There is no hardware check that
1100:Generated_Source\PSoC5/cyPm.c **** *  this requirement is met. The specified delay should be done on ISR entry.
1101:Generated_Source\PSoC5/cyPm.c **** *
1102:Generated_Source\PSoC5/cyPm.c **** *  After the wakeup PICU interrupt occurs, the Pin_ClearInterrupt() (where Pin is
1103:Generated_Source\PSoC5/cyPm.c **** *  instance name of the Pins component) function must be called to clear the
1104:Generated_Source\PSoC5/cyPm.c **** *  latched pin events to allow the proper Hibernate mode entry and to enable
1105:Generated_Source\PSoC5/cyPm.c **** *  detection of future events.
1106:Generated_Source\PSoC5/cyPm.c **** *
1107:Generated_Source\PSoC5/cyPm.c **** *  The 1 kHz ILO clock is expected to be enabled for PSoC 3 and PSoC 5LP to
1108:Generated_Source\PSoC5/cyPm.c **** *  measure Hibernate/Sleep regulator settling time after a reset. The holdoff
1109:Generated_Source\PSoC5/cyPm.c **** *  delay is measured using the rising edges of the 1 kHz ILO.
1110:Generated_Source\PSoC5/cyPm.c **** *
1111:Generated_Source\PSoC5/cyPm.c **** *******************************************************************************/
1112:Generated_Source\PSoC5/cyPm.c **** void CyPmHibernate(void) 
1113:Generated_Source\PSoC5/cyPm.c **** {
1114:Generated_Source\PSoC5/cyPm.c ****     uint8 interruptState;
1115:Generated_Source\PSoC5/cyPm.c **** 
ARM GAS  C:\Users\mgronber\AppData\Local\Temp\ccowRMf8.s 			page 21


1116:Generated_Source\PSoC5/cyPm.c ****     /* Save current global interrupt enable and disable it */
1117:Generated_Source\PSoC5/cyPm.c ****     interruptState = CyEnterCriticalSection();
1118:Generated_Source\PSoC5/cyPm.c **** 
1119:Generated_Source\PSoC5/cyPm.c ****         /***********************************************************************
1120:Generated_Source\PSoC5/cyPm.c ****         * The Hibernate/Sleep regulator has a settling time after a reset.
1121:Generated_Source\PSoC5/cyPm.c ****         * During this time, the system ignores requests to enter the Sleep and
1122:Generated_Source\PSoC5/cyPm.c ****         * Hibernate modes. The holdoff delay is measured using the rising edges of
1123:Generated_Source\PSoC5/cyPm.c ****         * the 1 kHz ILO.
1124:Generated_Source\PSoC5/cyPm.c ****         ***********************************************************************/
1125:Generated_Source\PSoC5/cyPm.c ****         if(0u == (CY_PM_MODE_CSR_REG & CY_PM_MODE_CSR_PWRUP_PULSE_Q))
1126:Generated_Source\PSoC5/cyPm.c ****         {
1127:Generated_Source\PSoC5/cyPm.c ****             /* Disable hold off - no action on restore */
1128:Generated_Source\PSoC5/cyPm.c ****             CY_PM_PWRSYS_SLP_TR_REG &= CY_PM_PWRSYS_SLP_TR_HIBSLP_HOLDOFF_MASK;
1129:Generated_Source\PSoC5/cyPm.c ****         }
1130:Generated_Source\PSoC5/cyPm.c ****         else
1131:Generated_Source\PSoC5/cyPm.c ****         {
1132:Generated_Source\PSoC5/cyPm.c ****             /* Abort, device is not ready for low power mode entry */
1133:Generated_Source\PSoC5/cyPm.c **** 
1134:Generated_Source\PSoC5/cyPm.c ****             /* Restore global interrupt enable state */
1135:Generated_Source\PSoC5/cyPm.c ****             CyExitCriticalSection(interruptState);
1136:Generated_Source\PSoC5/cyPm.c **** 
1137:Generated_Source\PSoC5/cyPm.c ****             return;
1138:Generated_Source\PSoC5/cyPm.c ****         }
1139:Generated_Source\PSoC5/cyPm.c **** 
1140:Generated_Source\PSoC5/cyPm.c ****     CyPmHibSaveSet();
1141:Generated_Source\PSoC5/cyPm.c **** 
1142:Generated_Source\PSoC5/cyPm.c **** 
1143:Generated_Source\PSoC5/cyPm.c ****     /* Save and enable only wakeup on PICU */
1144:Generated_Source\PSoC5/cyPm.c ****     cyPmBackup.wakeupCfg0 = CY_PM_WAKEUP_CFG0_REG;
1145:Generated_Source\PSoC5/cyPm.c ****     CY_PM_WAKEUP_CFG0_REG = CY_PM_WAKEUP_PICU;
1146:Generated_Source\PSoC5/cyPm.c **** 
1147:Generated_Source\PSoC5/cyPm.c ****     cyPmBackup.wakeupCfg1 = CY_PM_WAKEUP_CFG1_REG;
1148:Generated_Source\PSoC5/cyPm.c ****     CY_PM_WAKEUP_CFG1_REG = 0x00u;
1149:Generated_Source\PSoC5/cyPm.c **** 
1150:Generated_Source\PSoC5/cyPm.c ****     cyPmBackup.wakeupCfg2 = CY_PM_WAKEUP_CFG2_REG;
1151:Generated_Source\PSoC5/cyPm.c ****     CY_PM_WAKEUP_CFG2_REG = 0x00u;
1152:Generated_Source\PSoC5/cyPm.c **** 
1153:Generated_Source\PSoC5/cyPm.c **** 
1154:Generated_Source\PSoC5/cyPm.c ****     /* Last moment IMO frequency change */
1155:Generated_Source\PSoC5/cyPm.c ****     if(0u == (CY_PM_FASTCLK_IMO_CR_REG & CY_PM_FASTCLK_IMO_CR_FREQ_MASK))
1156:Generated_Source\PSoC5/cyPm.c ****     {
1157:Generated_Source\PSoC5/cyPm.c ****         /* IMO frequency is 12 MHz */
1158:Generated_Source\PSoC5/cyPm.c ****         cyPmBackup.imoActFreq12Mhz = CY_PM_ENABLED;
1159:Generated_Source\PSoC5/cyPm.c ****     }
1160:Generated_Source\PSoC5/cyPm.c ****     else
1161:Generated_Source\PSoC5/cyPm.c ****     {
1162:Generated_Source\PSoC5/cyPm.c ****         /* IMO frequency is not 12 MHz */
1163:Generated_Source\PSoC5/cyPm.c ****         cyPmBackup.imoActFreq12Mhz = CY_PM_DISABLED;
1164:Generated_Source\PSoC5/cyPm.c **** 
1165:Generated_Source\PSoC5/cyPm.c ****         /* Save IMO frequency */
1166:Generated_Source\PSoC5/cyPm.c ****         cyPmBackup.imoActFreq = CY_PM_FASTCLK_IMO_CR_REG & CY_PM_FASTCLK_IMO_CR_FREQ_MASK;
1167:Generated_Source\PSoC5/cyPm.c **** 
1168:Generated_Source\PSoC5/cyPm.c ****         /* Set IMO frequency to 12 MHz */
1169:Generated_Source\PSoC5/cyPm.c ****         CY_PM_FASTCLK_IMO_CR_REG &= ((uint8) (~CY_PM_FASTCLK_IMO_CR_FREQ_MASK));
1170:Generated_Source\PSoC5/cyPm.c ****     }
1171:Generated_Source\PSoC5/cyPm.c **** 
1172:Generated_Source\PSoC5/cyPm.c **** 
ARM GAS  C:\Users\mgronber\AppData\Local\Temp\ccowRMf8.s 			page 22


1173:Generated_Source\PSoC5/cyPm.c ****     /* Switch to Hibernate Mode */
1174:Generated_Source\PSoC5/cyPm.c ****     CY_PM_MODE_CSR_REG = (CY_PM_MODE_CSR_REG & ((uint8) (~CY_PM_MODE_CSR_MASK))) | CY_PM_MODE_CSR_H
1175:Generated_Source\PSoC5/cyPm.c **** 
1176:Generated_Source\PSoC5/cyPm.c ****     /* Recommended readback. */
1177:Generated_Source\PSoC5/cyPm.c ****     (void) CY_PM_MODE_CSR_REG;
1178:Generated_Source\PSoC5/cyPm.c **** 
1179:Generated_Source\PSoC5/cyPm.c ****     /* Two recommended NOPs to get into mode. */
1180:Generated_Source\PSoC5/cyPm.c ****     CY_NOP;
1181:Generated_Source\PSoC5/cyPm.c ****     CY_NOP;
1182:Generated_Source\PSoC5/cyPm.c **** 
1183:Generated_Source\PSoC5/cyPm.c ****     /* Execute WFI instruction (for ARM-based devices only) */
1184:Generated_Source\PSoC5/cyPm.c ****     CY_PM_WFI;
1185:Generated_Source\PSoC5/cyPm.c **** 
1186:Generated_Source\PSoC5/cyPm.c **** 
1187:Generated_Source\PSoC5/cyPm.c ****     /* Point of return from Hibernate mode */
1188:Generated_Source\PSoC5/cyPm.c **** 
1189:Generated_Source\PSoC5/cyPm.c **** 
1190:Generated_Source\PSoC5/cyPm.c ****     /* Restore last moment IMO frequency change */
1191:Generated_Source\PSoC5/cyPm.c ****     if(CY_PM_ENABLED != cyPmBackup.imoActFreq12Mhz)
1192:Generated_Source\PSoC5/cyPm.c ****     {
1193:Generated_Source\PSoC5/cyPm.c ****         CY_PM_FASTCLK_IMO_CR_REG  = (CY_PM_FASTCLK_IMO_CR_REG & ((uint8)(~CY_PM_FASTCLK_IMO_CR_FREQ
1194:Generated_Source\PSoC5/cyPm.c ****                                     cyPmBackup.imoActFreq;
1195:Generated_Source\PSoC5/cyPm.c ****     }
1196:Generated_Source\PSoC5/cyPm.c **** 
1197:Generated_Source\PSoC5/cyPm.c **** 
1198:Generated_Source\PSoC5/cyPm.c ****     /* Restore device for proper Hibernate mode exit*/
1199:Generated_Source\PSoC5/cyPm.c ****     CyPmHibRestore();
1200:Generated_Source\PSoC5/cyPm.c **** 
1201:Generated_Source\PSoC5/cyPm.c ****     /* Restore current wake up configuration */
1202:Generated_Source\PSoC5/cyPm.c ****     CY_PM_WAKEUP_CFG0_REG = cyPmBackup.wakeupCfg0;
1203:Generated_Source\PSoC5/cyPm.c ****     CY_PM_WAKEUP_CFG1_REG = cyPmBackup.wakeupCfg1;
1204:Generated_Source\PSoC5/cyPm.c ****     CY_PM_WAKEUP_CFG2_REG = cyPmBackup.wakeupCfg2;
1205:Generated_Source\PSoC5/cyPm.c **** 
1206:Generated_Source\PSoC5/cyPm.c ****     /* Restore global interrupt enable state */
1207:Generated_Source\PSoC5/cyPm.c ****     CyExitCriticalSection(interruptState);
1208:Generated_Source\PSoC5/cyPm.c **** }
1209:Generated_Source\PSoC5/cyPm.c **** 
1210:Generated_Source\PSoC5/cyPm.c **** 
1211:Generated_Source\PSoC5/cyPm.c **** /*******************************************************************************
1212:Generated_Source\PSoC5/cyPm.c **** * Function Name: CyPmReadStatus
1213:Generated_Source\PSoC5/cyPm.c **** ********************************************************************************
1214:Generated_Source\PSoC5/cyPm.c **** *
1215:Generated_Source\PSoC5/cyPm.c **** * Summary:
1216:Generated_Source\PSoC5/cyPm.c **** *  Manages the Power Manager Interrupt Status Register.  This register has the
1217:Generated_Source\PSoC5/cyPm.c **** *  interrupt status for the one pulse per second, central timewheel and fast
1218:Generated_Source\PSoC5/cyPm.c **** *  timewheel timers.  This hardware register clears on read.  To allow for only
1219:Generated_Source\PSoC5/cyPm.c **** *  clearing the bits of interest and preserving the other bits, this function
1220:Generated_Source\PSoC5/cyPm.c **** *  uses a shadow register that retains the state.  This function reads the
1221:Generated_Source\PSoC5/cyPm.c **** *  status register and ORs that value with the shadow register.  That is the
1222:Generated_Source\PSoC5/cyPm.c **** *  value that is returned.  Then the bits in the mask that are set are cleared
1223:Generated_Source\PSoC5/cyPm.c **** *  from this value and written back to the shadow register.
1224:Generated_Source\PSoC5/cyPm.c **** *
1225:Generated_Source\PSoC5/cyPm.c **** *  Note You must call this function within 1 ms (1 clock cycle of the ILO)
1226:Generated_Source\PSoC5/cyPm.c **** *  after a CTW event has occurred.
1227:Generated_Source\PSoC5/cyPm.c **** *
1228:Generated_Source\PSoC5/cyPm.c **** * Parameters:
1229:Generated_Source\PSoC5/cyPm.c **** *  mask: Bits in the shadow register to clear.
ARM GAS  C:\Users\mgronber\AppData\Local\Temp\ccowRMf8.s 			page 23


1230:Generated_Source\PSoC5/cyPm.c **** *
1231:Generated_Source\PSoC5/cyPm.c **** *       Define                      Source
1232:Generated_Source\PSoC5/cyPm.c **** *  CY_PM_FTW_INT                Fast Timewheel
1233:Generated_Source\PSoC5/cyPm.c **** *  CY_PM_CTW_INT                Central Timewheel
1234:Generated_Source\PSoC5/cyPm.c **** *  CY_PM_ONEPPS_INT             One Pulse Per Second
1235:Generated_Source\PSoC5/cyPm.c **** *
1236:Generated_Source\PSoC5/cyPm.c **** * Return:
1237:Generated_Source\PSoC5/cyPm.c **** *  Status.  Same bits values as the mask parameter.
1238:Generated_Source\PSoC5/cyPm.c **** *
1239:Generated_Source\PSoC5/cyPm.c **** *******************************************************************************/
1240:Generated_Source\PSoC5/cyPm.c **** uint8 CyPmReadStatus(uint8 mask) 
1241:Generated_Source\PSoC5/cyPm.c **** {
1242:Generated_Source\PSoC5/cyPm.c ****     static uint8 interruptStatus;
1243:Generated_Source\PSoC5/cyPm.c ****     uint8 interruptState;
1244:Generated_Source\PSoC5/cyPm.c ****     uint8 tmpStatus;
1245:Generated_Source\PSoC5/cyPm.c **** 
1246:Generated_Source\PSoC5/cyPm.c ****     /* Enter critical section */
1247:Generated_Source\PSoC5/cyPm.c ****     interruptState = CyEnterCriticalSection();
1248:Generated_Source\PSoC5/cyPm.c **** 
1249:Generated_Source\PSoC5/cyPm.c ****     /* Save value of register, copy it and clear desired bit */
1250:Generated_Source\PSoC5/cyPm.c ****     interruptStatus |= CY_PM_INT_SR_REG;
1251:Generated_Source\PSoC5/cyPm.c ****     tmpStatus = interruptStatus;
1252:Generated_Source\PSoC5/cyPm.c ****     interruptStatus &= ((uint8)(~mask));
1253:Generated_Source\PSoC5/cyPm.c **** 
1254:Generated_Source\PSoC5/cyPm.c ****     /* Exit critical section */
1255:Generated_Source\PSoC5/cyPm.c ****     CyExitCriticalSection(interruptState);
1256:Generated_Source\PSoC5/cyPm.c **** 
1257:Generated_Source\PSoC5/cyPm.c ****     return(tmpStatus);
1258:Generated_Source\PSoC5/cyPm.c **** }
1259:Generated_Source\PSoC5/cyPm.c **** 
1260:Generated_Source\PSoC5/cyPm.c **** 
1261:Generated_Source\PSoC5/cyPm.c **** /*******************************************************************************
1262:Generated_Source\PSoC5/cyPm.c **** * Function Name: CyPmHibSaveSet
1263:Generated_Source\PSoC5/cyPm.c **** ********************************************************************************
1264:Generated_Source\PSoC5/cyPm.c **** *
1265:Generated_Source\PSoC5/cyPm.c **** * Summary:
1266:Generated_Source\PSoC5/cyPm.c **** *  Prepare device for proper Hibernate low power mode entry:
1267:Generated_Source\PSoC5/cyPm.c **** *  - Disables I2C backup regulator
1268:Generated_Source\PSoC5/cyPm.c **** *  - Saves ILO power down mode state and enable it
1269:Generated_Source\PSoC5/cyPm.c **** *  - Saves state of 1 kHz and 100 kHz ILO and disable them
1270:Generated_Source\PSoC5/cyPm.c **** *  - Disables sleep regulator and shorts vccd to vpwrsleep
1271:Generated_Source\PSoC5/cyPm.c **** *  - Save LVI/HVI configuration and disable them - CyPmHviLviSaveDisable()
1272:Generated_Source\PSoC5/cyPm.c **** *  - CyPmHibSlpSaveSet() function is called
1273:Generated_Source\PSoC5/cyPm.c **** *
1274:Generated_Source\PSoC5/cyPm.c **** * Parameters:
1275:Generated_Source\PSoC5/cyPm.c **** *  None
1276:Generated_Source\PSoC5/cyPm.c **** *
1277:Generated_Source\PSoC5/cyPm.c **** * Return:
1278:Generated_Source\PSoC5/cyPm.c **** *  None
1279:Generated_Source\PSoC5/cyPm.c **** *
1280:Generated_Source\PSoC5/cyPm.c **** * Reentrant:
1281:Generated_Source\PSoC5/cyPm.c **** *  No
1282:Generated_Source\PSoC5/cyPm.c **** *
1283:Generated_Source\PSoC5/cyPm.c **** *******************************************************************************/
1284:Generated_Source\PSoC5/cyPm.c **** static void CyPmHibSaveSet(void) 
1285:Generated_Source\PSoC5/cyPm.c **** {
1286:Generated_Source\PSoC5/cyPm.c ****     /* I2C backup reg must be off when the sleep regulator is unavailable */
ARM GAS  C:\Users\mgronber\AppData\Local\Temp\ccowRMf8.s 			page 24


1287:Generated_Source\PSoC5/cyPm.c ****     if(0u != (CY_PM_PWRSYS_CR1_REG & CY_PM_PWRSYS_CR1_I2CREG_BACKUP))
1288:Generated_Source\PSoC5/cyPm.c ****     {
1289:Generated_Source\PSoC5/cyPm.c ****         /***********************************************************************
1290:Generated_Source\PSoC5/cyPm.c ****         * If the I2C backup regulator is enabled, all the fixed-function registers
1291:Generated_Source\PSoC5/cyPm.c ****         * store their values while the device is in the low power mode, otherwise their
1292:Generated_Source\PSoC5/cyPm.c ****         * configuration is lost. The I2C API makes a decision to restore or not
1293:Generated_Source\PSoC5/cyPm.c ****         * to restore I2C registers based on this. If this regulator will be
1294:Generated_Source\PSoC5/cyPm.c ****         * disabled and then enabled, I2C API will suppose that the I2C block
1295:Generated_Source\PSoC5/cyPm.c ****         * registers preserved their values, while this is not true. So, the
1296:Generated_Source\PSoC5/cyPm.c ****         * backup regulator is disabled. The I2C sleep APIs is responsible for
1297:Generated_Source\PSoC5/cyPm.c ****         * restoration.
1298:Generated_Source\PSoC5/cyPm.c ****         ***********************************************************************/
1299:Generated_Source\PSoC5/cyPm.c **** 
1300:Generated_Source\PSoC5/cyPm.c ****         /* Disable I2C backup register */
1301:Generated_Source\PSoC5/cyPm.c ****         CY_PM_PWRSYS_CR1_REG &= ((uint8)(~CY_PM_PWRSYS_CR1_I2CREG_BACKUP));
1302:Generated_Source\PSoC5/cyPm.c ****     }
1303:Generated_Source\PSoC5/cyPm.c **** 
1304:Generated_Source\PSoC5/cyPm.c **** 
1305:Generated_Source\PSoC5/cyPm.c ****     /* Save current ILO power mode and ensure low power mode */
1306:Generated_Source\PSoC5/cyPm.c ****     cyPmBackup.iloPowerMode = CyILO_SetPowerMode(CY_PM_POWERDOWN_MODE);
1307:Generated_Source\PSoC5/cyPm.c **** 
1308:Generated_Source\PSoC5/cyPm.c ****     /* Save current 1kHz ILO enable state. Disabled automatically. */
1309:Generated_Source\PSoC5/cyPm.c ****     cyPmBackup.ilo1kEnable = (0u == (CY_PM_SLOWCLK_ILO_CR0_REG & CY_PM_ILO_CR0_EN_1K)) ?
1310:Generated_Source\PSoC5/cyPm.c ****                                 CY_PM_DISABLED : CY_PM_ENABLED;
1311:Generated_Source\PSoC5/cyPm.c **** 
1312:Generated_Source\PSoC5/cyPm.c ****     /* Save current 100kHz ILO enable state. Disabled automatically. */
1313:Generated_Source\PSoC5/cyPm.c ****     cyPmBackup.ilo100kEnable = (0u == (CY_PM_SLOWCLK_ILO_CR0_REG & CY_PM_ILO_CR0_EN_100K)) ?
1314:Generated_Source\PSoC5/cyPm.c ****                                 CY_PM_DISABLED : CY_PM_ENABLED;
1315:Generated_Source\PSoC5/cyPm.c **** 
1316:Generated_Source\PSoC5/cyPm.c **** 
1317:Generated_Source\PSoC5/cyPm.c ****     /* Disable the sleep regulator and shorts vccd to vpwrsleep */
1318:Generated_Source\PSoC5/cyPm.c ****     if(0u == (CY_PM_PWRSYS_SLP_TR_REG & CY_PM_PWRSYS_SLP_TR_BYPASS))
1319:Generated_Source\PSoC5/cyPm.c ****     {
1320:Generated_Source\PSoC5/cyPm.c ****         /* Save current bypass state */
1321:Generated_Source\PSoC5/cyPm.c ****         cyPmBackup.slpTrBypass = CY_PM_DISABLED;
1322:Generated_Source\PSoC5/cyPm.c ****         CY_PM_PWRSYS_SLP_TR_REG |= CY_PM_PWRSYS_SLP_TR_BYPASS;
1323:Generated_Source\PSoC5/cyPm.c ****     }
1324:Generated_Source\PSoC5/cyPm.c ****     else
1325:Generated_Source\PSoC5/cyPm.c ****     {
1326:Generated_Source\PSoC5/cyPm.c ****         cyPmBackup.slpTrBypass = CY_PM_ENABLED;
1327:Generated_Source\PSoC5/cyPm.c ****     }
1328:Generated_Source\PSoC5/cyPm.c **** 
1329:Generated_Source\PSoC5/cyPm.c ****     /* LPCOMPs are always enabled (even when BOTH ext_vccd=1 and ext_vcca=1)*/
1330:Generated_Source\PSoC5/cyPm.c **** 
1331:Generated_Source\PSoC5/cyPm.c **** 
1332:Generated_Source\PSoC5/cyPm.c ****     /***************************************************************************
1333:Generated_Source\PSoC5/cyPm.c ****     * LVI/HVI must be disabled in Hibernate
1334:Generated_Source\PSoC5/cyPm.c ****     ***************************************************************************/
1335:Generated_Source\PSoC5/cyPm.c **** 
1336:Generated_Source\PSoC5/cyPm.c ****     /* Save LVI/HVI configuration and disable them */
1337:Generated_Source\PSoC5/cyPm.c ****     CyPmHviLviSaveDisable();
1338:Generated_Source\PSoC5/cyPm.c **** 
1339:Generated_Source\PSoC5/cyPm.c **** 
1340:Generated_Source\PSoC5/cyPm.c ****     /* Make the same preparations for Hibernate and Sleep modes */
1341:Generated_Source\PSoC5/cyPm.c ****     CyPmHibSlpSaveSet();
1342:Generated_Source\PSoC5/cyPm.c **** 
1343:Generated_Source\PSoC5/cyPm.c **** 
ARM GAS  C:\Users\mgronber\AppData\Local\Temp\ccowRMf8.s 			page 25


1344:Generated_Source\PSoC5/cyPm.c ****     /***************************************************************************
1345:Generated_Source\PSoC5/cyPm.c ****     * Save and set the power mode wakeup trim registers
1346:Generated_Source\PSoC5/cyPm.c ****     ***************************************************************************/
1347:Generated_Source\PSoC5/cyPm.c ****     cyPmBackup.wakeupTrim0 = CY_PM_PWRSYS_WAKE_TR0_REG;
1348:Generated_Source\PSoC5/cyPm.c ****     cyPmBackup.wakeupTrim1 = CY_PM_PWRSYS_WAKE_TR1_REG;
1349:Generated_Source\PSoC5/cyPm.c **** 
1350:Generated_Source\PSoC5/cyPm.c ****     CY_PM_PWRSYS_WAKE_TR0_REG = CY_PM_PWRSYS_WAKE_TR0;
1351:Generated_Source\PSoC5/cyPm.c ****     CY_PM_PWRSYS_WAKE_TR1_REG = CY_PM_PWRSYS_WAKE_TR1;
1352:Generated_Source\PSoC5/cyPm.c **** }
1353:Generated_Source\PSoC5/cyPm.c **** 
1354:Generated_Source\PSoC5/cyPm.c **** 
1355:Generated_Source\PSoC5/cyPm.c **** /*******************************************************************************
1356:Generated_Source\PSoC5/cyPm.c **** * Function Name: CyPmHibRestore
1357:Generated_Source\PSoC5/cyPm.c **** ********************************************************************************
1358:Generated_Source\PSoC5/cyPm.c **** *
1359:Generated_Source\PSoC5/cyPm.c **** * Summary:
1360:Generated_Source\PSoC5/cyPm.c **** *  Restores the device for the proper Hibernate mode exit:
1361:Generated_Source\PSoC5/cyPm.c **** *  - Restores LVI/HVI configuration - calsl CyPmHviLviRestore()
1362:Generated_Source\PSoC5/cyPm.c **** *  - CyPmHibSlpSaveRestore() function is called
1363:Generated_Source\PSoC5/cyPm.c **** *  - Restores ILO power down mode state and enables it
1364:Generated_Source\PSoC5/cyPm.c **** *  - Restores the state of 1 kHz and 100 kHz ILO and disables them
1365:Generated_Source\PSoC5/cyPm.c **** *  - Restores the sleep regulator settings
1366:Generated_Source\PSoC5/cyPm.c **** *
1367:Generated_Source\PSoC5/cyPm.c **** * Parameters:
1368:Generated_Source\PSoC5/cyPm.c **** *  None
1369:Generated_Source\PSoC5/cyPm.c **** *
1370:Generated_Source\PSoC5/cyPm.c **** * Return:
1371:Generated_Source\PSoC5/cyPm.c **** *  None
1372:Generated_Source\PSoC5/cyPm.c **** *
1373:Generated_Source\PSoC5/cyPm.c **** *******************************************************************************/
1374:Generated_Source\PSoC5/cyPm.c **** static void CyPmHibRestore(void) 
1375:Generated_Source\PSoC5/cyPm.c **** {
1376:Generated_Source\PSoC5/cyPm.c ****     /* Restore LVI/HVI configuration */
1377:Generated_Source\PSoC5/cyPm.c ****     CyPmHviLviRestore();
1378:Generated_Source\PSoC5/cyPm.c **** 
1379:Generated_Source\PSoC5/cyPm.c ****     /* Restore the same configuration for Hibernate and Sleep modes */
1380:Generated_Source\PSoC5/cyPm.c ****     CyPmHibSlpRestore();
1381:Generated_Source\PSoC5/cyPm.c **** 
1382:Generated_Source\PSoC5/cyPm.c ****     /* Restore 1kHz ILO enable state */
1383:Generated_Source\PSoC5/cyPm.c ****     if(CY_PM_ENABLED == cyPmBackup.ilo1kEnable)
1384:Generated_Source\PSoC5/cyPm.c ****     {
1385:Generated_Source\PSoC5/cyPm.c ****         /* Enable 1kHz ILO */
1386:Generated_Source\PSoC5/cyPm.c ****         CyILO_Start1K();
1387:Generated_Source\PSoC5/cyPm.c ****     }
1388:Generated_Source\PSoC5/cyPm.c **** 
1389:Generated_Source\PSoC5/cyPm.c ****     /* Restore 100kHz ILO enable state */
1390:Generated_Source\PSoC5/cyPm.c ****     if(CY_PM_ENABLED == cyPmBackup.ilo100kEnable)
1391:Generated_Source\PSoC5/cyPm.c ****     {
1392:Generated_Source\PSoC5/cyPm.c ****         /* Enable 100kHz ILO */
1393:Generated_Source\PSoC5/cyPm.c ****         CyILO_Start100K();
1394:Generated_Source\PSoC5/cyPm.c ****     }
1395:Generated_Source\PSoC5/cyPm.c **** 
1396:Generated_Source\PSoC5/cyPm.c ****     /* Restore ILO power mode */
1397:Generated_Source\PSoC5/cyPm.c ****     (void) CyILO_SetPowerMode(cyPmBackup.iloPowerMode);
1398:Generated_Source\PSoC5/cyPm.c **** 
1399:Generated_Source\PSoC5/cyPm.c **** 
1400:Generated_Source\PSoC5/cyPm.c ****     if(CY_PM_DISABLED == cyPmBackup.slpTrBypass)
ARM GAS  C:\Users\mgronber\AppData\Local\Temp\ccowRMf8.s 			page 26


1401:Generated_Source\PSoC5/cyPm.c ****     {
1402:Generated_Source\PSoC5/cyPm.c ****         /* Enable the sleep regulator */
1403:Generated_Source\PSoC5/cyPm.c ****         CY_PM_PWRSYS_SLP_TR_REG &= ((uint8)(~CY_PM_PWRSYS_SLP_TR_BYPASS));
1404:Generated_Source\PSoC5/cyPm.c ****     }
1405:Generated_Source\PSoC5/cyPm.c **** 
1406:Generated_Source\PSoC5/cyPm.c **** 
1407:Generated_Source\PSoC5/cyPm.c ****     /***************************************************************************
1408:Generated_Source\PSoC5/cyPm.c ****     * Restore the power mode wakeup trim registers
1409:Generated_Source\PSoC5/cyPm.c ****     ***************************************************************************/
1410:Generated_Source\PSoC5/cyPm.c ****     CY_PM_PWRSYS_WAKE_TR0_REG = cyPmBackup.wakeupTrim0;
1411:Generated_Source\PSoC5/cyPm.c ****     CY_PM_PWRSYS_WAKE_TR1_REG = cyPmBackup.wakeupTrim1;
1412:Generated_Source\PSoC5/cyPm.c **** }
1413:Generated_Source\PSoC5/cyPm.c **** 
1414:Generated_Source\PSoC5/cyPm.c **** 
1415:Generated_Source\PSoC5/cyPm.c **** /*******************************************************************************
1416:Generated_Source\PSoC5/cyPm.c **** * Function Name: CyPmCtwSetInterval
1417:Generated_Source\PSoC5/cyPm.c **** ********************************************************************************
1418:Generated_Source\PSoC5/cyPm.c **** *
1419:Generated_Source\PSoC5/cyPm.c **** * Summary:
1420:Generated_Source\PSoC5/cyPm.c **** *  Performs the CTW configuration:
1421:Generated_Source\PSoC5/cyPm.c **** *  - Disables the CTW interrupt
1422:Generated_Source\PSoC5/cyPm.c **** *  - Enables 1 kHz ILO
1423:Generated_Source\PSoC5/cyPm.c **** *  - Sets a new CTW interval
1424:Generated_Source\PSoC5/cyPm.c **** *
1425:Generated_Source\PSoC5/cyPm.c **** * Parameters:
1426:Generated_Source\PSoC5/cyPm.c **** *  ctwInterval: the CTW interval to be set.
1427:Generated_Source\PSoC5/cyPm.c **** *
1428:Generated_Source\PSoC5/cyPm.c **** * Return:
1429:Generated_Source\PSoC5/cyPm.c **** *  None
1430:Generated_Source\PSoC5/cyPm.c **** *
1431:Generated_Source\PSoC5/cyPm.c **** * Side Effects:
1432:Generated_Source\PSoC5/cyPm.c **** *  Enables ILO 1 KHz clock and leaves it enabled.
1433:Generated_Source\PSoC5/cyPm.c **** *
1434:Generated_Source\PSoC5/cyPm.c **** *******************************************************************************/
1435:Generated_Source\PSoC5/cyPm.c **** void CyPmCtwSetInterval(uint8 ctwInterval) 
1436:Generated_Source\PSoC5/cyPm.c **** {
1437:Generated_Source\PSoC5/cyPm.c ****     /* Disable CTW interrupt enable */
1438:Generated_Source\PSoC5/cyPm.c ****     CY_PM_TW_CFG2_REG &= ((uint8)(~CY_PM_CTW_IE));
1439:Generated_Source\PSoC5/cyPm.c **** 
1440:Generated_Source\PSoC5/cyPm.c ****     /* Enable 1kHz ILO (required for CTW operation) */
1441:Generated_Source\PSoC5/cyPm.c ****     CyILO_Start1K();
1442:Generated_Source\PSoC5/cyPm.c **** 
1443:Generated_Source\PSoC5/cyPm.c ****     /* Interval could be set only while CTW is disabled */
1444:Generated_Source\PSoC5/cyPm.c ****     if(0u != (CY_PM_TW_CFG2_REG & CY_PM_CTW_EN))
1445:Generated_Source\PSoC5/cyPm.c ****     {
1446:Generated_Source\PSoC5/cyPm.c ****         /* Set CTW interval if needed */
1447:Generated_Source\PSoC5/cyPm.c ****         if(CY_PM_TW_CFG1_REG != ctwInterval)
1448:Generated_Source\PSoC5/cyPm.c ****         {
1449:Generated_Source\PSoC5/cyPm.c ****             /* Disable the CTW, set new CTW interval and enable it again */
1450:Generated_Source\PSoC5/cyPm.c ****             CY_PM_TW_CFG2_REG &= ((uint8)(~CY_PM_CTW_EN));
1451:Generated_Source\PSoC5/cyPm.c ****             CY_PM_TW_CFG1_REG = ctwInterval;
1452:Generated_Source\PSoC5/cyPm.c ****             CY_PM_TW_CFG2_REG |= CY_PM_CTW_EN;
1453:Generated_Source\PSoC5/cyPm.c ****         }   /* Required interval is already set */
1454:Generated_Source\PSoC5/cyPm.c ****     }
1455:Generated_Source\PSoC5/cyPm.c ****     else
1456:Generated_Source\PSoC5/cyPm.c ****     {
1457:Generated_Source\PSoC5/cyPm.c ****         /* Set CTW interval if needed */
ARM GAS  C:\Users\mgronber\AppData\Local\Temp\ccowRMf8.s 			page 27


1458:Generated_Source\PSoC5/cyPm.c ****         if(CY_PM_TW_CFG1_REG != ctwInterval)
1459:Generated_Source\PSoC5/cyPm.c ****         {
1460:Generated_Source\PSoC5/cyPm.c ****             /* Set new CTW interval. Could be changed if CTW is disabled */
1461:Generated_Source\PSoC5/cyPm.c ****             CY_PM_TW_CFG1_REG = ctwInterval;
1462:Generated_Source\PSoC5/cyPm.c ****         }   /* Required interval is already set */
1463:Generated_Source\PSoC5/cyPm.c **** 
1464:Generated_Source\PSoC5/cyPm.c ****         /* Enable CTW */
1465:Generated_Source\PSoC5/cyPm.c ****         CY_PM_TW_CFG2_REG |= CY_PM_CTW_EN;
1466:Generated_Source\PSoC5/cyPm.c ****     }
1467:Generated_Source\PSoC5/cyPm.c **** }
1468:Generated_Source\PSoC5/cyPm.c **** 
1469:Generated_Source\PSoC5/cyPm.c **** 
1470:Generated_Source\PSoC5/cyPm.c **** /*******************************************************************************
1471:Generated_Source\PSoC5/cyPm.c **** * Function Name: CyPmOppsSet
1472:Generated_Source\PSoC5/cyPm.c **** ********************************************************************************
1473:Generated_Source\PSoC5/cyPm.c **** *
1474:Generated_Source\PSoC5/cyPm.c **** * Summary:
1475:Generated_Source\PSoC5/cyPm.c **** *  Performs 1PPS configuration:
1476:Generated_Source\PSoC5/cyPm.c **** *  - Starts 32 KHz XTAL
1477:Generated_Source\PSoC5/cyPm.c **** *  - Disables 1PPS interrupts
1478:Generated_Source\PSoC5/cyPm.c **** *  - Enables 1PPS
1479:Generated_Source\PSoC5/cyPm.c **** *
1480:Generated_Source\PSoC5/cyPm.c **** * Parameters:
1481:Generated_Source\PSoC5/cyPm.c **** *  None
1482:Generated_Source\PSoC5/cyPm.c **** *
1483:Generated_Source\PSoC5/cyPm.c **** * Return:
1484:Generated_Source\PSoC5/cyPm.c **** *  None
1485:Generated_Source\PSoC5/cyPm.c **** *
1486:Generated_Source\PSoC5/cyPm.c **** *******************************************************************************/
1487:Generated_Source\PSoC5/cyPm.c **** void CyPmOppsSet(void) 
1488:Generated_Source\PSoC5/cyPm.c **** {
1489:Generated_Source\PSoC5/cyPm.c ****     /* Enable 32kHz XTAL if needed */
1490:Generated_Source\PSoC5/cyPm.c ****     if(0u == (CY_PM_SLOWCLK_X32_CR_REG & CY_PM_X32_CR_X32EN))
1491:Generated_Source\PSoC5/cyPm.c ****     {
1492:Generated_Source\PSoC5/cyPm.c ****         /* Enable 32kHz XTAL */
1493:Generated_Source\PSoC5/cyPm.c ****         CyXTAL_32KHZ_Start();
1494:Generated_Source\PSoC5/cyPm.c ****     }
1495:Generated_Source\PSoC5/cyPm.c **** 
1496:Generated_Source\PSoC5/cyPm.c ****     /* Disable 1PPS interrupt enable */
1497:Generated_Source\PSoC5/cyPm.c ****     CY_PM_TW_CFG2_REG &= ((uint8)(~CY_PM_1PPS_IE));
1498:Generated_Source\PSoC5/cyPm.c **** 
1499:Generated_Source\PSoC5/cyPm.c ****     /* Enable 1PPS operation */
1500:Generated_Source\PSoC5/cyPm.c ****     CY_PM_TW_CFG2_REG |= CY_PM_1PPS_EN;
1501:Generated_Source\PSoC5/cyPm.c **** }
1502:Generated_Source\PSoC5/cyPm.c **** 
1503:Generated_Source\PSoC5/cyPm.c **** 
1504:Generated_Source\PSoC5/cyPm.c **** /*******************************************************************************
1505:Generated_Source\PSoC5/cyPm.c **** * Function Name: CyPmFtwSetInterval
1506:Generated_Source\PSoC5/cyPm.c **** ********************************************************************************
1507:Generated_Source\PSoC5/cyPm.c **** *
1508:Generated_Source\PSoC5/cyPm.c **** * Summary:
1509:Generated_Source\PSoC5/cyPm.c **** *  Performs the FTW configuration:
1510:Generated_Source\PSoC5/cyPm.c **** *  - Disables the FTW interrupt
1511:Generated_Source\PSoC5/cyPm.c **** *  - Enables 100 kHz ILO
1512:Generated_Source\PSoC5/cyPm.c **** *  - Sets a new FTW interval.
1513:Generated_Source\PSoC5/cyPm.c **** *
1514:Generated_Source\PSoC5/cyPm.c **** * Parameters:
ARM GAS  C:\Users\mgronber\AppData\Local\Temp\ccowRMf8.s 			page 28


1515:Generated_Source\PSoC5/cyPm.c **** *  ftwInterval - FTW counter interval.
1516:Generated_Source\PSoC5/cyPm.c **** *
1517:Generated_Source\PSoC5/cyPm.c **** * Return:
1518:Generated_Source\PSoC5/cyPm.c **** *  None
1519:Generated_Source\PSoC5/cyPm.c **** *
1520:Generated_Source\PSoC5/cyPm.c **** * Side Effects:
1521:Generated_Source\PSoC5/cyPm.c **** *  Enables the ILO 100 KHz clock and leaves it enabled.
1522:Generated_Source\PSoC5/cyPm.c **** *
1523:Generated_Source\PSoC5/cyPm.c **** *******************************************************************************/
1524:Generated_Source\PSoC5/cyPm.c **** void CyPmFtwSetInterval(uint8 ftwInterval) 
1525:Generated_Source\PSoC5/cyPm.c **** {
1526:Generated_Source\PSoC5/cyPm.c ****     /* Disable FTW interrupt enable */
1527:Generated_Source\PSoC5/cyPm.c ****     CY_PM_TW_CFG2_REG &= ((uint8)(~CY_PM_FTW_IE));
1528:Generated_Source\PSoC5/cyPm.c **** 
1529:Generated_Source\PSoC5/cyPm.c ****     /* Enable 100kHz ILO */
1530:Generated_Source\PSoC5/cyPm.c ****     CyILO_Start100K();
1531:Generated_Source\PSoC5/cyPm.c **** 
1532:Generated_Source\PSoC5/cyPm.c ****     /* Interval could be set only while FTW is disabled */
1533:Generated_Source\PSoC5/cyPm.c ****     if(0u != (CY_PM_TW_CFG2_REG & CY_PM_FTW_EN))
1534:Generated_Source\PSoC5/cyPm.c ****     {
1535:Generated_Source\PSoC5/cyPm.c ****         /* Disable FTW, set new FTW interval if needed and enable it again */
1536:Generated_Source\PSoC5/cyPm.c ****         if(CY_PM_TW_CFG0_REG != ftwInterval)
1537:Generated_Source\PSoC5/cyPm.c ****         {
1538:Generated_Source\PSoC5/cyPm.c ****             /* Disable CTW, set new CTW interval and enable it again */
1539:Generated_Source\PSoC5/cyPm.c ****             CY_PM_TW_CFG2_REG &= ((uint8)(~CY_PM_FTW_EN));
1540:Generated_Source\PSoC5/cyPm.c ****             CY_PM_TW_CFG0_REG = ftwInterval;
1541:Generated_Source\PSoC5/cyPm.c ****             CY_PM_TW_CFG2_REG |= CY_PM_FTW_EN;
1542:Generated_Source\PSoC5/cyPm.c ****         }   /* Required interval is already set */
1543:Generated_Source\PSoC5/cyPm.c ****     }
1544:Generated_Source\PSoC5/cyPm.c ****     else
1545:Generated_Source\PSoC5/cyPm.c ****     {
1546:Generated_Source\PSoC5/cyPm.c ****         /* Set new FTW counter interval if needed. FTW is disabled. */
1547:Generated_Source\PSoC5/cyPm.c ****         if(CY_PM_TW_CFG0_REG != ftwInterval)
1548:Generated_Source\PSoC5/cyPm.c ****         {
1549:Generated_Source\PSoC5/cyPm.c ****             /* Set new CTW interval. Could be changed if CTW is disabled */
1550:Generated_Source\PSoC5/cyPm.c ****             CY_PM_TW_CFG0_REG = ftwInterval;
1551:Generated_Source\PSoC5/cyPm.c ****         }   /* Required interval is already set */
1552:Generated_Source\PSoC5/cyPm.c **** 
1553:Generated_Source\PSoC5/cyPm.c ****         /* Enable FTW */
1554:Generated_Source\PSoC5/cyPm.c ****         CY_PM_TW_CFG2_REG |= CY_PM_FTW_EN;
1555:Generated_Source\PSoC5/cyPm.c ****     }
1556:Generated_Source\PSoC5/cyPm.c **** }
1557:Generated_Source\PSoC5/cyPm.c **** 
1558:Generated_Source\PSoC5/cyPm.c **** 
1559:Generated_Source\PSoC5/cyPm.c **** /*******************************************************************************
1560:Generated_Source\PSoC5/cyPm.c **** * Function Name: CyPmHibSlpSaveSet
1561:Generated_Source\PSoC5/cyPm.c **** ********************************************************************************
1562:Generated_Source\PSoC5/cyPm.c **** *
1563:Generated_Source\PSoC5/cyPm.c **** * Summary:
1564:Generated_Source\PSoC5/cyPm.c **** *  This API is used for preparing the device for the Sleep and Hibernate low power
1565:Generated_Source\PSoC5/cyPm.c **** *  modes entry:
1566:Generated_Source\PSoC5/cyPm.c **** *  - Saves the COMP, VIDAC, DSM, and SAR routing connections (PSoC 5)
1567:Generated_Source\PSoC5/cyPm.c **** *  - Saves the SC/CT routing connections (PSoC 3/5/5LP)
1568:Generated_Source\PSoC5/cyPm.c **** *  - Disables the Serial Wire Viewer (SWV) (PSoC 3)
1569:Generated_Source\PSoC5/cyPm.c **** *  - Saves the boost reference selection and sets it to internal
1570:Generated_Source\PSoC5/cyPm.c **** *
1571:Generated_Source\PSoC5/cyPm.c **** * Parameters:
ARM GAS  C:\Users\mgronber\AppData\Local\Temp\ccowRMf8.s 			page 29


1572:Generated_Source\PSoC5/cyPm.c **** *  None
1573:Generated_Source\PSoC5/cyPm.c **** *
1574:Generated_Source\PSoC5/cyPm.c **** * Return:
1575:Generated_Source\PSoC5/cyPm.c **** *  None
1576:Generated_Source\PSoC5/cyPm.c **** *
1577:Generated_Source\PSoC5/cyPm.c **** * Reentrant:
1578:Generated_Source\PSoC5/cyPm.c **** *  No
1579:Generated_Source\PSoC5/cyPm.c **** *
1580:Generated_Source\PSoC5/cyPm.c **** *******************************************************************************/
1581:Generated_Source\PSoC5/cyPm.c **** static void CyPmHibSlpSaveSet(void) 
1582:Generated_Source\PSoC5/cyPm.c **** {
  26              		.loc 1 1582 0
  27              		.cfi_startproc
  28              		@ args = 0, pretend = 0, frame = 0
  29              		@ frame_needed = 0, uses_anonymous_args = 0
  30 0000 2DE9F04F 		push	{r4, r5, r6, r7, r8, r9, r10, fp, lr}
  31              		.cfi_def_cfa_offset 36
  32              		.cfi_offset 4, -36
  33              		.cfi_offset 5, -32
  34              		.cfi_offset 6, -28
  35              		.cfi_offset 7, -24
  36              		.cfi_offset 8, -20
  37              		.cfi_offset 9, -16
  38              		.cfi_offset 10, -12
  39              		.cfi_offset 11, -8
  40              		.cfi_offset 14, -4
1583:Generated_Source\PSoC5/cyPm.c ****     /* Save SC/CT routing registers */
1584:Generated_Source\PSoC5/cyPm.c ****     cyPmBackup.scctData[0u]   = CY_GET_REG8(CYREG_SC0_SW0 );
  41              		.loc 1 1584 0
  42 0004 DFF8A8A1 		ldr	r10, .L7+76
1585:Generated_Source\PSoC5/cyPm.c ****     cyPmBackup.scctData[1u]   = CY_GET_REG8(CYREG_SC0_SW2 );
1586:Generated_Source\PSoC5/cyPm.c ****     cyPmBackup.scctData[2u]   = CY_GET_REG8(CYREG_SC0_SW3 );
1587:Generated_Source\PSoC5/cyPm.c ****     cyPmBackup.scctData[3u]   = CY_GET_REG8(CYREG_SC0_SW4 );
1588:Generated_Source\PSoC5/cyPm.c ****     cyPmBackup.scctData[4u]   = CY_GET_REG8(CYREG_SC0_SW6 );
  43              		.loc 1 1588 0
  44 0008 5648     		ldr	r0, .L7
1585:Generated_Source\PSoC5/cyPm.c ****     cyPmBackup.scctData[1u]   = CY_GET_REG8(CYREG_SC0_SW2 );
  45              		.loc 1 1585 0
  46 000a DFF8A891 		ldr	r9, .L7+80
1586:Generated_Source\PSoC5/cyPm.c ****     cyPmBackup.scctData[3u]   = CY_GET_REG8(CYREG_SC0_SW4 );
  47              		.loc 1 1586 0
  48 000e DFF8A881 		ldr	r8, .L7+84
1587:Generated_Source\PSoC5/cyPm.c ****     cyPmBackup.scctData[4u]   = CY_GET_REG8(CYREG_SC0_SW6 );
  49              		.loc 1 1587 0
  50 0012 DFF8A8C1 		ldr	ip, .L7+88
1584:Generated_Source\PSoC5/cyPm.c ****     cyPmBackup.scctData[1u]   = CY_GET_REG8(CYREG_SC0_SW2 );
  51              		.loc 1 1584 0
  52 0016 9AF80010 		ldrb	r1, [r10]	@ zero_extendqisi2
  53 001a 534B     		ldr	r3, .L7+4
1585:Generated_Source\PSoC5/cyPm.c ****     cyPmBackup.scctData[2u]   = CY_GET_REG8(CYREG_SC0_SW3 );
  54              		.loc 1 1585 0
  55 001c 99F800B0 		ldrb	fp, [r9]	@ zero_extendqisi2
1589:Generated_Source\PSoC5/cyPm.c ****     cyPmBackup.scctData[5u]   = CY_GET_REG8(CYREG_SC0_SW8 );
1590:Generated_Source\PSoC5/cyPm.c ****     cyPmBackup.scctData[6u]   = CY_GET_REG8(CYREG_SC0_SW10);
  56              		.loc 1 1590 0
  57 0020 0430     		adds	r0, r0, #4
1586:Generated_Source\PSoC5/cyPm.c ****     cyPmBackup.scctData[3u]   = CY_GET_REG8(CYREG_SC0_SW4 );
ARM GAS  C:\Users\mgronber\AppData\Local\Temp\ccowRMf8.s 			page 30


  58              		.loc 1 1586 0
  59 0022 98F80020 		ldrb	r2, [r8]	@ zero_extendqisi2
1587:Generated_Source\PSoC5/cyPm.c ****     cyPmBackup.scctData[4u]   = CY_GET_REG8(CYREG_SC0_SW6 );
  60              		.loc 1 1587 0
  61 0026 9CF80060 		ldrb	r6, [ip]	@ zero_extendqisi2
1588:Generated_Source\PSoC5/cyPm.c ****     cyPmBackup.scctData[5u]   = CY_GET_REG8(CYREG_SC0_SW8 );
  62              		.loc 1 1588 0
  63 002a 10F8045C 		ldrb	r5, [r0, #-4]	@ zero_extendqisi2
1589:Generated_Source\PSoC5/cyPm.c ****     cyPmBackup.scctData[6u]   = CY_GET_REG8(CYREG_SC0_SW10);
  64              		.loc 1 1589 0
  65 002e 10F8024C 		ldrb	r4, [r0, #-2]	@ zero_extendqisi2
  66              		.loc 1 1590 0
  67 0032 0078     		ldrb	r0, [r0]	@ zero_extendqisi2
1584:Generated_Source\PSoC5/cyPm.c ****     cyPmBackup.scctData[1u]   = CY_GET_REG8(CYREG_SC0_SW2 );
  68              		.loc 1 1584 0
  69 0034 5972     		strb	r1, [r3, #9]
1591:Generated_Source\PSoC5/cyPm.c **** 
1592:Generated_Source\PSoC5/cyPm.c ****     cyPmBackup.scctData[7u]   = CY_GET_REG8(CYREG_SC1_SW0 );
  70              		.loc 1 1592 0
  71 0036 4D49     		ldr	r1, .L7+8
1593:Generated_Source\PSoC5/cyPm.c ****     cyPmBackup.scctData[8u]   = CY_GET_REG8(CYREG_SC1_SW2 );
  72              		.loc 1 1593 0
  73 0038 4D4F     		ldr	r7, .L7+12
1592:Generated_Source\PSoC5/cyPm.c ****     cyPmBackup.scctData[8u]   = CY_GET_REG8(CYREG_SC1_SW2 );
  74              		.loc 1 1592 0
  75 003a 0978     		ldrb	r1, [r1]	@ zero_extendqisi2
1585:Generated_Source\PSoC5/cyPm.c ****     cyPmBackup.scctData[2u]   = CY_GET_REG8(CYREG_SC0_SW3 );
  76              		.loc 1 1585 0
  77 003c 83F80AB0 		strb	fp, [r3, #10]
  78              		.loc 1 1593 0
  79 0040 97F800B0 		ldrb	fp, [r7]	@ zero_extendqisi2
1586:Generated_Source\PSoC5/cyPm.c ****     cyPmBackup.scctData[3u]   = CY_GET_REG8(CYREG_SC0_SW4 );
  80              		.loc 1 1586 0
  81 0044 DA72     		strb	r2, [r3, #11]
1594:Generated_Source\PSoC5/cyPm.c ****     cyPmBackup.scctData[9u]   = CY_GET_REG8(CYREG_SC1_SW3 );
  82              		.loc 1 1594 0
  83 0046 4B4A     		ldr	r2, .L7+16
1595:Generated_Source\PSoC5/cyPm.c ****     cyPmBackup.scctData[10u]  = CY_GET_REG8(CYREG_SC1_SW4 );
1596:Generated_Source\PSoC5/cyPm.c ****     cyPmBackup.scctData[11u]  = CY_GET_REG8(CYREG_SC1_SW6 );
1597:Generated_Source\PSoC5/cyPm.c ****     cyPmBackup.scctData[12u]  = CY_GET_REG8(CYREG_SC1_SW8 );
1598:Generated_Source\PSoC5/cyPm.c ****     cyPmBackup.scctData[13u]  = CY_GET_REG8(CYREG_SC1_SW10);
1599:Generated_Source\PSoC5/cyPm.c **** 
1600:Generated_Source\PSoC5/cyPm.c ****     cyPmBackup.scctData[14u]  = CY_GET_REG8(CYREG_SC2_SW0 );
1601:Generated_Source\PSoC5/cyPm.c ****     cyPmBackup.scctData[15u]  = CY_GET_REG8(CYREG_SC2_SW2 );
1602:Generated_Source\PSoC5/cyPm.c ****     cyPmBackup.scctData[16u]  = CY_GET_REG8(CYREG_SC2_SW3 );
1603:Generated_Source\PSoC5/cyPm.c ****     cyPmBackup.scctData[17u]  = CY_GET_REG8(CYREG_SC2_SW4 );
1604:Generated_Source\PSoC5/cyPm.c ****     cyPmBackup.scctData[18u]  = CY_GET_REG8(CYREG_SC2_SW6 );
1605:Generated_Source\PSoC5/cyPm.c ****     cyPmBackup.scctData[19u]  = CY_GET_REG8(CYREG_SC2_SW8 );
1606:Generated_Source\PSoC5/cyPm.c ****     cyPmBackup.scctData[20u]  = CY_GET_REG8(CYREG_SC2_SW10);
1607:Generated_Source\PSoC5/cyPm.c **** 
1608:Generated_Source\PSoC5/cyPm.c ****     cyPmBackup.scctData[21u]  = CY_GET_REG8(CYREG_SC3_SW0 );
  84              		.loc 1 1608 0
  85 0048 DFF874E1 		ldr	lr, .L7+92
1594:Generated_Source\PSoC5/cyPm.c ****     cyPmBackup.scctData[9u]   = CY_GET_REG8(CYREG_SC1_SW3 );
  86              		.loc 1 1594 0
  87 004c 1278     		ldrb	r2, [r2]	@ zero_extendqisi2
1587:Generated_Source\PSoC5/cyPm.c ****     cyPmBackup.scctData[4u]   = CY_GET_REG8(CYREG_SC0_SW6 );
ARM GAS  C:\Users\mgronber\AppData\Local\Temp\ccowRMf8.s 			page 31


  88              		.loc 1 1587 0
  89 004e 1E73     		strb	r6, [r3, #12]
1595:Generated_Source\PSoC5/cyPm.c ****     cyPmBackup.scctData[10u]  = CY_GET_REG8(CYREG_SC1_SW4 );
  90              		.loc 1 1595 0
  91 0050 494E     		ldr	r6, .L7+20
1609:Generated_Source\PSoC5/cyPm.c ****     cyPmBackup.scctData[22u]  = CY_GET_REG8(CYREG_SC3_SW2 );
1610:Generated_Source\PSoC5/cyPm.c ****     cyPmBackup.scctData[23u]  = CY_GET_REG8(CYREG_SC3_SW3 );
1611:Generated_Source\PSoC5/cyPm.c ****     cyPmBackup.scctData[24u]  = CY_GET_REG8(CYREG_SC3_SW4 );
1612:Generated_Source\PSoC5/cyPm.c ****     cyPmBackup.scctData[25u]  = CY_GET_REG8(CYREG_SC3_SW6 );
1613:Generated_Source\PSoC5/cyPm.c ****     cyPmBackup.scctData[26u]  = CY_GET_REG8(CYREG_SC3_SW8 );
1614:Generated_Source\PSoC5/cyPm.c ****     cyPmBackup.scctData[27u]  = CY_GET_REG8(CYREG_SC3_SW10);
1615:Generated_Source\PSoC5/cyPm.c **** 
1616:Generated_Source\PSoC5/cyPm.c ****     CY_SET_REG8(CYREG_SC0_SW0 , 0u);
1617:Generated_Source\PSoC5/cyPm.c ****     CY_SET_REG8(CYREG_SC0_SW2 , 0u);
1618:Generated_Source\PSoC5/cyPm.c ****     CY_SET_REG8(CYREG_SC0_SW3 , 0u);
1619:Generated_Source\PSoC5/cyPm.c ****     CY_SET_REG8(CYREG_SC0_SW4 , 0u);
1620:Generated_Source\PSoC5/cyPm.c ****     CY_SET_REG8(CYREG_SC0_SW6 , 0u);
1621:Generated_Source\PSoC5/cyPm.c ****     CY_SET_REG8(CYREG_SC0_SW8 , 0u);
1622:Generated_Source\PSoC5/cyPm.c ****     CY_SET_REG8(CYREG_SC0_SW10, 0u);
  92              		.loc 1 1622 0
  93 0052 083F     		subs	r7, r7, #8
1595:Generated_Source\PSoC5/cyPm.c ****     cyPmBackup.scctData[11u]  = CY_GET_REG8(CYREG_SC1_SW6 );
  94              		.loc 1 1595 0
  95 0054 3678     		ldrb	r6, [r6]	@ zero_extendqisi2
1588:Generated_Source\PSoC5/cyPm.c ****     cyPmBackup.scctData[5u]   = CY_GET_REG8(CYREG_SC0_SW8 );
  96              		.loc 1 1588 0
  97 0056 5D73     		strb	r5, [r3, #13]
1596:Generated_Source\PSoC5/cyPm.c ****     cyPmBackup.scctData[12u]  = CY_GET_REG8(CYREG_SC1_SW8 );
  98              		.loc 1 1596 0
  99 0058 484D     		ldr	r5, .L7+24
 100 005a 2D78     		ldrb	r5, [r5]	@ zero_extendqisi2
1589:Generated_Source\PSoC5/cyPm.c ****     cyPmBackup.scctData[6u]   = CY_GET_REG8(CYREG_SC0_SW10);
 101              		.loc 1 1589 0
 102 005c 9C73     		strb	r4, [r3, #14]
1597:Generated_Source\PSoC5/cyPm.c ****     cyPmBackup.scctData[13u]  = CY_GET_REG8(CYREG_SC1_SW10);
 103              		.loc 1 1597 0
 104 005e 484C     		ldr	r4, .L7+28
 105 0060 2478     		ldrb	r4, [r4]	@ zero_extendqisi2
1590:Generated_Source\PSoC5/cyPm.c **** 
 106              		.loc 1 1590 0
 107 0062 D873     		strb	r0, [r3, #15]
1598:Generated_Source\PSoC5/cyPm.c **** 
 108              		.loc 1 1598 0
 109 0064 4748     		ldr	r0, .L7+32
 110 0066 0078     		ldrb	r0, [r0]	@ zero_extendqisi2
1592:Generated_Source\PSoC5/cyPm.c ****     cyPmBackup.scctData[8u]   = CY_GET_REG8(CYREG_SC1_SW2 );
 111              		.loc 1 1592 0
 112 0068 1974     		strb	r1, [r3, #16]
1600:Generated_Source\PSoC5/cyPm.c ****     cyPmBackup.scctData[15u]  = CY_GET_REG8(CYREG_SC2_SW2 );
 113              		.loc 1 1600 0
 114 006a 4749     		ldr	r1, .L7+36
 115 006c 0978     		ldrb	r1, [r1]	@ zero_extendqisi2
1593:Generated_Source\PSoC5/cyPm.c ****     cyPmBackup.scctData[9u]   = CY_GET_REG8(CYREG_SC1_SW3 );
 116              		.loc 1 1593 0
 117 006e 83F811B0 		strb	fp, [r3, #17]
1601:Generated_Source\PSoC5/cyPm.c ****     cyPmBackup.scctData[16u]  = CY_GET_REG8(CYREG_SC2_SW3 );
 118              		.loc 1 1601 0
ARM GAS  C:\Users\mgronber\AppData\Local\Temp\ccowRMf8.s 			page 32


 119 0072 97F818B0 		ldrb	fp, [r7, #24]	@ zero_extendqisi2
1594:Generated_Source\PSoC5/cyPm.c ****     cyPmBackup.scctData[10u]  = CY_GET_REG8(CYREG_SC1_SW4 );
 120              		.loc 1 1594 0
 121 0076 9A74     		strb	r2, [r3, #18]
1602:Generated_Source\PSoC5/cyPm.c ****     cyPmBackup.scctData[17u]  = CY_GET_REG8(CYREG_SC2_SW4 );
 122              		.loc 1 1602 0
 123 0078 444A     		ldr	r2, .L7+40
 124 007a 1278     		ldrb	r2, [r2]	@ zero_extendqisi2
1595:Generated_Source\PSoC5/cyPm.c ****     cyPmBackup.scctData[11u]  = CY_GET_REG8(CYREG_SC1_SW6 );
 125              		.loc 1 1595 0
 126 007c DE74     		strb	r6, [r3, #19]
1596:Generated_Source\PSoC5/cyPm.c ****     cyPmBackup.scctData[12u]  = CY_GET_REG8(CYREG_SC1_SW8 );
 127              		.loc 1 1596 0
 128 007e 1D75     		strb	r5, [r3, #20]
1597:Generated_Source\PSoC5/cyPm.c ****     cyPmBackup.scctData[13u]  = CY_GET_REG8(CYREG_SC1_SW10);
 129              		.loc 1 1597 0
 130 0080 5C75     		strb	r4, [r3, #21]
1598:Generated_Source\PSoC5/cyPm.c **** 
 131              		.loc 1 1598 0
 132 0082 9875     		strb	r0, [r3, #22]
1600:Generated_Source\PSoC5/cyPm.c ****     cyPmBackup.scctData[15u]  = CY_GET_REG8(CYREG_SC2_SW2 );
 133              		.loc 1 1600 0
 134 0084 D975     		strb	r1, [r3, #23]
1601:Generated_Source\PSoC5/cyPm.c ****     cyPmBackup.scctData[16u]  = CY_GET_REG8(CYREG_SC2_SW3 );
 135              		.loc 1 1601 0
 136 0086 83F818B0 		strb	fp, [r3, #24]
1602:Generated_Source\PSoC5/cyPm.c ****     cyPmBackup.scctData[17u]  = CY_GET_REG8(CYREG_SC2_SW4 );
 137              		.loc 1 1602 0
 138 008a 5A76     		strb	r2, [r3, #25]
1603:Generated_Source\PSoC5/cyPm.c ****     cyPmBackup.scctData[18u]  = CY_GET_REG8(CYREG_SC2_SW6 );
 139              		.loc 1 1603 0
 140 008c 404A     		ldr	r2, .L7+44
1610:Generated_Source\PSoC5/cyPm.c ****     cyPmBackup.scctData[24u]  = CY_GET_REG8(CYREG_SC3_SW4 );
 141              		.loc 1 1610 0
 142 008e 414E     		ldr	r6, .L7+48
1603:Generated_Source\PSoC5/cyPm.c ****     cyPmBackup.scctData[18u]  = CY_GET_REG8(CYREG_SC2_SW6 );
 143              		.loc 1 1603 0
 144 0090 92F800B0 		ldrb	fp, [r2]	@ zero_extendqisi2
1604:Generated_Source\PSoC5/cyPm.c ****     cyPmBackup.scctData[19u]  = CY_GET_REG8(CYREG_SC2_SW8 );
 145              		.loc 1 1604 0
 146 0094 0232     		adds	r2, r2, #2
 147 0096 1278     		ldrb	r2, [r2]	@ zero_extendqisi2
1603:Generated_Source\PSoC5/cyPm.c ****     cyPmBackup.scctData[18u]  = CY_GET_REG8(CYREG_SC2_SW6 );
 148              		.loc 1 1603 0
 149 0098 83F81AB0 		strb	fp, [r3, #26]
1605:Generated_Source\PSoC5/cyPm.c ****     cyPmBackup.scctData[20u]  = CY_GET_REG8(CYREG_SC2_SW10);
 150              		.loc 1 1605 0
 151 009c 97F81EB0 		ldrb	fp, [r7, #30]	@ zero_extendqisi2
1604:Generated_Source\PSoC5/cyPm.c ****     cyPmBackup.scctData[19u]  = CY_GET_REG8(CYREG_SC2_SW8 );
 152              		.loc 1 1604 0
 153 00a0 DA76     		strb	r2, [r3, #27]
1606:Generated_Source\PSoC5/cyPm.c **** 
 154              		.loc 1 1606 0
 155 00a2 3D4A     		ldr	r2, .L7+52
1611:Generated_Source\PSoC5/cyPm.c ****     cyPmBackup.scctData[25u]  = CY_GET_REG8(CYREG_SC3_SW6 );
 156              		.loc 1 1611 0
 157 00a4 3D4D     		ldr	r5, .L7+56
ARM GAS  C:\Users\mgronber\AppData\Local\Temp\ccowRMf8.s 			page 33


1606:Generated_Source\PSoC5/cyPm.c **** 
 158              		.loc 1 1606 0
 159 00a6 1278     		ldrb	r2, [r2]	@ zero_extendqisi2
1605:Generated_Source\PSoC5/cyPm.c ****     cyPmBackup.scctData[20u]  = CY_GET_REG8(CYREG_SC2_SW10);
 160              		.loc 1 1605 0
 161 00a8 83F81CB0 		strb	fp, [r3, #28]
1608:Generated_Source\PSoC5/cyPm.c ****     cyPmBackup.scctData[22u]  = CY_GET_REG8(CYREG_SC3_SW2 );
 162              		.loc 1 1608 0
 163 00ac 9EF800B0 		ldrb	fp, [lr]	@ zero_extendqisi2
1606:Generated_Source\PSoC5/cyPm.c **** 
 164              		.loc 1 1606 0
 165 00b0 5A77     		strb	r2, [r3, #29]
1609:Generated_Source\PSoC5/cyPm.c ****     cyPmBackup.scctData[23u]  = CY_GET_REG8(CYREG_SC3_SW3 );
 166              		.loc 1 1609 0
 167 00b2 3B4A     		ldr	r2, .L7+60
1612:Generated_Source\PSoC5/cyPm.c ****     cyPmBackup.scctData[26u]  = CY_GET_REG8(CYREG_SC3_SW8 );
 168              		.loc 1 1612 0
 169 00b4 3B4C     		ldr	r4, .L7+64
1609:Generated_Source\PSoC5/cyPm.c ****     cyPmBackup.scctData[23u]  = CY_GET_REG8(CYREG_SC3_SW3 );
 170              		.loc 1 1609 0
 171 00b6 1278     		ldrb	r2, [r2]	@ zero_extendqisi2
1608:Generated_Source\PSoC5/cyPm.c ****     cyPmBackup.scctData[22u]  = CY_GET_REG8(CYREG_SC3_SW2 );
 172              		.loc 1 1608 0
 173 00b8 83F81EB0 		strb	fp, [r3, #30]
1610:Generated_Source\PSoC5/cyPm.c ****     cyPmBackup.scctData[24u]  = CY_GET_REG8(CYREG_SC3_SW4 );
 174              		.loc 1 1610 0
 175 00bc 96F800B0 		ldrb	fp, [r6]	@ zero_extendqisi2
1609:Generated_Source\PSoC5/cyPm.c ****     cyPmBackup.scctData[23u]  = CY_GET_REG8(CYREG_SC3_SW3 );
 176              		.loc 1 1609 0
 177 00c0 DA77     		strb	r2, [r3, #31]
1611:Generated_Source\PSoC5/cyPm.c ****     cyPmBackup.scctData[25u]  = CY_GET_REG8(CYREG_SC3_SW6 );
 178              		.loc 1 1611 0
 179 00c2 2A78     		ldrb	r2, [r5]	@ zero_extendqisi2
1610:Generated_Source\PSoC5/cyPm.c ****     cyPmBackup.scctData[24u]  = CY_GET_REG8(CYREG_SC3_SW4 );
 180              		.loc 1 1610 0
 181 00c4 83F820B0 		strb	fp, [r3, #32]
1612:Generated_Source\PSoC5/cyPm.c ****     cyPmBackup.scctData[26u]  = CY_GET_REG8(CYREG_SC3_SW8 );
 182              		.loc 1 1612 0
 183 00c8 94F800B0 		ldrb	fp, [r4]	@ zero_extendqisi2
1613:Generated_Source\PSoC5/cyPm.c ****     cyPmBackup.scctData[27u]  = CY_GET_REG8(CYREG_SC3_SW10);
 184              		.loc 1 1613 0
 185 00cc 3648     		ldr	r0, .L7+68
1611:Generated_Source\PSoC5/cyPm.c ****     cyPmBackup.scctData[25u]  = CY_GET_REG8(CYREG_SC3_SW6 );
 186              		.loc 1 1611 0
 187 00ce 83F82120 		strb	r2, [r3, #33]
1614:Generated_Source\PSoC5/cyPm.c **** 
 188              		.loc 1 1614 0
 189 00d2 3649     		ldr	r1, .L7+72
1613:Generated_Source\PSoC5/cyPm.c ****     cyPmBackup.scctData[27u]  = CY_GET_REG8(CYREG_SC3_SW10);
 190              		.loc 1 1613 0
 191 00d4 0278     		ldrb	r2, [r0]	@ zero_extendqisi2
1612:Generated_Source\PSoC5/cyPm.c ****     cyPmBackup.scctData[26u]  = CY_GET_REG8(CYREG_SC3_SW8 );
 192              		.loc 1 1612 0
 193 00d6 83F822B0 		strb	fp, [r3, #34]
1614:Generated_Source\PSoC5/cyPm.c **** 
 194              		.loc 1 1614 0
 195 00da 91F800B0 		ldrb	fp, [r1]	@ zero_extendqisi2
ARM GAS  C:\Users\mgronber\AppData\Local\Temp\ccowRMf8.s 			page 34


1613:Generated_Source\PSoC5/cyPm.c ****     cyPmBackup.scctData[27u]  = CY_GET_REG8(CYREG_SC3_SW10);
 196              		.loc 1 1613 0
 197 00de 83F82320 		strb	r2, [r3, #35]
1616:Generated_Source\PSoC5/cyPm.c ****     CY_SET_REG8(CYREG_SC0_SW2 , 0u);
 198              		.loc 1 1616 0
 199 00e2 0022     		movs	r2, #0
1614:Generated_Source\PSoC5/cyPm.c **** 
 200              		.loc 1 1614 0
 201 00e4 83F824B0 		strb	fp, [r3, #36]
1616:Generated_Source\PSoC5/cyPm.c ****     CY_SET_REG8(CYREG_SC0_SW2 , 0u);
 202              		.loc 1 1616 0
 203 00e8 8AF80020 		strb	r2, [r10]
1623:Generated_Source\PSoC5/cyPm.c **** 
1624:Generated_Source\PSoC5/cyPm.c ****     CY_SET_REG8(CYREG_SC1_SW0 , 0u);
1625:Generated_Source\PSoC5/cyPm.c ****     CY_SET_REG8(CYREG_SC1_SW2 , 0u);
1626:Generated_Source\PSoC5/cyPm.c ****     CY_SET_REG8(CYREG_SC1_SW3 , 0u);
1627:Generated_Source\PSoC5/cyPm.c ****     CY_SET_REG8(CYREG_SC1_SW4 , 0u);
1628:Generated_Source\PSoC5/cyPm.c ****     CY_SET_REG8(CYREG_SC1_SW6 , 0u);
1629:Generated_Source\PSoC5/cyPm.c ****     CY_SET_REG8(CYREG_SC1_SW8 , 0u);
1630:Generated_Source\PSoC5/cyPm.c ****     CY_SET_REG8(CYREG_SC1_SW10, 0u);
1631:Generated_Source\PSoC5/cyPm.c **** 
1632:Generated_Source\PSoC5/cyPm.c ****     CY_SET_REG8(CYREG_SC2_SW0 , 0u);
1633:Generated_Source\PSoC5/cyPm.c ****     CY_SET_REG8(CYREG_SC2_SW2 , 0u);
1634:Generated_Source\PSoC5/cyPm.c ****     CY_SET_REG8(CYREG_SC2_SW3 , 0u);
1635:Generated_Source\PSoC5/cyPm.c ****     CY_SET_REG8(CYREG_SC2_SW4 , 0u);
1636:Generated_Source\PSoC5/cyPm.c ****     CY_SET_REG8(CYREG_SC2_SW6 , 0u);
1637:Generated_Source\PSoC5/cyPm.c ****     CY_SET_REG8(CYREG_SC2_SW8 , 0u);
1638:Generated_Source\PSoC5/cyPm.c ****     CY_SET_REG8(CYREG_SC2_SW10, 0u);
1639:Generated_Source\PSoC5/cyPm.c **** 
1640:Generated_Source\PSoC5/cyPm.c ****     CY_SET_REG8(CYREG_SC3_SW0 , 0u);
1641:Generated_Source\PSoC5/cyPm.c ****     CY_SET_REG8(CYREG_SC3_SW2 , 0u);
1642:Generated_Source\PSoC5/cyPm.c ****     CY_SET_REG8(CYREG_SC3_SW3 , 0u);
1643:Generated_Source\PSoC5/cyPm.c ****     CY_SET_REG8(CYREG_SC3_SW4 , 0u);
1644:Generated_Source\PSoC5/cyPm.c ****     CY_SET_REG8(CYREG_SC3_SW6 , 0u);
1645:Generated_Source\PSoC5/cyPm.c ****     CY_SET_REG8(CYREG_SC3_SW8 , 0u);
1646:Generated_Source\PSoC5/cyPm.c ****     CY_SET_REG8(CYREG_SC3_SW10, 0u);
1647:Generated_Source\PSoC5/cyPm.c **** 
1648:Generated_Source\PSoC5/cyPm.c **** 
1649:Generated_Source\PSoC5/cyPm.c ****     #if(CY_PSOC3)
1650:Generated_Source\PSoC5/cyPm.c **** 
1651:Generated_Source\PSoC5/cyPm.c ****         /* Serial Wire Viewer (SWV) workaround */
1652:Generated_Source\PSoC5/cyPm.c **** 
1653:Generated_Source\PSoC5/cyPm.c ****         /* Disable SWV before entering low power mode */
1654:Generated_Source\PSoC5/cyPm.c ****         if(0u != (CY_PM_MLOGIC_DBG_REG & CY_PM_MLOGIC_DBG_SWV_CLK_EN))
1655:Generated_Source\PSoC5/cyPm.c ****         {
1656:Generated_Source\PSoC5/cyPm.c ****             /* Save SWV clock enabled state */
1657:Generated_Source\PSoC5/cyPm.c ****             cyPmBackup.swvClkEnabled = CY_PM_ENABLED;
1658:Generated_Source\PSoC5/cyPm.c **** 
1659:Generated_Source\PSoC5/cyPm.c ****             /* Save current ports drive mode settings */
1660:Generated_Source\PSoC5/cyPm.c ****             cyPmBackup.prt1Dm = CY_PM_PRT1_PC3_REG & ((uint8)(~CY_PM_PRT1_PC3_DM_MASK));
1661:Generated_Source\PSoC5/cyPm.c **** 
1662:Generated_Source\PSoC5/cyPm.c ****             /* Set drive mode to strong output */
1663:Generated_Source\PSoC5/cyPm.c ****             CY_PM_PRT1_PC3_REG = (CY_PM_PRT1_PC3_REG & CY_PM_PRT1_PC3_DM_MASK) |
1664:Generated_Source\PSoC5/cyPm.c ****                                 CY_PM_PRT1_PC3_DM_STRONG;
1665:Generated_Source\PSoC5/cyPm.c **** 
1666:Generated_Source\PSoC5/cyPm.c ****             /* Disable SWV clocks */
1667:Generated_Source\PSoC5/cyPm.c ****             CY_PM_MLOGIC_DBG_REG &= ((uint8)(~CY_PM_MLOGIC_DBG_SWV_CLK_EN));
ARM GAS  C:\Users\mgronber\AppData\Local\Temp\ccowRMf8.s 			page 35


1668:Generated_Source\PSoC5/cyPm.c ****         }
1669:Generated_Source\PSoC5/cyPm.c ****         else
1670:Generated_Source\PSoC5/cyPm.c ****         {
1671:Generated_Source\PSoC5/cyPm.c ****             /* Save SWV clock disabled state */
1672:Generated_Source\PSoC5/cyPm.c ****             cyPmBackup.swvClkEnabled = CY_PM_DISABLED;
1673:Generated_Source\PSoC5/cyPm.c ****         }
1674:Generated_Source\PSoC5/cyPm.c **** 
1675:Generated_Source\PSoC5/cyPm.c ****     #endif  /* (CY_PSOC3) */
1676:Generated_Source\PSoC5/cyPm.c **** 
1677:Generated_Source\PSoC5/cyPm.c **** 
1678:Generated_Source\PSoC5/cyPm.c ****     /***************************************************************************
1679:Generated_Source\PSoC5/cyPm.c ****     * Save boost reference and set it to boost's internal by clearing the bit.
1680:Generated_Source\PSoC5/cyPm.c ****     * External (chip bandgap) reference is not available in Sleep and Hibernate.
1681:Generated_Source\PSoC5/cyPm.c ****     ***************************************************************************/
1682:Generated_Source\PSoC5/cyPm.c ****     if(0u != (CY_PM_BOOST_CR2_REG & CY_PM_BOOST_CR2_EREFSEL_EXT))
 204              		.loc 1 1682 0
 205 00ec DFF8D4B0 		ldr	fp, .L7+96
1617:Generated_Source\PSoC5/cyPm.c ****     CY_SET_REG8(CYREG_SC0_SW3 , 0u);
 206              		.loc 1 1617 0
 207 00f0 89F80020 		strb	r2, [r9]
1618:Generated_Source\PSoC5/cyPm.c ****     CY_SET_REG8(CYREG_SC0_SW4 , 0u);
 208              		.loc 1 1618 0
 209 00f4 88F80020 		strb	r2, [r8]
1619:Generated_Source\PSoC5/cyPm.c ****     CY_SET_REG8(CYREG_SC0_SW6 , 0u);
 210              		.loc 1 1619 0
 211 00f8 8CF80020 		strb	r2, [ip]
1620:Generated_Source\PSoC5/cyPm.c ****     CY_SET_REG8(CYREG_SC0_SW8 , 0u);
 212              		.loc 1 1620 0
 213 00fc 07F8042C 		strb	r2, [r7, #-4]
1621:Generated_Source\PSoC5/cyPm.c ****     CY_SET_REG8(CYREG_SC0_SW10, 0u);
 214              		.loc 1 1621 0
 215 0100 07F8022C 		strb	r2, [r7, #-2]
1622:Generated_Source\PSoC5/cyPm.c **** 
 216              		.loc 1 1622 0
 217 0104 3A70     		strb	r2, [r7]
1624:Generated_Source\PSoC5/cyPm.c ****     CY_SET_REG8(CYREG_SC1_SW2 , 0u);
 218              		.loc 1 1624 0
 219 0106 BA71     		strb	r2, [r7, #6]
1625:Generated_Source\PSoC5/cyPm.c ****     CY_SET_REG8(CYREG_SC1_SW3 , 0u);
 220              		.loc 1 1625 0
 221 0108 3A72     		strb	r2, [r7, #8]
1626:Generated_Source\PSoC5/cyPm.c ****     CY_SET_REG8(CYREG_SC1_SW4 , 0u);
 222              		.loc 1 1626 0
 223 010a 7A72     		strb	r2, [r7, #9]
1627:Generated_Source\PSoC5/cyPm.c ****     CY_SET_REG8(CYREG_SC1_SW6 , 0u);
 224              		.loc 1 1627 0
 225 010c BA72     		strb	r2, [r7, #10]
1628:Generated_Source\PSoC5/cyPm.c ****     CY_SET_REG8(CYREG_SC1_SW8 , 0u);
 226              		.loc 1 1628 0
 227 010e 3A73     		strb	r2, [r7, #12]
1629:Generated_Source\PSoC5/cyPm.c ****     CY_SET_REG8(CYREG_SC1_SW10, 0u);
 228              		.loc 1 1629 0
 229 0110 BA73     		strb	r2, [r7, #14]
1630:Generated_Source\PSoC5/cyPm.c **** 
 230              		.loc 1 1630 0
 231 0112 3A74     		strb	r2, [r7, #16]
1632:Generated_Source\PSoC5/cyPm.c ****     CY_SET_REG8(CYREG_SC2_SW2 , 0u);
ARM GAS  C:\Users\mgronber\AppData\Local\Temp\ccowRMf8.s 			page 36


 232              		.loc 1 1632 0
 233 0114 BA75     		strb	r2, [r7, #22]
1633:Generated_Source\PSoC5/cyPm.c ****     CY_SET_REG8(CYREG_SC2_SW3 , 0u);
 234              		.loc 1 1633 0
 235 0116 3A76     		strb	r2, [r7, #24]
1634:Generated_Source\PSoC5/cyPm.c ****     CY_SET_REG8(CYREG_SC2_SW4 , 0u);
 236              		.loc 1 1634 0
 237 0118 7A76     		strb	r2, [r7, #25]
1635:Generated_Source\PSoC5/cyPm.c ****     CY_SET_REG8(CYREG_SC2_SW6 , 0u);
 238              		.loc 1 1635 0
 239 011a BA76     		strb	r2, [r7, #26]
1636:Generated_Source\PSoC5/cyPm.c ****     CY_SET_REG8(CYREG_SC2_SW8 , 0u);
 240              		.loc 1 1636 0
 241 011c 3A77     		strb	r2, [r7, #28]
1637:Generated_Source\PSoC5/cyPm.c ****     CY_SET_REG8(CYREG_SC2_SW10, 0u);
 242              		.loc 1 1637 0
 243 011e BA77     		strb	r2, [r7, #30]
1638:Generated_Source\PSoC5/cyPm.c **** 
 244              		.loc 1 1638 0
 245 0120 87F82020 		strb	r2, [r7, #32]
1640:Generated_Source\PSoC5/cyPm.c ****     CY_SET_REG8(CYREG_SC3_SW2 , 0u);
 246              		.loc 1 1640 0
 247 0124 8EF80020 		strb	r2, [lr]
1641:Generated_Source\PSoC5/cyPm.c ****     CY_SET_REG8(CYREG_SC3_SW3 , 0u);
 248              		.loc 1 1641 0
 249 0128 87F82820 		strb	r2, [r7, #40]
1642:Generated_Source\PSoC5/cyPm.c ****     CY_SET_REG8(CYREG_SC3_SW4 , 0u);
 250              		.loc 1 1642 0
 251 012c 3270     		strb	r2, [r6]
1643:Generated_Source\PSoC5/cyPm.c ****     CY_SET_REG8(CYREG_SC3_SW6 , 0u);
 252              		.loc 1 1643 0
 253 012e 2A70     		strb	r2, [r5]
1644:Generated_Source\PSoC5/cyPm.c ****     CY_SET_REG8(CYREG_SC3_SW8 , 0u);
 254              		.loc 1 1644 0
 255 0130 2270     		strb	r2, [r4]
1645:Generated_Source\PSoC5/cyPm.c ****     CY_SET_REG8(CYREG_SC3_SW10, 0u);
 256              		.loc 1 1645 0
 257 0132 0270     		strb	r2, [r0]
1646:Generated_Source\PSoC5/cyPm.c **** 
 258              		.loc 1 1646 0
 259 0134 0A70     		strb	r2, [r1]
 260              		.loc 1 1682 0
 261 0136 9BF80020 		ldrb	r2, [fp]	@ zero_extendqisi2
 262 013a 02F00802 		and	r2, r2, #8
 263 013e 02F0FF01 		and	r1, r2, #255
 264 0142 1AB9     		cbnz	r2, .L6
1683:Generated_Source\PSoC5/cyPm.c ****     {
1684:Generated_Source\PSoC5/cyPm.c ****         cyPmBackup.boostRefExt = CY_PM_ENABLED;
1685:Generated_Source\PSoC5/cyPm.c ****         CY_PM_BOOST_CR2_REG &= ((uint8)(~CY_PM_BOOST_CR2_EREFSEL_EXT));
1686:Generated_Source\PSoC5/cyPm.c ****     }
1687:Generated_Source\PSoC5/cyPm.c ****     else
1688:Generated_Source\PSoC5/cyPm.c ****     {
1689:Generated_Source\PSoC5/cyPm.c ****         cyPmBackup.boostRefExt = CY_PM_DISABLED;
 265              		.loc 1 1689 0
 266 0144 83F82E10 		strb	r1, [r3, #46]
 267 0148 BDE8F08F 		pop	{r4, r5, r6, r7, r8, r9, r10, fp, pc}
 268              	.L6:
ARM GAS  C:\Users\mgronber\AppData\Local\Temp\ccowRMf8.s 			page 37


1685:Generated_Source\PSoC5/cyPm.c ****     }
 269              		.loc 1 1685 0
 270 014c 9BF80020 		ldrb	r2, [fp]	@ zero_extendqisi2
1684:Generated_Source\PSoC5/cyPm.c ****         CY_PM_BOOST_CR2_REG &= ((uint8)(~CY_PM_BOOST_CR2_EREFSEL_EXT));
 271              		.loc 1 1684 0
 272 0150 0121     		movs	r1, #1
1685:Generated_Source\PSoC5/cyPm.c ****     }
 273              		.loc 1 1685 0
 274 0152 02F0F702 		and	r2, r2, #247
 275 0156 8BF80020 		strb	r2, [fp]
1684:Generated_Source\PSoC5/cyPm.c ****         CY_PM_BOOST_CR2_REG &= ((uint8)(~CY_PM_BOOST_CR2_EREFSEL_EXT));
 276              		.loc 1 1684 0
 277 015a 83F82E10 		strb	r1, [r3, #46]
 278 015e BDE8F08F 		pop	{r4, r5, r6, r7, r8, r9, r10, fp, pc}
 279              	.L8:
 280 0162 00BF     		.align	2
 281              	.L7:
 282 0164 065A0040 		.word	1073764870
 283 0168 00000000 		.word	.LANCHOR0
 284 016c 105A0040 		.word	1073764880
 285 0170 125A0040 		.word	1073764882
 286 0174 135A0040 		.word	1073764883
 287 0178 145A0040 		.word	1073764884
 288 017c 165A0040 		.word	1073764886
 289 0180 185A0040 		.word	1073764888
 290 0184 1A5A0040 		.word	1073764890
 291 0188 205A0040 		.word	1073764896
 292 018c 235A0040 		.word	1073764899
 293 0190 245A0040 		.word	1073764900
 294 0194 335A0040 		.word	1073764915
 295 0198 2A5A0040 		.word	1073764906
 296 019c 345A0040 		.word	1073764916
 297 01a0 325A0040 		.word	1073764914
 298 01a4 365A0040 		.word	1073764918
 299 01a8 385A0040 		.word	1073764920
 300 01ac 3A5A0040 		.word	1073764922
 301 01b0 005A0040 		.word	1073764864
 302 01b4 025A0040 		.word	1073764866
 303 01b8 035A0040 		.word	1073764867
 304 01bc 045A0040 		.word	1073764868
 305 01c0 305A0040 		.word	1073764912
 306 01c4 22430040 		.word	1073759010
 307              		.cfi_endproc
 308              	.LFE11:
 309              		.size	CyPmHibSlpSaveSet, .-CyPmHibSlpSaveSet
 310              		.section	.text.CyPmHibSlpRestore,"ax",%progbits
 311              		.align	2
 312              		.thumb
 313              		.thumb_func
 314              		.type	CyPmHibSlpRestore, %function
 315              	CyPmHibSlpRestore:
 316              	.LFB12:
1690:Generated_Source\PSoC5/cyPm.c ****     }
1691:Generated_Source\PSoC5/cyPm.c **** }
1692:Generated_Source\PSoC5/cyPm.c **** 
1693:Generated_Source\PSoC5/cyPm.c **** 
1694:Generated_Source\PSoC5/cyPm.c **** /*******************************************************************************
ARM GAS  C:\Users\mgronber\AppData\Local\Temp\ccowRMf8.s 			page 38


1695:Generated_Source\PSoC5/cyPm.c **** * Function Name: CyPmHibSlpRestore
1696:Generated_Source\PSoC5/cyPm.c **** ********************************************************************************
1697:Generated_Source\PSoC5/cyPm.c **** *
1698:Generated_Source\PSoC5/cyPm.c **** * Summary:
1699:Generated_Source\PSoC5/cyPm.c **** *  This API is used for restoring the device configurations after wakeup from the Sleep
1700:Generated_Source\PSoC5/cyPm.c **** *  and Hibernate low power modes:
1701:Generated_Source\PSoC5/cyPm.c **** *  - Restores the SC/CT routing connections
1702:Generated_Source\PSoC5/cyPm.c **** *  - Restores the enable state of the Serial Wire Viewer (SWV) (PSoC 3)
1703:Generated_Source\PSoC5/cyPm.c **** *  - Restores the  boost reference selection
1704:Generated_Source\PSoC5/cyPm.c **** *
1705:Generated_Source\PSoC5/cyPm.c **** * Parameters:
1706:Generated_Source\PSoC5/cyPm.c **** *  None
1707:Generated_Source\PSoC5/cyPm.c **** *
1708:Generated_Source\PSoC5/cyPm.c **** * Return:
1709:Generated_Source\PSoC5/cyPm.c **** *  None
1710:Generated_Source\PSoC5/cyPm.c **** *
1711:Generated_Source\PSoC5/cyPm.c **** *******************************************************************************/
1712:Generated_Source\PSoC5/cyPm.c **** static void CyPmHibSlpRestore(void) 
1713:Generated_Source\PSoC5/cyPm.c **** {
 317              		.loc 1 1713 0
 318              		.cfi_startproc
 319              		@ args = 0, pretend = 0, frame = 0
 320              		@ frame_needed = 0, uses_anonymous_args = 0
 321 0000 2DE9F04F 		push	{r4, r5, r6, r7, r8, r9, r10, fp, lr}
 322              		.cfi_def_cfa_offset 36
 323              		.cfi_offset 4, -36
 324              		.cfi_offset 5, -32
 325              		.cfi_offset 6, -28
 326              		.cfi_offset 7, -24
 327              		.cfi_offset 8, -20
 328              		.cfi_offset 9, -16
 329              		.cfi_offset 10, -12
 330              		.cfi_offset 11, -8
 331              		.cfi_offset 14, -4
1714:Generated_Source\PSoC5/cyPm.c ****     /* Restore SC/CT routing registers */
1715:Generated_Source\PSoC5/cyPm.c ****     CY_SET_REG8(CYREG_SC0_SW0 , cyPmBackup.scctData[0u] );
 332              		.loc 1 1715 0
 333 0004 3F4B     		ldr	r3, .L12
 334 0006 404D     		ldr	r5, .L12+4
 335 0008 93F809C0 		ldrb	ip, [r3, #9]	@ zero_extendqisi2
1716:Generated_Source\PSoC5/cyPm.c ****     CY_SET_REG8(CYREG_SC0_SW2 , cyPmBackup.scctData[1u] );
 336              		.loc 1 1716 0
 337 000c 93F80AE0 		ldrb	lr, [r3, #10]	@ zero_extendqisi2
 338 0010 3E48     		ldr	r0, .L12+8
1717:Generated_Source\PSoC5/cyPm.c ****     CY_SET_REG8(CYREG_SC0_SW3 , cyPmBackup.scctData[2u] );
 339              		.loc 1 1717 0
 340 0012 DE7A     		ldrb	r6, [r3, #11]	@ zero_extendqisi2
1718:Generated_Source\PSoC5/cyPm.c ****     CY_SET_REG8(CYREG_SC0_SW4 , cyPmBackup.scctData[3u] );
 341              		.loc 1 1718 0
 342 0014 93F80CB0 		ldrb	fp, [r3, #12]	@ zero_extendqisi2
1719:Generated_Source\PSoC5/cyPm.c ****     CY_SET_REG8(CYREG_SC0_SW6 , cyPmBackup.scctData[4u] );
 343              		.loc 1 1719 0
 344 0018 93F80DA0 		ldrb	r10, [r3, #13]	@ zero_extendqisi2
1720:Generated_Source\PSoC5/cyPm.c ****     CY_SET_REG8(CYREG_SC0_SW8 , cyPmBackup.scctData[5u] );
 345              		.loc 1 1720 0
 346 001c 93F80E90 		ldrb	r9, [r3, #14]	@ zero_extendqisi2
1721:Generated_Source\PSoC5/cyPm.c ****     CY_SET_REG8(CYREG_SC0_SW10, cyPmBackup.scctData[6u] );
ARM GAS  C:\Users\mgronber\AppData\Local\Temp\ccowRMf8.s 			page 39


 347              		.loc 1 1721 0
 348 0020 93F80F80 		ldrb	r8, [r3, #15]	@ zero_extendqisi2
1717:Generated_Source\PSoC5/cyPm.c ****     CY_SET_REG8(CYREG_SC0_SW4 , cyPmBackup.scctData[3u] );
 349              		.loc 1 1717 0
 350 0024 3A4A     		ldr	r2, .L12+12
1715:Generated_Source\PSoC5/cyPm.c ****     CY_SET_REG8(CYREG_SC0_SW2 , cyPmBackup.scctData[1u] );
 351              		.loc 1 1715 0
 352 0026 85F800C0 		strb	ip, [r5]
1722:Generated_Source\PSoC5/cyPm.c **** 
1723:Generated_Source\PSoC5/cyPm.c ****     CY_SET_REG8(CYREG_SC1_SW0 , cyPmBackup.scctData[7u] );
 353              		.loc 1 1723 0
 354 002a 93F810C0 		ldrb	ip, [r3, #16]	@ zero_extendqisi2
1718:Generated_Source\PSoC5/cyPm.c ****     CY_SET_REG8(CYREG_SC0_SW6 , cyPmBackup.scctData[4u] );
 355              		.loc 1 1718 0
 356 002e 394C     		ldr	r4, .L12+16
1716:Generated_Source\PSoC5/cyPm.c ****     CY_SET_REG8(CYREG_SC0_SW3 , cyPmBackup.scctData[2u] );
 357              		.loc 1 1716 0
 358 0030 80F800E0 		strb	lr, [r0]
1724:Generated_Source\PSoC5/cyPm.c ****     CY_SET_REG8(CYREG_SC1_SW2 , cyPmBackup.scctData[8u] );
 359              		.loc 1 1724 0
 360 0034 93F811E0 		ldrb	lr, [r3, #17]	@ zero_extendqisi2
1719:Generated_Source\PSoC5/cyPm.c ****     CY_SET_REG8(CYREG_SC0_SW8 , cyPmBackup.scctData[5u] );
 361              		.loc 1 1719 0
 362 0038 3749     		ldr	r1, .L12+20
1717:Generated_Source\PSoC5/cyPm.c ****     CY_SET_REG8(CYREG_SC0_SW4 , cyPmBackup.scctData[3u] );
 363              		.loc 1 1717 0
 364 003a 1670     		strb	r6, [r2]
1725:Generated_Source\PSoC5/cyPm.c ****     CY_SET_REG8(CYREG_SC1_SW3 , cyPmBackup.scctData[9u] );
 365              		.loc 1 1725 0
 366 003c 9E7C     		ldrb	r6, [r3, #18]	@ zero_extendqisi2
1720:Generated_Source\PSoC5/cyPm.c ****     CY_SET_REG8(CYREG_SC0_SW10, cyPmBackup.scctData[6u] );
 367              		.loc 1 1720 0
 368 003e 374F     		ldr	r7, .L12+24
1718:Generated_Source\PSoC5/cyPm.c ****     CY_SET_REG8(CYREG_SC0_SW6 , cyPmBackup.scctData[4u] );
 369              		.loc 1 1718 0
 370 0040 84F800B0 		strb	fp, [r4]
1726:Generated_Source\PSoC5/cyPm.c ****     CY_SET_REG8(CYREG_SC1_SW4 , cyPmBackup.scctData[10u]);
 371              		.loc 1 1726 0
 372 0044 93F813B0 		ldrb	fp, [r3, #19]	@ zero_extendqisi2
1719:Generated_Source\PSoC5/cyPm.c ****     CY_SET_REG8(CYREG_SC0_SW8 , cyPmBackup.scctData[5u] );
 373              		.loc 1 1719 0
 374 0048 81F800A0 		strb	r10, [r1]
1727:Generated_Source\PSoC5/cyPm.c ****     CY_SET_REG8(CYREG_SC1_SW6 , cyPmBackup.scctData[11u]);
 375              		.loc 1 1727 0
 376 004c 93F814A0 		ldrb	r10, [r3, #20]	@ zero_extendqisi2
1720:Generated_Source\PSoC5/cyPm.c ****     CY_SET_REG8(CYREG_SC0_SW10, cyPmBackup.scctData[6u] );
 377              		.loc 1 1720 0
 378 0050 87F80090 		strb	r9, [r7]
1728:Generated_Source\PSoC5/cyPm.c ****     CY_SET_REG8(CYREG_SC1_SW8 , cyPmBackup.scctData[12u]);
 379              		.loc 1 1728 0
 380 0054 93F81590 		ldrb	r9, [r3, #21]	@ zero_extendqisi2
1721:Generated_Source\PSoC5/cyPm.c **** 
 381              		.loc 1 1721 0
 382 0058 85F80A80 		strb	r8, [r5, #10]
1729:Generated_Source\PSoC5/cyPm.c ****     CY_SET_REG8(CYREG_SC1_SW10, cyPmBackup.scctData[13u]);
 383              		.loc 1 1729 0
 384 005c 93F81680 		ldrb	r8, [r3, #22]	@ zero_extendqisi2
ARM GAS  C:\Users\mgronber\AppData\Local\Temp\ccowRMf8.s 			page 40


1723:Generated_Source\PSoC5/cyPm.c ****     CY_SET_REG8(CYREG_SC1_SW2 , cyPmBackup.scctData[8u] );
 385              		.loc 1 1723 0
 386 0060 80F80EC0 		strb	ip, [r0, #14]
1730:Generated_Source\PSoC5/cyPm.c **** 
1731:Generated_Source\PSoC5/cyPm.c ****     CY_SET_REG8(CYREG_SC2_SW0 , cyPmBackup.scctData[14u]);
 387              		.loc 1 1731 0
 388 0064 93F817C0 		ldrb	ip, [r3, #23]	@ zero_extendqisi2
1724:Generated_Source\PSoC5/cyPm.c ****     CY_SET_REG8(CYREG_SC1_SW3 , cyPmBackup.scctData[9u] );
 389              		.loc 1 1724 0
 390 0068 82F80FE0 		strb	lr, [r2, #15]
1732:Generated_Source\PSoC5/cyPm.c ****     CY_SET_REG8(CYREG_SC2_SW2 , cyPmBackup.scctData[15u]);
 391              		.loc 1 1732 0
 392 006c 93F818E0 		ldrb	lr, [r3, #24]	@ zero_extendqisi2
1725:Generated_Source\PSoC5/cyPm.c ****     CY_SET_REG8(CYREG_SC1_SW4 , cyPmBackup.scctData[10u]);
 393              		.loc 1 1725 0
 394 0070 E673     		strb	r6, [r4, #15]
1733:Generated_Source\PSoC5/cyPm.c ****     CY_SET_REG8(CYREG_SC2_SW3 , cyPmBackup.scctData[16u]);
 395              		.loc 1 1733 0
 396 0072 5C7E     		ldrb	r4, [r3, #25]	@ zero_extendqisi2
1732:Generated_Source\PSoC5/cyPm.c ****     CY_SET_REG8(CYREG_SC2_SW2 , cyPmBackup.scctData[15u]);
 397              		.loc 1 1732 0
 398 0074 2A4E     		ldr	r6, .L12+28
1726:Generated_Source\PSoC5/cyPm.c ****     CY_SET_REG8(CYREG_SC1_SW6 , cyPmBackup.scctData[11u]);
 399              		.loc 1 1726 0
 400 0076 81F80EB0 		strb	fp, [r1, #14]
1727:Generated_Source\PSoC5/cyPm.c ****     CY_SET_REG8(CYREG_SC1_SW8 , cyPmBackup.scctData[12u]);
 401              		.loc 1 1727 0
 402 007a 87F80EA0 		strb	r10, [r7, #14]
1728:Generated_Source\PSoC5/cyPm.c ****     CY_SET_REG8(CYREG_SC1_SW10, cyPmBackup.scctData[13u]);
 403              		.loc 1 1728 0
 404 007e 85F81890 		strb	r9, [r5, #24]
1729:Generated_Source\PSoC5/cyPm.c **** 
 405              		.loc 1 1729 0
 406 0082 80F81880 		strb	r8, [r0, #24]
1731:Generated_Source\PSoC5/cyPm.c ****     CY_SET_REG8(CYREG_SC2_SW2 , cyPmBackup.scctData[15u]);
 407              		.loc 1 1731 0
 408 0086 82F81DC0 		strb	ip, [r2, #29]
1732:Generated_Source\PSoC5/cyPm.c ****     CY_SET_REG8(CYREG_SC2_SW3 , cyPmBackup.scctData[16u]);
 409              		.loc 1 1732 0
 410 008a 86F800E0 		strb	lr, [r6]
 411              		.loc 1 1733 0
 412 008e 4C77     		strb	r4, [r1, #29]
1734:Generated_Source\PSoC5/cyPm.c ****     CY_SET_REG8(CYREG_SC2_SW4 , cyPmBackup.scctData[17u]);
 413              		.loc 1 1734 0
 414 0090 93F81AE0 		ldrb	lr, [r3, #26]	@ zero_extendqisi2
1735:Generated_Source\PSoC5/cyPm.c ****     CY_SET_REG8(CYREG_SC2_SW6 , cyPmBackup.scctData[18u]);
 415              		.loc 1 1735 0
 416 0094 DE7E     		ldrb	r6, [r3, #27]	@ zero_extendqisi2
1736:Generated_Source\PSoC5/cyPm.c ****     CY_SET_REG8(CYREG_SC2_SW8 , cyPmBackup.scctData[19u]);
 417              		.loc 1 1736 0
 418 0096 1C7F     		ldrb	r4, [r3, #28]	@ zero_extendqisi2
1737:Generated_Source\PSoC5/cyPm.c ****     CY_SET_REG8(CYREG_SC2_SW10, cyPmBackup.scctData[20u]);
 419              		.loc 1 1737 0
 420 0098 597F     		ldrb	r1, [r3, #29]	@ zero_extendqisi2
1738:Generated_Source\PSoC5/cyPm.c **** 
1739:Generated_Source\PSoC5/cyPm.c ****     CY_SET_REG8(CYREG_SC3_SW0 , cyPmBackup.scctData[21u]);
 421              		.loc 1 1739 0
ARM GAS  C:\Users\mgronber\AppData\Local\Temp\ccowRMf8.s 			page 41


 422 009a 93F81EB0 		ldrb	fp, [r3, #30]	@ zero_extendqisi2
1740:Generated_Source\PSoC5/cyPm.c ****     CY_SET_REG8(CYREG_SC3_SW2 , cyPmBackup.scctData[22u]);
 423              		.loc 1 1740 0
 424 009e 93F81F90 		ldrb	r9, [r3, #31]	@ zero_extendqisi2
1741:Generated_Source\PSoC5/cyPm.c ****     CY_SET_REG8(CYREG_SC3_SW3 , cyPmBackup.scctData[23u]);
 425              		.loc 1 1741 0
 426 00a2 93F820C0 		ldrb	ip, [r3, #32]	@ zero_extendqisi2
1734:Generated_Source\PSoC5/cyPm.c ****     CY_SET_REG8(CYREG_SC2_SW6 , cyPmBackup.scctData[18u]);
 427              		.loc 1 1734 0
 428 00a6 87F81CE0 		strb	lr, [r7, #28]
1742:Generated_Source\PSoC5/cyPm.c ****     CY_SET_REG8(CYREG_SC3_SW4 , cyPmBackup.scctData[24u]);
 429              		.loc 1 1742 0
 430 00aa 93F82170 		ldrb	r7, [r3, #33]	@ zero_extendqisi2
1735:Generated_Source\PSoC5/cyPm.c ****     CY_SET_REG8(CYREG_SC2_SW8 , cyPmBackup.scctData[19u]);
 431              		.loc 1 1735 0
 432 00ae 85F82660 		strb	r6, [r5, #38]
1743:Generated_Source\PSoC5/cyPm.c ****     CY_SET_REG8(CYREG_SC3_SW6 , cyPmBackup.scctData[25u]);
 433              		.loc 1 1743 0
 434 00b2 93F82250 		ldrb	r5, [r3, #34]	@ zero_extendqisi2
1736:Generated_Source\PSoC5/cyPm.c ****     CY_SET_REG8(CYREG_SC2_SW10, cyPmBackup.scctData[20u]);
 435              		.loc 1 1736 0
 436 00b6 80F82640 		strb	r4, [r0, #38]
1744:Generated_Source\PSoC5/cyPm.c ****     CY_SET_REG8(CYREG_SC3_SW8 , cyPmBackup.scctData[26u]);
 437              		.loc 1 1744 0
 438 00ba 93F82300 		ldrb	r0, [r3, #35]	@ zero_extendqisi2
1737:Generated_Source\PSoC5/cyPm.c **** 
 439              		.loc 1 1737 0
 440 00be 82F82710 		strb	r1, [r2, #39]
1745:Generated_Source\PSoC5/cyPm.c ****     CY_SET_REG8(CYREG_SC3_SW10, cyPmBackup.scctData[27u]);
 441              		.loc 1 1745 0
 442 00c2 93F82420 		ldrb	r2, [r3, #36]	@ zero_extendqisi2
1746:Generated_Source\PSoC5/cyPm.c **** 
1747:Generated_Source\PSoC5/cyPm.c **** 
1748:Generated_Source\PSoC5/cyPm.c ****     #if(CY_PSOC3)
1749:Generated_Source\PSoC5/cyPm.c **** 
1750:Generated_Source\PSoC5/cyPm.c ****         /* Serial Wire Viewer (SWV) workaround */
1751:Generated_Source\PSoC5/cyPm.c ****         if(CY_PM_ENABLED == cyPmBackup.swvClkEnabled)
1752:Generated_Source\PSoC5/cyPm.c ****         {
1753:Generated_Source\PSoC5/cyPm.c ****             /* Restore ports drive mode */
1754:Generated_Source\PSoC5/cyPm.c ****             CY_PM_PRT1_PC3_REG = (CY_PM_PRT1_PC3_REG & CY_PM_PRT1_PC3_DM_MASK) |
1755:Generated_Source\PSoC5/cyPm.c ****                                     cyPmBackup.prt1Dm;
1756:Generated_Source\PSoC5/cyPm.c **** 
1757:Generated_Source\PSoC5/cyPm.c ****             /* Enable SWV clocks */
1758:Generated_Source\PSoC5/cyPm.c ****             CY_PM_MLOGIC_DBG_REG |= CY_PM_MLOGIC_DBG_SWV_CLK_EN;
1759:Generated_Source\PSoC5/cyPm.c ****         }
1760:Generated_Source\PSoC5/cyPm.c **** 
1761:Generated_Source\PSoC5/cyPm.c ****     #endif /* (CY_PSOC3) */
1762:Generated_Source\PSoC5/cyPm.c **** 
1763:Generated_Source\PSoC5/cyPm.c **** 
1764:Generated_Source\PSoC5/cyPm.c ****     /* Restore boost reference */
1765:Generated_Source\PSoC5/cyPm.c ****     if(CY_PM_ENABLED == cyPmBackup.boostRefExt)
 443              		.loc 1 1765 0
 444 00c6 93F82E30 		ldrb	r3, [r3, #46]	@ zero_extendqisi2
1739:Generated_Source\PSoC5/cyPm.c ****     CY_SET_REG8(CYREG_SC3_SW2 , cyPmBackup.scctData[22u]);
 445              		.loc 1 1739 0
 446 00ca DFF868A0 		ldr	r10, .L12+48
1740:Generated_Source\PSoC5/cyPm.c ****     CY_SET_REG8(CYREG_SC3_SW3 , cyPmBackup.scctData[23u]);
ARM GAS  C:\Users\mgronber\AppData\Local\Temp\ccowRMf8.s 			page 42


 447              		.loc 1 1740 0
 448 00ce DFF86880 		ldr	r8, .L12+52
1741:Generated_Source\PSoC5/cyPm.c ****     CY_SET_REG8(CYREG_SC3_SW4 , cyPmBackup.scctData[24u]);
 449              		.loc 1 1741 0
 450 00d2 DFF868E0 		ldr	lr, .L12+56
1742:Generated_Source\PSoC5/cyPm.c ****     CY_SET_REG8(CYREG_SC3_SW6 , cyPmBackup.scctData[25u]);
 451              		.loc 1 1742 0
 452 00d6 134E     		ldr	r6, .L12+32
1743:Generated_Source\PSoC5/cyPm.c ****     CY_SET_REG8(CYREG_SC3_SW8 , cyPmBackup.scctData[26u]);
 453              		.loc 1 1743 0
 454 00d8 134C     		ldr	r4, .L12+36
1744:Generated_Source\PSoC5/cyPm.c ****     CY_SET_REG8(CYREG_SC3_SW10, cyPmBackup.scctData[27u]);
 455              		.loc 1 1744 0
 456 00da 1449     		ldr	r1, .L12+40
 457              		.loc 1 1765 0
 458 00dc 012B     		cmp	r3, #1
1739:Generated_Source\PSoC5/cyPm.c ****     CY_SET_REG8(CYREG_SC3_SW2 , cyPmBackup.scctData[22u]);
 459              		.loc 1 1739 0
 460 00de 8AF800B0 		strb	fp, [r10]
1740:Generated_Source\PSoC5/cyPm.c ****     CY_SET_REG8(CYREG_SC3_SW3 , cyPmBackup.scctData[23u]);
 461              		.loc 1 1740 0
 462 00e2 88F80090 		strb	r9, [r8]
1741:Generated_Source\PSoC5/cyPm.c ****     CY_SET_REG8(CYREG_SC3_SW4 , cyPmBackup.scctData[24u]);
 463              		.loc 1 1741 0
 464 00e6 8EF800C0 		strb	ip, [lr]
1742:Generated_Source\PSoC5/cyPm.c ****     CY_SET_REG8(CYREG_SC3_SW6 , cyPmBackup.scctData[25u]);
 465              		.loc 1 1742 0
 466 00ea 3770     		strb	r7, [r6]
1743:Generated_Source\PSoC5/cyPm.c ****     CY_SET_REG8(CYREG_SC3_SW8 , cyPmBackup.scctData[26u]);
 467              		.loc 1 1743 0
 468 00ec 2570     		strb	r5, [r4]
1744:Generated_Source\PSoC5/cyPm.c ****     CY_SET_REG8(CYREG_SC3_SW10, cyPmBackup.scctData[27u]);
 469              		.loc 1 1744 0
 470 00ee 0870     		strb	r0, [r1]
1745:Generated_Source\PSoC5/cyPm.c **** 
 471              		.loc 1 1745 0
 472 00f0 8AF80A20 		strb	r2, [r10, #10]
 473              		.loc 1 1765 0
 474 00f4 04D1     		bne	.L9
1766:Generated_Source\PSoC5/cyPm.c ****     {
1767:Generated_Source\PSoC5/cyPm.c ****         CY_PM_BOOST_CR2_REG |= CY_PM_BOOST_CR2_EREFSEL_EXT;
 475              		.loc 1 1767 0
 476 00f6 0E4A     		ldr	r2, .L12+44
 477 00f8 1378     		ldrb	r3, [r2]	@ zero_extendqisi2
 478 00fa 43F00803 		orr	r3, r3, #8
 479 00fe 1370     		strb	r3, [r2]
 480              	.L9:
 481 0100 BDE8F08F 		pop	{r4, r5, r6, r7, r8, r9, r10, fp, pc}
 482              	.L13:
 483              		.align	2
 484              	.L12:
 485 0104 00000000 		.word	.LANCHOR0
 486 0108 005A0040 		.word	1073764864
 487 010c 025A0040 		.word	1073764866
 488 0110 035A0040 		.word	1073764867
 489 0114 045A0040 		.word	1073764868
 490 0118 065A0040 		.word	1073764870
ARM GAS  C:\Users\mgronber\AppData\Local\Temp\ccowRMf8.s 			page 43


 491 011c 085A0040 		.word	1073764872
 492 0120 225A0040 		.word	1073764898
 493 0124 345A0040 		.word	1073764916
 494 0128 365A0040 		.word	1073764918
 495 012c 385A0040 		.word	1073764920
 496 0130 22430040 		.word	1073759010
 497 0134 305A0040 		.word	1073764912
 498 0138 325A0040 		.word	1073764914
 499 013c 335A0040 		.word	1073764915
 500              		.cfi_endproc
 501              	.LFE12:
 502              		.size	CyPmHibSlpRestore, .-CyPmHibSlpRestore
 503              		.section	.text.CyPmSaveClocks,"ax",%progbits
 504              		.align	2
 505              		.global	CyPmSaveClocks
 506              		.thumb
 507              		.thumb_func
 508              		.type	CyPmSaveClocks, %function
 509              	CyPmSaveClocks:
 510              	.LFB0:
  81:Generated_Source\PSoC5/cyPm.c ****     /* Digital and analog clocks - save enable state and disable them all */
 511              		.loc 1 81 0
 512              		.cfi_startproc
 513              		@ args = 0, pretend = 0, frame = 0
 514              		@ frame_needed = 0, uses_anonymous_args = 0
 515 0000 38B5     		push	{r3, r4, r5, lr}
 516              		.cfi_def_cfa_offset 16
 517              		.cfi_offset 3, -16
 518              		.cfi_offset 4, -12
 519              		.cfi_offset 5, -8
 520              		.cfi_offset 14, -4
  83:Generated_Source\PSoC5/cyPm.c ****     cyPmClockBackup.enClkD = CY_PM_ACT_CFG2_REG;
 521              		.loc 1 83 0
 522 0002 7449     		ldr	r1, .L66
  84:Generated_Source\PSoC5/cyPm.c ****     CY_PM_ACT_CFG1_REG &= ((uint8)(~CY_PM_ACT_EN_CLK_A_MASK));
 523              		.loc 1 84 0
 524 0004 744B     		ldr	r3, .L66+4
  83:Generated_Source\PSoC5/cyPm.c ****     cyPmClockBackup.enClkD = CY_PM_ACT_CFG2_REG;
 525              		.loc 1 83 0
 526 0006 0A78     		ldrb	r2, [r1]	@ zero_extendqisi2
  84:Generated_Source\PSoC5/cyPm.c ****     CY_PM_ACT_CFG1_REG &= ((uint8)(~CY_PM_ACT_EN_CLK_A_MASK));
 527              		.loc 1 84 0
 528 0008 1D78     		ldrb	r5, [r3]	@ zero_extendqisi2
  85:Generated_Source\PSoC5/cyPm.c ****     CY_PM_ACT_CFG2_REG &= ((uint8)(~CY_PM_ACT_EN_CLK_D_MASK));
 529              		.loc 1 85 0
 530 000a 0878     		ldrb	r0, [r1]	@ zero_extendqisi2
  86:Generated_Source\PSoC5/cyPm.c **** 
 531              		.loc 1 86 0
 532 000c 0024     		movs	r4, #0
  85:Generated_Source\PSoC5/cyPm.c ****     CY_PM_ACT_CFG2_REG &= ((uint8)(~CY_PM_ACT_EN_CLK_D_MASK));
 533              		.loc 1 85 0
 534 000e 00F0F000 		and	r0, r0, #240
 535 0012 0870     		strb	r0, [r1]
  86:Generated_Source\PSoC5/cyPm.c **** 
 536              		.loc 1 86 0
 537 0014 1878     		ldrb	r0, [r3]	@ zero_extendqisi2
 538 0016 1C70     		strb	r4, [r3]
ARM GAS  C:\Users\mgronber\AppData\Local\Temp\ccowRMf8.s 			page 44


  89:Generated_Source\PSoC5/cyPm.c ****     CyFlash_SetWaitCycles(CY_PM_MAX_FLASH_WAIT_CYCLES);
 539              		.loc 1 89 0
 540 0018 91F85F34 		ldrb	r3, [r1, #1119]	@ zero_extendqisi2
  83:Generated_Source\PSoC5/cyPm.c ****     cyPmClockBackup.enClkD = CY_PM_ACT_CFG2_REG;
 541              		.loc 1 83 0
 542 001c 6F4C     		ldr	r4, .L66+8
 543 001e 02F00F02 		and	r2, r2, #15
  89:Generated_Source\PSoC5/cyPm.c ****     CyFlash_SetWaitCycles(CY_PM_MAX_FLASH_WAIT_CYCLES);
 544              		.loc 1 89 0
 545 0022 03F0C003 		and	r3, r3, #192
  90:Generated_Source\PSoC5/cyPm.c **** 
 546              		.loc 1 90 0
 547 0026 3720     		movs	r0, #55
  83:Generated_Source\PSoC5/cyPm.c ****     cyPmClockBackup.enClkD = CY_PM_ACT_CFG2_REG;
 548              		.loc 1 83 0
 549 0028 84F83020 		strb	r2, [r4, #48]
  89:Generated_Source\PSoC5/cyPm.c ****     CyFlash_SetWaitCycles(CY_PM_MAX_FLASH_WAIT_CYCLES);
 550              		.loc 1 89 0
 551 002c 84F83530 		strb	r3, [r4, #53]
  84:Generated_Source\PSoC5/cyPm.c ****     CY_PM_ACT_CFG1_REG &= ((uint8)(~CY_PM_ACT_EN_CLK_A_MASK));
 552              		.loc 1 84 0
 553 0030 84F83150 		strb	r5, [r4, #49]
  90:Generated_Source\PSoC5/cyPm.c **** 
 554              		.loc 1 90 0
 555 0034 FFF7FEFF 		bl	CyFlash_SetWaitCycles
 556              	.LVL0:
  93:Generated_Source\PSoC5/cyPm.c ****     cyPmClockBackup.imoUsbClk = CY_PM_FASTCLK_IMO_CR_REG & CY_PM_FASTCLK_IMO_CR_USB;
 557              		.loc 1 93 0
 558 0038 694B     		ldr	r3, .L66+12
 559 003a 1978     		ldrb	r1, [r3]	@ zero_extendqisi2
  94:Generated_Source\PSoC5/cyPm.c **** 
 560              		.loc 1 94 0
 561 003c 1A78     		ldrb	r2, [r3]	@ zero_extendqisi2
  97:Generated_Source\PSoC5/cyPm.c ****     {
 562              		.loc 1 97 0
 563 003e 1B78     		ldrb	r3, [r3]	@ zero_extendqisi2
  94:Generated_Source\PSoC5/cyPm.c **** 
 564              		.loc 1 94 0
 565 0040 02F04002 		and	r2, r2, #64
  93:Generated_Source\PSoC5/cyPm.c ****     cyPmClockBackup.imoUsbClk = CY_PM_FASTCLK_IMO_CR_REG & CY_PM_FASTCLK_IMO_CR_USB;
 566              		.loc 1 93 0
 567 0044 01F00701 		and	r1, r1, #7
  97:Generated_Source\PSoC5/cyPm.c ****     {
 568              		.loc 1 97 0
 569 0048 03F01003 		and	r3, r3, #16
  94:Generated_Source\PSoC5/cyPm.c **** 
 570              		.loc 1 94 0
 571 004c 84F83420 		strb	r2, [r4, #52]
  93:Generated_Source\PSoC5/cyPm.c ****     cyPmClockBackup.imoUsbClk = CY_PM_FASTCLK_IMO_CR_REG & CY_PM_FASTCLK_IMO_CR_USB;
 572              		.loc 1 93 0
 573 0050 84F83310 		strb	r1, [r4, #51]
  97:Generated_Source\PSoC5/cyPm.c ****     {
 574              		.loc 1 97 0
 575 0054 03F0FF02 		and	r2, r3, #255
 576 0058 002B     		cmp	r3, #0
 577 005a 75D0     		beq	.L15
 100:Generated_Source\PSoC5/cyPm.c ****     }
ARM GAS  C:\Users\mgronber\AppData\Local\Temp\ccowRMf8.s 			page 45


 578              		.loc 1 100 0
 579 005c 0123     		movs	r3, #1
 580 005e 84F83930 		strb	r3, [r4, #57]
 581              	.L16:
 109:Generated_Source\PSoC5/cyPm.c **** 
 582              		.loc 1 109 0
 583 0062 604B     		ldr	r3, .L66+16
 584 0064 1B78     		ldrb	r3, [r3]	@ zero_extendqisi2
 585 0066 03F00303 		and	r3, r3, #3
 112:Generated_Source\PSoC5/cyPm.c ****     {
 586              		.loc 1 112 0
 587 006a 012B     		cmp	r3, #1
 109:Generated_Source\PSoC5/cyPm.c **** 
 588              		.loc 1 109 0
 589 006c 84F83230 		strb	r3, [r4, #50]
 112:Generated_Source\PSoC5/cyPm.c ****     {
 590              		.loc 1 112 0
 591 0070 00F09580 		beq	.L57
 592              	.L17:
 135:Generated_Source\PSoC5/cyPm.c ****     {
 593              		.loc 1 135 0
 594 0074 5C4B     		ldr	r3, .L66+20
 595 0076 1B78     		ldrb	r3, [r3]	@ zero_extendqisi2
 596 0078 13F00103 		ands	r3, r3, #1
 597 007c 40F08980 		bne	.L58
 144:Generated_Source\PSoC5/cyPm.c ****     }
 598              		.loc 1 144 0
 599 0080 84F83E30 		strb	r3, [r4, #62]
 600              	.L23:
 148:Generated_Source\PSoC5/cyPm.c **** 
 601              		.loc 1 148 0
 602 0084 0220     		movs	r0, #2
 603 0086 FFF7FEFF 		bl	CyIMO_SetFreq
 604              	.LVL1:
 151:Generated_Source\PSoC5/cyPm.c ****     {
 605              		.loc 1 151 0
 606 008a 584B     		ldr	r3, .L66+24
 607 008c 1B78     		ldrb	r3, [r3]	@ zero_extendqisi2
 608 008e 03F01003 		and	r3, r3, #16
 609 0092 03F0FF02 		and	r2, r3, #255
 610 0096 002B     		cmp	r3, #0
 611 0098 72D0     		beq	.L24
 154:Generated_Source\PSoC5/cyPm.c ****     }
 612              		.loc 1 154 0
 613 009a 0123     		movs	r3, #1
 614 009c 84F83630 		strb	r3, [r4, #54]
 615              	.L25:
 169:Generated_Source\PSoC5/cyPm.c ****     {
 616              		.loc 1 169 0
 617 00a0 4F4B     		ldr	r3, .L66+12
 618 00a2 1B78     		ldrb	r3, [r3]	@ zero_extendqisi2
 619 00a4 03F02003 		and	r3, r3, #32
 620 00a8 03F0FF02 		and	r2, r3, #255
 621 00ac 002B     		cmp	r3, #0
 622 00ae 48D0     		beq	.L26
 173:Generated_Source\PSoC5/cyPm.c **** 
 623              		.loc 1 173 0
ARM GAS  C:\Users\mgronber\AppData\Local\Temp\ccowRMf8.s 			page 46


 624 00b0 4FF04023 		mov	r3, #1073758208
 625 00b4 1B78     		ldrb	r3, [r3]	@ zero_extendqisi2
 176:Generated_Source\PSoC5/cyPm.c ****     }
 626              		.loc 1 176 0
 627 00b6 0020     		movs	r0, #0
 172:Generated_Source\PSoC5/cyPm.c ****             (0u == (CY_PM_CLKDIST_CR_REG & CY_PM_CLKDIST_IMO2X_SRC)) ? CY_IMO_SOURCE_DSI : CY_IMO_S
 628              		.loc 1 172 0
 629 00b8 13F0400F 		tst	r3, #64
 630 00bc 0CBF     		ite	eq
 631 00be 0223     		moveq	r3, #2
 632 00c0 0123     		movne	r3, #1
 633 00c2 84F83730 		strb	r3, [r4, #55]
 176:Generated_Source\PSoC5/cyPm.c ****     }
 634              		.loc 1 176 0
 635 00c6 FFF7FEFF 		bl	CyIMO_SetSource
 636              	.LVL2:
 637              	.L28:
 185:Generated_Source\PSoC5/cyPm.c **** 
 638              		.loc 1 185 0
 639 00ca 4FF04022 		mov	r2, #1073758208
 640 00ce 1378     		ldrb	r3, [r2]	@ zero_extendqisi2
 641 00d0 03F03003 		and	r3, r3, #48
 642 00d4 84F83830 		strb	r3, [r4, #56]
 188:Generated_Source\PSoC5/cyPm.c ****     {
 643              		.loc 1 188 0
 644 00d8 1BB1     		cbz	r3, .L29
 191:Generated_Source\PSoC5/cyPm.c ****                                 CY_PM_CLKDIST_IMO_OUT_IMO;
 645              		.loc 1 191 0
 646 00da 1378     		ldrb	r3, [r2]	@ zero_extendqisi2
 647 00dc 03F0CF03 		and	r3, r3, #207
 648 00e0 1370     		strb	r3, [r2]
 649              	.L29:
 196:Generated_Source\PSoC5/cyPm.c ****     {
 650              		.loc 1 196 0
 651 00e2 3F4B     		ldr	r3, .L66+12
 652 00e4 1B78     		ldrb	r3, [r3]	@ zero_extendqisi2
 653 00e6 DB06     		lsls	r3, r3, #27
 654 00e8 47D4     		bmi	.L59
 655              	.L30:
 202:Generated_Source\PSoC5/cyPm.c ****     if(CY_PM_DIV_BY_ONE != cyPmClockBackup.clkSyncDiv)
 656              		.loc 1 202 0
 657 00ea 414B     		ldr	r3, .L66+28
 658 00ec 1B78     		ldrb	r3, [r3]	@ zero_extendqisi2
 659 00ee DBB2     		uxtb	r3, r3
 660 00f0 84F83A30 		strb	r3, [r4, #58]
 203:Generated_Source\PSoC5/cyPm.c ****     {
 661              		.loc 1 203 0
 662 00f4 002B     		cmp	r3, #0
 663 00f6 3CD1     		bne	.L60
 664              	.L31:
 209:Generated_Source\PSoC5/cyPm.c ****     {
 665              		.loc 1 209 0
 666 00f8 94F83230 		ldrb	r3, [r4, #50]	@ zero_extendqisi2
 667 00fc 002B     		cmp	r3, #0
 668 00fe 34D1     		bne	.L61
 669              	.L32:
 215:Generated_Source\PSoC5/cyPm.c ****     cyPmClockBackup.clkBusDiv |= CY_PM_CLK_BUS_LSB_DIV_REG;
ARM GAS  C:\Users\mgronber\AppData\Local\Temp\ccowRMf8.s 			page 47


 670              		.loc 1 215 0
 671 0100 3C4A     		ldr	r2, .L66+32
 216:Generated_Source\PSoC5/cyPm.c ****     if(CY_PM_BUS_CLK_DIV_BY_ONE != cyPmClockBackup.clkBusDiv)
 672              		.loc 1 216 0
 673 0102 3D4B     		ldr	r3, .L66+36
 215:Generated_Source\PSoC5/cyPm.c ****     cyPmClockBackup.clkBusDiv |= CY_PM_CLK_BUS_LSB_DIV_REG;
 674              		.loc 1 215 0
 675 0104 1278     		ldrb	r2, [r2]	@ zero_extendqisi2
 216:Generated_Source\PSoC5/cyPm.c ****     if(CY_PM_BUS_CLK_DIV_BY_ONE != cyPmClockBackup.clkBusDiv)
 676              		.loc 1 216 0
 677 0106 1B78     		ldrb	r3, [r3]	@ zero_extendqisi2
 215:Generated_Source\PSoC5/cyPm.c ****     cyPmClockBackup.clkBusDiv |= CY_PM_CLK_BUS_LSB_DIV_REG;
 678              		.loc 1 215 0
 679 0108 1202     		lsls	r2, r2, #8
 216:Generated_Source\PSoC5/cyPm.c ****     if(CY_PM_BUS_CLK_DIV_BY_ONE != cyPmClockBackup.clkBusDiv)
 680              		.loc 1 216 0
 681 010a 1343     		orrs	r3, r3, r2
 682 010c A387     		strh	r3, [r4, #60]	@ movhi
 217:Generated_Source\PSoC5/cyPm.c ****     {
 683              		.loc 1 217 0
 684 010e 43BB     		cbnz	r3, .L62
 685              	.L33:
 223:Generated_Source\PSoC5/cyPm.c **** 
 686              		.loc 1 223 0
 687 0110 334B     		ldr	r3, .L66+12
 688 0112 3A4A     		ldr	r2, .L66+40
 689 0114 1B78     		ldrb	r3, [r3]	@ zero_extendqisi2
 690 0116 03F00703 		and	r3, r3, #7
 691 011a D05C     		ldrb	r0, [r2, r3]	@ zero_extendqisi2
 692 011c FFF7FEFF 		bl	CyFlash_SetWaitCycles
 693              	.LVL3:
 226:Generated_Source\PSoC5/cyPm.c ****     {
 694              		.loc 1 226 0
 695 0120 374B     		ldr	r3, .L66+44
 696 0122 1B78     		ldrb	r3, [r3]	@ zero_extendqisi2
 697 0124 13F00103 		ands	r3, r3, #1
 698 0128 15D1     		bne	.L63
 235:Generated_Source\PSoC5/cyPm.c ****     }
 699              		.loc 1 235 0
 700 012a 84F83F30 		strb	r3, [r4, #63]
 701              	.L35:
 244:Generated_Source\PSoC5/cyPm.c ****     {
 702              		.loc 1 244 0
 703 012e 354B     		ldr	r3, .L66+48
 704 0130 1B78     		ldrb	r3, [r3]	@ zero_extendqisi2
 705 0132 03F00403 		and	r3, r3, #4
 706 0136 03F0FF02 		and	r2, r3, #255
 707 013a 43B9     		cbnz	r3, .L64
 250:Generated_Source\PSoC5/cyPm.c ****     }
 708              		.loc 1 250 0
 709 013c 84F84020 		strb	r2, [r4, #64]
 710 0140 38BD     		pop	{r3, r4, r5, pc}
 711              	.L26:
 181:Generated_Source\PSoC5/cyPm.c ****     }
 712              		.loc 1 181 0
 713 0142 84F83720 		strb	r2, [r4, #55]
 714 0146 C0E7     		b	.L28
ARM GAS  C:\Users\mgronber\AppData\Local\Temp\ccowRMf8.s 			page 48


 715              	.L15:
 105:Generated_Source\PSoC5/cyPm.c ****     }
 716              		.loc 1 105 0
 717 0148 84F83920 		strb	r2, [r4, #57]
 718 014c 89E7     		b	.L16
 719              	.L64:
 246:Generated_Source\PSoC5/cyPm.c ****     }
 720              		.loc 1 246 0
 721 014e 0123     		movs	r3, #1
 722 0150 84F84030 		strb	r3, [r4, #64]
 723 0154 38BD     		pop	{r3, r4, r5, pc}
 724              	.L63:
 229:Generated_Source\PSoC5/cyPm.c ****         CyXTAL_Stop();
 725              		.loc 1 229 0
 726 0156 0123     		movs	r3, #1
 727 0158 84F83F30 		strb	r3, [r4, #63]
 230:Generated_Source\PSoC5/cyPm.c ****     }
 728              		.loc 1 230 0
 729 015c FFF7FEFF 		bl	CyXTAL_Stop
 730              	.LVL4:
 731 0160 E5E7     		b	.L35
 732              	.L62:
 219:Generated_Source\PSoC5/cyPm.c ****     }    /* Do nothing if saved and actual values are equal */
 733              		.loc 1 219 0
 734 0162 0020     		movs	r0, #0
 735 0164 FFF7FEFF 		bl	CyBusClk_SetDivider
 736              	.LVL5:
 737 0168 D2E7     		b	.L33
 738              	.L61:
 211:Generated_Source\PSoC5/cyPm.c ****     }    /* No change if master clock source is IMO */
 739              		.loc 1 211 0
 740 016a 0020     		movs	r0, #0
 741 016c FFF7FEFF 		bl	CyMasterClk_SetSource
 742              	.LVL6:
 743 0170 C6E7     		b	.L32
 744              	.L60:
 205:Generated_Source\PSoC5/cyPm.c ****     }    /* No change if master clock divider is 1 */
 745              		.loc 1 205 0
 746 0172 0020     		movs	r0, #0
 747 0174 FFF7FEFF 		bl	CyMasterClk_SetDivider
 748              	.LVL7:
 749 0178 BEE7     		b	.L31
 750              	.L59:
 198:Generated_Source\PSoC5/cyPm.c ****     }
 751              		.loc 1 198 0
 752 017a FFF7FEFF 		bl	CyIMO_DisableDoubler
 753              	.LVL8:
 754 017e B4E7     		b	.L30
 755              	.L24:
 162:Generated_Source\PSoC5/cyPm.c **** 
 756              		.loc 1 162 0
 757 0180 1046     		mov	r0, r2
 159:Generated_Source\PSoC5/cyPm.c **** 
 758              		.loc 1 159 0
 759 0182 84F83620 		strb	r2, [r4, #54]
 162:Generated_Source\PSoC5/cyPm.c **** 
 760              		.loc 1 162 0
ARM GAS  C:\Users\mgronber\AppData\Local\Temp\ccowRMf8.s 			page 49


 761 0186 FFF7FEFF 		bl	CyIMO_Start
 762              	.LVL9:
 165:Generated_Source\PSoC5/cyPm.c ****     }
 763              		.loc 1 165 0
 764 018a 0620     		movs	r0, #6
 765 018c FFF7FEFF 		bl	CyDelayUs
 766              	.LVL10:
 767 0190 86E7     		b	.L25
 768              	.L58:
 138:Generated_Source\PSoC5/cyPm.c ****         CyPLL_OUT_Stop();
 769              		.loc 1 138 0
 770 0192 0123     		movs	r3, #1
 771 0194 84F83E30 		strb	r3, [r4, #62]
 139:Generated_Source\PSoC5/cyPm.c ****     }
 772              		.loc 1 139 0
 773 0198 FFF7FEFF 		bl	CyPLL_OUT_Stop
 774              	.LVL11:
 775 019c 72E7     		b	.L23
 776              	.L57:
 114:Generated_Source\PSoC5/cyPm.c ****         {
 777              		.loc 1 114 0
 778 019e 4FF04023 		mov	r3, #1073758208
 779 01a2 1B78     		ldrb	r3, [r3]	@ zero_extendqisi2
 780 01a4 03F00303 		and	r3, r3, #3
 781 01a8 012B     		cmp	r3, #1
 782 01aa 0AD0     		beq	.L19
 783 01ac 05D3     		bcc	.L20
 784 01ae 022B     		cmp	r3, #2
 785 01b0 0BD1     		bne	.L65
 125:Generated_Source\PSoC5/cyPm.c ****             break;
 786              		.loc 1 125 0
 787 01b2 0320     		movs	r0, #3
 788 01b4 FFF7FEFF 		bl	CyMasterClk_SetSource
 789              	.LVL12:
 126:Generated_Source\PSoC5/cyPm.c **** 
 790              		.loc 1 126 0
 791 01b8 5CE7     		b	.L17
 792              	.L20:
 117:Generated_Source\PSoC5/cyPm.c ****             break;
 793              		.loc 1 117 0
 794 01ba 0020     		movs	r0, #0
 795 01bc FFF7FEFF 		bl	CyMasterClk_SetSource
 796              	.LVL13:
 118:Generated_Source\PSoC5/cyPm.c **** 
 797              		.loc 1 118 0
 798 01c0 58E7     		b	.L17
 799              	.L19:
 121:Generated_Source\PSoC5/cyPm.c ****             break;
 800              		.loc 1 121 0
 801 01c2 0220     		movs	r0, #2
 802 01c4 FFF7FEFF 		bl	CyMasterClk_SetSource
 803              	.LVL14:
 122:Generated_Source\PSoC5/cyPm.c **** 
 804              		.loc 1 122 0
 805 01c8 54E7     		b	.L17
 806              	.L65:
 129:Generated_Source\PSoC5/cyPm.c ****             break;
ARM GAS  C:\Users\mgronber\AppData\Local\Temp\ccowRMf8.s 			page 50


 807              		.loc 1 129 0 discriminator 1
 808 01ca 0020     		movs	r0, #0
 809 01cc FFF7FEFF 		bl	CyHalt
 810              	.LVL15:
 130:Generated_Source\PSoC5/cyPm.c ****         }
 811              		.loc 1 130 0 discriminator 1
 812 01d0 50E7     		b	.L17
 813              	.L67:
 814 01d2 00BF     		.align	2
 815              	.L66:
 816 01d4 A1430040 		.word	1073759137
 817 01d8 A2430040 		.word	1073759138
 818 01dc 00000000 		.word	.LANCHOR0
 819 01e0 00420040 		.word	1073758720
 820 01e4 05400040 		.word	1073758213
 821 01e8 20420040 		.word	1073758752
 822 01ec A0430040 		.word	1073759136
 823 01f0 04400040 		.word	1073758212
 824 01f4 07400040 		.word	1073758215
 825 01f8 06400040 		.word	1073758214
 826 01fc 00000000 		.word	.LANCHOR1
 827 0200 10420040 		.word	1073758736
 828 0204 0B400040 		.word	1073758219
 829              		.cfi_endproc
 830              	.LFE0:
 831              		.size	CyPmSaveClocks, .-CyPmSaveClocks
 832              		.section	.text.CyPmRestoreClocks,"ax",%progbits
 833              		.align	2
 834              		.global	CyPmRestoreClocks
 835              		.thumb
 836              		.thumb_func
 837              		.type	CyPmRestoreClocks, %function
 838              	CyPmRestoreClocks:
 839              	.LFB1:
 283:Generated_Source\PSoC5/cyPm.c ****     cystatus status = CYRET_TIMEOUT;
 840              		.loc 1 283 0
 841              		.cfi_startproc
 842              		@ args = 0, pretend = 0, frame = 8
 843              		@ frame_needed = 0, uses_anonymous_args = 0
 844              	.LVL16:
 845 0000 2DE9F043 		push	{r4, r5, r6, r7, r8, r9, lr}
 846              		.cfi_def_cfa_offset 28
 847              		.cfi_offset 4, -28
 848              		.cfi_offset 5, -24
 849              		.cfi_offset 6, -20
 850              		.cfi_offset 7, -16
 851              		.cfi_offset 8, -12
 852              		.cfi_offset 9, -8
 853              		.cfi_offset 14, -4
 290:Generated_Source\PSoC5/cyPm.c ****         CY_IMO_FREQ_12MHZ, CY_IMO_FREQ_6MHZ,  CY_IMO_FREQ_24MHZ, CY_IMO_FREQ_3MHZ,
 854              		.loc 1 290 0
 855 0004 814E     		ldr	r6, .L111
 295:Generated_Source\PSoC5/cyPm.c ****     {
 856              		.loc 1 295 0
 857 0006 824D     		ldr	r5, .L111+4
 290:Generated_Source\PSoC5/cyPm.c ****         CY_IMO_FREQ_12MHZ, CY_IMO_FREQ_6MHZ,  CY_IMO_FREQ_24MHZ, CY_IMO_FREQ_3MHZ,
 858              		.loc 1 290 0
ARM GAS  C:\Users\mgronber\AppData\Local\Temp\ccowRMf8.s 			page 51


 859 0008 3346     		mov	r3, r6
 860 000a 53F8080F 		ldr	r0, [r3, #8]!	@ unaligned
 295:Generated_Source\PSoC5/cyPm.c ****     {
 861              		.loc 1 295 0
 862 000e 95F84020 		ldrb	r2, [r5, #64]	@ zero_extendqisi2
 290:Generated_Source\PSoC5/cyPm.c ****         CY_IMO_FREQ_12MHZ, CY_IMO_FREQ_6MHZ,  CY_IMO_FREQ_24MHZ, CY_IMO_FREQ_3MHZ,
 863              		.loc 1 290 0
 864 0012 9988     		ldrh	r1, [r3, #4]	@ unaligned
 865 0014 9B79     		ldrb	r3, [r3, #6]	@ zero_extendqisi2
 283:Generated_Source\PSoC5/cyPm.c ****     cystatus status = CYRET_TIMEOUT;
 866              		.loc 1 283 0
 867 0016 83B0     		sub	sp, sp, #12
 868              		.cfi_def_cfa_offset 40
 295:Generated_Source\PSoC5/cyPm.c ****     {
 869              		.loc 1 295 0
 870 0018 012A     		cmp	r2, #1
 290:Generated_Source\PSoC5/cyPm.c ****         CY_IMO_FREQ_12MHZ, CY_IMO_FREQ_6MHZ,  CY_IMO_FREQ_24MHZ, CY_IMO_FREQ_3MHZ,
 871              		.loc 1 290 0
 872 001a 0090     		str	r0, [sp]	@ unaligned
 873 001c ADF80410 		strh	r1, [sp, #4]	@ unaligned
 874 0020 8DF80630 		strb	r3, [sp, #6]
 295:Generated_Source\PSoC5/cyPm.c ****     {
 875              		.loc 1 295 0
 876 0024 00F0A180 		beq	.L104
 305:Generated_Source\PSoC5/cyPm.c ****     {
 877              		.loc 1 305 0
 878 0028 95F83F30 		ldrb	r3, [r5, #63]	@ zero_extendqisi2
 879 002c 012B     		cmp	r3, #1
 880 002e 00F0B180 		beq	.L70
 881              	.L73:
 348:Generated_Source\PSoC5/cyPm.c **** 
 882              		.loc 1 348 0
 883 0032 3720     		movs	r0, #55
 884 0034 FFF7FEFF 		bl	CyFlash_SetWaitCycles
 885              	.LVL17:
 351:Generated_Source\PSoC5/cyPm.c ****        (CY_PM_MASTER_CLK_SRC_DSI  == cyPmClockBackup.masterClkSrc))
 886              		.loc 1 351 0
 887 0038 95F83200 		ldrb	r0, [r5, #50]	@ zero_extendqisi2
 888 003c 744C     		ldr	r4, .L111+4
 889 003e 831E     		subs	r3, r0, #2
 890 0040 012B     		cmp	r3, #1
 891 0042 7ED9     		bls	.L105
 892              	.L72:
 366:Generated_Source\PSoC5/cyPm.c ****         (CY_IMO_FREQ_24MHZ == cyPmImoFreqMhz2Reg[cyPmClockBackup.imoFreq]))
 893              		.loc 1 366 0
 894 0044 724B     		ldr	r3, .L111+4
 895 0046 95F83420 		ldrb	r2, [r5, #52]	@ zero_extendqisi2
 367:Generated_Source\PSoC5/cyPm.c ****     {
 896              		.loc 1 367 0
 897 004a 93F83330 		ldrb	r3, [r3, #51]	@ zero_extendqisi2
 366:Generated_Source\PSoC5/cyPm.c ****         (CY_IMO_FREQ_24MHZ == cyPmImoFreqMhz2Reg[cyPmClockBackup.imoFreq]))
 898              		.loc 1 366 0
 899 004e 12F0400F 		tst	r2, #64
 367:Generated_Source\PSoC5/cyPm.c ****     {
 900              		.loc 1 367 0
 901 0052 02AA     		add	r2, sp, #8
 902 0054 1344     		add	r3, r3, r2
ARM GAS  C:\Users\mgronber\AppData\Local\Temp\ccowRMf8.s 			page 52


 903 0056 13F8080C 		ldrb	r0, [r3, #-8]	@ zero_extendqisi2
 366:Generated_Source\PSoC5/cyPm.c ****         (CY_IMO_FREQ_24MHZ == cyPmImoFreqMhz2Reg[cyPmClockBackup.imoFreq]))
 904              		.loc 1 366 0
 905 005a 02D0     		beq	.L77
 366:Generated_Source\PSoC5/cyPm.c ****         (CY_IMO_FREQ_24MHZ == cyPmImoFreqMhz2Reg[cyPmClockBackup.imoFreq]))
 906              		.loc 1 366 0 is_stmt 0 discriminator 1
 907 005c 0328     		cmp	r0, #3
 908 005e 00F0D180 		beq	.L106
 909              	.L77:
 375:Generated_Source\PSoC5/cyPm.c **** 
 910              		.loc 1 375 0 is_stmt 1
 911 0062 FFF7FEFF 		bl	CyIMO_SetFreq
 912              	.LVL18:
 377:Generated_Source\PSoC5/cyPm.c ****         {
 913              		.loc 1 377 0
 914 0066 95F83430 		ldrb	r3, [r5, #52]	@ zero_extendqisi2
 379:Generated_Source\PSoC5/cyPm.c ****         }
 915              		.loc 1 379 0
 916 006a 6A4A     		ldr	r2, .L111+8
 377:Generated_Source\PSoC5/cyPm.c ****         {
 917              		.loc 1 377 0
 918 006c 13F0400F 		tst	r3, #64
 379:Generated_Source\PSoC5/cyPm.c ****         }
 919              		.loc 1 379 0
 920 0070 1378     		ldrb	r3, [r2]	@ zero_extendqisi2
 921 0072 14BF     		ite	ne
 922 0074 43F04003 		orrne	r3, r3, #64
 383:Generated_Source\PSoC5/cyPm.c ****         }
 923              		.loc 1 383 0
 924 0078 03F0BF03 		andeq	r3, r3, #191
 925 007c 1370     		strb	r3, [r2]
 926              	.L78:
 388:Generated_Source\PSoC5/cyPm.c ****        (0u == (CY_PM_ACT_CFG0_IMO & CY_PM_ACT_CFG0_REG)))
 927              		.loc 1 388 0
 928 007e 95F83630 		ldrb	r3, [r5, #54]	@ zero_extendqisi2
 929 0082 012B     		cmp	r3, #1
 930 0084 44D0     		beq	.L107
 931              	.L80:
 396:Generated_Source\PSoC5/cyPm.c **** 
 932              		.loc 1 396 0
 933 0086 95F83700 		ldrb	r0, [r5, #55]	@ zero_extendqisi2
 934 008a FFF7FEFF 		bl	CyIMO_SetSource
 935              	.LVL19:
 399:Generated_Source\PSoC5/cyPm.c ****     {
 936              		.loc 1 399 0
 937 008e 95F83930 		ldrb	r3, [r5, #57]	@ zero_extendqisi2
 938 0092 012B     		cmp	r3, #1
 939 0094 66D0     		beq	.L108
 940              	.L81:
 405:Generated_Source\PSoC5/cyPm.c ****     {
 941              		.loc 1 405 0
 942 0096 4FF04021 		mov	r1, #1073758208
 943 009a 0A78     		ldrb	r2, [r1]	@ zero_extendqisi2
 944 009c 95F83830 		ldrb	r3, [r5, #56]	@ zero_extendqisi2
 945 00a0 02F03002 		and	r2, r2, #48
 946 00a4 9A42     		cmp	r2, r3
 947 00a6 04D0     		beq	.L82
ARM GAS  C:\Users\mgronber\AppData\Local\Temp\ccowRMf8.s 			page 53


 407:Generated_Source\PSoC5/cyPm.c ****                                 cyPmClockBackup.clkImoSrc;
 948              		.loc 1 407 0
 949 00a8 0A78     		ldrb	r2, [r1]	@ zero_extendqisi2
 950 00aa 02F0CF02 		and	r2, r2, #207
 951 00ae 1343     		orrs	r3, r3, r2
 952 00b0 0B70     		strb	r3, [r1]
 953              	.L82:
 413:Generated_Source\PSoC5/cyPm.c ****     {
 954              		.loc 1 413 0
 955 00b2 95F83E30 		ldrb	r3, [r5, #62]	@ zero_extendqisi2
 956 00b6 012B     		cmp	r3, #1
 957 00b8 00F08A80 		beq	.L83
 958              	.L87:
 457:Generated_Source\PSoC5/cyPm.c ****        (CY_PM_MASTER_CLK_SRC_PLL == cyPmClockBackup.masterClkSrc))
 959              		.loc 1 457 0
 960 00bc 95F83200 		ldrb	r0, [r5, #50]	@ zero_extendqisi2
 961 00c0 534C     		ldr	r4, .L111+4
 962 00c2 0128     		cmp	r0, #1
 963 00c4 2FD9     		bls	.L109
 964              	.L85:
 471:Generated_Source\PSoC5/cyPm.c ****        (0u != (CY_PM_ACT_CFG0_IMO & CY_PM_ACT_CFG0_REG)))
 965              		.loc 1 471 0
 966 00c6 95F83630 		ldrb	r3, [r5, #54]	@ zero_extendqisi2
 967 00ca 1BB9     		cbnz	r3, .L90
 472:Generated_Source\PSoC5/cyPm.c ****     {
 968              		.loc 1 472 0 discriminator 1
 969 00cc 524B     		ldr	r3, .L111+12
 970 00ce 1B78     		ldrb	r3, [r3]	@ zero_extendqisi2
 471:Generated_Source\PSoC5/cyPm.c ****        (0u != (CY_PM_ACT_CFG0_IMO & CY_PM_ACT_CFG0_REG)))
 971              		.loc 1 471 0 discriminator 1
 972 00d0 DB06     		lsls	r3, r3, #27
 973 00d2 44D4     		bmi	.L110
 974              	.L90:
 478:Generated_Source\PSoC5/cyPm.c ****     clkBusDivTmp |= CY_PM_CLK_BUS_LSB_DIV_REG;
 975              		.loc 1 478 0
 976 00d4 514A     		ldr	r2, .L111+16
 479:Generated_Source\PSoC5/cyPm.c ****     if(cyPmClockBackup.clkBusDiv != clkBusDivTmp)
 977              		.loc 1 479 0
 978 00d6 524B     		ldr	r3, .L111+20
 478:Generated_Source\PSoC5/cyPm.c ****     clkBusDivTmp |= CY_PM_CLK_BUS_LSB_DIV_REG;
 979              		.loc 1 478 0
 980 00d8 1278     		ldrb	r2, [r2]	@ zero_extendqisi2
 981              	.LVL20:
 479:Generated_Source\PSoC5/cyPm.c ****     if(cyPmClockBackup.clkBusDiv != clkBusDivTmp)
 982              		.loc 1 479 0
 983 00da 1B78     		ldrb	r3, [r3]	@ zero_extendqisi2
 984              	.LVL21:
 480:Generated_Source\PSoC5/cyPm.c ****     {
 985              		.loc 1 480 0
 986 00dc A88F     		ldrh	r0, [r5, #60]
 987 00de 43EA0223 		orr	r3, r3, r2, lsl #8
 988              	.LVL22:
 989 00e2 9842     		cmp	r0, r3
 990 00e4 01D0     		beq	.L91
 482:Generated_Source\PSoC5/cyPm.c ****     }
 991              		.loc 1 482 0
 992 00e6 FFF7FEFF 		bl	CyBusClk_SetDivider
ARM GAS  C:\Users\mgronber\AppData\Local\Temp\ccowRMf8.s 			page 54


 993              	.LVL23:
 994              	.L91:
 486:Generated_Source\PSoC5/cyPm.c ****                            cyPmClockBackup.flashWaitCycles);
 995              		.loc 1 486 0
 996 00ea 4E49     		ldr	r1, .L111+24
 997 00ec 95F83520 		ldrb	r2, [r5, #53]	@ zero_extendqisi2
 998 00f0 0B78     		ldrb	r3, [r1]	@ zero_extendqisi2
 490:Generated_Source\PSoC5/cyPm.c ****     CY_PM_ACT_CFG2_REG = cyPmClockBackup.enClkD;
 999              		.loc 1 490 0
 1000 00f2 95F83060 		ldrb	r6, [r5, #48]	@ zero_extendqisi2
 491:Generated_Source\PSoC5/cyPm.c **** }
 1001              		.loc 1 491 0
 1002 00f6 95F83140 		ldrb	r4, [r5, #49]	@ zero_extendqisi2
 1003 00fa 4B48     		ldr	r0, .L111+28
 490:Generated_Source\PSoC5/cyPm.c ****     CY_PM_ACT_CFG2_REG = cyPmClockBackup.enClkD;
 1004              		.loc 1 490 0
 1005 00fc 4B4D     		ldr	r5, .L111+32
 486:Generated_Source\PSoC5/cyPm.c ****                            cyPmClockBackup.flashWaitCycles);
 1006              		.loc 1 486 0
 1007 00fe 03F03F03 		and	r3, r3, #63
 1008 0102 1343     		orrs	r3, r3, r2
 1009 0104 0B70     		strb	r3, [r1]
 490:Generated_Source\PSoC5/cyPm.c ****     CY_PM_ACT_CFG2_REG = cyPmClockBackup.enClkD;
 1010              		.loc 1 490 0
 1011 0106 2E70     		strb	r6, [r5]
 491:Generated_Source\PSoC5/cyPm.c **** }
 1012              		.loc 1 491 0
 1013 0108 0470     		strb	r4, [r0]
 492:Generated_Source\PSoC5/cyPm.c **** 
 1014              		.loc 1 492 0
 1015 010a 03B0     		add	sp, sp, #12
 1016              		.cfi_remember_state
 1017              		.cfi_def_cfa_offset 28
 1018              		@ sp needed
 1019 010c BDE8F083 		pop	{r4, r5, r6, r7, r8, r9, pc}
 1020              	.L107:
 1021              		.cfi_restore_state
 389:Generated_Source\PSoC5/cyPm.c ****     {
 1022              		.loc 1 389 0 discriminator 1
 1023 0110 414B     		ldr	r3, .L111+12
 1024 0112 1B78     		ldrb	r3, [r3]	@ zero_extendqisi2
 1025 0114 03F01003 		and	r3, r3, #16
 388:Generated_Source\PSoC5/cyPm.c ****        (0u == (CY_PM_ACT_CFG0_IMO & CY_PM_ACT_CFG0_REG)))
 1026              		.loc 1 388 0 discriminator 1
 1027 0118 03F0FF00 		and	r0, r3, #255
 1028 011c 002B     		cmp	r3, #0
 1029 011e B2D1     		bne	.L80
 392:Generated_Source\PSoC5/cyPm.c ****     }
 1030              		.loc 1 392 0
 1031 0120 FFF7FEFF 		bl	CyIMO_Start
 1032              	.LVL24:
 1033 0124 AFE7     		b	.L80
 1034              	.L109:
 461:Generated_Source\PSoC5/cyPm.c ****         {
 1035              		.loc 1 461 0
 1036 0126 424A     		ldr	r2, .L111+36
 1037 0128 94F83A30 		ldrb	r3, [r4, #58]	@ zero_extendqisi2
ARM GAS  C:\Users\mgronber\AppData\Local\Temp\ccowRMf8.s 			page 55


 1038 012c 1278     		ldrb	r2, [r2]	@ zero_extendqisi2
 1039 012e 9A42     		cmp	r2, r3
 1040 0130 04D0     		beq	.L89
 463:Generated_Source\PSoC5/cyPm.c ****         }
 1041              		.loc 1 463 0
 1042 0132 1846     		mov	r0, r3
 1043 0134 FFF7FEFF 		bl	CyMasterClk_SetDivider
 1044              	.LVL25:
 1045 0138 94F83200 		ldrb	r0, [r4, #50]	@ zero_extendqisi2
 1046              	.L89:
 467:Generated_Source\PSoC5/cyPm.c ****     }
 1047              		.loc 1 467 0
 1048 013c FFF7FEFF 		bl	CyMasterClk_SetSource
 1049              	.LVL26:
 1050 0140 C1E7     		b	.L85
 1051              	.L105:
 355:Generated_Source\PSoC5/cyPm.c ****         {
 1052              		.loc 1 355 0
 1053 0142 3B4A     		ldr	r2, .L111+36
 1054 0144 94F83A30 		ldrb	r3, [r4, #58]	@ zero_extendqisi2
 1055 0148 1278     		ldrb	r2, [r2]	@ zero_extendqisi2
 1056 014a 9A42     		cmp	r2, r3
 1057 014c 04D0     		beq	.L75
 358:Generated_Source\PSoC5/cyPm.c ****         }
 1058              		.loc 1 358 0
 1059 014e 1846     		mov	r0, r3
 1060 0150 FFF7FEFF 		bl	CyMasterClk_SetDivider
 1061              	.LVL27:
 1062 0154 94F83200 		ldrb	r0, [r4, #50]	@ zero_extendqisi2
 1063              	.L75:
 362:Generated_Source\PSoC5/cyPm.c ****     }
 1064              		.loc 1 362 0
 1065 0158 FFF7FEFF 		bl	CyMasterClk_SetSource
 1066              	.LVL28:
 1067 015c 72E7     		b	.L72
 1068              	.L110:
 474:Generated_Source\PSoC5/cyPm.c ****     }
 1069              		.loc 1 474 0
 1070 015e FFF7FEFF 		bl	CyIMO_Stop
 1071              	.LVL29:
 1072 0162 B7E7     		b	.L90
 1073              	.L108:
 401:Generated_Source\PSoC5/cyPm.c ****     }
 1074              		.loc 1 401 0
 1075 0164 FFF7FEFF 		bl	CyIMO_EnableDoubler
 1076              	.LVL30:
 1077 0168 95E7     		b	.L81
 1078              	.L104:
 299:Generated_Source\PSoC5/cyPm.c **** 
 1079              		.loc 1 299 0
 1080 016a 2A4B     		ldr	r3, .L111+8
 1081 016c 1B78     		ldrb	r3, [r3]	@ zero_extendqisi2
 1082 016e 03F00703 		and	r3, r3, #7
 298:Generated_Source\PSoC5/cyPm.c ****                         CY_PM_GET_CPU_FREQ_MHZ);
 1083              		.loc 1 298 0
 1084 0172 F05C     		ldrb	r0, [r6, r3]	@ zero_extendqisi2
 1085 0174 00EB8000 		add	r0, r0, r0, lsl #2
ARM GAS  C:\Users\mgronber\AppData\Local\Temp\ccowRMf8.s 			page 56


 1086 0178 C0EB0010 		rsb	r0, r0, r0, lsl #4
 1087 017c FFF7FEFF 		bl	CyDelayCycles
 1088              	.LVL31:
 301:Generated_Source\PSoC5/cyPm.c ****     }
 1089              		.loc 1 301 0
 1090 0180 2C4A     		ldr	r2, .L111+40
 1091 0182 1378     		ldrb	r3, [r2]	@ zero_extendqisi2
 1092 0184 43F00403 		orr	r3, r3, #4
 1093 0188 1370     		strb	r3, [r2]
 305:Generated_Source\PSoC5/cyPm.c ****     {
 1094              		.loc 1 305 0
 1095 018a 95F83F30 		ldrb	r3, [r5, #63]	@ zero_extendqisi2
 1096 018e 012B     		cmp	r3, #1
 1097 0190 7FF44FAF 		bne	.L73
 1098              	.L70:
 315:Generated_Source\PSoC5/cyPm.c **** 
 1099              		.loc 1 315 0
 1100 0194 0020     		movs	r0, #0
 1101 0196 FFF7FEFF 		bl	CyXTAL_Start
 1102              	.LVL32:
 318:Generated_Source\PSoC5/cyPm.c **** 
 1103              		.loc 1 318 0
 1104 019a 274B     		ldr	r3, .L111+44
 324:Generated_Source\PSoC5/cyPm.c **** 
 1105              		.loc 1 324 0
 1106 019c DFF87490 		ldr	r9, .L111+8
 327:Generated_Source\PSoC5/cyPm.c ****             {
 1107              		.loc 1 327 0
 1108 01a0 9846     		mov	r8, r3
 318:Generated_Source\PSoC5/cyPm.c **** 
 1109              		.loc 1 318 0
 1110 01a2 1B78     		ldrb	r3, [r3]	@ zero_extendqisi2
 1111              	.LVL33:
 1112 01a4 0524     		movs	r4, #5
 324:Generated_Source\PSoC5/cyPm.c **** 
 1113              		.loc 1 324 0
 1114 01a6 C827     		movs	r7, #200
 1115              	.LVL34:
 1116              	.L74:
 1117 01a8 99F80030 		ldrb	r3, [r9]	@ zero_extendqisi2
 1118 01ac 013C     		subs	r4, r4, #1
 1119              	.LVL35:
 1120 01ae 03F00703 		and	r3, r3, #7
 1121 01b2 F05C     		ldrb	r0, [r6, r3]	@ zero_extendqisi2
 1122 01b4 A4B2     		uxth	r4, r4
 1123 01b6 07FB00F0 		mul	r0, r7, r0
 1124 01ba FFF7FEFF 		bl	CyDelayCycles
 1125              	.LVL36:
 327:Generated_Source\PSoC5/cyPm.c ****             {
 1126              		.loc 1 327 0
 1127 01be 98F80030 		ldrb	r3, [r8]	@ zero_extendqisi2
 1128 01c2 13F0800F 		tst	r3, #128
 1129 01c6 3FF434AF 		beq	.L73
 321:Generated_Source\PSoC5/cyPm.c ****         {
 1130              		.loc 1 321 0 discriminator 2
 1131 01ca 002C     		cmp	r4, #0
 1132 01cc ECD1     		bne	.L74
ARM GAS  C:\Users\mgronber\AppData\Local\Temp\ccowRMf8.s 			page 57


 1133 01ce 30E7     		b	.L73
 1134              	.L83:
 424:Generated_Source\PSoC5/cyPm.c **** 
 1135              		.loc 1 424 0
 1136 01d0 0020     		movs	r0, #0
 1137 01d2 FFF7FEFF 		bl	CyPLL_OUT_Start
 1138              	.LVL37:
 427:Generated_Source\PSoC5/cyPm.c ****         (void) CY_PM_FASTCLK_PLL_SR_REG;
 1139              		.loc 1 427 0
 1140 01d6 5020     		movs	r0, #80
 1141 01d8 FFF7FEFF 		bl	CyDelayUs
 1142              	.LVL38:
 428:Generated_Source\PSoC5/cyPm.c **** 
 1143              		.loc 1 428 0
 1144 01dc 174B     		ldr	r3, .L111+48
 1145 01de AB24     		movs	r4, #171
 436:Generated_Source\PSoC5/cyPm.c ****                (0u != (CY_PM_FASTCLK_PLL_SR_REG & CY_PM_FASTCLK_PLL_LOCKED)))
 1146              		.loc 1 436 0
 1147 01e0 1E46     		mov	r6, r3
 428:Generated_Source\PSoC5/cyPm.c **** 
 1148              		.loc 1 428 0
 1149 01e2 1B78     		ldrb	r3, [r3]	@ zero_extendqisi2
 1150              	.LVL39:
 1151              	.L88:
 433:Generated_Source\PSoC5/cyPm.c **** 
 1152              		.loc 1 433 0
 1153 01e4 0120     		movs	r0, #1
 1154 01e6 FFF7FEFF 		bl	CyDelayUs
 1155              	.LVL40:
 436:Generated_Source\PSoC5/cyPm.c ****                (0u != (CY_PM_FASTCLK_PLL_SR_REG & CY_PM_FASTCLK_PLL_LOCKED)))
 1156              		.loc 1 436 0
 1157 01ea 3378     		ldrb	r3, [r6]	@ zero_extendqisi2
 1158 01ec 013C     		subs	r4, r4, #1
 1159              	.LVL41:
 1160 01ee 13F0010F 		tst	r3, #1
 1161 01f2 A4B2     		uxth	r4, r4
 1162 01f4 03D0     		beq	.L86
 437:Generated_Source\PSoC5/cyPm.c ****             {
 1163              		.loc 1 437 0 discriminator 1
 1164 01f6 3378     		ldrb	r3, [r6]	@ zero_extendqisi2
 436:Generated_Source\PSoC5/cyPm.c ****                (0u != (CY_PM_FASTCLK_PLL_SR_REG & CY_PM_FASTCLK_PLL_LOCKED)))
 1165              		.loc 1 436 0 discriminator 1
 1166 01f8 DA07     		lsls	r2, r3, #31
 1167 01fa 3FF55FAF 		bmi	.L87
 1168              	.L86:
 431:Generated_Source\PSoC5/cyPm.c ****         {
 1169              		.loc 1 431 0 discriminator 2
 1170 01fe 002C     		cmp	r4, #0
 1171 0200 F0D1     		bne	.L88
 1172 0202 5BE7     		b	.L87
 1173              	.L106:
 370:Generated_Source\PSoC5/cyPm.c ****     }
 1174              		.loc 1 370 0
 1175 0204 0820     		movs	r0, #8
 1176 0206 FFF7FEFF 		bl	CyIMO_SetFreq
 1177              	.LVL42:
 1178 020a 38E7     		b	.L78
ARM GAS  C:\Users\mgronber\AppData\Local\Temp\ccowRMf8.s 			page 58


 1179              	.L112:
 1180              		.align	2
 1181              	.L111:
 1182 020c 00000000 		.word	.LANCHOR1
 1183 0210 00000000 		.word	.LANCHOR0
 1184 0214 00420040 		.word	1073758720
 1185 0218 A0430040 		.word	1073759136
 1186 021c 07400040 		.word	1073758215
 1187 0220 06400040 		.word	1073758214
 1188 0224 00480040 		.word	1073760256
 1189 0228 A2430040 		.word	1073759138
 1190 022c A1430040 		.word	1073759137
 1191 0230 04400040 		.word	1073758212
 1192 0234 0B400040 		.word	1073758219
 1193 0238 10420040 		.word	1073758736
 1194 023c 25420040 		.word	1073758757
 1195              		.cfi_endproc
 1196              	.LFE1:
 1197              		.size	CyPmRestoreClocks, .-CyPmRestoreClocks
 1198              		.section	.text.CyPmAltAct,"ax",%progbits
 1199              		.align	2
 1200              		.global	CyPmAltAct
 1201              		.thumb
 1202              		.thumb_func
 1203              		.type	CyPmAltAct, %function
 1204              	CyPmAltAct:
 1205              	.LFB2:
 637:Generated_Source\PSoC5/cyPm.c ****     #if(CY_PSOC5)
 1206              		.loc 1 637 0
 1207              		.cfi_startproc
 1208              		@ args = 0, pretend = 0, frame = 0
 1209              		@ frame_needed = 0, uses_anonymous_args = 0
 1210              	.LVL43:
 1211 0000 F8B5     		push	{r3, r4, r5, r6, r7, lr}
 1212              		.cfi_def_cfa_offset 24
 1213              		.cfi_offset 3, -24
 1214              		.cfi_offset 4, -20
 1215              		.cfi_offset 5, -16
 1216              		.cfi_offset 6, -12
 1217              		.cfi_offset 7, -8
 1218              		.cfi_offset 14, -4
 637:Generated_Source\PSoC5/cyPm.c ****     #if(CY_PSOC5)
 1219              		.loc 1 637 0
 1220 0002 0C46     		mov	r4, r1
 641:Generated_Source\PSoC5/cyPm.c **** 
 1221              		.loc 1 641 0
 1222 0004 10B1     		cbz	r0, .L114
 641:Generated_Source\PSoC5/cyPm.c **** 
 1223              		.loc 1 641 0 is_stmt 0 discriminator 1
 1224 0006 0020     		movs	r0, #0
 1225              	.LVL44:
 1226 0008 FFF7FEFF 		bl	CyHalt
 1227              	.LVL45:
 1228              	.L114:
 688:Generated_Source\PSoC5/cyPm.c ****     CY_PM_WAKEUP_CFG0_REG = (uint8) (wakeupSource >> 4u);
 1229              		.loc 1 688 0 is_stmt 1
 1230 000c 154D     		ldr	r5, .L119
ARM GAS  C:\Users\mgronber\AppData\Local\Temp\ccowRMf8.s 			page 59


 689:Generated_Source\PSoC5/cyPm.c **** 
 1231              		.loc 1 689 0
 1232 000e C4F30712 		ubfx	r2, r4, #4, #8
 692:Generated_Source\PSoC5/cyPm.c ****     CY_PM_WAKEUP_CFG1_REG = (((uint8) wakeupSource) & CY_PM_WAKEUP_SRC_CMPS_MASK);
 1233              		.loc 1 692 0
 1234 0012 1548     		ldr	r0, .L119+4
 688:Generated_Source\PSoC5/cyPm.c ****     CY_PM_WAKEUP_CFG0_REG = (uint8) (wakeupSource >> 4u);
 1235              		.loc 1 688 0
 1236 0014 95F800C0 		ldrb	ip, [r5]	@ zero_extendqisi2
 693:Generated_Source\PSoC5/cyPm.c **** 
 1237              		.loc 1 693 0
 1238 0018 04F00F03 		and	r3, r4, #15
 689:Generated_Source\PSoC5/cyPm.c **** 
 1239              		.loc 1 689 0
 1240 001c 2A70     		strb	r2, [r5]
 696:Generated_Source\PSoC5/cyPm.c ****     CY_PM_WAKEUP_CFG2_REG = ((uint8) ((wakeupSource >> 12u) & 0x01u));
 1241              		.loc 1 696 0
 1242 001e 1349     		ldr	r1, .L119+8
 692:Generated_Source\PSoC5/cyPm.c ****     CY_PM_WAKEUP_CFG1_REG = (((uint8) wakeupSource) & CY_PM_WAKEUP_SRC_CMPS_MASK);
 1243              		.loc 1 692 0
 1244 0020 90F800E0 		ldrb	lr, [r0]	@ zero_extendqisi2
 701:Generated_Source\PSoC5/cyPm.c **** 
 1245              		.loc 1 701 0
 1246 0024 124E     		ldr	r6, .L119+12
 693:Generated_Source\PSoC5/cyPm.c **** 
 1247              		.loc 1 693 0
 1248 0026 0370     		strb	r3, [r0]
 697:Generated_Source\PSoC5/cyPm.c **** 
 1249              		.loc 1 697 0
 1250 0028 C4F30034 		ubfx	r4, r4, #12, #1
 696:Generated_Source\PSoC5/cyPm.c ****     CY_PM_WAKEUP_CFG2_REG = ((uint8) ((wakeupSource >> 12u) & 0x01u));
 1251              		.loc 1 696 0
 1252 002c 0F78     		ldrb	r7, [r1]	@ zero_extendqisi2
 697:Generated_Source\PSoC5/cyPm.c **** 
 1253              		.loc 1 697 0
 1254 002e 0C70     		strb	r4, [r1]
 701:Generated_Source\PSoC5/cyPm.c **** 
 1255              		.loc 1 701 0
 1256 0030 3278     		ldrb	r2, [r6]	@ zero_extendqisi2
 688:Generated_Source\PSoC5/cyPm.c ****     CY_PM_WAKEUP_CFG0_REG = (uint8) (wakeupSource >> 4u);
 1257              		.loc 1 688 0
 1258 0032 104B     		ldr	r3, .L119+16
 701:Generated_Source\PSoC5/cyPm.c **** 
 1259              		.loc 1 701 0
 1260 0034 02F0F802 		and	r2, r2, #248
 1261 0038 42F00102 		orr	r2, r2, #1
 1262 003c 3270     		strb	r2, [r6]
 688:Generated_Source\PSoC5/cyPm.c ****     CY_PM_WAKEUP_CFG0_REG = (uint8) (wakeupSource >> 4u);
 1263              		.loc 1 688 0
 1264 003e 83F804C0 		strb	ip, [r3, #4]
 692:Generated_Source\PSoC5/cyPm.c ****     CY_PM_WAKEUP_CFG1_REG = (((uint8) wakeupSource) & CY_PM_WAKEUP_SRC_CMPS_MASK);
 1265              		.loc 1 692 0
 1266 0042 83F805E0 		strb	lr, [r3, #5]
 696:Generated_Source\PSoC5/cyPm.c ****     CY_PM_WAKEUP_CFG2_REG = ((uint8) ((wakeupSource >> 12u) & 0x01u));
 1267              		.loc 1 696 0
 1268 0046 9F71     		strb	r7, [r3, #6]
 704:Generated_Source\PSoC5/cyPm.c **** 
ARM GAS  C:\Users\mgronber\AppData\Local\Temp\ccowRMf8.s 			page 60


 1269              		.loc 1 704 0
 1270 0048 3278     		ldrb	r2, [r6]	@ zero_extendqisi2
 707:Generated_Source\PSoC5/cyPm.c ****     CY_NOP;
 1271              		.loc 1 707 0
 1272              	@ 707 "Generated_Source\PSoC5\cyPm.c" 1
 1273 004a 00BF     		NOP
 1274              	
 1275              	@ 0 "" 2
 708:Generated_Source\PSoC5/cyPm.c **** 
 1276              		.loc 1 708 0
 1277              	@ 708 "Generated_Source\PSoC5\cyPm.c" 1
 1278 004c 00BF     		NOP
 1279              	
 1280              	@ 0 "" 2
 711:Generated_Source\PSoC5/cyPm.c **** 
 1281              		.loc 1 711 0
 1282              	@ 711 "Generated_Source\PSoC5\cyPm.c" 1
 1283 004e 30BF     		WFI 
 1284              	
 1285              	@ 0 "" 2
 716:Generated_Source\PSoC5/cyPm.c ****     CY_PM_WAKEUP_CFG1_REG = cyPmBackup.wakeupCfg1;
 1286              		.loc 1 716 0
 1287              		.thumb
 1288 0050 5FFA8CF4 		uxtb	r4, ip
 717:Generated_Source\PSoC5/cyPm.c ****     CY_PM_WAKEUP_CFG2_REG = cyPmBackup.wakeupCfg2;
 1289              		.loc 1 717 0
 1290 0054 5FFA8EF2 		uxtb	r2, lr
 718:Generated_Source\PSoC5/cyPm.c **** }
 1291              		.loc 1 718 0
 1292 0058 FBB2     		uxtb	r3, r7
 716:Generated_Source\PSoC5/cyPm.c ****     CY_PM_WAKEUP_CFG1_REG = cyPmBackup.wakeupCfg1;
 1293              		.loc 1 716 0
 1294 005a 2C70     		strb	r4, [r5]
 717:Generated_Source\PSoC5/cyPm.c ****     CY_PM_WAKEUP_CFG2_REG = cyPmBackup.wakeupCfg2;
 1295              		.loc 1 717 0
 1296 005c 0270     		strb	r2, [r0]
 718:Generated_Source\PSoC5/cyPm.c **** }
 1297              		.loc 1 718 0
 1298 005e 0B70     		strb	r3, [r1]
 1299 0060 F8BD     		pop	{r3, r4, r5, r6, r7, pc}
 1300              	.L120:
 1301 0062 00BF     		.align	2
 1302              	.L119:
 1303 0064 98430040 		.word	1073759128
 1304 0068 99430040 		.word	1073759129
 1305 006c 9A430040 		.word	1073759130
 1306 0070 93430040 		.word	1073759123
 1307 0074 00000000 		.word	.LANCHOR0
 1308              		.cfi_endproc
 1309              	.LFE2:
 1310              		.size	CyPmAltAct, .-CyPmAltAct
 1311              		.section	.text.CyPmSleep,"ax",%progbits
 1312              		.align	2
 1313              		.global	CyPmSleep
 1314              		.thumb
 1315              		.thumb_func
 1316              		.type	CyPmSleep, %function
ARM GAS  C:\Users\mgronber\AppData\Local\Temp\ccowRMf8.s 			page 61


 1317              	CyPmSleep:
 1318              	.LFB3:
 841:Generated_Source\PSoC5/cyPm.c ****     uint8 interruptState;
 1319              		.loc 1 841 0
 1320              		.cfi_startproc
 1321              		@ args = 0, pretend = 0, frame = 0
 1322              		@ frame_needed = 0, uses_anonymous_args = 0
 1323              	.LVL46:
 1324 0000 F8B5     		push	{r3, r4, r5, r6, r7, lr}
 1325              		.cfi_def_cfa_offset 24
 1326              		.cfi_offset 3, -24
 1327              		.cfi_offset 4, -20
 1328              		.cfi_offset 5, -16
 1329              		.cfi_offset 6, -12
 1330              		.cfi_offset 7, -8
 1331              		.cfi_offset 14, -4
 841:Generated_Source\PSoC5/cyPm.c ****     uint8 interruptState;
 1332              		.loc 1 841 0
 1333 0002 0C46     		mov	r4, r1
 1334 0004 0646     		mov	r6, r0
 845:Generated_Source\PSoC5/cyPm.c **** 
 1335              		.loc 1 845 0
 1336 0006 FFF7FEFF 		bl	CyEnterCriticalSection
 1337              	.LVL47:
 854:Generated_Source\PSoC5/cyPm.c ****     {
 1338              		.loc 1 854 0
 1339 000a 344B     		ldr	r3, .L135
 1340 000c 1B78     		ldrb	r3, [r3]	@ zero_extendqisi2
 1341 000e 03F00803 		and	r3, r3, #8
 1342 0012 03F0FF01 		and	r1, r3, #255
 1343 0016 002B     		cmp	r3, #0
 1344 0018 53D1     		bne	.L132
 857:Generated_Source\PSoC5/cyPm.c ****     }
 1345              		.loc 1 857 0
 1346 001a 314A     		ldr	r2, .L135+4
 1347 001c 0546     		mov	r5, r0
 1348              	.LVL48:
 1349 001e 1378     		ldrb	r3, [r2]	@ zero_extendqisi2
 1350 0020 03F01F03 		and	r3, r3, #31
 1351 0024 1370     		strb	r3, [r2]
 925:Generated_Source\PSoC5/cyPm.c **** 
 1352              		.loc 1 925 0
 1353 0026 002E     		cmp	r6, #0
 1354 0028 53D1     		bne	.L133
 1355              	.L124:
 935:Generated_Source\PSoC5/cyPm.c **** 
 1356              		.loc 1 935 0
 1357 002a FFF7FEFF 		bl	CyPmHibSlpSaveSet
 1358              	.LVL49:
 966:Generated_Source\PSoC5/cyPm.c ****     CY_PM_WAKEUP_CFG0_REG = (uint8) (wakeupSource >> 4u);
 1359              		.loc 1 966 0
 1360 002e 2D4A     		ldr	r2, .L135+8
 967:Generated_Source\PSoC5/cyPm.c **** 
 1361              		.loc 1 967 0
 1362 0030 C4F30710 		ubfx	r0, r4, #4, #8
 970:Generated_Source\PSoC5/cyPm.c ****     CY_PM_WAKEUP_CFG1_REG = (((uint8) wakeupSource) & CY_PM_WAKEUP_SRC_CMPS_MASK);
 1363              		.loc 1 970 0
ARM GAS  C:\Users\mgronber\AppData\Local\Temp\ccowRMf8.s 			page 62


 1364 0034 2C4B     		ldr	r3, .L135+12
 966:Generated_Source\PSoC5/cyPm.c ****     CY_PM_WAKEUP_CFG0_REG = (uint8) (wakeupSource >> 4u);
 1365              		.loc 1 966 0
 1366 0036 1678     		ldrb	r6, [r2]	@ zero_extendqisi2
 971:Generated_Source\PSoC5/cyPm.c **** 
 1367              		.loc 1 971 0
 1368 0038 04F00F01 		and	r1, r4, #15
 967:Generated_Source\PSoC5/cyPm.c **** 
 1369              		.loc 1 967 0
 1370 003c 1070     		strb	r0, [r2]
 970:Generated_Source\PSoC5/cyPm.c ****     CY_PM_WAKEUP_CFG1_REG = (((uint8) wakeupSource) & CY_PM_WAKEUP_SRC_CMPS_MASK);
 1371              		.loc 1 970 0
 1372 003e 1878     		ldrb	r0, [r3]	@ zero_extendqisi2
 975:Generated_Source\PSoC5/cyPm.c **** 
 1373              		.loc 1 975 0
 1374 0040 C4F30034 		ubfx	r4, r4, #12, #1
 971:Generated_Source\PSoC5/cyPm.c **** 
 1375              		.loc 1 971 0
 1376 0044 1970     		strb	r1, [r3]
 988:Generated_Source\PSoC5/cyPm.c ****     {
 1377              		.loc 1 988 0
 1378 0046 6FF4CC71 		mvn	r1, #408
 1379 004a 0B44     		add	r3, r3, r1
 974:Generated_Source\PSoC5/cyPm.c ****     CY_PM_WAKEUP_CFG2_REG = ((uint8) ((wakeupSource >> 12u) & 0x01u));
 1380              		.loc 1 974 0
 1381 004c 9178     		ldrb	r1, [r2, #2]	@ zero_extendqisi2
 975:Generated_Source\PSoC5/cyPm.c **** 
 1382              		.loc 1 975 0
 1383 004e 9470     		strb	r4, [r2, #2]
 988:Generated_Source\PSoC5/cyPm.c ****     {
 1384              		.loc 1 988 0
 1385 0050 1A78     		ldrb	r2, [r3]	@ zero_extendqisi2
 966:Generated_Source\PSoC5/cyPm.c ****     CY_PM_WAKEUP_CFG0_REG = (uint8) (wakeupSource >> 4u);
 1386              		.loc 1 966 0
 1387 0052 264C     		ldr	r4, .L135+16
 970:Generated_Source\PSoC5/cyPm.c ****     CY_PM_WAKEUP_CFG1_REG = (((uint8) wakeupSource) & CY_PM_WAKEUP_SRC_CMPS_MASK);
 1388              		.loc 1 970 0
 1389 0054 6071     		strb	r0, [r4, #5]
 988:Generated_Source\PSoC5/cyPm.c ****     {
 1390              		.loc 1 988 0
 1391 0056 5007     		lsls	r0, r2, #29
 966:Generated_Source\PSoC5/cyPm.c ****     CY_PM_WAKEUP_CFG0_REG = (uint8) (wakeupSource >> 4u);
 1392              		.loc 1 966 0
 1393 0058 2671     		strb	r6, [r4, #4]
 974:Generated_Source\PSoC5/cyPm.c ****     CY_PM_WAKEUP_CFG2_REG = ((uint8) ((wakeupSource >> 12u) & 0x01u));
 1394              		.loc 1 974 0
 1395 005a A171     		strb	r1, [r4, #6]
 988:Generated_Source\PSoC5/cyPm.c ****     {
 1396              		.loc 1 988 0
 1397 005c 35D0     		beq	.L134
 999:Generated_Source\PSoC5/cyPm.c **** 
 1398              		.loc 1 999 0
 1399 005e 1978     		ldrb	r1, [r3]	@ zero_extendqisi2
1002:Generated_Source\PSoC5/cyPm.c ****     }
 1400              		.loc 1 1002 0
 1401 0060 1A78     		ldrb	r2, [r3]	@ zero_extendqisi2
 999:Generated_Source\PSoC5/cyPm.c **** 
ARM GAS  C:\Users\mgronber\AppData\Local\Temp\ccowRMf8.s 			page 63


 1402              		.loc 1 999 0
 1403 0062 01F00701 		and	r1, r1, #7
1002:Generated_Source\PSoC5/cyPm.c ****     }
 1404              		.loc 1 1002 0
 1405 0066 02F0F802 		and	r2, r2, #248
 996:Generated_Source\PSoC5/cyPm.c **** 
 1406              		.loc 1 996 0
 1407 006a 0020     		movs	r0, #0
 999:Generated_Source\PSoC5/cyPm.c **** 
 1408              		.loc 1 999 0
 1409 006c 84F82C10 		strb	r1, [r4, #44]
1002:Generated_Source\PSoC5/cyPm.c ****     }
 1410              		.loc 1 1002 0
 1411 0070 1A70     		strb	r2, [r3]
 996:Generated_Source\PSoC5/cyPm.c **** 
 1412              		.loc 1 996 0
 1413 0072 84F82D00 		strb	r0, [r4, #45]
 1414              	.L126:
1006:Generated_Source\PSoC5/cyPm.c **** 
 1415              		.loc 1 1006 0
 1416 0076 194A     		ldr	r2, .L135
 1417 0078 1378     		ldrb	r3, [r2]	@ zero_extendqisi2
 1418 007a 03F0F803 		and	r3, r3, #248
 1419 007e 43F00303 		orr	r3, r3, #3
 1420 0082 1370     		strb	r3, [r2]
1009:Generated_Source\PSoC5/cyPm.c **** 
 1421              		.loc 1 1009 0
 1422 0084 1378     		ldrb	r3, [r2]	@ zero_extendqisi2
1012:Generated_Source\PSoC5/cyPm.c ****     CY_NOP;
 1423              		.loc 1 1012 0
 1424              	@ 1012 "Generated_Source\PSoC5\cyPm.c" 1
 1425 0086 00BF     		NOP
 1426              	
 1427              	@ 0 "" 2
1013:Generated_Source\PSoC5/cyPm.c **** 
 1428              		.loc 1 1013 0
 1429              	@ 1013 "Generated_Source\PSoC5\cyPm.c" 1
 1430 0088 00BF     		NOP
 1431              	
 1432              	@ 0 "" 2
1016:Generated_Source\PSoC5/cyPm.c **** 
 1433              		.loc 1 1016 0
 1434              	@ 1016 "Generated_Source\PSoC5\cyPm.c" 1
 1435 008a 30BF     		WFI 
 1436              	
 1437              	@ 0 "" 2
1021:Generated_Source\PSoC5/cyPm.c ****     {
 1438              		.loc 1 1021 0
 1439              		.thumb
 1440 008c 94F82D30 		ldrb	r3, [r4, #45]	@ zero_extendqisi2
 1441 0090 164A     		ldr	r2, .L135+16
 1442 0092 012B     		cmp	r3, #1
 1443 0094 07D0     		beq	.L127
1023:Generated_Source\PSoC5/cyPm.c ****                                     cyPmBackup.imoActFreq;
 1444              		.loc 1 1023 0
 1445 0096 1649     		ldr	r1, .L135+20
 1446 0098 92F82C20 		ldrb	r2, [r2, #44]	@ zero_extendqisi2
ARM GAS  C:\Users\mgronber\AppData\Local\Temp\ccowRMf8.s 			page 64


 1447 009c 0B78     		ldrb	r3, [r1]	@ zero_extendqisi2
 1448 009e 03F0F803 		and	r3, r3, #248
 1449 00a2 1343     		orrs	r3, r3, r2
 1450 00a4 0B70     		strb	r3, [r1]
 1451              	.L127:
1038:Generated_Source\PSoC5/cyPm.c **** 
 1452              		.loc 1 1038 0
 1453 00a6 FFF7FEFF 		bl	CyPmHibSlpRestore
 1454              	.LVL50:
1065:Generated_Source\PSoC5/cyPm.c **** }
 1455              		.loc 1 1065 0
 1456 00aa 2846     		mov	r0, r5
1060:Generated_Source\PSoC5/cyPm.c ****     CY_PM_WAKEUP_CFG1_REG = cyPmBackup.wakeupCfg1;
 1457              		.loc 1 1060 0
 1458 00ac 94F804E0 		ldrb	lr, [r4, #4]	@ zero_extendqisi2
1061:Generated_Source\PSoC5/cyPm.c ****     CY_PM_WAKEUP_CFG2_REG = cyPmBackup.wakeupCfg2;
 1459              		.loc 1 1061 0
 1460 00b0 6679     		ldrb	r6, [r4, #5]	@ zero_extendqisi2
1062:Generated_Source\PSoC5/cyPm.c **** 
 1461              		.loc 1 1062 0
 1462 00b2 A279     		ldrb	r2, [r4, #6]	@ zero_extendqisi2
1060:Generated_Source\PSoC5/cyPm.c ****     CY_PM_WAKEUP_CFG1_REG = cyPmBackup.wakeupCfg1;
 1463              		.loc 1 1060 0
 1464 00b4 0B4F     		ldr	r7, .L135+8
1061:Generated_Source\PSoC5/cyPm.c ****     CY_PM_WAKEUP_CFG2_REG = cyPmBackup.wakeupCfg2;
 1465              		.loc 1 1061 0
 1466 00b6 0C49     		ldr	r1, .L135+12
1062:Generated_Source\PSoC5/cyPm.c **** 
 1467              		.loc 1 1062 0
 1468 00b8 0E4B     		ldr	r3, .L135+24
1060:Generated_Source\PSoC5/cyPm.c ****     CY_PM_WAKEUP_CFG1_REG = cyPmBackup.wakeupCfg1;
 1469              		.loc 1 1060 0
 1470 00ba 87F800E0 		strb	lr, [r7]
1061:Generated_Source\PSoC5/cyPm.c ****     CY_PM_WAKEUP_CFG2_REG = cyPmBackup.wakeupCfg2;
 1471              		.loc 1 1061 0
 1472 00be 0E70     		strb	r6, [r1]
1062:Generated_Source\PSoC5/cyPm.c **** 
 1473              		.loc 1 1062 0
 1474 00c0 1A70     		strb	r2, [r3]
 1475              	.L132:
1066:Generated_Source\PSoC5/cyPm.c **** 
 1476              		.loc 1 1066 0
 1477 00c2 BDE8F840 		pop	{r3, r4, r5, r6, r7, lr}
 1478              		.cfi_remember_state
 1479              		.cfi_restore 14
 1480              		.cfi_restore 7
 1481              		.cfi_restore 6
 1482              		.cfi_restore 5
 1483              		.cfi_restore 4
 1484              		.cfi_restore 3
 1485              		.cfi_def_cfa_offset 0
1065:Generated_Source\PSoC5/cyPm.c **** }
 1486              		.loc 1 1065 0
 1487 00c6 FFF7FEBF 		b	CyExitCriticalSection
 1488              	.LVL51:
 1489              	.L134:
 1490              		.cfi_restore_state
ARM GAS  C:\Users\mgronber\AppData\Local\Temp\ccowRMf8.s 			page 65


 991:Generated_Source\PSoC5/cyPm.c ****     }
 1491              		.loc 1 991 0
 1492 00ca 0123     		movs	r3, #1
 1493 00cc 84F82D30 		strb	r3, [r4, #45]
 1494 00d0 D1E7     		b	.L126
 1495              	.L133:
 925:Generated_Source\PSoC5/cyPm.c **** 
 1496              		.loc 1 925 0 discriminator 1
 1497 00d2 0846     		mov	r0, r1
 1498 00d4 FFF7FEFF 		bl	CyHalt
 1499              	.LVL52:
 1500 00d8 A7E7     		b	.L124
 1501              	.L136:
 1502 00da 00BF     		.align	2
 1503              	.L135:
 1504 00dc 93430040 		.word	1073759123
 1505 00e0 83460040 		.word	1073759875
 1506 00e4 98430040 		.word	1073759128
 1507 00e8 99430040 		.word	1073759129
 1508 00ec 00000000 		.word	.LANCHOR0
 1509 00f0 00420040 		.word	1073758720
 1510 00f4 9A430040 		.word	1073759130
 1511              		.cfi_endproc
 1512              	.LFE3:
 1513              		.size	CyPmSleep, .-CyPmSleep
 1514              		.section	.text.CyPmHibernate,"ax",%progbits
 1515              		.align	2
 1516              		.global	CyPmHibernate
 1517              		.thumb
 1518              		.thumb_func
 1519              		.type	CyPmHibernate, %function
 1520              	CyPmHibernate:
 1521              	.LFB4:
1113:Generated_Source\PSoC5/cyPm.c ****     uint8 interruptState;
 1522              		.loc 1 1113 0
 1523              		.cfi_startproc
 1524              		@ args = 0, pretend = 0, frame = 0
 1525              		@ frame_needed = 0, uses_anonymous_args = 0
 1526 0000 2DE9F047 		push	{r4, r5, r6, r7, r8, r9, r10, lr}
 1527              		.cfi_def_cfa_offset 32
 1528              		.cfi_offset 4, -32
 1529              		.cfi_offset 5, -28
 1530              		.cfi_offset 6, -24
 1531              		.cfi_offset 7, -20
 1532              		.cfi_offset 8, -16
 1533              		.cfi_offset 9, -12
 1534              		.cfi_offset 10, -8
 1535              		.cfi_offset 14, -4
1117:Generated_Source\PSoC5/cyPm.c **** 
 1536              		.loc 1 1117 0
 1537 0004 FFF7FEFF 		bl	CyEnterCriticalSection
 1538              	.LVL53:
1125:Generated_Source\PSoC5/cyPm.c ****         {
 1539              		.loc 1 1125 0
 1540 0008 904B     		ldr	r3, .L177
 1541 000a 1B78     		ldrb	r3, [r3]	@ zero_extendqisi2
 1542 000c 1D07     		lsls	r5, r3, #28
ARM GAS  C:\Users\mgronber\AppData\Local\Temp\ccowRMf8.s 			page 66


 1543              	.LVL54:
 1544 000e 00F1C280 		bmi	.L166
1128:Generated_Source\PSoC5/cyPm.c ****         }
 1545              		.loc 1 1128 0
 1546 0012 8F49     		ldr	r1, .L177+4
 1547              	.LBB10:
 1548              	.LBB11:
1287:Generated_Source\PSoC5/cyPm.c ****     {
 1549              		.loc 1 1287 0
 1550 0014 8F4A     		ldr	r2, .L177+8
 1551              	.LBE11:
 1552              	.LBE10:
1128:Generated_Source\PSoC5/cyPm.c ****         }
 1553              		.loc 1 1128 0
 1554 0016 0B78     		ldrb	r3, [r1]	@ zero_extendqisi2
 1555 0018 0546     		mov	r5, r0
 1556 001a 03F01F03 		and	r3, r3, #31
 1557 001e 0B70     		strb	r3, [r1]
 1558              	.LBB26:
 1559              	.LBB18:
1287:Generated_Source\PSoC5/cyPm.c ****     {
 1560              		.loc 1 1287 0
 1561 0020 1378     		ldrb	r3, [r2]	@ zero_extendqisi2
 1562 0022 5C07     		lsls	r4, r3, #29
 1563 0024 03D5     		bpl	.L139
1301:Generated_Source\PSoC5/cyPm.c ****     }
 1564              		.loc 1 1301 0
 1565 0026 1378     		ldrb	r3, [r2]	@ zero_extendqisi2
 1566 0028 03F0FB03 		and	r3, r3, #251
 1567 002c 1370     		strb	r3, [r2]
 1568              	.L139:
1306:Generated_Source\PSoC5/cyPm.c **** 
 1569              		.loc 1 1306 0
 1570 002e 0120     		movs	r0, #1
 1571 0030 FFF7FEFF 		bl	CyILO_SetPowerMode
 1572              	.LVL55:
 1573 0034 884C     		ldr	r4, .L177+12
1309:Generated_Source\PSoC5/cyPm.c ****                                 CY_PM_DISABLED : CY_PM_ENABLED;
 1574              		.loc 1 1309 0
 1575 0036 894B     		ldr	r3, .L177+16
1318:Generated_Source\PSoC5/cyPm.c ****     {
 1576              		.loc 1 1318 0
 1577 0038 854E     		ldr	r6, .L177+4
1306:Generated_Source\PSoC5/cyPm.c **** 
 1578              		.loc 1 1306 0
 1579 003a 2070     		strb	r0, [r4]
1309:Generated_Source\PSoC5/cyPm.c ****                                 CY_PM_DISABLED : CY_PM_ENABLED;
 1580              		.loc 1 1309 0
 1581 003c 1978     		ldrb	r1, [r3]	@ zero_extendqisi2
1313:Generated_Source\PSoC5/cyPm.c ****                                 CY_PM_DISABLED : CY_PM_ENABLED;
 1582              		.loc 1 1313 0
 1583 003e 1A78     		ldrb	r2, [r3]	@ zero_extendqisi2
1318:Generated_Source\PSoC5/cyPm.c ****     {
 1584              		.loc 1 1318 0
 1585 0040 3378     		ldrb	r3, [r6]	@ zero_extendqisi2
1314:Generated_Source\PSoC5/cyPm.c **** 
 1586              		.loc 1 1314 0
ARM GAS  C:\Users\mgronber\AppData\Local\Temp\ccowRMf8.s 			page 67


 1587 0042 C2F38002 		ubfx	r2, r2, #2, #1
1310:Generated_Source\PSoC5/cyPm.c **** 
 1588              		.loc 1 1310 0
 1589 0046 C1F34001 		ubfx	r1, r1, #1, #1
1318:Generated_Source\PSoC5/cyPm.c ****     {
 1590              		.loc 1 1318 0
 1591 004a 03F01003 		and	r3, r3, #16
1313:Generated_Source\PSoC5/cyPm.c ****                                 CY_PM_DISABLED : CY_PM_ENABLED;
 1592              		.loc 1 1313 0
 1593 004e A270     		strb	r2, [r4, #2]
1309:Generated_Source\PSoC5/cyPm.c ****                                 CY_PM_DISABLED : CY_PM_ENABLED;
 1594              		.loc 1 1309 0
 1595 0050 6170     		strb	r1, [r4, #1]
1318:Generated_Source\PSoC5/cyPm.c ****     {
 1596              		.loc 1 1318 0
 1597 0052 03F0FF02 		and	r2, r3, #255
 1598 0056 002B     		cmp	r3, #0
 1599 0058 00F0A180 		beq	.L168
1326:Generated_Source\PSoC5/cyPm.c ****     }
 1600              		.loc 1 1326 0
 1601 005c 0123     		movs	r3, #1
 1602 005e E370     		strb	r3, [r4, #3]
 1603              	.LBB12:
 1604              	.LBB13:
1768:Generated_Source\PSoC5/cyPm.c ****     }
1769:Generated_Source\PSoC5/cyPm.c **** }
1770:Generated_Source\PSoC5/cyPm.c **** 
1771:Generated_Source\PSoC5/cyPm.c **** 
1772:Generated_Source\PSoC5/cyPm.c **** /*******************************************************************************
1773:Generated_Source\PSoC5/cyPm.c **** * Function Name: CyPmHviLviSaveDisable
1774:Generated_Source\PSoC5/cyPm.c **** ********************************************************************************
1775:Generated_Source\PSoC5/cyPm.c **** *
1776:Generated_Source\PSoC5/cyPm.c **** * Summary:
1777:Generated_Source\PSoC5/cyPm.c **** *  Saves analog and digital LVI and HVI configuration and disables them.
1778:Generated_Source\PSoC5/cyPm.c **** *
1779:Generated_Source\PSoC5/cyPm.c **** * Parameters:
1780:Generated_Source\PSoC5/cyPm.c **** *  None
1781:Generated_Source\PSoC5/cyPm.c **** *
1782:Generated_Source\PSoC5/cyPm.c **** * Return:
1783:Generated_Source\PSoC5/cyPm.c **** *  None
1784:Generated_Source\PSoC5/cyPm.c **** *
1785:Generated_Source\PSoC5/cyPm.c **** * Reentrant:
1786:Generated_Source\PSoC5/cyPm.c **** *  No
1787:Generated_Source\PSoC5/cyPm.c **** *
1788:Generated_Source\PSoC5/cyPm.c **** *******************************************************************************/
1789:Generated_Source\PSoC5/cyPm.c **** static void CyPmHviLviSaveDisable(void) 
1790:Generated_Source\PSoC5/cyPm.c **** {
1791:Generated_Source\PSoC5/cyPm.c ****     if(0u != (CY_VD_LVI_HVI_CONTROL_REG & CY_VD_LVID_EN))
 1605              		.loc 1 1791 0
 1606 0060 7F4B     		ldr	r3, .L177+20
 1607 0062 1B78     		ldrb	r3, [r3]	@ zero_extendqisi2
 1608 0064 13F00103 		ands	r3, r3, #1
 1609 0068 40F0A480 		bne	.L169
 1610              	.L142:
1792:Generated_Source\PSoC5/cyPm.c ****     {
1793:Generated_Source\PSoC5/cyPm.c ****         cyPmBackup.lvidEn = CY_PM_ENABLED;
1794:Generated_Source\PSoC5/cyPm.c ****         cyPmBackup.lvidTrip = CY_VD_LVI_TRIP_REG & CY_VD_LVI_TRIP_LVID_MASK;
ARM GAS  C:\Users\mgronber\AppData\Local\Temp\ccowRMf8.s 			page 68


1795:Generated_Source\PSoC5/cyPm.c **** 
1796:Generated_Source\PSoC5/cyPm.c ****         /* Save state of reset device at specified Vddd threshold */
1797:Generated_Source\PSoC5/cyPm.c ****         cyPmBackup.lvidRst = (0u == (CY_VD_PRES_CONTROL_REG & CY_VD_PRESD_EN)) ? \
1798:Generated_Source\PSoC5/cyPm.c ****                              CY_PM_DISABLED : CY_PM_ENABLED;
1799:Generated_Source\PSoC5/cyPm.c **** 
1800:Generated_Source\PSoC5/cyPm.c ****         CyVdLvDigitDisable();
1801:Generated_Source\PSoC5/cyPm.c ****     }
1802:Generated_Source\PSoC5/cyPm.c ****     else
1803:Generated_Source\PSoC5/cyPm.c ****     {
1804:Generated_Source\PSoC5/cyPm.c ****         cyPmBackup.lvidEn = CY_PM_DISABLED;
 1611              		.loc 1 1804 0
 1612 006c 84F82530 		strb	r3, [r4, #37]
 1613              	.L143:
1805:Generated_Source\PSoC5/cyPm.c ****     }
1806:Generated_Source\PSoC5/cyPm.c **** 
1807:Generated_Source\PSoC5/cyPm.c ****     if(0u != (CY_VD_LVI_HVI_CONTROL_REG & CY_VD_LVIA_EN))
 1614              		.loc 1 1807 0
 1615 0070 7B4B     		ldr	r3, .L177+20
 1616 0072 1B78     		ldrb	r3, [r3]	@ zero_extendqisi2
 1617 0074 03F00203 		and	r3, r3, #2
 1618 0078 03F0FF02 		and	r2, r3, #255
 1619 007c 002B     		cmp	r3, #0
 1620 007e 40F0B780 		bne	.L170
1808:Generated_Source\PSoC5/cyPm.c ****     {
1809:Generated_Source\PSoC5/cyPm.c ****         cyPmBackup.lviaEn = CY_PM_ENABLED;
1810:Generated_Source\PSoC5/cyPm.c ****         cyPmBackup.lviaTrip = CY_VD_LVI_TRIP_REG >> 4u;
1811:Generated_Source\PSoC5/cyPm.c **** 
1812:Generated_Source\PSoC5/cyPm.c ****         /* Save state of reset device at specified Vdda threshold */
1813:Generated_Source\PSoC5/cyPm.c ****         cyPmBackup.lviaRst = (0u == (CY_VD_PRES_CONTROL_REG & CY_VD_PRESA_EN)) ? \
1814:Generated_Source\PSoC5/cyPm.c ****                              CY_PM_DISABLED : CY_PM_ENABLED;
1815:Generated_Source\PSoC5/cyPm.c **** 
1816:Generated_Source\PSoC5/cyPm.c ****         CyVdLvAnalogDisable();
1817:Generated_Source\PSoC5/cyPm.c ****     }
1818:Generated_Source\PSoC5/cyPm.c ****     else
1819:Generated_Source\PSoC5/cyPm.c ****     {
1820:Generated_Source\PSoC5/cyPm.c ****         cyPmBackup.lviaEn = CY_PM_DISABLED;
 1621              		.loc 1 1820 0
 1622 0082 84F82720 		strb	r2, [r4, #39]
 1623              	.L145:
1821:Generated_Source\PSoC5/cyPm.c ****     }
1822:Generated_Source\PSoC5/cyPm.c **** 
1823:Generated_Source\PSoC5/cyPm.c ****     if(0u != (CY_VD_LVI_HVI_CONTROL_REG & CY_VD_HVIA_EN))
 1624              		.loc 1 1823 0
 1625 0086 764B     		ldr	r3, .L177+20
 1626 0088 1B78     		ldrb	r3, [r3]	@ zero_extendqisi2
 1627 008a 03F00403 		and	r3, r3, #4
 1628 008e 03F0FF02 		and	r2, r3, #255
 1629 0092 002B     		cmp	r3, #0
 1630 0094 40F0BC80 		bne	.L171
1824:Generated_Source\PSoC5/cyPm.c ****     {
1825:Generated_Source\PSoC5/cyPm.c ****         cyPmBackup.hviaEn = CY_PM_ENABLED;
1826:Generated_Source\PSoC5/cyPm.c ****         CyVdHvAnalogDisable();
1827:Generated_Source\PSoC5/cyPm.c ****     }
1828:Generated_Source\PSoC5/cyPm.c ****     else
1829:Generated_Source\PSoC5/cyPm.c ****     {
1830:Generated_Source\PSoC5/cyPm.c ****         cyPmBackup.hviaEn = CY_PM_DISABLED;
 1631              		.loc 1 1830 0
ARM GAS  C:\Users\mgronber\AppData\Local\Temp\ccowRMf8.s 			page 69


 1632 0098 84F82920 		strb	r2, [r4, #41]
 1633              	.L147:
 1634              	.LBE13:
 1635              	.LBE12:
1341:Generated_Source\PSoC5/cyPm.c **** 
 1636              		.loc 1 1341 0
 1637 009c FFF7FEFF 		bl	CyPmHibSlpSaveSet
 1638              	.LVL56:
1347:Generated_Source\PSoC5/cyPm.c ****     cyPmBackup.wakeupTrim1 = CY_PM_PWRSYS_WAKE_TR1_REG;
 1639              		.loc 1 1347 0
 1640 00a0 7049     		ldr	r1, .L177+24
1348:Generated_Source\PSoC5/cyPm.c **** 
 1641              		.loc 1 1348 0
 1642 00a2 714A     		ldr	r2, .L177+28
 1643              	.LBE18:
 1644              	.LBE26:
1144:Generated_Source\PSoC5/cyPm.c ****     CY_PM_WAKEUP_CFG0_REG = CY_PM_WAKEUP_PICU;
 1645              		.loc 1 1144 0
 1646 00a4 714B     		ldr	r3, .L177+32
 1647              	.LBB27:
 1648              	.LBB19:
1350:Generated_Source\PSoC5/cyPm.c ****     CY_PM_PWRSYS_WAKE_TR1_REG = CY_PM_PWRSYS_WAKE_TR1;
 1649              		.loc 1 1350 0
 1650 00a6 4FF0FF08 		mov	r8, #255
1351:Generated_Source\PSoC5/cyPm.c **** }
 1651              		.loc 1 1351 0
 1652 00aa B027     		movs	r7, #176
1347:Generated_Source\PSoC5/cyPm.c ****     cyPmBackup.wakeupTrim1 = CY_PM_PWRSYS_WAKE_TR1_REG;
 1653              		.loc 1 1347 0
 1654 00ac 91F800C0 		ldrb	ip, [r1]	@ zero_extendqisi2
 1655              	.LBE19:
 1656              	.LBE27:
1147:Generated_Source\PSoC5/cyPm.c ****     CY_PM_WAKEUP_CFG1_REG = 0x00u;
 1657              		.loc 1 1147 0
 1658 00b0 6F48     		ldr	r0, .L177+36
 1659              	.LBB28:
 1660              	.LBB20:
1348:Generated_Source\PSoC5/cyPm.c **** 
 1661              		.loc 1 1348 0
 1662 00b2 92F800E0 		ldrb	lr, [r2]	@ zero_extendqisi2
 1663              	.LBE20:
 1664              	.LBE28:
1145:Generated_Source\PSoC5/cyPm.c **** 
 1665              		.loc 1 1145 0
 1666 00b6 0426     		movs	r6, #4
 1667              	.LBB29:
 1668              	.LBB21:
1350:Generated_Source\PSoC5/cyPm.c ****     CY_PM_PWRSYS_WAKE_TR1_REG = CY_PM_PWRSYS_WAKE_TR1;
 1669              		.loc 1 1350 0
 1670 00b8 81F80080 		strb	r8, [r1]
1351:Generated_Source\PSoC5/cyPm.c **** }
 1671              		.loc 1 1351 0
 1672 00bc 1770     		strb	r7, [r2]
 1673              	.LBE21:
 1674              	.LBE29:
1144:Generated_Source\PSoC5/cyPm.c ****     CY_PM_WAKEUP_CFG0_REG = CY_PM_WAKEUP_PICU;
 1675              		.loc 1 1144 0
ARM GAS  C:\Users\mgronber\AppData\Local\Temp\ccowRMf8.s 			page 70


 1676 00be 93F80080 		ldrb	r8, [r3]	@ zero_extendqisi2
1148:Generated_Source\PSoC5/cyPm.c **** 
 1677              		.loc 1 1148 0
 1678 00c2 0022     		movs	r2, #0
1145:Generated_Source\PSoC5/cyPm.c **** 
 1679              		.loc 1 1145 0
 1680 00c4 1E70     		strb	r6, [r3]
1147:Generated_Source\PSoC5/cyPm.c ****     CY_PM_WAKEUP_CFG1_REG = 0x00u;
 1681              		.loc 1 1147 0
 1682 00c6 0778     		ldrb	r7, [r0]	@ zero_extendqisi2
1150:Generated_Source\PSoC5/cyPm.c ****     CY_PM_WAKEUP_CFG2_REG = 0x00u;
 1683              		.loc 1 1150 0
 1684 00c8 A1F2EB21 		subw	r1, r1, #747
1148:Generated_Source\PSoC5/cyPm.c **** 
 1685              		.loc 1 1148 0
 1686 00cc 0270     		strb	r2, [r0]
1150:Generated_Source\PSoC5/cyPm.c ****     CY_PM_WAKEUP_CFG2_REG = 0x00u;
 1687              		.loc 1 1150 0
 1688 00ce 0E78     		ldrb	r6, [r1]	@ zero_extendqisi2
1155:Generated_Source\PSoC5/cyPm.c ****     {
 1689              		.loc 1 1155 0
 1690 00d0 A3F5CC73 		sub	r3, r3, #408
1151:Generated_Source\PSoC5/cyPm.c **** 
 1691              		.loc 1 1151 0
 1692 00d4 0A70     		strb	r2, [r1]
1155:Generated_Source\PSoC5/cyPm.c ****     {
 1693              		.loc 1 1155 0
 1694 00d6 1878     		ldrb	r0, [r3]	@ zero_extendqisi2
 1695              	.LBB30:
 1696              	.LBB22:
1347:Generated_Source\PSoC5/cyPm.c ****     cyPmBackup.wakeupTrim1 = CY_PM_PWRSYS_WAKE_TR1_REG;
 1697              		.loc 1 1347 0
 1698 00d8 5F49     		ldr	r1, .L177+12
 1699              	.LBE22:
 1700              	.LBE30:
1155:Generated_Source\PSoC5/cyPm.c ****     {
 1701              		.loc 1 1155 0
 1702 00da 4007     		lsls	r0, r0, #29
 1703              	.LBB31:
 1704              	.LBB23:
1347:Generated_Source\PSoC5/cyPm.c ****     cyPmBackup.wakeupTrim1 = CY_PM_PWRSYS_WAKE_TR1_REG;
 1705              		.loc 1 1347 0
 1706 00dc 84F807C0 		strb	ip, [r4, #7]
1348:Generated_Source\PSoC5/cyPm.c **** 
 1707              		.loc 1 1348 0
 1708 00e0 84F808E0 		strb	lr, [r4, #8]
 1709              	.LBE23:
 1710              	.LBE31:
1144:Generated_Source\PSoC5/cyPm.c ****     CY_PM_WAKEUP_CFG0_REG = CY_PM_WAKEUP_PICU;
 1711              		.loc 1 1144 0
 1712 00e4 84F80480 		strb	r8, [r4, #4]
1147:Generated_Source\PSoC5/cyPm.c ****     CY_PM_WAKEUP_CFG1_REG = 0x00u;
 1713              		.loc 1 1147 0
 1714 00e8 6771     		strb	r7, [r4, #5]
1150:Generated_Source\PSoC5/cyPm.c ****     CY_PM_WAKEUP_CFG2_REG = 0x00u;
 1715              		.loc 1 1150 0
 1716 00ea A671     		strb	r6, [r4, #6]
ARM GAS  C:\Users\mgronber\AppData\Local\Temp\ccowRMf8.s 			page 71


1155:Generated_Source\PSoC5/cyPm.c ****     {
 1717              		.loc 1 1155 0
 1718 00ec 74D1     		bne	.L167
1158:Generated_Source\PSoC5/cyPm.c ****     }
 1719              		.loc 1 1158 0
 1720 00ee 0123     		movs	r3, #1
 1721 00f0 81F82D30 		strb	r3, [r1, #45]
 1722              	.L150:
1174:Generated_Source\PSoC5/cyPm.c **** 
 1723              		.loc 1 1174 0
 1724 00f4 554A     		ldr	r2, .L177
 1725 00f6 1378     		ldrb	r3, [r2]	@ zero_extendqisi2
 1726 00f8 03F0F803 		and	r3, r3, #248
 1727 00fc 43F00403 		orr	r3, r3, #4
 1728 0100 1370     		strb	r3, [r2]
1177:Generated_Source\PSoC5/cyPm.c **** 
 1729              		.loc 1 1177 0
 1730 0102 1378     		ldrb	r3, [r2]	@ zero_extendqisi2
1180:Generated_Source\PSoC5/cyPm.c ****     CY_NOP;
 1731              		.loc 1 1180 0
 1732              	@ 1180 "Generated_Source\PSoC5\cyPm.c" 1
 1733 0104 00BF     		NOP
 1734              	
 1735              	@ 0 "" 2
1181:Generated_Source\PSoC5/cyPm.c **** 
 1736              		.loc 1 1181 0
 1737              	@ 1181 "Generated_Source\PSoC5\cyPm.c" 1
 1738 0106 00BF     		NOP
 1739              	
 1740              	@ 0 "" 2
1184:Generated_Source\PSoC5/cyPm.c **** 
 1741              		.loc 1 1184 0
 1742              	@ 1184 "Generated_Source\PSoC5\cyPm.c" 1
 1743 0108 30BF     		WFI 
 1744              	
 1745              	@ 0 "" 2
1191:Generated_Source\PSoC5/cyPm.c ****     {
 1746              		.loc 1 1191 0
 1747              		.thumb
 1748 010a 94F82D30 		ldrb	r3, [r4, #45]	@ zero_extendqisi2
 1749 010e 524A     		ldr	r2, .L177+12
 1750 0110 012B     		cmp	r3, #1
 1751 0112 07D0     		beq	.L151
1193:Generated_Source\PSoC5/cyPm.c ****                                     cyPmBackup.imoActFreq;
 1752              		.loc 1 1193 0
 1753 0114 5749     		ldr	r1, .L177+40
 1754 0116 92F82C20 		ldrb	r2, [r2, #44]	@ zero_extendqisi2
 1755 011a 0B78     		ldrb	r3, [r1]	@ zero_extendqisi2
 1756 011c 03F0F803 		and	r3, r3, #248
 1757 0120 1343     		orrs	r3, r3, r2
 1758 0122 0B70     		strb	r3, [r1]
 1759              	.L151:
 1760              	.LBB32:
 1761              	.LBB33:
 1762              	.LBB34:
 1763              	.LBB35:
1831:Generated_Source\PSoC5/cyPm.c ****     }
ARM GAS  C:\Users\mgronber\AppData\Local\Temp\ccowRMf8.s 			page 72


1832:Generated_Source\PSoC5/cyPm.c **** }
1833:Generated_Source\PSoC5/cyPm.c **** 
1834:Generated_Source\PSoC5/cyPm.c **** 
1835:Generated_Source\PSoC5/cyPm.c **** /*******************************************************************************
1836:Generated_Source\PSoC5/cyPm.c **** * Function Name: CyPmHviLviRestore
1837:Generated_Source\PSoC5/cyPm.c **** ********************************************************************************
1838:Generated_Source\PSoC5/cyPm.c **** *
1839:Generated_Source\PSoC5/cyPm.c **** * Summary:
1840:Generated_Source\PSoC5/cyPm.c **** *  Restores the analog and digital LVI and HVI configuration.
1841:Generated_Source\PSoC5/cyPm.c **** *
1842:Generated_Source\PSoC5/cyPm.c **** * Parameters:
1843:Generated_Source\PSoC5/cyPm.c **** *  None
1844:Generated_Source\PSoC5/cyPm.c **** *
1845:Generated_Source\PSoC5/cyPm.c **** * Return:
1846:Generated_Source\PSoC5/cyPm.c **** *  None
1847:Generated_Source\PSoC5/cyPm.c **** *
1848:Generated_Source\PSoC5/cyPm.c **** * Reentrant:
1849:Generated_Source\PSoC5/cyPm.c **** *  No
1850:Generated_Source\PSoC5/cyPm.c **** *
1851:Generated_Source\PSoC5/cyPm.c **** *******************************************************************************/
1852:Generated_Source\PSoC5/cyPm.c **** static void CyPmHviLviRestore(void) 
1853:Generated_Source\PSoC5/cyPm.c **** {
1854:Generated_Source\PSoC5/cyPm.c ****     /* Restore LVI/HVI configuration */
1855:Generated_Source\PSoC5/cyPm.c ****     if(CY_PM_ENABLED == cyPmBackup.lvidEn)
 1764              		.loc 1 1855 0
 1765 0124 94F82530 		ldrb	r3, [r4, #37]	@ zero_extendqisi2
 1766 0128 4B4A     		ldr	r2, .L177+12
 1767 012a 012B     		cmp	r3, #1
 1768 012c 00F08680 		beq	.L172
 1769              	.L152:
1856:Generated_Source\PSoC5/cyPm.c ****     {
1857:Generated_Source\PSoC5/cyPm.c ****         CyVdLvDigitEnable(cyPmBackup.lvidRst, cyPmBackup.lvidTrip);
1858:Generated_Source\PSoC5/cyPm.c ****     }
1859:Generated_Source\PSoC5/cyPm.c **** 
1860:Generated_Source\PSoC5/cyPm.c ****     if(CY_PM_ENABLED == cyPmBackup.lviaEn)
 1770              		.loc 1 1860 0
 1771 0130 94F82730 		ldrb	r3, [r4, #39]	@ zero_extendqisi2
 1772 0134 484A     		ldr	r2, .L177+12
 1773 0136 012B     		cmp	r3, #1
 1774 0138 79D0     		beq	.L173
 1775              	.L153:
1861:Generated_Source\PSoC5/cyPm.c ****     {
1862:Generated_Source\PSoC5/cyPm.c ****         CyVdLvAnalogEnable(cyPmBackup.lviaRst, cyPmBackup.lviaTrip);
1863:Generated_Source\PSoC5/cyPm.c ****     }
1864:Generated_Source\PSoC5/cyPm.c **** 
1865:Generated_Source\PSoC5/cyPm.c ****     if(CY_PM_ENABLED == cyPmBackup.hviaEn)
 1776              		.loc 1 1865 0
 1777 013a 94F82930 		ldrb	r3, [r4, #41]	@ zero_extendqisi2
 1778 013e 012B     		cmp	r3, #1
 1779 0140 6CD0     		beq	.L174
 1780              	.L154:
 1781              	.LBE35:
 1782              	.LBE34:
1380:Generated_Source\PSoC5/cyPm.c **** 
 1783              		.loc 1 1380 0
 1784 0142 FFF7FEFF 		bl	CyPmHibSlpRestore
 1785              	.LVL57:
ARM GAS  C:\Users\mgronber\AppData\Local\Temp\ccowRMf8.s 			page 73


1383:Generated_Source\PSoC5/cyPm.c ****     {
 1786              		.loc 1 1383 0
 1787 0146 6378     		ldrb	r3, [r4, #1]	@ zero_extendqisi2
 1788 0148 012B     		cmp	r3, #1
 1789 014a 6DD0     		beq	.L175
 1790              	.L155:
1390:Generated_Source\PSoC5/cyPm.c ****     {
 1791              		.loc 1 1390 0
 1792 014c A378     		ldrb	r3, [r4, #2]	@ zero_extendqisi2
 1793 014e 012B     		cmp	r3, #1
 1794 0150 67D0     		beq	.L176
 1795              	.L156:
1397:Generated_Source\PSoC5/cyPm.c **** 
 1796              		.loc 1 1397 0
 1797 0152 2078     		ldrb	r0, [r4]	@ zero_extendqisi2
 1798 0154 FFF7FEFF 		bl	CyILO_SetPowerMode
 1799              	.LVL58:
1400:Generated_Source\PSoC5/cyPm.c ****     {
 1800              		.loc 1 1400 0
 1801 0158 E378     		ldrb	r3, [r4, #3]	@ zero_extendqisi2
 1802 015a 23B9     		cbnz	r3, .L157
1403:Generated_Source\PSoC5/cyPm.c ****     }
 1803              		.loc 1 1403 0
 1804 015c 3C4A     		ldr	r2, .L177+4
 1805 015e 1378     		ldrb	r3, [r2]	@ zero_extendqisi2
 1806 0160 03F0EF03 		and	r3, r3, #239
 1807 0164 1370     		strb	r3, [r2]
 1808              	.L157:
 1809              	.LBE33:
 1810              	.LBE32:
1207:Generated_Source\PSoC5/cyPm.c **** }
 1811              		.loc 1 1207 0
 1812 0166 2846     		mov	r0, r5
 1813              	.LBB44:
 1814              	.LBB40:
1410:Generated_Source\PSoC5/cyPm.c ****     CY_PM_PWRSYS_WAKE_TR1_REG = cyPmBackup.wakeupTrim1;
 1815              		.loc 1 1410 0
 1816 0168 94F807A0 		ldrb	r10, [r4, #7]	@ zero_extendqisi2
1411:Generated_Source\PSoC5/cyPm.c **** }
 1817              		.loc 1 1411 0
 1818 016c 94F80880 		ldrb	r8, [r4, #8]	@ zero_extendqisi2
 1819              	.LBE40:
 1820              	.LBE44:
1202:Generated_Source\PSoC5/cyPm.c ****     CY_PM_WAKEUP_CFG1_REG = cyPmBackup.wakeupCfg1;
 1821              		.loc 1 1202 0
 1822 0170 94F804E0 		ldrb	lr, [r4, #4]	@ zero_extendqisi2
1203:Generated_Source\PSoC5/cyPm.c ****     CY_PM_WAKEUP_CFG2_REG = cyPmBackup.wakeupCfg2;
 1823              		.loc 1 1203 0
 1824 0174 6679     		ldrb	r6, [r4, #5]	@ zero_extendqisi2
1204:Generated_Source\PSoC5/cyPm.c **** 
 1825              		.loc 1 1204 0
 1826 0176 A279     		ldrb	r2, [r4, #6]	@ zero_extendqisi2
 1827              	.LBB45:
 1828              	.LBB41:
1410:Generated_Source\PSoC5/cyPm.c ****     CY_PM_PWRSYS_WAKE_TR1_REG = cyPmBackup.wakeupTrim1;
 1829              		.loc 1 1410 0
 1830 0178 DFF8E890 		ldr	r9, .L177+24
ARM GAS  C:\Users\mgronber\AppData\Local\Temp\ccowRMf8.s 			page 74


1411:Generated_Source\PSoC5/cyPm.c **** }
 1831              		.loc 1 1411 0
 1832 017c DFF8E8C0 		ldr	ip, .L177+28
 1833              	.LBE41:
 1834              	.LBE45:
1202:Generated_Source\PSoC5/cyPm.c ****     CY_PM_WAKEUP_CFG1_REG = cyPmBackup.wakeupCfg1;
 1835              		.loc 1 1202 0
 1836 0180 3A4F     		ldr	r7, .L177+32
1203:Generated_Source\PSoC5/cyPm.c ****     CY_PM_WAKEUP_CFG2_REG = cyPmBackup.wakeupCfg2;
 1837              		.loc 1 1203 0
 1838 0182 3B49     		ldr	r1, .L177+36
1204:Generated_Source\PSoC5/cyPm.c **** 
 1839              		.loc 1 1204 0
 1840 0184 3C4B     		ldr	r3, .L177+44
 1841              	.LBB46:
 1842              	.LBB42:
1410:Generated_Source\PSoC5/cyPm.c ****     CY_PM_PWRSYS_WAKE_TR1_REG = cyPmBackup.wakeupTrim1;
 1843              		.loc 1 1410 0
 1844 0186 89F800A0 		strb	r10, [r9]
1411:Generated_Source\PSoC5/cyPm.c **** }
 1845              		.loc 1 1411 0
 1846 018a 8CF80080 		strb	r8, [ip]
 1847              	.LBE42:
 1848              	.LBE46:
1202:Generated_Source\PSoC5/cyPm.c ****     CY_PM_WAKEUP_CFG1_REG = cyPmBackup.wakeupCfg1;
 1849              		.loc 1 1202 0
 1850 018e 87F800E0 		strb	lr, [r7]
1203:Generated_Source\PSoC5/cyPm.c ****     CY_PM_WAKEUP_CFG2_REG = cyPmBackup.wakeupCfg2;
 1851              		.loc 1 1203 0
 1852 0192 0E70     		strb	r6, [r1]
1204:Generated_Source\PSoC5/cyPm.c **** 
 1853              		.loc 1 1204 0
 1854 0194 1A70     		strb	r2, [r3]
 1855              	.L166:
1208:Generated_Source\PSoC5/cyPm.c **** 
 1856              		.loc 1 1208 0
 1857 0196 BDE8F047 		pop	{r4, r5, r6, r7, r8, r9, r10, lr}
 1858              		.cfi_remember_state
 1859              		.cfi_restore 14
 1860              		.cfi_restore 10
 1861              		.cfi_restore 9
 1862              		.cfi_restore 8
 1863              		.cfi_restore 7
 1864              		.cfi_restore 6
 1865              		.cfi_restore 5
 1866              		.cfi_restore 4
 1867              		.cfi_def_cfa_offset 0
1207:Generated_Source\PSoC5/cyPm.c **** }
 1868              		.loc 1 1207 0
 1869 019a FFF7FEBF 		b	CyExitCriticalSection
 1870              	.LVL59:
 1871              	.L168:
 1872              		.cfi_restore_state
 1873              	.LBB47:
 1874              	.LBB24:
1322:Generated_Source\PSoC5/cyPm.c ****     }
 1875              		.loc 1 1322 0
ARM GAS  C:\Users\mgronber\AppData\Local\Temp\ccowRMf8.s 			page 75


 1876 019e 3378     		ldrb	r3, [r6]	@ zero_extendqisi2
1321:Generated_Source\PSoC5/cyPm.c ****         CY_PM_PWRSYS_SLP_TR_REG |= CY_PM_PWRSYS_SLP_TR_BYPASS;
 1877              		.loc 1 1321 0
 1878 01a0 E270     		strb	r2, [r4, #3]
1322:Generated_Source\PSoC5/cyPm.c ****     }
 1879              		.loc 1 1322 0
 1880 01a2 43F01003 		orr	r3, r3, #16
 1881 01a6 3370     		strb	r3, [r6]
 1882              	.LBB16:
 1883              	.LBB14:
1791:Generated_Source\PSoC5/cyPm.c ****     {
 1884              		.loc 1 1791 0
 1885 01a8 2D4B     		ldr	r3, .L177+20
 1886 01aa 1B78     		ldrb	r3, [r3]	@ zero_extendqisi2
 1887 01ac 13F00103 		ands	r3, r3, #1
 1888 01b0 3FF45CAF 		beq	.L142
 1889              	.L169:
1794:Generated_Source\PSoC5/cyPm.c **** 
 1890              		.loc 1 1794 0
 1891 01b4 314A     		ldr	r2, .L177+48
1797:Generated_Source\PSoC5/cyPm.c ****                              CY_PM_DISABLED : CY_PM_ENABLED;
 1892              		.loc 1 1797 0
 1893 01b6 324B     		ldr	r3, .L177+52
1794:Generated_Source\PSoC5/cyPm.c **** 
 1894              		.loc 1 1794 0
 1895 01b8 1278     		ldrb	r2, [r2]	@ zero_extendqisi2
1797:Generated_Source\PSoC5/cyPm.c ****                              CY_PM_DISABLED : CY_PM_ENABLED;
 1896              		.loc 1 1797 0
 1897 01ba 1B78     		ldrb	r3, [r3]	@ zero_extendqisi2
1794:Generated_Source\PSoC5/cyPm.c **** 
 1898              		.loc 1 1794 0
 1899 01bc 02F00F02 		and	r2, r2, #15
1798:Generated_Source\PSoC5/cyPm.c **** 
 1900              		.loc 1 1798 0
 1901 01c0 C3F38013 		ubfx	r3, r3, #6, #1
1793:Generated_Source\PSoC5/cyPm.c ****         cyPmBackup.lvidTrip = CY_VD_LVI_TRIP_REG & CY_VD_LVI_TRIP_LVID_MASK;
 1902              		.loc 1 1793 0
 1903 01c4 0121     		movs	r1, #1
1794:Generated_Source\PSoC5/cyPm.c **** 
 1904              		.loc 1 1794 0
 1905 01c6 84F82620 		strb	r2, [r4, #38]
1797:Generated_Source\PSoC5/cyPm.c ****                              CY_PM_DISABLED : CY_PM_ENABLED;
 1906              		.loc 1 1797 0
 1907 01ca 84F82A30 		strb	r3, [r4, #42]
1793:Generated_Source\PSoC5/cyPm.c ****         cyPmBackup.lvidTrip = CY_VD_LVI_TRIP_REG & CY_VD_LVI_TRIP_LVID_MASK;
 1908              		.loc 1 1793 0
 1909 01ce 84F82510 		strb	r1, [r4, #37]
1800:Generated_Source\PSoC5/cyPm.c ****     }
 1910              		.loc 1 1800 0
 1911 01d2 FFF7FEFF 		bl	CyVdLvDigitDisable
 1912              	.LVL60:
 1913 01d6 4BE7     		b	.L143
 1914              	.L167:
 1915              	.LBE14:
 1916              	.LBE16:
 1917              	.LBE24:
 1918              	.LBE47:
ARM GAS  C:\Users\mgronber\AppData\Local\Temp\ccowRMf8.s 			page 76


1166:Generated_Source\PSoC5/cyPm.c **** 
 1919              		.loc 1 1166 0
 1920 01d8 1E78     		ldrb	r6, [r3]	@ zero_extendqisi2
1169:Generated_Source\PSoC5/cyPm.c ****     }
 1921              		.loc 1 1169 0
 1922 01da 1878     		ldrb	r0, [r3]	@ zero_extendqisi2
1166:Generated_Source\PSoC5/cyPm.c **** 
 1923              		.loc 1 1166 0
 1924 01dc 06F00706 		and	r6, r6, #7
1169:Generated_Source\PSoC5/cyPm.c ****     }
 1925              		.loc 1 1169 0
 1926 01e0 00F0F800 		and	r0, r0, #248
1163:Generated_Source\PSoC5/cyPm.c **** 
 1927              		.loc 1 1163 0
 1928 01e4 81F82D20 		strb	r2, [r1, #45]
1166:Generated_Source\PSoC5/cyPm.c **** 
 1929              		.loc 1 1166 0
 1930 01e8 81F82C60 		strb	r6, [r1, #44]
1169:Generated_Source\PSoC5/cyPm.c ****     }
 1931              		.loc 1 1169 0
 1932 01ec 1870     		strb	r0, [r3]
 1933 01ee 81E7     		b	.L150
 1934              	.L170:
 1935              	.LBB48:
 1936              	.LBB25:
 1937              	.LBB17:
 1938              	.LBB15:
1810:Generated_Source\PSoC5/cyPm.c **** 
 1939              		.loc 1 1810 0
 1940 01f0 224A     		ldr	r2, .L177+48
1813:Generated_Source\PSoC5/cyPm.c ****                              CY_PM_DISABLED : CY_PM_ENABLED;
 1941              		.loc 1 1813 0
 1942 01f2 234B     		ldr	r3, .L177+52
1810:Generated_Source\PSoC5/cyPm.c **** 
 1943              		.loc 1 1810 0
 1944 01f4 1278     		ldrb	r2, [r2]	@ zero_extendqisi2
1813:Generated_Source\PSoC5/cyPm.c ****                              CY_PM_DISABLED : CY_PM_ENABLED;
 1945              		.loc 1 1813 0
 1946 01f6 1B78     		ldrb	r3, [r3]	@ zero_extendqisi2
1810:Generated_Source\PSoC5/cyPm.c **** 
 1947              		.loc 1 1810 0
 1948 01f8 1209     		lsrs	r2, r2, #4
1814:Generated_Source\PSoC5/cyPm.c **** 
 1949              		.loc 1 1814 0
 1950 01fa DB09     		lsrs	r3, r3, #7
1809:Generated_Source\PSoC5/cyPm.c ****         cyPmBackup.lviaTrip = CY_VD_LVI_TRIP_REG >> 4u;
 1951              		.loc 1 1809 0
 1952 01fc 0121     		movs	r1, #1
1810:Generated_Source\PSoC5/cyPm.c **** 
 1953              		.loc 1 1810 0
 1954 01fe 84F82820 		strb	r2, [r4, #40]
1813:Generated_Source\PSoC5/cyPm.c ****                              CY_PM_DISABLED : CY_PM_ENABLED;
 1955              		.loc 1 1813 0
 1956 0202 84F82B30 		strb	r3, [r4, #43]
1809:Generated_Source\PSoC5/cyPm.c ****         cyPmBackup.lviaTrip = CY_VD_LVI_TRIP_REG >> 4u;
 1957              		.loc 1 1809 0
 1958 0206 84F82710 		strb	r1, [r4, #39]
ARM GAS  C:\Users\mgronber\AppData\Local\Temp\ccowRMf8.s 			page 77


1816:Generated_Source\PSoC5/cyPm.c ****     }
 1959              		.loc 1 1816 0
 1960 020a FFF7FEFF 		bl	CyVdLvAnalogDisable
 1961              	.LVL61:
 1962 020e 3AE7     		b	.L145
 1963              	.L171:
1825:Generated_Source\PSoC5/cyPm.c ****         CyVdHvAnalogDisable();
 1964              		.loc 1 1825 0
 1965 0210 0123     		movs	r3, #1
 1966 0212 84F82930 		strb	r3, [r4, #41]
1826:Generated_Source\PSoC5/cyPm.c ****     }
 1967              		.loc 1 1826 0
 1968 0216 FFF7FEFF 		bl	CyVdHvAnalogDisable
 1969              	.LVL62:
 1970 021a 3FE7     		b	.L147
 1971              	.L174:
 1972              	.LBE15:
 1973              	.LBE17:
 1974              	.LBE25:
 1975              	.LBE48:
 1976              	.LBB49:
 1977              	.LBB43:
 1978              	.LBB38:
 1979              	.LBB36:
1866:Generated_Source\PSoC5/cyPm.c ****     {
1867:Generated_Source\PSoC5/cyPm.c ****         CyVdHvAnalogEnable();
 1980              		.loc 1 1867 0
 1981 021c FFF7FEFF 		bl	CyVdHvAnalogEnable
 1982              	.LVL63:
 1983 0220 8FE7     		b	.L154
 1984              	.L176:
 1985              	.LBE36:
 1986              	.LBE38:
1393:Generated_Source\PSoC5/cyPm.c ****     }
 1987              		.loc 1 1393 0
 1988 0222 FFF7FEFF 		bl	CyILO_Start100K
 1989              	.LVL64:
 1990 0226 94E7     		b	.L156
 1991              	.L175:
1386:Generated_Source\PSoC5/cyPm.c ****     }
 1992              		.loc 1 1386 0
 1993 0228 FFF7FEFF 		bl	CyILO_Start1K
 1994              	.LVL65:
 1995 022c 8EE7     		b	.L155
 1996              	.L173:
 1997              	.LBB39:
 1998              	.LBB37:
1862:Generated_Source\PSoC5/cyPm.c ****     }
 1999              		.loc 1 1862 0
 2000 022e 92F82B00 		ldrb	r0, [r2, #43]	@ zero_extendqisi2
 2001 0232 92F82810 		ldrb	r1, [r2, #40]	@ zero_extendqisi2
 2002 0236 FFF7FEFF 		bl	CyVdLvAnalogEnable
 2003              	.LVL66:
 2004 023a 7EE7     		b	.L153
 2005              	.L172:
1857:Generated_Source\PSoC5/cyPm.c ****     }
 2006              		.loc 1 1857 0
ARM GAS  C:\Users\mgronber\AppData\Local\Temp\ccowRMf8.s 			page 78


 2007 023c 92F82A00 		ldrb	r0, [r2, #42]	@ zero_extendqisi2
 2008 0240 92F82610 		ldrb	r1, [r2, #38]	@ zero_extendqisi2
 2009 0244 FFF7FEFF 		bl	CyVdLvDigitEnable
 2010              	.LVL67:
 2011 0248 72E7     		b	.L152
 2012              	.L178:
 2013 024a 00BF     		.align	2
 2014              	.L177:
 2015 024c 93430040 		.word	1073759123
 2016 0250 83460040 		.word	1073759875
 2017 0254 31430040 		.word	1073759025
 2018 0258 00000000 		.word	.LANCHOR0
 2019 025c 00430040 		.word	1073758976
 2020 0260 F5460040 		.word	1073759989
 2021 0264 85460040 		.word	1073759877
 2022 0268 86460040 		.word	1073759878
 2023 026c 98430040 		.word	1073759128
 2024 0270 99430040 		.word	1073759129
 2025 0274 00420040 		.word	1073758720
 2026 0278 9A430040 		.word	1073759130
 2027 027c F4460040 		.word	1073759988
 2028 0280 F7460040 		.word	1073759991
 2029              	.LBE37:
 2030              	.LBE39:
 2031              	.LBE43:
 2032              	.LBE49:
 2033              		.cfi_endproc
 2034              	.LFE4:
 2035              		.size	CyPmHibernate, .-CyPmHibernate
 2036              		.section	.text.CyPmReadStatus,"ax",%progbits
 2037              		.align	2
 2038              		.global	CyPmReadStatus
 2039              		.thumb
 2040              		.thumb_func
 2041              		.type	CyPmReadStatus, %function
 2042              	CyPmReadStatus:
 2043              	.LFB5:
1241:Generated_Source\PSoC5/cyPm.c ****     static uint8 interruptStatus;
 2044              		.loc 1 1241 0
 2045              		.cfi_startproc
 2046              		@ args = 0, pretend = 0, frame = 0
 2047              		@ frame_needed = 0, uses_anonymous_args = 0
 2048              	.LVL68:
 2049 0000 38B5     		push	{r3, r4, r5, lr}
 2050              		.cfi_def_cfa_offset 16
 2051              		.cfi_offset 3, -16
 2052              		.cfi_offset 4, -12
 2053              		.cfi_offset 5, -8
 2054              		.cfi_offset 14, -4
1241:Generated_Source\PSoC5/cyPm.c ****     static uint8 interruptStatus;
 2055              		.loc 1 1241 0
 2056 0002 0546     		mov	r5, r0
1247:Generated_Source\PSoC5/cyPm.c **** 
 2057              		.loc 1 1247 0
 2058 0004 FFF7FEFF 		bl	CyEnterCriticalSection
 2059              	.LVL69:
1250:Generated_Source\PSoC5/cyPm.c ****     tmpStatus = interruptStatus;
ARM GAS  C:\Users\mgronber\AppData\Local\Temp\ccowRMf8.s 			page 79


 2060              		.loc 1 1250 0
 2061 0008 064A     		ldr	r2, .L181
 2062 000a 074B     		ldr	r3, .L181+4
 2063 000c 1C78     		ldrb	r4, [r3]	@ zero_extendqisi2
 2064 000e 92F84230 		ldrb	r3, [r2, #66]	@ zero_extendqisi2
 2065 0012 1C43     		orrs	r4, r4, r3
 2066              	.LVL70:
1252:Generated_Source\PSoC5/cyPm.c **** 
 2067              		.loc 1 1252 0
 2068 0014 24EA0505 		bic	r5, r4, r5
 2069 0018 82F84250 		strb	r5, [r2, #66]
1255:Generated_Source\PSoC5/cyPm.c **** 
 2070              		.loc 1 1255 0
 2071 001c FFF7FEFF 		bl	CyExitCriticalSection
 2072              	.LVL71:
1258:Generated_Source\PSoC5/cyPm.c **** 
 2073              		.loc 1 1258 0
 2074 0020 2046     		mov	r0, r4
 2075 0022 38BD     		pop	{r3, r4, r5, pc}
 2076              	.LVL72:
 2077              	.L182:
 2078              		.align	2
 2079              	.L181:
 2080 0024 00000000 		.word	.LANCHOR0
 2081 0028 90430040 		.word	1073759120
 2082              		.cfi_endproc
 2083              	.LFE5:
 2084              		.size	CyPmReadStatus, .-CyPmReadStatus
 2085              		.section	.text.CyPmCtwSetInterval,"ax",%progbits
 2086              		.align	2
 2087              		.global	CyPmCtwSetInterval
 2088              		.thumb
 2089              		.thumb_func
 2090              		.type	CyPmCtwSetInterval, %function
 2091              	CyPmCtwSetInterval:
 2092              	.LFB8:
1436:Generated_Source\PSoC5/cyPm.c ****     /* Disable CTW interrupt enable */
 2093              		.loc 1 1436 0
 2094              		.cfi_startproc
 2095              		@ args = 0, pretend = 0, frame = 0
 2096              		@ frame_needed = 0, uses_anonymous_args = 0
 2097              	.LVL73:
 2098 0000 38B5     		push	{r3, r4, r5, lr}
 2099              		.cfi_def_cfa_offset 16
 2100              		.cfi_offset 3, -16
 2101              		.cfi_offset 4, -12
 2102              		.cfi_offset 5, -8
 2103              		.cfi_offset 14, -4
1438:Generated_Source\PSoC5/cyPm.c **** 
 2104              		.loc 1 1438 0
 2105 0002 124C     		ldr	r4, .L188
1436:Generated_Source\PSoC5/cyPm.c ****     /* Disable CTW interrupt enable */
 2106              		.loc 1 1436 0
 2107 0004 0546     		mov	r5, r0
1438:Generated_Source\PSoC5/cyPm.c **** 
 2108              		.loc 1 1438 0
 2109 0006 2378     		ldrb	r3, [r4]	@ zero_extendqisi2
ARM GAS  C:\Users\mgronber\AppData\Local\Temp\ccowRMf8.s 			page 80


 2110 0008 03F0F703 		and	r3, r3, #247
 2111 000c 2370     		strb	r3, [r4]
1441:Generated_Source\PSoC5/cyPm.c **** 
 2112              		.loc 1 1441 0
 2113 000e FFF7FEFF 		bl	CyILO_Start1K
 2114              	.LVL74:
1444:Generated_Source\PSoC5/cyPm.c ****     {
 2115              		.loc 1 1444 0
 2116 0012 2378     		ldrb	r3, [r4]	@ zero_extendqisi2
 2117 0014 5B07     		lsls	r3, r3, #29
 2118 0016 0DD5     		bpl	.L184
1447:Generated_Source\PSoC5/cyPm.c ****         {
 2119              		.loc 1 1447 0
 2120 0018 0D4A     		ldr	r2, .L188+4
 2121 001a 1378     		ldrb	r3, [r2]	@ zero_extendqisi2
 2122 001c AB42     		cmp	r3, r5
 2123 001e 13D0     		beq	.L183
1450:Generated_Source\PSoC5/cyPm.c ****             CY_PM_TW_CFG1_REG = ctwInterval;
 2124              		.loc 1 1450 0
 2125 0020 2378     		ldrb	r3, [r4]	@ zero_extendqisi2
 2126 0022 03F0FB03 		and	r3, r3, #251
 2127 0026 2370     		strb	r3, [r4]
1451:Generated_Source\PSoC5/cyPm.c ****             CY_PM_TW_CFG2_REG |= CY_PM_CTW_EN;
 2128              		.loc 1 1451 0
 2129 0028 1570     		strb	r5, [r2]
1452:Generated_Source\PSoC5/cyPm.c ****         }   /* Required interval is already set */
 2130              		.loc 1 1452 0
 2131 002a 2378     		ldrb	r3, [r4]	@ zero_extendqisi2
 2132 002c 43F00403 		orr	r3, r3, #4
 2133 0030 2370     		strb	r3, [r4]
 2134 0032 38BD     		pop	{r3, r4, r5, pc}
 2135              	.L184:
1458:Generated_Source\PSoC5/cyPm.c ****         {
 2136              		.loc 1 1458 0
 2137 0034 064B     		ldr	r3, .L188+4
 2138 0036 1A78     		ldrb	r2, [r3]	@ zero_extendqisi2
 2139 0038 AA42     		cmp	r2, r5
1465:Generated_Source\PSoC5/cyPm.c ****     }
 2140              		.loc 1 1465 0
 2141 003a 044A     		ldr	r2, .L188
1461:Generated_Source\PSoC5/cyPm.c ****         }   /* Required interval is already set */
 2142              		.loc 1 1461 0
 2143 003c 18BF     		it	ne
 2144 003e 1D70     		strbne	r5, [r3]
1465:Generated_Source\PSoC5/cyPm.c ****     }
 2145              		.loc 1 1465 0
 2146 0040 1378     		ldrb	r3, [r2]	@ zero_extendqisi2
 2147 0042 43F00403 		orr	r3, r3, #4
 2148 0046 1370     		strb	r3, [r2]
 2149              	.L183:
 2150 0048 38BD     		pop	{r3, r4, r5, pc}
 2151              	.L189:
 2152 004a 00BF     		.align	2
 2153              	.L188:
 2154 004c 82430040 		.word	1073759106
 2155 0050 81430040 		.word	1073759105
 2156              		.cfi_endproc
ARM GAS  C:\Users\mgronber\AppData\Local\Temp\ccowRMf8.s 			page 81


 2157              	.LFE8:
 2158              		.size	CyPmCtwSetInterval, .-CyPmCtwSetInterval
 2159              		.section	.text.CyPmOppsSet,"ax",%progbits
 2160              		.align	2
 2161              		.global	CyPmOppsSet
 2162              		.thumb
 2163              		.thumb_func
 2164              		.type	CyPmOppsSet, %function
 2165              	CyPmOppsSet:
 2166              	.LFB9:
1488:Generated_Source\PSoC5/cyPm.c ****     /* Enable 32kHz XTAL if needed */
 2167              		.loc 1 1488 0
 2168              		.cfi_startproc
 2169              		@ args = 0, pretend = 0, frame = 0
 2170              		@ frame_needed = 0, uses_anonymous_args = 0
 2171 0000 08B5     		push	{r3, lr}
 2172              		.cfi_def_cfa_offset 8
 2173              		.cfi_offset 3, -8
 2174              		.cfi_offset 14, -4
1490:Generated_Source\PSoC5/cyPm.c ****     {
 2175              		.loc 1 1490 0
 2176 0002 084B     		ldr	r3, .L193
 2177 0004 1B78     		ldrb	r3, [r3]	@ zero_extendqisi2
 2178 0006 DB07     		lsls	r3, r3, #31
 2179 0008 01D4     		bmi	.L191
1493:Generated_Source\PSoC5/cyPm.c ****     }
 2180              		.loc 1 1493 0
 2181 000a FFF7FEFF 		bl	CyXTAL_32KHZ_Start
 2182              	.LVL75:
 2183              	.L191:
1497:Generated_Source\PSoC5/cyPm.c **** 
 2184              		.loc 1 1497 0
 2185 000e 064B     		ldr	r3, .L193+4
 2186 0010 1A78     		ldrb	r2, [r3]	@ zero_extendqisi2
 2187 0012 02F0DF02 		and	r2, r2, #223
 2188 0016 1A70     		strb	r2, [r3]
1500:Generated_Source\PSoC5/cyPm.c **** }
 2189              		.loc 1 1500 0
 2190 0018 1A78     		ldrb	r2, [r3]	@ zero_extendqisi2
 2191 001a 42F01002 		orr	r2, r2, #16
 2192 001e 1A70     		strb	r2, [r3]
 2193 0020 08BD     		pop	{r3, pc}
 2194              	.L194:
 2195 0022 00BF     		.align	2
 2196              	.L193:
 2197 0024 08430040 		.word	1073758984
 2198 0028 82430040 		.word	1073759106
 2199              		.cfi_endproc
 2200              	.LFE9:
 2201              		.size	CyPmOppsSet, .-CyPmOppsSet
 2202              		.section	.text.CyPmFtwSetInterval,"ax",%progbits
 2203              		.align	2
 2204              		.global	CyPmFtwSetInterval
 2205              		.thumb
 2206              		.thumb_func
 2207              		.type	CyPmFtwSetInterval, %function
 2208              	CyPmFtwSetInterval:
ARM GAS  C:\Users\mgronber\AppData\Local\Temp\ccowRMf8.s 			page 82


 2209              	.LFB10:
1525:Generated_Source\PSoC5/cyPm.c ****     /* Disable FTW interrupt enable */
 2210              		.loc 1 1525 0
 2211              		.cfi_startproc
 2212              		@ args = 0, pretend = 0, frame = 0
 2213              		@ frame_needed = 0, uses_anonymous_args = 0
 2214              	.LVL76:
 2215 0000 38B5     		push	{r3, r4, r5, lr}
 2216              		.cfi_def_cfa_offset 16
 2217              		.cfi_offset 3, -16
 2218              		.cfi_offset 4, -12
 2219              		.cfi_offset 5, -8
 2220              		.cfi_offset 14, -4
1527:Generated_Source\PSoC5/cyPm.c **** 
 2221              		.loc 1 1527 0
 2222 0002 124C     		ldr	r4, .L200
1525:Generated_Source\PSoC5/cyPm.c ****     /* Disable FTW interrupt enable */
 2223              		.loc 1 1525 0
 2224 0004 0546     		mov	r5, r0
1527:Generated_Source\PSoC5/cyPm.c **** 
 2225              		.loc 1 1527 0
 2226 0006 2378     		ldrb	r3, [r4]	@ zero_extendqisi2
 2227 0008 03F0FD03 		and	r3, r3, #253
 2228 000c 2370     		strb	r3, [r4]
1530:Generated_Source\PSoC5/cyPm.c **** 
 2229              		.loc 1 1530 0
 2230 000e FFF7FEFF 		bl	CyILO_Start100K
 2231              	.LVL77:
1533:Generated_Source\PSoC5/cyPm.c ****     {
 2232              		.loc 1 1533 0
 2233 0012 2378     		ldrb	r3, [r4]	@ zero_extendqisi2
 2234 0014 DB07     		lsls	r3, r3, #31
 2235 0016 0DD5     		bpl	.L196
1536:Generated_Source\PSoC5/cyPm.c ****         {
 2236              		.loc 1 1536 0
 2237 0018 0D4A     		ldr	r2, .L200+4
 2238 001a 1378     		ldrb	r3, [r2]	@ zero_extendqisi2
 2239 001c AB42     		cmp	r3, r5
 2240 001e 13D0     		beq	.L195
1539:Generated_Source\PSoC5/cyPm.c ****             CY_PM_TW_CFG0_REG = ftwInterval;
 2241              		.loc 1 1539 0
 2242 0020 2378     		ldrb	r3, [r4]	@ zero_extendqisi2
 2243 0022 03F0FE03 		and	r3, r3, #254
 2244 0026 2370     		strb	r3, [r4]
1540:Generated_Source\PSoC5/cyPm.c ****             CY_PM_TW_CFG2_REG |= CY_PM_FTW_EN;
 2245              		.loc 1 1540 0
 2246 0028 1570     		strb	r5, [r2]
1541:Generated_Source\PSoC5/cyPm.c ****         }   /* Required interval is already set */
 2247              		.loc 1 1541 0
 2248 002a 2378     		ldrb	r3, [r4]	@ zero_extendqisi2
 2249 002c 43F00103 		orr	r3, r3, #1
 2250 0030 2370     		strb	r3, [r4]
 2251 0032 38BD     		pop	{r3, r4, r5, pc}
 2252              	.L196:
1547:Generated_Source\PSoC5/cyPm.c ****         {
 2253              		.loc 1 1547 0
 2254 0034 064B     		ldr	r3, .L200+4
ARM GAS  C:\Users\mgronber\AppData\Local\Temp\ccowRMf8.s 			page 83


 2255 0036 1A78     		ldrb	r2, [r3]	@ zero_extendqisi2
 2256 0038 AA42     		cmp	r2, r5
1554:Generated_Source\PSoC5/cyPm.c ****     }
 2257              		.loc 1 1554 0
 2258 003a 044A     		ldr	r2, .L200
1550:Generated_Source\PSoC5/cyPm.c ****         }   /* Required interval is already set */
 2259              		.loc 1 1550 0
 2260 003c 18BF     		it	ne
 2261 003e 1D70     		strbne	r5, [r3]
1554:Generated_Source\PSoC5/cyPm.c ****     }
 2262              		.loc 1 1554 0
 2263 0040 1378     		ldrb	r3, [r2]	@ zero_extendqisi2
 2264 0042 43F00103 		orr	r3, r3, #1
 2265 0046 1370     		strb	r3, [r2]
 2266              	.L195:
 2267 0048 38BD     		pop	{r3, r4, r5, pc}
 2268              	.L201:
 2269 004a 00BF     		.align	2
 2270              	.L200:
 2271 004c 82430040 		.word	1073759106
 2272 0050 80430040 		.word	1073759104
 2273              		.cfi_endproc
 2274              	.LFE10:
 2275              		.size	CyPmFtwSetInterval, .-CyPmFtwSetInterval
 2276              		.section	.rodata
 2277              		.align	2
 2278              		.set	.LANCHOR1,. + 0
 2279              		.type	cyPmImoFreqReg2Mhz, %object
 2280              		.size	cyPmImoFreqReg2Mhz, 7
 2281              	cyPmImoFreqReg2Mhz:
 2282 0000 0C       		.byte	12
 2283 0001 06       		.byte	6
 2284 0002 18       		.byte	24
 2285 0003 03       		.byte	3
 2286 0004 30       		.byte	48
 2287 0005 3E       		.byte	62
 2288 0006 4A       		.byte	74
 2289 0007 00       		.space	1
 2290              	.LC0:
 2291 0008 02       		.byte	2
 2292 0009 01       		.byte	1
 2293 000a 03       		.byte	3
 2294 000b 00       		.byte	0
 2295 000c 04       		.byte	4
 2296 000d 05       		.byte	5
 2297 000e 06       		.byte	6
 2298 000f 00       		.bss
 2299              		.align	2
 2300              		.set	.LANCHOR0,. + 0
 2301              		.type	cyPmBackup, %object
 2302              		.size	cyPmBackup, 47
 2303              	cyPmBackup:
 2304 0000 00000000 		.space	47
 2304      00000000 
 2304      00000000 
 2304      00000000 
 2304      00000000 
ARM GAS  C:\Users\mgronber\AppData\Local\Temp\ccowRMf8.s 			page 84


 2305 002f 00       		.space	1
 2306              		.type	cyPmClockBackup, %object
 2307              		.size	cyPmClockBackup, 18
 2308              	cyPmClockBackup:
 2309 0030 00000000 		.space	18
 2309      00000000 
 2309      00000000 
 2309      00000000 
 2309      0000
 2310              		.type	interruptStatus.4805, %object
 2311              		.size	interruptStatus.4805, 1
 2312              	interruptStatus.4805:
 2313 0042 00       		.space	1
 2314 0043 00       		.text
 2315              	.Letext0:
 2316              		.file 2 "Generated_Source\\PSoC5\\cytypes.h"
 2317              		.file 3 "Generated_Source\\PSoC5\\cyPm.h"
 2318              		.file 4 "Generated_Source\\PSoC5\\CyFlash.h"
 2319              		.file 5 "Generated_Source\\PSoC5\\CyLib.h"
 2320              		.section	.debug_info,"",%progbits
 2321              	.Ldebug_info0:
 2322 0000 C2090000 		.4byte	0x9c2
 2323 0004 0400     		.2byte	0x4
 2324 0006 00000000 		.4byte	.Ldebug_abbrev0
 2325 000a 04       		.byte	0x4
 2326 000b 01       		.uleb128 0x1
 2327 000c BF030000 		.4byte	.LASF113
 2328 0010 01       		.byte	0x1
 2329 0011 35030000 		.4byte	.LASF114
 2330 0015 3F010000 		.4byte	.LASF115
 2331 0019 C0000000 		.4byte	.Ldebug_ranges0+0xc0
 2332 001d 00000000 		.4byte	0
 2333 0021 00000000 		.4byte	.Ldebug_line0
 2334 0025 02       		.uleb128 0x2
 2335 0026 01       		.byte	0x1
 2336 0027 06       		.byte	0x6
 2337 0028 33010000 		.4byte	.LASF0
 2338 002c 02       		.uleb128 0x2
 2339 002d 01       		.byte	0x1
 2340 002e 08       		.byte	0x8
 2341 002f 23050000 		.4byte	.LASF1
 2342 0033 02       		.uleb128 0x2
 2343 0034 02       		.byte	0x2
 2344 0035 05       		.byte	0x5
 2345 0036 5C050000 		.4byte	.LASF2
 2346 003a 02       		.uleb128 0x2
 2347 003b 02       		.byte	0x2
 2348 003c 07       		.byte	0x7
 2349 003d EC020000 		.4byte	.LASF3
 2350 0041 02       		.uleb128 0x2
 2351 0042 04       		.byte	0x4
 2352 0043 05       		.byte	0x5
 2353 0044 B7010000 		.4byte	.LASF4
 2354 0048 02       		.uleb128 0x2
 2355 0049 04       		.byte	0x4
 2356 004a 07       		.byte	0x7
 2357 004b 5D020000 		.4byte	.LASF5
ARM GAS  C:\Users\mgronber\AppData\Local\Temp\ccowRMf8.s 			page 85


 2358 004f 02       		.uleb128 0x2
 2359 0050 08       		.byte	0x8
 2360 0051 05       		.byte	0x5
 2361 0052 25010000 		.4byte	.LASF6
 2362 0056 02       		.uleb128 0x2
 2363 0057 08       		.byte	0x8
 2364 0058 07       		.byte	0x7
 2365 0059 A2000000 		.4byte	.LASF7
 2366 005d 03       		.uleb128 0x3
 2367 005e 04       		.byte	0x4
 2368 005f 05       		.byte	0x5
 2369 0060 696E7400 		.ascii	"int\000"
 2370 0064 02       		.uleb128 0x2
 2371 0065 04       		.byte	0x4
 2372 0066 07       		.byte	0x7
 2373 0067 2F020000 		.4byte	.LASF8
 2374 006b 04       		.uleb128 0x4
 2375 006c D2010000 		.4byte	.LASF9
 2376 0070 02       		.byte	0x2
 2377 0071 5B       		.byte	0x5b
 2378 0072 2C000000 		.4byte	0x2c
 2379 0076 04       		.uleb128 0x4
 2380 0077 14000000 		.4byte	.LASF10
 2381 007b 02       		.byte	0x2
 2382 007c 5C       		.byte	0x5c
 2383 007d 3A000000 		.4byte	0x3a
 2384 0081 04       		.uleb128 0x4
 2385 0082 F9010000 		.4byte	.LASF11
 2386 0086 02       		.byte	0x2
 2387 0087 5D       		.byte	0x5d
 2388 0088 48000000 		.4byte	0x48
 2389 008c 02       		.uleb128 0x2
 2390 008d 04       		.byte	0x4
 2391 008e 04       		.byte	0x4
 2392 008f C4040000 		.4byte	.LASF12
 2393 0093 02       		.uleb128 0x2
 2394 0094 08       		.byte	0x8
 2395 0095 04       		.byte	0x4
 2396 0096 F2010000 		.4byte	.LASF13
 2397 009a 02       		.uleb128 0x2
 2398 009b 01       		.byte	0x1
 2399 009c 08       		.byte	0x8
 2400 009d 86050000 		.4byte	.LASF14
 2401 00a1 04       		.uleb128 0x4
 2402 00a2 A6060000 		.4byte	.LASF15
 2403 00a6 02       		.byte	0x2
 2404 00a7 E8       		.byte	0xe8
 2405 00a8 48000000 		.4byte	0x48
 2406 00ac 04       		.uleb128 0x4
 2407 00ad 0B050000 		.4byte	.LASF16
 2408 00b1 02       		.byte	0x2
 2409 00b2 F0       		.byte	0xf0
 2410 00b3 B7000000 		.4byte	0xb7
 2411 00b7 05       		.uleb128 0x5
 2412 00b8 6B000000 		.4byte	0x6b
 2413 00bc 02       		.uleb128 0x2
 2414 00bd 04       		.byte	0x4
ARM GAS  C:\Users\mgronber\AppData\Local\Temp\ccowRMf8.s 			page 86


 2415 00be 07       		.byte	0x7
 2416 00bf 4D040000 		.4byte	.LASF17
 2417 00c3 06       		.uleb128 0x6
 2418 00c4 76020000 		.4byte	.LASF34
 2419 00c8 12       		.byte	0x12
 2420 00c9 03       		.byte	0x3
 2421 00ca F1       		.byte	0xf1
 2422 00cb 87010000 		.4byte	0x187
 2423 00cf 07       		.uleb128 0x7
 2424 00d0 69040000 		.4byte	.LASF18
 2425 00d4 03       		.byte	0x3
 2426 00d5 F4       		.byte	0xf4
 2427 00d6 6B000000 		.4byte	0x6b
 2428 00da 00       		.byte	0
 2429 00db 07       		.uleb128 0x7
 2430 00dc 70040000 		.4byte	.LASF19
 2431 00e0 03       		.byte	0x3
 2432 00e1 F5       		.byte	0xf5
 2433 00e2 6B000000 		.4byte	0x6b
 2434 00e6 01       		.byte	0x1
 2435 00e7 07       		.uleb128 0x7
 2436 00e8 51000000 		.4byte	.LASF20
 2437 00ec 03       		.byte	0x3
 2438 00ed F6       		.byte	0xf6
 2439 00ee 6B000000 		.4byte	0x6b
 2440 00f2 02       		.byte	0x2
 2441 00f3 07       		.uleb128 0x7
 2442 00f4 55020000 		.4byte	.LASF21
 2443 00f8 03       		.byte	0x3
 2444 00f9 F7       		.byte	0xf7
 2445 00fa 6B000000 		.4byte	0x6b
 2446 00fe 03       		.byte	0x3
 2447 00ff 07       		.uleb128 0x7
 2448 0100 E2000000 		.4byte	.LASF22
 2449 0104 03       		.byte	0x3
 2450 0105 F8       		.byte	0xf8
 2451 0106 6B000000 		.4byte	0x6b
 2452 010a 04       		.byte	0x4
 2453 010b 07       		.uleb128 0x7
 2454 010c AF060000 		.4byte	.LASF23
 2455 0110 03       		.byte	0x3
 2456 0111 F9       		.byte	0xf9
 2457 0112 6B000000 		.4byte	0x6b
 2458 0116 05       		.byte	0x5
 2459 0117 07       		.uleb128 0x7
 2460 0118 FA060000 		.4byte	.LASF24
 2461 011c 03       		.byte	0x3
 2462 011d FA       		.byte	0xfa
 2463 011e 6B000000 		.4byte	0x6b
 2464 0122 06       		.byte	0x6
 2465 0123 07       		.uleb128 0x7
 2466 0124 BA040000 		.4byte	.LASF25
 2467 0128 03       		.byte	0x3
 2468 0129 FB       		.byte	0xfb
 2469 012a 6B000000 		.4byte	0x6b
 2470 012e 07       		.byte	0x7
 2471 012f 07       		.uleb128 0x7
ARM GAS  C:\Users\mgronber\AppData\Local\Temp\ccowRMf8.s 			page 87


 2472 0130 8D030000 		.4byte	.LASF26
 2473 0134 03       		.byte	0x3
 2474 0135 FC       		.byte	0xfc
 2475 0136 6B000000 		.4byte	0x6b
 2476 013a 08       		.byte	0x8
 2477 013b 07       		.uleb128 0x7
 2478 013c B1010000 		.4byte	.LASF27
 2479 0140 03       		.byte	0x3
 2480 0141 FD       		.byte	0xfd
 2481 0142 6B000000 		.4byte	0x6b
 2482 0146 09       		.byte	0x9
 2483 0147 07       		.uleb128 0x7
 2484 0148 85000000 		.4byte	.LASF28
 2485 014c 03       		.byte	0x3
 2486 014d FE       		.byte	0xfe
 2487 014e 6B000000 		.4byte	0x6b
 2488 0152 0A       		.byte	0xa
 2489 0153 07       		.uleb128 0x7
 2490 0154 8A010000 		.4byte	.LASF29
 2491 0158 03       		.byte	0x3
 2492 0159 FF       		.byte	0xff
 2493 015a 76000000 		.4byte	0x76
 2494 015e 0C       		.byte	0xc
 2495 015f 08       		.uleb128 0x8
 2496 0160 41050000 		.4byte	.LASF30
 2497 0164 03       		.byte	0x3
 2498 0165 0001     		.2byte	0x100
 2499 0167 6B000000 		.4byte	0x6b
 2500 016b 0E       		.byte	0xe
 2501 016c 08       		.uleb128 0x8
 2502 016d 00020000 		.4byte	.LASF31
 2503 0171 03       		.byte	0x3
 2504 0172 0101     		.2byte	0x101
 2505 0174 6B000000 		.4byte	0x6b
 2506 0178 0F       		.byte	0xf
 2507 0179 08       		.uleb128 0x8
 2508 017a 29060000 		.4byte	.LASF32
 2509 017e 03       		.byte	0x3
 2510 017f 0201     		.2byte	0x102
 2511 0181 6B000000 		.4byte	0x6b
 2512 0185 10       		.byte	0x10
 2513 0186 00       		.byte	0
 2514 0187 09       		.uleb128 0x9
 2515 0188 D2020000 		.4byte	.LASF33
 2516 018c 03       		.byte	0x3
 2517 018d 0401     		.2byte	0x104
 2518 018f C3000000 		.4byte	0xc3
 2519 0193 0A       		.uleb128 0xa
 2520 0194 A3020000 		.4byte	.LASF35
 2521 0198 2F       		.byte	0x2f
 2522 0199 03       		.byte	0x3
 2523 019a 0701     		.2byte	0x107
 2524 019c A5020000 		.4byte	0x2a5
 2525 01a0 08       		.uleb128 0x8
 2526 01a1 18010000 		.4byte	.LASF36
 2527 01a5 03       		.byte	0x3
 2528 01a6 0901     		.2byte	0x109
ARM GAS  C:\Users\mgronber\AppData\Local\Temp\ccowRMf8.s 			page 88


 2529 01a8 6B000000 		.4byte	0x6b
 2530 01ac 00       		.byte	0
 2531 01ad 08       		.uleb128 0x8
 2532 01ae 50050000 		.4byte	.LASF37
 2533 01b2 03       		.byte	0x3
 2534 01b3 0A01     		.2byte	0x10a
 2535 01b5 6B000000 		.4byte	0x6b
 2536 01b9 01       		.byte	0x1
 2537 01ba 08       		.uleb128 0x8
 2538 01bb 78050000 		.4byte	.LASF38
 2539 01bf 03       		.byte	0x3
 2540 01c0 0B01     		.2byte	0x10b
 2541 01c2 6B000000 		.4byte	0x6b
 2542 01c6 02       		.byte	0x2
 2543 01c7 08       		.uleb128 0x8
 2544 01c8 B3030000 		.4byte	.LASF39
 2545 01cc 03       		.byte	0x3
 2546 01cd 0D01     		.2byte	0x10d
 2547 01cf 6B000000 		.4byte	0x6b
 2548 01d3 03       		.byte	0x3
 2549 01d4 08       		.uleb128 0x8
 2550 01d5 53030000 		.4byte	.LASF40
 2551 01d9 03       		.byte	0x3
 2552 01da 1701     		.2byte	0x117
 2553 01dc 6B000000 		.4byte	0x6b
 2554 01e0 04       		.byte	0x4
 2555 01e1 08       		.uleb128 0x8
 2556 01e2 5E030000 		.4byte	.LASF41
 2557 01e6 03       		.byte	0x3
 2558 01e7 1801     		.2byte	0x118
 2559 01e9 6B000000 		.4byte	0x6b
 2560 01ed 05       		.byte	0x5
 2561 01ee 08       		.uleb128 0x8
 2562 01ef 69030000 		.4byte	.LASF42
 2563 01f3 03       		.byte	0x3
 2564 01f4 1901     		.2byte	0x119
 2565 01f6 6B000000 		.4byte	0x6b
 2566 01fa 06       		.byte	0x6
 2567 01fb 08       		.uleb128 0x8
 2568 01fc 39000000 		.4byte	.LASF43
 2569 0200 03       		.byte	0x3
 2570 0201 1B01     		.2byte	0x11b
 2571 0203 6B000000 		.4byte	0x6b
 2572 0207 07       		.byte	0x7
 2573 0208 08       		.uleb128 0x8
 2574 0209 45000000 		.4byte	.LASF44
 2575 020d 03       		.byte	0x3
 2576 020e 1C01     		.2byte	0x11c
 2577 0210 6B000000 		.4byte	0x6b
 2578 0214 08       		.byte	0x8
 2579 0215 08       		.uleb128 0x8
 2580 0216 3C020000 		.4byte	.LASF45
 2581 021a 03       		.byte	0x3
 2582 021b 1E01     		.2byte	0x11e
 2583 021d A5020000 		.4byte	0x2a5
 2584 0221 09       		.byte	0x9
 2585 0222 08       		.uleb128 0x8
ARM GAS  C:\Users\mgronber\AppData\Local\Temp\ccowRMf8.s 			page 89


 2586 0223 6F020000 		.4byte	.LASF46
 2587 0227 03       		.byte	0x3
 2588 0228 2101     		.2byte	0x121
 2589 022a 6B000000 		.4byte	0x6b
 2590 022e 25       		.byte	0x25
 2591 022f 08       		.uleb128 0x8
 2592 0230 F1060000 		.4byte	.LASF47
 2593 0234 03       		.byte	0x3
 2594 0235 2201     		.2byte	0x122
 2595 0237 6B000000 		.4byte	0x6b
 2596 023b 26       		.byte	0x26
 2597 023c 08       		.uleb128 0x8
 2598 023d 50060000 		.4byte	.LASF48
 2599 0241 03       		.byte	0x3
 2600 0242 2301     		.2byte	0x123
 2601 0244 6B000000 		.4byte	0x6b
 2602 0248 27       		.byte	0x27
 2603 0249 08       		.uleb128 0x8
 2604 024a D9000000 		.4byte	.LASF49
 2605 024e 03       		.byte	0x3
 2606 024f 2401     		.2byte	0x124
 2607 0251 6B000000 		.4byte	0x6b
 2608 0255 28       		.byte	0x28
 2609 0256 08       		.uleb128 0x8
 2610 0257 FF000000 		.4byte	.LASF50
 2611 025b 03       		.byte	0x3
 2612 025c 2501     		.2byte	0x125
 2613 025e 6B000000 		.4byte	0x6b
 2614 0262 29       		.byte	0x29
 2615 0263 08       		.uleb128 0x8
 2616 0264 EA040000 		.4byte	.LASF51
 2617 0268 03       		.byte	0x3
 2618 0269 2601     		.2byte	0x126
 2619 026b 6B000000 		.4byte	0x6b
 2620 026f 2A       		.byte	0x2a
 2621 0270 08       		.uleb128 0x8
 2622 0271 BF060000 		.4byte	.LASF52
 2623 0275 03       		.byte	0x3
 2624 0276 2701     		.2byte	0x127
 2625 0278 6B000000 		.4byte	0x6b
 2626 027c 2B       		.byte	0x2b
 2627 027d 08       		.uleb128 0x8
 2628 027e 24020000 		.4byte	.LASF53
 2629 0282 03       		.byte	0x3
 2630 0283 2901     		.2byte	0x129
 2631 0285 6B000000 		.4byte	0x6b
 2632 0289 2C       		.byte	0x2c
 2633 028a 08       		.uleb128 0x8
 2634 028b B3050000 		.4byte	.LASF54
 2635 028f 03       		.byte	0x3
 2636 0290 2A01     		.2byte	0x12a
 2637 0292 6B000000 		.4byte	0x6b
 2638 0296 2D       		.byte	0x2d
 2639 0297 08       		.uleb128 0x8
 2640 0298 81030000 		.4byte	.LASF55
 2641 029c 03       		.byte	0x3
 2642 029d 2C01     		.2byte	0x12c
ARM GAS  C:\Users\mgronber\AppData\Local\Temp\ccowRMf8.s 			page 90


 2643 029f 6B000000 		.4byte	0x6b
 2644 02a3 2E       		.byte	0x2e
 2645 02a4 00       		.byte	0
 2646 02a5 0B       		.uleb128 0xb
 2647 02a6 6B000000 		.4byte	0x6b
 2648 02aa B5020000 		.4byte	0x2b5
 2649 02ae 0C       		.uleb128 0xc
 2650 02af BC000000 		.4byte	0xbc
 2651 02b3 1B       		.byte	0x1b
 2652 02b4 00       		.byte	0
 2653 02b5 09       		.uleb128 0x9
 2654 02b6 5E000000 		.4byte	.LASF56
 2655 02ba 03       		.byte	0x3
 2656 02bb 2E01     		.2byte	0x12e
 2657 02bd 93010000 		.4byte	0x193
 2658 02c1 0D       		.uleb128 0xd
 2659 02c2 66050000 		.4byte	.LASF57
 2660 02c6 01       		.byte	0x1
 2661 02c7 2D06     		.2byte	0x62d
 2662 02c9 00000000 		.4byte	.LFB11
 2663 02cd C8010000 		.4byte	.LFE11-.LFB11
 2664 02d1 01       		.uleb128 0x1
 2665 02d2 9C       		.byte	0x9c
 2666 02d3 0D       		.uleb128 0xd
 2667 02d4 27000000 		.4byte	.LASF58
 2668 02d8 01       		.byte	0x1
 2669 02d9 B006     		.2byte	0x6b0
 2670 02db 00000000 		.4byte	.LFB12
 2671 02df 40010000 		.4byte	.LFE12-.LFB12
 2672 02e3 01       		.uleb128 0x1
 2673 02e4 9C       		.byte	0x9c
 2674 02e5 0E       		.uleb128 0xe
 2675 02e6 97030000 		.4byte	.LASF59
 2676 02ea 01       		.byte	0x1
 2677 02eb 50       		.byte	0x50
 2678 02ec 00000000 		.4byte	.LFB0
 2679 02f0 08020000 		.4byte	.LFE0-.LFB0
 2680 02f4 01       		.uleb128 0x1
 2681 02f5 9C       		.byte	0x9c
 2682 02f6 F6030000 		.4byte	0x3f6
 2683 02fa 0F       		.uleb128 0xf
 2684 02fb 38000000 		.4byte	.LVL0
 2685 02ff 40080000 		.4byte	0x840
 2686 0303 0E030000 		.4byte	0x30e
 2687 0307 10       		.uleb128 0x10
 2688 0308 01       		.uleb128 0x1
 2689 0309 50       		.byte	0x50
 2690 030a 02       		.uleb128 0x2
 2691 030b 08       		.byte	0x8
 2692 030c 37       		.byte	0x37
 2693 030d 00       		.byte	0
 2694 030e 0F       		.uleb128 0xf
 2695 030f 8A000000 		.4byte	.LVL1
 2696 0313 51080000 		.4byte	0x851
 2697 0317 21030000 		.4byte	0x321
 2698 031b 10       		.uleb128 0x10
 2699 031c 01       		.uleb128 0x1
ARM GAS  C:\Users\mgronber\AppData\Local\Temp\ccowRMf8.s 			page 91


 2700 031d 50       		.byte	0x50
 2701 031e 01       		.uleb128 0x1
 2702 031f 32       		.byte	0x32
 2703 0320 00       		.byte	0
 2704 0321 0F       		.uleb128 0xf
 2705 0322 CA000000 		.4byte	.LVL2
 2706 0326 62080000 		.4byte	0x862
 2707 032a 34030000 		.4byte	0x334
 2708 032e 10       		.uleb128 0x10
 2709 032f 01       		.uleb128 0x1
 2710 0330 50       		.byte	0x50
 2711 0331 01       		.uleb128 0x1
 2712 0332 30       		.byte	0x30
 2713 0333 00       		.byte	0
 2714 0334 11       		.uleb128 0x11
 2715 0335 20010000 		.4byte	.LVL3
 2716 0339 40080000 		.4byte	0x840
 2717 033d 11       		.uleb128 0x11
 2718 033e 60010000 		.4byte	.LVL4
 2719 0342 73080000 		.4byte	0x873
 2720 0346 0F       		.uleb128 0xf
 2721 0347 68010000 		.4byte	.LVL5
 2722 034b 7A080000 		.4byte	0x87a
 2723 034f 59030000 		.4byte	0x359
 2724 0353 10       		.uleb128 0x10
 2725 0354 01       		.uleb128 0x1
 2726 0355 50       		.byte	0x50
 2727 0356 01       		.uleb128 0x1
 2728 0357 30       		.byte	0x30
 2729 0358 00       		.byte	0
 2730 0359 0F       		.uleb128 0xf
 2731 035a 70010000 		.4byte	.LVL6
 2732 035e 8B080000 		.4byte	0x88b
 2733 0362 6C030000 		.4byte	0x36c
 2734 0366 10       		.uleb128 0x10
 2735 0367 01       		.uleb128 0x1
 2736 0368 50       		.byte	0x50
 2737 0369 01       		.uleb128 0x1
 2738 036a 30       		.byte	0x30
 2739 036b 00       		.byte	0
 2740 036c 0F       		.uleb128 0xf
 2741 036d 78010000 		.4byte	.LVL7
 2742 0371 9C080000 		.4byte	0x89c
 2743 0375 7F030000 		.4byte	0x37f
 2744 0379 10       		.uleb128 0x10
 2745 037a 01       		.uleb128 0x1
 2746 037b 50       		.byte	0x50
 2747 037c 01       		.uleb128 0x1
 2748 037d 30       		.byte	0x30
 2749 037e 00       		.byte	0
 2750 037f 11       		.uleb128 0x11
 2751 0380 7E010000 		.4byte	.LVL8
 2752 0384 AD080000 		.4byte	0x8ad
 2753 0388 11       		.uleb128 0x11
 2754 0389 8A010000 		.4byte	.LVL9
 2755 038d B4080000 		.4byte	0x8b4
 2756 0391 0F       		.uleb128 0xf
ARM GAS  C:\Users\mgronber\AppData\Local\Temp\ccowRMf8.s 			page 92


 2757 0392 90010000 		.4byte	.LVL10
 2758 0396 C5080000 		.4byte	0x8c5
 2759 039a A4030000 		.4byte	0x3a4
 2760 039e 10       		.uleb128 0x10
 2761 039f 01       		.uleb128 0x1
 2762 03a0 50       		.byte	0x50
 2763 03a1 01       		.uleb128 0x1
 2764 03a2 36       		.byte	0x36
 2765 03a3 00       		.byte	0
 2766 03a4 11       		.uleb128 0x11
 2767 03a5 9C010000 		.4byte	.LVL11
 2768 03a9 D6080000 		.4byte	0x8d6
 2769 03ad 0F       		.uleb128 0xf
 2770 03ae B8010000 		.4byte	.LVL12
 2771 03b2 8B080000 		.4byte	0x88b
 2772 03b6 C0030000 		.4byte	0x3c0
 2773 03ba 10       		.uleb128 0x10
 2774 03bb 01       		.uleb128 0x1
 2775 03bc 50       		.byte	0x50
 2776 03bd 01       		.uleb128 0x1
 2777 03be 33       		.byte	0x33
 2778 03bf 00       		.byte	0
 2779 03c0 0F       		.uleb128 0xf
 2780 03c1 C0010000 		.4byte	.LVL13
 2781 03c5 8B080000 		.4byte	0x88b
 2782 03c9 D3030000 		.4byte	0x3d3
 2783 03cd 10       		.uleb128 0x10
 2784 03ce 01       		.uleb128 0x1
 2785 03cf 50       		.byte	0x50
 2786 03d0 01       		.uleb128 0x1
 2787 03d1 30       		.byte	0x30
 2788 03d2 00       		.byte	0
 2789 03d3 0F       		.uleb128 0xf
 2790 03d4 C8010000 		.4byte	.LVL14
 2791 03d8 8B080000 		.4byte	0x88b
 2792 03dc E6030000 		.4byte	0x3e6
 2793 03e0 10       		.uleb128 0x10
 2794 03e1 01       		.uleb128 0x1
 2795 03e2 50       		.byte	0x50
 2796 03e3 01       		.uleb128 0x1
 2797 03e4 32       		.byte	0x32
 2798 03e5 00       		.byte	0
 2799 03e6 12       		.uleb128 0x12
 2800 03e7 D0010000 		.4byte	.LVL15
 2801 03eb DD080000 		.4byte	0x8dd
 2802 03ef 10       		.uleb128 0x10
 2803 03f0 01       		.uleb128 0x1
 2804 03f1 50       		.byte	0x50
 2805 03f2 01       		.uleb128 0x1
 2806 03f3 30       		.byte	0x30
 2807 03f4 00       		.byte	0
 2808 03f5 00       		.byte	0
 2809 03f6 13       		.uleb128 0x13
 2810 03f7 90000000 		.4byte	.LASF60
 2811 03fb 01       		.byte	0x1
 2812 03fc 1A01     		.2byte	0x11a
 2813 03fe 00000000 		.4byte	.LFB1
ARM GAS  C:\Users\mgronber\AppData\Local\Temp\ccowRMf8.s 			page 93


 2814 0402 40020000 		.4byte	.LFE1-.LFB1
 2815 0406 01       		.uleb128 0x1
 2816 0407 9C       		.byte	0x9c
 2817 0408 23050000 		.4byte	0x523
 2818 040c 14       		.uleb128 0x14
 2819 040d 49060000 		.4byte	.LASF61
 2820 0411 01       		.byte	0x1
 2821 0412 1C01     		.2byte	0x11c
 2822 0414 A1000000 		.4byte	0xa1
 2823 0418 10       		.byte	0x10
 2824 0419 15       		.uleb128 0x15
 2825 041a 6900     		.ascii	"i\000"
 2826 041c 01       		.byte	0x1
 2827 041d 1D01     		.2byte	0x11d
 2828 041f 76000000 		.4byte	0x76
 2829 0423 00000000 		.4byte	.LLST0
 2830 0427 16       		.uleb128 0x16
 2831 0428 74030000 		.4byte	.LASF62
 2832 042c 01       		.byte	0x1
 2833 042d 1E01     		.2byte	0x11e
 2834 042f 76000000 		.4byte	0x76
 2835 0433 37000000 		.4byte	.LLST1
 2836 0437 17       		.uleb128 0x17
 2837 0438 56040000 		.4byte	.LASF63
 2838 043c 01       		.byte	0x1
 2839 043d 2201     		.2byte	0x122
 2840 043f 33050000 		.4byte	0x533
 2841 0443 02       		.uleb128 0x2
 2842 0444 91       		.byte	0x91
 2843 0445 58       		.sleb128 -40
 2844 0446 0F       		.uleb128 0xf
 2845 0447 38000000 		.4byte	.LVL17
 2846 044b 40080000 		.4byte	0x840
 2847 044f 5A040000 		.4byte	0x45a
 2848 0453 10       		.uleb128 0x10
 2849 0454 01       		.uleb128 0x1
 2850 0455 50       		.byte	0x50
 2851 0456 02       		.uleb128 0x2
 2852 0457 08       		.byte	0x8
 2853 0458 37       		.byte	0x37
 2854 0459 00       		.byte	0
 2855 045a 11       		.uleb128 0x11
 2856 045b 66000000 		.4byte	.LVL18
 2857 045f 51080000 		.4byte	0x851
 2858 0463 11       		.uleb128 0x11
 2859 0464 8E000000 		.4byte	.LVL19
 2860 0468 62080000 		.4byte	0x862
 2861 046c 11       		.uleb128 0x11
 2862 046d EA000000 		.4byte	.LVL23
 2863 0471 7A080000 		.4byte	0x87a
 2864 0475 11       		.uleb128 0x11
 2865 0476 24010000 		.4byte	.LVL24
 2866 047a B4080000 		.4byte	0x8b4
 2867 047e 11       		.uleb128 0x11
 2868 047f 38010000 		.4byte	.LVL25
 2869 0483 9C080000 		.4byte	0x89c
 2870 0487 11       		.uleb128 0x11
ARM GAS  C:\Users\mgronber\AppData\Local\Temp\ccowRMf8.s 			page 94


 2871 0488 40010000 		.4byte	.LVL26
 2872 048c 8B080000 		.4byte	0x88b
 2873 0490 11       		.uleb128 0x11
 2874 0491 54010000 		.4byte	.LVL27
 2875 0495 9C080000 		.4byte	0x89c
 2876 0499 11       		.uleb128 0x11
 2877 049a 5C010000 		.4byte	.LVL28
 2878 049e 8B080000 		.4byte	0x88b
 2879 04a2 11       		.uleb128 0x11
 2880 04a3 62010000 		.4byte	.LVL29
 2881 04a7 EE080000 		.4byte	0x8ee
 2882 04ab 11       		.uleb128 0x11
 2883 04ac 68010000 		.4byte	.LVL30
 2884 04b0 F5080000 		.4byte	0x8f5
 2885 04b4 11       		.uleb128 0x11
 2886 04b5 80010000 		.4byte	.LVL31
 2887 04b9 FC080000 		.4byte	0x8fc
 2888 04bd 0F       		.uleb128 0xf
 2889 04be 9A010000 		.4byte	.LVL32
 2890 04c2 0D090000 		.4byte	0x90d
 2891 04c6 D0040000 		.4byte	0x4d0
 2892 04ca 10       		.uleb128 0x10
 2893 04cb 01       		.uleb128 0x1
 2894 04cc 50       		.byte	0x50
 2895 04cd 01       		.uleb128 0x1
 2896 04ce 30       		.byte	0x30
 2897 04cf 00       		.byte	0
 2898 04d0 11       		.uleb128 0x11
 2899 04d1 BE010000 		.4byte	.LVL36
 2900 04d5 FC080000 		.4byte	0x8fc
 2901 04d9 0F       		.uleb128 0xf
 2902 04da D6010000 		.4byte	.LVL37
 2903 04de 22090000 		.4byte	0x922
 2904 04e2 EC040000 		.4byte	0x4ec
 2905 04e6 10       		.uleb128 0x10
 2906 04e7 01       		.uleb128 0x1
 2907 04e8 50       		.byte	0x50
 2908 04e9 01       		.uleb128 0x1
 2909 04ea 30       		.byte	0x30
 2910 04eb 00       		.byte	0
 2911 04ec 0F       		.uleb128 0xf
 2912 04ed DC010000 		.4byte	.LVL38
 2913 04f1 C5080000 		.4byte	0x8c5
 2914 04f5 00050000 		.4byte	0x500
 2915 04f9 10       		.uleb128 0x10
 2916 04fa 01       		.uleb128 0x1
 2917 04fb 50       		.byte	0x50
 2918 04fc 02       		.uleb128 0x2
 2919 04fd 08       		.byte	0x8
 2920 04fe 50       		.byte	0x50
 2921 04ff 00       		.byte	0
 2922 0500 0F       		.uleb128 0xf
 2923 0501 EA010000 		.4byte	.LVL40
 2924 0505 C5080000 		.4byte	0x8c5
 2925 0509 13050000 		.4byte	0x513
 2926 050d 10       		.uleb128 0x10
 2927 050e 01       		.uleb128 0x1
ARM GAS  C:\Users\mgronber\AppData\Local\Temp\ccowRMf8.s 			page 95


 2928 050f 50       		.byte	0x50
 2929 0510 01       		.uleb128 0x1
 2930 0511 31       		.byte	0x31
 2931 0512 00       		.byte	0
 2932 0513 12       		.uleb128 0x12
 2933 0514 0A020000 		.4byte	.LVL42
 2934 0518 51080000 		.4byte	0x851
 2935 051c 10       		.uleb128 0x10
 2936 051d 01       		.uleb128 0x1
 2937 051e 50       		.byte	0x50
 2938 051f 01       		.uleb128 0x1
 2939 0520 38       		.byte	0x38
 2940 0521 00       		.byte	0
 2941 0522 00       		.byte	0
 2942 0523 0B       		.uleb128 0xb
 2943 0524 6B000000 		.4byte	0x6b
 2944 0528 33050000 		.4byte	0x533
 2945 052c 0C       		.uleb128 0xc
 2946 052d BC000000 		.4byte	0xbc
 2947 0531 06       		.byte	0x6
 2948 0532 00       		.byte	0
 2949 0533 18       		.uleb128 0x18
 2950 0534 23050000 		.4byte	0x523
 2951 0538 13       		.uleb128 0x13
 2952 0539 F2040000 		.4byte	.LASF64
 2953 053d 01       		.byte	0x1
 2954 053e 7C02     		.2byte	0x27c
 2955 0540 00000000 		.4byte	.LFB2
 2956 0544 78000000 		.4byte	.LFE2-.LFB2
 2957 0548 01       		.uleb128 0x1
 2958 0549 9C       		.byte	0x9c
 2959 054a 7E050000 		.4byte	0x57e
 2960 054e 19       		.uleb128 0x19
 2961 054f 88060000 		.4byte	.LASF65
 2962 0553 01       		.byte	0x1
 2963 0554 7C02     		.2byte	0x27c
 2964 0556 76000000 		.4byte	0x76
 2965 055a 63000000 		.4byte	.LLST2
 2966 055e 19       		.uleb128 0x19
 2967 055f 87040000 		.4byte	.LASF66
 2968 0563 01       		.byte	0x1
 2969 0564 7C02     		.2byte	0x27c
 2970 0566 76000000 		.4byte	0x76
 2971 056a 84000000 		.4byte	.LLST3
 2972 056e 12       		.uleb128 0x12
 2973 056f 0C000000 		.4byte	.LVL45
 2974 0573 DD080000 		.4byte	0x8dd
 2975 0577 10       		.uleb128 0x10
 2976 0578 01       		.uleb128 0x1
 2977 0579 50       		.byte	0x50
 2978 057a 01       		.uleb128 0x1
 2979 057b 30       		.byte	0x30
 2980 057c 00       		.byte	0
 2981 057d 00       		.byte	0
 2982 057e 13       		.uleb128 0x13
 2983 057f E0040000 		.4byte	.LASF67
 2984 0583 01       		.byte	0x1
ARM GAS  C:\Users\mgronber\AppData\Local\Temp\ccowRMf8.s 			page 96


 2985 0584 4803     		.2byte	0x348
 2986 0586 00000000 		.4byte	.LFB3
 2987 058a F8000000 		.4byte	.LFE3-.LFB3
 2988 058e 01       		.uleb128 0x1
 2989 058f 9C       		.byte	0x9c
 2990 0590 F2050000 		.4byte	0x5f2
 2991 0594 19       		.uleb128 0x19
 2992 0595 88060000 		.4byte	.LASF65
 2993 0599 01       		.byte	0x1
 2994 059a 4803     		.2byte	0x348
 2995 059c 6B000000 		.4byte	0x6b
 2996 05a0 A5000000 		.4byte	.LLST4
 2997 05a4 19       		.uleb128 0x19
 2998 05a5 87040000 		.4byte	.LASF66
 2999 05a9 01       		.byte	0x1
 3000 05aa 4803     		.2byte	0x348
 3001 05ac 76000000 		.4byte	0x76
 3002 05b0 C6000000 		.4byte	.LLST5
 3003 05b4 16       		.uleb128 0x16
 3004 05b5 94010000 		.4byte	.LASF68
 3005 05b9 01       		.byte	0x1
 3006 05ba 4A03     		.2byte	0x34a
 3007 05bc 6B000000 		.4byte	0x6b
 3008 05c0 E7000000 		.4byte	.LLST6
 3009 05c4 11       		.uleb128 0x11
 3010 05c5 0A000000 		.4byte	.LVL47
 3011 05c9 37090000 		.4byte	0x937
 3012 05cd 11       		.uleb128 0x11
 3013 05ce 2E000000 		.4byte	.LVL49
 3014 05d2 C1020000 		.4byte	0x2c1
 3015 05d6 11       		.uleb128 0x11
 3016 05d7 AA000000 		.4byte	.LVL50
 3017 05db D3020000 		.4byte	0x2d3
 3018 05df 1A       		.uleb128 0x1a
 3019 05e0 CA000000 		.4byte	.LVL51
 3020 05e4 42090000 		.4byte	0x942
 3021 05e8 11       		.uleb128 0x11
 3022 05e9 D8000000 		.4byte	.LVL52
 3023 05ed DD080000 		.4byte	0x8dd
 3024 05f1 00       		.byte	0
 3025 05f2 1B       		.uleb128 0x1b
 3026 05f3 79060000 		.4byte	.LASF69
 3027 05f7 01       		.byte	0x1
 3028 05f8 0405     		.2byte	0x504
 3029 05fa 01       		.byte	0x1
 3030 05fb 1B       		.uleb128 0x1b
 3031 05fc B9000000 		.4byte	.LASF70
 3032 0600 01       		.byte	0x1
 3033 0601 FD06     		.2byte	0x6fd
 3034 0603 01       		.byte	0x1
 3035 0604 1B       		.uleb128 0x1b
 3036 0605 10020000 		.4byte	.LASF71
 3037 0609 01       		.byte	0x1
 3038 060a 5E05     		.2byte	0x55e
 3039 060c 01       		.byte	0x1
 3040 060d 1B       		.uleb128 0x1b
 3041 060e C0010000 		.4byte	.LASF72
ARM GAS  C:\Users\mgronber\AppData\Local\Temp\ccowRMf8.s 			page 97


 3042 0612 01       		.byte	0x1
 3043 0613 3C07     		.2byte	0x73c
 3044 0615 01       		.byte	0x1
 3045 0616 13       		.uleb128 0x13
 3046 0617 C3050000 		.4byte	.LASF73
 3047 061b 01       		.byte	0x1
 3048 061c 5804     		.2byte	0x458
 3049 061e 00000000 		.4byte	.LFB4
 3050 0622 84020000 		.4byte	.LFE4-.LFB4
 3051 0626 01       		.uleb128 0x1
 3052 0627 9C       		.byte	0x9c
 3053 0628 19070000 		.4byte	0x719
 3054 062c 16       		.uleb128 0x16
 3055 062d 94010000 		.4byte	.LASF68
 3056 0631 01       		.byte	0x1
 3057 0632 5A04     		.2byte	0x45a
 3058 0634 6B000000 		.4byte	0x6b
 3059 0638 FA000000 		.4byte	.LLST7
 3060 063c 1C       		.uleb128 0x1c
 3061 063d F2050000 		.4byte	0x5f2
 3062 0641 14000000 		.4byte	.LBB10
 3063 0645 00000000 		.4byte	.Ldebug_ranges0+0
 3064 0649 01       		.byte	0x1
 3065 064a 7404     		.2byte	0x474
 3066 064c 9D060000 		.4byte	0x69d
 3067 0650 1C       		.uleb128 0x1c
 3068 0651 FB050000 		.4byte	0x5fb
 3069 0655 60000000 		.4byte	.LBB12
 3070 0659 50000000 		.4byte	.Ldebug_ranges0+0x50
 3071 065d 01       		.byte	0x1
 3072 065e 3905     		.2byte	0x539
 3073 0660 80060000 		.4byte	0x680
 3074 0664 11       		.uleb128 0x11
 3075 0665 D6010000 		.4byte	.LVL60
 3076 0669 53090000 		.4byte	0x953
 3077 066d 11       		.uleb128 0x11
 3078 066e 0E020000 		.4byte	.LVL61
 3079 0672 5A090000 		.4byte	0x95a
 3080 0676 11       		.uleb128 0x11
 3081 0677 1A020000 		.4byte	.LVL62
 3082 067b 61090000 		.4byte	0x961
 3083 067f 00       		.byte	0
 3084 0680 0F       		.uleb128 0xf
 3085 0681 34000000 		.4byte	.LVL55
 3086 0685 68090000 		.4byte	0x968
 3087 0689 93060000 		.4byte	0x693
 3088 068d 10       		.uleb128 0x10
 3089 068e 01       		.uleb128 0x1
 3090 068f 50       		.byte	0x50
 3091 0690 01       		.uleb128 0x1
 3092 0691 31       		.byte	0x31
 3093 0692 00       		.byte	0
 3094 0693 11       		.uleb128 0x11
 3095 0694 A0000000 		.4byte	.LVL56
 3096 0698 C1020000 		.4byte	0x2c1
 3097 069c 00       		.byte	0
 3098 069d 1C       		.uleb128 0x1c
ARM GAS  C:\Users\mgronber\AppData\Local\Temp\ccowRMf8.s 			page 98


 3099 069e 04060000 		.4byte	0x604
 3100 06a2 24010000 		.4byte	.LBB32
 3101 06a6 70000000 		.4byte	.Ldebug_ranges0+0x70
 3102 06aa 01       		.byte	0x1
 3103 06ab AF04     		.2byte	0x4af
 3104 06ad 06070000 		.4byte	0x706
 3105 06b1 1C       		.uleb128 0x1c
 3106 06b2 0D060000 		.4byte	0x60d
 3107 06b6 24010000 		.4byte	.LBB34
 3108 06ba A0000000 		.4byte	.Ldebug_ranges0+0xa0
 3109 06be 01       		.byte	0x1
 3110 06bf 6105     		.2byte	0x561
 3111 06c1 E1060000 		.4byte	0x6e1
 3112 06c5 11       		.uleb128 0x11
 3113 06c6 20020000 		.4byte	.LVL63
 3114 06ca 7D090000 		.4byte	0x97d
 3115 06ce 11       		.uleb128 0x11
 3116 06cf 3A020000 		.4byte	.LVL66
 3117 06d3 84090000 		.4byte	0x984
 3118 06d7 11       		.uleb128 0x11
 3119 06d8 48020000 		.4byte	.LVL67
 3120 06dc 9A090000 		.4byte	0x99a
 3121 06e0 00       		.byte	0
 3122 06e1 11       		.uleb128 0x11
 3123 06e2 46010000 		.4byte	.LVL57
 3124 06e6 D3020000 		.4byte	0x2d3
 3125 06ea 11       		.uleb128 0x11
 3126 06eb 58010000 		.4byte	.LVL58
 3127 06ef 68090000 		.4byte	0x968
 3128 06f3 11       		.uleb128 0x11
 3129 06f4 26020000 		.4byte	.LVL64
 3130 06f8 B0090000 		.4byte	0x9b0
 3131 06fc 11       		.uleb128 0x11
 3132 06fd 2C020000 		.4byte	.LVL65
 3133 0701 B7090000 		.4byte	0x9b7
 3134 0705 00       		.byte	0
 3135 0706 11       		.uleb128 0x11
 3136 0707 08000000 		.4byte	.LVL53
 3137 070b 37090000 		.4byte	0x937
 3138 070f 1A       		.uleb128 0x1a
 3139 0710 9E010000 		.4byte	.LVL59
 3140 0714 42090000 		.4byte	0x942
 3141 0718 00       		.byte	0
 3142 0719 1D       		.uleb128 0x1d
 3143 071a 06060000 		.4byte	.LASF116
 3144 071e 01       		.byte	0x1
 3145 071f D804     		.2byte	0x4d8
 3146 0721 6B000000 		.4byte	0x6b
 3147 0725 00000000 		.4byte	.LFB5
 3148 0729 2C000000 		.4byte	.LFE5-.LFB5
 3149 072d 01       		.uleb128 0x1
 3150 072e 9C       		.byte	0x9c
 3151 072f 88070000 		.4byte	0x788
 3152 0733 19       		.uleb128 0x19
 3153 0734 1F020000 		.4byte	.LASF74
 3154 0738 01       		.byte	0x1
 3155 0739 D804     		.2byte	0x4d8
ARM GAS  C:\Users\mgronber\AppData\Local\Temp\ccowRMf8.s 			page 99


 3156 073b 6B000000 		.4byte	0x6b
 3157 073f 0D010000 		.4byte	.LLST8
 3158 0743 17       		.uleb128 0x17
 3159 0744 04070000 		.4byte	.LASF75
 3160 0748 01       		.byte	0x1
 3161 0749 DA04     		.2byte	0x4da
 3162 074b 6B000000 		.4byte	0x6b
 3163 074f 05       		.uleb128 0x5
 3164 0750 03       		.byte	0x3
 3165 0751 42000000 		.4byte	interruptStatus.4805
 3166 0755 16       		.uleb128 0x16
 3167 0756 94010000 		.4byte	.LASF68
 3168 075a 01       		.byte	0x1
 3169 075b DB04     		.2byte	0x4db
 3170 075d 6B000000 		.4byte	0x6b
 3171 0761 2E010000 		.4byte	.LLST9
 3172 0765 16       		.uleb128 0x16
 3173 0766 CF000000 		.4byte	.LASF76
 3174 076a 01       		.byte	0x1
 3175 076b DC04     		.2byte	0x4dc
 3176 076d 6B000000 		.4byte	0x6b
 3177 0771 41010000 		.4byte	.LLST10
 3178 0775 11       		.uleb128 0x11
 3179 0776 08000000 		.4byte	.LVL69
 3180 077a 37090000 		.4byte	0x937
 3181 077e 11       		.uleb128 0x11
 3182 077f 20000000 		.4byte	.LVL71
 3183 0783 42090000 		.4byte	0x942
 3184 0787 00       		.byte	0
 3185 0788 13       		.uleb128 0x13
 3186 0789 36060000 		.4byte	.LASF77
 3187 078d 01       		.byte	0x1
 3188 078e 9B05     		.2byte	0x59b
 3189 0790 00000000 		.4byte	.LFB8
 3190 0794 54000000 		.4byte	.LFE8-.LFB8
 3191 0798 01       		.uleb128 0x1
 3192 0799 9C       		.byte	0x9c
 3193 079a B8070000 		.4byte	0x7b8
 3194 079e 19       		.uleb128 0x19
 3195 079f FF020000 		.4byte	.LASF78
 3196 07a3 01       		.byte	0x1
 3197 07a4 9B05     		.2byte	0x59b
 3198 07a6 6B000000 		.4byte	0x6b
 3199 07aa 5F010000 		.4byte	.LLST11
 3200 07ae 11       		.uleb128 0x11
 3201 07af 12000000 		.4byte	.LVL74
 3202 07b3 B7090000 		.4byte	0x9b7
 3203 07b7 00       		.byte	0
 3204 07b8 13       		.uleb128 0x13
 3205 07b9 17050000 		.4byte	.LASF79
 3206 07bd 01       		.byte	0x1
 3207 07be CF05     		.2byte	0x5cf
 3208 07c0 00000000 		.4byte	.LFB9
 3209 07c4 2C000000 		.4byte	.LFE9-.LFB9
 3210 07c8 01       		.uleb128 0x1
 3211 07c9 9C       		.byte	0x9c
 3212 07ca D8070000 		.4byte	0x7d8
ARM GAS  C:\Users\mgronber\AppData\Local\Temp\ccowRMf8.s 			page 100


 3213 07ce 11       		.uleb128 0x11
 3214 07cf 0E000000 		.4byte	.LVL75
 3215 07d3 BE090000 		.4byte	0x9be
 3216 07d7 00       		.byte	0
 3217 07d8 13       		.uleb128 0x13
 3218 07d9 EC000000 		.4byte	.LASF80
 3219 07dd 01       		.byte	0x1
 3220 07de F405     		.2byte	0x5f4
 3221 07e0 00000000 		.4byte	.LFB10
 3222 07e4 54000000 		.4byte	.LFE10-.LFB10
 3223 07e8 01       		.uleb128 0x1
 3224 07e9 9C       		.byte	0x9c
 3225 07ea 08080000 		.4byte	0x808
 3226 07ee 19       		.uleb128 0x19
 3227 07ef E7050000 		.4byte	.LASF81
 3228 07f3 01       		.byte	0x1
 3229 07f4 F405     		.2byte	0x5f4
 3230 07f6 6B000000 		.4byte	0x6b
 3231 07fa 80010000 		.4byte	.LLST12
 3232 07fe 11       		.uleb128 0x11
 3233 07ff 12000000 		.4byte	.LVL77
 3234 0803 B0090000 		.4byte	0x9b0
 3235 0807 00       		.byte	0
 3236 0808 1E       		.uleb128 0x1e
 3237 0809 E6060000 		.4byte	.LASF82
 3238 080d 01       		.byte	0x1
 3239 080e 1F       		.byte	0x1f
 3240 080f B5020000 		.4byte	0x2b5
 3241 0813 05       		.uleb128 0x5
 3242 0814 03       		.byte	0x3
 3243 0815 00000000 		.4byte	cyPmBackup
 3244 0819 1E       		.uleb128 0x1e
 3245 081a 31050000 		.4byte	.LASF83
 3246 081e 01       		.byte	0x1
 3247 081f 20       		.byte	0x20
 3248 0820 87010000 		.4byte	0x187
 3249 0824 05       		.uleb128 0x5
 3250 0825 03       		.byte	0x3
 3251 0826 30000000 		.4byte	cyPmClockBackup
 3252 082a 1E       		.uleb128 0x1e
 3253 082b F3050000 		.4byte	.LASF84
 3254 082f 01       		.byte	0x1
 3255 0830 23       		.byte	0x23
 3256 0831 3B080000 		.4byte	0x83b
 3257 0835 05       		.uleb128 0x5
 3258 0836 03       		.byte	0x3
 3259 0837 00000000 		.4byte	cyPmImoFreqReg2Mhz
 3260 083b 18       		.uleb128 0x18
 3261 083c 23050000 		.4byte	0x523
 3262 0840 1F       		.uleb128 0x1f
 3263 0841 D1050000 		.4byte	.LASF85
 3264 0845 04       		.byte	0x4
 3265 0846 4B       		.byte	0x4b
 3266 0847 51080000 		.4byte	0x851
 3267 084b 20       		.uleb128 0x20
 3268 084c 6B000000 		.4byte	0x6b
 3269 0850 00       		.byte	0
ARM GAS  C:\Users\mgronber\AppData\Local\Temp\ccowRMf8.s 			page 101


 3270 0851 1F       		.uleb128 0x1f
 3271 0852 57060000 		.4byte	.LASF86
 3272 0856 05       		.byte	0x5
 3273 0857 49       		.byte	0x49
 3274 0858 62080000 		.4byte	0x862
 3275 085c 20       		.uleb128 0x20
 3276 085d 6B000000 		.4byte	0x6b
 3277 0861 00       		.byte	0
 3278 0862 1F       		.uleb128 0x1f
 3279 0863 45020000 		.4byte	.LASF87
 3280 0867 05       		.byte	0x5
 3281 0868 4A       		.byte	0x4a
 3282 0869 73080000 		.4byte	0x873
 3283 086d 20       		.uleb128 0x20
 3284 086e 6B000000 		.4byte	0x6b
 3285 0872 00       		.byte	0
 3286 0873 21       		.uleb128 0x21
 3287 0874 DA060000 		.4byte	.LASF91
 3288 0878 05       		.byte	0x5
 3289 0879 67       		.byte	0x67
 3290 087a 1F       		.uleb128 0x1f
 3291 087b 15060000 		.4byte	.LASF88
 3292 087f 05       		.byte	0x5
 3293 0880 50       		.byte	0x50
 3294 0881 8B080000 		.4byte	0x88b
 3295 0885 20       		.uleb128 0x20
 3296 0886 76000000 		.4byte	0x76
 3297 088a 00       		.byte	0
 3298 088b 1F       		.uleb128 0x1f
 3299 088c 1F030000 		.4byte	.LASF89
 3300 0890 05       		.byte	0x5
 3301 0891 4E       		.byte	0x4e
 3302 0892 9C080000 		.4byte	0x89c
 3303 0896 20       		.uleb128 0x20
 3304 0897 6B000000 		.4byte	0x6b
 3305 089b 00       		.byte	0
 3306 089c 1F       		.uleb128 0x1f
 3307 089d A3040000 		.4byte	.LASF90
 3308 08a1 05       		.byte	0x5
 3309 08a2 4F       		.byte	0x4f
 3310 08a3 AD080000 		.4byte	0x8ad
 3311 08a7 20       		.uleb128 0x20
 3312 08a8 6B000000 		.4byte	0x6b
 3313 08ac 00       		.byte	0
 3314 08ad 21       		.uleb128 0x21
 3315 08ae 8B050000 		.4byte	.LASF92
 3316 08b2 05       		.byte	0x5
 3317 08b3 4C       		.byte	0x4c
 3318 08b4 1F       		.uleb128 0x1f
 3319 08b5 1B000000 		.4byte	.LASF93
 3320 08b9 05       		.byte	0x5
 3321 08ba 47       		.byte	0x47
 3322 08bb C5080000 		.4byte	0x8c5
 3323 08bf 20       		.uleb128 0x20
 3324 08c0 6B000000 		.4byte	0x6b
 3325 08c4 00       		.byte	0
 3326 08c5 1F       		.uleb128 0x1f
ARM GAS  C:\Users\mgronber\AppData\Local\Temp\ccowRMf8.s 			page 102


 3327 08c6 E8010000 		.4byte	.LASF94
 3328 08ca 05       		.byte	0x5
 3329 08cb 78       		.byte	0x78
 3330 08cc D6080000 		.4byte	0x8d6
 3331 08d0 20       		.uleb128 0x20
 3332 08d1 76000000 		.4byte	0x76
 3333 08d5 00       		.byte	0
 3334 08d6 21       		.uleb128 0x21
 3335 08d7 94040000 		.4byte	.LASF95
 3336 08db 05       		.byte	0x5
 3337 08dc 43       		.byte	0x43
 3338 08dd 1F       		.uleb128 0x1f
 3339 08de 10050000 		.4byte	.LASF96
 3340 08e2 05       		.byte	0x5
 3341 08e3 80       		.byte	0x80
 3342 08e4 EE080000 		.4byte	0x8ee
 3343 08e8 20       		.uleb128 0x20
 3344 08e9 6B000000 		.4byte	0x6b
 3345 08ed 00       		.byte	0
 3346 08ee 21       		.uleb128 0x21
 3347 08ef C7020000 		.4byte	.LASF97
 3348 08f3 05       		.byte	0x5
 3349 08f4 48       		.byte	0x48
 3350 08f5 21       		.uleb128 0x21
 3351 08f6 65060000 		.4byte	.LASF98
 3352 08fa 05       		.byte	0x5
 3353 08fb 4B       		.byte	0x4b
 3354 08fc 1F       		.uleb128 0x1f
 3355 08fd FD040000 		.4byte	.LASF99
 3356 0901 05       		.byte	0x5
 3357 0902 7A       		.byte	0x7a
 3358 0903 0D090000 		.4byte	0x90d
 3359 0907 20       		.uleb128 0x20
 3360 0908 81000000 		.4byte	0x81
 3361 090c 00       		.byte	0
 3362 090d 22       		.uleb128 0x22
 3363 090e A6030000 		.4byte	.LASF100
 3364 0912 05       		.byte	0x5
 3365 0913 66       		.byte	0x66
 3366 0914 A1000000 		.4byte	0xa1
 3367 0918 22090000 		.4byte	0x922
 3368 091c 20       		.uleb128 0x20
 3369 091d 6B000000 		.4byte	0x6b
 3370 0921 00       		.byte	0
 3371 0922 22       		.uleb128 0x22
 3372 0923 D8010000 		.4byte	.LASF101
 3373 0927 05       		.byte	0x5
 3374 0928 42       		.byte	0x42
 3375 0929 A1000000 		.4byte	0xa1
 3376 092d 37090000 		.4byte	0x937
 3377 0931 20       		.uleb128 0x20
 3378 0932 6B000000 		.4byte	0x6b
 3379 0936 00       		.byte	0
 3380 0937 23       		.uleb128 0x23
 3381 0938 8C020000 		.4byte	.LASF117
 3382 093c 05       		.byte	0x5
 3383 093d 7E       		.byte	0x7e
ARM GAS  C:\Users\mgronber\AppData\Local\Temp\ccowRMf8.s 			page 103


 3384 093e 6B000000 		.4byte	0x6b
 3385 0942 1F       		.uleb128 0x1f
 3386 0943 CA040000 		.4byte	.LASF102
 3387 0947 05       		.byte	0x5
 3388 0948 7F       		.byte	0x7f
 3389 0949 53090000 		.4byte	0x953
 3390 094d 20       		.uleb128 0x20
 3391 094e 6B000000 		.4byte	0x6b
 3392 0952 00       		.byte	0
 3393 0953 21       		.uleb128 0x21
 3394 0954 A0050000 		.4byte	.LASF103
 3395 0958 05       		.byte	0x5
 3396 0959 9D       		.byte	0x9d
 3397 095a 21       		.uleb128 0x21
 3398 095b 00000000 		.4byte	.LASF104
 3399 095f 05       		.byte	0x5
 3400 0960 9E       		.byte	0x9e
 3401 0961 21       		.uleb128 0x21
 3402 0962 0B030000 		.4byte	.LASF105
 3403 0966 05       		.byte	0x5
 3404 0967 A0       		.byte	0xa0
 3405 0968 22       		.uleb128 0x22
 3406 0969 B4020000 		.4byte	.LASF106
 3407 096d 05       		.byte	0x5
 3408 096e 5F       		.byte	0x5f
 3409 096f 6B000000 		.4byte	0x6b
 3410 0973 7D090000 		.4byte	0x97d
 3411 0977 20       		.uleb128 0x20
 3412 0978 6B000000 		.4byte	0x6b
 3413 097c 00       		.byte	0
 3414 097d 21       		.uleb128 0x21
 3415 097e C7060000 		.4byte	.LASF107
 3416 0982 05       		.byte	0x5
 3417 0983 9F       		.byte	0x9f
 3418 0984 1F       		.uleb128 0x1f
 3419 0985 93060000 		.4byte	.LASF108
 3420 0989 05       		.byte	0x5
 3421 098a 9C       		.byte	0x9c
 3422 098b 9A090000 		.4byte	0x99a
 3423 098f 20       		.uleb128 0x20
 3424 0990 6B000000 		.4byte	0x6b
 3425 0994 20       		.uleb128 0x20
 3426 0995 6B000000 		.4byte	0x6b
 3427 0999 00       		.byte	0
 3428 099a 1F       		.uleb128 0x1f
 3429 099b 06010000 		.4byte	.LASF109
 3430 099f 05       		.byte	0x5
 3431 09a0 9B       		.byte	0x9b
 3432 09a1 B0090000 		.4byte	0x9b0
 3433 09a5 20       		.uleb128 0x20
 3434 09a6 6B000000 		.4byte	0x6b
 3435 09aa 20       		.uleb128 0x20
 3436 09ab 6B000000 		.4byte	0x6b
 3437 09af 00       		.byte	0
 3438 09b0 21       		.uleb128 0x21
 3439 09b1 77040000 		.4byte	.LASF110
 3440 09b5 05       		.byte	0x5
ARM GAS  C:\Users\mgronber\AppData\Local\Temp\ccowRMf8.s 			page 104


 3441 09b6 5A       		.byte	0x5a
 3442 09b7 21       		.uleb128 0x21
 3443 09b8 A3010000 		.4byte	.LASF111
 3444 09bc 05       		.byte	0x5
 3445 09bd 58       		.byte	0x58
 3446 09be 21       		.uleb128 0x21
 3447 09bf 72000000 		.4byte	.LASF112
 3448 09c3 05       		.byte	0x5
 3449 09c4 63       		.byte	0x63
 3450 09c5 00       		.byte	0
 3451              		.section	.debug_abbrev,"",%progbits
 3452              	.Ldebug_abbrev0:
 3453 0000 01       		.uleb128 0x1
 3454 0001 11       		.uleb128 0x11
 3455 0002 01       		.byte	0x1
 3456 0003 25       		.uleb128 0x25
 3457 0004 0E       		.uleb128 0xe
 3458 0005 13       		.uleb128 0x13
 3459 0006 0B       		.uleb128 0xb
 3460 0007 03       		.uleb128 0x3
 3461 0008 0E       		.uleb128 0xe
 3462 0009 1B       		.uleb128 0x1b
 3463 000a 0E       		.uleb128 0xe
 3464 000b 55       		.uleb128 0x55
 3465 000c 17       		.uleb128 0x17
 3466 000d 11       		.uleb128 0x11
 3467 000e 01       		.uleb128 0x1
 3468 000f 10       		.uleb128 0x10
 3469 0010 17       		.uleb128 0x17
 3470 0011 00       		.byte	0
 3471 0012 00       		.byte	0
 3472 0013 02       		.uleb128 0x2
 3473 0014 24       		.uleb128 0x24
 3474 0015 00       		.byte	0
 3475 0016 0B       		.uleb128 0xb
 3476 0017 0B       		.uleb128 0xb
 3477 0018 3E       		.uleb128 0x3e
 3478 0019 0B       		.uleb128 0xb
 3479 001a 03       		.uleb128 0x3
 3480 001b 0E       		.uleb128 0xe
 3481 001c 00       		.byte	0
 3482 001d 00       		.byte	0
 3483 001e 03       		.uleb128 0x3
 3484 001f 24       		.uleb128 0x24
 3485 0020 00       		.byte	0
 3486 0021 0B       		.uleb128 0xb
 3487 0022 0B       		.uleb128 0xb
 3488 0023 3E       		.uleb128 0x3e
 3489 0024 0B       		.uleb128 0xb
 3490 0025 03       		.uleb128 0x3
 3491 0026 08       		.uleb128 0x8
 3492 0027 00       		.byte	0
 3493 0028 00       		.byte	0
 3494 0029 04       		.uleb128 0x4
 3495 002a 16       		.uleb128 0x16
 3496 002b 00       		.byte	0
 3497 002c 03       		.uleb128 0x3
ARM GAS  C:\Users\mgronber\AppData\Local\Temp\ccowRMf8.s 			page 105


 3498 002d 0E       		.uleb128 0xe
 3499 002e 3A       		.uleb128 0x3a
 3500 002f 0B       		.uleb128 0xb
 3501 0030 3B       		.uleb128 0x3b
 3502 0031 0B       		.uleb128 0xb
 3503 0032 49       		.uleb128 0x49
 3504 0033 13       		.uleb128 0x13
 3505 0034 00       		.byte	0
 3506 0035 00       		.byte	0
 3507 0036 05       		.uleb128 0x5
 3508 0037 35       		.uleb128 0x35
 3509 0038 00       		.byte	0
 3510 0039 49       		.uleb128 0x49
 3511 003a 13       		.uleb128 0x13
 3512 003b 00       		.byte	0
 3513 003c 00       		.byte	0
 3514 003d 06       		.uleb128 0x6
 3515 003e 13       		.uleb128 0x13
 3516 003f 01       		.byte	0x1
 3517 0040 03       		.uleb128 0x3
 3518 0041 0E       		.uleb128 0xe
 3519 0042 0B       		.uleb128 0xb
 3520 0043 0B       		.uleb128 0xb
 3521 0044 3A       		.uleb128 0x3a
 3522 0045 0B       		.uleb128 0xb
 3523 0046 3B       		.uleb128 0x3b
 3524 0047 0B       		.uleb128 0xb
 3525 0048 01       		.uleb128 0x1
 3526 0049 13       		.uleb128 0x13
 3527 004a 00       		.byte	0
 3528 004b 00       		.byte	0
 3529 004c 07       		.uleb128 0x7
 3530 004d 0D       		.uleb128 0xd
 3531 004e 00       		.byte	0
 3532 004f 03       		.uleb128 0x3
 3533 0050 0E       		.uleb128 0xe
 3534 0051 3A       		.uleb128 0x3a
 3535 0052 0B       		.uleb128 0xb
 3536 0053 3B       		.uleb128 0x3b
 3537 0054 0B       		.uleb128 0xb
 3538 0055 49       		.uleb128 0x49
 3539 0056 13       		.uleb128 0x13
 3540 0057 38       		.uleb128 0x38
 3541 0058 0B       		.uleb128 0xb
 3542 0059 00       		.byte	0
 3543 005a 00       		.byte	0
 3544 005b 08       		.uleb128 0x8
 3545 005c 0D       		.uleb128 0xd
 3546 005d 00       		.byte	0
 3547 005e 03       		.uleb128 0x3
 3548 005f 0E       		.uleb128 0xe
 3549 0060 3A       		.uleb128 0x3a
 3550 0061 0B       		.uleb128 0xb
 3551 0062 3B       		.uleb128 0x3b
 3552 0063 05       		.uleb128 0x5
 3553 0064 49       		.uleb128 0x49
 3554 0065 13       		.uleb128 0x13
ARM GAS  C:\Users\mgronber\AppData\Local\Temp\ccowRMf8.s 			page 106


 3555 0066 38       		.uleb128 0x38
 3556 0067 0B       		.uleb128 0xb
 3557 0068 00       		.byte	0
 3558 0069 00       		.byte	0
 3559 006a 09       		.uleb128 0x9
 3560 006b 16       		.uleb128 0x16
 3561 006c 00       		.byte	0
 3562 006d 03       		.uleb128 0x3
 3563 006e 0E       		.uleb128 0xe
 3564 006f 3A       		.uleb128 0x3a
 3565 0070 0B       		.uleb128 0xb
 3566 0071 3B       		.uleb128 0x3b
 3567 0072 05       		.uleb128 0x5
 3568 0073 49       		.uleb128 0x49
 3569 0074 13       		.uleb128 0x13
 3570 0075 00       		.byte	0
 3571 0076 00       		.byte	0
 3572 0077 0A       		.uleb128 0xa
 3573 0078 13       		.uleb128 0x13
 3574 0079 01       		.byte	0x1
 3575 007a 03       		.uleb128 0x3
 3576 007b 0E       		.uleb128 0xe
 3577 007c 0B       		.uleb128 0xb
 3578 007d 0B       		.uleb128 0xb
 3579 007e 3A       		.uleb128 0x3a
 3580 007f 0B       		.uleb128 0xb
 3581 0080 3B       		.uleb128 0x3b
 3582 0081 05       		.uleb128 0x5
 3583 0082 01       		.uleb128 0x1
 3584 0083 13       		.uleb128 0x13
 3585 0084 00       		.byte	0
 3586 0085 00       		.byte	0
 3587 0086 0B       		.uleb128 0xb
 3588 0087 01       		.uleb128 0x1
 3589 0088 01       		.byte	0x1
 3590 0089 49       		.uleb128 0x49
 3591 008a 13       		.uleb128 0x13
 3592 008b 01       		.uleb128 0x1
 3593 008c 13       		.uleb128 0x13
 3594 008d 00       		.byte	0
 3595 008e 00       		.byte	0
 3596 008f 0C       		.uleb128 0xc
 3597 0090 21       		.uleb128 0x21
 3598 0091 00       		.byte	0
 3599 0092 49       		.uleb128 0x49
 3600 0093 13       		.uleb128 0x13
 3601 0094 2F       		.uleb128 0x2f
 3602 0095 0B       		.uleb128 0xb
 3603 0096 00       		.byte	0
 3604 0097 00       		.byte	0
 3605 0098 0D       		.uleb128 0xd
 3606 0099 2E       		.uleb128 0x2e
 3607 009a 00       		.byte	0
 3608 009b 03       		.uleb128 0x3
 3609 009c 0E       		.uleb128 0xe
 3610 009d 3A       		.uleb128 0x3a
 3611 009e 0B       		.uleb128 0xb
ARM GAS  C:\Users\mgronber\AppData\Local\Temp\ccowRMf8.s 			page 107


 3612 009f 3B       		.uleb128 0x3b
 3613 00a0 05       		.uleb128 0x5
 3614 00a1 27       		.uleb128 0x27
 3615 00a2 19       		.uleb128 0x19
 3616 00a3 11       		.uleb128 0x11
 3617 00a4 01       		.uleb128 0x1
 3618 00a5 12       		.uleb128 0x12
 3619 00a6 06       		.uleb128 0x6
 3620 00a7 40       		.uleb128 0x40
 3621 00a8 18       		.uleb128 0x18
 3622 00a9 9742     		.uleb128 0x2117
 3623 00ab 19       		.uleb128 0x19
 3624 00ac 00       		.byte	0
 3625 00ad 00       		.byte	0
 3626 00ae 0E       		.uleb128 0xe
 3627 00af 2E       		.uleb128 0x2e
 3628 00b0 01       		.byte	0x1
 3629 00b1 3F       		.uleb128 0x3f
 3630 00b2 19       		.uleb128 0x19
 3631 00b3 03       		.uleb128 0x3
 3632 00b4 0E       		.uleb128 0xe
 3633 00b5 3A       		.uleb128 0x3a
 3634 00b6 0B       		.uleb128 0xb
 3635 00b7 3B       		.uleb128 0x3b
 3636 00b8 0B       		.uleb128 0xb
 3637 00b9 27       		.uleb128 0x27
 3638 00ba 19       		.uleb128 0x19
 3639 00bb 11       		.uleb128 0x11
 3640 00bc 01       		.uleb128 0x1
 3641 00bd 12       		.uleb128 0x12
 3642 00be 06       		.uleb128 0x6
 3643 00bf 40       		.uleb128 0x40
 3644 00c0 18       		.uleb128 0x18
 3645 00c1 9742     		.uleb128 0x2117
 3646 00c3 19       		.uleb128 0x19
 3647 00c4 01       		.uleb128 0x1
 3648 00c5 13       		.uleb128 0x13
 3649 00c6 00       		.byte	0
 3650 00c7 00       		.byte	0
 3651 00c8 0F       		.uleb128 0xf
 3652 00c9 898201   		.uleb128 0x4109
 3653 00cc 01       		.byte	0x1
 3654 00cd 11       		.uleb128 0x11
 3655 00ce 01       		.uleb128 0x1
 3656 00cf 31       		.uleb128 0x31
 3657 00d0 13       		.uleb128 0x13
 3658 00d1 01       		.uleb128 0x1
 3659 00d2 13       		.uleb128 0x13
 3660 00d3 00       		.byte	0
 3661 00d4 00       		.byte	0
 3662 00d5 10       		.uleb128 0x10
 3663 00d6 8A8201   		.uleb128 0x410a
 3664 00d9 00       		.byte	0
 3665 00da 02       		.uleb128 0x2
 3666 00db 18       		.uleb128 0x18
 3667 00dc 9142     		.uleb128 0x2111
 3668 00de 18       		.uleb128 0x18
ARM GAS  C:\Users\mgronber\AppData\Local\Temp\ccowRMf8.s 			page 108


 3669 00df 00       		.byte	0
 3670 00e0 00       		.byte	0
 3671 00e1 11       		.uleb128 0x11
 3672 00e2 898201   		.uleb128 0x4109
 3673 00e5 00       		.byte	0
 3674 00e6 11       		.uleb128 0x11
 3675 00e7 01       		.uleb128 0x1
 3676 00e8 31       		.uleb128 0x31
 3677 00e9 13       		.uleb128 0x13
 3678 00ea 00       		.byte	0
 3679 00eb 00       		.byte	0
 3680 00ec 12       		.uleb128 0x12
 3681 00ed 898201   		.uleb128 0x4109
 3682 00f0 01       		.byte	0x1
 3683 00f1 11       		.uleb128 0x11
 3684 00f2 01       		.uleb128 0x1
 3685 00f3 31       		.uleb128 0x31
 3686 00f4 13       		.uleb128 0x13
 3687 00f5 00       		.byte	0
 3688 00f6 00       		.byte	0
 3689 00f7 13       		.uleb128 0x13
 3690 00f8 2E       		.uleb128 0x2e
 3691 00f9 01       		.byte	0x1
 3692 00fa 3F       		.uleb128 0x3f
 3693 00fb 19       		.uleb128 0x19
 3694 00fc 03       		.uleb128 0x3
 3695 00fd 0E       		.uleb128 0xe
 3696 00fe 3A       		.uleb128 0x3a
 3697 00ff 0B       		.uleb128 0xb
 3698 0100 3B       		.uleb128 0x3b
 3699 0101 05       		.uleb128 0x5
 3700 0102 27       		.uleb128 0x27
 3701 0103 19       		.uleb128 0x19
 3702 0104 11       		.uleb128 0x11
 3703 0105 01       		.uleb128 0x1
 3704 0106 12       		.uleb128 0x12
 3705 0107 06       		.uleb128 0x6
 3706 0108 40       		.uleb128 0x40
 3707 0109 18       		.uleb128 0x18
 3708 010a 9742     		.uleb128 0x2117
 3709 010c 19       		.uleb128 0x19
 3710 010d 01       		.uleb128 0x1
 3711 010e 13       		.uleb128 0x13
 3712 010f 00       		.byte	0
 3713 0110 00       		.byte	0
 3714 0111 14       		.uleb128 0x14
 3715 0112 34       		.uleb128 0x34
 3716 0113 00       		.byte	0
 3717 0114 03       		.uleb128 0x3
 3718 0115 0E       		.uleb128 0xe
 3719 0116 3A       		.uleb128 0x3a
 3720 0117 0B       		.uleb128 0xb
 3721 0118 3B       		.uleb128 0x3b
 3722 0119 05       		.uleb128 0x5
 3723 011a 49       		.uleb128 0x49
 3724 011b 13       		.uleb128 0x13
 3725 011c 1C       		.uleb128 0x1c
ARM GAS  C:\Users\mgronber\AppData\Local\Temp\ccowRMf8.s 			page 109


 3726 011d 0B       		.uleb128 0xb
 3727 011e 00       		.byte	0
 3728 011f 00       		.byte	0
 3729 0120 15       		.uleb128 0x15
 3730 0121 34       		.uleb128 0x34
 3731 0122 00       		.byte	0
 3732 0123 03       		.uleb128 0x3
 3733 0124 08       		.uleb128 0x8
 3734 0125 3A       		.uleb128 0x3a
 3735 0126 0B       		.uleb128 0xb
 3736 0127 3B       		.uleb128 0x3b
 3737 0128 05       		.uleb128 0x5
 3738 0129 49       		.uleb128 0x49
 3739 012a 13       		.uleb128 0x13
 3740 012b 02       		.uleb128 0x2
 3741 012c 17       		.uleb128 0x17
 3742 012d 00       		.byte	0
 3743 012e 00       		.byte	0
 3744 012f 16       		.uleb128 0x16
 3745 0130 34       		.uleb128 0x34
 3746 0131 00       		.byte	0
 3747 0132 03       		.uleb128 0x3
 3748 0133 0E       		.uleb128 0xe
 3749 0134 3A       		.uleb128 0x3a
 3750 0135 0B       		.uleb128 0xb
 3751 0136 3B       		.uleb128 0x3b
 3752 0137 05       		.uleb128 0x5
 3753 0138 49       		.uleb128 0x49
 3754 0139 13       		.uleb128 0x13
 3755 013a 02       		.uleb128 0x2
 3756 013b 17       		.uleb128 0x17
 3757 013c 00       		.byte	0
 3758 013d 00       		.byte	0
 3759 013e 17       		.uleb128 0x17
 3760 013f 34       		.uleb128 0x34
 3761 0140 00       		.byte	0
 3762 0141 03       		.uleb128 0x3
 3763 0142 0E       		.uleb128 0xe
 3764 0143 3A       		.uleb128 0x3a
 3765 0144 0B       		.uleb128 0xb
 3766 0145 3B       		.uleb128 0x3b
 3767 0146 05       		.uleb128 0x5
 3768 0147 49       		.uleb128 0x49
 3769 0148 13       		.uleb128 0x13
 3770 0149 02       		.uleb128 0x2
 3771 014a 18       		.uleb128 0x18
 3772 014b 00       		.byte	0
 3773 014c 00       		.byte	0
 3774 014d 18       		.uleb128 0x18
 3775 014e 26       		.uleb128 0x26
 3776 014f 00       		.byte	0
 3777 0150 49       		.uleb128 0x49
 3778 0151 13       		.uleb128 0x13
 3779 0152 00       		.byte	0
 3780 0153 00       		.byte	0
 3781 0154 19       		.uleb128 0x19
 3782 0155 05       		.uleb128 0x5
ARM GAS  C:\Users\mgronber\AppData\Local\Temp\ccowRMf8.s 			page 110


 3783 0156 00       		.byte	0
 3784 0157 03       		.uleb128 0x3
 3785 0158 0E       		.uleb128 0xe
 3786 0159 3A       		.uleb128 0x3a
 3787 015a 0B       		.uleb128 0xb
 3788 015b 3B       		.uleb128 0x3b
 3789 015c 05       		.uleb128 0x5
 3790 015d 49       		.uleb128 0x49
 3791 015e 13       		.uleb128 0x13
 3792 015f 02       		.uleb128 0x2
 3793 0160 17       		.uleb128 0x17
 3794 0161 00       		.byte	0
 3795 0162 00       		.byte	0
 3796 0163 1A       		.uleb128 0x1a
 3797 0164 898201   		.uleb128 0x4109
 3798 0167 00       		.byte	0
 3799 0168 11       		.uleb128 0x11
 3800 0169 01       		.uleb128 0x1
 3801 016a 9542     		.uleb128 0x2115
 3802 016c 19       		.uleb128 0x19
 3803 016d 31       		.uleb128 0x31
 3804 016e 13       		.uleb128 0x13
 3805 016f 00       		.byte	0
 3806 0170 00       		.byte	0
 3807 0171 1B       		.uleb128 0x1b
 3808 0172 2E       		.uleb128 0x2e
 3809 0173 00       		.byte	0
 3810 0174 03       		.uleb128 0x3
 3811 0175 0E       		.uleb128 0xe
 3812 0176 3A       		.uleb128 0x3a
 3813 0177 0B       		.uleb128 0xb
 3814 0178 3B       		.uleb128 0x3b
 3815 0179 05       		.uleb128 0x5
 3816 017a 27       		.uleb128 0x27
 3817 017b 19       		.uleb128 0x19
 3818 017c 20       		.uleb128 0x20
 3819 017d 0B       		.uleb128 0xb
 3820 017e 00       		.byte	0
 3821 017f 00       		.byte	0
 3822 0180 1C       		.uleb128 0x1c
 3823 0181 1D       		.uleb128 0x1d
 3824 0182 01       		.byte	0x1
 3825 0183 31       		.uleb128 0x31
 3826 0184 13       		.uleb128 0x13
 3827 0185 52       		.uleb128 0x52
 3828 0186 01       		.uleb128 0x1
 3829 0187 55       		.uleb128 0x55
 3830 0188 17       		.uleb128 0x17
 3831 0189 58       		.uleb128 0x58
 3832 018a 0B       		.uleb128 0xb
 3833 018b 59       		.uleb128 0x59
 3834 018c 05       		.uleb128 0x5
 3835 018d 01       		.uleb128 0x1
 3836 018e 13       		.uleb128 0x13
 3837 018f 00       		.byte	0
 3838 0190 00       		.byte	0
 3839 0191 1D       		.uleb128 0x1d
ARM GAS  C:\Users\mgronber\AppData\Local\Temp\ccowRMf8.s 			page 111


 3840 0192 2E       		.uleb128 0x2e
 3841 0193 01       		.byte	0x1
 3842 0194 3F       		.uleb128 0x3f
 3843 0195 19       		.uleb128 0x19
 3844 0196 03       		.uleb128 0x3
 3845 0197 0E       		.uleb128 0xe
 3846 0198 3A       		.uleb128 0x3a
 3847 0199 0B       		.uleb128 0xb
 3848 019a 3B       		.uleb128 0x3b
 3849 019b 05       		.uleb128 0x5
 3850 019c 27       		.uleb128 0x27
 3851 019d 19       		.uleb128 0x19
 3852 019e 49       		.uleb128 0x49
 3853 019f 13       		.uleb128 0x13
 3854 01a0 11       		.uleb128 0x11
 3855 01a1 01       		.uleb128 0x1
 3856 01a2 12       		.uleb128 0x12
 3857 01a3 06       		.uleb128 0x6
 3858 01a4 40       		.uleb128 0x40
 3859 01a5 18       		.uleb128 0x18
 3860 01a6 9742     		.uleb128 0x2117
 3861 01a8 19       		.uleb128 0x19
 3862 01a9 01       		.uleb128 0x1
 3863 01aa 13       		.uleb128 0x13
 3864 01ab 00       		.byte	0
 3865 01ac 00       		.byte	0
 3866 01ad 1E       		.uleb128 0x1e
 3867 01ae 34       		.uleb128 0x34
 3868 01af 00       		.byte	0
 3869 01b0 03       		.uleb128 0x3
 3870 01b1 0E       		.uleb128 0xe
 3871 01b2 3A       		.uleb128 0x3a
 3872 01b3 0B       		.uleb128 0xb
 3873 01b4 3B       		.uleb128 0x3b
 3874 01b5 0B       		.uleb128 0xb
 3875 01b6 49       		.uleb128 0x49
 3876 01b7 13       		.uleb128 0x13
 3877 01b8 02       		.uleb128 0x2
 3878 01b9 18       		.uleb128 0x18
 3879 01ba 00       		.byte	0
 3880 01bb 00       		.byte	0
 3881 01bc 1F       		.uleb128 0x1f
 3882 01bd 2E       		.uleb128 0x2e
 3883 01be 01       		.byte	0x1
 3884 01bf 3F       		.uleb128 0x3f
 3885 01c0 19       		.uleb128 0x19
 3886 01c1 03       		.uleb128 0x3
 3887 01c2 0E       		.uleb128 0xe
 3888 01c3 3A       		.uleb128 0x3a
 3889 01c4 0B       		.uleb128 0xb
 3890 01c5 3B       		.uleb128 0x3b
 3891 01c6 0B       		.uleb128 0xb
 3892 01c7 27       		.uleb128 0x27
 3893 01c8 19       		.uleb128 0x19
 3894 01c9 3C       		.uleb128 0x3c
 3895 01ca 19       		.uleb128 0x19
 3896 01cb 01       		.uleb128 0x1
ARM GAS  C:\Users\mgronber\AppData\Local\Temp\ccowRMf8.s 			page 112


 3897 01cc 13       		.uleb128 0x13
 3898 01cd 00       		.byte	0
 3899 01ce 00       		.byte	0
 3900 01cf 20       		.uleb128 0x20
 3901 01d0 05       		.uleb128 0x5
 3902 01d1 00       		.byte	0
 3903 01d2 49       		.uleb128 0x49
 3904 01d3 13       		.uleb128 0x13
 3905 01d4 00       		.byte	0
 3906 01d5 00       		.byte	0
 3907 01d6 21       		.uleb128 0x21
 3908 01d7 2E       		.uleb128 0x2e
 3909 01d8 00       		.byte	0
 3910 01d9 3F       		.uleb128 0x3f
 3911 01da 19       		.uleb128 0x19
 3912 01db 03       		.uleb128 0x3
 3913 01dc 0E       		.uleb128 0xe
 3914 01dd 3A       		.uleb128 0x3a
 3915 01de 0B       		.uleb128 0xb
 3916 01df 3B       		.uleb128 0x3b
 3917 01e0 0B       		.uleb128 0xb
 3918 01e1 27       		.uleb128 0x27
 3919 01e2 19       		.uleb128 0x19
 3920 01e3 3C       		.uleb128 0x3c
 3921 01e4 19       		.uleb128 0x19
 3922 01e5 00       		.byte	0
 3923 01e6 00       		.byte	0
 3924 01e7 22       		.uleb128 0x22
 3925 01e8 2E       		.uleb128 0x2e
 3926 01e9 01       		.byte	0x1
 3927 01ea 3F       		.uleb128 0x3f
 3928 01eb 19       		.uleb128 0x19
 3929 01ec 03       		.uleb128 0x3
 3930 01ed 0E       		.uleb128 0xe
 3931 01ee 3A       		.uleb128 0x3a
 3932 01ef 0B       		.uleb128 0xb
 3933 01f0 3B       		.uleb128 0x3b
 3934 01f1 0B       		.uleb128 0xb
 3935 01f2 27       		.uleb128 0x27
 3936 01f3 19       		.uleb128 0x19
 3937 01f4 49       		.uleb128 0x49
 3938 01f5 13       		.uleb128 0x13
 3939 01f6 3C       		.uleb128 0x3c
 3940 01f7 19       		.uleb128 0x19
 3941 01f8 01       		.uleb128 0x1
 3942 01f9 13       		.uleb128 0x13
 3943 01fa 00       		.byte	0
 3944 01fb 00       		.byte	0
 3945 01fc 23       		.uleb128 0x23
 3946 01fd 2E       		.uleb128 0x2e
 3947 01fe 00       		.byte	0
 3948 01ff 3F       		.uleb128 0x3f
 3949 0200 19       		.uleb128 0x19
 3950 0201 03       		.uleb128 0x3
 3951 0202 0E       		.uleb128 0xe
 3952 0203 3A       		.uleb128 0x3a
 3953 0204 0B       		.uleb128 0xb
ARM GAS  C:\Users\mgronber\AppData\Local\Temp\ccowRMf8.s 			page 113


 3954 0205 3B       		.uleb128 0x3b
 3955 0206 0B       		.uleb128 0xb
 3956 0207 27       		.uleb128 0x27
 3957 0208 19       		.uleb128 0x19
 3958 0209 49       		.uleb128 0x49
 3959 020a 13       		.uleb128 0x13
 3960 020b 3C       		.uleb128 0x3c
 3961 020c 19       		.uleb128 0x19
 3962 020d 00       		.byte	0
 3963 020e 00       		.byte	0
 3964 020f 00       		.byte	0
 3965              		.section	.debug_loc,"",%progbits
 3966              	.Ldebug_loc0:
 3967              	.LLST0:
 3968 0000 A4010000 		.4byte	.LVL33
 3969 0004 A8010000 		.4byte	.LVL34
 3970 0008 0200     		.2byte	0x2
 3971 000a 35       		.byte	0x35
 3972 000b 9F       		.byte	0x9f
 3973 000c A8010000 		.4byte	.LVL34
 3974 0010 AE010000 		.4byte	.LVL35
 3975 0014 0100     		.2byte	0x1
 3976 0016 54       		.byte	0x54
 3977 0017 E4010000 		.4byte	.LVL39
 3978 001b EA010000 		.4byte	.LVL40
 3979 001f 0100     		.2byte	0x1
 3980 0021 54       		.byte	0x54
 3981 0022 EA010000 		.4byte	.LVL40
 3982 0026 EE010000 		.4byte	.LVL41
 3983 002a 0300     		.2byte	0x3
 3984 002c 74       		.byte	0x74
 3985 002d 7F       		.sleb128 -1
 3986 002e 9F       		.byte	0x9f
 3987 002f 00000000 		.4byte	0
 3988 0033 00000000 		.4byte	0
 3989              	.LLST1:
 3990 0037 DA000000 		.4byte	.LVL20
 3991 003b DC000000 		.4byte	.LVL21
 3992 003f 0500     		.2byte	0x5
 3993 0041 72       		.byte	0x72
 3994 0042 00       		.sleb128 0
 3995 0043 38       		.byte	0x38
 3996 0044 24       		.byte	0x24
 3997 0045 9F       		.byte	0x9f
 3998 0046 DC000000 		.4byte	.LVL21
 3999 004a E2000000 		.4byte	.LVL22
 4000 004e 0B00     		.2byte	0xb
 4001 0050 72       		.byte	0x72
 4002 0051 00       		.sleb128 0
 4003 0052 38       		.byte	0x38
 4004 0053 24       		.byte	0x24
 4005 0054 73       		.byte	0x73
 4006 0055 00       		.sleb128 0
 4007 0056 08       		.byte	0x8
 4008 0057 FF       		.byte	0xff
 4009 0058 1A       		.byte	0x1a
 4010 0059 21       		.byte	0x21
ARM GAS  C:\Users\mgronber\AppData\Local\Temp\ccowRMf8.s 			page 114


 4011 005a 9F       		.byte	0x9f
 4012 005b 00000000 		.4byte	0
 4013 005f 00000000 		.4byte	0
 4014              	.LLST2:
 4015 0063 00000000 		.4byte	.LVL43
 4016 0067 08000000 		.4byte	.LVL44
 4017 006b 0100     		.2byte	0x1
 4018 006d 50       		.byte	0x50
 4019 006e 08000000 		.4byte	.LVL44
 4020 0072 78000000 		.4byte	.LFE2
 4021 0076 0400     		.2byte	0x4
 4022 0078 F3       		.byte	0xf3
 4023 0079 01       		.uleb128 0x1
 4024 007a 50       		.byte	0x50
 4025 007b 9F       		.byte	0x9f
 4026 007c 00000000 		.4byte	0
 4027 0080 00000000 		.4byte	0
 4028              	.LLST3:
 4029 0084 00000000 		.4byte	.LVL43
 4030 0088 0B000000 		.4byte	.LVL45-1
 4031 008c 0100     		.2byte	0x1
 4032 008e 51       		.byte	0x51
 4033 008f 0B000000 		.4byte	.LVL45-1
 4034 0093 78000000 		.4byte	.LFE2
 4035 0097 0400     		.2byte	0x4
 4036 0099 F3       		.byte	0xf3
 4037 009a 01       		.uleb128 0x1
 4038 009b 51       		.byte	0x51
 4039 009c 9F       		.byte	0x9f
 4040 009d 00000000 		.4byte	0
 4041 00a1 00000000 		.4byte	0
 4042              	.LLST4:
 4043 00a5 00000000 		.4byte	.LVL46
 4044 00a9 09000000 		.4byte	.LVL47-1
 4045 00ad 0100     		.2byte	0x1
 4046 00af 50       		.byte	0x50
 4047 00b0 09000000 		.4byte	.LVL47-1
 4048 00b4 F8000000 		.4byte	.LFE3
 4049 00b8 0400     		.2byte	0x4
 4050 00ba F3       		.byte	0xf3
 4051 00bb 01       		.uleb128 0x1
 4052 00bc 50       		.byte	0x50
 4053 00bd 9F       		.byte	0x9f
 4054 00be 00000000 		.4byte	0
 4055 00c2 00000000 		.4byte	0
 4056              	.LLST5:
 4057 00c6 00000000 		.4byte	.LVL46
 4058 00ca 09000000 		.4byte	.LVL47-1
 4059 00ce 0100     		.2byte	0x1
 4060 00d0 51       		.byte	0x51
 4061 00d1 09000000 		.4byte	.LVL47-1
 4062 00d5 F8000000 		.4byte	.LFE3
 4063 00d9 0400     		.2byte	0x4
 4064 00db F3       		.byte	0xf3
 4065 00dc 01       		.uleb128 0x1
 4066 00dd 51       		.byte	0x51
 4067 00de 9F       		.byte	0x9f
ARM GAS  C:\Users\mgronber\AppData\Local\Temp\ccowRMf8.s 			page 115


 4068 00df 00000000 		.4byte	0
 4069 00e3 00000000 		.4byte	0
 4070              	.LLST6:
 4071 00e7 0A000000 		.4byte	.LVL47
 4072 00eb 1E000000 		.4byte	.LVL48
 4073 00ef 0100     		.2byte	0x1
 4074 00f1 55       		.byte	0x55
 4075 00f2 00000000 		.4byte	0
 4076 00f6 00000000 		.4byte	0
 4077              	.LLST7:
 4078 00fa 08000000 		.4byte	.LVL53
 4079 00fe 0E000000 		.4byte	.LVL54
 4080 0102 0100     		.2byte	0x1
 4081 0104 55       		.byte	0x55
 4082 0105 00000000 		.4byte	0
 4083 0109 00000000 		.4byte	0
 4084              	.LLST8:
 4085 010d 00000000 		.4byte	.LVL68
 4086 0111 07000000 		.4byte	.LVL69-1
 4087 0115 0100     		.2byte	0x1
 4088 0117 50       		.byte	0x50
 4089 0118 07000000 		.4byte	.LVL69-1
 4090 011c 2C000000 		.4byte	.LFE5
 4091 0120 0400     		.2byte	0x4
 4092 0122 F3       		.byte	0xf3
 4093 0123 01       		.uleb128 0x1
 4094 0124 50       		.byte	0x50
 4095 0125 9F       		.byte	0x9f
 4096 0126 00000000 		.4byte	0
 4097 012a 00000000 		.4byte	0
 4098              	.LLST9:
 4099 012e 08000000 		.4byte	.LVL69
 4100 0132 1F000000 		.4byte	.LVL71-1
 4101 0136 0100     		.2byte	0x1
 4102 0138 50       		.byte	0x50
 4103 0139 00000000 		.4byte	0
 4104 013d 00000000 		.4byte	0
 4105              	.LLST10:
 4106 0141 14000000 		.4byte	.LVL70
 4107 0145 24000000 		.4byte	.LVL72
 4108 0149 0100     		.2byte	0x1
 4109 014b 54       		.byte	0x54
 4110 014c 24000000 		.4byte	.LVL72
 4111 0150 2C000000 		.4byte	.LFE5
 4112 0154 0100     		.2byte	0x1
 4113 0156 50       		.byte	0x50
 4114 0157 00000000 		.4byte	0
 4115 015b 00000000 		.4byte	0
 4116              	.LLST11:
 4117 015f 00000000 		.4byte	.LVL73
 4118 0163 11000000 		.4byte	.LVL74-1
 4119 0167 0100     		.2byte	0x1
 4120 0169 50       		.byte	0x50
 4121 016a 11000000 		.4byte	.LVL74-1
 4122 016e 54000000 		.4byte	.LFE8
 4123 0172 0400     		.2byte	0x4
 4124 0174 F3       		.byte	0xf3
ARM GAS  C:\Users\mgronber\AppData\Local\Temp\ccowRMf8.s 			page 116


 4125 0175 01       		.uleb128 0x1
 4126 0176 50       		.byte	0x50
 4127 0177 9F       		.byte	0x9f
 4128 0178 00000000 		.4byte	0
 4129 017c 00000000 		.4byte	0
 4130              	.LLST12:
 4131 0180 00000000 		.4byte	.LVL76
 4132 0184 11000000 		.4byte	.LVL77-1
 4133 0188 0100     		.2byte	0x1
 4134 018a 50       		.byte	0x50
 4135 018b 11000000 		.4byte	.LVL77-1
 4136 018f 54000000 		.4byte	.LFE10
 4137 0193 0400     		.2byte	0x4
 4138 0195 F3       		.byte	0xf3
 4139 0196 01       		.uleb128 0x1
 4140 0197 50       		.byte	0x50
 4141 0198 9F       		.byte	0x9f
 4142 0199 00000000 		.4byte	0
 4143 019d 00000000 		.4byte	0
 4144              		.section	.debug_aranges,"",%progbits
 4145 0000 6C000000 		.4byte	0x6c
 4146 0004 0200     		.2byte	0x2
 4147 0006 00000000 		.4byte	.Ldebug_info0
 4148 000a 04       		.byte	0x4
 4149 000b 00       		.byte	0
 4150 000c 0000     		.2byte	0
 4151 000e 0000     		.2byte	0
 4152 0010 00000000 		.4byte	.LFB11
 4153 0014 C8010000 		.4byte	.LFE11-.LFB11
 4154 0018 00000000 		.4byte	.LFB12
 4155 001c 40010000 		.4byte	.LFE12-.LFB12
 4156 0020 00000000 		.4byte	.LFB0
 4157 0024 08020000 		.4byte	.LFE0-.LFB0
 4158 0028 00000000 		.4byte	.LFB1
 4159 002c 40020000 		.4byte	.LFE1-.LFB1
 4160 0030 00000000 		.4byte	.LFB2
 4161 0034 78000000 		.4byte	.LFE2-.LFB2
 4162 0038 00000000 		.4byte	.LFB3
 4163 003c F8000000 		.4byte	.LFE3-.LFB3
 4164 0040 00000000 		.4byte	.LFB4
 4165 0044 84020000 		.4byte	.LFE4-.LFB4
 4166 0048 00000000 		.4byte	.LFB5
 4167 004c 2C000000 		.4byte	.LFE5-.LFB5
 4168 0050 00000000 		.4byte	.LFB8
 4169 0054 54000000 		.4byte	.LFE8-.LFB8
 4170 0058 00000000 		.4byte	.LFB9
 4171 005c 2C000000 		.4byte	.LFE9-.LFB9
 4172 0060 00000000 		.4byte	.LFB10
 4173 0064 54000000 		.4byte	.LFE10-.LFB10
 4174 0068 00000000 		.4byte	0
 4175 006c 00000000 		.4byte	0
 4176              		.section	.debug_ranges,"",%progbits
 4177              	.Ldebug_ranges0:
 4178 0000 14000000 		.4byte	.LBB10
 4179 0004 16000000 		.4byte	.LBE10
 4180 0008 20000000 		.4byte	.LBB26
 4181 000c A4000000 		.4byte	.LBE26
ARM GAS  C:\Users\mgronber\AppData\Local\Temp\ccowRMf8.s 			page 117


 4182 0010 A6000000 		.4byte	.LBB27
 4183 0014 B0000000 		.4byte	.LBE27
 4184 0018 B2000000 		.4byte	.LBB28
 4185 001c B6000000 		.4byte	.LBE28
 4186 0020 B8000000 		.4byte	.LBB29
 4187 0024 BE000000 		.4byte	.LBE29
 4188 0028 D8000000 		.4byte	.LBB30
 4189 002c DA000000 		.4byte	.LBE30
 4190 0030 DC000000 		.4byte	.LBB31
 4191 0034 E4000000 		.4byte	.LBE31
 4192 0038 9E010000 		.4byte	.LBB47
 4193 003c D8010000 		.4byte	.LBE47
 4194 0040 F0010000 		.4byte	.LBB48
 4195 0044 1C020000 		.4byte	.LBE48
 4196 0048 00000000 		.4byte	0
 4197 004c 00000000 		.4byte	0
 4198 0050 60000000 		.4byte	.LBB12
 4199 0054 9C000000 		.4byte	.LBE12
 4200 0058 A8010000 		.4byte	.LBB16
 4201 005c D8010000 		.4byte	.LBE16
 4202 0060 F0010000 		.4byte	.LBB17
 4203 0064 1C020000 		.4byte	.LBE17
 4204 0068 00000000 		.4byte	0
 4205 006c 00000000 		.4byte	0
 4206 0070 24010000 		.4byte	.LBB32
 4207 0074 66010000 		.4byte	.LBE32
 4208 0078 68010000 		.4byte	.LBB44
 4209 007c 70010000 		.4byte	.LBE44
 4210 0080 78010000 		.4byte	.LBB45
 4211 0084 80010000 		.4byte	.LBE45
 4212 0088 86010000 		.4byte	.LBB46
 4213 008c 8E010000 		.4byte	.LBE46
 4214 0090 1C020000 		.4byte	.LBB49
 4215 0094 84020000 		.4byte	.LBE49
 4216 0098 00000000 		.4byte	0
 4217 009c 00000000 		.4byte	0
 4218 00a0 24010000 		.4byte	.LBB34
 4219 00a4 42010000 		.4byte	.LBE34
 4220 00a8 1C020000 		.4byte	.LBB38
 4221 00ac 22020000 		.4byte	.LBE38
 4222 00b0 2E020000 		.4byte	.LBB39
 4223 00b4 84020000 		.4byte	.LBE39
 4224 00b8 00000000 		.4byte	0
 4225 00bc 00000000 		.4byte	0
 4226 00c0 00000000 		.4byte	.LFB11
 4227 00c4 C8010000 		.4byte	.LFE11
 4228 00c8 00000000 		.4byte	.LFB12
 4229 00cc 40010000 		.4byte	.LFE12
 4230 00d0 00000000 		.4byte	.LFB0
 4231 00d4 08020000 		.4byte	.LFE0
 4232 00d8 00000000 		.4byte	.LFB1
 4233 00dc 40020000 		.4byte	.LFE1
 4234 00e0 00000000 		.4byte	.LFB2
 4235 00e4 78000000 		.4byte	.LFE2
 4236 00e8 00000000 		.4byte	.LFB3
 4237 00ec F8000000 		.4byte	.LFE3
 4238 00f0 00000000 		.4byte	.LFB4
ARM GAS  C:\Users\mgronber\AppData\Local\Temp\ccowRMf8.s 			page 118


 4239 00f4 84020000 		.4byte	.LFE4
 4240 00f8 00000000 		.4byte	.LFB5
 4241 00fc 2C000000 		.4byte	.LFE5
 4242 0100 00000000 		.4byte	.LFB8
 4243 0104 54000000 		.4byte	.LFE8
 4244 0108 00000000 		.4byte	.LFB9
 4245 010c 2C000000 		.4byte	.LFE9
 4246 0110 00000000 		.4byte	.LFB10
 4247 0114 54000000 		.4byte	.LFE10
 4248 0118 00000000 		.4byte	0
 4249 011c 00000000 		.4byte	0
 4250              		.section	.debug_line,"",%progbits
 4251              	.Ldebug_line0:
 4252 0000 FA040000 		.section	.debug_str,"MS",%progbits,1
 4252      02006300 
 4252      00000201 
 4252      FB0E0D00 
 4252      01010101 
 4253              	.LASF104:
 4254 0000 43795664 		.ascii	"CyVdLvAnalogDisable\000"
 4254      4C76416E 
 4254      616C6F67 
 4254      44697361 
 4254      626C6500 
 4255              	.LASF10:
 4256 0014 75696E74 		.ascii	"uint16\000"
 4256      313600
 4257              	.LASF93:
 4258 001b 4379494D 		.ascii	"CyIMO_Start\000"
 4258      4F5F5374 
 4258      61727400 
 4259              	.LASF58:
 4260 0027 4379506D 		.ascii	"CyPmHibSlpRestore\000"
 4260      48696253 
 4260      6C705265 
 4260      73746F72 
 4260      6500
 4261              	.LASF43:
 4262 0039 77616B65 		.ascii	"wakeupTrim0\000"
 4262      75705472 
 4262      696D3000 
 4263              	.LASF44:
 4264 0045 77616B65 		.ascii	"wakeupTrim1\000"
 4264      75705472 
 4264      696D3100 
 4265              	.LASF20:
 4266 0051 6D617374 		.ascii	"masterClkSrc\000"
 4266      6572436C 
 4266      6B537263 
 4266      00
 4267              	.LASF56:
 4268 005e 43595F50 		.ascii	"CY_PM_BACKUP_STRUCT\000"
 4268      4D5F4241 
 4268      434B5550 
 4268      5F535452 
 4268      55435400 
 4269              	.LASF112:
ARM GAS  C:\Users\mgronber\AppData\Local\Temp\ccowRMf8.s 			page 119


 4270 0072 43795854 		.ascii	"CyXTAL_32KHZ_Start\000"
 4270      414C5F33 
 4270      324B485A 
 4270      5F537461 
 4270      727400
 4271              	.LASF28:
 4272 0085 636C6B53 		.ascii	"clkSyncDiv\000"
 4272      796E6344 
 4272      697600
 4273              	.LASF60:
 4274 0090 4379506D 		.ascii	"CyPmRestoreClocks\000"
 4274      52657374 
 4274      6F726543 
 4274      6C6F636B 
 4274      7300
 4275              	.LASF7:
 4276 00a2 6C6F6E67 		.ascii	"long long unsigned int\000"
 4276      206C6F6E 
 4276      6720756E 
 4276      7369676E 
 4276      65642069 
 4277              	.LASF70:
 4278 00b9 4379506D 		.ascii	"CyPmHviLviSaveDisable\000"
 4278      4876694C 
 4278      76695361 
 4278      76654469 
 4278      7361626C 
 4279              	.LASF76:
 4280 00cf 746D7053 		.ascii	"tmpStatus\000"
 4280      74617475 
 4280      7300
 4281              	.LASF49:
 4282 00d9 6C766961 		.ascii	"lviaTrip\000"
 4282      54726970 
 4282      00
 4283              	.LASF22:
 4284 00e2 696D6F55 		.ascii	"imoUsbClk\000"
 4284      7362436C 
 4284      6B00
 4285              	.LASF80:
 4286 00ec 4379506D 		.ascii	"CyPmFtwSetInterval\000"
 4286      46747753 
 4286      6574496E 
 4286      74657276 
 4286      616C00
 4287              	.LASF50:
 4288 00ff 68766961 		.ascii	"hviaEn\000"
 4288      456E00
 4289              	.LASF109:
 4290 0106 43795664 		.ascii	"CyVdLvDigitEnable\000"
 4290      4C764469 
 4290      67697445 
 4290      6E61626C 
 4290      6500
 4291              	.LASF36:
 4292 0118 696C6F50 		.ascii	"iloPowerMode\000"
 4292      6F776572 
ARM GAS  C:\Users\mgronber\AppData\Local\Temp\ccowRMf8.s 			page 120


 4292      4D6F6465 
 4292      00
 4293              	.LASF6:
 4294 0125 6C6F6E67 		.ascii	"long long int\000"
 4294      206C6F6E 
 4294      6720696E 
 4294      7400
 4295              	.LASF0:
 4296 0133 7369676E 		.ascii	"signed char\000"
 4296      65642063 
 4296      68617200 
 4297              	.LASF115:
 4298 013f 433A5C55 		.ascii	"C:\\Users\\mgronber\\Desktop\\Hummingbird\\Hummingb"
 4298      73657273 
 4298      5C6D6772 
 4298      6F6E6265 
 4298      725C4465 
 4299 016d 69726428 		.ascii	"ird(Continuous Output).cydsn\000"
 4299      436F6E74 
 4299      696E756F 
 4299      7573204F 
 4299      75747075 
 4300              	.LASF29:
 4301 018a 636C6B42 		.ascii	"clkBusDiv\000"
 4301      75734469 
 4301      7600
 4302              	.LASF68:
 4303 0194 696E7465 		.ascii	"interruptState\000"
 4303      72727570 
 4303      74537461 
 4303      746500
 4304              	.LASF111:
 4305 01a3 4379494C 		.ascii	"CyILO_Start1K\000"
 4305      4F5F5374 
 4305      61727431 
 4305      4B00
 4306              	.LASF27:
 4307 01b1 696D6F32 		.ascii	"imo2x\000"
 4307      7800
 4308              	.LASF4:
 4309 01b7 6C6F6E67 		.ascii	"long int\000"
 4309      20696E74 
 4309      00
 4310              	.LASF72:
 4311 01c0 4379506D 		.ascii	"CyPmHviLviRestore\000"
 4311      4876694C 
 4311      76695265 
 4311      73746F72 
 4311      6500
 4312              	.LASF9:
 4313 01d2 75696E74 		.ascii	"uint8\000"
 4313      3800
 4314              	.LASF101:
 4315 01d8 4379504C 		.ascii	"CyPLL_OUT_Start\000"
 4315      4C5F4F55 
 4315      545F5374 
 4315      61727400 
ARM GAS  C:\Users\mgronber\AppData\Local\Temp\ccowRMf8.s 			page 121


 4316              	.LASF94:
 4317 01e8 43794465 		.ascii	"CyDelayUs\000"
 4317      6C617955 
 4317      7300
 4318              	.LASF13:
 4319 01f2 646F7562 		.ascii	"double\000"
 4319      6C6500
 4320              	.LASF11:
 4321 01f9 75696E74 		.ascii	"uint32\000"
 4321      333200
 4322              	.LASF31:
 4323 0200 786D687A 		.ascii	"xmhzEnableState\000"
 4323      456E6162 
 4323      6C655374 
 4323      61746500 
 4324              	.LASF71:
 4325 0210 4379506D 		.ascii	"CyPmHibRestore\000"
 4325      48696252 
 4325      6573746F 
 4325      726500
 4326              	.LASF74:
 4327 021f 6D61736B 		.ascii	"mask\000"
 4327      00
 4328              	.LASF53:
 4329 0224 696D6F41 		.ascii	"imoActFreq\000"
 4329      63744672 
 4329      657100
 4330              	.LASF8:
 4331 022f 756E7369 		.ascii	"unsigned int\000"
 4331      676E6564 
 4331      20696E74 
 4331      00
 4332              	.LASF45:
 4333 023c 73636374 		.ascii	"scctData\000"
 4333      44617461 
 4333      00
 4334              	.LASF87:
 4335 0245 4379494D 		.ascii	"CyIMO_SetSource\000"
 4335      4F5F5365 
 4335      74536F75 
 4335      72636500 
 4336              	.LASF21:
 4337 0255 696D6F46 		.ascii	"imoFreq\000"
 4337      72657100 
 4338              	.LASF5:
 4339 025d 6C6F6E67 		.ascii	"long unsigned int\000"
 4339      20756E73 
 4339      69676E65 
 4339      6420696E 
 4339      7400
 4340              	.LASF46:
 4341 026f 6C766964 		.ascii	"lvidEn\000"
 4341      456E00
 4342              	.LASF34:
 4343 0276 6379506D 		.ascii	"cyPmClockBackupStruct\000"
 4343      436C6F63 
 4343      6B426163 
ARM GAS  C:\Users\mgronber\AppData\Local\Temp\ccowRMf8.s 			page 122


 4343      6B757053 
 4343      74727563 
 4344              	.LASF117:
 4345 028c 4379456E 		.ascii	"CyEnterCriticalSection\000"
 4345      74657243 
 4345      72697469 
 4345      63616C53 
 4345      65637469 
 4346              	.LASF35:
 4347 02a3 6379506D 		.ascii	"cyPmBackupStruct\000"
 4347      4261636B 
 4347      75705374 
 4347      72756374 
 4347      00
 4348              	.LASF106:
 4349 02b4 4379494C 		.ascii	"CyILO_SetPowerMode\000"
 4349      4F5F5365 
 4349      74506F77 
 4349      65724D6F 
 4349      646500
 4350              	.LASF97:
 4351 02c7 4379494D 		.ascii	"CyIMO_Stop\000"
 4351      4F5F5374 
 4351      6F7000
 4352              	.LASF33:
 4353 02d2 43595F50 		.ascii	"CY_PM_CLOCK_BACKUP_STRUCT\000"
 4353      4D5F434C 
 4353      4F434B5F 
 4353      4241434B 
 4353      55505F53 
 4354              	.LASF3:
 4355 02ec 73686F72 		.ascii	"short unsigned int\000"
 4355      7420756E 
 4355      7369676E 
 4355      65642069 
 4355      6E7400
 4356              	.LASF78:
 4357 02ff 63747749 		.ascii	"ctwInterval\000"
 4357      6E746572 
 4357      76616C00 
 4358              	.LASF105:
 4359 030b 43795664 		.ascii	"CyVdHvAnalogDisable\000"
 4359      4876416E 
 4359      616C6F67 
 4359      44697361 
 4359      626C6500 
 4360              	.LASF89:
 4361 031f 43794D61 		.ascii	"CyMasterClk_SetSource\000"
 4361      73746572 
 4361      436C6B5F 
 4361      53657453 
 4361      6F757263 
 4362              	.LASF114:
 4363 0335 47656E65 		.ascii	"Generated_Source\\PSoC5\\cyPm.c\000"
 4363      72617465 
 4363      645F536F 
 4363      75726365 
ARM GAS  C:\Users\mgronber\AppData\Local\Temp\ccowRMf8.s 			page 123


 4363      5C50536F 
 4364              	.LASF40:
 4365 0353 77616B65 		.ascii	"wakeupCfg0\000"
 4365      75704366 
 4365      673000
 4366              	.LASF41:
 4367 035e 77616B65 		.ascii	"wakeupCfg1\000"
 4367      75704366 
 4367      673100
 4368              	.LASF42:
 4369 0369 77616B65 		.ascii	"wakeupCfg2\000"
 4369      75704366 
 4369      673200
 4370              	.LASF62:
 4371 0374 636C6B42 		.ascii	"clkBusDivTmp\000"
 4371      75734469 
 4371      76546D70 
 4371      00
 4372              	.LASF55:
 4373 0381 626F6F73 		.ascii	"boostRefExt\000"
 4373      74526566 
 4373      45787400 
 4374              	.LASF26:
 4375 038d 636C6B49 		.ascii	"clkImoSrc\000"
 4375      6D6F5372 
 4375      6300
 4376              	.LASF59:
 4377 0397 4379506D 		.ascii	"CyPmSaveClocks\000"
 4377      53617665 
 4377      436C6F63 
 4377      6B7300
 4378              	.LASF100:
 4379 03a6 43795854 		.ascii	"CyXTAL_Start\000"
 4379      414C5F53 
 4379      74617274 
 4379      00
 4380              	.LASF39:
 4381 03b3 736C7054 		.ascii	"slpTrBypass\000"
 4381      72427970 
 4381      61737300 
 4382              	.LASF113:
 4383 03bf 474E5520 		.ascii	"GNU C 4.9.3 20150303 (release) [ARM/embedded-4_9-br"
 4383      4320342E 
 4383      392E3320 
 4383      32303135 
 4383      30333033 
 4384 03f2 616E6368 		.ascii	"anch revision 221220] -mcpu=cortex-m3 -mthumb -g -O"
 4384      20726576 
 4384      6973696F 
 4384      6E203232 
 4384      31323230 
 4385 0425 32202D66 		.ascii	"2 -ffunction-sections -ffat-lto-objects\000"
 4385      66756E63 
 4385      74696F6E 
 4385      2D736563 
 4385      74696F6E 
 4386              	.LASF17:
ARM GAS  C:\Users\mgronber\AppData\Local\Temp\ccowRMf8.s 			page 124


 4387 044d 73697A65 		.ascii	"sizetype\000"
 4387      74797065 
 4387      00
 4388              	.LASF63:
 4389 0456 6379506D 		.ascii	"cyPmImoFreqMhz2Reg\000"
 4389      496D6F46 
 4389      7265714D 
 4389      687A3252 
 4389      656700
 4390              	.LASF18:
 4391 0469 656E436C 		.ascii	"enClkA\000"
 4391      6B4100
 4392              	.LASF19:
 4393 0470 656E436C 		.ascii	"enClkD\000"
 4393      6B4400
 4394              	.LASF110:
 4395 0477 4379494C 		.ascii	"CyILO_Start100K\000"
 4395      4F5F5374 
 4395      61727431 
 4395      30304B00 
 4396              	.LASF66:
 4397 0487 77616B65 		.ascii	"wakeupSource\000"
 4397      7570536F 
 4397      75726365 
 4397      00
 4398              	.LASF95:
 4399 0494 4379504C 		.ascii	"CyPLL_OUT_Stop\000"
 4399      4C5F4F55 
 4399      545F5374 
 4399      6F7000
 4400              	.LASF90:
 4401 04a3 43794D61 		.ascii	"CyMasterClk_SetDivider\000"
 4401      73746572 
 4401      436C6B5F 
 4401      53657444 
 4401      69766964 
 4402              	.LASF25:
 4403 04ba 696D6F43 		.ascii	"imoClkSrc\000"
 4403      6C6B5372 
 4403      6300
 4404              	.LASF12:
 4405 04c4 666C6F61 		.ascii	"float\000"
 4405      7400
 4406              	.LASF102:
 4407 04ca 43794578 		.ascii	"CyExitCriticalSection\000"
 4407      69744372 
 4407      69746963 
 4407      616C5365 
 4407      6374696F 
 4408              	.LASF67:
 4409 04e0 4379506D 		.ascii	"CyPmSleep\000"
 4409      536C6565 
 4409      7000
 4410              	.LASF51:
 4411 04ea 6C766964 		.ascii	"lvidRst\000"
 4411      52737400 
 4412              	.LASF64:
ARM GAS  C:\Users\mgronber\AppData\Local\Temp\ccowRMf8.s 			page 125


 4413 04f2 4379506D 		.ascii	"CyPmAltAct\000"
 4413      416C7441 
 4413      637400
 4414              	.LASF99:
 4415 04fd 43794465 		.ascii	"CyDelayCycles\000"
 4415      6C617943 
 4415      79636C65 
 4415      7300
 4416              	.LASF16:
 4417 050b 72656738 		.ascii	"reg8\000"
 4417      00
 4418              	.LASF96:
 4419 0510 43794861 		.ascii	"CyHalt\000"
 4419      6C7400
 4420              	.LASF79:
 4421 0517 4379506D 		.ascii	"CyPmOppsSet\000"
 4421      4F707073 
 4421      53657400 
 4422              	.LASF1:
 4423 0523 756E7369 		.ascii	"unsigned char\000"
 4423      676E6564 
 4423      20636861 
 4423      7200
 4424              	.LASF83:
 4425 0531 6379506D 		.ascii	"cyPmClockBackup\000"
 4425      436C6F63 
 4425      6B426163 
 4425      6B757000 
 4426              	.LASF30:
 4427 0541 706C6C45 		.ascii	"pllEnableState\000"
 4427      6E61626C 
 4427      65537461 
 4427      746500
 4428              	.LASF37:
 4429 0550 696C6F31 		.ascii	"ilo1kEnable\000"
 4429      6B456E61 
 4429      626C6500 
 4430              	.LASF2:
 4431 055c 73686F72 		.ascii	"short int\000"
 4431      7420696E 
 4431      7400
 4432              	.LASF57:
 4433 0566 4379506D 		.ascii	"CyPmHibSlpSaveSet\000"
 4433      48696253 
 4433      6C705361 
 4433      76655365 
 4433      7400
 4434              	.LASF38:
 4435 0578 696C6F31 		.ascii	"ilo100kEnable\000"
 4435      30306B45 
 4435      6E61626C 
 4435      6500
 4436              	.LASF14:
 4437 0586 63686172 		.ascii	"char\000"
 4437      00
 4438              	.LASF92:
 4439 058b 4379494D 		.ascii	"CyIMO_DisableDoubler\000"
ARM GAS  C:\Users\mgronber\AppData\Local\Temp\ccowRMf8.s 			page 126


 4439      4F5F4469 
 4439      7361626C 
 4439      65446F75 
 4439      626C6572 
 4440              	.LASF103:
 4441 05a0 43795664 		.ascii	"CyVdLvDigitDisable\000"
 4441      4C764469 
 4441      67697444 
 4441      69736162 
 4441      6C6500
 4442              	.LASF54:
 4443 05b3 696D6F41 		.ascii	"imoActFreq12Mhz\000"
 4443      63744672 
 4443      65713132 
 4443      4D687A00 
 4444              	.LASF73:
 4445 05c3 4379506D 		.ascii	"CyPmHibernate\000"
 4445      48696265 
 4445      726E6174 
 4445      6500
 4446              	.LASF85:
 4447 05d1 4379466C 		.ascii	"CyFlash_SetWaitCycles\000"
 4447      6173685F 
 4447      53657457 
 4447      61697443 
 4447      79636C65 
 4448              	.LASF81:
 4449 05e7 66747749 		.ascii	"ftwInterval\000"
 4449      6E746572 
 4449      76616C00 
 4450              	.LASF84:
 4451 05f3 6379506D 		.ascii	"cyPmImoFreqReg2Mhz\000"
 4451      496D6F46 
 4451      72657152 
 4451      6567324D 
 4451      687A00
 4452              	.LASF116:
 4453 0606 4379506D 		.ascii	"CyPmReadStatus\000"
 4453      52656164 
 4453      53746174 
 4453      757300
 4454              	.LASF88:
 4455 0615 43794275 		.ascii	"CyBusClk_SetDivider\000"
 4455      73436C6B 
 4455      5F536574 
 4455      44697669 
 4455      64657200 
 4456              	.LASF32:
 4457 0629 636C6B44 		.ascii	"clkDistDelay\000"
 4457      69737444 
 4457      656C6179 
 4457      00
 4458              	.LASF77:
 4459 0636 4379506D 		.ascii	"CyPmCtwSetInterval\000"
 4459      43747753 
 4459      6574496E 
 4459      74657276 
ARM GAS  C:\Users\mgronber\AppData\Local\Temp\ccowRMf8.s 			page 127


 4459      616C00
 4460              	.LASF61:
 4461 0649 73746174 		.ascii	"status\000"
 4461      757300
 4462              	.LASF48:
 4463 0650 6C766961 		.ascii	"lviaEn\000"
 4463      456E00
 4464              	.LASF86:
 4465 0657 4379494D 		.ascii	"CyIMO_SetFreq\000"
 4465      4F5F5365 
 4465      74467265 
 4465      7100
 4466              	.LASF98:
 4467 0665 4379494D 		.ascii	"CyIMO_EnableDoubler\000"
 4467      4F5F456E 
 4467      61626C65 
 4467      446F7562 
 4467      6C657200 
 4468              	.LASF69:
 4469 0679 4379506D 		.ascii	"CyPmHibSaveSet\000"
 4469      48696253 
 4469      61766553 
 4469      657400
 4470              	.LASF65:
 4471 0688 77616B65 		.ascii	"wakeupTime\000"
 4471      75705469 
 4471      6D6500
 4472              	.LASF108:
 4473 0693 43795664 		.ascii	"CyVdLvAnalogEnable\000"
 4473      4C76416E 
 4473      616C6F67 
 4473      456E6162 
 4473      6C6500
 4474              	.LASF15:
 4475 06a6 63797374 		.ascii	"cystatus\000"
 4475      61747573 
 4475      00
 4476              	.LASF23:
 4477 06af 666C6173 		.ascii	"flashWaitCycles\000"
 4477      68576169 
 4477      74437963 
 4477      6C657300 
 4478              	.LASF52:
 4479 06bf 6C766961 		.ascii	"lviaRst\000"
 4479      52737400 
 4480              	.LASF107:
 4481 06c7 43795664 		.ascii	"CyVdHvAnalogEnable\000"
 4481      4876416E 
 4481      616C6F67 
 4481      456E6162 
 4481      6C6500
 4482              	.LASF91:
 4483 06da 43795854 		.ascii	"CyXTAL_Stop\000"
 4483      414C5F53 
 4483      746F7000 
 4484              	.LASF82:
 4485 06e6 6379506D 		.ascii	"cyPmBackup\000"
ARM GAS  C:\Users\mgronber\AppData\Local\Temp\ccowRMf8.s 			page 128


 4485      4261636B 
 4485      757000
 4486              	.LASF47:
 4487 06f1 6C766964 		.ascii	"lvidTrip\000"
 4487      54726970 
 4487      00
 4488              	.LASF24:
 4489 06fa 696D6F45 		.ascii	"imoEnable\000"
 4489      6E61626C 
 4489      6500
 4490              	.LASF75:
 4491 0704 696E7465 		.ascii	"interruptStatus\000"
 4491      72727570 
 4491      74537461 
 4491      74757300 
 4492              		.ident	"GCC: (GNU Tools for ARM Embedded Processors) 4.9.3 20150303 (release) [ARM/embedded-4_9-br
