ARM GAS  C:\Users\jmdevoto\AppData\Local\Temp\ccWaR5hZ.s 			page 1


   1              		.syntax unified
   2              		.cpu cortex-m3
   3              		.fpu softvfp
   4              		.eabi_attribute 20, 1
   5              		.eabi_attribute 21, 1
   6              		.eabi_attribute 23, 3
   7              		.eabi_attribute 24, 1
   8              		.eabi_attribute 25, 1
   9              		.eabi_attribute 26, 1
  10              		.eabi_attribute 30, 2
  11              		.eabi_attribute 34, 1
  12              		.eabi_attribute 18, 4
  13              		.thumb
  14              		.file	"fft.c"
  15              		.text
  16              	.Ltext0:
  17              		.cfi_sections	.debug_frame
  18              		.section	.text.memdup,"ax",%progbits
  19              		.align	2
  20              		.thumb
  21              		.thumb_func
  22              		.type	memdup, %function
  23              	memdup:
  24              	.LFB8:
  25              		.file 1 "fft.c"
   1:fft.c         **** /* 
   2:fft.c         ****  * Free FFT and convolution (C)
   3:fft.c         ****  * 
   4:fft.c         ****  * Copyright (c) 2014 Project Nayuki
   5:fft.c         ****  * https://www.nayuki.io/page/free-small-fft-in-multiple-languages
   6:fft.c         ****  * 
   7:fft.c         ****  * (MIT License)
   8:fft.c         ****  * Permission is hereby granted, free of charge, to any person obtaining a copy of
   9:fft.c         ****  * this software and associated documentation files (the "Software"), to deal in
  10:fft.c         ****  * the Software without restriction, including without limitation the rights to
  11:fft.c         ****  * use, copy, modify, merge, publish, distribute, sublicense, and/or sell copies of
  12:fft.c         ****  * the Software, and to permit persons to whom the Software is furnished to do so,
  13:fft.c         ****  * subject to the following conditions:
  14:fft.c         ****  * - The above copyright notice and this permission notice shall be included in
  15:fft.c         ****  *   all copies or substantial portions of the Software.
  16:fft.c         ****  * - The Software is provided "as is", without warranty of any kind, express or
  17:fft.c         ****  *   implied, including but not limited to the warranties of merchantability,
  18:fft.c         ****  *   fitness for a particular purpose and noninfringement. In no event shall the
  19:fft.c         ****  *   authors or copyright holders be liable for any claim, damages or other
  20:fft.c         ****  *   liability, whether in an action of contract, tort or otherwise, arising from,
  21:fft.c         ****  *   out of or in connection with the Software or the use or other dealings in the
  22:fft.c         ****  *   Software.
  23:fft.c         ****  */
  24:fft.c         **** 
  25:fft.c         **** #include <math.h>
  26:fft.c         **** #include <stdlib.h>
  27:fft.c         **** #include <string.h>
  28:fft.c         **** #include "fft.h"
  29:fft.c         **** 
  30:fft.c         **** // Private function prototypes
  31:fft.c         **** static size_t reverse_bits(size_t x, unsigned int n);
  32:fft.c         **** static void *memdup(const void *src, size_t n);
ARM GAS  C:\Users\jmdevoto\AppData\Local\Temp\ccWaR5hZ.s 			page 2


  33:fft.c         **** 
  34:fft.c         **** #define FFT_SIZE_MAX ((size_t)-1)
  35:fft.c         **** 
  36:fft.c         **** bool fft_init(float cos_table[], float sin_table[], size_t n) {
  37:fft.c         **** 	// Trigonometric tables
  38:fft.c         **** 	if (FFT_SIZE_MAX / sizeof(float) < n / 2)
  39:fft.c         **** 		return false;
  40:fft.c         **** 	int i;
  41:fft.c         **** 	for (i = 0; i < n / 2; i++) {
  42:fft.c         **** 		cos_table[i] = cos(2 * M_PI * i / n);
  43:fft.c         **** 		sin_table[i] = sin(2 * M_PI * i / n);
  44:fft.c         **** 	}
  45:fft.c         **** 
  46:fft.c         **** 	return true;
  47:fft.c         **** }
  48:fft.c         **** 
  49:fft.c         **** 
  50:fft.c         **** bool transform(float real[], float imag[], float cos_table[],
  51:fft.c         **** 			   float sin_table[], size_t n) {
  52:fft.c         **** 	if (n == 0)
  53:fft.c         **** 		return true;
  54:fft.c         **** 	else if ((n & (n - 1)) == 0)  // Is power of 2
  55:fft.c         **** 		return transform_radix2(real, imag, cos_table, sin_table, n);
  56:fft.c         **** 	else  // More complicated algorithm for arbitrary sizes
  57:fft.c         **** 		return transform_bluestein(real, imag, cos_table, sin_table, n);
  58:fft.c         **** }
  59:fft.c         **** 
  60:fft.c         **** 
  61:fft.c         **** bool inverse_transform(float real[], float imag[], float cos_table[],
  62:fft.c         **** 					   float sin_table[], size_t n) {
  63:fft.c         **** 	return transform(imag, real, cos_table, sin_table, n);
  64:fft.c         **** }
  65:fft.c         **** 
  66:fft.c         **** 
  67:fft.c         **** bool transform_radix2(float real[], float imag[], float cos_table[],
  68:fft.c         **** 					  float sin_table[], size_t n) {
  69:fft.c         **** 	// Variables
  70:fft.c         **** 	bool status = false;
  71:fft.c         **** 	unsigned int levels;
  72:fft.c         **** 	size_t size;
  73:fft.c         **** 	size_t i;
  74:fft.c         **** 	
  75:fft.c         **** 	// Compute levels = floor(log2(n))
  76:fft.c         **** 	{
  77:fft.c         **** 		size_t temp = n;
  78:fft.c         **** 		levels = 0;
  79:fft.c         **** 		while (temp > 1) {
  80:fft.c         **** 			levels++;
  81:fft.c         **** 			temp >>= 1;
  82:fft.c         **** 		}
  83:fft.c         **** 		if (1u << levels != n)
  84:fft.c         **** 			return false;  // n is not a power of 2
  85:fft.c         **** 	}
  86:fft.c         **** 	
  87:fft.c         **** 	// Bit-reversed addressing permutation
  88:fft.c         **** 	for (i = 0; i < n; i++) {
  89:fft.c         **** 		size_t j = reverse_bits(i, levels);
ARM GAS  C:\Users\jmdevoto\AppData\Local\Temp\ccWaR5hZ.s 			page 3


  90:fft.c         **** 		if (j > i) {
  91:fft.c         **** 			float temp = real[i];
  92:fft.c         **** 			real[i] = real[j];
  93:fft.c         **** 			real[j] = temp;
  94:fft.c         **** 			temp = imag[i];
  95:fft.c         **** 			imag[i] = imag[j];
  96:fft.c         **** 			imag[j] = temp;
  97:fft.c         **** 		}
  98:fft.c         **** 	}
  99:fft.c         **** 	
 100:fft.c         **** 	// Cooley-Tukey decimation-in-time radix-2 FFT
 101:fft.c         **** 	for (size = 2; size <= n; size *= 2) {
 102:fft.c         **** 		size_t halfsize = size / 2;
 103:fft.c         **** 		size_t tablestep = n / size;
 104:fft.c         **** 		for (i = 0; i < n; i += size) {
 105:fft.c         **** 			size_t j;
 106:fft.c         **** 			size_t k;
 107:fft.c         **** 			for (j = i, k = 0; j < i + halfsize; j++, k += tablestep) {
 108:fft.c         **** 				float tpre =  real[j+halfsize] * cos_table[k] + imag[j+halfsize] * sin_table[k];
 109:fft.c         **** 				float tpim = -real[j+halfsize] * sin_table[k] + imag[j+halfsize] * cos_table[k];
 110:fft.c         **** 				real[j + halfsize] = real[j] - tpre;
 111:fft.c         **** 				imag[j + halfsize] = imag[j] - tpim;
 112:fft.c         **** 				real[j] += tpre;
 113:fft.c         **** 				imag[j] += tpim;
 114:fft.c         **** 			}
 115:fft.c         **** 		}
 116:fft.c         **** 		if (size == n)  // Prevent overflow in 'size *= 2'
 117:fft.c         **** 			break;
 118:fft.c         **** 	}
 119:fft.c         **** 	status = true;
 120:fft.c         **** 	
 121:fft.c         **** 	return status;
 122:fft.c         **** }
 123:fft.c         **** 
 124:fft.c         **** bool transform_bluestein(float real[], float imag[], float cos_table[],
 125:fft.c         **** 						 float sin_table[], size_t n) {
 126:fft.c         **** 	// Variables
 127:fft.c         **** 	bool status = false;
 128:fft.c         **** 	float *areal, *aimag;
 129:fft.c         **** 	float *breal, *bimag;
 130:fft.c         **** 	float *creal, *cimag;
 131:fft.c         **** 	size_t m;
 132:fft.c         **** 	size_t size_n, size_m;
 133:fft.c         **** 	size_t i;
 134:fft.c         **** 	
 135:fft.c         **** 	// Find a power-of-2 convolution length m such that m >= n * 2 + 1
 136:fft.c         **** 	{
 137:fft.c         **** 		size_t target;
 138:fft.c         **** 		if (n > (FFT_SIZE_MAX - 1) / 2)
 139:fft.c         **** 			return false;
 140:fft.c         **** 		target = n * 2 + 1;
 141:fft.c         **** 		for (m = 1; m < target; m *= 2) {
 142:fft.c         **** 			if (FFT_SIZE_MAX / 2 < m)
 143:fft.c         **** 				return false;
 144:fft.c         **** 		}
 145:fft.c         **** 	}
 146:fft.c         **** 	
ARM GAS  C:\Users\jmdevoto\AppData\Local\Temp\ccWaR5hZ.s 			page 4


 147:fft.c         **** 	// Allocate memory
 148:fft.c         **** 	if (FFT_SIZE_MAX / sizeof(float) < n || FFT_SIZE_MAX / sizeof(float) < m)
 149:fft.c         **** 		return false;
 150:fft.c         **** 	size_n = n * sizeof(float);
 151:fft.c         **** 	size_m = m * sizeof(float);
 152:fft.c         **** 	areal = calloc(m, sizeof(float));
 153:fft.c         **** 	aimag = calloc(m, sizeof(float));
 154:fft.c         **** 	breal = calloc(m, sizeof(float));
 155:fft.c         **** 	bimag = calloc(m, sizeof(float));
 156:fft.c         **** 	creal = malloc(size_m);
 157:fft.c         **** 	cimag = malloc(size_m);
 158:fft.c         **** 	if (cos_table == NULL || sin_table == NULL
 159:fft.c         **** 			|| areal == NULL || aimag == NULL
 160:fft.c         **** 			|| breal == NULL || bimag == NULL
 161:fft.c         **** 			|| creal == NULL || cimag == NULL)
 162:fft.c         **** 		goto cleanup;
 163:fft.c         **** 	
 164:fft.c         **** 	// Temporary vectors and preprocessing
 165:fft.c         **** 	for (i = 0; i < n; i++) {
 166:fft.c         **** 		areal[i] =  real[i] * cos_table[i] + imag[i] * sin_table[i];
 167:fft.c         **** 		aimag[i] = -real[i] * sin_table[i] + imag[i] * cos_table[i];
 168:fft.c         **** 	}
 169:fft.c         **** 	breal[0] = cos_table[0];
 170:fft.c         **** 	bimag[0] = sin_table[0];
 171:fft.c         **** 	for (i = 1; i < n; i++) {
 172:fft.c         **** 		breal[i] = breal[m - i] = cos_table[i];
 173:fft.c         **** 		bimag[i] = bimag[m - i] = sin_table[i];
 174:fft.c         **** 	}
 175:fft.c         **** 	
 176:fft.c         **** 	// Convolution
 177:fft.c         **** 	if (!convolve_complex(areal, aimag, breal, bimag, creal, cimag, cos_table, sin_table, m))
 178:fft.c         **** 		goto cleanup;
 179:fft.c         **** 	
 180:fft.c         **** 	// Postprocessing
 181:fft.c         **** 	for (i = 0; i < n; i++) {
 182:fft.c         **** 		real[i] =  creal[i] * cos_table[i] + cimag[i] * sin_table[i];
 183:fft.c         **** 		imag[i] = -creal[i] * sin_table[i] + cimag[i] * cos_table[i];
 184:fft.c         **** 	}
 185:fft.c         **** 	status = true;
 186:fft.c         **** 	
 187:fft.c         **** 	// Deallocation
 188:fft.c         **** cleanup:
 189:fft.c         **** 	free(cimag);
 190:fft.c         **** 	free(creal);
 191:fft.c         **** 	free(bimag);
 192:fft.c         **** 	free(breal);
 193:fft.c         **** 	free(aimag);
 194:fft.c         **** 	free(areal);
 195:fft.c         **** 	free(sin_table);
 196:fft.c         **** 	free(cos_table);
 197:fft.c         **** 	return status;
 198:fft.c         **** }
 199:fft.c         **** 
 200:fft.c         **** bool convolve_real(const float x[], const float y[], float out[], float cos_table[], float sin_tabl
 201:fft.c         **** 	float *ximag, *yimag, *zimag;
 202:fft.c         **** 	bool status = false;
 203:fft.c         **** 	ximag = calloc(n, sizeof(float));
ARM GAS  C:\Users\jmdevoto\AppData\Local\Temp\ccWaR5hZ.s 			page 5


 204:fft.c         **** 	yimag = calloc(n, sizeof(float));
 205:fft.c         **** 	zimag = calloc(n, sizeof(float));
 206:fft.c         **** 	if (ximag == NULL || yimag == NULL || zimag == NULL)
 207:fft.c         **** 		goto cleanup;
 208:fft.c         **** 	
 209:fft.c         **** 	status = convolve_complex(x, ximag, y, yimag, out, zimag, cos_table, sin_table, n);
 210:fft.c         **** cleanup:
 211:fft.c         **** 	free(zimag);
 212:fft.c         **** 	free(yimag);
 213:fft.c         **** 	free(ximag);
 214:fft.c         **** 	return status;
 215:fft.c         **** }
 216:fft.c         **** 
 217:fft.c         **** 
 218:fft.c         **** bool convolve_complex(const float xreal[], const float ximag[], const float yreal[], const float yi
 219:fft.c         **** 	bool status = false;
 220:fft.c         **** 	size_t size;
 221:fft.c         **** 	size_t i;
 222:fft.c         **** 	float *xr, *xi, *yr, *yi;
 223:fft.c         **** 	if (FFT_SIZE_MAX / sizeof(float) < n)
 224:fft.c         **** 		return false;
 225:fft.c         **** 	size = n * sizeof(float);
 226:fft.c         **** 	xr = memdup(xreal, size);
 227:fft.c         **** 	xi = memdup(ximag, size);
 228:fft.c         **** 	yr = memdup(yreal, size);
 229:fft.c         **** 	yi = memdup(yimag, size);
 230:fft.c         **** 	if (xr == NULL || xi == NULL || yr == NULL || yi == NULL)
 231:fft.c         **** 		goto cleanup;
 232:fft.c         **** 	
 233:fft.c         **** 	if (!transform(xr, xi, cos_table, sin_table, n))
 234:fft.c         **** 		goto cleanup;
 235:fft.c         **** 	if (!transform(yr, yi, cos_table, sin_table, n))
 236:fft.c         **** 		goto cleanup;
 237:fft.c         **** 	for (i = 0; i < n; i++) {
 238:fft.c         **** 		float temp = xr[i] * yr[i] - xi[i] * yi[i];
 239:fft.c         **** 		xi[i] = xi[i] * yr[i] + xr[i] * yi[i];
 240:fft.c         **** 		xr[i] = temp;
 241:fft.c         **** 	}
 242:fft.c         **** 	if (!inverse_transform(xr, xi, cos_table, sin_table, n))
 243:fft.c         **** 		goto cleanup;
 244:fft.c         **** 	for (i = 0; i < n; i++) {  // Scaling (because this FFT implementation omits it)
 245:fft.c         **** 		outreal[i] = xr[i] / n;
 246:fft.c         **** 		outimag[i] = xi[i] / n;
 247:fft.c         **** 	}
 248:fft.c         **** 	status = true;
 249:fft.c         **** 	
 250:fft.c         **** cleanup:
 251:fft.c         **** 	free(yi);
 252:fft.c         **** 	free(yr);
 253:fft.c         **** 	free(xi);
 254:fft.c         **** 	free(xr);
 255:fft.c         **** 	return status;
 256:fft.c         **** }
 257:fft.c         **** 
 258:fft.c         **** static size_t reverse_bits(size_t x, unsigned int n) {
 259:fft.c         **** 	size_t result = 0;
 260:fft.c         **** 	unsigned int i;
ARM GAS  C:\Users\jmdevoto\AppData\Local\Temp\ccWaR5hZ.s 			page 6


 261:fft.c         **** 	for (i = 0; i < n; i++, x >>= 1)
 262:fft.c         **** 		result = (result << 1) | (x & 1);
 263:fft.c         **** 	return result;
 264:fft.c         **** }
 265:fft.c         **** 
 266:fft.c         **** static void *memdup(const void *src, size_t n) {
  26              		.loc 1 266 0
  27              		.cfi_startproc
  28              		@ args = 0, pretend = 0, frame = 0
  29              		@ frame_needed = 0, uses_anonymous_args = 0
  30              	.LVL0:
  31 0000 70B5     		push	{r4, r5, r6, lr}
  32              		.cfi_def_cfa_offset 16
  33              		.cfi_offset 4, -16
  34              		.cfi_offset 5, -12
  35              		.cfi_offset 6, -8
  36              		.cfi_offset 14, -4
  37              		.loc 1 266 0
  38 0002 0646     		mov	r6, r0
 267:fft.c         **** 	void *dest = malloc(n);
  39              		.loc 1 267 0
  40 0004 0846     		mov	r0, r1
  41              	.LVL1:
 266:fft.c         **** 	void *dest = malloc(n);
  42              		.loc 1 266 0
  43 0006 0C46     		mov	r4, r1
  44              		.loc 1 267 0
  45 0008 FFF7FEFF 		bl	malloc
  46              	.LVL2:
 268:fft.c         **** 	if (dest != NULL)
  47              		.loc 1 268 0
  48 000c 0546     		mov	r5, r0
  49 000e 18B1     		cbz	r0, .L2
 269:fft.c         **** 		memcpy(dest, src, n);
  50              		.loc 1 269 0
  51 0010 3146     		mov	r1, r6
  52 0012 2246     		mov	r2, r4
  53 0014 FFF7FEFF 		bl	memcpy
  54              	.LVL3:
  55              	.L2:
 270:fft.c         **** 	return dest;
 271:fft.c         **** }
  56              		.loc 1 271 0
  57 0018 2846     		mov	r0, r5
  58 001a 70BD     		pop	{r4, r5, r6, pc}
  59              		.cfi_endproc
  60              	.LFE8:
  61              		.size	memdup, .-memdup
  62              		.global	__aeabi_ui2d
  63              		.global	__aeabi_i2d
  64              		.global	__aeabi_dmul
  65              		.global	__aeabi_ddiv
  66              		.global	__aeabi_d2f
  67              		.section	.text.fft_init,"ax",%progbits
  68              		.align	2
  69              		.global	fft_init
  70              		.thumb
ARM GAS  C:\Users\jmdevoto\AppData\Local\Temp\ccWaR5hZ.s 			page 7


  71              		.thumb_func
  72              		.type	fft_init, %function
  73              	fft_init:
  74              	.LFB0:
  36:fft.c         **** 	// Trigonometric tables
  75              		.loc 1 36 0
  76              		.cfi_startproc
  77              		@ args = 0, pretend = 0, frame = 0
  78              		@ frame_needed = 0, uses_anonymous_args = 0
  79              	.LVL4:
  38:fft.c         **** 		return false;
  80              		.loc 1 38 0
  81 0000 002A     		cmp	r2, #0
  82 0002 31DB     		blt	.L13
  83              	.LVL5:
  36:fft.c         **** 	// Trigonometric tables
  84              		.loc 1 36 0 discriminator 1
  85 0004 2DE9F84F 		push	{r3, r4, r5, r6, r7, r8, r9, r10, fp, lr}
  86              		.cfi_def_cfa_offset 40
  87              		.cfi_offset 3, -40
  88              		.cfi_offset 4, -36
  89              		.cfi_offset 5, -32
  90              		.cfi_offset 6, -28
  91              		.cfi_offset 7, -24
  92              		.cfi_offset 8, -20
  93              		.cfi_offset 9, -16
  94              		.cfi_offset 10, -12
  95              		.cfi_offset 11, -8
  96              		.cfi_offset 14, -4
  41:fft.c         **** 		cos_table[i] = cos(2 * M_PI * i / n);
  97              		.loc 1 41 0 discriminator 1
  98 0008 5FEA520A 		lsrs	r10, r2, #1
  99 000c 29D0     		beq	.L12
 100 000e 8346     		mov	fp, r0
 101 0010 1046     		mov	r0, r2
 102              	.LVL6:
 103 0012 0D46     		mov	r5, r1
 104 0014 FFF7FEFF 		bl	__aeabi_ui2d
 105              	.LVL7:
 106 0018 0646     		mov	r6, r0
 107 001a 0F46     		mov	r7, r1
 108 001c ABF1040B 		sub	fp, fp, #4
 109              	.LVL8:
 110 0020 043D     		subs	r5, r5, #4
 111              	.LVL9:
  41:fft.c         **** 		cos_table[i] = cos(2 * M_PI * i / n);
 112              		.loc 1 41 0 is_stmt 0
 113 0022 0024     		movs	r4, #0
 114              	.LVL10:
 115              	.L11:
  42:fft.c         **** 		sin_table[i] = sin(2 * M_PI * i / n);
 116              		.loc 1 42 0 is_stmt 1 discriminator 3
 117 0024 2046     		mov	r0, r4
 118 0026 FFF7FEFF 		bl	__aeabi_i2d
 119              	.LVL11:
 120 002a 11A3     		adr	r3, .L17
 121 002c D3E90023 		ldrd	r2, [r3]
ARM GAS  C:\Users\jmdevoto\AppData\Local\Temp\ccWaR5hZ.s 			page 8


 122 0030 FFF7FEFF 		bl	__aeabi_dmul
 123              	.LVL12:
 124 0034 3246     		mov	r2, r6
 125 0036 3B46     		mov	r3, r7
 126 0038 FFF7FEFF 		bl	__aeabi_ddiv
 127              	.LVL13:
 128 003c 8046     		mov	r8, r0
 129 003e 8946     		mov	r9, r1
 130 0040 FFF7FEFF 		bl	cos
 131              	.LVL14:
 132 0044 FFF7FEFF 		bl	__aeabi_d2f
 133              	.LVL15:
  43:fft.c         **** 	}
 134              		.loc 1 43 0 discriminator 3
 135 0048 4946     		mov	r1, r9
  42:fft.c         **** 		sin_table[i] = sin(2 * M_PI * i / n);
 136              		.loc 1 42 0 discriminator 3
 137 004a 4BF8040F 		str	r0, [fp, #4]!	@ float
  43:fft.c         **** 	}
 138              		.loc 1 43 0 discriminator 3
 139 004e 4046     		mov	r0, r8
 140 0050 FFF7FEFF 		bl	sin
 141              	.LVL16:
 142 0054 FFF7FEFF 		bl	__aeabi_d2f
 143              	.LVL17:
  41:fft.c         **** 		cos_table[i] = cos(2 * M_PI * i / n);
 144              		.loc 1 41 0 discriminator 3
 145 0058 0134     		adds	r4, r4, #1
 146              	.LVL18:
 147 005a 5445     		cmp	r4, r10
  43:fft.c         **** 	}
 148              		.loc 1 43 0 discriminator 3
 149 005c 45F8040F 		str	r0, [r5, #4]!	@ float
  41:fft.c         **** 		cos_table[i] = cos(2 * M_PI * i / n);
 150              		.loc 1 41 0 discriminator 3
 151 0060 E0D1     		bne	.L11
 152              	.LVL19:
 153              	.L12:
  46:fft.c         **** }
 154              		.loc 1 46 0
 155 0062 0120     		movs	r0, #1
 156 0064 BDE8F88F 		pop	{r3, r4, r5, r6, r7, r8, r9, r10, fp, pc}
 157              	.LVL20:
 158              	.L13:
 159              		.cfi_def_cfa_offset 0
 160              		.cfi_restore 3
 161              		.cfi_restore 4
 162              		.cfi_restore 5
 163              		.cfi_restore 6
 164              		.cfi_restore 7
 165              		.cfi_restore 8
 166              		.cfi_restore 9
 167              		.cfi_restore 10
 168              		.cfi_restore 11
 169              		.cfi_restore 14
  39:fft.c         **** 	int i;
 170              		.loc 1 39 0
ARM GAS  C:\Users\jmdevoto\AppData\Local\Temp\ccWaR5hZ.s 			page 9


 171 0068 0020     		movs	r0, #0
 172              	.LVL21:
 173 006a 7047     		bx	lr
 174              	.L18:
 175 006c AFF30080 		.align	3
 176              	.L17:
 177 0070 182D4454 		.word	1413754136
 178 0074 FB211940 		.word	1075388923
 179              		.cfi_endproc
 180              	.LFE0:
 181              		.size	fft_init, .-fft_init
 182              		.global	__aeabi_fmul
 183              		.global	__aeabi_fadd
 184              		.global	__aeabi_fsub
 185              		.section	.text.transform_radix2,"ax",%progbits
 186              		.align	2
 187              		.global	transform_radix2
 188              		.thumb
 189              		.thumb_func
 190              		.type	transform_radix2, %function
 191              	transform_radix2:
 192              	.LFB3:
  68:fft.c         **** 	// Variables
 193              		.loc 1 68 0
 194              		.cfi_startproc
 195              		@ args = 4, pretend = 0, frame = 64
 196              		@ frame_needed = 0, uses_anonymous_args = 0
 197              	.LVL22:
 198 0000 2DE9F04F 		push	{r4, r5, r6, r7, r8, r9, r10, fp, lr}
 199              		.cfi_def_cfa_offset 36
 200              		.cfi_offset 4, -36
 201              		.cfi_offset 5, -32
 202              		.cfi_offset 6, -28
 203              		.cfi_offset 7, -24
 204              		.cfi_offset 8, -20
 205              		.cfi_offset 9, -16
 206              		.cfi_offset 10, -12
 207              		.cfi_offset 11, -8
 208              		.cfi_offset 14, -4
 209 0004 91B0     		sub	sp, sp, #68
 210              		.cfi_def_cfa_offset 104
  68:fft.c         **** 	// Variables
 211              		.loc 1 68 0
 212 0006 1A9D     		ldr	r5, [sp, #104]
 213              	.LVL23:
 214 0008 9946     		mov	r9, r3
 215              	.LBB18:
  79:fft.c         **** 			levels++;
 216              		.loc 1 79 0
 217 000a 012D     		cmp	r5, #1
 218 000c 0ED9     		bls	.L20
 219 000e 2C46     		mov	r4, r5
 220 0010 0023     		movs	r3, #0
 221              	.LVL24:
 222              	.L21:
  81:fft.c         **** 		}
 223              		.loc 1 81 0
ARM GAS  C:\Users\jmdevoto\AppData\Local\Temp\ccWaR5hZ.s 			page 10


 224 0012 6408     		lsrs	r4, r4, #1
 225              	.LVL25:
  79:fft.c         **** 			levels++;
 226              		.loc 1 79 0
 227 0014 012C     		cmp	r4, #1
  80:fft.c         **** 			temp >>= 1;
 228              		.loc 1 80 0
 229 0016 03F10103 		add	r3, r3, #1
 230              	.LVL26:
  79:fft.c         **** 			levels++;
 231              		.loc 1 79 0
 232 001a FAD1     		bne	.L21
  83:fft.c         **** 			return false;  // n is not a power of 2
 233              		.loc 1 83 0
 234 001c 9C40     		lsls	r4, r4, r3
 235              	.LVL27:
 236 001e AC42     		cmp	r4, r5
 237 0020 0A94     		str	r4, [sp, #40]
 238 0022 06D0     		beq	.L23
 239              	.LVL28:
 240              	.L36:
  84:fft.c         **** 	}
 241              		.loc 1 84 0
 242 0024 0020     		movs	r0, #0
 243              	.LVL29:
 244              	.LBE18:
 122:fft.c         **** 
 245              		.loc 1 122 0
 246 0026 11B0     		add	sp, sp, #68
 247              		.cfi_remember_state
 248              		.cfi_def_cfa_offset 36
 249              		@ sp needed
 250 0028 BDE8F08F 		pop	{r4, r5, r6, r7, r8, r9, r10, fp, pc}
 251              	.LVL30:
 252              	.L20:
 253              		.cfi_restore_state
 254              	.LBB19:
  83:fft.c         **** 			return false;  // n is not a power of 2
 255              		.loc 1 83 0
 256 002c FAD1     		bne	.L36
 257 002e 0A95     		str	r5, [sp, #40]
  78:fft.c         **** 		while (temp > 1) {
 258              		.loc 1 78 0
 259 0030 0023     		movs	r3, #0
 260              	.LVL31:
 261              	.L23:
 262 0032 8046     		mov	r8, r0
 263 0034 8C46     		mov	ip, r1
  83:fft.c         **** 			return false;  // n is not a power of 2
 264              		.loc 1 83 0
 265 0036 DDF828A0 		ldr	r10, [sp, #40]
 266 003a 4FF0000E 		mov	lr, #0
 267              	.LVL32:
 268              	.L26:
 269              	.LBE19:
 270              	.LBB20:
 271              	.LBB21:
ARM GAS  C:\Users\jmdevoto\AppData\Local\Temp\ccWaR5hZ.s 			page 11


 272              	.LBB22:
 261:fft.c         **** 		result = (result << 1) | (x & 1);
 273              		.loc 1 261 0
 274 003e EBB1     		cbz	r3, .L25
 275 0040 0024     		movs	r4, #0
 276 0042 2646     		mov	r6, r4
 277 0044 7546     		mov	r5, lr
 278              	.LVL33:
 279              	.L24:
 280 0046 0134     		adds	r4, r4, #1
 281              	.LVL34:
 262:fft.c         **** 	return result;
 282              		.loc 1 262 0
 283 0048 05F00107 		and	r7, r5, #1
 261:fft.c         **** 		result = (result << 1) | (x & 1);
 284              		.loc 1 261 0
 285 004c 9C42     		cmp	r4, r3
 262:fft.c         **** 	return result;
 286              		.loc 1 262 0
 287 004e 47EA4606 		orr	r6, r7, r6, lsl #1
 288              	.LVL35:
 261:fft.c         **** 		result = (result << 1) | (x & 1);
 289              		.loc 1 261 0
 290 0052 4FEA5505 		lsr	r5, r5, #1
 291              	.LVL36:
 292 0056 F6D1     		bne	.L24
 293              	.LBE22:
 294              	.LBE21:
  90:fft.c         **** 			float temp = real[i];
 295              		.loc 1 90 0
 296 0058 B645     		cmp	lr, r6
 297 005a 0FD2     		bcs	.L25
 298              	.LBB23:
  91:fft.c         **** 			real[i] = real[j];
 299              		.loc 1 91 0
 300 005c D8F80040 		ldr	r4, [r8]	@ float
 301              	.LVL37:
  92:fft.c         **** 			real[j] = temp;
 302              		.loc 1 92 0
 303 0060 50F82650 		ldr	r5, [r0, r6, lsl #2]	@ float
 304              	.LVL38:
 305 0064 C8F80050 		str	r5, [r8]	@ float
  93:fft.c         **** 			temp = imag[i];
 306              		.loc 1 93 0
 307 0068 40F82640 		str	r4, [r0, r6, lsl #2]	@ float
  94:fft.c         **** 			imag[i] = imag[j];
 308              		.loc 1 94 0
 309 006c DCF80040 		ldr	r4, [ip]	@ float
 310              	.LVL39:
  95:fft.c         **** 			imag[j] = temp;
 311              		.loc 1 95 0
 312 0070 51F82650 		ldr	r5, [r1, r6, lsl #2]	@ float
 313 0074 CCF80050 		str	r5, [ip]	@ float
  96:fft.c         **** 		}
 314              		.loc 1 96 0
 315 0078 41F82640 		str	r4, [r1, r6, lsl #2]	@ float
 316              	.LVL40:
ARM GAS  C:\Users\jmdevoto\AppData\Local\Temp\ccWaR5hZ.s 			page 12


 317              	.L25:
 318              	.LBE23:
 319              	.LBE20:
  88:fft.c         **** 		size_t j = reverse_bits(i, levels);
 320              		.loc 1 88 0 discriminator 2
 321 007c 0EF1010E 		add	lr, lr, #1
 322              	.LVL41:
 323 0080 F245     		cmp	r10, lr
 324 0082 08F10408 		add	r8, r8, #4
 325 0086 0CF1040C 		add	ip, ip, #4
 326 008a D8D8     		bhi	.L26
 327              	.LVL42:
 101:fft.c         **** 		size_t halfsize = size / 2;
 328              		.loc 1 101 0 discriminator 1
 329 008c 0A9B     		ldr	r3, [sp, #40]
 330 008e 012B     		cmp	r3, #1
 331 0090 00F08B80 		beq	.L28
 101:fft.c         **** 		size_t halfsize = size / 2;
 332              		.loc 1 101 0 is_stmt 0
 333 0094 0223     		movs	r3, #2
 334 0096 CDF81890 		str	r9, [sp, #24]
 335 009a 0592     		str	r2, [sp, #20]
 336 009c 0F91     		str	r1, [sp, #60]
 337 009e 0E90     		str	r0, [sp, #56]
 338 00a0 0993     		str	r3, [sp, #36]
 339              	.LVL43:
 340              	.L27:
 341              	.LBB24:
 102:fft.c         **** 		size_t tablestep = n / size;
 342              		.loc 1 102 0 is_stmt 1
 343 00a2 099B     		ldr	r3, [sp, #36]
 103:fft.c         **** 		for (i = 0; i < n; i += size) {
 344              		.loc 1 103 0
 345 00a4 0021     		movs	r1, #0
 102:fft.c         **** 		size_t tablestep = n / size;
 346              		.loc 1 102 0
 347 00a6 5A08     		lsrs	r2, r3, #1
 348 00a8 0B92     		str	r2, [sp, #44]
 349              	.LVL44:
 350 00aa 9200     		lsls	r2, r2, #2
 351              	.LVL45:
 352 00ac 0D92     		str	r2, [sp, #52]
 103:fft.c         **** 		for (i = 0; i < n; i += size) {
 353              		.loc 1 103 0
 354 00ae 0A9A     		ldr	r2, [sp, #40]
 355 00b0 0891     		str	r1, [sp, #32]
 356 00b2 0791     		str	r1, [sp, #28]
 357 00b4 1146     		mov	r1, r2
 358 00b6 B1FBF3F2 		udiv	r2, r1, r3
 359 00ba 9B00     		lsls	r3, r3, #2
 360 00bc 0492     		str	r2, [sp, #16]
 361              	.LVL46:
 362 00be 0C93     		str	r3, [sp, #48]
 363              	.LVL47:
 364              	.L30:
 365 00c0 079B     		ldr	r3, [sp, #28]
 366 00c2 0B9A     		ldr	r2, [sp, #44]
ARM GAS  C:\Users\jmdevoto\AppData\Local\Temp\ccWaR5hZ.s 			page 13


 367 00c4 9A18     		adds	r2, r3, r2
 368 00c6 1046     		mov	r0, r2
 369              	.LBB25:
 107:fft.c         **** 				float tpre =  real[j+halfsize] * cos_table[k] + imag[j+halfsize] * sin_table[k];
 370              		.loc 1 107 0 discriminator 1
 371 00c8 8342     		cmp	r3, r0
 372 00ca 0392     		str	r2, [sp, #12]
 373 00cc 1A46     		mov	r2, r3
 374 00ce 58D2     		bcs	.L33
 375 00d0 089B     		ldr	r3, [sp, #32]
 376 00d2 0D99     		ldr	r1, [sp, #52]
 377 00d4 0E98     		ldr	r0, [sp, #56]
 378 00d6 0F9C     		ldr	r4, [sp, #60]
 379 00d8 5F18     		adds	r7, r3, r1
 380 00da 00EB0708 		add	r8, r0, r7
 381 00de C618     		adds	r6, r0, r3
 382 00e0 E518     		adds	r5, r4, r3
 383 00e2 2744     		add	r7, r7, r4
 107:fft.c         **** 				float tpre =  real[j+halfsize] * cos_table[k] + imag[j+halfsize] * sin_table[k];
 384              		.loc 1 107 0 is_stmt 0
 385 00e4 0023     		movs	r3, #0
 386              	.LVL48:
 387              	.L31:
 388 00e6 0292     		str	r2, [sp, #8]
 389              	.LVL49:
 390              	.LBB26:
 108:fft.c         **** 				float tpim = -real[j+halfsize] * sin_table[k] + imag[j+halfsize] * cos_table[k];
 391              		.loc 1 108 0 is_stmt 1 discriminator 3
 392 00e8 059A     		ldr	r2, [sp, #20]
 393 00ea D8F80040 		ldr	r4, [r8]	@ float
 394 00ee 52F823C0 		ldr	ip, [r2, r3, lsl #2]	@ float
 395 00f2 069A     		ldr	r2, [sp, #24]
 396 00f4 6146     		mov	r1, ip
 397 00f6 2046     		mov	r0, r4
 398 00f8 52F823B0 		ldr	fp, [r2, r3, lsl #2]	@ float
 399 00fc 0093     		str	r3, [sp]
 400 00fe CDF804C0 		str	ip, [sp, #4]
 401 0102 FFF7FEFF 		bl	__aeabi_fmul
 402              	.LVL50:
 403 0106 D7F800A0 		ldr	r10, [r7]	@ float
 404 010a 8146     		mov	r9, r0
 405 010c 5946     		mov	r1, fp
 406 010e 5046     		mov	r0, r10
 407 0110 FFF7FEFF 		bl	__aeabi_fmul
 408              	.LVL51:
 409 0114 0146     		mov	r1, r0
 410 0116 4846     		mov	r0, r9
 411 0118 FFF7FEFF 		bl	__aeabi_fadd
 412              	.LVL52:
 109:fft.c         **** 				real[j + halfsize] = real[j] - tpre;
 413              		.loc 1 109 0 discriminator 3
 414 011c 04F10041 		add	r1, r4, #-2147483648
 108:fft.c         **** 				float tpim = -real[j+halfsize] * sin_table[k] + imag[j+halfsize] * cos_table[k];
 415              		.loc 1 108 0 discriminator 3
 416 0120 8146     		mov	r9, r0
 417              	.LVL53:
 109:fft.c         **** 				real[j + halfsize] = real[j] - tpre;
ARM GAS  C:\Users\jmdevoto\AppData\Local\Temp\ccWaR5hZ.s 			page 14


 418              		.loc 1 109 0 discriminator 3
 419 0122 5846     		mov	r0, fp
 420              	.LVL54:
 421 0124 FFF7FEFF 		bl	__aeabi_fmul
 422              	.LVL55:
 423 0128 DDF804C0 		ldr	ip, [sp, #4]
 424 012c 0446     		mov	r4, r0
 425 012e 5146     		mov	r1, r10
 426 0130 6046     		mov	r0, ip
 427 0132 FFF7FEFF 		bl	__aeabi_fmul
 428              	.LVL56:
 429 0136 0146     		mov	r1, r0
 430 0138 2046     		mov	r0, r4
 431 013a FFF7FEFF 		bl	__aeabi_fadd
 432              	.LVL57:
 110:fft.c         **** 				imag[j + halfsize] = imag[j] - tpim;
 433              		.loc 1 110 0 discriminator 3
 434 013e 4946     		mov	r1, r9
 109:fft.c         **** 				real[j + halfsize] = real[j] - tpre;
 435              		.loc 1 109 0 discriminator 3
 436 0140 0446     		mov	r4, r0
 437              	.LVL58:
 110:fft.c         **** 				imag[j + halfsize] = imag[j] - tpim;
 438              		.loc 1 110 0 discriminator 3
 439 0142 3068     		ldr	r0, [r6]	@ float
 440              	.LVL59:
 441 0144 FFF7FEFF 		bl	__aeabi_fsub
 442              	.LVL60:
 443 0148 48F8040B 		str	r0, [r8], #4	@ float
 111:fft.c         **** 				real[j] += tpre;
 444              		.loc 1 111 0 discriminator 3
 445 014c 2868     		ldr	r0, [r5]	@ float
 446 014e 2146     		mov	r1, r4
 447 0150 FFF7FEFF 		bl	__aeabi_fsub
 448              	.LVL61:
 449 0154 47F8040B 		str	r0, [r7], #4	@ float
 112:fft.c         **** 				imag[j] += tpim;
 450              		.loc 1 112 0 discriminator 3
 451 0158 3068     		ldr	r0, [r6]	@ float
 452 015a 4946     		mov	r1, r9
 453 015c FFF7FEFF 		bl	__aeabi_fadd
 454              	.LVL62:
 455 0160 46F8040B 		str	r0, [r6], #4	@ float
 113:fft.c         **** 			}
 456              		.loc 1 113 0 discriminator 3
 457 0164 2146     		mov	r1, r4
 458 0166 2868     		ldr	r0, [r5]	@ float
 459 0168 FFF7FEFF 		bl	__aeabi_fadd
 460              	.LVL63:
 461              	.LBE26:
 107:fft.c         **** 				float tpre =  real[j+halfsize] * cos_table[k] + imag[j+halfsize] * sin_table[k];
 462              		.loc 1 107 0 discriminator 3
 463 016c 049B     		ldr	r3, [sp, #16]
 464 016e 029A     		ldr	r2, [sp, #8]
 465 0170 1946     		mov	r1, r3
 466 0172 009B     		ldr	r3, [sp]
 467 0174 0132     		adds	r2, r2, #1
ARM GAS  C:\Users\jmdevoto\AppData\Local\Temp\ccWaR5hZ.s 			page 15


 468              	.LVL64:
 469 0176 0B44     		add	r3, r3, r1
 470              	.LVL65:
 471 0178 0399     		ldr	r1, [sp, #12]
 472              	.LBB27:
 113:fft.c         **** 			}
 473              		.loc 1 113 0 discriminator 3
 474 017a 45F8040B 		str	r0, [r5], #4	@ float
 475              	.LBE27:
 107:fft.c         **** 				float tpre =  real[j+halfsize] * cos_table[k] + imag[j+halfsize] * sin_table[k];
 476              		.loc 1 107 0 discriminator 3
 477 017e 9142     		cmp	r1, r2
 478 0180 B1D1     		bne	.L31
 479              	.LVL66:
 480              	.L33:
 481              	.LBE25:
 104:fft.c         **** 			size_t j;
 482              		.loc 1 104 0
 483 0182 079B     		ldr	r3, [sp, #28]
 484 0184 099A     		ldr	r2, [sp, #36]
 485              	.LVL67:
 486 0186 0C99     		ldr	r1, [sp, #48]
 487 0188 1344     		add	r3, r3, r2
 488 018a 089A     		ldr	r2, [sp, #32]
 489 018c 0793     		str	r3, [sp, #28]
 490              	.LVL68:
 491 018e 0A44     		add	r2, r2, r1
 492 0190 0892     		str	r2, [sp, #32]
 493 0192 0A9A     		ldr	r2, [sp, #40]
 494 0194 9A42     		cmp	r2, r3
 495 0196 93D8     		bhi	.L30
 116:fft.c         **** 			break;
 496              		.loc 1 116 0
 497 0198 0A99     		ldr	r1, [sp, #40]
 498 019a 099A     		ldr	r2, [sp, #36]
 499 019c 9142     		cmp	r1, r2
 500 019e 04D0     		beq	.L28
 501              	.LBE24:
 101:fft.c         **** 		size_t halfsize = size / 2;
 502              		.loc 1 101 0 discriminator 2
 503 01a0 5300     		lsls	r3, r2, #1
 504              	.LVL69:
 505 01a2 9942     		cmp	r1, r3
 506 01a4 0993     		str	r3, [sp, #36]
 507              	.LVL70:
 508 01a6 BFF47CAF 		bcs	.L27
 509              	.LVL71:
 510              	.L28:
 121:fft.c         **** }
 511              		.loc 1 121 0
 512 01aa 0120     		movs	r0, #1
 122:fft.c         **** 
 513              		.loc 1 122 0
 514 01ac 11B0     		add	sp, sp, #68
 515              		.cfi_def_cfa_offset 36
 516              		@ sp needed
 517 01ae BDE8F08F 		pop	{r4, r5, r6, r7, r8, r9, r10, fp, pc}
ARM GAS  C:\Users\jmdevoto\AppData\Local\Temp\ccWaR5hZ.s 			page 16


 518              		.cfi_endproc
 519              	.LFE3:
 520              		.size	transform_radix2, .-transform_radix2
 521 01b2 00BF     		.section	.text.transform_bluestein,"ax",%progbits
 522              		.align	2
 523              		.global	transform_bluestein
 524              		.thumb
 525              		.thumb_func
 526              		.type	transform_bluestein, %function
 527              	transform_bluestein:
 528              	.LFB4:
 125:fft.c         **** 	// Variables
 529              		.loc 1 125 0
 530              		.cfi_startproc
 531              		@ args = 4, pretend = 0, frame = 64
 532              		@ frame_needed = 0, uses_anonymous_args = 0
 533              	.LVL72:
 534 0000 2DE9F04F 		push	{r4, r5, r6, r7, r8, r9, r10, fp, lr}
 535              		.cfi_def_cfa_offset 36
 536              		.cfi_offset 4, -36
 537              		.cfi_offset 5, -32
 538              		.cfi_offset 6, -28
 539              		.cfi_offset 7, -24
 540              		.cfi_offset 8, -20
 541              		.cfi_offset 9, -16
 542              		.cfi_offset 10, -12
 543              		.cfi_offset 11, -8
 544              		.cfi_offset 14, -4
 545 0004 97B0     		sub	sp, sp, #92
 546              		.cfi_def_cfa_offset 128
 125:fft.c         **** 	// Variables
 547              		.loc 1 125 0
 548 0006 209D     		ldr	r5, [sp, #128]
 549              	.LBB28:
 138:fft.c         **** 			return false;
 550              		.loc 1 138 0
 551 0008 002D     		cmp	r5, #0
 552 000a 15DB     		blt	.L66
 140:fft.c         **** 		for (m = 1; m < target; m *= 2) {
 553              		.loc 1 140 0
 554 000c 6C00     		lsls	r4, r5, #1
 555              	.LVL73:
 141:fft.c         **** 			if (FFT_SIZE_MAX / 2 < m)
 556              		.loc 1 141 0
 557 000e 04F1010C 		add	ip, r4, #1
 558              	.LVL74:
 559 0012 002C     		cmp	r4, #0
 560 0014 00F04E81 		beq	.L97
 561 0018 4FF01F0E 		mov	lr, #31
 562 001c 0124     		movs	r4, #1
 563 001e 02E0     		b	.L46
 564              	.LVL75:
 565              	.L48:
 142:fft.c         **** 				return false;
 566              		.loc 1 142 0
 567 0020 BEF1010E 		subs	lr, lr, #1
 568 0024 0CD0     		beq	.L98
ARM GAS  C:\Users\jmdevoto\AppData\Local\Temp\ccWaR5hZ.s 			page 17


 569              	.LVL76:
 570              	.L46:
 141:fft.c         **** 			if (FFT_SIZE_MAX / 2 < m)
 571              		.loc 1 141 0 discriminator 2
 572 0026 6400     		lsls	r4, r4, #1
 573              	.LVL77:
 574 0028 A445     		cmp	ip, r4
 575 002a F9D8     		bhi	.L48
 576              	.LBE28:
 148:fft.c         **** 		return false;
 577              		.loc 1 148 0
 578 002c B5F1804F 		cmp	r5, #1073741824
 579 0030 02D2     		bcs	.L66
 148:fft.c         **** 		return false;
 580              		.loc 1 148 0 is_stmt 0 discriminator 1
 581 0032 B4F1804F 		cmp	r4, #1073741824
 582 0036 07D3     		bcc	.L99
 583              	.LVL78:
 584              	.L66:
 585              	.LBB29:
 139:fft.c         **** 		target = n * 2 + 1;
 586              		.loc 1 139 0 is_stmt 1
 587 0038 0020     		movs	r0, #0
 588              	.LVL79:
 589              	.LBE29:
 198:fft.c         **** 
 590              		.loc 1 198 0
 591 003a 17B0     		add	sp, sp, #92
 592              		.cfi_remember_state
 593              		.cfi_def_cfa_offset 36
 594              		@ sp needed
 595 003c BDE8F08F 		pop	{r4, r5, r6, r7, r8, r9, r10, fp, pc}
 596              	.LVL80:
 597              	.L98:
 598              		.cfi_restore_state
 599              	.LBB30:
 139:fft.c         **** 		target = n * 2 + 1;
 600              		.loc 1 139 0
 601 0040 7046     		mov	r0, lr
 602              	.LVL81:
 603              	.LBE30:
 198:fft.c         **** 
 604              		.loc 1 198 0
 605 0042 17B0     		add	sp, sp, #92
 606              		.cfi_remember_state
 607              		.cfi_def_cfa_offset 36
 608              		@ sp needed
 609 0044 BDE8F08F 		pop	{r4, r5, r6, r7, r8, r9, r10, fp, pc}
 610              	.LVL82:
 611              	.L99:
 612              		.cfi_restore_state
 613 0048 4FEA8408 		lsl	r8, r4, #2
 614              	.LVL83:
 615              	.L60:
 616 004c 0F46     		mov	r7, r1
 617 004e 0646     		mov	r6, r0
 152:fft.c         **** 	aimag = calloc(m, sizeof(float));
ARM GAS  C:\Users\jmdevoto\AppData\Local\Temp\ccWaR5hZ.s 			page 18


 618              		.loc 1 152 0
 619 0050 0421     		movs	r1, #4
 620              	.LVL84:
 621 0052 2046     		mov	r0, r4
 622              	.LVL85:
 623 0054 0B93     		str	r3, [sp, #44]
 624 0056 9146     		mov	r9, r2
 625 0058 0F92     		str	r2, [sp, #60]
 626 005a FFF7FEFF 		bl	calloc
 627              	.LVL86:
 153:fft.c         **** 	breal = calloc(m, sizeof(float));
 628              		.loc 1 153 0
 629 005e 0421     		movs	r1, #4
 152:fft.c         **** 	aimag = calloc(m, sizeof(float));
 630              		.loc 1 152 0
 631 0060 0E90     		str	r0, [sp, #56]
 632              	.LVL87:
 153:fft.c         **** 	breal = calloc(m, sizeof(float));
 633              		.loc 1 153 0
 634 0062 2046     		mov	r0, r4
 635              	.LVL88:
 636 0064 FFF7FEFF 		bl	calloc
 637              	.LVL89:
 154:fft.c         **** 	bimag = calloc(m, sizeof(float));
 638              		.loc 1 154 0
 639 0068 0421     		movs	r1, #4
 153:fft.c         **** 	breal = calloc(m, sizeof(float));
 640              		.loc 1 153 0
 641 006a 1090     		str	r0, [sp, #64]
 642              	.LVL90:
 154:fft.c         **** 	bimag = calloc(m, sizeof(float));
 643              		.loc 1 154 0
 644 006c 2046     		mov	r0, r4
 645              	.LVL91:
 646 006e FFF7FEFF 		bl	calloc
 647              	.LVL92:
 155:fft.c         **** 	creal = malloc(size_m);
 648              		.loc 1 155 0
 649 0072 0421     		movs	r1, #4
 154:fft.c         **** 	bimag = calloc(m, sizeof(float));
 650              		.loc 1 154 0
 651 0074 0C90     		str	r0, [sp, #48]
 652              	.LVL93:
 155:fft.c         **** 	creal = malloc(size_m);
 653              		.loc 1 155 0
 654 0076 2046     		mov	r0, r4
 655              	.LVL94:
 656 0078 FFF7FEFF 		bl	calloc
 657              	.LVL95:
 658 007c 0D90     		str	r0, [sp, #52]
 659              	.LVL96:
 156:fft.c         **** 	cimag = malloc(size_m);
 660              		.loc 1 156 0
 661 007e 4046     		mov	r0, r8
 662              	.LVL97:
 663 0080 FFF7FEFF 		bl	malloc
 664              	.LVL98:
ARM GAS  C:\Users\jmdevoto\AppData\Local\Temp\ccWaR5hZ.s 			page 19


 665 0084 1190     		str	r0, [sp, #68]
 666              	.LVL99:
 157:fft.c         **** 	if (cos_table == NULL || sin_table == NULL
 667              		.loc 1 157 0
 668 0086 4046     		mov	r0, r8
 669              	.LVL100:
 670 0088 FFF7FEFF 		bl	malloc
 671              	.LVL101:
 158:fft.c         **** 			|| areal == NULL || aimag == NULL
 672              		.loc 1 158 0
 673 008c 4B46     		mov	r3, r9
 157:fft.c         **** 	if (cos_table == NULL || sin_table == NULL
 674              		.loc 1 157 0
 675 008e 1290     		str	r0, [sp, #72]
 676              	.LVL102:
 158:fft.c         **** 			|| areal == NULL || aimag == NULL
 677              		.loc 1 158 0
 678 0090 002B     		cmp	r3, #0
 679 0092 00F0F280 		beq	.L51
 680              	.LVL103:
 158:fft.c         **** 			|| areal == NULL || aimag == NULL
 681              		.loc 1 158 0 is_stmt 0 discriminator 1
 682 0096 0B9B     		ldr	r3, [sp, #44]
 683              	.LVL104:
 684 0098 002B     		cmp	r3, #0
 685 009a 00F0EE80 		beq	.L51
 159:fft.c         **** 			|| breal == NULL || bimag == NULL
 686              		.loc 1 159 0 is_stmt 1
 687 009e 0E99     		ldr	r1, [sp, #56]
 688 00a0 0029     		cmp	r1, #0
 689 00a2 00F0EA80 		beq	.L51
 159:fft.c         **** 			|| breal == NULL || bimag == NULL
 690              		.loc 1 159 0 is_stmt 0 discriminator 1
 691 00a6 1098     		ldr	r0, [sp, #64]
 692              	.LVL105:
 693 00a8 0028     		cmp	r0, #0
 694 00aa 00F0E680 		beq	.L51
 160:fft.c         **** 			|| creal == NULL || cimag == NULL)
 695              		.loc 1 160 0 is_stmt 1
 696 00ae 0C9A     		ldr	r2, [sp, #48]
 697 00b0 002A     		cmp	r2, #0
 698 00b2 00F0E280 		beq	.L51
 160:fft.c         **** 			|| creal == NULL || cimag == NULL)
 699              		.loc 1 160 0 is_stmt 0 discriminator 1
 700 00b6 0D9A     		ldr	r2, [sp, #52]
 701 00b8 002A     		cmp	r2, #0
 702 00ba 00F0DE80 		beq	.L51
 161:fft.c         **** 		goto cleanup;
 703              		.loc 1 161 0 is_stmt 1
 704 00be 119A     		ldr	r2, [sp, #68]
 705 00c0 002A     		cmp	r2, #0
 706 00c2 00F0DA80 		beq	.L51
 161:fft.c         **** 		goto cleanup;
 707              		.loc 1 161 0 is_stmt 0 discriminator 1
 708 00c6 129A     		ldr	r2, [sp, #72]
 709 00c8 002A     		cmp	r2, #0
 710 00ca 00F0D680 		beq	.L51
ARM GAS  C:\Users\jmdevoto\AppData\Local\Temp\ccWaR5hZ.s 			page 20


 711              	.LVL106:
 165:fft.c         **** 		areal[i] =  real[i] * cos_table[i] + imag[i] * sin_table[i];
 712              		.loc 1 165 0 is_stmt 1 discriminator 1
 713 00ce 002D     		cmp	r5, #0
 714 00d0 00F0BC80 		beq	.L52
 715 00d4 321F     		subs	r2, r6, #4
 716 00d6 A3F1040C 		sub	ip, r3, #4
 165:fft.c         **** 		areal[i] =  real[i] * cos_table[i] + imag[i] * sin_table[i];
 717              		.loc 1 165 0 is_stmt 0
 718 00da 2095     		str	r5, [sp, #128]
 719 00dc 9246     		mov	r10, r2
 720 00de 6546     		mov	r5, ip
 721              	.LVL107:
 722 00e0 3E1F     		subs	r6, r7, #4
 723              	.LVL108:
 724 00e2 1596     		str	r6, [sp, #84]
 725 00e4 0796     		str	r6, [sp, #28]
 726 00e6 0F9E     		ldr	r6, [sp, #60]
 727 00e8 1492     		str	r2, [sp, #80]
 728 00ea 043E     		subs	r6, r6, #4
 729 00ec 0896     		str	r6, [sp, #32]
 730 00ee A1F1040B 		sub	fp, r1, #4
 731 00f2 031F     		subs	r3, r0, #4
 732 00f4 0027     		movs	r7, #0
 733              	.LVL109:
 734 00f6 1394     		str	r4, [sp, #76]
 735              	.LVL110:
 736              	.L53:
 737 00f8 0A93     		str	r3, [sp, #40]
 166:fft.c         **** 		aimag[i] = -real[i] * sin_table[i] + imag[i] * cos_table[i];
 738              		.loc 1 166 0 is_stmt 1 discriminator 3
 739 00fa 089B     		ldr	r3, [sp, #32]
 740 00fc 5AF8044F 		ldr	r4, [r10, #4]!	@ float
 741 0100 53F8048F 		ldr	r8, [r3, #4]!	@ float
 742 0104 2046     		mov	r0, r4
 743 0106 0893     		str	r3, [sp, #32]
 744 0108 079B     		ldr	r3, [sp, #28]
 745 010a 4146     		mov	r1, r8
 746 010c 53F8046F 		ldr	r6, [r3, #4]!	@ float
 747 0110 55F8049F 		ldr	r9, [r5, #4]!	@ float
 748 0114 0793     		str	r3, [sp, #28]
 749 0116 FFF7FEFF 		bl	__aeabi_fmul
 750              	.LVL111:
 751 011a 4946     		mov	r1, r9
 752 011c 0990     		str	r0, [sp, #36]
 753 011e 3046     		mov	r0, r6
 754 0120 FFF7FEFF 		bl	__aeabi_fmul
 755              	.LVL112:
 756 0124 099A     		ldr	r2, [sp, #36]
 757 0126 0146     		mov	r1, r0
 758 0128 1046     		mov	r0, r2
 759 012a FFF7FEFF 		bl	__aeabi_fadd
 760              	.LVL113:
 167:fft.c         **** 	}
 761              		.loc 1 167 0 discriminator 3
 762 012e 04F10041 		add	r1, r4, #-2147483648
 166:fft.c         **** 		aimag[i] = -real[i] * sin_table[i] + imag[i] * cos_table[i];
ARM GAS  C:\Users\jmdevoto\AppData\Local\Temp\ccWaR5hZ.s 			page 21


 763              		.loc 1 166 0 discriminator 3
 764 0132 4BF8040F 		str	r0, [fp, #4]!	@ float
 167:fft.c         **** 	}
 765              		.loc 1 167 0 discriminator 3
 766 0136 4846     		mov	r0, r9
 767 0138 FFF7FEFF 		bl	__aeabi_fmul
 768              	.LVL114:
 769 013c 3146     		mov	r1, r6
 770 013e 0446     		mov	r4, r0
 771 0140 4046     		mov	r0, r8
 772 0142 FFF7FEFF 		bl	__aeabi_fmul
 773              	.LVL115:
 774 0146 0146     		mov	r1, r0
 775 0148 2046     		mov	r0, r4
 776 014a FFF7FEFF 		bl	__aeabi_fadd
 777              	.LVL116:
 165:fft.c         **** 		areal[i] =  real[i] * cos_table[i] + imag[i] * sin_table[i];
 778              		.loc 1 165 0 discriminator 3
 779 014e 209A     		ldr	r2, [sp, #128]
 780 0150 0137     		adds	r7, r7, #1
 781              	.LVL117:
 167:fft.c         **** 	}
 782              		.loc 1 167 0 discriminator 3
 783 0152 0A9B     		ldr	r3, [sp, #40]
 165:fft.c         **** 		areal[i] =  real[i] * cos_table[i] + imag[i] * sin_table[i];
 784              		.loc 1 165 0 discriminator 3
 785 0154 9742     		cmp	r7, r2
 167:fft.c         **** 	}
 786              		.loc 1 167 0 discriminator 3
 787 0156 43F8040F 		str	r0, [r3, #4]!	@ float
 165:fft.c         **** 		areal[i] =  real[i] * cos_table[i] + imag[i] * sin_table[i];
 788              		.loc 1 165 0 discriminator 3
 789 015a CDD1     		bne	.L53
 790 015c 1546     		mov	r5, r2
 169:fft.c         **** 	bimag[0] = sin_table[0];
 791              		.loc 1 169 0
 792 015e 0F9B     		ldr	r3, [sp, #60]
 793 0160 0C99     		ldr	r1, [sp, #48]
 794 0162 1A68     		ldr	r2, [r3]	@ float
 170:fft.c         **** 	for (i = 1; i < n; i++) {
 795              		.loc 1 170 0
 796 0164 0B9B     		ldr	r3, [sp, #44]
 169:fft.c         **** 	bimag[0] = sin_table[0];
 797              		.loc 1 169 0
 798 0166 0A60     		str	r2, [r1]	@ float
 170:fft.c         **** 	for (i = 1; i < n; i++) {
 799              		.loc 1 170 0
 800 0168 1B68     		ldr	r3, [r3]	@ float
 801 016a 0D9A     		ldr	r2, [sp, #52]
 171:fft.c         **** 		breal[i] = breal[m - i] = cos_table[i];
 802              		.loc 1 171 0
 803 016c 012D     		cmp	r5, #1
 804 016e 139C     		ldr	r4, [sp, #76]
 170:fft.c         **** 	for (i = 1; i < n; i++) {
 805              		.loc 1 170 0
 806 0170 1360     		str	r3, [r2]	@ float
 807              	.LVL118:
ARM GAS  C:\Users\jmdevoto\AppData\Local\Temp\ccWaR5hZ.s 			page 22


 171:fft.c         **** 		breal[i] = breal[m - i] = cos_table[i];
 808              		.loc 1 171 0
 809 0172 1AD0     		beq	.L57
 810 0174 0D9A     		ldr	r2, [sp, #52]
 811 0176 0C9B     		ldr	r3, [sp, #48]
 812 0178 1746     		mov	r7, r2
 813 017a A000     		lsls	r0, r4, #2
 814 017c DDF83C80 		ldr	r8, [sp, #60]
 815 0180 DDF82CE0 		ldr	lr, [sp, #44]
 816 0184 1E18     		adds	r6, r3, r0
 817 0186 9C46     		mov	ip, r3
 818 0188 1044     		add	r0, r0, r2
 819 018a 0123     		movs	r3, #1
 820              	.LVL119:
 821              	.L56:
 172:fft.c         **** 		bimag[i] = bimag[m - i] = sin_table[i];
 822              		.loc 1 172 0 discriminator 3
 823 018c 58F8041F 		ldr	r1, [r8, #4]!	@ float
 173:fft.c         **** 	}
 824              		.loc 1 173 0 discriminator 3
 825 0190 5EF8042F 		ldr	r2, [lr, #4]!	@ float
 171:fft.c         **** 		breal[i] = breal[m - i] = cos_table[i];
 826              		.loc 1 171 0 discriminator 3
 827 0194 0133     		adds	r3, r3, #1
 828              	.LVL120:
 829 0196 AB42     		cmp	r3, r5
 172:fft.c         **** 		bimag[i] = bimag[m - i] = sin_table[i];
 830              		.loc 1 172 0 discriminator 3
 831 0198 46F8041D 		str	r1, [r6, #-4]!	@ float
 173:fft.c         **** 	}
 832              		.loc 1 173 0 discriminator 3
 833 019c 40F8042D 		str	r2, [r0, #-4]!	@ float
 172:fft.c         **** 		bimag[i] = bimag[m - i] = sin_table[i];
 834              		.loc 1 172 0 discriminator 3
 835 01a0 4CF8041F 		str	r1, [ip, #4]!	@ float
 173:fft.c         **** 	}
 836              		.loc 1 173 0 discriminator 3
 837 01a4 47F8042F 		str	r2, [r7, #4]!	@ float
 171:fft.c         **** 		breal[i] = breal[m - i] = cos_table[i];
 838              		.loc 1 171 0 discriminator 3
 839 01a8 F0D1     		bne	.L56
 840              	.LVL121:
 841              	.L57:
 842              	.LBB31:
 843              	.LBB32:
 844 01aa 119B     		ldr	r3, [sp, #68]
 845 01ac 0494     		str	r4, [sp, #16]
 846 01ae 0093     		str	r3, [sp]
 847 01b0 129B     		ldr	r3, [sp, #72]
 848 01b2 0E98     		ldr	r0, [sp, #56]
 849 01b4 0193     		str	r3, [sp, #4]
 850 01b6 0F9B     		ldr	r3, [sp, #60]
 851 01b8 1099     		ldr	r1, [sp, #64]
 852 01ba 0293     		str	r3, [sp, #8]
 853 01bc 0B9B     		ldr	r3, [sp, #44]
 854 01be 0C9A     		ldr	r2, [sp, #48]
 855 01c0 0393     		str	r3, [sp, #12]
ARM GAS  C:\Users\jmdevoto\AppData\Local\Temp\ccWaR5hZ.s 			page 23


 856 01c2 0D9B     		ldr	r3, [sp, #52]
 857 01c4 FFF7FEFF 		bl	convolve_complex.part.0
 858              	.LVL122:
 859              	.LBE32:
 860              	.LBE31:
 177:fft.c         **** 		goto cleanup;
 861              		.loc 1 177 0
 862 01c8 0028     		cmp	r0, #0
 863 01ca 56D0     		beq	.L51
 864              	.LVL123:
 865 01cc 119B     		ldr	r3, [sp, #68]
 866 01ce 2095     		str	r5, [sp, #128]
 867              	.LVL124:
 868 01d0 1A1F     		subs	r2, r3, #4
 869 01d2 129B     		ldr	r3, [sp, #72]
 870 01d4 DDF85090 		ldr	r9, [sp, #80]
 871 01d8 A3F1040C 		sub	ip, r3, #4
 872 01dc 6546     		mov	r5, ip
 873 01de DDF854B0 		ldr	fp, [sp, #84]
 874 01e2 0F9F     		ldr	r7, [sp, #60]
 875 01e4 0B9E     		ldr	r6, [sp, #44]
 876 01e6 4FF0000A 		mov	r10, #0
 877              	.LVL125:
 878              	.L58:
 182:fft.c         **** 		imag[i] = -creal[i] * sin_table[i] + cimag[i] * cos_table[i];
 879              		.loc 1 182 0 discriminator 3
 880 01ea 52F8044F 		ldr	r4, [r2, #4]!	@ float
 881 01ee 3968     		ldr	r1, [r7]	@ float
 882 01f0 2046     		mov	r0, r4
 883 01f2 0892     		str	r2, [sp, #32]
 884 01f4 0792     		str	r2, [sp, #28]
 885 01f6 FFF7FEFF 		bl	__aeabi_fmul
 886              	.LVL126:
 887 01fa 55F8048F 		ldr	r8, [r5, #4]!	@ float
 888 01fe 3168     		ldr	r1, [r6]	@ float
 889 0200 0790     		str	r0, [sp, #28]
 890 0202 4046     		mov	r0, r8
 891 0204 FFF7FEFF 		bl	__aeabi_fmul
 892              	.LVL127:
 893 0208 079B     		ldr	r3, [sp, #28]
 894 020a 0146     		mov	r1, r0
 895 020c 1846     		mov	r0, r3
 896 020e FFF7FEFF 		bl	__aeabi_fadd
 897              	.LVL128:
 183:fft.c         **** 	}
 898              		.loc 1 183 0 discriminator 3
 899 0212 04F10044 		add	r4, r4, #-2147483648
 182:fft.c         **** 		imag[i] = -creal[i] * sin_table[i] + cimag[i] * cos_table[i];
 900              		.loc 1 182 0 discriminator 3
 901 0216 49F8040F 		str	r0, [r9, #4]!	@ float
 183:fft.c         **** 	}
 902              		.loc 1 183 0 discriminator 3
 903 021a 56F8041B 		ldr	r1, [r6], #4	@ float
 904 021e 2046     		mov	r0, r4
 905 0220 FFF7FEFF 		bl	__aeabi_fmul
 906              	.LVL129:
 907 0224 57F8041B 		ldr	r1, [r7], #4	@ float
ARM GAS  C:\Users\jmdevoto\AppData\Local\Temp\ccWaR5hZ.s 			page 24


 908 0228 0446     		mov	r4, r0
 909 022a 4046     		mov	r0, r8
 910 022c FFF7FEFF 		bl	__aeabi_fmul
 911              	.LVL130:
 912 0230 0146     		mov	r1, r0
 913 0232 2046     		mov	r0, r4
 914 0234 FFF7FEFF 		bl	__aeabi_fadd
 915              	.LVL131:
 181:fft.c         **** 		real[i] =  creal[i] * cos_table[i] + cimag[i] * sin_table[i];
 916              		.loc 1 181 0 discriminator 3
 917 0238 209B     		ldr	r3, [sp, #128]
 918 023a 0AF1010A 		add	r10, r10, #1
 919              	.LVL132:
 920 023e 9A45     		cmp	r10, r3
 183:fft.c         **** 	}
 921              		.loc 1 183 0 discriminator 3
 922 0240 4BF8040F 		str	r0, [fp, #4]!	@ float
 181:fft.c         **** 		real[i] =  creal[i] * cos_table[i] + cimag[i] * sin_table[i];
 923              		.loc 1 181 0 discriminator 3
 924 0244 089A     		ldr	r2, [sp, #32]
 925 0246 D0D1     		bne	.L58
 926              	.LVL133:
 927              	.L59:
 185:fft.c         **** 	
 928              		.loc 1 185 0
 929 0248 0124     		movs	r4, #1
 930 024a 17E0     		b	.L50
 931              	.LVL134:
 932              	.L52:
 169:fft.c         **** 	bimag[0] = sin_table[0];
 933              		.loc 1 169 0
 934 024c 0F9A     		ldr	r2, [sp, #60]
 935              	.LVL135:
 170:fft.c         **** 	for (i = 1; i < n; i++) {
 936              		.loc 1 170 0
 937 024e 0B99     		ldr	r1, [sp, #44]
 938              	.LBB36:
 939              	.LBB33:
 940 0250 119B     		ldr	r3, [sp, #68]
 941              	.LBE33:
 942              	.LBE36:
 169:fft.c         **** 	bimag[0] = sin_table[0];
 943              		.loc 1 169 0
 944 0252 1568     		ldr	r5, [r2]	@ float
 945              	.LVL136:
 170:fft.c         **** 	for (i = 1; i < n; i++) {
 946              		.loc 1 170 0
 947 0254 0E68     		ldr	r6, [r1]	@ float
 948              	.LVL137:
 949              	.LBB37:
 950              	.LBB34:
 951 0256 0D9F     		ldr	r7, [sp, #52]
 952              	.LVL138:
 953 0258 0093     		str	r3, [sp]
 954 025a 0494     		str	r4, [sp, #16]
 955 025c 129B     		ldr	r3, [sp, #72]
 956 025e 0C9C     		ldr	r4, [sp, #48]
ARM GAS  C:\Users\jmdevoto\AppData\Local\Temp\ccWaR5hZ.s 			page 25


 957 0260 0193     		str	r3, [sp, #4]
 958 0262 0292     		str	r2, [sp, #8]
 959 0264 0391     		str	r1, [sp, #12]
 960 0266 0E98     		ldr	r0, [sp, #56]
 961 0268 1099     		ldr	r1, [sp, #64]
 962 026a 2246     		mov	r2, r4
 963 026c 3B46     		mov	r3, r7
 964              	.LBE34:
 965              	.LBE37:
 169:fft.c         **** 	bimag[0] = sin_table[0];
 966              		.loc 1 169 0
 967 026e 2560     		str	r5, [r4]	@ float
 170:fft.c         **** 	for (i = 1; i < n; i++) {
 968              		.loc 1 170 0
 969 0270 3E60     		str	r6, [r7]	@ float
 970              	.LVL139:
 971              	.LBB38:
 972              	.LBB35:
 973 0272 FFF7FEFF 		bl	convolve_complex.part.0
 974              	.LVL140:
 975              	.LBE35:
 976              	.LBE38:
 177:fft.c         **** 		goto cleanup;
 977              		.loc 1 177 0
 978 0276 0028     		cmp	r0, #0
 979 0278 E6D1     		bne	.L59
 980              	.LVL141:
 981              	.L51:
 127:fft.c         **** 	float *areal, *aimag;
 982              		.loc 1 127 0
 983 027a 0024     		movs	r4, #0
 984              	.LVL142:
 985              	.L50:
 189:fft.c         **** 	free(creal);
 986              		.loc 1 189 0
 987 027c 1298     		ldr	r0, [sp, #72]
 988 027e FFF7FEFF 		bl	free
 989              	.LVL143:
 190:fft.c         **** 	free(bimag);
 990              		.loc 1 190 0
 991 0282 1198     		ldr	r0, [sp, #68]
 992 0284 FFF7FEFF 		bl	free
 993              	.LVL144:
 191:fft.c         **** 	free(breal);
 994              		.loc 1 191 0
 995 0288 0D98     		ldr	r0, [sp, #52]
 996 028a FFF7FEFF 		bl	free
 997              	.LVL145:
 192:fft.c         **** 	free(aimag);
 998              		.loc 1 192 0
 999 028e 0C98     		ldr	r0, [sp, #48]
 1000 0290 FFF7FEFF 		bl	free
 1001              	.LVL146:
 193:fft.c         **** 	free(areal);
 1002              		.loc 1 193 0
 1003 0294 1098     		ldr	r0, [sp, #64]
 1004 0296 FFF7FEFF 		bl	free
ARM GAS  C:\Users\jmdevoto\AppData\Local\Temp\ccWaR5hZ.s 			page 26


 1005              	.LVL147:
 194:fft.c         **** 	free(sin_table);
 1006              		.loc 1 194 0
 1007 029a 0E98     		ldr	r0, [sp, #56]
 1008 029c FFF7FEFF 		bl	free
 1009              	.LVL148:
 195:fft.c         **** 	free(cos_table);
 1010              		.loc 1 195 0
 1011 02a0 0B98     		ldr	r0, [sp, #44]
 1012 02a2 FFF7FEFF 		bl	free
 1013              	.LVL149:
 196:fft.c         **** 	return status;
 1014              		.loc 1 196 0
 1015 02a6 0F98     		ldr	r0, [sp, #60]
 1016 02a8 FFF7FEFF 		bl	free
 1017              	.LVL150:
 197:fft.c         **** }
 1018              		.loc 1 197 0
 1019 02ac 2046     		mov	r0, r4
 198:fft.c         **** 
 1020              		.loc 1 198 0
 1021 02ae 17B0     		add	sp, sp, #92
 1022              		.cfi_remember_state
 1023              		.cfi_def_cfa_offset 36
 1024              		@ sp needed
 1025 02b0 BDE8F08F 		pop	{r4, r5, r6, r7, r8, r9, r10, fp, pc}
 1026              	.LVL151:
 1027              	.L97:
 1028              		.cfi_restore_state
 148:fft.c         **** 		return false;
 1029              		.loc 1 148 0
 1030 02b4 B5F1804F 		cmp	r5, #1073741824
 1031 02b8 BFF4BEAE 		bcs	.L66
 1032              	.LBB39:
 141:fft.c         **** 			if (FFT_SIZE_MAX / 2 < m)
 1033              		.loc 1 141 0
 1034 02bc 6446     		mov	r4, ip
 1035              	.LBE39:
 148:fft.c         **** 		return false;
 1036              		.loc 1 148 0
 1037 02be 4FF00408 		mov	r8, #4
 1038 02c2 C3E6     		b	.L60
 1039              		.cfi_endproc
 1040              	.LFE4:
 1041              		.size	transform_bluestein, .-transform_bluestein
 1042              		.section	.text.transform.part.1,"ax",%progbits
 1043              		.align	2
 1044              		.thumb
 1045              		.thumb_func
 1046              		.type	transform.part.1, %function
 1047              	transform.part.1:
 1048              	.LFB10:
  50:fft.c         **** 			   float sin_table[], size_t n) {
 1049              		.loc 1 50 0
 1050              		.cfi_startproc
 1051              		@ args = 4, pretend = 0, frame = 0
 1052              		@ frame_needed = 0, uses_anonymous_args = 0
ARM GAS  C:\Users\jmdevoto\AppData\Local\Temp\ccWaR5hZ.s 			page 27


 1053              		@ link register save eliminated.
 1054              	.LVL152:
 1055 0000 30B4     		push	{r4, r5}
 1056              		.cfi_def_cfa_offset 8
 1057              		.cfi_offset 4, -8
 1058              		.cfi_offset 5, -4
  50:fft.c         **** 			   float sin_table[], size_t n) {
 1059              		.loc 1 50 0
 1060 0002 029C     		ldr	r4, [sp, #8]
  54:fft.c         **** 		return transform_radix2(real, imag, cos_table, sin_table, n);
 1061              		.loc 1 54 0
 1062 0004 651E     		subs	r5, r4, #1
 1063 0006 2542     		tst	r5, r4
 1064 0008 03D0     		beq	.L103
  57:fft.c         **** }
 1065              		.loc 1 57 0
 1066 000a 0294     		str	r4, [sp, #8]
 1067              	.LVL153:
  58:fft.c         **** 
 1068              		.loc 1 58 0
 1069 000c 30BC     		pop	{r4, r5}
 1070              		.cfi_remember_state
 1071              		.cfi_restore 5
 1072              		.cfi_restore 4
 1073              		.cfi_def_cfa_offset 0
  57:fft.c         **** }
 1074              		.loc 1 57 0
 1075 000e FFF7FEBF 		b	transform_bluestein
 1076              	.LVL154:
 1077              	.L103:
 1078              		.cfi_restore_state
  58:fft.c         **** 
 1079              		.loc 1 58 0
 1080 0012 30BC     		pop	{r4, r5}
 1081              		.cfi_restore 5
 1082              		.cfi_restore 4
 1083              		.cfi_def_cfa_offset 0
 1084              	.LVL155:
  55:fft.c         **** 	else  // More complicated algorithm for arbitrary sizes
 1085              		.loc 1 55 0
 1086 0014 FFF7FEBF 		b	transform_radix2
 1087              	.LVL156:
 1088              		.cfi_endproc
 1089              	.LFE10:
 1090              		.size	transform.part.1, .-transform.part.1
 1091              		.section	.text.transform,"ax",%progbits
 1092              		.align	2
 1093              		.global	transform
 1094              		.thumb
 1095              		.thumb_func
 1096              		.type	transform, %function
 1097              	transform:
 1098              	.LFB1:
  51:fft.c         **** 	if (n == 0)
 1099              		.loc 1 51 0
 1100              		.cfi_startproc
 1101              		@ args = 4, pretend = 0, frame = 0
ARM GAS  C:\Users\jmdevoto\AppData\Local\Temp\ccWaR5hZ.s 			page 28


 1102              		@ frame_needed = 0, uses_anonymous_args = 0
 1103              		@ link register save eliminated.
 1104              	.LVL157:
 1105 0000 10B4     		push	{r4}
 1106              		.cfi_def_cfa_offset 4
 1107              		.cfi_offset 4, -4
  51:fft.c         **** 	if (n == 0)
 1108              		.loc 1 51 0
 1109 0002 019C     		ldr	r4, [sp, #4]
  52:fft.c         **** 		return true;
 1110              		.loc 1 52 0
 1111 0004 1CB1     		cbz	r4, .L105
  58:fft.c         **** 
 1112              		.loc 1 58 0
 1113 0006 5DF8044B 		ldr	r4, [sp], #4
 1114              		.cfi_remember_state
 1115              		.cfi_restore 4
 1116              		.cfi_def_cfa_offset 0
 1117              	.LVL158:
 1118 000a FFF7FEBF 		b	transform.part.1
 1119              	.LVL159:
 1120              	.L105:
 1121              		.cfi_restore_state
 1122 000e 0120     		movs	r0, #1
 1123              	.LVL160:
 1124 0010 5DF8044B 		ldr	r4, [sp], #4
 1125              		.cfi_restore 4
 1126              		.cfi_def_cfa_offset 0
 1127              	.LVL161:
 1128 0014 7047     		bx	lr
 1129              		.cfi_endproc
 1130              	.LFE1:
 1131              		.size	transform, .-transform
 1132 0016 00BF     		.section	.text.inverse_transform,"ax",%progbits
 1133              		.align	2
 1134              		.global	inverse_transform
 1135              		.thumb
 1136              		.thumb_func
 1137              		.type	inverse_transform, %function
 1138              	inverse_transform:
 1139              	.LFB2:
  62:fft.c         **** 	return transform(imag, real, cos_table, sin_table, n);
 1140              		.loc 1 62 0
 1141              		.cfi_startproc
 1142              		@ args = 4, pretend = 0, frame = 0
 1143              		@ frame_needed = 0, uses_anonymous_args = 0
 1144              		@ link register save eliminated.
 1145              	.LVL162:
 1146 0000 30B4     		push	{r4, r5}
 1147              		.cfi_def_cfa_offset 8
 1148              		.cfi_offset 4, -8
 1149              		.cfi_offset 5, -4
  62:fft.c         **** 	return transform(imag, real, cos_table, sin_table, n);
 1150              		.loc 1 62 0
 1151 0002 029C     		ldr	r4, [sp, #8]
 1152              	.LVL163:
 1153              	.LBB40:
ARM GAS  C:\Users\jmdevoto\AppData\Local\Temp\ccWaR5hZ.s 			page 29


 1154              	.LBB41:
  52:fft.c         **** 		return true;
 1155              		.loc 1 52 0
 1156 0004 14B9     		cbnz	r4, .L110
 1157              	.LBE41:
 1158              	.LBE40:
  64:fft.c         **** 
 1159              		.loc 1 64 0
 1160 0006 30BC     		pop	{r4, r5}
 1161              		.cfi_remember_state
 1162              		.cfi_restore 5
 1163              		.cfi_restore 4
 1164              		.cfi_def_cfa_offset 0
 1165              	.LVL164:
 1166 0008 0120     		movs	r0, #1
 1167              	.LVL165:
 1168 000a 7047     		bx	lr
 1169              	.LVL166:
 1170              	.L110:
 1171              		.cfi_restore_state
 1172 000c 0546     		mov	r5, r0
 1173              	.LVL167:
 1174              	.LBB44:
 1175              	.LBB42:
 1176 000e 0846     		mov	r0, r1
 1177              	.LVL168:
 1178 0010 2946     		mov	r1, r5
 1179              	.LVL169:
 1180              	.LBE42:
 1181              	.LBE44:
 1182 0012 30BC     		pop	{r4, r5}
 1183              		.cfi_restore 5
 1184              		.cfi_restore 4
 1185              		.cfi_def_cfa_offset 0
 1186              	.LVL170:
 1187              	.LBB45:
 1188              	.LBB43:
 1189 0014 FFF7FEBF 		b	transform.part.1
 1190              	.LVL171:
 1191              	.LBE43:
 1192              	.LBE45:
 1193              		.cfi_endproc
 1194              	.LFE2:
 1195              		.size	inverse_transform, .-inverse_transform
 1196              		.global	__aeabi_ui2f
 1197              		.global	__aeabi_fdiv
 1198              		.section	.text.convolve_complex.part.0,"ax",%progbits
 1199              		.align	2
 1200              		.thumb
 1201              		.thumb_func
 1202              		.type	convolve_complex.part.0, %function
 1203              	convolve_complex.part.0:
 1204              	.LFB9:
 218:fft.c         **** 	bool status = false;
 1205              		.loc 1 218 0
 1206              		.cfi_startproc
 1207              		@ args = 20, pretend = 0, frame = 32
ARM GAS  C:\Users\jmdevoto\AppData\Local\Temp\ccWaR5hZ.s 			page 30


 1208              		@ frame_needed = 0, uses_anonymous_args = 0
 1209              	.LVL172:
 1210 0000 2DE9F04F 		push	{r4, r5, r6, r7, r8, r9, r10, fp, lr}
 1211              		.cfi_def_cfa_offset 36
 1212              		.cfi_offset 4, -36
 1213              		.cfi_offset 5, -32
 1214              		.cfi_offset 6, -28
 1215              		.cfi_offset 7, -24
 1216              		.cfi_offset 8, -20
 1217              		.cfi_offset 9, -16
 1218              		.cfi_offset 10, -12
 1219              		.cfi_offset 11, -8
 1220              		.cfi_offset 14, -4
 1221 0004 8BB0     		sub	sp, sp, #44
 1222              		.cfi_def_cfa_offset 80
 218:fft.c         **** 	bool status = false;
 1223              		.loc 1 218 0
 1224 0006 0E46     		mov	r6, r1
 225:fft.c         **** 	xr = memdup(xreal, size);
 1225              		.loc 1 225 0
 1226 0008 1899     		ldr	r1, [sp, #96]
 1227              	.LVL173:
 218:fft.c         **** 	bool status = false;
 1228              		.loc 1 218 0
 1229 000a 1746     		mov	r7, r2
 225:fft.c         **** 	xr = memdup(xreal, size);
 1230              		.loc 1 225 0
 1231 000c 8C00     		lsls	r4, r1, #2
 1232              	.LVL174:
 226:fft.c         **** 	xi = memdup(ximag, size);
 1233              		.loc 1 226 0
 1234 000e 2146     		mov	r1, r4
 218:fft.c         **** 	bool status = false;
 1235              		.loc 1 218 0
 1236 0010 9846     		mov	r8, r3
 226:fft.c         **** 	xi = memdup(ximag, size);
 1237              		.loc 1 226 0
 1238 0012 FFF7FEFF 		bl	memdup
 1239              	.LVL175:
 227:fft.c         **** 	yr = memdup(yreal, size);
 1240              		.loc 1 227 0
 1241 0016 2146     		mov	r1, r4
 226:fft.c         **** 	xi = memdup(ximag, size);
 1242              		.loc 1 226 0
 1243 0018 0546     		mov	r5, r0
 1244              	.LVL176:
 227:fft.c         **** 	yr = memdup(yreal, size);
 1245              		.loc 1 227 0
 1246 001a 3046     		mov	r0, r6
 1247              	.LVL177:
 1248 001c FFF7FEFF 		bl	memdup
 1249              	.LVL178:
 228:fft.c         **** 	yi = memdup(yimag, size);
 1250              		.loc 1 228 0
 1251 0020 2146     		mov	r1, r4
 227:fft.c         **** 	yr = memdup(yreal, size);
 1252              		.loc 1 227 0
ARM GAS  C:\Users\jmdevoto\AppData\Local\Temp\ccWaR5hZ.s 			page 31


 1253 0022 0646     		mov	r6, r0
 1254              	.LVL179:
 228:fft.c         **** 	yi = memdup(yimag, size);
 1255              		.loc 1 228 0
 1256 0024 3846     		mov	r0, r7
 1257              	.LVL180:
 1258 0026 FFF7FEFF 		bl	memdup
 1259              	.LVL181:
 229:fft.c         **** 	if (xr == NULL || xi == NULL || yr == NULL || yi == NULL)
 1260              		.loc 1 229 0
 1261 002a 2146     		mov	r1, r4
 228:fft.c         **** 	yi = memdup(yimag, size);
 1262              		.loc 1 228 0
 1263 002c 0746     		mov	r7, r0
 1264              	.LVL182:
 229:fft.c         **** 	if (xr == NULL || xi == NULL || yr == NULL || yi == NULL)
 1265              		.loc 1 229 0
 1266 002e 4046     		mov	r0, r8
 1267              	.LVL183:
 1268 0030 FFF7FEFF 		bl	memdup
 1269              	.LVL184:
 1270 0034 8046     		mov	r8, r0
 1271              	.LVL185:
 230:fft.c         **** 		goto cleanup;
 1272              		.loc 1 230 0
 1273 0036 5DB1     		cbz	r5, .L114
 1274 0038 56B1     		cbz	r6, .L114
 1275 003a 4FB1     		cbz	r7, .L114
 1276 003c 40B1     		cbz	r0, .L114
 233:fft.c         **** 		goto cleanup;
 1277              		.loc 1 233 0
 1278 003e 189B     		ldr	r3, [sp, #96]
 1279 0040 2846     		mov	r0, r5
 1280              	.LVL186:
 1281 0042 0093     		str	r3, [sp]
 1282 0044 3146     		mov	r1, r6
 1283 0046 169A     		ldr	r2, [sp, #88]
 1284 0048 179B     		ldr	r3, [sp, #92]
 1285 004a FFF7FEFF 		bl	transform
 1286              	.LVL187:
 1287 004e 80B9     		cbnz	r0, .L143
 1288              	.LVL188:
 1289              	.L114:
 219:fft.c         **** 	size_t size;
 1290              		.loc 1 219 0
 1291 0050 0024     		movs	r4, #0
 1292              	.L113:
 1293              	.LVL189:
 251:fft.c         **** 	free(yr);
 1294              		.loc 1 251 0
 1295 0052 4046     		mov	r0, r8
 1296 0054 FFF7FEFF 		bl	free
 1297              	.LVL190:
 252:fft.c         **** 	free(xi);
 1298              		.loc 1 252 0
 1299 0058 3846     		mov	r0, r7
 1300 005a FFF7FEFF 		bl	free
ARM GAS  C:\Users\jmdevoto\AppData\Local\Temp\ccWaR5hZ.s 			page 32


 1301              	.LVL191:
 253:fft.c         **** 	free(xr);
 1302              		.loc 1 253 0
 1303 005e 3046     		mov	r0, r6
 1304 0060 FFF7FEFF 		bl	free
 1305              	.LVL192:
 254:fft.c         **** 	return status;
 1306              		.loc 1 254 0
 1307 0064 2846     		mov	r0, r5
 1308 0066 FFF7FEFF 		bl	free
 1309              	.LVL193:
 256:fft.c         **** 
 1310              		.loc 1 256 0
 1311 006a 2046     		mov	r0, r4
 1312 006c 0BB0     		add	sp, sp, #44
 1313              		.cfi_remember_state
 1314              		.cfi_def_cfa_offset 36
 1315              		@ sp needed
 1316 006e BDE8F08F 		pop	{r4, r5, r6, r7, r8, r9, r10, fp, pc}
 1317              	.LVL194:
 1318              	.L143:
 1319              		.cfi_restore_state
 235:fft.c         **** 		goto cleanup;
 1320              		.loc 1 235 0
 1321 0072 189B     		ldr	r3, [sp, #96]
 1322 0074 3846     		mov	r0, r7
 1323 0076 0093     		str	r3, [sp]
 1324 0078 4146     		mov	r1, r8
 1325 007a 169A     		ldr	r2, [sp, #88]
 1326 007c 179B     		ldr	r3, [sp, #92]
 1327 007e FFF7FEFF 		bl	transform
 1328              	.LVL195:
 1329 0082 0028     		cmp	r0, #0
 1330 0084 E4D0     		beq	.L114
 1331              	.LVL196:
 237:fft.c         **** 		float temp = xr[i] * yr[i] - xi[i] * yi[i];
 1332              		.loc 1 237 0
 1333 0086 189B     		ldr	r3, [sp, #96]
 1334 0088 002B     		cmp	r3, #0
 1335 008a 70D0     		beq	.L115
 1336 008c 0594     		str	r4, [sp, #20]
 1337 008e B246     		mov	r10, r6
 1338 0090 2C46     		mov	r4, r5
 1339              	.LVL197:
 1340 0092 3B1F     		subs	r3, r7, #4
 1341 0094 0493     		str	r3, [sp, #16]
 1342 0096 A8F10403 		sub	r3, r8, #4
 1343 009a 0393     		str	r3, [sp, #12]
 1344 009c 4FF00009 		mov	r9, #0
 1345 00a0 0695     		str	r5, [sp, #24]
 1346 00a2 0796     		str	r6, [sp, #28]
 1347 00a4 0897     		str	r7, [sp, #32]
 1348 00a6 CDF82480 		str	r8, [sp, #36]
 1349              	.LVL198:
 1350              	.L116:
 1351              	.LBB46:
 238:fft.c         **** 		xi[i] = xi[i] * yr[i] + xr[i] * yi[i];
ARM GAS  C:\Users\jmdevoto\AppData\Local\Temp\ccWaR5hZ.s 			page 33


 1352              		.loc 1 238 0
 1353 00aa 049B     		ldr	r3, [sp, #16]
 1354 00ac DAF800B0 		ldr	fp, [r10]	@ float
 1355 00b0 53F8047F 		ldr	r7, [r3, #4]!	@ float
 239:fft.c         **** 		xr[i] = temp;
 1356              		.loc 1 239 0
 1357 00b4 5946     		mov	r1, fp
 238:fft.c         **** 		xi[i] = xi[i] * yr[i] + xr[i] * yi[i];
 1358              		.loc 1 238 0
 1359 00b6 0493     		str	r3, [sp, #16]
 1360 00b8 039B     		ldr	r3, [sp, #12]
 239:fft.c         **** 		xr[i] = temp;
 1361              		.loc 1 239 0
 1362 00ba 3846     		mov	r0, r7
 238:fft.c         **** 		xi[i] = xi[i] * yr[i] + xr[i] * yi[i];
 1363              		.loc 1 238 0
 1364 00bc 53F8045F 		ldr	r5, [r3, #4]!	@ float
 1365 00c0 2668     		ldr	r6, [r4]	@ float
 1366 00c2 0393     		str	r3, [sp, #12]
 1367              	.LVL199:
 239:fft.c         **** 		xr[i] = temp;
 1368              		.loc 1 239 0
 1369 00c4 FFF7FEFF 		bl	__aeabi_fmul
 1370              	.LVL200:
 1371 00c8 2946     		mov	r1, r5
 1372 00ca 8046     		mov	r8, r0
 1373 00cc 3046     		mov	r0, r6
 1374 00ce FFF7FEFF 		bl	__aeabi_fmul
 1375              	.LVL201:
 1376 00d2 0146     		mov	r1, r0
 1377 00d4 4046     		mov	r0, r8
 1378 00d6 FFF7FEFF 		bl	__aeabi_fadd
 1379              	.LVL202:
 238:fft.c         **** 		xi[i] = xi[i] * yr[i] + xr[i] * yi[i];
 1380              		.loc 1 238 0
 1381 00da 3946     		mov	r1, r7
 239:fft.c         **** 		xr[i] = temp;
 1382              		.loc 1 239 0
 1383 00dc 4AF8040B 		str	r0, [r10], #4	@ float
 238:fft.c         **** 		xi[i] = xi[i] * yr[i] + xr[i] * yi[i];
 1384              		.loc 1 238 0
 1385 00e0 3046     		mov	r0, r6
 1386 00e2 FFF7FEFF 		bl	__aeabi_fmul
 1387              	.LVL203:
 1388 00e6 2946     		mov	r1, r5
 1389 00e8 0646     		mov	r6, r0
 1390              	.LVL204:
 1391 00ea 5846     		mov	r0, fp
 1392 00ec FFF7FEFF 		bl	__aeabi_fmul
 1393              	.LVL205:
 1394 00f0 0146     		mov	r1, r0
 1395 00f2 3046     		mov	r0, r6
 1396 00f4 FFF7FEFF 		bl	__aeabi_fsub
 1397              	.LVL206:
 1398              	.LBE46:
 237:fft.c         **** 		float temp = xr[i] * yr[i] - xi[i] * yi[i];
 1399              		.loc 1 237 0
ARM GAS  C:\Users\jmdevoto\AppData\Local\Temp\ccWaR5hZ.s 			page 34


 1400 00f8 189B     		ldr	r3, [sp, #96]
 1401 00fa 09F10109 		add	r9, r9, #1
 1402              	.LVL207:
 1403 00fe 9945     		cmp	r9, r3
 1404              	.LBB47:
 240:fft.c         **** 	}
 1405              		.loc 1 240 0
 1406 0100 44F8040B 		str	r0, [r4], #4	@ float
 1407              	.LBE47:
 237:fft.c         **** 		float temp = xr[i] * yr[i] - xi[i] * yi[i];
 1408              		.loc 1 237 0
 1409 0104 D1D1     		bne	.L116
 1410 0106 05AC     		add	r4, sp, #20
 1411              	.LVL208:
 1412 0108 F0CC     		ldmia	r4, {r4, r5, r6, r7}
 1413              	.LVL209:
 242:fft.c         **** 		goto cleanup;
 1414              		.loc 1 242 0
 1415 010a 169A     		ldr	r2, [sp, #88]
 1416 010c CDF80090 		str	r9, [sp]
 1417 0110 2846     		mov	r0, r5
 1418 0112 3146     		mov	r1, r6
 1419 0114 179B     		ldr	r3, [sp, #92]
 1420 0116 DDF82480 		ldr	r8, [sp, #36]
 1421 011a FFF7FEFF 		bl	inverse_transform
 1422              	.LVL210:
 1423 011e 0028     		cmp	r0, #0
 1424 0120 96D0     		beq	.L114
 1425              	.LVL211:
 1426 0122 4846     		mov	r0, r9
 1427 0124 FFF7FEFF 		bl	__aeabi_ui2f
 1428              	.LVL212:
 1429 0128 2B46     		mov	r3, r5
 1430 012a 1499     		ldr	r1, [sp, #80]
 1431 012c 2A19     		adds	r2, r5, r4
 1432 012e A1F10409 		sub	r9, r1, #4
 1433 0132 1599     		ldr	r1, [sp, #84]
 1434 0134 A6F1040A 		sub	r10, r6, #4
 1435 0138 0C1F     		subs	r4, r1, #4
 1436 013a 0395     		str	r5, [sp, #12]
 1437 013c 0496     		str	r6, [sp, #16]
 1438 013e 2546     		mov	r5, r4
 1439 0140 8346     		mov	fp, r0
 1440 0142 1446     		mov	r4, r2
 1441 0144 1E46     		mov	r6, r3
 1442              	.LVL213:
 1443              	.L118:
 245:fft.c         **** 		outimag[i] = xi[i] / n;
 1444              		.loc 1 245 0
 1445 0146 56F8040B 		ldr	r0, [r6], #4	@ float
 1446 014a 5946     		mov	r1, fp
 1447 014c FFF7FEFF 		bl	__aeabi_fdiv
 1448              	.LVL214:
 1449 0150 49F8040F 		str	r0, [r9, #4]!	@ float
 246:fft.c         **** 	}
 1450              		.loc 1 246 0
 1451 0154 5AF8040F 		ldr	r0, [r10, #4]!	@ float
ARM GAS  C:\Users\jmdevoto\AppData\Local\Temp\ccWaR5hZ.s 			page 35


 1452 0158 5946     		mov	r1, fp
 1453 015a FFF7FEFF 		bl	__aeabi_fdiv
 1454              	.LVL215:
 244:fft.c         **** 		outreal[i] = xr[i] / n;
 1455              		.loc 1 244 0
 1456 015e A642     		cmp	r6, r4
 246:fft.c         **** 	}
 1457              		.loc 1 246 0
 1458 0160 45F8040F 		str	r0, [r5, #4]!	@ float
 244:fft.c         **** 		outreal[i] = xr[i] / n;
 1459              		.loc 1 244 0
 1460 0164 EFD1     		bne	.L118
 1461 0166 039D     		ldr	r5, [sp, #12]
 1462 0168 049E     		ldr	r6, [sp, #16]
 1463              	.LVL216:
 1464              	.L119:
 248:fft.c         **** 	
 1465              		.loc 1 248 0
 1466 016a 0124     		movs	r4, #1
 1467 016c 71E7     		b	.L113
 1468              	.LVL217:
 1469              	.L115:
 242:fft.c         **** 		goto cleanup;
 1470              		.loc 1 242 0
 1471 016e 189B     		ldr	r3, [sp, #96]
 1472 0170 2846     		mov	r0, r5
 1473 0172 0093     		str	r3, [sp]
 1474 0174 3146     		mov	r1, r6
 1475 0176 169A     		ldr	r2, [sp, #88]
 1476 0178 179B     		ldr	r3, [sp, #92]
 1477 017a FFF7FEFF 		bl	inverse_transform
 1478              	.LVL218:
 1479 017e 0028     		cmp	r0, #0
 1480 0180 F3D1     		bne	.L119
 1481 0182 65E7     		b	.L114
 1482              		.cfi_endproc
 1483              	.LFE9:
 1484              		.size	convolve_complex.part.0, .-convolve_complex.part.0
 1485              		.section	.text.convolve_real,"ax",%progbits
 1486              		.align	2
 1487              		.global	convolve_real
 1488              		.thumb
 1489              		.thumb_func
 1490              		.type	convolve_real, %function
 1491              	convolve_real:
 1492              	.LFB5:
 200:fft.c         **** 	float *ximag, *yimag, *zimag;
 1493              		.loc 1 200 0
 1494              		.cfi_startproc
 1495              		@ args = 8, pretend = 0, frame = 0
 1496              		@ frame_needed = 0, uses_anonymous_args = 0
 1497              	.LVL219:
 1498 0000 2DE9F04F 		push	{r4, r5, r6, r7, r8, r9, r10, fp, lr}
 1499              		.cfi_def_cfa_offset 36
 1500              		.cfi_offset 4, -36
 1501              		.cfi_offset 5, -32
 1502              		.cfi_offset 6, -28
ARM GAS  C:\Users\jmdevoto\AppData\Local\Temp\ccWaR5hZ.s 			page 36


 1503              		.cfi_offset 7, -24
 1504              		.cfi_offset 8, -20
 1505              		.cfi_offset 9, -16
 1506              		.cfi_offset 10, -12
 1507              		.cfi_offset 11, -8
 1508              		.cfi_offset 14, -4
 1509 0004 87B0     		sub	sp, sp, #28
 1510              		.cfi_def_cfa_offset 64
 200:fft.c         **** 	float *ximag, *yimag, *zimag;
 1511              		.loc 1 200 0
 1512 0006 119C     		ldr	r4, [sp, #68]
 1513 0008 8146     		mov	r9, r0
 1514 000a 8846     		mov	r8, r1
 203:fft.c         **** 	yimag = calloc(n, sizeof(float));
 1515              		.loc 1 203 0
 1516 000c 2046     		mov	r0, r4
 1517              	.LVL220:
 1518 000e 0421     		movs	r1, #4
 1519              	.LVL221:
 200:fft.c         **** 	float *ximag, *yimag, *zimag;
 1520              		.loc 1 200 0
 1521 0010 9346     		mov	fp, r2
 1522 0012 9A46     		mov	r10, r3
 203:fft.c         **** 	yimag = calloc(n, sizeof(float));
 1523              		.loc 1 203 0
 1524 0014 FFF7FEFF 		bl	calloc
 1525              	.LVL222:
 204:fft.c         **** 	zimag = calloc(n, sizeof(float));
 1526              		.loc 1 204 0
 1527 0018 0421     		movs	r1, #4
 203:fft.c         **** 	yimag = calloc(n, sizeof(float));
 1528              		.loc 1 203 0
 1529 001a 0546     		mov	r5, r0
 1530              	.LVL223:
 204:fft.c         **** 	zimag = calloc(n, sizeof(float));
 1531              		.loc 1 204 0
 1532 001c 2046     		mov	r0, r4
 1533              	.LVL224:
 1534 001e FFF7FEFF 		bl	calloc
 1535              	.LVL225:
 205:fft.c         **** 	if (ximag == NULL || yimag == NULL || zimag == NULL)
 1536              		.loc 1 205 0
 1537 0022 0421     		movs	r1, #4
 204:fft.c         **** 	zimag = calloc(n, sizeof(float));
 1538              		.loc 1 204 0
 1539 0024 0646     		mov	r6, r0
 1540              	.LVL226:
 205:fft.c         **** 	if (ximag == NULL || yimag == NULL || zimag == NULL)
 1541              		.loc 1 205 0
 1542 0026 2046     		mov	r0, r4
 1543              	.LVL227:
 1544 0028 FFF7FEFF 		bl	calloc
 1545              	.LVL228:
 1546 002c 0746     		mov	r7, r0
 1547              	.LVL229:
 206:fft.c         **** 		goto cleanup;
 1548              		.loc 1 206 0
ARM GAS  C:\Users\jmdevoto\AppData\Local\Temp\ccWaR5hZ.s 			page 37


 1549 002e 15B3     		cbz	r5, .L146
 206:fft.c         **** 		goto cleanup;
 1550              		.loc 1 206 0 is_stmt 0 discriminator 1
 1551 0030 1EB3     		cbz	r6, .L147
 206:fft.c         **** 		goto cleanup;
 1552              		.loc 1 206 0 discriminator 2
 1553 0032 20B3     		cbz	r0, .L148
 1554              	.LVL230:
 1555              	.LBB48:
 1556              	.LBB49:
 223:fft.c         **** 		return false;
 1557              		.loc 1 223 0 is_stmt 1
 1558 0034 B4F1804F 		cmp	r4, #1073741824
 1559 0038 0DD3     		bcc	.L151
 1560              	.LBE49:
 1561              	.LBE48:
 202:fft.c         **** 	ximag = calloc(n, sizeof(float));
 1562              		.loc 1 202 0
 1563 003a 0024     		movs	r4, #0
 1564              	.LVL231:
 1565              	.L145:
 211:fft.c         **** 	free(yimag);
 1566              		.loc 1 211 0
 1567 003c 3846     		mov	r0, r7
 1568 003e FFF7FEFF 		bl	free
 1569              	.LVL232:
 212:fft.c         **** 	free(ximag);
 1570              		.loc 1 212 0
 1571 0042 3046     		mov	r0, r6
 1572 0044 FFF7FEFF 		bl	free
 1573              	.LVL233:
 213:fft.c         **** 	return status;
 1574              		.loc 1 213 0
 1575 0048 2846     		mov	r0, r5
 1576 004a FFF7FEFF 		bl	free
 1577              	.LVL234:
 215:fft.c         **** 
 1578              		.loc 1 215 0
 1579 004e 2046     		mov	r0, r4
 1580 0050 07B0     		add	sp, sp, #28
 1581              		.cfi_remember_state
 1582              		.cfi_def_cfa_offset 36
 1583              		@ sp needed
 1584 0052 BDE8F08F 		pop	{r4, r5, r6, r7, r8, r9, r10, fp, pc}
 1585              	.LVL235:
 1586              	.L151:
 1587              		.cfi_restore_state
 1588              	.LBB51:
 1589              	.LBB50:
 1590 0056 109B     		ldr	r3, [sp, #64]
 1591 0058 0190     		str	r0, [sp, #4]
 1592 005a 0393     		str	r3, [sp, #12]
 1593 005c 0494     		str	r4, [sp, #16]
 1594 005e CDF800B0 		str	fp, [sp]
 1595 0062 CDF808A0 		str	r10, [sp, #8]
 1596 0066 4846     		mov	r0, r9
 1597              	.LVL236:
ARM GAS  C:\Users\jmdevoto\AppData\Local\Temp\ccWaR5hZ.s 			page 38


 1598 0068 4246     		mov	r2, r8
 1599 006a 2946     		mov	r1, r5
 1600 006c 3346     		mov	r3, r6
 1601 006e FFF7FEFF 		bl	convolve_complex.part.0
 1602              	.LVL237:
 1603 0072 0446     		mov	r4, r0
 1604              	.LVL238:
 1605 0074 E2E7     		b	.L145
 1606              	.LVL239:
 1607              	.L146:
 1608              	.LBE50:
 1609              	.LBE51:
 202:fft.c         **** 	ximag = calloc(n, sizeof(float));
 1610              		.loc 1 202 0
 1611 0076 2C46     		mov	r4, r5
 1612 0078 E0E7     		b	.L145
 1613              	.L147:
 1614 007a 3446     		mov	r4, r6
 1615 007c DEE7     		b	.L145
 1616              	.L148:
 1617 007e 0446     		mov	r4, r0
 1618 0080 DCE7     		b	.L145
 1619              		.cfi_endproc
 1620              	.LFE5:
 1621              		.size	convolve_real, .-convolve_real
 1622 0082 00BF     		.section	.text.convolve_complex,"ax",%progbits
 1623              		.align	2
 1624              		.global	convolve_complex
 1625              		.thumb
 1626              		.thumb_func
 1627              		.type	convolve_complex, %function
 1628              	convolve_complex:
 1629              	.LFB6:
 218:fft.c         **** 	bool status = false;
 1630              		.loc 1 218 0
 1631              		.cfi_startproc
 1632              		@ args = 20, pretend = 0, frame = 0
 1633              		@ frame_needed = 0, uses_anonymous_args = 0
 1634              	.LVL240:
 1635 0000 F0B5     		push	{r4, r5, r6, r7, lr}
 1636              		.cfi_def_cfa_offset 20
 1637              		.cfi_offset 4, -20
 1638              		.cfi_offset 5, -16
 1639              		.cfi_offset 6, -12
 1640              		.cfi_offset 7, -8
 1641              		.cfi_offset 14, -4
 218:fft.c         **** 	bool status = false;
 1642              		.loc 1 218 0
 1643 0002 099C     		ldr	r4, [sp, #36]
 1644 0004 DDF814E0 		ldr	lr, [sp, #20]
 223:fft.c         **** 		return false;
 1645              		.loc 1 223 0
 1646 0008 B4F1804F 		cmp	r4, #1073741824
 1647 000c 01D3     		bcc	.L155
 256:fft.c         **** 
 1648              		.loc 1 256 0
 1649 000e 0020     		movs	r0, #0
ARM GAS  C:\Users\jmdevoto\AppData\Local\Temp\ccWaR5hZ.s 			page 39


 1650              	.LVL241:
 1651 0010 F0BD     		pop	{r4, r5, r6, r7, pc}
 1652              	.LVL242:
 1653              	.L155:
 1654 0012 BDE8F040 		pop	{r4, r5, r6, r7, lr}
 1655              		.cfi_restore 14
 1656              		.cfi_restore 7
 1657              		.cfi_restore 6
 1658              		.cfi_restore 5
 1659              		.cfi_restore 4
 1660              		.cfi_def_cfa_offset 0
 1661              	.LVL243:
 1662 0016 FFF7FEBF 		b	convolve_complex.part.0
 1663              	.LVL244:
 1664              		.cfi_endproc
 1665              	.LFE6:
 1666              		.size	convolve_complex, .-convolve_complex
 1667 001a 00BF     		.text
 1668              	.Letext0:
 1669              		.file 2 "c:\\program files (x86)\\cypress\\psoc creator\\4.0\\psoc creator\\import\\gnu\\arm\\4.9.
 1670              		.file 3 "c:\\program files (x86)\\cypress\\psoc creator\\4.0\\psoc creator\\import\\gnu\\arm\\4.9.
 1671              		.file 4 "c:\\program files (x86)\\cypress\\psoc creator\\4.0\\psoc creator\\import\\gnu\\arm\\4.9.