ARM GAS  C:\Users\jwvance\AppData\Local\Temp\cc5XLX7P.s 			page 1


   1              		.syntax unified
   2              		.cpu cortex-m3
   3              		.fpu softvfp
   4              		.eabi_attribute 20, 1
   5              		.eabi_attribute 21, 1
   6              		.eabi_attribute 23, 3
   7              		.eabi_attribute 24, 1
   8              		.eabi_attribute 25, 1
   9              		.eabi_attribute 26, 1
  10              		.eabi_attribute 30, 2
  11              		.eabi_attribute 34, 1
  12              		.eabi_attribute 18, 4
  13              		.thumb
  14              		.file	"hbird.c"
  15              		.text
  16              	.Ltext0:
  17              		.cfi_sections	.debug_frame
  18              		.section	.text.map,"ax",%progbits
  19              		.align	2
  20              		.global	map
  21              		.thumb
  22              		.thumb_func
  23              		.type	map, %function
  24              	map:
  25              	.LFB56:
  26              		.file 1 "hbird.c"
   1:hbird.c       **** /* 
   2:hbird.c       **** *   hbird.c
   3:hbird.c       **** *   
   4:hbird.c       **** */
   5:hbird.c       **** #include "hbird.h"
   6:hbird.c       **** 
   7:hbird.c       **** long map(long x, long in_min, long in_max, long out_min, long out_max)
   8:hbird.c       **** {
  27              		.loc 1 8 0
  28              		.cfi_startproc
  29              		@ args = 4, pretend = 0, frame = 0
  30              		@ frame_needed = 0, uses_anonymous_args = 0
  31              		@ link register save eliminated.
  32              	.LVL0:
  33 0000 10B4     		push	{r4}
  34              		.cfi_def_cfa_offset 4
  35              		.cfi_offset 4, -4
  36              		.loc 1 8 0
  37 0002 019C     		ldr	r4, [sp, #4]
   9:hbird.c       ****   return (x - in_min) * (out_max - out_min) / (in_max - in_min) + out_min;
  38              		.loc 1 9 0
  39 0004 401A     		subs	r0, r0, r1
  40              	.LVL1:
  41 0006 E41A     		subs	r4, r4, r3
  42 0008 04FB00F0 		mul	r0, r4, r0
  43 000c 521A     		subs	r2, r2, r1
  44              	.LVL2:
  45 000e 90FBF2F0 		sdiv	r0, r0, r2
  10:hbird.c       **** }
  46              		.loc 1 10 0
  47 0012 5DF8044B 		ldr	r4, [sp], #4
ARM GAS  C:\Users\jwvance\AppData\Local\Temp\cc5XLX7P.s 			page 2


  48              		.cfi_restore 4
  49              		.cfi_def_cfa_offset 0
  50              	.LVL3:
  51 0016 1844     		add	r0, r0, r3
  52 0018 7047     		bx	lr
  53              		.cfi_endproc
  54              	.LFE56:
  55              		.size	map, .-map
  56 001a 00BF     		.section	.text.UpdateScaleLCD,"ax",%progbits
  57              		.align	2
  58              		.global	UpdateScaleLCD
  59              		.thumb
  60              		.thumb_func
  61              		.type	UpdateScaleLCD, %function
  62              	UpdateScaleLCD:
  63              	.LFB57:
  11:hbird.c       **** 
  12:hbird.c       **** enum MusicScale UpdateScaleLCD(uint16 currADC)
  13:hbird.c       **** {
  64              		.loc 1 13 0
  65              		.cfi_startproc
  66              		@ args = 0, pretend = 0, frame = 0
  67              		@ frame_needed = 0, uses_anonymous_args = 0
  68              	.LVL4:
  69 0000 10B5     		push	{r4, lr}
  70              		.cfi_def_cfa_offset 8
  71              		.cfi_offset 4, -8
  72              		.cfi_offset 14, -4
  73              		.loc 1 13 0
  74 0002 0446     		mov	r4, r0
  14:hbird.c       ****     // Sets the LCD to the right position
  15:hbird.c       ****     CharLCD_Position(0,14);
  75              		.loc 1 15 0
  76 0004 0E21     		movs	r1, #14
  77 0006 0020     		movs	r0, #0
  78              	.LVL5:
  79 0008 FFF7FEFF 		bl	CharLCD_Position
  80              	.LVL6:
  16:hbird.c       ****     CharLCD_PrintString("      ");  //clear 6 chars
  81              		.loc 1 16 0
  82 000c 1D48     		ldr	r0, .L15
  83 000e FFF7FEFF 		bl	CharLCD_PrintString
  84              	.LVL7:
  17:hbird.c       ****     CharLCD_Position(0,14);
  85              		.loc 1 17 0
  86 0012 0020     		movs	r0, #0
  87 0014 0E21     		movs	r1, #14
  88 0016 FFF7FEFF 		bl	CharLCD_Position
  89              	.LVL8:
  90              	.LBB10:
  91              	.LBB11:
   9:hbird.c       **** }
  92              		.loc 1 9 0
  93 001a 1B4B     		ldr	r3, .L15+4
  94 001c 04EB8400 		add	r0, r4, r4, lsl #2
  95 0020 83FB0023 		smull	r2, r3, r3, r0
  96 0024 C417     		asrs	r4, r0, #31
ARM GAS  C:\Users\jwvance\AppData\Local\Temp\cc5XLX7P.s 			page 3


  97              	.LVL9:
  98 0026 1844     		add	r0, r0, r3
  99 0028 C4EBE010 		rsb	r0, r4, r0, asr #7
 100              	.LBE11:
 101              	.LBE10:
  18:hbird.c       ****     //maps ADC val to one of the scales
  19:hbird.c       ****  
  20:hbird.c       ****     enum MusicScale scale = map(currADC, 0, 255, 0, 5);
 102              		.loc 1 20 0
 103 002c C4B2     		uxtb	r4, r0
 104              	.LVL10:
  21:hbird.c       ****     // Prints the string to the LCD
  22:hbird.c       ****     switch(scale){
 105              		.loc 1 22 0
 106 002e 062C     		cmp	r4, #6
 107 0030 08D8     		bhi	.L4
 108 0032 DFE804F0 		tbb	[pc, r4]
 109              	.L6:
 110 0036 09       		.byte	(.L5-.L6)/2
 111 0037 0E       		.byte	(.L7-.L6)/2
 112 0038 13       		.byte	(.L8-.L6)/2
 113 0039 18       		.byte	(.L9-.L6)/2
 114 003a 1D       		.byte	(.L10-.L6)/2
 115 003b 22       		.byte	(.L11-.L6)/2
 116 003c 04       		.byte	(.L12-.L6)/2
 117 003d 00       		.p2align 1
 118              	.L12:
  23:hbird.c       ****         case MAJOR:
  24:hbird.c       ****             CharLCD_PrintString("Major");
  25:hbird.c       ****             break;        
  26:hbird.c       ****         case NATURAL_MINOR:
  27:hbird.c       ****             CharLCD_PrintString("NatMin");
  28:hbird.c       ****             break;        
  29:hbird.c       ****         case MAJOR_PENT:
  30:hbird.c       ****             CharLCD_PrintString("PntMaj");
  31:hbird.c       ****             break;        
  32:hbird.c       ****         case MINOR_PENT:
  33:hbird.c       ****             CharLCD_PrintString("PntMin");
  34:hbird.c       ****             break;        
  35:hbird.c       ****         case WHOLE_TONE:
  36:hbird.c       ****             CharLCD_PrintString("Whole");
  37:hbird.c       ****             break;        
  38:hbird.c       ****         case BLUES:
  39:hbird.c       ****             CharLCD_PrintString("Blues");
  40:hbird.c       ****             break;
  41:hbird.c       ****         case CHROMATIC:
  42:hbird.c       ****             CharLCD_PrintString("Chroma");
 119              		.loc 1 42 0
 120 003e 1348     		ldr	r0, .L15+8
 121 0040 FFF7FEFF 		bl	CharLCD_PrintString
 122              	.LVL11:
 123              	.L4:
  43:hbird.c       ****             break;
  44:hbird.c       ****     }
  45:hbird.c       ****     // Returns the current scale to main
  46:hbird.c       ****     return scale;
  47:hbird.c       **** }
ARM GAS  C:\Users\jwvance\AppData\Local\Temp\cc5XLX7P.s 			page 4


 124              		.loc 1 47 0
 125 0044 2046     		mov	r0, r4
 126 0046 10BD     		pop	{r4, pc}
 127              	.LVL12:
 128              	.L5:
  24:hbird.c       ****             break;        
 129              		.loc 1 24 0
 130 0048 1148     		ldr	r0, .L15+12
 131 004a FFF7FEFF 		bl	CharLCD_PrintString
 132              	.LVL13:
 133              		.loc 1 47 0
 134 004e 2046     		mov	r0, r4
 135 0050 10BD     		pop	{r4, pc}
 136              	.LVL14:
 137              	.L7:
  27:hbird.c       ****             break;        
 138              		.loc 1 27 0
 139 0052 1048     		ldr	r0, .L15+16
 140 0054 FFF7FEFF 		bl	CharLCD_PrintString
 141              	.LVL15:
 142              		.loc 1 47 0
 143 0058 2046     		mov	r0, r4
 144 005a 10BD     		pop	{r4, pc}
 145              	.LVL16:
 146              	.L8:
  30:hbird.c       ****             break;        
 147              		.loc 1 30 0
 148 005c 0E48     		ldr	r0, .L15+20
 149 005e FFF7FEFF 		bl	CharLCD_PrintString
 150              	.LVL17:
 151              		.loc 1 47 0
 152 0062 2046     		mov	r0, r4
 153 0064 10BD     		pop	{r4, pc}
 154              	.LVL18:
 155              	.L9:
  33:hbird.c       ****             break;        
 156              		.loc 1 33 0
 157 0066 0D48     		ldr	r0, .L15+24
 158 0068 FFF7FEFF 		bl	CharLCD_PrintString
 159              	.LVL19:
 160              		.loc 1 47 0
 161 006c 2046     		mov	r0, r4
 162 006e 10BD     		pop	{r4, pc}
 163              	.LVL20:
 164              	.L10:
  36:hbird.c       ****             break;        
 165              		.loc 1 36 0
 166 0070 0B48     		ldr	r0, .L15+28
 167 0072 FFF7FEFF 		bl	CharLCD_PrintString
 168              	.LVL21:
 169              		.loc 1 47 0
 170 0076 2046     		mov	r0, r4
 171 0078 10BD     		pop	{r4, pc}
 172              	.LVL22:
 173              	.L11:
  39:hbird.c       ****             break;
 174              		.loc 1 39 0
ARM GAS  C:\Users\jwvance\AppData\Local\Temp\cc5XLX7P.s 			page 5


 175 007a 0A48     		ldr	r0, .L15+32
 176 007c FFF7FEFF 		bl	CharLCD_PrintString
 177              	.LVL23:
 178              		.loc 1 47 0
 179 0080 2046     		mov	r0, r4
 180 0082 10BD     		pop	{r4, pc}
 181              	.LVL24:
 182              	.L16:
 183              		.align	2
 184              	.L15:
 185 0084 00000000 		.word	.LC0
 186 0088 81808080 		.word	-2139062143
 187 008c 38000000 		.word	.LC7
 188 0090 08000000 		.word	.LC1
 189 0094 10000000 		.word	.LC2
 190 0098 18000000 		.word	.LC3
 191 009c 20000000 		.word	.LC4
 192 00a0 28000000 		.word	.LC5
 193 00a4 30000000 		.word	.LC6
 194              		.cfi_endproc
 195              	.LFE57:
 196              		.size	UpdateScaleLCD, .-UpdateScaleLCD
 197              		.section	.text.UpdateKeyLCD,"ax",%progbits
 198              		.align	2
 199              		.global	UpdateKeyLCD
 200              		.thumb
 201              		.thumb_func
 202              		.type	UpdateKeyLCD, %function
 203              	UpdateKeyLCD:
 204              	.LFB58:
  48:hbird.c       **** 
  49:hbird.c       **** enum MusicKey UpdateKeyLCD(uint16 currADC)
  50:hbird.c       **** {   
 205              		.loc 1 50 0
 206              		.cfi_startproc
 207              		@ args = 0, pretend = 0, frame = 0
 208              		@ frame_needed = 0, uses_anonymous_args = 0
 209              	.LVL25:
 210              	.LBB12:
 211              	.LBB13:
   9:hbird.c       **** }
 212              		.loc 1 9 0
 213 0000 00EB8002 		add	r2, r0, r0, lsl #2
 214 0004 0E4B     		ldr	r3, .L19
 215 0006 00EB4200 		add	r0, r0, r2, lsl #1
 216              	.LVL26:
 217 000a 83FB0023 		smull	r2, r3, r3, r0
 218              	.LBE13:
 219              	.LBE12:
 220              		.loc 1 50 0
 221 000e 10B5     		push	{r4, lr}
 222              		.cfi_def_cfa_offset 8
 223              		.cfi_offset 4, -8
 224              		.cfi_offset 14, -4
 225              	.LBB17:
 226              	.LBB14:
   9:hbird.c       **** }
ARM GAS  C:\Users\jwvance\AppData\Local\Temp\cc5XLX7P.s 			page 6


 227              		.loc 1 9 0
 228 0010 0344     		add	r3, r3, r0
 229              	.LBE14:
 230              	.LBE17:
  51:hbird.c       ****     // maps ADC value to one of the keys
  52:hbird.c       ****     enum MusicKey key = map(currADC, 0, 255, 0, 11);
  53:hbird.c       ****     
  54:hbird.c       ****     // Prints the string to the LCD, borrowing funciton from midi.c
  55:hbird.c       ****     CharLCD_PosPrintString(0,11,"  ")
 231              		.loc 1 55 0
 232 0012 0B21     		movs	r1, #11
 233              	.LBB18:
 234              	.LBB15:
   9:hbird.c       **** }
 235              		.loc 1 9 0
 236 0014 C417     		asrs	r4, r0, #31
 237              	.LBE15:
 238              	.LBE18:
 239              		.loc 1 55 0
 240 0016 0020     		movs	r0, #0
 241              	.LBB19:
 242              	.LBB16:
   9:hbird.c       **** }
 243              		.loc 1 9 0
 244 0018 C4EBE314 		rsb	r4, r4, r3, asr #7
 245              	.LVL27:
 246              	.LBE16:
 247              	.LBE19:
 248              		.loc 1 55 0
 249 001c FFF7FEFF 		bl	CharLCD_Position
 250              	.LVL28:
 251 0020 0848     		ldr	r0, .L19+4
 252 0022 FFF7FEFF 		bl	CharLCD_PrintString
 253              	.LVL29:
  56:hbird.c       ****     CharLCD_PosPrintString(0,11,midi_note_basename(key));
 254              		.loc 1 56 0
 255 0026 E4B2     		uxtb	r4, r4
 256 0028 0B21     		movs	r1, #11
 257 002a 0020     		movs	r0, #0
 258 002c FFF7FEFF 		bl	CharLCD_Position
 259              	.LVL30:
 260 0030 2046     		mov	r0, r4
 261 0032 FFF7FEFF 		bl	midi_note_basename
 262              	.LVL31:
 263 0036 FFF7FEFF 		bl	CharLCD_PrintString
 264              	.LVL32:
  57:hbird.c       ****     
  58:hbird.c       ****     // Return the updated key to main
  59:hbird.c       ****     return key;
  60:hbird.c       **** }
 265              		.loc 1 60 0
 266 003a 2046     		mov	r0, r4
 267 003c 10BD     		pop	{r4, pc}
 268              	.LVL33:
 269              	.L20:
 270 003e 00BF     		.align	2
 271              	.L19:
ARM GAS  C:\Users\jwvance\AppData\Local\Temp\cc5XLX7P.s 			page 7


 272 0040 81808080 		.word	-2139062143
 273 0044 40000000 		.word	.LC8
 274              		.cfi_endproc
 275              	.LFE58:
 276              		.size	UpdateKeyLCD, .-UpdateKeyLCD
 277              		.global	__aeabi_i2f
 278              		.global	__aeabi_fdiv
 279              		.global	__aeabi_f2uiz
 280              		.section	.text.initDisplay,"ax",%progbits
 281              		.align	2
 282              		.global	initDisplay
 283              		.thumb
 284              		.thumb_func
 285              		.type	initDisplay, %function
 286              	initDisplay:
 287              	.LFB59:
  61:hbird.c       **** 
  62:hbird.c       **** void initDisplay(void){
 288              		.loc 1 62 0
 289              		.cfi_startproc
 290              		@ args = 0, pretend = 0, frame = 0
 291              		@ frame_needed = 0, uses_anonymous_args = 0
 292 0000 38B5     		push	{r3, r4, r5, lr}
 293              		.cfi_def_cfa_offset 16
 294              		.cfi_offset 3, -16
 295              		.cfi_offset 4, -12
 296              		.cfi_offset 5, -8
 297              		.cfi_offset 14, -4
  63:hbird.c       ****     
  64:hbird.c       ****     CharLCD_ClearDisplay();
 298              		.loc 1 64 0
 299 0002 0120     		movs	r0, #1
 300 0004 FFF7FEFF 		bl	CharLCD_WriteControl
 301              	.LVL34:
  65:hbird.c       ****     
  66:hbird.c       ****     UpdateKeyLCD(UI_ADC_GetResult16(KEY));   //update key
 302              		.loc 1 66 0
 303 0008 0020     		movs	r0, #0
 304 000a FFF7FEFF 		bl	UI_ADC_GetResult16
 305              	.LVL35:
 306 000e 80B2     		uxth	r0, r0
 307 0010 FFF7FEFF 		bl	UpdateKeyLCD
 308              	.LVL36:
  67:hbird.c       ****     UpdateScaleLCD(UI_ADC_GetResult16(SCALE));   //update scale
 309              		.loc 1 67 0
 310 0014 0120     		movs	r0, #1
 311 0016 FFF7FEFF 		bl	UI_ADC_GetResult16
 312              	.LVL37:
  68:hbird.c       ****      
  69:hbird.c       ****     CharLCD_PosPrintString(2,11,"          ");
 313              		.loc 1 69 0
 314 001a 264D     		ldr	r5, .L23
  67:hbird.c       ****     UpdateScaleLCD(UI_ADC_GetResult16(SCALE));   //update scale
 315              		.loc 1 67 0
 316 001c 80B2     		uxth	r0, r0
 317 001e FFF7FEFF 		bl	UpdateScaleLCD
 318              	.LVL38:
ARM GAS  C:\Users\jwvance\AppData\Local\Temp\cc5XLX7P.s 			page 8


 319              		.loc 1 69 0
 320 0022 0B21     		movs	r1, #11
 321 0024 0220     		movs	r0, #2
 322 0026 FFF7FEFF 		bl	CharLCD_Position
 323              	.LVL39:
 324 002a 2846     		mov	r0, r5
 325 002c FFF7FEFF 		bl	CharLCD_PrintString
 326              	.LVL40:
  70:hbird.c       ****     CharLCD_PosPrintString(2,11,"Hist:");
 327              		.loc 1 70 0
 328 0030 0B21     		movs	r1, #11
 329 0032 0220     		movs	r0, #2
 330 0034 FFF7FEFF 		bl	CharLCD_Position
 331              	.LVL41:
 332 0038 1F48     		ldr	r0, .L23+4
 333 003a FFF7FEFF 		bl	CharLCD_PrintString
 334              	.LVL42:
  71:hbird.c       ****         
  72:hbird.c       ****     float tempHyst = (float)map(UI_ADC_GetResult16(HYST),0,255,50,100);
 335              		.loc 1 72 0
 336 003e 0220     		movs	r0, #2
 337 0040 FFF7FEFF 		bl	UI_ADC_GetResult16
 338              	.LVL43:
 339              	.LBB20:
 340              	.LBB21:
   9:hbird.c       **** }
 341              		.loc 1 9 0
 342 0044 3223     		movs	r3, #50
 343 0046 03FB00F0 		mul	r0, r3, r0
 344              	.LVL44:
 345 004a 1C4C     		ldr	r4, .L23+8
 346 004c C317     		asrs	r3, r0, #31
 347 004e 84FB0012 		smull	r1, r2, r4, r0
 348 0052 1044     		add	r0, r0, r2
 349 0054 C3EBE010 		rsb	r0, r3, r0, asr #7
 350              	.LBE21:
 351              	.LBE20:
 352              		.loc 1 72 0
 353 0058 3230     		adds	r0, r0, #50
 354 005a FFF7FEFF 		bl	__aeabi_i2f
 355              	.LVL45:
  73:hbird.c       ****     
  74:hbird.c       ****     tempHyst /= 100;
 356              		.loc 1 74 0
 357 005e 1849     		ldr	r1, .L23+12
 358 0060 FFF7FEFF 		bl	__aeabi_fdiv
 359              	.LVL46:
  75:hbird.c       ****     
  76:hbird.c       ****     CharLCD_PrintNumber(tempHyst);
 360              		.loc 1 76 0
 361 0064 FFF7FEFF 		bl	__aeabi_f2uiz
 362              	.LVL47:
 363 0068 80B2     		uxth	r0, r0
 364 006a FFF7FEFF 		bl	CharLCD_PrintNumber
 365              	.LVL48:
  77:hbird.c       ****     CharLCD_PrintString("%");
 366              		.loc 1 77 0
ARM GAS  C:\Users\jwvance\AppData\Local\Temp\cc5XLX7P.s 			page 9


 367 006e 1548     		ldr	r0, .L23+16
 368 0070 FFF7FEFF 		bl	CharLCD_PrintString
 369              	.LVL49:
  78:hbird.c       ****     
  79:hbird.c       **** 
  80:hbird.c       ****     CharLCD_PosPrintString(2,0,"          ");
 370              		.loc 1 80 0
 371 0074 0021     		movs	r1, #0
 372 0076 0220     		movs	r0, #2
 373 0078 FFF7FEFF 		bl	CharLCD_Position
 374              	.LVL50:
 375 007c 2846     		mov	r0, r5
 376 007e FFF7FEFF 		bl	CharLCD_PrintString
 377              	.LVL51:
  81:hbird.c       ****     CharLCD_PosPrintString(2,0,"Vel:"); 
 378              		.loc 1 81 0
 379 0082 0021     		movs	r1, #0
 380 0084 0220     		movs	r0, #2
 381 0086 FFF7FEFF 		bl	CharLCD_Position
 382              	.LVL52:
 383 008a 0F48     		ldr	r0, .L23+20
 384 008c FFF7FEFF 		bl	CharLCD_PrintString
 385              	.LVL53:
  82:hbird.c       ****     CharLCD_PrintNumber(map(UI_ADC_GetResult16(VELO),0,255,0,100));   
 386              		.loc 1 82 0
 387 0090 0320     		movs	r0, #3
 388 0092 FFF7FEFF 		bl	UI_ADC_GetResult16
 389              	.LVL54:
 390              	.LBB22:
 391              	.LBB23:
   9:hbird.c       **** }
 392              		.loc 1 9 0
 393 0096 6423     		movs	r3, #100
 394 0098 03FB00F0 		mul	r0, r3, r0
 395              	.LVL55:
 396 009c 84FB0034 		smull	r3, r4, r4, r0
 397 00a0 C317     		asrs	r3, r0, #31
 398 00a2 2044     		add	r0, r0, r4
 399 00a4 C3EBE010 		rsb	r0, r3, r0, asr #7
 400              	.LBE23:
 401              	.LBE22:
 402              		.loc 1 82 0
 403 00a8 80B2     		uxth	r0, r0
  83:hbird.c       **** }
 404              		.loc 1 83 0
 405 00aa BDE83840 		pop	{r3, r4, r5, lr}
 406              		.cfi_restore 14
 407              		.cfi_restore 5
 408              		.cfi_restore 4
 409              		.cfi_restore 3
 410              		.cfi_def_cfa_offset 0
  82:hbird.c       ****     CharLCD_PrintNumber(map(UI_ADC_GetResult16(VELO),0,255,0,100));   
 411              		.loc 1 82 0
 412 00ae FFF7FEBF 		b	CharLCD_PrintNumber
 413              	.LVL56:
 414              	.L24:
 415 00b2 00BF     		.align	2
ARM GAS  C:\Users\jwvance\AppData\Local\Temp\cc5XLX7P.s 			page 10


 416              	.L23:
 417 00b4 44000000 		.word	.LC9
 418 00b8 50000000 		.word	.LC10
 419 00bc 81808080 		.word	-2139062143
 420 00c0 0000C842 		.word	1120403456
 421 00c4 58000000 		.word	.LC11
 422 00c8 5C000000 		.word	.LC12
 423              		.cfi_endproc
 424              	.LFE59:
 425              		.size	initDisplay, .-initDisplay
 426              		.section	.rodata.str1.4,"aMS",%progbits,1
 427              		.align	2
 428              	.LC0:
 429 0000 20202020 		.ascii	"      \000"
 429      202000
 430 0007 00       		.space	1
 431              	.LC1:
 432 0008 4D616A6F 		.ascii	"Major\000"
 432      7200
 433 000e 0000     		.space	2
 434              	.LC2:
 435 0010 4E61744D 		.ascii	"NatMin\000"
 435      696E00
 436 0017 00       		.space	1
 437              	.LC3:
 438 0018 506E744D 		.ascii	"PntMaj\000"
 438      616A00
 439 001f 00       		.space	1
 440              	.LC4:
 441 0020 506E744D 		.ascii	"PntMin\000"
 441      696E00
 442 0027 00       		.space	1
 443              	.LC5:
 444 0028 57686F6C 		.ascii	"Whole\000"
 444      6500
 445 002e 0000     		.space	2
 446              	.LC6:
 447 0030 426C7565 		.ascii	"Blues\000"
 447      7300
 448 0036 0000     		.space	2
 449              	.LC7:
 450 0038 4368726F 		.ascii	"Chroma\000"
 450      6D6100
 451 003f 00       		.space	1
 452              	.LC8:
 453 0040 202000   		.ascii	"  \000"
 454 0043 00       		.space	1
 455              	.LC9:
 456 0044 20202020 		.ascii	"          \000"
 456      20202020 
 456      202000
 457 004f 00       		.space	1
 458              	.LC10:
 459 0050 48697374 		.ascii	"Hist:\000"
 459      3A00
 460 0056 0000     		.space	2
 461              	.LC11:
ARM GAS  C:\Users\jwvance\AppData\Local\Temp\cc5XLX7P.s 			page 11


 462 0058 2500     		.ascii	"%\000"
 463 005a 0000     		.space	2
 464              	.LC12:
 465 005c 56656C3A 		.ascii	"Vel:\000"
 465      00
 466 0061 000000   		.text
 467              	.Letext0:
 468              		.file 2 "c:\\program files (x86)\\cypress\\psoc creator\\4.0\\psoc creator\\import\\gnu\\arm\\4.9.
 469              		.file 3 "c:\\program files (x86)\\cypress\\psoc creator\\4.0\\psoc creator\\import\\gnu\\arm\\4.9.
 470              		.file 4 "Generated_Source\\PSoC5/cytypes.h"
 471              		.file 5 "./midi.h"
 472              		.file 6 "Generated_Source\\PSoC5/CharLCD_I2C.h"
 473              		.file 7 "Generated_Source\\PSoC5/UI_ADC.h"
 474              		.file 8 "Generated_Source\\PSoC5/core_cm3.h"