ARM GAS  C:\Users\mgronber\AppData\Local\Temp\ccYajrXm.s 			page 1


   1              		.syntax unified
   2              		.cpu cortex-m3
   3              		.fpu softvfp
   4              		.eabi_attribute 20, 1
   5              		.eabi_attribute 21, 1
   6              		.eabi_attribute 23, 3
   7              		.eabi_attribute 24, 1
   8              		.eabi_attribute 25, 1
   9              		.eabi_attribute 26, 1
  10              		.eabi_attribute 30, 2
  11              		.eabi_attribute 34, 1
  12              		.eabi_attribute 18, 4
  13              		.thumb
  14              		.file	"I2C_CharLCD.c"
  15              		.text
  16              	.Ltext0:
  17              		.cfi_sections	.debug_frame
  18              		.section	.text.I2C_CharLCD_Init,"ax",%progbits
  19              		.align	2
  20              		.global	I2C_CharLCD_Init
  21              		.thumb
  22              		.thumb_func
  23              		.type	I2C_CharLCD_Init, %function
  24              	I2C_CharLCD_Init:
  25              	.LFB0:
  26              		.file 1 "Generated_Source\\PSoC5\\I2C_CharLCD.c"
   1:Generated_Source\PSoC5/I2C_CharLCD.c **** /*******************************************************************************
   2:Generated_Source\PSoC5/I2C_CharLCD.c **** * File Name: I2C_CharLCD.c
   3:Generated_Source\PSoC5/I2C_CharLCD.c **** * Version 3.50
   4:Generated_Source\PSoC5/I2C_CharLCD.c **** *
   5:Generated_Source\PSoC5/I2C_CharLCD.c **** * Description:
   6:Generated_Source\PSoC5/I2C_CharLCD.c **** *  This file provides the source code of APIs for the I2C component.
   7:Generated_Source\PSoC5/I2C_CharLCD.c **** *  The actual protocol and operation code resides in the interrupt service
   8:Generated_Source\PSoC5/I2C_CharLCD.c **** *  routine file.
   9:Generated_Source\PSoC5/I2C_CharLCD.c **** *
  10:Generated_Source\PSoC5/I2C_CharLCD.c **** *******************************************************************************
  11:Generated_Source\PSoC5/I2C_CharLCD.c **** * Copyright 2008-2015, Cypress Semiconductor Corporation. All rights reserved.
  12:Generated_Source\PSoC5/I2C_CharLCD.c **** * You may use this file only in accordance with the license, terms, conditions,
  13:Generated_Source\PSoC5/I2C_CharLCD.c **** * disclaimers, and limitations in the end user license agreement accompanying
  14:Generated_Source\PSoC5/I2C_CharLCD.c **** * the software package with which this file was provided.
  15:Generated_Source\PSoC5/I2C_CharLCD.c **** *******************************************************************************/
  16:Generated_Source\PSoC5/I2C_CharLCD.c **** 
  17:Generated_Source\PSoC5/I2C_CharLCD.c **** #include "I2C_CharLCD_PVT.h"
  18:Generated_Source\PSoC5/I2C_CharLCD.c **** 
  19:Generated_Source\PSoC5/I2C_CharLCD.c **** 
  20:Generated_Source\PSoC5/I2C_CharLCD.c **** /**********************************
  21:Generated_Source\PSoC5/I2C_CharLCD.c **** *      System variables
  22:Generated_Source\PSoC5/I2C_CharLCD.c **** **********************************/
  23:Generated_Source\PSoC5/I2C_CharLCD.c **** 
  24:Generated_Source\PSoC5/I2C_CharLCD.c **** uint8 I2C_CharLCD_initVar = 0u; /* Defines if component was initialized */
  25:Generated_Source\PSoC5/I2C_CharLCD.c **** 
  26:Generated_Source\PSoC5/I2C_CharLCD.c **** volatile uint8 I2C_CharLCD_state;  /* Current state of I2C FSM */
  27:Generated_Source\PSoC5/I2C_CharLCD.c **** 
  28:Generated_Source\PSoC5/I2C_CharLCD.c **** 
  29:Generated_Source\PSoC5/I2C_CharLCD.c **** /*******************************************************************************
  30:Generated_Source\PSoC5/I2C_CharLCD.c **** * Function Name: I2C_CharLCD_Init
  31:Generated_Source\PSoC5/I2C_CharLCD.c **** ********************************************************************************
ARM GAS  C:\Users\mgronber\AppData\Local\Temp\ccYajrXm.s 			page 2


  32:Generated_Source\PSoC5/I2C_CharLCD.c **** *
  33:Generated_Source\PSoC5/I2C_CharLCD.c **** * Summary:
  34:Generated_Source\PSoC5/I2C_CharLCD.c **** *  Initializes I2C registers with initial values provided from customizer.
  35:Generated_Source\PSoC5/I2C_CharLCD.c **** *
  36:Generated_Source\PSoC5/I2C_CharLCD.c **** * Parameters:
  37:Generated_Source\PSoC5/I2C_CharLCD.c **** *  None.
  38:Generated_Source\PSoC5/I2C_CharLCD.c **** *
  39:Generated_Source\PSoC5/I2C_CharLCD.c **** * Return:
  40:Generated_Source\PSoC5/I2C_CharLCD.c **** *  None.
  41:Generated_Source\PSoC5/I2C_CharLCD.c **** *
  42:Generated_Source\PSoC5/I2C_CharLCD.c **** * Global variables:
  43:Generated_Source\PSoC5/I2C_CharLCD.c **** *  None.
  44:Generated_Source\PSoC5/I2C_CharLCD.c **** *
  45:Generated_Source\PSoC5/I2C_CharLCD.c **** * Reentrant:
  46:Generated_Source\PSoC5/I2C_CharLCD.c **** *  No.
  47:Generated_Source\PSoC5/I2C_CharLCD.c **** *
  48:Generated_Source\PSoC5/I2C_CharLCD.c **** *******************************************************************************/
  49:Generated_Source\PSoC5/I2C_CharLCD.c **** void I2C_CharLCD_Init(void) 
  50:Generated_Source\PSoC5/I2C_CharLCD.c **** {
  27              		.loc 1 50 0
  28              		.cfi_startproc
  29              		@ args = 0, pretend = 0, frame = 0
  30              		@ frame_needed = 0, uses_anonymous_args = 0
  31 0000 2DE9F843 		push	{r3, r4, r5, r6, r7, r8, r9, lr}
  32              		.cfi_def_cfa_offset 32
  33              		.cfi_offset 3, -32
  34              		.cfi_offset 4, -28
  35              		.cfi_offset 5, -24
  36              		.cfi_offset 6, -20
  37              		.cfi_offset 7, -16
  38              		.cfi_offset 8, -12
  39              		.cfi_offset 9, -8
  40              		.cfi_offset 14, -4
  51:Generated_Source\PSoC5/I2C_CharLCD.c **** #if (I2C_CharLCD_FF_IMPLEMENTED)
  52:Generated_Source\PSoC5/I2C_CharLCD.c ****     /* Configure fixed function block */
  53:Generated_Source\PSoC5/I2C_CharLCD.c ****     I2C_CharLCD_CFG_REG  = I2C_CharLCD_DEFAULT_CFG;
  41              		.loc 1 53 0
  42 0004 1648     		ldr	r0, .L3
  54:Generated_Source\PSoC5/I2C_CharLCD.c ****     I2C_CharLCD_XCFG_REG = I2C_CharLCD_DEFAULT_XCFG;
  55:Generated_Source\PSoC5/I2C_CharLCD.c ****     I2C_CharLCD_ADDR_REG = I2C_CharLCD_DEFAULT_ADDR;
  56:Generated_Source\PSoC5/I2C_CharLCD.c ****     I2C_CharLCD_CLKDIV1_REG = LO8(I2C_CharLCD_DEFAULT_DIVIDE_FACTOR);
  57:Generated_Source\PSoC5/I2C_CharLCD.c ****     I2C_CharLCD_CLKDIV2_REG = HI8(I2C_CharLCD_DEFAULT_DIVIDE_FACTOR);
  58:Generated_Source\PSoC5/I2C_CharLCD.c **** 
  59:Generated_Source\PSoC5/I2C_CharLCD.c **** #else
  60:Generated_Source\PSoC5/I2C_CharLCD.c ****     uint8 intState;
  61:Generated_Source\PSoC5/I2C_CharLCD.c **** 
  62:Generated_Source\PSoC5/I2C_CharLCD.c ****     /* Configure control and interrupt sources */
  63:Generated_Source\PSoC5/I2C_CharLCD.c ****     I2C_CharLCD_CFG_REG      = I2C_CharLCD_DEFAULT_CFG;
  64:Generated_Source\PSoC5/I2C_CharLCD.c ****     I2C_CharLCD_INT_MASK_REG = I2C_CharLCD_DEFAULT_INT_MASK;
  65:Generated_Source\PSoC5/I2C_CharLCD.c **** 
  66:Generated_Source\PSoC5/I2C_CharLCD.c ****     /* Enable interrupt generation in status */
  67:Generated_Source\PSoC5/I2C_CharLCD.c ****     intState = CyEnterCriticalSection();
  68:Generated_Source\PSoC5/I2C_CharLCD.c ****     I2C_CharLCD_INT_ENABLE_REG |= I2C_CharLCD_INTR_ENABLE;
  69:Generated_Source\PSoC5/I2C_CharLCD.c ****     CyExitCriticalSection(intState);
  70:Generated_Source\PSoC5/I2C_CharLCD.c **** 
  71:Generated_Source\PSoC5/I2C_CharLCD.c ****     /* Configure bit counter */
  72:Generated_Source\PSoC5/I2C_CharLCD.c ****     #if (I2C_CharLCD_MODE_SLAVE_ENABLED)
ARM GAS  C:\Users\mgronber\AppData\Local\Temp\ccYajrXm.s 			page 3


  73:Generated_Source\PSoC5/I2C_CharLCD.c ****         I2C_CharLCD_PERIOD_REG = I2C_CharLCD_DEFAULT_PERIOD;
  74:Generated_Source\PSoC5/I2C_CharLCD.c ****     #endif  /* (I2C_CharLCD_MODE_SLAVE_ENABLED) */
  75:Generated_Source\PSoC5/I2C_CharLCD.c **** 
  76:Generated_Source\PSoC5/I2C_CharLCD.c ****     /* Configure clock generator */
  77:Generated_Source\PSoC5/I2C_CharLCD.c ****     #if (I2C_CharLCD_MODE_MASTER_ENABLED)
  78:Generated_Source\PSoC5/I2C_CharLCD.c ****         I2C_CharLCD_MCLK_PRD_REG = I2C_CharLCD_DEFAULT_MCLK_PRD;
  79:Generated_Source\PSoC5/I2C_CharLCD.c ****         I2C_CharLCD_MCLK_CMP_REG = I2C_CharLCD_DEFAULT_MCLK_CMP;
  80:Generated_Source\PSoC5/I2C_CharLCD.c ****     #endif /* (I2C_CharLCD_MODE_MASTER_ENABLED) */
  81:Generated_Source\PSoC5/I2C_CharLCD.c **** #endif /* (I2C_CharLCD_FF_IMPLEMENTED) */
  82:Generated_Source\PSoC5/I2C_CharLCD.c **** 
  83:Generated_Source\PSoC5/I2C_CharLCD.c **** #if (I2C_CharLCD_TIMEOUT_ENABLED)
  84:Generated_Source\PSoC5/I2C_CharLCD.c ****     I2C_CharLCD_TimeoutInit();
  85:Generated_Source\PSoC5/I2C_CharLCD.c **** #endif /* (I2C_CharLCD_TIMEOUT_ENABLED) */
  86:Generated_Source\PSoC5/I2C_CharLCD.c **** 
  87:Generated_Source\PSoC5/I2C_CharLCD.c ****     /* Configure internal interrupt */
  88:Generated_Source\PSoC5/I2C_CharLCD.c ****     CyIntDisable    (I2C_CharLCD_ISR_NUMBER);
  43              		.loc 1 88 0
  44 0006 174B     		ldr	r3, .L3+4
  55:Generated_Source\PSoC5/I2C_CharLCD.c ****     I2C_CharLCD_CLKDIV1_REG = LO8(I2C_CharLCD_DEFAULT_DIVIDE_FACTOR);
  45              		.loc 1 55 0
  46 0008 DFF87CE0 		ldr	lr, .L3+40
  54:Generated_Source\PSoC5/I2C_CharLCD.c ****     I2C_CharLCD_XCFG_REG = I2C_CharLCD_DEFAULT_XCFG;
  47              		.loc 1 54 0
  48 000c 1649     		ldr	r1, .L3+8
  57:Generated_Source\PSoC5/I2C_CharLCD.c **** 
  49              		.loc 1 57 0
  50 000e 174D     		ldr	r5, .L3+12
  56:Generated_Source\PSoC5/I2C_CharLCD.c ****     I2C_CharLCD_CLKDIV2_REG = HI8(I2C_CharLCD_DEFAULT_DIVIDE_FACTOR);
  51              		.loc 1 56 0
  52 0010 174E     		ldr	r6, .L3+16
  57:Generated_Source\PSoC5/I2C_CharLCD.c **** 
  53              		.loc 1 57 0
  54 0012 0024     		movs	r4, #0
  55              		.loc 1 88 0
  56 0014 4FF40042 		mov	r2, #32768
  55:Generated_Source\PSoC5/I2C_CharLCD.c ****     I2C_CharLCD_CLKDIV1_REG = LO8(I2C_CharLCD_DEFAULT_DIVIDE_FACTOR);
  57              		.loc 1 55 0
  58 0018 4FF0080C 		mov	ip, #8
  53:Generated_Source\PSoC5/I2C_CharLCD.c ****     I2C_CharLCD_XCFG_REG = I2C_CharLCD_DEFAULT_XCFG;
  59              		.loc 1 53 0
  60 001c 4FF00209 		mov	r9, #2
  54:Generated_Source\PSoC5/I2C_CharLCD.c ****     I2C_CharLCD_ADDR_REG = I2C_CharLCD_DEFAULT_ADDR;
  61              		.loc 1 54 0
  62 0020 4FF08108 		mov	r8, #129
  56:Generated_Source\PSoC5/I2C_CharLCD.c ****     I2C_CharLCD_CLKDIV2_REG = HI8(I2C_CharLCD_DEFAULT_DIVIDE_FACTOR);
  63              		.loc 1 56 0
  64 0024 2627     		movs	r7, #38
  53:Generated_Source\PSoC5/I2C_CharLCD.c ****     I2C_CharLCD_XCFG_REG = I2C_CharLCD_DEFAULT_XCFG;
  65              		.loc 1 53 0
  66 0026 80F80090 		strb	r9, [r0]
  54:Generated_Source\PSoC5/I2C_CharLCD.c ****     I2C_CharLCD_ADDR_REG = I2C_CharLCD_DEFAULT_ADDR;
  67              		.loc 1 54 0
  68 002a 81F80080 		strb	r8, [r1]
  89:Generated_Source\PSoC5/I2C_CharLCD.c ****     CyIntSetPriority(I2C_CharLCD_ISR_NUMBER, I2C_CharLCD_ISR_PRIORITY);
  69              		.loc 1 89 0
  70 002e 0F20     		movs	r0, #15
  55:Generated_Source\PSoC5/I2C_CharLCD.c ****     I2C_CharLCD_CLKDIV1_REG = LO8(I2C_CharLCD_DEFAULT_DIVIDE_FACTOR);
ARM GAS  C:\Users\mgronber\AppData\Local\Temp\ccYajrXm.s 			page 4


  71              		.loc 1 55 0
  72 0030 8EF800C0 		strb	ip, [lr]
  73              		.loc 1 89 0
  74 0034 0721     		movs	r1, #7
  56:Generated_Source\PSoC5/I2C_CharLCD.c ****     I2C_CharLCD_CLKDIV2_REG = HI8(I2C_CharLCD_DEFAULT_DIVIDE_FACTOR);
  75              		.loc 1 56 0
  76 0036 3770     		strb	r7, [r6]
  57:Generated_Source\PSoC5/I2C_CharLCD.c **** 
  77              		.loc 1 57 0
  78 0038 2C70     		strb	r4, [r5]
  88:Generated_Source\PSoC5/I2C_CharLCD.c ****     CyIntSetPriority(I2C_CharLCD_ISR_NUMBER, I2C_CharLCD_ISR_PRIORITY);
  79              		.loc 1 88 0
  80 003a 1A60     		str	r2, [r3]
  81              		.loc 1 89 0
  82 003c FFF7FEFF 		bl	CyIntSetPriority
  83              	.LVL0:
  90:Generated_Source\PSoC5/I2C_CharLCD.c ****     #if (I2C_CharLCD_INTERN_I2C_INTR_HANDLER)
  91:Generated_Source\PSoC5/I2C_CharLCD.c ****         (void) CyIntSetVector(I2C_CharLCD_ISR_NUMBER, &I2C_CharLCD_ISR);
  84              		.loc 1 91 0
  85 0040 0C49     		ldr	r1, .L3+20
  86 0042 0F20     		movs	r0, #15
  87 0044 FFF7FEFF 		bl	CyIntSetVector
  88              	.LVL1:
  92:Generated_Source\PSoC5/I2C_CharLCD.c ****     #endif /* (I2C_CharLCD_INTERN_I2C_INTR_HANDLER) */
  93:Generated_Source\PSoC5/I2C_CharLCD.c **** 
  94:Generated_Source\PSoC5/I2C_CharLCD.c ****     /* Set FSM to default state */
  95:Generated_Source\PSoC5/I2C_CharLCD.c ****     I2C_CharLCD_state = I2C_CharLCD_SM_IDLE;
  89              		.loc 1 95 0
  90 0048 0B48     		ldr	r0, .L3+24
  96:Generated_Source\PSoC5/I2C_CharLCD.c **** 
  97:Generated_Source\PSoC5/I2C_CharLCD.c **** #if (I2C_CharLCD_MODE_SLAVE_ENABLED)
  98:Generated_Source\PSoC5/I2C_CharLCD.c ****     /* Clear status and buffers index */
  99:Generated_Source\PSoC5/I2C_CharLCD.c ****     I2C_CharLCD_slStatus = 0u;
 100:Generated_Source\PSoC5/I2C_CharLCD.c ****     I2C_CharLCD_slRdBufIndex = 0u;
 101:Generated_Source\PSoC5/I2C_CharLCD.c ****     I2C_CharLCD_slWrBufIndex = 0u;
 102:Generated_Source\PSoC5/I2C_CharLCD.c **** 
 103:Generated_Source\PSoC5/I2C_CharLCD.c ****     /* Configure matched address */
 104:Generated_Source\PSoC5/I2C_CharLCD.c ****     I2C_CharLCD_SlaveSetAddress(I2C_CharLCD_DEFAULT_ADDR);
 105:Generated_Source\PSoC5/I2C_CharLCD.c **** #endif /* (I2C_CharLCD_MODE_SLAVE_ENABLED) */
 106:Generated_Source\PSoC5/I2C_CharLCD.c **** 
 107:Generated_Source\PSoC5/I2C_CharLCD.c **** #if (I2C_CharLCD_MODE_MASTER_ENABLED)
 108:Generated_Source\PSoC5/I2C_CharLCD.c ****     /* Clear status and buffers index */
 109:Generated_Source\PSoC5/I2C_CharLCD.c ****     I2C_CharLCD_mstrStatus = 0u;
  91              		.loc 1 109 0
  92 004a 0C49     		ldr	r1, .L3+28
 110:Generated_Source\PSoC5/I2C_CharLCD.c ****     I2C_CharLCD_mstrRdBufIndex = 0u;
  93              		.loc 1 110 0
  94 004c 0C4A     		ldr	r2, .L3+32
 111:Generated_Source\PSoC5/I2C_CharLCD.c ****     I2C_CharLCD_mstrWrBufIndex = 0u;
  95              		.loc 1 111 0
  96 004e 0D4B     		ldr	r3, .L3+36
  95:Generated_Source\PSoC5/I2C_CharLCD.c **** 
  97              		.loc 1 95 0
  98 0050 1025     		movs	r5, #16
  99 0052 0570     		strb	r5, [r0]
 109:Generated_Source\PSoC5/I2C_CharLCD.c ****     I2C_CharLCD_mstrRdBufIndex = 0u;
 100              		.loc 1 109 0
ARM GAS  C:\Users\mgronber\AppData\Local\Temp\ccYajrXm.s 			page 5


 101 0054 0C70     		strb	r4, [r1]
 110:Generated_Source\PSoC5/I2C_CharLCD.c ****     I2C_CharLCD_mstrWrBufIndex = 0u;
 102              		.loc 1 110 0
 103 0056 1470     		strb	r4, [r2]
 104              		.loc 1 111 0
 105 0058 1C70     		strb	r4, [r3]
 106 005a BDE8F883 		pop	{r3, r4, r5, r6, r7, r8, r9, pc}
 107              	.L4:
 108 005e 00BF     		.align	2
 109              	.L3:
 110 0060 D6490040 		.word	1073760726
 111 0064 80E100E0 		.word	-536813184
 112 0068 C8490040 		.word	1073760712
 113 006c DC490040 		.word	1073760732
 114 0070 DB490040 		.word	1073760731
 115 0074 00000000 		.word	I2C_CharLCD_ISR
 116 0078 00000000 		.word	I2C_CharLCD_state
 117 007c 00000000 		.word	I2C_CharLCD_mstrStatus
 118 0080 00000000 		.word	I2C_CharLCD_mstrRdBufIndex
 119 0084 00000000 		.word	I2C_CharLCD_mstrWrBufIndex
 120 0088 CA490040 		.word	1073760714
 121              		.cfi_endproc
 122              	.LFE0:
 123              		.size	I2C_CharLCD_Init, .-I2C_CharLCD_Init
 124              		.section	.text.I2C_CharLCD_Enable,"ax",%progbits
 125              		.align	2
 126              		.global	I2C_CharLCD_Enable
 127              		.thumb
 128              		.thumb_func
 129              		.type	I2C_CharLCD_Enable, %function
 130              	I2C_CharLCD_Enable:
 131              	.LFB1:
 112:Generated_Source\PSoC5/I2C_CharLCD.c **** #endif /* (I2C_CharLCD_MODE_MASTER_ENABLED) */
 113:Generated_Source\PSoC5/I2C_CharLCD.c **** }
 114:Generated_Source\PSoC5/I2C_CharLCD.c **** 
 115:Generated_Source\PSoC5/I2C_CharLCD.c **** 
 116:Generated_Source\PSoC5/I2C_CharLCD.c **** /*******************************************************************************
 117:Generated_Source\PSoC5/I2C_CharLCD.c **** * Function Name: I2C_CharLCD_Enable
 118:Generated_Source\PSoC5/I2C_CharLCD.c **** ********************************************************************************
 119:Generated_Source\PSoC5/I2C_CharLCD.c **** *
 120:Generated_Source\PSoC5/I2C_CharLCD.c **** * Summary:
 121:Generated_Source\PSoC5/I2C_CharLCD.c **** *  Enables I2C operations.
 122:Generated_Source\PSoC5/I2C_CharLCD.c **** *
 123:Generated_Source\PSoC5/I2C_CharLCD.c **** * Parameters:
 124:Generated_Source\PSoC5/I2C_CharLCD.c **** *  None.
 125:Generated_Source\PSoC5/I2C_CharLCD.c **** *
 126:Generated_Source\PSoC5/I2C_CharLCD.c **** * Return:
 127:Generated_Source\PSoC5/I2C_CharLCD.c **** *  None.
 128:Generated_Source\PSoC5/I2C_CharLCD.c **** *
 129:Generated_Source\PSoC5/I2C_CharLCD.c **** * Global variables:
 130:Generated_Source\PSoC5/I2C_CharLCD.c **** *  None.
 131:Generated_Source\PSoC5/I2C_CharLCD.c **** *
 132:Generated_Source\PSoC5/I2C_CharLCD.c **** *******************************************************************************/
 133:Generated_Source\PSoC5/I2C_CharLCD.c **** void I2C_CharLCD_Enable(void) 
 134:Generated_Source\PSoC5/I2C_CharLCD.c **** {
 132              		.loc 1 134 0
 133              		.cfi_startproc
ARM GAS  C:\Users\mgronber\AppData\Local\Temp\ccYajrXm.s 			page 6


 134              		@ args = 0, pretend = 0, frame = 0
 135              		@ frame_needed = 0, uses_anonymous_args = 0
 136 0000 08B5     		push	{r3, lr}
 137              		.cfi_def_cfa_offset 8
 138              		.cfi_offset 3, -8
 139              		.cfi_offset 14, -4
 135:Generated_Source\PSoC5/I2C_CharLCD.c **** #if (I2C_CharLCD_FF_IMPLEMENTED)
 136:Generated_Source\PSoC5/I2C_CharLCD.c ****     uint8 intState;
 137:Generated_Source\PSoC5/I2C_CharLCD.c **** 
 138:Generated_Source\PSoC5/I2C_CharLCD.c ****     /* Enable power to block */
 139:Generated_Source\PSoC5/I2C_CharLCD.c ****     intState = CyEnterCriticalSection();
 140              		.loc 1 139 0
 141 0002 FFF7FEFF 		bl	CyEnterCriticalSection
 142              	.LVL2:
 140:Generated_Source\PSoC5/I2C_CharLCD.c ****     I2C_CharLCD_ACT_PWRMGR_REG  |= I2C_CharLCD_ACT_PWR_EN;
 143              		.loc 1 140 0
 144 0006 0749     		ldr	r1, .L7
 141:Generated_Source\PSoC5/I2C_CharLCD.c ****     I2C_CharLCD_STBY_PWRMGR_REG |= I2C_CharLCD_STBY_PWR_EN;
 145              		.loc 1 141 0
 146 0008 074A     		ldr	r2, .L7+4
 140:Generated_Source\PSoC5/I2C_CharLCD.c ****     I2C_CharLCD_ACT_PWRMGR_REG  |= I2C_CharLCD_ACT_PWR_EN;
 147              		.loc 1 140 0
 148 000a 0B78     		ldrb	r3, [r1]	@ zero_extendqisi2
 149 000c 43F00403 		orr	r3, r3, #4
 150 0010 0B70     		strb	r3, [r1]
 151              		.loc 1 141 0
 152 0012 1378     		ldrb	r3, [r2]	@ zero_extendqisi2
 153 0014 43F00403 		orr	r3, r3, #4
 154 0018 1370     		strb	r3, [r2]
 142:Generated_Source\PSoC5/I2C_CharLCD.c ****     CyExitCriticalSection(intState);
 143:Generated_Source\PSoC5/I2C_CharLCD.c **** #else
 144:Generated_Source\PSoC5/I2C_CharLCD.c ****     #if (I2C_CharLCD_MODE_SLAVE_ENABLED)
 145:Generated_Source\PSoC5/I2C_CharLCD.c ****         /* Enable bit counter */
 146:Generated_Source\PSoC5/I2C_CharLCD.c ****         uint8 intState = CyEnterCriticalSection();
 147:Generated_Source\PSoC5/I2C_CharLCD.c ****         I2C_CharLCD_COUNTER_AUX_CTL_REG |= I2C_CharLCD_CNT7_ENABLE;
 148:Generated_Source\PSoC5/I2C_CharLCD.c ****         CyExitCriticalSection(intState);
 149:Generated_Source\PSoC5/I2C_CharLCD.c ****     #endif /* (I2C_CharLCD_MODE_SLAVE_ENABLED) */
 150:Generated_Source\PSoC5/I2C_CharLCD.c **** 
 151:Generated_Source\PSoC5/I2C_CharLCD.c ****     /* Enable slave or master bits */
 152:Generated_Source\PSoC5/I2C_CharLCD.c ****     I2C_CharLCD_CFG_REG |= I2C_CharLCD_ENABLE_MS;
 153:Generated_Source\PSoC5/I2C_CharLCD.c **** #endif /* (I2C_CharLCD_FF_IMPLEMENTED) */
 154:Generated_Source\PSoC5/I2C_CharLCD.c **** 
 155:Generated_Source\PSoC5/I2C_CharLCD.c **** #if (I2C_CharLCD_TIMEOUT_ENABLED)
 156:Generated_Source\PSoC5/I2C_CharLCD.c ****     I2C_CharLCD_TimeoutEnable();
 157:Generated_Source\PSoC5/I2C_CharLCD.c **** #endif /* (I2C_CharLCD_TIMEOUT_ENABLED) */
 158:Generated_Source\PSoC5/I2C_CharLCD.c **** }
 155              		.loc 1 158 0
 156 001a BDE80840 		pop	{r3, lr}
 157              		.cfi_restore 14
 158              		.cfi_restore 3
 159              		.cfi_def_cfa_offset 0
 142:Generated_Source\PSoC5/I2C_CharLCD.c ****     CyExitCriticalSection(intState);
 160              		.loc 1 142 0
 161 001e FFF7FEBF 		b	CyExitCriticalSection
 162              	.LVL3:
 163              	.L8:
 164 0022 00BF     		.align	2
ARM GAS  C:\Users\mgronber\AppData\Local\Temp\ccYajrXm.s 			page 7


 165              	.L7:
 166 0024 A5430040 		.word	1073759141
 167 0028 B5430040 		.word	1073759157
 168              		.cfi_endproc
 169              	.LFE1:
 170              		.size	I2C_CharLCD_Enable, .-I2C_CharLCD_Enable
 171              		.section	.text.I2C_CharLCD_Start,"ax",%progbits
 172              		.align	2
 173              		.global	I2C_CharLCD_Start
 174              		.thumb
 175              		.thumb_func
 176              		.type	I2C_CharLCD_Start, %function
 177              	I2C_CharLCD_Start:
 178              	.LFB2:
 159:Generated_Source\PSoC5/I2C_CharLCD.c **** 
 160:Generated_Source\PSoC5/I2C_CharLCD.c **** 
 161:Generated_Source\PSoC5/I2C_CharLCD.c **** /*******************************************************************************
 162:Generated_Source\PSoC5/I2C_CharLCD.c **** * Function Name: I2C_CharLCD_Start
 163:Generated_Source\PSoC5/I2C_CharLCD.c **** ********************************************************************************
 164:Generated_Source\PSoC5/I2C_CharLCD.c **** *
 165:Generated_Source\PSoC5/I2C_CharLCD.c **** * Summary:
 166:Generated_Source\PSoC5/I2C_CharLCD.c **** *  Starts the I2C hardware. Enables Active mode power template bits or clock
 167:Generated_Source\PSoC5/I2C_CharLCD.c **** *  gating as appropriate. It is required to be executed before I2C bus
 168:Generated_Source\PSoC5/I2C_CharLCD.c **** *  operation.
 169:Generated_Source\PSoC5/I2C_CharLCD.c **** *
 170:Generated_Source\PSoC5/I2C_CharLCD.c **** * Parameters:
 171:Generated_Source\PSoC5/I2C_CharLCD.c **** *  None.
 172:Generated_Source\PSoC5/I2C_CharLCD.c **** *
 173:Generated_Source\PSoC5/I2C_CharLCD.c **** * Return:
 174:Generated_Source\PSoC5/I2C_CharLCD.c **** *  None.
 175:Generated_Source\PSoC5/I2C_CharLCD.c **** *
 176:Generated_Source\PSoC5/I2C_CharLCD.c **** * Side Effects:
 177:Generated_Source\PSoC5/I2C_CharLCD.c **** *  This component automatically enables its interrupt.  If I2C is enabled !
 178:Generated_Source\PSoC5/I2C_CharLCD.c **** *  without the interrupt enabled, it can lock up the I2C bus.
 179:Generated_Source\PSoC5/I2C_CharLCD.c **** *
 180:Generated_Source\PSoC5/I2C_CharLCD.c **** * Global variables:
 181:Generated_Source\PSoC5/I2C_CharLCD.c **** *  I2C_CharLCD_initVar - This variable is used to check the initial
 182:Generated_Source\PSoC5/I2C_CharLCD.c **** *                             configuration, modified on the first
 183:Generated_Source\PSoC5/I2C_CharLCD.c **** *                             function call.
 184:Generated_Source\PSoC5/I2C_CharLCD.c **** *
 185:Generated_Source\PSoC5/I2C_CharLCD.c **** * Reentrant:
 186:Generated_Source\PSoC5/I2C_CharLCD.c **** *  No.
 187:Generated_Source\PSoC5/I2C_CharLCD.c **** *
 188:Generated_Source\PSoC5/I2C_CharLCD.c **** *******************************************************************************/
 189:Generated_Source\PSoC5/I2C_CharLCD.c **** void I2C_CharLCD_Start(void) 
 190:Generated_Source\PSoC5/I2C_CharLCD.c **** {
 179              		.loc 1 190 0
 180              		.cfi_startproc
 181              		@ args = 0, pretend = 0, frame = 0
 182              		@ frame_needed = 0, uses_anonymous_args = 0
 183 0000 10B5     		push	{r4, lr}
 184              		.cfi_def_cfa_offset 8
 185              		.cfi_offset 4, -8
 186              		.cfi_offset 14, -4
 191:Generated_Source\PSoC5/I2C_CharLCD.c ****     if (0u == I2C_CharLCD_initVar)
 187              		.loc 1 191 0
 188 0002 074C     		ldr	r4, .L13
ARM GAS  C:\Users\mgronber\AppData\Local\Temp\ccYajrXm.s 			page 8


 189 0004 2378     		ldrb	r3, [r4]	@ zero_extendqisi2
 190 0006 1BB9     		cbnz	r3, .L10
 192:Generated_Source\PSoC5/I2C_CharLCD.c ****     {
 193:Generated_Source\PSoC5/I2C_CharLCD.c ****         I2C_CharLCD_Init();
 191              		.loc 1 193 0
 192 0008 FFF7FEFF 		bl	I2C_CharLCD_Init
 193              	.LVL4:
 194:Generated_Source\PSoC5/I2C_CharLCD.c ****         I2C_CharLCD_initVar = 1u; /* Component initialized */
 194              		.loc 1 194 0
 195 000c 0123     		movs	r3, #1
 196 000e 2370     		strb	r3, [r4]
 197              	.L10:
 195:Generated_Source\PSoC5/I2C_CharLCD.c ****     }
 196:Generated_Source\PSoC5/I2C_CharLCD.c **** 
 197:Generated_Source\PSoC5/I2C_CharLCD.c ****     I2C_CharLCD_Enable();
 198              		.loc 1 197 0
 199 0010 FFF7FEFF 		bl	I2C_CharLCD_Enable
 200              	.LVL5:
 198:Generated_Source\PSoC5/I2C_CharLCD.c ****     I2C_CharLCD_EnableInt();
 201              		.loc 1 198 0
 202 0014 034B     		ldr	r3, .L13+4
 203 0016 4FF40042 		mov	r2, #32768
 204 001a 1A60     		str	r2, [r3]
 205 001c 10BD     		pop	{r4, pc}
 206              	.L14:
 207 001e 00BF     		.align	2
 208              	.L13:
 209 0020 00000000 		.word	.LANCHOR0
 210 0024 00E100E0 		.word	-536813312
 211              		.cfi_endproc
 212              	.LFE2:
 213              		.size	I2C_CharLCD_Start, .-I2C_CharLCD_Start
 214              		.section	.text.I2C_CharLCD_Stop,"ax",%progbits
 215              		.align	2
 216              		.global	I2C_CharLCD_Stop
 217              		.thumb
 218              		.thumb_func
 219              		.type	I2C_CharLCD_Stop, %function
 220              	I2C_CharLCD_Stop:
 221              	.LFB3:
 199:Generated_Source\PSoC5/I2C_CharLCD.c **** }
 200:Generated_Source\PSoC5/I2C_CharLCD.c **** 
 201:Generated_Source\PSoC5/I2C_CharLCD.c **** 
 202:Generated_Source\PSoC5/I2C_CharLCD.c **** /*******************************************************************************
 203:Generated_Source\PSoC5/I2C_CharLCD.c **** * Function Name: I2C_CharLCD_Stop
 204:Generated_Source\PSoC5/I2C_CharLCD.c **** ********************************************************************************
 205:Generated_Source\PSoC5/I2C_CharLCD.c **** *
 206:Generated_Source\PSoC5/I2C_CharLCD.c **** * Summary:
 207:Generated_Source\PSoC5/I2C_CharLCD.c **** *  Disables I2C hardware and disables I2C interrupt. Disables Active mode power
 208:Generated_Source\PSoC5/I2C_CharLCD.c **** *  template bits or clock gating as appropriate.
 209:Generated_Source\PSoC5/I2C_CharLCD.c **** *
 210:Generated_Source\PSoC5/I2C_CharLCD.c **** * Parameters:
 211:Generated_Source\PSoC5/I2C_CharLCD.c **** *  None.
 212:Generated_Source\PSoC5/I2C_CharLCD.c **** *
 213:Generated_Source\PSoC5/I2C_CharLCD.c **** * Return:
 214:Generated_Source\PSoC5/I2C_CharLCD.c **** *  None.
 215:Generated_Source\PSoC5/I2C_CharLCD.c **** *
ARM GAS  C:\Users\mgronber\AppData\Local\Temp\ccYajrXm.s 			page 9


 216:Generated_Source\PSoC5/I2C_CharLCD.c **** *******************************************************************************/
 217:Generated_Source\PSoC5/I2C_CharLCD.c **** void I2C_CharLCD_Stop(void) 
 218:Generated_Source\PSoC5/I2C_CharLCD.c **** {
 222              		.loc 1 218 0
 223              		.cfi_startproc
 224              		@ args = 0, pretend = 0, frame = 0
 225              		@ frame_needed = 0, uses_anonymous_args = 0
 226 0000 2DE9F843 		push	{r3, r4, r5, r6, r7, r8, r9, lr}
 227              		.cfi_def_cfa_offset 32
 228              		.cfi_offset 3, -32
 229              		.cfi_offset 4, -28
 230              		.cfi_offset 5, -24
 231              		.cfi_offset 6, -20
 232              		.cfi_offset 7, -16
 233              		.cfi_offset 8, -12
 234              		.cfi_offset 9, -8
 235              		.cfi_offset 14, -4
 219:Generated_Source\PSoC5/I2C_CharLCD.c ****     I2C_CharLCD_DisableInt();
 236              		.loc 1 219 0
 237 0004 234B     		ldr	r3, .L17
 238              	.LBB2:
 220:Generated_Source\PSoC5/I2C_CharLCD.c **** 
 221:Generated_Source\PSoC5/I2C_CharLCD.c **** #if (I2C_CharLCD_TIMEOUT_ENABLED)
 222:Generated_Source\PSoC5/I2C_CharLCD.c ****     I2C_CharLCD_TimeoutStop();
 223:Generated_Source\PSoC5/I2C_CharLCD.c **** #endif  /* End (I2C_CharLCD_TIMEOUT_ENABLED) */
 224:Generated_Source\PSoC5/I2C_CharLCD.c **** 
 225:Generated_Source\PSoC5/I2C_CharLCD.c **** #if (I2C_CharLCD_FF_IMPLEMENTED)
 226:Generated_Source\PSoC5/I2C_CharLCD.c ****     {
 227:Generated_Source\PSoC5/I2C_CharLCD.c ****         uint8 intState;
 228:Generated_Source\PSoC5/I2C_CharLCD.c ****         uint16 blockResetCycles;
 229:Generated_Source\PSoC5/I2C_CharLCD.c **** 
 230:Generated_Source\PSoC5/I2C_CharLCD.c ****         /* Store registers effected by block disable */
 231:Generated_Source\PSoC5/I2C_CharLCD.c ****         I2C_CharLCD_backup.addr    = I2C_CharLCD_ADDR_REG;
 239              		.loc 1 231 0
 240 0006 DFF8B080 		ldr	r8, .L17+36
 232:Generated_Source\PSoC5/I2C_CharLCD.c ****         I2C_CharLCD_backup.clkDiv1 = I2C_CharLCD_CLKDIV1_REG;
 241              		.loc 1 232 0
 242 000a 234F     		ldr	r7, .L17+4
 233:Generated_Source\PSoC5/I2C_CharLCD.c ****         I2C_CharLCD_backup.clkDiv2 = I2C_CharLCD_CLKDIV2_REG;
 243              		.loc 1 233 0
 244 000c 234E     		ldr	r6, .L17+8
 245              	.LBE2:
 219:Generated_Source\PSoC5/I2C_CharLCD.c **** 
 246              		.loc 1 219 0
 247 000e 4FF40049 		mov	r9, #32768
 248 0012 C3F80090 		str	r9, [r3]
 249              	.LBB3:
 234:Generated_Source\PSoC5/I2C_CharLCD.c **** 
 235:Generated_Source\PSoC5/I2C_CharLCD.c ****         /* Calculate number of cycles to reset block */
 236:Generated_Source\PSoC5/I2C_CharLCD.c ****         blockResetCycles = ((uint16) ((uint16) I2C_CharLCD_CLKDIV2_REG << 8u) | I2C_CharLCD_CLKDIV1
 237:Generated_Source\PSoC5/I2C_CharLCD.c **** 
 238:Generated_Source\PSoC5/I2C_CharLCD.c ****         /* Disable block */
 239:Generated_Source\PSoC5/I2C_CharLCD.c ****         I2C_CharLCD_CFG_REG &= (uint8) ~I2C_CharLCD_CFG_EN_SLAVE;
 250              		.loc 1 239 0
 251 0016 224D     		ldr	r5, .L17+12
 231:Generated_Source\PSoC5/I2C_CharLCD.c ****         I2C_CharLCD_backup.clkDiv1 = I2C_CharLCD_CLKDIV1_REG;
 252              		.loc 1 231 0
ARM GAS  C:\Users\mgronber\AppData\Local\Temp\ccYajrXm.s 			page 10


 253 0018 98F800E0 		ldrb	lr, [r8]	@ zero_extendqisi2
 232:Generated_Source\PSoC5/I2C_CharLCD.c ****         I2C_CharLCD_backup.clkDiv2 = I2C_CharLCD_CLKDIV2_REG;
 254              		.loc 1 232 0
 255 001c 3978     		ldrb	r1, [r7]	@ zero_extendqisi2
 233:Generated_Source\PSoC5/I2C_CharLCD.c **** 
 256              		.loc 1 233 0
 257 001e 3278     		ldrb	r2, [r6]	@ zero_extendqisi2
 236:Generated_Source\PSoC5/I2C_CharLCD.c **** 
 258              		.loc 1 236 0
 259 0020 3078     		ldrb	r0, [r6]	@ zero_extendqisi2
 260 0022 3B78     		ldrb	r3, [r7]	@ zero_extendqisi2
 261              	.LVL6:
 262              		.loc 1 239 0
 263 0024 95F800C0 		ldrb	ip, [r5]	@ zero_extendqisi2
 236:Generated_Source\PSoC5/I2C_CharLCD.c **** 
 264              		.loc 1 236 0
 265 0028 43EA0020 		orr	r0, r3, r0, lsl #8
 266              	.LVL7:
 231:Generated_Source\PSoC5/I2C_CharLCD.c ****         I2C_CharLCD_backup.clkDiv1 = I2C_CharLCD_CLKDIV1_REG;
 267              		.loc 1 231 0
 268 002c 1D4C     		ldr	r4, .L17+16
 269              		.loc 1 239 0
 270 002e 0CF0FE03 		and	r3, ip, #254
 236:Generated_Source\PSoC5/I2C_CharLCD.c **** 
 271              		.loc 1 236 0
 272 0032 0130     		adds	r0, r0, #1
 273              		.loc 1 239 0
 274 0034 2B70     		strb	r3, [r5]
 240:Generated_Source\PSoC5/I2C_CharLCD.c ****         /* Wait for block reset before disable power */
 241:Generated_Source\PSoC5/I2C_CharLCD.c ****         CyDelayCycles((uint32) blockResetCycles);
 275              		.loc 1 241 0
 276 0036 80B2     		uxth	r0, r0
 231:Generated_Source\PSoC5/I2C_CharLCD.c ****         I2C_CharLCD_backup.clkDiv1 = I2C_CharLCD_CLKDIV1_REG;
 277              		.loc 1 231 0
 278 0038 84F803E0 		strb	lr, [r4, #3]
 232:Generated_Source\PSoC5/I2C_CharLCD.c ****         I2C_CharLCD_backup.clkDiv2 = I2C_CharLCD_CLKDIV2_REG;
 279              		.loc 1 232 0
 280 003c 2171     		strb	r1, [r4, #4]
 233:Generated_Source\PSoC5/I2C_CharLCD.c **** 
 281              		.loc 1 233 0
 282 003e 6271     		strb	r2, [r4, #5]
 283              		.loc 1 241 0
 284 0040 FFF7FEFF 		bl	CyDelayCycles
 285              	.LVL8:
 242:Generated_Source\PSoC5/I2C_CharLCD.c **** 
 243:Generated_Source\PSoC5/I2C_CharLCD.c ****         /* Disable power to block */
 244:Generated_Source\PSoC5/I2C_CharLCD.c ****         intState = CyEnterCriticalSection();
 286              		.loc 1 244 0
 287 0044 FFF7FEFF 		bl	CyEnterCriticalSection
 288              	.LVL9:
 245:Generated_Source\PSoC5/I2C_CharLCD.c ****         I2C_CharLCD_ACT_PWRMGR_REG  &= (uint8) ~I2C_CharLCD_ACT_PWR_EN;
 289              		.loc 1 245 0
 290 0048 1749     		ldr	r1, .L17+20
 246:Generated_Source\PSoC5/I2C_CharLCD.c ****         I2C_CharLCD_STBY_PWRMGR_REG &= (uint8) ~I2C_CharLCD_STBY_PWR_EN;
 291              		.loc 1 246 0
 292 004a 184A     		ldr	r2, .L17+24
 245:Generated_Source\PSoC5/I2C_CharLCD.c ****         I2C_CharLCD_ACT_PWRMGR_REG  &= (uint8) ~I2C_CharLCD_ACT_PWR_EN;
ARM GAS  C:\Users\mgronber\AppData\Local\Temp\ccYajrXm.s 			page 11


 293              		.loc 1 245 0
 294 004c 0B78     		ldrb	r3, [r1]	@ zero_extendqisi2
 295 004e 03F0FB03 		and	r3, r3, #251
 296 0052 0B70     		strb	r3, [r1]
 297              		.loc 1 246 0
 298 0054 1378     		ldrb	r3, [r2]	@ zero_extendqisi2
 299 0056 03F0FB03 		and	r3, r3, #251
 300 005a 1370     		strb	r3, [r2]
 247:Generated_Source\PSoC5/I2C_CharLCD.c ****         CyExitCriticalSection(intState);
 301              		.loc 1 247 0
 302 005c FFF7FEFF 		bl	CyExitCriticalSection
 303              	.LVL10:
 248:Generated_Source\PSoC5/I2C_CharLCD.c **** 
 249:Generated_Source\PSoC5/I2C_CharLCD.c ****         /* Enable block */
 250:Generated_Source\PSoC5/I2C_CharLCD.c ****         I2C_CharLCD_CFG_REG |= (uint8) I2C_CharLCD_ENABLE_MS;
 304              		.loc 1 250 0
 305 0060 2B78     		ldrb	r3, [r5]	@ zero_extendqisi2
 251:Generated_Source\PSoC5/I2C_CharLCD.c **** 
 252:Generated_Source\PSoC5/I2C_CharLCD.c ****         /* Restore registers effected by block disable. Ticket ID#198004 */
 253:Generated_Source\PSoC5/I2C_CharLCD.c ****         I2C_CharLCD_ADDR_REG    = I2C_CharLCD_backup.addr;
 254:Generated_Source\PSoC5/I2C_CharLCD.c ****         I2C_CharLCD_ADDR_REG    = I2C_CharLCD_backup.addr;
 255:Generated_Source\PSoC5/I2C_CharLCD.c ****         I2C_CharLCD_CLKDIV1_REG = I2C_CharLCD_backup.clkDiv1;
 306              		.loc 1 255 0
 307 0062 2179     		ldrb	r1, [r4, #4]	@ zero_extendqisi2
 256:Generated_Source\PSoC5/I2C_CharLCD.c ****         I2C_CharLCD_CLKDIV2_REG = I2C_CharLCD_backup.clkDiv2;
 308              		.loc 1 256 0
 309 0064 6279     		ldrb	r2, [r4, #5]	@ zero_extendqisi2
 253:Generated_Source\PSoC5/I2C_CharLCD.c ****         I2C_CharLCD_ADDR_REG    = I2C_CharLCD_backup.addr;
 310              		.loc 1 253 0
 311 0066 94F803E0 		ldrb	lr, [r4, #3]	@ zero_extendqisi2
 250:Generated_Source\PSoC5/I2C_CharLCD.c **** 
 312              		.loc 1 250 0
 313 006a 43F00203 		orr	r3, r3, #2
 314 006e 2B70     		strb	r3, [r5]
 253:Generated_Source\PSoC5/I2C_CharLCD.c ****         I2C_CharLCD_ADDR_REG    = I2C_CharLCD_backup.addr;
 315              		.loc 1 253 0
 316 0070 88F800E0 		strb	lr, [r8]
 254:Generated_Source\PSoC5/I2C_CharLCD.c ****         I2C_CharLCD_CLKDIV1_REG = I2C_CharLCD_backup.clkDiv1;
 317              		.loc 1 254 0
 318 0074 88F800E0 		strb	lr, [r8]
 255:Generated_Source\PSoC5/I2C_CharLCD.c ****         I2C_CharLCD_CLKDIV2_REG = I2C_CharLCD_backup.clkDiv2;
 319              		.loc 1 255 0
 320 0078 3970     		strb	r1, [r7]
 321              		.loc 1 256 0
 322 007a 3270     		strb	r2, [r6]
 323              	.LBE3:
 257:Generated_Source\PSoC5/I2C_CharLCD.c ****     }
 258:Generated_Source\PSoC5/I2C_CharLCD.c **** #else
 259:Generated_Source\PSoC5/I2C_CharLCD.c **** 
 260:Generated_Source\PSoC5/I2C_CharLCD.c ****     /* Disable slave or master bits */
 261:Generated_Source\PSoC5/I2C_CharLCD.c ****     I2C_CharLCD_CFG_REG &= (uint8) ~I2C_CharLCD_ENABLE_MS;
 262:Generated_Source\PSoC5/I2C_CharLCD.c **** 
 263:Generated_Source\PSoC5/I2C_CharLCD.c **** #if (I2C_CharLCD_MODE_SLAVE_ENABLED)
 264:Generated_Source\PSoC5/I2C_CharLCD.c ****     {
 265:Generated_Source\PSoC5/I2C_CharLCD.c ****         /* Disable bit counter */
 266:Generated_Source\PSoC5/I2C_CharLCD.c ****         uint8 intState = CyEnterCriticalSection();
 267:Generated_Source\PSoC5/I2C_CharLCD.c ****         I2C_CharLCD_COUNTER_AUX_CTL_REG &= (uint8) ~I2C_CharLCD_CNT7_ENABLE;
ARM GAS  C:\Users\mgronber\AppData\Local\Temp\ccYajrXm.s 			page 12


 268:Generated_Source\PSoC5/I2C_CharLCD.c ****         CyExitCriticalSection(intState);
 269:Generated_Source\PSoC5/I2C_CharLCD.c ****     }
 270:Generated_Source\PSoC5/I2C_CharLCD.c **** #endif /* (I2C_CharLCD_MODE_SLAVE_ENABLED) */
 271:Generated_Source\PSoC5/I2C_CharLCD.c **** 
 272:Generated_Source\PSoC5/I2C_CharLCD.c ****     /* Clear interrupt source register */
 273:Generated_Source\PSoC5/I2C_CharLCD.c ****     (void) I2C_CharLCD_CSR_REG;
 274:Generated_Source\PSoC5/I2C_CharLCD.c **** #endif /* (I2C_CharLCD_FF_IMPLEMENTED) */
 275:Generated_Source\PSoC5/I2C_CharLCD.c **** 
 276:Generated_Source\PSoC5/I2C_CharLCD.c ****     /* Disable interrupt on stop (enabled by write transaction) */
 277:Generated_Source\PSoC5/I2C_CharLCD.c ****     I2C_CharLCD_DISABLE_INT_ON_STOP;
 324              		.loc 1 277 0
 325 007c 2B78     		ldrb	r3, [r5]	@ zero_extendqisi2
 278:Generated_Source\PSoC5/I2C_CharLCD.c ****     I2C_CharLCD_ClearPendingInt();
 326              		.loc 1 278 0
 327 007e 0C48     		ldr	r0, .L17+28
 279:Generated_Source\PSoC5/I2C_CharLCD.c **** 
 280:Generated_Source\PSoC5/I2C_CharLCD.c ****     /* Reset FSM to default state */
 281:Generated_Source\PSoC5/I2C_CharLCD.c ****     I2C_CharLCD_state = I2C_CharLCD_SM_IDLE;
 328              		.loc 1 281 0
 329 0080 0C4A     		ldr	r2, .L17+32
 277:Generated_Source\PSoC5/I2C_CharLCD.c ****     I2C_CharLCD_ClearPendingInt();
 330              		.loc 1 277 0
 331 0082 03F0EF03 		and	r3, r3, #239
 332              		.loc 1 281 0
 333 0086 1021     		movs	r1, #16
 277:Generated_Source\PSoC5/I2C_CharLCD.c ****     I2C_CharLCD_ClearPendingInt();
 334              		.loc 1 277 0
 335 0088 2B70     		strb	r3, [r5]
 278:Generated_Source\PSoC5/I2C_CharLCD.c ****     I2C_CharLCD_ClearPendingInt();
 336              		.loc 1 278 0
 337 008a C0F80090 		str	r9, [r0]
 338              		.loc 1 281 0
 339 008e 1170     		strb	r1, [r2]
 340 0090 BDE8F883 		pop	{r3, r4, r5, r6, r7, r8, r9, pc}
 341              	.L18:
 342              		.align	2
 343              	.L17:
 344 0094 80E100E0 		.word	-536813184
 345 0098 DB490040 		.word	1073760731
 346 009c DC490040 		.word	1073760732
 347 00a0 D6490040 		.word	1073760726
 348 00a4 00000000 		.word	I2C_CharLCD_backup
 349 00a8 A5430040 		.word	1073759141
 350 00ac B5430040 		.word	1073759157
 351 00b0 80E200E0 		.word	-536812928
 352 00b4 00000000 		.word	I2C_CharLCD_state
 353 00b8 CA490040 		.word	1073760714
 354              		.cfi_endproc
 355              	.LFE3:
 356              		.size	I2C_CharLCD_Stop, .-I2C_CharLCD_Stop
 357              		.comm	I2C_CharLCD_state,1,1
 358              		.global	I2C_CharLCD_initVar
 359              		.bss
 360              		.set	.LANCHOR0,. + 0
 361              		.type	I2C_CharLCD_initVar, %object
 362              		.size	I2C_CharLCD_initVar, 1
 363              	I2C_CharLCD_initVar:
ARM GAS  C:\Users\mgronber\AppData\Local\Temp\ccYajrXm.s 			page 13


 364 0000 00       		.space	1
 365              		.text
 366              	.Letext0:
 367              		.file 2 "Generated_Source\\PSoC5\\cytypes.h"
 368              		.file 3 "Generated_Source\\PSoC5\\I2C_CharLCD.h"
 369              		.file 4 "Generated_Source\\PSoC5\\I2C_CharLCD_PVT.h"
 370              		.file 5 "Generated_Source\\PSoC5\\CyLib.h"