ARM GAS  C:\Users\jmdevoto\AppData\Local\Temp\ccXlL6OR.s 			page 1


   1              		.syntax unified
   2              		.cpu cortex-m3
   3              		.fpu softvfp
   4              		.eabi_attribute 20, 1
   5              		.eabi_attribute 21, 1
   6              		.eabi_attribute 23, 3
   7              		.eabi_attribute 24, 1
   8              		.eabi_attribute 25, 1
   9              		.eabi_attribute 26, 1
  10              		.eabi_attribute 30, 2
  11              		.eabi_attribute 34, 1
  12              		.eabi_attribute 18, 4
  13              		.thumb
  14              		.file	"LCD_Char_1_LCDPort.c"
  15              		.text
  16              	.Ltext0:
  17              		.cfi_sections	.debug_frame
  18              		.section	.text.LCD_Char_1_LCDPort_Write,"ax",%progbits
  19              		.align	2
  20              		.global	LCD_Char_1_LCDPort_Write
  21              		.thumb
  22              		.thumb_func
  23              		.type	LCD_Char_1_LCDPort_Write, %function
  24              	LCD_Char_1_LCDPort_Write:
  25              	.LFB0:
  26              		.file 1 "Generated_Source\\PSoC5\\LCD_Char_1_LCDPort.c"
   1:Generated_Source\PSoC5/LCD_Char_1_LCDPort.c **** /*******************************************************************************
   2:Generated_Source\PSoC5/LCD_Char_1_LCDPort.c **** * File Name: LCD_Char_1_LCDPort.c  
   3:Generated_Source\PSoC5/LCD_Char_1_LCDPort.c **** * Version 2.20
   4:Generated_Source\PSoC5/LCD_Char_1_LCDPort.c **** *
   5:Generated_Source\PSoC5/LCD_Char_1_LCDPort.c **** * Description:
   6:Generated_Source\PSoC5/LCD_Char_1_LCDPort.c **** *  This file contains API to enable firmware control of a Pins component.
   7:Generated_Source\PSoC5/LCD_Char_1_LCDPort.c **** *
   8:Generated_Source\PSoC5/LCD_Char_1_LCDPort.c **** * Note:
   9:Generated_Source\PSoC5/LCD_Char_1_LCDPort.c **** *
  10:Generated_Source\PSoC5/LCD_Char_1_LCDPort.c **** ********************************************************************************
  11:Generated_Source\PSoC5/LCD_Char_1_LCDPort.c **** * Copyright 2008-2015, Cypress Semiconductor Corporation.  All rights reserved.
  12:Generated_Source\PSoC5/LCD_Char_1_LCDPort.c **** * You may use this file only in accordance with the license, terms, conditions, 
  13:Generated_Source\PSoC5/LCD_Char_1_LCDPort.c **** * disclaimers, and limitations in the end user license agreement accompanying 
  14:Generated_Source\PSoC5/LCD_Char_1_LCDPort.c **** * the software package with which this file was provided.
  15:Generated_Source\PSoC5/LCD_Char_1_LCDPort.c **** *******************************************************************************/
  16:Generated_Source\PSoC5/LCD_Char_1_LCDPort.c **** 
  17:Generated_Source\PSoC5/LCD_Char_1_LCDPort.c **** #include "cytypes.h"
  18:Generated_Source\PSoC5/LCD_Char_1_LCDPort.c **** #include "LCD_Char_1_LCDPort.h"
  19:Generated_Source\PSoC5/LCD_Char_1_LCDPort.c **** 
  20:Generated_Source\PSoC5/LCD_Char_1_LCDPort.c **** /* APIs are not generated for P15[7:6] on PSoC 5 */
  21:Generated_Source\PSoC5/LCD_Char_1_LCDPort.c **** #if !(CY_PSOC5A &&\
  22:Generated_Source\PSoC5/LCD_Char_1_LCDPort.c **** 	 LCD_Char_1_LCDPort__PORT == 15 && ((LCD_Char_1_LCDPort__MASK & 0xC0) != 0))
  23:Generated_Source\PSoC5/LCD_Char_1_LCDPort.c **** 
  24:Generated_Source\PSoC5/LCD_Char_1_LCDPort.c **** 
  25:Generated_Source\PSoC5/LCD_Char_1_LCDPort.c **** /*******************************************************************************
  26:Generated_Source\PSoC5/LCD_Char_1_LCDPort.c **** * Function Name: LCD_Char_1_LCDPort_Write
  27:Generated_Source\PSoC5/LCD_Char_1_LCDPort.c **** ****************************************************************************//**
  28:Generated_Source\PSoC5/LCD_Char_1_LCDPort.c **** *
  29:Generated_Source\PSoC5/LCD_Char_1_LCDPort.c **** * \brief Writes the value to the physical port (data output register), masking
  30:Generated_Source\PSoC5/LCD_Char_1_LCDPort.c **** *  and shifting the bits appropriately. 
  31:Generated_Source\PSoC5/LCD_Char_1_LCDPort.c **** *
ARM GAS  C:\Users\jmdevoto\AppData\Local\Temp\ccXlL6OR.s 			page 2


  32:Generated_Source\PSoC5/LCD_Char_1_LCDPort.c **** * The data output register controls the signal applied to the physical pin in 
  33:Generated_Source\PSoC5/LCD_Char_1_LCDPort.c **** * conjunction with the drive mode parameter. This function avoids changing 
  34:Generated_Source\PSoC5/LCD_Char_1_LCDPort.c **** * other bits in the port by using the appropriate method (read-modify-write or
  35:Generated_Source\PSoC5/LCD_Char_1_LCDPort.c **** * bit banding).
  36:Generated_Source\PSoC5/LCD_Char_1_LCDPort.c **** *
  37:Generated_Source\PSoC5/LCD_Char_1_LCDPort.c **** * <b>Note</b> This function should not be used on a hardware digital output pin 
  38:Generated_Source\PSoC5/LCD_Char_1_LCDPort.c **** * as it is driven by the hardware signal attached to it.
  39:Generated_Source\PSoC5/LCD_Char_1_LCDPort.c **** *
  40:Generated_Source\PSoC5/LCD_Char_1_LCDPort.c **** * \param value
  41:Generated_Source\PSoC5/LCD_Char_1_LCDPort.c **** *  Value to write to the component instance.
  42:Generated_Source\PSoC5/LCD_Char_1_LCDPort.c **** *
  43:Generated_Source\PSoC5/LCD_Char_1_LCDPort.c **** * \return 
  44:Generated_Source\PSoC5/LCD_Char_1_LCDPort.c **** *  None 
  45:Generated_Source\PSoC5/LCD_Char_1_LCDPort.c **** *
  46:Generated_Source\PSoC5/LCD_Char_1_LCDPort.c **** * \sideeffect
  47:Generated_Source\PSoC5/LCD_Char_1_LCDPort.c **** *  If you use read-modify-write operations that are not atomic; the Interrupt 
  48:Generated_Source\PSoC5/LCD_Char_1_LCDPort.c **** *  Service Routines (ISR) can cause corruption of this function. An ISR that 
  49:Generated_Source\PSoC5/LCD_Char_1_LCDPort.c **** *  interrupts this function and performs writes to the Pins component data 
  50:Generated_Source\PSoC5/LCD_Char_1_LCDPort.c **** *  register can cause corrupted port data. To avoid this issue, you should 
  51:Generated_Source\PSoC5/LCD_Char_1_LCDPort.c **** *  either use the Per-Pin APIs (primary method) or disable interrupts around 
  52:Generated_Source\PSoC5/LCD_Char_1_LCDPort.c **** *  this function.
  53:Generated_Source\PSoC5/LCD_Char_1_LCDPort.c **** *
  54:Generated_Source\PSoC5/LCD_Char_1_LCDPort.c **** * \funcusage
  55:Generated_Source\PSoC5/LCD_Char_1_LCDPort.c **** *  \snippet LCD_Char_1_LCDPort_SUT.c usage_LCD_Char_1_LCDPort_Write
  56:Generated_Source\PSoC5/LCD_Char_1_LCDPort.c **** *******************************************************************************/
  57:Generated_Source\PSoC5/LCD_Char_1_LCDPort.c **** void LCD_Char_1_LCDPort_Write(uint8 value)
  58:Generated_Source\PSoC5/LCD_Char_1_LCDPort.c **** {
  27              		.loc 1 58 0
  28              		.cfi_startproc
  29              		@ args = 0, pretend = 0, frame = 0
  30              		@ frame_needed = 0, uses_anonymous_args = 0
  31              		@ link register save eliminated.
  32              	.LVL0:
  59:Generated_Source\PSoC5/LCD_Char_1_LCDPort.c ****     uint8 staticBits = (LCD_Char_1_LCDPort_DR & (uint8)(~LCD_Char_1_LCDPort_MASK));
  33              		.loc 1 59 0
  34 0000 044A     		ldr	r2, .L2
  60:Generated_Source\PSoC5/LCD_Char_1_LCDPort.c ****     LCD_Char_1_LCDPort_DR = staticBits | ((uint8)(value << LCD_Char_1_LCDPort_SHIFT) & LCD_Char_1_L
  35              		.loc 1 60 0
  36 0002 00F07F00 		and	r0, r0, #127
  37              	.LVL1:
  59:Generated_Source\PSoC5/LCD_Char_1_LCDPort.c ****     uint8 staticBits = (LCD_Char_1_LCDPort_DR & (uint8)(~LCD_Char_1_LCDPort_MASK));
  38              		.loc 1 59 0
  39 0006 1378     		ldrb	r3, [r2]	@ zero_extendqisi2
  40              	.LVL2:
  41 0008 03F08003 		and	r3, r3, #128
  42              	.LVL3:
  43              		.loc 1 60 0
  44 000c 1843     		orrs	r0, r0, r3
  45 000e 1070     		strb	r0, [r2]
  46 0010 7047     		bx	lr
  47              	.L3:
  48 0012 00BF     		.align	2
  49              	.L2:
  50 0014 20510040 		.word	1073762592
  51              		.cfi_endproc
  52              	.LFE0:
  53              		.size	LCD_Char_1_LCDPort_Write, .-LCD_Char_1_LCDPort_Write
ARM GAS  C:\Users\jmdevoto\AppData\Local\Temp\ccXlL6OR.s 			page 3


  54              		.section	.text.LCD_Char_1_LCDPort_SetDriveMode,"ax",%progbits
  55              		.align	2
  56              		.global	LCD_Char_1_LCDPort_SetDriveMode
  57              		.thumb
  58              		.thumb_func
  59              		.type	LCD_Char_1_LCDPort_SetDriveMode, %function
  60              	LCD_Char_1_LCDPort_SetDriveMode:
  61              	.LFB1:
  61:Generated_Source\PSoC5/LCD_Char_1_LCDPort.c **** }
  62:Generated_Source\PSoC5/LCD_Char_1_LCDPort.c **** 
  63:Generated_Source\PSoC5/LCD_Char_1_LCDPort.c **** 
  64:Generated_Source\PSoC5/LCD_Char_1_LCDPort.c **** /*******************************************************************************
  65:Generated_Source\PSoC5/LCD_Char_1_LCDPort.c **** * Function Name: LCD_Char_1_LCDPort_SetDriveMode
  66:Generated_Source\PSoC5/LCD_Char_1_LCDPort.c **** ****************************************************************************//**
  67:Generated_Source\PSoC5/LCD_Char_1_LCDPort.c **** *
  68:Generated_Source\PSoC5/LCD_Char_1_LCDPort.c **** * \brief Sets the drive mode for each of the Pins component's pins.
  69:Generated_Source\PSoC5/LCD_Char_1_LCDPort.c **** * 
  70:Generated_Source\PSoC5/LCD_Char_1_LCDPort.c **** * <b>Note</b> This affects all pins in the Pins component instance. Use the
  71:Generated_Source\PSoC5/LCD_Char_1_LCDPort.c **** * Per-Pin APIs if you wish to control individual pin's drive modes.
  72:Generated_Source\PSoC5/LCD_Char_1_LCDPort.c **** *
  73:Generated_Source\PSoC5/LCD_Char_1_LCDPort.c **** * \param mode
  74:Generated_Source\PSoC5/LCD_Char_1_LCDPort.c **** *  Mode for the selected signals. Valid options are documented in 
  75:Generated_Source\PSoC5/LCD_Char_1_LCDPort.c **** *  \ref driveMode.
  76:Generated_Source\PSoC5/LCD_Char_1_LCDPort.c **** *
  77:Generated_Source\PSoC5/LCD_Char_1_LCDPort.c **** * \return
  78:Generated_Source\PSoC5/LCD_Char_1_LCDPort.c **** *  None
  79:Generated_Source\PSoC5/LCD_Char_1_LCDPort.c **** *
  80:Generated_Source\PSoC5/LCD_Char_1_LCDPort.c **** * \sideeffect
  81:Generated_Source\PSoC5/LCD_Char_1_LCDPort.c **** *  If you use read-modify-write operations that are not atomic, the ISR can
  82:Generated_Source\PSoC5/LCD_Char_1_LCDPort.c **** *  cause corruption of this function. An ISR that interrupts this function 
  83:Generated_Source\PSoC5/LCD_Char_1_LCDPort.c **** *  and performs writes to the Pins component Drive Mode registers can cause 
  84:Generated_Source\PSoC5/LCD_Char_1_LCDPort.c **** *  corrupted port data. To avoid this issue, you should either use the Per-Pin
  85:Generated_Source\PSoC5/LCD_Char_1_LCDPort.c **** *  APIs (primary method) or disable interrupts around this function.
  86:Generated_Source\PSoC5/LCD_Char_1_LCDPort.c **** *
  87:Generated_Source\PSoC5/LCD_Char_1_LCDPort.c **** * \funcusage
  88:Generated_Source\PSoC5/LCD_Char_1_LCDPort.c **** *  \snippet LCD_Char_1_LCDPort_SUT.c usage_LCD_Char_1_LCDPort_SetDriveMode
  89:Generated_Source\PSoC5/LCD_Char_1_LCDPort.c **** *******************************************************************************/
  90:Generated_Source\PSoC5/LCD_Char_1_LCDPort.c **** void LCD_Char_1_LCDPort_SetDriveMode(uint8 mode)
  91:Generated_Source\PSoC5/LCD_Char_1_LCDPort.c **** {
  62              		.loc 1 91 0
  63              		.cfi_startproc
  64              		@ args = 0, pretend = 0, frame = 0
  65              		@ frame_needed = 0, uses_anonymous_args = 0
  66              		@ link register save eliminated.
  67              	.LVL4:
  92:Generated_Source\PSoC5/LCD_Char_1_LCDPort.c **** 	CyPins_SetPinDriveMode(LCD_Char_1_LCDPort_0, mode);
  68              		.loc 1 92 0
  69 0000 134A     		ldr	r2, .L5
  70 0002 00F00E00 		and	r0, r0, #14
  71              	.LVL5:
  72 0006 1378     		ldrb	r3, [r2]	@ zero_extendqisi2
  93:Generated_Source\PSoC5/LCD_Char_1_LCDPort.c **** 	CyPins_SetPinDriveMode(LCD_Char_1_LCDPort_1, mode);
  73              		.loc 1 93 0
  74 0008 1249     		ldr	r1, .L5+4
  92:Generated_Source\PSoC5/LCD_Char_1_LCDPort.c **** 	CyPins_SetPinDriveMode(LCD_Char_1_LCDPort_0, mode);
  75              		.loc 1 92 0
  76 000a 03F0F103 		and	r3, r3, #241
ARM GAS  C:\Users\jmdevoto\AppData\Local\Temp\ccXlL6OR.s 			page 4


  77 000e 0343     		orrs	r3, r3, r0
  78 0010 1370     		strb	r3, [r2]
  79              		.loc 1 93 0
  80 0012 0B78     		ldrb	r3, [r1]	@ zero_extendqisi2
  81 0014 03F0F103 		and	r3, r3, #241
  82 0018 0343     		orrs	r3, r3, r0
  83 001a 0B70     		strb	r3, [r1]
  94:Generated_Source\PSoC5/LCD_Char_1_LCDPort.c **** 	CyPins_SetPinDriveMode(LCD_Char_1_LCDPort_2, mode);
  84              		.loc 1 94 0
  85 001c 9378     		ldrb	r3, [r2, #2]	@ zero_extendqisi2
  86 001e 03F0F103 		and	r3, r3, #241
  87 0022 0343     		orrs	r3, r3, r0
  88 0024 9370     		strb	r3, [r2, #2]
  95:Generated_Source\PSoC5/LCD_Char_1_LCDPort.c **** 	CyPins_SetPinDriveMode(LCD_Char_1_LCDPort_3, mode);
  89              		.loc 1 95 0
  90 0026 8B78     		ldrb	r3, [r1, #2]	@ zero_extendqisi2
  91 0028 03F0F103 		and	r3, r3, #241
  92 002c 0343     		orrs	r3, r3, r0
  93 002e 8B70     		strb	r3, [r1, #2]
  96:Generated_Source\PSoC5/LCD_Char_1_LCDPort.c **** 	CyPins_SetPinDriveMode(LCD_Char_1_LCDPort_4, mode);
  94              		.loc 1 96 0
  95 0030 1379     		ldrb	r3, [r2, #4]	@ zero_extendqisi2
  96 0032 03F0F103 		and	r3, r3, #241
  97 0036 0343     		orrs	r3, r3, r0
  98 0038 1371     		strb	r3, [r2, #4]
  97:Generated_Source\PSoC5/LCD_Char_1_LCDPort.c **** 	CyPins_SetPinDriveMode(LCD_Char_1_LCDPort_5, mode);
  99              		.loc 1 97 0
 100 003a 0B79     		ldrb	r3, [r1, #4]	@ zero_extendqisi2
 101 003c 03F0F103 		and	r3, r3, #241
 102 0040 0343     		orrs	r3, r3, r0
 103 0042 0B71     		strb	r3, [r1, #4]
  98:Generated_Source\PSoC5/LCD_Char_1_LCDPort.c **** 	CyPins_SetPinDriveMode(LCD_Char_1_LCDPort_6, mode);
 104              		.loc 1 98 0
 105 0044 9379     		ldrb	r3, [r2, #6]	@ zero_extendqisi2
 106 0046 03F0F103 		and	r3, r3, #241
 107 004a 1843     		orrs	r0, r0, r3
 108 004c 9071     		strb	r0, [r2, #6]
 109 004e 7047     		bx	lr
 110              	.L6:
 111              		.align	2
 112              	.L5:
 113 0050 10500040 		.word	1073762320
 114 0054 11500040 		.word	1073762321
 115              		.cfi_endproc
 116              	.LFE1:
 117              		.size	LCD_Char_1_LCDPort_SetDriveMode, .-LCD_Char_1_LCDPort_SetDriveMode
 118              		.section	.text.LCD_Char_1_LCDPort_Read,"ax",%progbits
 119              		.align	2
 120              		.global	LCD_Char_1_LCDPort_Read
 121              		.thumb
 122              		.thumb_func
 123              		.type	LCD_Char_1_LCDPort_Read, %function
 124              	LCD_Char_1_LCDPort_Read:
 125              	.LFB2:
  99:Generated_Source\PSoC5/LCD_Char_1_LCDPort.c **** }
 100:Generated_Source\PSoC5/LCD_Char_1_LCDPort.c **** 
 101:Generated_Source\PSoC5/LCD_Char_1_LCDPort.c **** 
ARM GAS  C:\Users\jmdevoto\AppData\Local\Temp\ccXlL6OR.s 			page 5


 102:Generated_Source\PSoC5/LCD_Char_1_LCDPort.c **** /*******************************************************************************
 103:Generated_Source\PSoC5/LCD_Char_1_LCDPort.c **** * Function Name: LCD_Char_1_LCDPort_Read
 104:Generated_Source\PSoC5/LCD_Char_1_LCDPort.c **** ****************************************************************************//**
 105:Generated_Source\PSoC5/LCD_Char_1_LCDPort.c **** *
 106:Generated_Source\PSoC5/LCD_Char_1_LCDPort.c **** * \brief Reads the associated physical port (pin status register) and masks 
 107:Generated_Source\PSoC5/LCD_Char_1_LCDPort.c **** *  the required bits according to the width and bit position of the component
 108:Generated_Source\PSoC5/LCD_Char_1_LCDPort.c **** *  instance. 
 109:Generated_Source\PSoC5/LCD_Char_1_LCDPort.c **** *
 110:Generated_Source\PSoC5/LCD_Char_1_LCDPort.c **** * The pin's status register returns the current logic level present on the 
 111:Generated_Source\PSoC5/LCD_Char_1_LCDPort.c **** * physical pin.
 112:Generated_Source\PSoC5/LCD_Char_1_LCDPort.c **** *
 113:Generated_Source\PSoC5/LCD_Char_1_LCDPort.c **** * \return 
 114:Generated_Source\PSoC5/LCD_Char_1_LCDPort.c **** *  The current value for the pins in the component as a right justified number.
 115:Generated_Source\PSoC5/LCD_Char_1_LCDPort.c **** *
 116:Generated_Source\PSoC5/LCD_Char_1_LCDPort.c **** * \funcusage
 117:Generated_Source\PSoC5/LCD_Char_1_LCDPort.c **** *  \snippet LCD_Char_1_LCDPort_SUT.c usage_LCD_Char_1_LCDPort_Read  
 118:Generated_Source\PSoC5/LCD_Char_1_LCDPort.c **** *******************************************************************************/
 119:Generated_Source\PSoC5/LCD_Char_1_LCDPort.c **** uint8 LCD_Char_1_LCDPort_Read(void)
 120:Generated_Source\PSoC5/LCD_Char_1_LCDPort.c **** {
 126              		.loc 1 120 0
 127              		.cfi_startproc
 128              		@ args = 0, pretend = 0, frame = 0
 129              		@ frame_needed = 0, uses_anonymous_args = 0
 130              		@ link register save eliminated.
 121:Generated_Source\PSoC5/LCD_Char_1_LCDPort.c ****     return (LCD_Char_1_LCDPort_PS & LCD_Char_1_LCDPort_MASK) >> LCD_Char_1_LCDPort_SHIFT;
 131              		.loc 1 121 0
 132 0000 024B     		ldr	r3, .L8
 133 0002 1878     		ldrb	r0, [r3]	@ zero_extendqisi2
 122:Generated_Source\PSoC5/LCD_Char_1_LCDPort.c **** }
 134              		.loc 1 122 0
 135 0004 00F07F00 		and	r0, r0, #127
 136 0008 7047     		bx	lr
 137              	.L9:
 138 000a 00BF     		.align	2
 139              	.L8:
 140 000c 21510040 		.word	1073762593
 141              		.cfi_endproc
 142              	.LFE2:
 143              		.size	LCD_Char_1_LCDPort_Read, .-LCD_Char_1_LCDPort_Read
 144              		.section	.text.LCD_Char_1_LCDPort_ReadDataReg,"ax",%progbits
 145              		.align	2
 146              		.global	LCD_Char_1_LCDPort_ReadDataReg
 147              		.thumb
 148              		.thumb_func
 149              		.type	LCD_Char_1_LCDPort_ReadDataReg, %function
 150              	LCD_Char_1_LCDPort_ReadDataReg:
 151              	.LFB3:
 123:Generated_Source\PSoC5/LCD_Char_1_LCDPort.c **** 
 124:Generated_Source\PSoC5/LCD_Char_1_LCDPort.c **** 
 125:Generated_Source\PSoC5/LCD_Char_1_LCDPort.c **** /*******************************************************************************
 126:Generated_Source\PSoC5/LCD_Char_1_LCDPort.c **** * Function Name: LCD_Char_1_LCDPort_ReadDataReg
 127:Generated_Source\PSoC5/LCD_Char_1_LCDPort.c **** ****************************************************************************//**
 128:Generated_Source\PSoC5/LCD_Char_1_LCDPort.c **** *
 129:Generated_Source\PSoC5/LCD_Char_1_LCDPort.c **** * \brief Reads the associated physical port's data output register and masks 
 130:Generated_Source\PSoC5/LCD_Char_1_LCDPort.c **** *  the correct bits according to the width and bit position of the component 
 131:Generated_Source\PSoC5/LCD_Char_1_LCDPort.c **** *  instance. 
 132:Generated_Source\PSoC5/LCD_Char_1_LCDPort.c **** *
ARM GAS  C:\Users\jmdevoto\AppData\Local\Temp\ccXlL6OR.s 			page 6


 133:Generated_Source\PSoC5/LCD_Char_1_LCDPort.c **** * The data output register controls the signal applied to the physical pin in 
 134:Generated_Source\PSoC5/LCD_Char_1_LCDPort.c **** * conjunction with the drive mode parameter. This is not the same as the 
 135:Generated_Source\PSoC5/LCD_Char_1_LCDPort.c **** * preferred LCD_Char_1_LCDPort_Read() API because the 
 136:Generated_Source\PSoC5/LCD_Char_1_LCDPort.c **** * LCD_Char_1_LCDPort_ReadDataReg() reads the data register instead of the status 
 137:Generated_Source\PSoC5/LCD_Char_1_LCDPort.c **** * register. For output pins this is a useful function to determine the value 
 138:Generated_Source\PSoC5/LCD_Char_1_LCDPort.c **** * just written to the pin.
 139:Generated_Source\PSoC5/LCD_Char_1_LCDPort.c **** *
 140:Generated_Source\PSoC5/LCD_Char_1_LCDPort.c **** * \return 
 141:Generated_Source\PSoC5/LCD_Char_1_LCDPort.c **** *  The current value of the data register masked and shifted into a right 
 142:Generated_Source\PSoC5/LCD_Char_1_LCDPort.c **** *  justified number for the component instance.
 143:Generated_Source\PSoC5/LCD_Char_1_LCDPort.c **** *
 144:Generated_Source\PSoC5/LCD_Char_1_LCDPort.c **** * \funcusage
 145:Generated_Source\PSoC5/LCD_Char_1_LCDPort.c **** *  \snippet LCD_Char_1_LCDPort_SUT.c usage_LCD_Char_1_LCDPort_ReadDataReg 
 146:Generated_Source\PSoC5/LCD_Char_1_LCDPort.c **** *******************************************************************************/
 147:Generated_Source\PSoC5/LCD_Char_1_LCDPort.c **** uint8 LCD_Char_1_LCDPort_ReadDataReg(void)
 148:Generated_Source\PSoC5/LCD_Char_1_LCDPort.c **** {
 152              		.loc 1 148 0
 153              		.cfi_startproc
 154              		@ args = 0, pretend = 0, frame = 0
 155              		@ frame_needed = 0, uses_anonymous_args = 0
 156              		@ link register save eliminated.
 149:Generated_Source\PSoC5/LCD_Char_1_LCDPort.c ****     return (LCD_Char_1_LCDPort_DR & LCD_Char_1_LCDPort_MASK) >> LCD_Char_1_LCDPort_SHIFT;
 157              		.loc 1 149 0
 158 0000 024B     		ldr	r3, .L11
 159 0002 1878     		ldrb	r0, [r3]	@ zero_extendqisi2
 150:Generated_Source\PSoC5/LCD_Char_1_LCDPort.c **** }
 160              		.loc 1 150 0
 161 0004 00F07F00 		and	r0, r0, #127
 162 0008 7047     		bx	lr
 163              	.L12:
 164 000a 00BF     		.align	2
 165              	.L11:
 166 000c 20510040 		.word	1073762592
 167              		.cfi_endproc
 168              	.LFE3:
 169              		.size	LCD_Char_1_LCDPort_ReadDataReg, .-LCD_Char_1_LCDPort_ReadDataReg
 170              		.text
 171              	.Letext0:
 172              		.file 2 "Generated_Source\\PSoC5\\cytypes.h"