ARM GAS  C:\Users\jmdevoto\AppData\Local\Temp\ccfHMFyy.s 			page 1


   1              		.syntax unified
   2              		.cpu cortex-m3
   3              		.fpu softvfp
   4              		.eabi_attribute 20, 1
   5              		.eabi_attribute 21, 1
   6              		.eabi_attribute 23, 3
   7              		.eabi_attribute 24, 1
   8              		.eabi_attribute 25, 1
   9              		.eabi_attribute 26, 1
  10              		.eabi_attribute 30, 2
  11              		.eabi_attribute 34, 1
  12              		.eabi_attribute 18, 4
  13              		.thumb
  14              		.file	"LCD_Char_1.c"
  15              		.text
  16              	.Ltext0:
  17              		.cfi_sections	.debug_frame
  18              		.section	.text.LCD_Char_1_WrCntrlNib,"ax",%progbits
  19              		.align	2
  20              		.thumb
  21              		.thumb_func
  22              		.type	LCD_Char_1_WrCntrlNib, %function
  23              	LCD_Char_1_WrCntrlNib:
  24              	.LFB11:
  25              		.file 1 "Generated_Source\\PSoC5\\LCD_Char_1.c"
   1:Generated_Source\PSoC5/LCD_Char_1.c **** /*******************************************************************************
   2:Generated_Source\PSoC5/LCD_Char_1.c **** * File Name: LCD_Char_1.c
   3:Generated_Source\PSoC5/LCD_Char_1.c **** * Version 2.20
   4:Generated_Source\PSoC5/LCD_Char_1.c **** *
   5:Generated_Source\PSoC5/LCD_Char_1.c **** * Description:
   6:Generated_Source\PSoC5/LCD_Char_1.c **** *  This file provides source code for the Character LCD component's API.
   7:Generated_Source\PSoC5/LCD_Char_1.c **** *
   8:Generated_Source\PSoC5/LCD_Char_1.c **** * Note:
   9:Generated_Source\PSoC5/LCD_Char_1.c **** *
  10:Generated_Source\PSoC5/LCD_Char_1.c **** ********************************************************************************
  11:Generated_Source\PSoC5/LCD_Char_1.c **** * Copyright 2008-2014, Cypress Semiconductor Corporation.  All rights reserved.
  12:Generated_Source\PSoC5/LCD_Char_1.c **** * You may use this file only in accordance with the license, terms, conditions,
  13:Generated_Source\PSoC5/LCD_Char_1.c **** * disclaimers, and limitations in the end user license agreement accompanying
  14:Generated_Source\PSoC5/LCD_Char_1.c **** * the software package with which this file was provided.
  15:Generated_Source\PSoC5/LCD_Char_1.c **** *******************************************************************************/
  16:Generated_Source\PSoC5/LCD_Char_1.c **** 
  17:Generated_Source\PSoC5/LCD_Char_1.c **** #include "CyLib.h"
  18:Generated_Source\PSoC5/LCD_Char_1.c **** #include "LCD_Char_1.h"
  19:Generated_Source\PSoC5/LCD_Char_1.c **** 
  20:Generated_Source\PSoC5/LCD_Char_1.c **** 
  21:Generated_Source\PSoC5/LCD_Char_1.c **** static void LCD_Char_1_WrDatNib(uint8 nibble) ;
  22:Generated_Source\PSoC5/LCD_Char_1.c **** static void LCD_Char_1_WrCntrlNib(uint8 nibble) ;
  23:Generated_Source\PSoC5/LCD_Char_1.c **** 
  24:Generated_Source\PSoC5/LCD_Char_1.c **** /* Stores state of component. Indicates whether component is or not
  25:Generated_Source\PSoC5/LCD_Char_1.c **** * in enable state.
  26:Generated_Source\PSoC5/LCD_Char_1.c **** */
  27:Generated_Source\PSoC5/LCD_Char_1.c **** uint8 LCD_Char_1_enableState = 0u;
  28:Generated_Source\PSoC5/LCD_Char_1.c **** 
  29:Generated_Source\PSoC5/LCD_Char_1.c **** uint8 LCD_Char_1_initVar = 0u;
  30:Generated_Source\PSoC5/LCD_Char_1.c **** 
  31:Generated_Source\PSoC5/LCD_Char_1.c **** 
  32:Generated_Source\PSoC5/LCD_Char_1.c **** /*******************************************************************************
ARM GAS  C:\Users\jmdevoto\AppData\Local\Temp\ccfHMFyy.s 			page 2


  33:Generated_Source\PSoC5/LCD_Char_1.c **** * Function Name: LCD_Char_1_Init
  34:Generated_Source\PSoC5/LCD_Char_1.c **** ********************************************************************************
  35:Generated_Source\PSoC5/LCD_Char_1.c **** *
  36:Generated_Source\PSoC5/LCD_Char_1.c **** * Summary:
  37:Generated_Source\PSoC5/LCD_Char_1.c **** *  Performs initialization required for the components normal work.
  38:Generated_Source\PSoC5/LCD_Char_1.c **** *  This function initializes the LCD hardware module as follows:
  39:Generated_Source\PSoC5/LCD_Char_1.c **** *        Enables a 4-bit interface
  40:Generated_Source\PSoC5/LCD_Char_1.c **** *        Clears the display
  41:Generated_Source\PSoC5/LCD_Char_1.c **** *        Enables the auto cursor increment
  42:Generated_Source\PSoC5/LCD_Char_1.c **** *        Resets the cursor to start position
  43:Generated_Source\PSoC5/LCD_Char_1.c **** *  Also, it loads a custom character set to the LCD if it was defined in the customizer.
  44:Generated_Source\PSoC5/LCD_Char_1.c **** *
  45:Generated_Source\PSoC5/LCD_Char_1.c **** * Parameters:
  46:Generated_Source\PSoC5/LCD_Char_1.c **** *  None.
  47:Generated_Source\PSoC5/LCD_Char_1.c **** *
  48:Generated_Source\PSoC5/LCD_Char_1.c **** * Return:
  49:Generated_Source\PSoC5/LCD_Char_1.c **** *  None.
  50:Generated_Source\PSoC5/LCD_Char_1.c **** *
  51:Generated_Source\PSoC5/LCD_Char_1.c **** * Reentrant:
  52:Generated_Source\PSoC5/LCD_Char_1.c **** *  No.
  53:Generated_Source\PSoC5/LCD_Char_1.c **** *
  54:Generated_Source\PSoC5/LCD_Char_1.c **** *******************************************************************************/
  55:Generated_Source\PSoC5/LCD_Char_1.c **** void LCD_Char_1_Init(void) 
  56:Generated_Source\PSoC5/LCD_Char_1.c **** {
  57:Generated_Source\PSoC5/LCD_Char_1.c ****     /* INIT CODE */
  58:Generated_Source\PSoC5/LCD_Char_1.c ****     CyDelay(40u);                                                        /* Delay 40 ms */
  59:Generated_Source\PSoC5/LCD_Char_1.c ****     LCD_Char_1_WrCntrlNib(LCD_Char_1_DISPLAY_8_BIT_INIT);    /* Selects 8-bit mode */
  60:Generated_Source\PSoC5/LCD_Char_1.c ****     CyDelay(5u);                                                         /* Delay 5 ms */
  61:Generated_Source\PSoC5/LCD_Char_1.c ****     LCD_Char_1_WrCntrlNib(LCD_Char_1_DISPLAY_8_BIT_INIT);    /* Selects 8-bit mode */
  62:Generated_Source\PSoC5/LCD_Char_1.c ****     CyDelay(15u);                                                        /* Delay 15 ms */
  63:Generated_Source\PSoC5/LCD_Char_1.c ****     LCD_Char_1_WrCntrlNib(LCD_Char_1_DISPLAY_8_BIT_INIT);    /* Selects 8-bit mode */
  64:Generated_Source\PSoC5/LCD_Char_1.c ****     CyDelay(1u);                                                         /* Delay 1 ms */
  65:Generated_Source\PSoC5/LCD_Char_1.c ****     LCD_Char_1_WrCntrlNib(LCD_Char_1_DISPLAY_4_BIT_INIT);    /* Selects 4-bit mode */
  66:Generated_Source\PSoC5/LCD_Char_1.c ****     CyDelay(5u);                                                         /* Delay 5 ms */
  67:Generated_Source\PSoC5/LCD_Char_1.c **** 
  68:Generated_Source\PSoC5/LCD_Char_1.c ****     LCD_Char_1_WriteControl(LCD_Char_1_CURSOR_AUTO_INCR_ON);    /* Incr Cursor After Writes */
  69:Generated_Source\PSoC5/LCD_Char_1.c ****     LCD_Char_1_WriteControl(LCD_Char_1_DISPLAY_CURSOR_ON);      /* Turn Display, Cursor ON */
  70:Generated_Source\PSoC5/LCD_Char_1.c ****     LCD_Char_1_WriteControl(LCD_Char_1_DISPLAY_2_LINES_5x10);   /* 2 Lines by 5x10 Characters */
  71:Generated_Source\PSoC5/LCD_Char_1.c ****     LCD_Char_1_WriteControl(LCD_Char_1_DISPLAY_CURSOR_OFF);     /* Turn Display, Cursor OFF */
  72:Generated_Source\PSoC5/LCD_Char_1.c ****     LCD_Char_1_WriteControl(LCD_Char_1_CLEAR_DISPLAY);          /* Clear LCD Screen */
  73:Generated_Source\PSoC5/LCD_Char_1.c ****     LCD_Char_1_WriteControl(LCD_Char_1_DISPLAY_ON_CURSOR_OFF);  /* Turn Display ON, Cursor OFF */
  74:Generated_Source\PSoC5/LCD_Char_1.c ****     LCD_Char_1_WriteControl(LCD_Char_1_RESET_CURSOR_POSITION);  /* Set Cursor to 0,0 */
  75:Generated_Source\PSoC5/LCD_Char_1.c ****     CyDelay(5u);
  76:Generated_Source\PSoC5/LCD_Char_1.c **** 
  77:Generated_Source\PSoC5/LCD_Char_1.c ****     #if(LCD_Char_1_CUSTOM_CHAR_SET != LCD_Char_1_NONE)
  78:Generated_Source\PSoC5/LCD_Char_1.c ****         LCD_Char_1_LoadCustomFonts(LCD_Char_1_customFonts);
  79:Generated_Source\PSoC5/LCD_Char_1.c ****     #endif /* LCD_Char_1_CUSTOM_CHAR_SET != LCD_Char_1_NONE */
  80:Generated_Source\PSoC5/LCD_Char_1.c **** }
  81:Generated_Source\PSoC5/LCD_Char_1.c **** 
  82:Generated_Source\PSoC5/LCD_Char_1.c **** 
  83:Generated_Source\PSoC5/LCD_Char_1.c **** /*******************************************************************************
  84:Generated_Source\PSoC5/LCD_Char_1.c **** * Function Name: LCD_Char_1_Enable
  85:Generated_Source\PSoC5/LCD_Char_1.c **** ********************************************************************************
  86:Generated_Source\PSoC5/LCD_Char_1.c **** *
  87:Generated_Source\PSoC5/LCD_Char_1.c **** * Summary:
  88:Generated_Source\PSoC5/LCD_Char_1.c **** *  Turns on the display.
  89:Generated_Source\PSoC5/LCD_Char_1.c **** *
ARM GAS  C:\Users\jmdevoto\AppData\Local\Temp\ccfHMFyy.s 			page 3


  90:Generated_Source\PSoC5/LCD_Char_1.c **** * Parameters:
  91:Generated_Source\PSoC5/LCD_Char_1.c **** *  None.
  92:Generated_Source\PSoC5/LCD_Char_1.c **** *
  93:Generated_Source\PSoC5/LCD_Char_1.c **** * Return:
  94:Generated_Source\PSoC5/LCD_Char_1.c **** *  None.
  95:Generated_Source\PSoC5/LCD_Char_1.c **** *
  96:Generated_Source\PSoC5/LCD_Char_1.c **** * Reentrant:
  97:Generated_Source\PSoC5/LCD_Char_1.c **** *  No.
  98:Generated_Source\PSoC5/LCD_Char_1.c **** *
  99:Generated_Source\PSoC5/LCD_Char_1.c **** * Theory:
 100:Generated_Source\PSoC5/LCD_Char_1.c **** *  This function has no effect when it is called the first time as
 101:Generated_Source\PSoC5/LCD_Char_1.c **** *  LCD_Char_1_Init() turns on the LCD.
 102:Generated_Source\PSoC5/LCD_Char_1.c **** *
 103:Generated_Source\PSoC5/LCD_Char_1.c **** *******************************************************************************/
 104:Generated_Source\PSoC5/LCD_Char_1.c **** void LCD_Char_1_Enable(void) 
 105:Generated_Source\PSoC5/LCD_Char_1.c **** {
 106:Generated_Source\PSoC5/LCD_Char_1.c ****     LCD_Char_1_DisplayOn();
 107:Generated_Source\PSoC5/LCD_Char_1.c ****     LCD_Char_1_enableState = 1u;
 108:Generated_Source\PSoC5/LCD_Char_1.c **** }
 109:Generated_Source\PSoC5/LCD_Char_1.c **** 
 110:Generated_Source\PSoC5/LCD_Char_1.c **** 
 111:Generated_Source\PSoC5/LCD_Char_1.c **** /*******************************************************************************
 112:Generated_Source\PSoC5/LCD_Char_1.c **** * Function Name: LCD_Char_1_Start
 113:Generated_Source\PSoC5/LCD_Char_1.c **** ********************************************************************************
 114:Generated_Source\PSoC5/LCD_Char_1.c **** *
 115:Generated_Source\PSoC5/LCD_Char_1.c **** * Summary:
 116:Generated_Source\PSoC5/LCD_Char_1.c **** *  Performs initialization required for the components normal work.
 117:Generated_Source\PSoC5/LCD_Char_1.c **** *  This function initializes the LCD hardware module as follows:
 118:Generated_Source\PSoC5/LCD_Char_1.c **** *        Enables 4-bit interface
 119:Generated_Source\PSoC5/LCD_Char_1.c **** *        Clears the display
 120:Generated_Source\PSoC5/LCD_Char_1.c **** *        Enables auto cursor increment
 121:Generated_Source\PSoC5/LCD_Char_1.c **** *        Resets the cursor to start position
 122:Generated_Source\PSoC5/LCD_Char_1.c **** *  Also, it loads a custom character set to the LCD if it was defined in the customizer.
 123:Generated_Source\PSoC5/LCD_Char_1.c **** *  If it was not the first call in this project, then it just turns on the
 124:Generated_Source\PSoC5/LCD_Char_1.c **** *  display
 125:Generated_Source\PSoC5/LCD_Char_1.c **** *
 126:Generated_Source\PSoC5/LCD_Char_1.c **** *
 127:Generated_Source\PSoC5/LCD_Char_1.c **** * Parameters:
 128:Generated_Source\PSoC5/LCD_Char_1.c **** *  LCD_Char_1_initVar - global variable.
 129:Generated_Source\PSoC5/LCD_Char_1.c **** *
 130:Generated_Source\PSoC5/LCD_Char_1.c **** * Return:
 131:Generated_Source\PSoC5/LCD_Char_1.c **** *  LCD_Char_1_initVar - global variable.
 132:Generated_Source\PSoC5/LCD_Char_1.c **** *
 133:Generated_Source\PSoC5/LCD_Char_1.c **** * Reentrant:
 134:Generated_Source\PSoC5/LCD_Char_1.c **** *  No.
 135:Generated_Source\PSoC5/LCD_Char_1.c **** *
 136:Generated_Source\PSoC5/LCD_Char_1.c **** *******************************************************************************/
 137:Generated_Source\PSoC5/LCD_Char_1.c **** void LCD_Char_1_Start(void) 
 138:Generated_Source\PSoC5/LCD_Char_1.c **** {
 139:Generated_Source\PSoC5/LCD_Char_1.c ****     /* If not initialized, perform initialization */
 140:Generated_Source\PSoC5/LCD_Char_1.c ****     if(LCD_Char_1_initVar == 0u)
 141:Generated_Source\PSoC5/LCD_Char_1.c ****     {
 142:Generated_Source\PSoC5/LCD_Char_1.c ****         LCD_Char_1_Init();
 143:Generated_Source\PSoC5/LCD_Char_1.c ****         LCD_Char_1_initVar = 1u;
 144:Generated_Source\PSoC5/LCD_Char_1.c ****     }
 145:Generated_Source\PSoC5/LCD_Char_1.c **** 
 146:Generated_Source\PSoC5/LCD_Char_1.c ****     /* Turn on the LCD */
ARM GAS  C:\Users\jmdevoto\AppData\Local\Temp\ccfHMFyy.s 			page 4


 147:Generated_Source\PSoC5/LCD_Char_1.c ****     LCD_Char_1_Enable();
 148:Generated_Source\PSoC5/LCD_Char_1.c **** }
 149:Generated_Source\PSoC5/LCD_Char_1.c **** 
 150:Generated_Source\PSoC5/LCD_Char_1.c **** 
 151:Generated_Source\PSoC5/LCD_Char_1.c **** /*******************************************************************************
 152:Generated_Source\PSoC5/LCD_Char_1.c **** * Function Name: LCD_Char_1_Stop
 153:Generated_Source\PSoC5/LCD_Char_1.c **** ********************************************************************************
 154:Generated_Source\PSoC5/LCD_Char_1.c **** *
 155:Generated_Source\PSoC5/LCD_Char_1.c **** * Summary:
 156:Generated_Source\PSoC5/LCD_Char_1.c **** *  Turns off the display of the LCD screen.
 157:Generated_Source\PSoC5/LCD_Char_1.c **** *
 158:Generated_Source\PSoC5/LCD_Char_1.c **** * Parameters:
 159:Generated_Source\PSoC5/LCD_Char_1.c **** *  None.
 160:Generated_Source\PSoC5/LCD_Char_1.c **** *
 161:Generated_Source\PSoC5/LCD_Char_1.c **** * Return:
 162:Generated_Source\PSoC5/LCD_Char_1.c **** *  None.
 163:Generated_Source\PSoC5/LCD_Char_1.c **** *
 164:Generated_Source\PSoC5/LCD_Char_1.c **** * Reentrant:
 165:Generated_Source\PSoC5/LCD_Char_1.c **** *  No.
 166:Generated_Source\PSoC5/LCD_Char_1.c **** *
 167:Generated_Source\PSoC5/LCD_Char_1.c **** *******************************************************************************/
 168:Generated_Source\PSoC5/LCD_Char_1.c **** void LCD_Char_1_Stop(void) 
 169:Generated_Source\PSoC5/LCD_Char_1.c **** {
 170:Generated_Source\PSoC5/LCD_Char_1.c ****     /* Calls LCD Off Macro */
 171:Generated_Source\PSoC5/LCD_Char_1.c ****     LCD_Char_1_DisplayOff();
 172:Generated_Source\PSoC5/LCD_Char_1.c ****     LCD_Char_1_enableState = 0u;
 173:Generated_Source\PSoC5/LCD_Char_1.c **** }
 174:Generated_Source\PSoC5/LCD_Char_1.c **** 
 175:Generated_Source\PSoC5/LCD_Char_1.c **** 
 176:Generated_Source\PSoC5/LCD_Char_1.c **** /*******************************************************************************
 177:Generated_Source\PSoC5/LCD_Char_1.c **** *  Function Name: LCD_Char_1_Position
 178:Generated_Source\PSoC5/LCD_Char_1.c **** ********************************************************************************
 179:Generated_Source\PSoC5/LCD_Char_1.c **** *
 180:Generated_Source\PSoC5/LCD_Char_1.c **** * Summary:
 181:Generated_Source\PSoC5/LCD_Char_1.c **** *  Moves the active cursor location to a point specified by the input arguments
 182:Generated_Source\PSoC5/LCD_Char_1.c **** *
 183:Generated_Source\PSoC5/LCD_Char_1.c **** * Parameters:
 184:Generated_Source\PSoC5/LCD_Char_1.c **** *  row:    Specific row of LCD module to be written
 185:Generated_Source\PSoC5/LCD_Char_1.c **** *  column: Column of LCD module to be written
 186:Generated_Source\PSoC5/LCD_Char_1.c **** *
 187:Generated_Source\PSoC5/LCD_Char_1.c **** * Return:
 188:Generated_Source\PSoC5/LCD_Char_1.c **** *  None.
 189:Generated_Source\PSoC5/LCD_Char_1.c **** *
 190:Generated_Source\PSoC5/LCD_Char_1.c **** * Note:
 191:Generated_Source\PSoC5/LCD_Char_1.c **** *  This only applies for LCD displays that use the 2X40 address mode.
 192:Generated_Source\PSoC5/LCD_Char_1.c **** *  In this case Row 2 starts with a 0x28 offset from Row 1.
 193:Generated_Source\PSoC5/LCD_Char_1.c **** *  When there are more than 2 rows, each row must be fewer than 20 characters.
 194:Generated_Source\PSoC5/LCD_Char_1.c **** *
 195:Generated_Source\PSoC5/LCD_Char_1.c **** *******************************************************************************/
 196:Generated_Source\PSoC5/LCD_Char_1.c **** void LCD_Char_1_Position(uint8 row, uint8 column) 
 197:Generated_Source\PSoC5/LCD_Char_1.c **** {
 198:Generated_Source\PSoC5/LCD_Char_1.c ****     switch (row)
 199:Generated_Source\PSoC5/LCD_Char_1.c ****     {
 200:Generated_Source\PSoC5/LCD_Char_1.c ****         case (uint8)0:
 201:Generated_Source\PSoC5/LCD_Char_1.c ****             LCD_Char_1_WriteControl(LCD_Char_1_ROW_0_START + column);
 202:Generated_Source\PSoC5/LCD_Char_1.c ****             break;
 203:Generated_Source\PSoC5/LCD_Char_1.c ****         case (uint8) 1:
ARM GAS  C:\Users\jmdevoto\AppData\Local\Temp\ccfHMFyy.s 			page 5


 204:Generated_Source\PSoC5/LCD_Char_1.c ****             LCD_Char_1_WriteControl(LCD_Char_1_ROW_1_START + column);
 205:Generated_Source\PSoC5/LCD_Char_1.c ****             break;
 206:Generated_Source\PSoC5/LCD_Char_1.c ****         case (uint8) 2:
 207:Generated_Source\PSoC5/LCD_Char_1.c ****             LCD_Char_1_WriteControl(LCD_Char_1_ROW_2_START + column);
 208:Generated_Source\PSoC5/LCD_Char_1.c ****             break;
 209:Generated_Source\PSoC5/LCD_Char_1.c ****         case (uint8) 3:
 210:Generated_Source\PSoC5/LCD_Char_1.c ****             LCD_Char_1_WriteControl(LCD_Char_1_ROW_3_START + column);
 211:Generated_Source\PSoC5/LCD_Char_1.c ****             break;
 212:Generated_Source\PSoC5/LCD_Char_1.c ****         default:
 213:Generated_Source\PSoC5/LCD_Char_1.c ****             /* if default case is hit, invalid row argument was passed.*/
 214:Generated_Source\PSoC5/LCD_Char_1.c ****             break;
 215:Generated_Source\PSoC5/LCD_Char_1.c ****     }
 216:Generated_Source\PSoC5/LCD_Char_1.c **** }
 217:Generated_Source\PSoC5/LCD_Char_1.c **** 
 218:Generated_Source\PSoC5/LCD_Char_1.c **** 
 219:Generated_Source\PSoC5/LCD_Char_1.c **** /*******************************************************************************
 220:Generated_Source\PSoC5/LCD_Char_1.c **** * Function Name: LCD_Char_1_PrintString
 221:Generated_Source\PSoC5/LCD_Char_1.c **** ********************************************************************************
 222:Generated_Source\PSoC5/LCD_Char_1.c **** *
 223:Generated_Source\PSoC5/LCD_Char_1.c **** * Summary:
 224:Generated_Source\PSoC5/LCD_Char_1.c **** *  Writes a zero terminated string to the LCD.
 225:Generated_Source\PSoC5/LCD_Char_1.c **** *
 226:Generated_Source\PSoC5/LCD_Char_1.c **** * Parameters:
 227:Generated_Source\PSoC5/LCD_Char_1.c **** *  string: Pointer to head of char8 array to be written to the LCD module
 228:Generated_Source\PSoC5/LCD_Char_1.c **** *
 229:Generated_Source\PSoC5/LCD_Char_1.c **** * Return:
 230:Generated_Source\PSoC5/LCD_Char_1.c **** *  None.
 231:Generated_Source\PSoC5/LCD_Char_1.c **** *
 232:Generated_Source\PSoC5/LCD_Char_1.c **** *******************************************************************************/
 233:Generated_Source\PSoC5/LCD_Char_1.c **** void LCD_Char_1_PrintString(char8 const string[]) 
 234:Generated_Source\PSoC5/LCD_Char_1.c **** {
 235:Generated_Source\PSoC5/LCD_Char_1.c ****     uint8 indexU8 = 1u;
 236:Generated_Source\PSoC5/LCD_Char_1.c ****     char8 current = *string;
 237:Generated_Source\PSoC5/LCD_Char_1.c **** 
 238:Generated_Source\PSoC5/LCD_Char_1.c ****     /* Until null is reached, print next character */
 239:Generated_Source\PSoC5/LCD_Char_1.c ****     while((char8) '\0' != current)
 240:Generated_Source\PSoC5/LCD_Char_1.c ****     {
 241:Generated_Source\PSoC5/LCD_Char_1.c ****         LCD_Char_1_WriteData((uint8)current);
 242:Generated_Source\PSoC5/LCD_Char_1.c ****         current = string[indexU8];
 243:Generated_Source\PSoC5/LCD_Char_1.c ****         indexU8++;
 244:Generated_Source\PSoC5/LCD_Char_1.c ****     }
 245:Generated_Source\PSoC5/LCD_Char_1.c **** }
 246:Generated_Source\PSoC5/LCD_Char_1.c **** 
 247:Generated_Source\PSoC5/LCD_Char_1.c **** 
 248:Generated_Source\PSoC5/LCD_Char_1.c **** /*******************************************************************************
 249:Generated_Source\PSoC5/LCD_Char_1.c **** *  Function Name: LCD_Char_1_PutChar
 250:Generated_Source\PSoC5/LCD_Char_1.c **** ********************************************************************************
 251:Generated_Source\PSoC5/LCD_Char_1.c **** *
 252:Generated_Source\PSoC5/LCD_Char_1.c **** * Summary:
 253:Generated_Source\PSoC5/LCD_Char_1.c **** *  Writes a single character to the current cursor position of the LCD module.
 254:Generated_Source\PSoC5/LCD_Char_1.c **** *  Custom character names (_CUSTOM_0 through
 255:Generated_Source\PSoC5/LCD_Char_1.c **** *  _CUSTOM_7) are acceptable as inputs.
 256:Generated_Source\PSoC5/LCD_Char_1.c **** *
 257:Generated_Source\PSoC5/LCD_Char_1.c **** * Parameters:
 258:Generated_Source\PSoC5/LCD_Char_1.c **** *  character: Character to be written to LCD
 259:Generated_Source\PSoC5/LCD_Char_1.c **** *
 260:Generated_Source\PSoC5/LCD_Char_1.c **** * Return:
ARM GAS  C:\Users\jmdevoto\AppData\Local\Temp\ccfHMFyy.s 			page 6


 261:Generated_Source\PSoC5/LCD_Char_1.c **** *  None.
 262:Generated_Source\PSoC5/LCD_Char_1.c **** *
 263:Generated_Source\PSoC5/LCD_Char_1.c **** *******************************************************************************/
 264:Generated_Source\PSoC5/LCD_Char_1.c **** void LCD_Char_1_PutChar(char8 character) 
 265:Generated_Source\PSoC5/LCD_Char_1.c **** {
 266:Generated_Source\PSoC5/LCD_Char_1.c ****     LCD_Char_1_WriteData((uint8)character);
 267:Generated_Source\PSoC5/LCD_Char_1.c **** }
 268:Generated_Source\PSoC5/LCD_Char_1.c **** 
 269:Generated_Source\PSoC5/LCD_Char_1.c **** 
 270:Generated_Source\PSoC5/LCD_Char_1.c **** /*******************************************************************************
 271:Generated_Source\PSoC5/LCD_Char_1.c **** *  Function Name: LCD_Char_1_WriteData
 272:Generated_Source\PSoC5/LCD_Char_1.c **** ********************************************************************************
 273:Generated_Source\PSoC5/LCD_Char_1.c **** *
 274:Generated_Source\PSoC5/LCD_Char_1.c **** * Summary:
 275:Generated_Source\PSoC5/LCD_Char_1.c **** *  Writes a data byte to the LCD module's Data Display RAM.
 276:Generated_Source\PSoC5/LCD_Char_1.c **** *
 277:Generated_Source\PSoC5/LCD_Char_1.c **** * Parameters:
 278:Generated_Source\PSoC5/LCD_Char_1.c **** *  dByte: Byte to be written to the LCD module
 279:Generated_Source\PSoC5/LCD_Char_1.c **** *
 280:Generated_Source\PSoC5/LCD_Char_1.c **** * Return:
 281:Generated_Source\PSoC5/LCD_Char_1.c **** *  None.
 282:Generated_Source\PSoC5/LCD_Char_1.c **** *
 283:Generated_Source\PSoC5/LCD_Char_1.c **** *******************************************************************************/
 284:Generated_Source\PSoC5/LCD_Char_1.c **** void LCD_Char_1_WriteData(uint8 dByte) 
 285:Generated_Source\PSoC5/LCD_Char_1.c **** {
 286:Generated_Source\PSoC5/LCD_Char_1.c ****     uint8 nibble;
 287:Generated_Source\PSoC5/LCD_Char_1.c **** 
 288:Generated_Source\PSoC5/LCD_Char_1.c ****     LCD_Char_1_IsReady();
 289:Generated_Source\PSoC5/LCD_Char_1.c ****     nibble = dByte >> LCD_Char_1_NIBBLE_SHIFT;
 290:Generated_Source\PSoC5/LCD_Char_1.c **** 
 291:Generated_Source\PSoC5/LCD_Char_1.c ****     /* Write high nibble */
 292:Generated_Source\PSoC5/LCD_Char_1.c ****     LCD_Char_1_WrDatNib(nibble);
 293:Generated_Source\PSoC5/LCD_Char_1.c **** 
 294:Generated_Source\PSoC5/LCD_Char_1.c ****     nibble = dByte & LCD_Char_1_NIBBLE_MASK;
 295:Generated_Source\PSoC5/LCD_Char_1.c ****     /* Write low nibble */
 296:Generated_Source\PSoC5/LCD_Char_1.c ****     LCD_Char_1_WrDatNib(nibble);
 297:Generated_Source\PSoC5/LCD_Char_1.c **** }
 298:Generated_Source\PSoC5/LCD_Char_1.c **** 
 299:Generated_Source\PSoC5/LCD_Char_1.c **** 
 300:Generated_Source\PSoC5/LCD_Char_1.c **** /*******************************************************************************
 301:Generated_Source\PSoC5/LCD_Char_1.c **** *  Function Name: LCD_Char_1_WriteControl
 302:Generated_Source\PSoC5/LCD_Char_1.c **** ********************************************************************************
 303:Generated_Source\PSoC5/LCD_Char_1.c **** *
 304:Generated_Source\PSoC5/LCD_Char_1.c **** * Summary:
 305:Generated_Source\PSoC5/LCD_Char_1.c **** *  Writes a command byte to the LCD module.
 306:Generated_Source\PSoC5/LCD_Char_1.c **** *
 307:Generated_Source\PSoC5/LCD_Char_1.c **** * Parameters:
 308:Generated_Source\PSoC5/LCD_Char_1.c **** *  cByte:  The byte to be written to theLCD module
 309:Generated_Source\PSoC5/LCD_Char_1.c **** * 
 310:Generated_Source\PSoC5/LCD_Char_1.c **** * Return:
 311:Generated_Source\PSoC5/LCD_Char_1.c **** *  None.
 312:Generated_Source\PSoC5/LCD_Char_1.c **** *
 313:Generated_Source\PSoC5/LCD_Char_1.c **** *******************************************************************************/
 314:Generated_Source\PSoC5/LCD_Char_1.c **** void LCD_Char_1_WriteControl(uint8 cByte) 
 315:Generated_Source\PSoC5/LCD_Char_1.c **** {
 316:Generated_Source\PSoC5/LCD_Char_1.c ****     uint8 nibble;
 317:Generated_Source\PSoC5/LCD_Char_1.c **** 
ARM GAS  C:\Users\jmdevoto\AppData\Local\Temp\ccfHMFyy.s 			page 7


 318:Generated_Source\PSoC5/LCD_Char_1.c ****     LCD_Char_1_IsReady();
 319:Generated_Source\PSoC5/LCD_Char_1.c **** 
 320:Generated_Source\PSoC5/LCD_Char_1.c ****     nibble = cByte >> LCD_Char_1_NIBBLE_SHIFT;
 321:Generated_Source\PSoC5/LCD_Char_1.c ****     
 322:Generated_Source\PSoC5/LCD_Char_1.c ****     /* WrCntrlNib(High Nibble) */
 323:Generated_Source\PSoC5/LCD_Char_1.c ****     LCD_Char_1_WrCntrlNib(nibble);
 324:Generated_Source\PSoC5/LCD_Char_1.c ****     nibble = cByte & LCD_Char_1_NIBBLE_MASK;
 325:Generated_Source\PSoC5/LCD_Char_1.c **** 
 326:Generated_Source\PSoC5/LCD_Char_1.c ****     /* WrCntrlNib(Low Nibble) */
 327:Generated_Source\PSoC5/LCD_Char_1.c ****     LCD_Char_1_WrCntrlNib(nibble);
 328:Generated_Source\PSoC5/LCD_Char_1.c **** }
 329:Generated_Source\PSoC5/LCD_Char_1.c **** 
 330:Generated_Source\PSoC5/LCD_Char_1.c **** 
 331:Generated_Source\PSoC5/LCD_Char_1.c **** /*******************************************************************************
 332:Generated_Source\PSoC5/LCD_Char_1.c **** * Function Name: LCD_Char_1_IsReady
 333:Generated_Source\PSoC5/LCD_Char_1.c **** ********************************************************************************
 334:Generated_Source\PSoC5/LCD_Char_1.c **** *
 335:Generated_Source\PSoC5/LCD_Char_1.c **** * Summary:
 336:Generated_Source\PSoC5/LCD_Char_1.c **** *  Polls the LCD until the ready bit is set or a timeout occurs.
 337:Generated_Source\PSoC5/LCD_Char_1.c **** *
 338:Generated_Source\PSoC5/LCD_Char_1.c **** * Parameters:
 339:Generated_Source\PSoC5/LCD_Char_1.c **** *  None.
 340:Generated_Source\PSoC5/LCD_Char_1.c **** *
 341:Generated_Source\PSoC5/LCD_Char_1.c **** * Return:
 342:Generated_Source\PSoC5/LCD_Char_1.c **** *  None.
 343:Generated_Source\PSoC5/LCD_Char_1.c **** *
 344:Generated_Source\PSoC5/LCD_Char_1.c **** * Note:
 345:Generated_Source\PSoC5/LCD_Char_1.c **** *  Changes the pins to High-Z.
 346:Generated_Source\PSoC5/LCD_Char_1.c **** *
 347:Generated_Source\PSoC5/LCD_Char_1.c **** *******************************************************************************/
 348:Generated_Source\PSoC5/LCD_Char_1.c **** void LCD_Char_1_IsReady(void) 
 349:Generated_Source\PSoC5/LCD_Char_1.c **** {
 350:Generated_Source\PSoC5/LCD_Char_1.c ****     uint8 value;
 351:Generated_Source\PSoC5/LCD_Char_1.c ****     uint32 timeout;
 352:Generated_Source\PSoC5/LCD_Char_1.c ****     timeout = LCD_Char_1_READY_DELAY;
 353:Generated_Source\PSoC5/LCD_Char_1.c **** 
 354:Generated_Source\PSoC5/LCD_Char_1.c ****     /* Clear LCD port*/
 355:Generated_Source\PSoC5/LCD_Char_1.c ****     LCD_Char_1_PORT_DR_REG &= ((uint8)(~LCD_Char_1_PORT_MASK));
 356:Generated_Source\PSoC5/LCD_Char_1.c **** 
 357:Generated_Source\PSoC5/LCD_Char_1.c ****     /* PSoC4 has a little different from PSoC3/5 port/pin organization for setting Drive Modes.
 358:Generated_Source\PSoC5/LCD_Char_1.c ****   
 359:Generated_Source\PSoC5/LCD_Char_1.c ****     */
 360:Generated_Source\PSoC5/LCD_Char_1.c ****     #if (CY_PSOC4)
 361:Generated_Source\PSoC5/LCD_Char_1.c ****         
 362:Generated_Source\PSoC5/LCD_Char_1.c ****         /* Mask off data pins to clear old values out */
 363:Generated_Source\PSoC5/LCD_Char_1.c ****         value = LCD_Char_1_PORT_PC_REG & ((uint32) (~ LCD_Char_1_DM_DATA_MASK));
 364:Generated_Source\PSoC5/LCD_Char_1.c ****         /* Load in high Z values for data pins, others unchanged */
 365:Generated_Source\PSoC5/LCD_Char_1.c ****         LCD_Char_1_PORT_PC_REG = value | LCD_Char_1_HIGH_Z_DATA_DM;
 366:Generated_Source\PSoC5/LCD_Char_1.c **** 
 367:Generated_Source\PSoC5/LCD_Char_1.c ****     #else
 368:Generated_Source\PSoC5/LCD_Char_1.c ****     
 369:Generated_Source\PSoC5/LCD_Char_1.c ****         /* Change Port to High-Z Status on data pins */
 370:Generated_Source\PSoC5/LCD_Char_1.c **** 
 371:Generated_Source\PSoC5/LCD_Char_1.c ****         /* Mask off data pins to clear old values out */
 372:Generated_Source\PSoC5/LCD_Char_1.c ****         value = LCD_Char_1_PORT_DM0_REG & ((uint8)(~LCD_Char_1_DATA_MASK));
 373:Generated_Source\PSoC5/LCD_Char_1.c ****         /* Load in high Z values for data pins, others unchanged */
 374:Generated_Source\PSoC5/LCD_Char_1.c ****         LCD_Char_1_PORT_DM0_REG = value | (LCD_Char_1_HIGH_Z_DM0 & LCD_Char_1_DATA_MASK);
ARM GAS  C:\Users\jmdevoto\AppData\Local\Temp\ccfHMFyy.s 			page 8


 375:Generated_Source\PSoC5/LCD_Char_1.c **** 
 376:Generated_Source\PSoC5/LCD_Char_1.c ****         /* Mask off data pins to clear old values out */
 377:Generated_Source\PSoC5/LCD_Char_1.c ****         value = LCD_Char_1_PORT_DM1_REG & ((uint8)(~LCD_Char_1_DATA_MASK));
 378:Generated_Source\PSoC5/LCD_Char_1.c ****         /* Load in high Z values for data pins, others unchanged */
 379:Generated_Source\PSoC5/LCD_Char_1.c ****         LCD_Char_1_PORT_DM1_REG = value;
 380:Generated_Source\PSoC5/LCD_Char_1.c **** 
 381:Generated_Source\PSoC5/LCD_Char_1.c ****         /* Mask off data pins to clear old values out */
 382:Generated_Source\PSoC5/LCD_Char_1.c ****         value = LCD_Char_1_PORT_DM2_REG & ((uint8)(~LCD_Char_1_DATA_MASK));
 383:Generated_Source\PSoC5/LCD_Char_1.c ****         /* Load in high Z values for data pins, others unchanged */
 384:Generated_Source\PSoC5/LCD_Char_1.c ****         LCD_Char_1_PORT_DM2_REG = value;
 385:Generated_Source\PSoC5/LCD_Char_1.c ****     
 386:Generated_Source\PSoC5/LCD_Char_1.c ****     #endif /* CY_PSOC4 */
 387:Generated_Source\PSoC5/LCD_Char_1.c ****     
 388:Generated_Source\PSoC5/LCD_Char_1.c ****     /* Make sure RS is low */
 389:Generated_Source\PSoC5/LCD_Char_1.c ****     LCD_Char_1_PORT_DR_REG &= ((uint8)(~LCD_Char_1_RS));
 390:Generated_Source\PSoC5/LCD_Char_1.c **** 
 391:Generated_Source\PSoC5/LCD_Char_1.c ****     /* Set R/W high to read */
 392:Generated_Source\PSoC5/LCD_Char_1.c ****     LCD_Char_1_PORT_DR_REG |= LCD_Char_1_RW;
 393:Generated_Source\PSoC5/LCD_Char_1.c **** 
 394:Generated_Source\PSoC5/LCD_Char_1.c ****     do
 395:Generated_Source\PSoC5/LCD_Char_1.c ****     {
 396:Generated_Source\PSoC5/LCD_Char_1.c ****         /* 40 ns delay required before rising Enable and 500ns between neighbour Enables */
 397:Generated_Source\PSoC5/LCD_Char_1.c ****         CyDelayUs(0u);
 398:Generated_Source\PSoC5/LCD_Char_1.c **** 
 399:Generated_Source\PSoC5/LCD_Char_1.c ****         /* Set E high */
 400:Generated_Source\PSoC5/LCD_Char_1.c ****         LCD_Char_1_PORT_DR_REG |= LCD_Char_1_E;
 401:Generated_Source\PSoC5/LCD_Char_1.c **** 
 402:Generated_Source\PSoC5/LCD_Char_1.c ****         /* 360 ns delay setup time for data pins */
 403:Generated_Source\PSoC5/LCD_Char_1.c ****         CyDelayUs(1u);
 404:Generated_Source\PSoC5/LCD_Char_1.c **** 
 405:Generated_Source\PSoC5/LCD_Char_1.c ****         /* Get port state */
 406:Generated_Source\PSoC5/LCD_Char_1.c ****         value = LCD_Char_1_PORT_PS_REG;
 407:Generated_Source\PSoC5/LCD_Char_1.c **** 
 408:Generated_Source\PSoC5/LCD_Char_1.c ****         /* Set enable low */
 409:Generated_Source\PSoC5/LCD_Char_1.c ****         LCD_Char_1_PORT_DR_REG &= ((uint8)(~LCD_Char_1_E));
 410:Generated_Source\PSoC5/LCD_Char_1.c **** 
 411:Generated_Source\PSoC5/LCD_Char_1.c ****         /* This gives true delay between disabling Enable bit and polling Ready bit */
 412:Generated_Source\PSoC5/LCD_Char_1.c ****         CyDelayUs(0u);
 413:Generated_Source\PSoC5/LCD_Char_1.c **** 
 414:Generated_Source\PSoC5/LCD_Char_1.c ****         /* Extract ready bit */
 415:Generated_Source\PSoC5/LCD_Char_1.c ****         value &= LCD_Char_1_READY_BIT;
 416:Generated_Source\PSoC5/LCD_Char_1.c **** 
 417:Generated_Source\PSoC5/LCD_Char_1.c ****         /* Set E high as we in 4-bit interface we need extra operation */
 418:Generated_Source\PSoC5/LCD_Char_1.c ****         LCD_Char_1_PORT_DR_REG |= LCD_Char_1_E;
 419:Generated_Source\PSoC5/LCD_Char_1.c **** 
 420:Generated_Source\PSoC5/LCD_Char_1.c ****         /* 360 ns delay setup time for data pins */
 421:Generated_Source\PSoC5/LCD_Char_1.c ****         CyDelayUs(1u);
 422:Generated_Source\PSoC5/LCD_Char_1.c **** 
 423:Generated_Source\PSoC5/LCD_Char_1.c ****         /* Set enable low */
 424:Generated_Source\PSoC5/LCD_Char_1.c ****         LCD_Char_1_PORT_DR_REG &= ((uint8)(~LCD_Char_1_E));
 425:Generated_Source\PSoC5/LCD_Char_1.c **** 
 426:Generated_Source\PSoC5/LCD_Char_1.c ****         /* If LCD is not ready make a delay */
 427:Generated_Source\PSoC5/LCD_Char_1.c ****         if (value == 0u)
 428:Generated_Source\PSoC5/LCD_Char_1.c ****         {
 429:Generated_Source\PSoC5/LCD_Char_1.c ****             CyDelayUs(10u);
 430:Generated_Source\PSoC5/LCD_Char_1.c ****         }
 431:Generated_Source\PSoC5/LCD_Char_1.c **** 
ARM GAS  C:\Users\jmdevoto\AppData\Local\Temp\ccfHMFyy.s 			page 9


 432:Generated_Source\PSoC5/LCD_Char_1.c ****         /* Repeat until bit 4 is not zero or until timeout. */
 433:Generated_Source\PSoC5/LCD_Char_1.c ****         timeout--;
 434:Generated_Source\PSoC5/LCD_Char_1.c **** 
 435:Generated_Source\PSoC5/LCD_Char_1.c ****     } while ((value != 0u) && (timeout > 0u));
 436:Generated_Source\PSoC5/LCD_Char_1.c **** 
 437:Generated_Source\PSoC5/LCD_Char_1.c ****     /* Set R/W low to write */
 438:Generated_Source\PSoC5/LCD_Char_1.c ****     LCD_Char_1_PORT_DR_REG &= ((uint8)(~LCD_Char_1_RW));
 439:Generated_Source\PSoC5/LCD_Char_1.c **** 
 440:Generated_Source\PSoC5/LCD_Char_1.c ****     /* Clear LCD port*/
 441:Generated_Source\PSoC5/LCD_Char_1.c ****     LCD_Char_1_PORT_DR_REG &= ((uint8)(~LCD_Char_1_PORT_MASK));
 442:Generated_Source\PSoC5/LCD_Char_1.c **** 
 443:Generated_Source\PSoC5/LCD_Char_1.c ****     #if (CY_PSOC4)
 444:Generated_Source\PSoC5/LCD_Char_1.c ****         
 445:Generated_Source\PSoC5/LCD_Char_1.c ****         /* Mask off data pins to clear old values out */
 446:Generated_Source\PSoC5/LCD_Char_1.c ****         value = LCD_Char_1_PORT_PC_REG & ((uint32)(~ LCD_Char_1_DM_DATA_MASK));
 447:Generated_Source\PSoC5/LCD_Char_1.c ****         /* Load in high Z values for data pins, others unchanged */
 448:Generated_Source\PSoC5/LCD_Char_1.c ****         LCD_Char_1_PORT_PC_REG = value | LCD_Char_1_STRONG_DATA_DM;
 449:Generated_Source\PSoC5/LCD_Char_1.c **** 
 450:Generated_Source\PSoC5/LCD_Char_1.c ****     #else
 451:Generated_Source\PSoC5/LCD_Char_1.c **** 
 452:Generated_Source\PSoC5/LCD_Char_1.c ****         /* Change Port to Output (Strong) on data pins */
 453:Generated_Source\PSoC5/LCD_Char_1.c ****         /* Mask off data pins to clear high z values out. Configure data pins 
 454:Generated_Source\PSoC5/LCD_Char_1.c ****         * to Strong Drive, others unchanged.
 455:Generated_Source\PSoC5/LCD_Char_1.c ****         */
 456:Generated_Source\PSoC5/LCD_Char_1.c ****         LCD_Char_1_PORT_DM0_REG &= ((uint8)(~LCD_Char_1_DATA_MASK));
 457:Generated_Source\PSoC5/LCD_Char_1.c ****         /* Mask off data pins to clear high z values out */
 458:Generated_Source\PSoC5/LCD_Char_1.c ****         value = LCD_Char_1_PORT_DM1_REG & ((uint8)(~LCD_Char_1_DATA_MASK));
 459:Generated_Source\PSoC5/LCD_Char_1.c ****         /* Configure data pins to Strong Drive, others unchanged */
 460:Generated_Source\PSoC5/LCD_Char_1.c ****         LCD_Char_1_PORT_DM1_REG = value | (LCD_Char_1_STRONG_DM1 & LCD_Char_1_DATA_MASK);
 461:Generated_Source\PSoC5/LCD_Char_1.c **** 
 462:Generated_Source\PSoC5/LCD_Char_1.c ****         /* Mask off data pins to clear high z values out */
 463:Generated_Source\PSoC5/LCD_Char_1.c ****         value = LCD_Char_1_PORT_DM2_REG & ((uint8)(~LCD_Char_1_DATA_MASK));
 464:Generated_Source\PSoC5/LCD_Char_1.c ****         /* Configure data pins to Strong Drive, others unchanged */
 465:Generated_Source\PSoC5/LCD_Char_1.c ****         LCD_Char_1_PORT_DM2_REG = value | (LCD_Char_1_STRONG_DM2 & LCD_Char_1_DATA_MASK);
 466:Generated_Source\PSoC5/LCD_Char_1.c ****     
 467:Generated_Source\PSoC5/LCD_Char_1.c ****     #endif /* CY_PSOC4 */
 468:Generated_Source\PSoC5/LCD_Char_1.c **** }
 469:Generated_Source\PSoC5/LCD_Char_1.c **** 
 470:Generated_Source\PSoC5/LCD_Char_1.c **** 
 471:Generated_Source\PSoC5/LCD_Char_1.c **** /*******************************************************************************
 472:Generated_Source\PSoC5/LCD_Char_1.c **** *  Function Name: LCD_Char_1_WrDatNib
 473:Generated_Source\PSoC5/LCD_Char_1.c **** ********************************************************************************
 474:Generated_Source\PSoC5/LCD_Char_1.c **** *
 475:Generated_Source\PSoC5/LCD_Char_1.c **** * Summary:
 476:Generated_Source\PSoC5/LCD_Char_1.c **** *  Writes a data nibble to the LCD module.
 477:Generated_Source\PSoC5/LCD_Char_1.c **** *
 478:Generated_Source\PSoC5/LCD_Char_1.c **** * Parameters:
 479:Generated_Source\PSoC5/LCD_Char_1.c **** *  nibble:  Byte containing nibble in the least significant nibble to be
 480:Generated_Source\PSoC5/LCD_Char_1.c **** *           written to the LCD module.
 481:Generated_Source\PSoC5/LCD_Char_1.c **** *
 482:Generated_Source\PSoC5/LCD_Char_1.c **** * Return:
 483:Generated_Source\PSoC5/LCD_Char_1.c **** *  None.
 484:Generated_Source\PSoC5/LCD_Char_1.c **** *
 485:Generated_Source\PSoC5/LCD_Char_1.c **** *******************************************************************************/
 486:Generated_Source\PSoC5/LCD_Char_1.c **** static void LCD_Char_1_WrDatNib(uint8 nibble) 
 487:Generated_Source\PSoC5/LCD_Char_1.c **** {
 488:Generated_Source\PSoC5/LCD_Char_1.c ****     /* RS should be low to select data register */
ARM GAS  C:\Users\jmdevoto\AppData\Local\Temp\ccfHMFyy.s 			page 10


 489:Generated_Source\PSoC5/LCD_Char_1.c ****     LCD_Char_1_PORT_DR_REG |= LCD_Char_1_RS;
 490:Generated_Source\PSoC5/LCD_Char_1.c ****     /* Reset RW for write operation */
 491:Generated_Source\PSoC5/LCD_Char_1.c ****     LCD_Char_1_PORT_DR_REG &= ((uint8)(~LCD_Char_1_RW));
 492:Generated_Source\PSoC5/LCD_Char_1.c **** 
 493:Generated_Source\PSoC5/LCD_Char_1.c ****     /* Guaranteed delay between Setting RS and RW and setting E bits */
 494:Generated_Source\PSoC5/LCD_Char_1.c ****     CyDelayUs(0u);
 495:Generated_Source\PSoC5/LCD_Char_1.c ****     
 496:Generated_Source\PSoC5/LCD_Char_1.c ****     /* Clear data pins */
 497:Generated_Source\PSoC5/LCD_Char_1.c ****     LCD_Char_1_PORT_DR_REG &= ((uint8)(~LCD_Char_1_DATA_MASK));
 498:Generated_Source\PSoC5/LCD_Char_1.c **** 
 499:Generated_Source\PSoC5/LCD_Char_1.c ****     /* Write data, bring E high */
 500:Generated_Source\PSoC5/LCD_Char_1.c ****     #if(0u != LCD_Char_1_PORT_SHIFT) /* MISRA forbids shift by 0 so need to handle that */
 501:Generated_Source\PSoC5/LCD_Char_1.c ****         LCD_Char_1_PORT_DR_REG |= 
 502:Generated_Source\PSoC5/LCD_Char_1.c ****             (LCD_Char_1_E | ((uint8)(((uint8) nibble) << LCD_Char_1_PORT_SHIFT)));
 503:Generated_Source\PSoC5/LCD_Char_1.c ****     #else
 504:Generated_Source\PSoC5/LCD_Char_1.c ****         LCD_Char_1_PORT_DR_REG |= (LCD_Char_1_E | nibble);
 505:Generated_Source\PSoC5/LCD_Char_1.c ****     #endif /* (0u != LCD_Char_1_PORT_SHIFT) */
 506:Generated_Source\PSoC5/LCD_Char_1.c **** 
 507:Generated_Source\PSoC5/LCD_Char_1.c ****     /* Minimum of 230 ns delay */
 508:Generated_Source\PSoC5/LCD_Char_1.c ****     CyDelayUs(1u);
 509:Generated_Source\PSoC5/LCD_Char_1.c **** 
 510:Generated_Source\PSoC5/LCD_Char_1.c ****     LCD_Char_1_PORT_DR_REG &= ((uint8)(~LCD_Char_1_E));
 511:Generated_Source\PSoC5/LCD_Char_1.c **** }
 512:Generated_Source\PSoC5/LCD_Char_1.c **** 
 513:Generated_Source\PSoC5/LCD_Char_1.c **** 
 514:Generated_Source\PSoC5/LCD_Char_1.c **** /*******************************************************************************
 515:Generated_Source\PSoC5/LCD_Char_1.c **** *  Function Name: LCD_Char_1_WrCntrlNib
 516:Generated_Source\PSoC5/LCD_Char_1.c **** ********************************************************************************
 517:Generated_Source\PSoC5/LCD_Char_1.c **** *
 518:Generated_Source\PSoC5/LCD_Char_1.c **** * Summary:
 519:Generated_Source\PSoC5/LCD_Char_1.c **** *  Writes a control nibble to the LCD module.
 520:Generated_Source\PSoC5/LCD_Char_1.c **** *
 521:Generated_Source\PSoC5/LCD_Char_1.c **** * Parameters:
 522:Generated_Source\PSoC5/LCD_Char_1.c **** *  nibble: The byte containing a nibble in the four least significant bits.????
 523:Generated_Source\PSoC5/LCD_Char_1.c **** *
 524:Generated_Source\PSoC5/LCD_Char_1.c **** * Return:
 525:Generated_Source\PSoC5/LCD_Char_1.c **** *  None.
 526:Generated_Source\PSoC5/LCD_Char_1.c **** *
 527:Generated_Source\PSoC5/LCD_Char_1.c **** *******************************************************************************/
 528:Generated_Source\PSoC5/LCD_Char_1.c **** static void LCD_Char_1_WrCntrlNib(uint8 nibble) 
 529:Generated_Source\PSoC5/LCD_Char_1.c **** {
  26              		.loc 1 529 0
  27              		.cfi_startproc
  28              		@ args = 0, pretend = 0, frame = 0
  29              		@ frame_needed = 0, uses_anonymous_args = 0
  30              	.LVL0:
  31 0000 10B5     		push	{r4, lr}
  32              		.cfi_def_cfa_offset 8
  33              		.cfi_offset 4, -8
  34              		.cfi_offset 14, -4
 530:Generated_Source\PSoC5/LCD_Char_1.c ****     /* RS and RW should be low to select instruction register and  write operation respectively */
 531:Generated_Source\PSoC5/LCD_Char_1.c ****     LCD_Char_1_PORT_DR_REG &= ((uint8)(~(LCD_Char_1_RS | LCD_Char_1_RW)));
  35              		.loc 1 531 0
  36 0002 0B4C     		ldr	r4, .L3
  37 0004 2378     		ldrb	r3, [r4]	@ zero_extendqisi2
  38 0006 03F09F03 		and	r3, r3, #159
  39 000a 2370     		strb	r3, [r4]
ARM GAS  C:\Users\jmdevoto\AppData\Local\Temp\ccfHMFyy.s 			page 11


 532:Generated_Source\PSoC5/LCD_Char_1.c **** 
 533:Generated_Source\PSoC5/LCD_Char_1.c ****     /* Two following lines of code will give 40ns delay */
 534:Generated_Source\PSoC5/LCD_Char_1.c ****     /* Clear data pins */
 535:Generated_Source\PSoC5/LCD_Char_1.c ****     LCD_Char_1_PORT_DR_REG &= ((uint8)(~LCD_Char_1_DATA_MASK));
  40              		.loc 1 535 0
  41 000c 2378     		ldrb	r3, [r4]	@ zero_extendqisi2
  42 000e 03F0F003 		and	r3, r3, #240
  43 0012 2370     		strb	r3, [r4]
 536:Generated_Source\PSoC5/LCD_Char_1.c **** 
 537:Generated_Source\PSoC5/LCD_Char_1.c ****     /* Write control data and set enable signal */
 538:Generated_Source\PSoC5/LCD_Char_1.c ****     #if(0u != LCD_Char_1_PORT_SHIFT) /* MISRA forbids shift by 0 so need to handle that */
 539:Generated_Source\PSoC5/LCD_Char_1.c ****         LCD_Char_1_PORT_DR_REG |= 
 540:Generated_Source\PSoC5/LCD_Char_1.c ****             (LCD_Char_1_E | ((uint8)(((uint8) nibble) << LCD_Char_1_PORT_SHIFT)));
 541:Generated_Source\PSoC5/LCD_Char_1.c ****     #else
 542:Generated_Source\PSoC5/LCD_Char_1.c ****         LCD_Char_1_PORT_DR_REG |= (LCD_Char_1_E | nibble);
  44              		.loc 1 542 0
  45 0014 2378     		ldrb	r3, [r4]	@ zero_extendqisi2
  46 0016 43F01003 		orr	r3, r3, #16
  47 001a 1843     		orrs	r0, r0, r3
  48              	.LVL1:
  49 001c 2070     		strb	r0, [r4]
 543:Generated_Source\PSoC5/LCD_Char_1.c ****     #endif /* (0u != LCD_Char_1_PORT_SHIFT) */
 544:Generated_Source\PSoC5/LCD_Char_1.c **** 
 545:Generated_Source\PSoC5/LCD_Char_1.c ****     /* Minimum of 230 ns delay */
 546:Generated_Source\PSoC5/LCD_Char_1.c ****     CyDelayUs(1u);
  50              		.loc 1 546 0
  51 001e 0120     		movs	r0, #1
  52 0020 FFF7FEFF 		bl	CyDelayUs
  53              	.LVL2:
 547:Generated_Source\PSoC5/LCD_Char_1.c **** 
 548:Generated_Source\PSoC5/LCD_Char_1.c ****     LCD_Char_1_PORT_DR_REG &= ((uint8)(~LCD_Char_1_E));
  54              		.loc 1 548 0
  55 0024 2378     		ldrb	r3, [r4]	@ zero_extendqisi2
  56 0026 03F0EF03 		and	r3, r3, #239
  57 002a 2370     		strb	r3, [r4]
  58 002c 10BD     		pop	{r4, pc}
  59              	.L4:
  60 002e 00BF     		.align	2
  61              	.L3:
  62 0030 20510040 		.word	1073762592
  63              		.cfi_endproc
  64              	.LFE11:
  65              		.size	LCD_Char_1_WrCntrlNib, .-LCD_Char_1_WrCntrlNib
  66              		.section	.text.LCD_Char_1_WrDatNib,"ax",%progbits
  67              		.align	2
  68              		.thumb
  69              		.thumb_func
  70              		.type	LCD_Char_1_WrDatNib, %function
  71              	LCD_Char_1_WrDatNib:
  72              	.LFB10:
 487:Generated_Source\PSoC5/LCD_Char_1.c ****     /* RS should be low to select data register */
  73              		.loc 1 487 0
  74              		.cfi_startproc
  75              		@ args = 0, pretend = 0, frame = 0
  76              		@ frame_needed = 0, uses_anonymous_args = 0
  77              	.LVL3:
  78 0000 38B5     		push	{r3, r4, r5, lr}
ARM GAS  C:\Users\jmdevoto\AppData\Local\Temp\ccfHMFyy.s 			page 12


  79              		.cfi_def_cfa_offset 16
  80              		.cfi_offset 3, -16
  81              		.cfi_offset 4, -12
  82              		.cfi_offset 5, -8
  83              		.cfi_offset 14, -4
 487:Generated_Source\PSoC5/LCD_Char_1.c ****     /* RS should be low to select data register */
  84              		.loc 1 487 0
  85 0002 0546     		mov	r5, r0
 489:Generated_Source\PSoC5/LCD_Char_1.c ****     /* Reset RW for write operation */
  86              		.loc 1 489 0
  87 0004 0E4C     		ldr	r4, .L7
 494:Generated_Source\PSoC5/LCD_Char_1.c ****     
  88              		.loc 1 494 0
  89 0006 0020     		movs	r0, #0
  90              	.LVL4:
 489:Generated_Source\PSoC5/LCD_Char_1.c ****     /* Reset RW for write operation */
  91              		.loc 1 489 0
  92 0008 2278     		ldrb	r2, [r4]	@ zero_extendqisi2
  93 000a 42F02002 		orr	r2, r2, #32
  94 000e 2270     		strb	r2, [r4]
 491:Generated_Source\PSoC5/LCD_Char_1.c **** 
  95              		.loc 1 491 0
  96 0010 2278     		ldrb	r2, [r4]	@ zero_extendqisi2
  97 0012 02F0BF02 		and	r2, r2, #191
  98 0016 2270     		strb	r2, [r4]
 494:Generated_Source\PSoC5/LCD_Char_1.c ****     
  99              		.loc 1 494 0
 100 0018 FFF7FEFF 		bl	CyDelayUs
 101              	.LVL5:
 497:Generated_Source\PSoC5/LCD_Char_1.c **** 
 102              		.loc 1 497 0
 103 001c 2278     		ldrb	r2, [r4]	@ zero_extendqisi2
 508:Generated_Source\PSoC5/LCD_Char_1.c **** 
 104              		.loc 1 508 0
 105 001e 0120     		movs	r0, #1
 497:Generated_Source\PSoC5/LCD_Char_1.c **** 
 106              		.loc 1 497 0
 107 0020 02F0F002 		and	r2, r2, #240
 108 0024 2270     		strb	r2, [r4]
 504:Generated_Source\PSoC5/LCD_Char_1.c ****     #endif /* (0u != LCD_Char_1_PORT_SHIFT) */
 109              		.loc 1 504 0
 110 0026 2378     		ldrb	r3, [r4]	@ zero_extendqisi2
 111 0028 43F01003 		orr	r3, r3, #16
 112 002c 2B43     		orrs	r3, r3, r5
 113 002e 2370     		strb	r3, [r4]
 508:Generated_Source\PSoC5/LCD_Char_1.c **** 
 114              		.loc 1 508 0
 115 0030 FFF7FEFF 		bl	CyDelayUs
 116              	.LVL6:
 510:Generated_Source\PSoC5/LCD_Char_1.c **** }
 117              		.loc 1 510 0
 118 0034 2378     		ldrb	r3, [r4]	@ zero_extendqisi2
 119 0036 03F0EF03 		and	r3, r3, #239
 120 003a 2370     		strb	r3, [r4]
 121 003c 38BD     		pop	{r3, r4, r5, pc}
 122              	.L8:
 123 003e 00BF     		.align	2
ARM GAS  C:\Users\jmdevoto\AppData\Local\Temp\ccfHMFyy.s 			page 13


 124              	.L7:
 125 0040 20510040 		.word	1073762592
 126              		.cfi_endproc
 127              	.LFE10:
 128              		.size	LCD_Char_1_WrDatNib, .-LCD_Char_1_WrDatNib
 129              		.section	.text.LCD_Char_1_IsReady,"ax",%progbits
 130              		.align	2
 131              		.global	LCD_Char_1_IsReady
 132              		.thumb
 133              		.thumb_func
 134              		.type	LCD_Char_1_IsReady, %function
 135              	LCD_Char_1_IsReady:
 136              	.LFB9:
 349:Generated_Source\PSoC5/LCD_Char_1.c ****     uint8 value;
 137              		.loc 1 349 0
 138              		.cfi_startproc
 139              		@ args = 0, pretend = 0, frame = 0
 140              		@ frame_needed = 0, uses_anonymous_args = 0
 141              	.LVL7:
 142 0000 F8B5     		push	{r3, r4, r5, r6, r7, lr}
 143              		.cfi_def_cfa_offset 24
 144              		.cfi_offset 3, -24
 145              		.cfi_offset 4, -20
 146              		.cfi_offset 5, -16
 147              		.cfi_offset 6, -12
 148              		.cfi_offset 7, -8
 149              		.cfi_offset 14, -4
 355:Generated_Source\PSoC5/LCD_Char_1.c **** 
 150              		.loc 1 355 0
 151 0002 334B     		ldr	r3, .L18
 372:Generated_Source\PSoC5/LCD_Char_1.c ****         /* Load in high Z values for data pins, others unchanged */
 152              		.loc 1 372 0
 153 0004 334D     		ldr	r5, .L18+4
 400:Generated_Source\PSoC5/LCD_Char_1.c **** 
 154              		.loc 1 400 0
 155 0006 1C46     		mov	r4, r3
 355:Generated_Source\PSoC5/LCD_Char_1.c **** 
 156              		.loc 1 355 0
 157 0008 1A78     		ldrb	r2, [r3]	@ zero_extendqisi2
 377:Generated_Source\PSoC5/LCD_Char_1.c ****         /* Load in high Z values for data pins, others unchanged */
 158              		.loc 1 377 0
 159 000a 3348     		ldr	r0, .L18+8
 355:Generated_Source\PSoC5/LCD_Char_1.c **** 
 160              		.loc 1 355 0
 161 000c 02F08002 		and	r2, r2, #128
 162 0010 D2B2     		uxtb	r2, r2
 163 0012 1A70     		strb	r2, [r3]
 372:Generated_Source\PSoC5/LCD_Char_1.c ****         /* Load in high Z values for data pins, others unchanged */
 164              		.loc 1 372 0
 165 0014 2A78     		ldrb	r2, [r5]	@ zero_extendqisi2
 166              	.LVL8:
 382:Generated_Source\PSoC5/LCD_Char_1.c ****         /* Load in high Z values for data pins, others unchanged */
 167              		.loc 1 382 0
 168 0016 3149     		ldr	r1, .L18+12
 372:Generated_Source\PSoC5/LCD_Char_1.c ****         /* Load in high Z values for data pins, others unchanged */
 169              		.loc 1 372 0
 170 0018 02F0F002 		and	r2, r2, #240
ARM GAS  C:\Users\jmdevoto\AppData\Local\Temp\ccfHMFyy.s 			page 14


 171              	.LVL9:
 374:Generated_Source\PSoC5/LCD_Char_1.c **** 
 172              		.loc 1 374 0
 173 001c 42F00F02 		orr	r2, r2, #15
 174 0020 2A70     		strb	r2, [r5]
 377:Generated_Source\PSoC5/LCD_Char_1.c ****         /* Load in high Z values for data pins, others unchanged */
 175              		.loc 1 377 0
 176 0022 0278     		ldrb	r2, [r0]	@ zero_extendqisi2
 406:Generated_Source\PSoC5/LCD_Char_1.c **** 
 177              		.loc 1 406 0
 178 0024 2E4F     		ldr	r7, .L18+16
 377:Generated_Source\PSoC5/LCD_Char_1.c ****         /* Load in high Z values for data pins, others unchanged */
 179              		.loc 1 377 0
 180 0026 02F0F002 		and	r2, r2, #240
 181              	.LVL10:
 379:Generated_Source\PSoC5/LCD_Char_1.c **** 
 182              		.loc 1 379 0
 183 002a 0270     		strb	r2, [r0]
 382:Generated_Source\PSoC5/LCD_Char_1.c ****         /* Load in high Z values for data pins, others unchanged */
 184              		.loc 1 382 0
 185 002c 0A78     		ldrb	r2, [r1]	@ zero_extendqisi2
 186              	.LVL11:
 392:Generated_Source\PSoC5/LCD_Char_1.c **** 
 187              		.loc 1 392 0
 188 002e 4FF4CA76 		mov	r6, #404
 382:Generated_Source\PSoC5/LCD_Char_1.c ****         /* Load in high Z values for data pins, others unchanged */
 189              		.loc 1 382 0
 190 0032 02F0F002 		and	r2, r2, #240
 191              	.LVL12:
 384:Generated_Source\PSoC5/LCD_Char_1.c ****     
 192              		.loc 1 384 0
 193 0036 0A70     		strb	r2, [r1]
 389:Generated_Source\PSoC5/LCD_Char_1.c **** 
 194              		.loc 1 389 0
 195 0038 1A78     		ldrb	r2, [r3]	@ zero_extendqisi2
 196              	.LVL13:
 197 003a 02F0DF02 		and	r2, r2, #223
 198 003e 1A70     		strb	r2, [r3]
 199              	.LVL14:
 392:Generated_Source\PSoC5/LCD_Char_1.c **** 
 200              		.loc 1 392 0
 201 0040 1A78     		ldrb	r2, [r3]	@ zero_extendqisi2
 202 0042 42F04002 		orr	r2, r2, #64
 203 0046 1A70     		strb	r2, [r3]
 204              	.LVL15:
 205              	.L11:
 397:Generated_Source\PSoC5/LCD_Char_1.c **** 
 206              		.loc 1 397 0
 207 0048 0020     		movs	r0, #0
 208 004a FFF7FEFF 		bl	CyDelayUs
 209              	.LVL16:
 400:Generated_Source\PSoC5/LCD_Char_1.c **** 
 210              		.loc 1 400 0
 211 004e 2378     		ldrb	r3, [r4]	@ zero_extendqisi2
 403:Generated_Source\PSoC5/LCD_Char_1.c **** 
 212              		.loc 1 403 0
 213 0050 0120     		movs	r0, #1
ARM GAS  C:\Users\jmdevoto\AppData\Local\Temp\ccfHMFyy.s 			page 15


 400:Generated_Source\PSoC5/LCD_Char_1.c **** 
 214              		.loc 1 400 0
 215 0052 43F01003 		orr	r3, r3, #16
 216 0056 2370     		strb	r3, [r4]
 403:Generated_Source\PSoC5/LCD_Char_1.c **** 
 217              		.loc 1 403 0
 218 0058 FFF7FEFF 		bl	CyDelayUs
 219              	.LVL17:
 406:Generated_Source\PSoC5/LCD_Char_1.c **** 
 220              		.loc 1 406 0
 221 005c 3D78     		ldrb	r5, [r7]	@ zero_extendqisi2
 409:Generated_Source\PSoC5/LCD_Char_1.c **** 
 222              		.loc 1 409 0
 223 005e 2378     		ldrb	r3, [r4]	@ zero_extendqisi2
 412:Generated_Source\PSoC5/LCD_Char_1.c **** 
 224              		.loc 1 412 0
 225 0060 0020     		movs	r0, #0
 409:Generated_Source\PSoC5/LCD_Char_1.c **** 
 226              		.loc 1 409 0
 227 0062 03F0EF03 		and	r3, r3, #239
 228 0066 2370     		strb	r3, [r4]
 412:Generated_Source\PSoC5/LCD_Char_1.c **** 
 229              		.loc 1 412 0
 230 0068 FFF7FEFF 		bl	CyDelayUs
 231              	.LVL18:
 418:Generated_Source\PSoC5/LCD_Char_1.c **** 
 232              		.loc 1 418 0
 233 006c 2378     		ldrb	r3, [r4]	@ zero_extendqisi2
 421:Generated_Source\PSoC5/LCD_Char_1.c **** 
 234              		.loc 1 421 0
 235 006e 0120     		movs	r0, #1
 418:Generated_Source\PSoC5/LCD_Char_1.c **** 
 236              		.loc 1 418 0
 237 0070 43F01003 		orr	r3, r3, #16
 238 0074 2370     		strb	r3, [r4]
 421:Generated_Source\PSoC5/LCD_Char_1.c **** 
 239              		.loc 1 421 0
 240 0076 FFF7FEFF 		bl	CyDelayUs
 241              	.LVL19:
 424:Generated_Source\PSoC5/LCD_Char_1.c **** 
 242              		.loc 1 424 0
 243 007a 2378     		ldrb	r3, [r4]	@ zero_extendqisi2
 406:Generated_Source\PSoC5/LCD_Char_1.c **** 
 244              		.loc 1 406 0
 245 007c EDB2     		uxtb	r5, r5
 246              	.LVL20:
 424:Generated_Source\PSoC5/LCD_Char_1.c **** 
 247              		.loc 1 424 0
 248 007e 03F0EF03 		and	r3, r3, #239
 249 0082 2370     		strb	r3, [r4]
 427:Generated_Source\PSoC5/LCD_Char_1.c ****         {
 250              		.loc 1 427 0
 251 0084 2B07     		lsls	r3, r5, #28
 252 0086 1FD5     		bpl	.L17
 435:Generated_Source\PSoC5/LCD_Char_1.c **** 
 253              		.loc 1 435 0
 254 0088 013E     		subs	r6, r6, #1
ARM GAS  C:\Users\jmdevoto\AppData\Local\Temp\ccfHMFyy.s 			page 16


 255              	.LVL21:
 256 008a DDD1     		bne	.L11
 257              	.LVL22:
 258              	.L12:
 438:Generated_Source\PSoC5/LCD_Char_1.c **** 
 259              		.loc 1 438 0
 260 008c 104A     		ldr	r2, .L18
 456:Generated_Source\PSoC5/LCD_Char_1.c ****         /* Mask off data pins to clear high z values out */
 261              		.loc 1 456 0
 262 008e 114C     		ldr	r4, .L18+4
 438:Generated_Source\PSoC5/LCD_Char_1.c **** 
 263              		.loc 1 438 0
 264 0090 1378     		ldrb	r3, [r2]	@ zero_extendqisi2
 458:Generated_Source\PSoC5/LCD_Char_1.c ****         /* Configure data pins to Strong Drive, others unchanged */
 265              		.loc 1 458 0
 266 0092 1148     		ldr	r0, .L18+8
 438:Generated_Source\PSoC5/LCD_Char_1.c **** 
 267              		.loc 1 438 0
 268 0094 03F0BF03 		and	r3, r3, #191
 269 0098 1370     		strb	r3, [r2]
 441:Generated_Source\PSoC5/LCD_Char_1.c **** 
 270              		.loc 1 441 0
 271 009a 1378     		ldrb	r3, [r2]	@ zero_extendqisi2
 463:Generated_Source\PSoC5/LCD_Char_1.c ****         /* Configure data pins to Strong Drive, others unchanged */
 272              		.loc 1 463 0
 273 009c 0F49     		ldr	r1, .L18+12
 441:Generated_Source\PSoC5/LCD_Char_1.c **** 
 274              		.loc 1 441 0
 275 009e 03F08003 		and	r3, r3, #128
 276 00a2 DBB2     		uxtb	r3, r3
 277 00a4 1370     		strb	r3, [r2]
 456:Generated_Source\PSoC5/LCD_Char_1.c ****         /* Mask off data pins to clear high z values out */
 278              		.loc 1 456 0
 279 00a6 2378     		ldrb	r3, [r4]	@ zero_extendqisi2
 280 00a8 03F0F003 		and	r3, r3, #240
 281 00ac 2370     		strb	r3, [r4]
 458:Generated_Source\PSoC5/LCD_Char_1.c ****         /* Configure data pins to Strong Drive, others unchanged */
 282              		.loc 1 458 0
 283 00ae 0378     		ldrb	r3, [r0]	@ zero_extendqisi2
 284              	.LVL23:
 285 00b0 03F0F003 		and	r3, r3, #240
 286              	.LVL24:
 460:Generated_Source\PSoC5/LCD_Char_1.c **** 
 287              		.loc 1 460 0
 288 00b4 43F00F03 		orr	r3, r3, #15
 289 00b8 0370     		strb	r3, [r0]
 463:Generated_Source\PSoC5/LCD_Char_1.c ****         /* Configure data pins to Strong Drive, others unchanged */
 290              		.loc 1 463 0
 291 00ba 0B78     		ldrb	r3, [r1]	@ zero_extendqisi2
 292              	.LVL25:
 293 00bc 03F0F003 		and	r3, r3, #240
 294              	.LVL26:
 465:Generated_Source\PSoC5/LCD_Char_1.c ****     
 295              		.loc 1 465 0
 296 00c0 43F00F03 		orr	r3, r3, #15
 297 00c4 0B70     		strb	r3, [r1]
 298 00c6 F8BD     		pop	{r3, r4, r5, r6, r7, pc}
ARM GAS  C:\Users\jmdevoto\AppData\Local\Temp\ccfHMFyy.s 			page 17


 299              	.LVL27:
 300              	.L17:
 429:Generated_Source\PSoC5/LCD_Char_1.c ****         }
 301              		.loc 1 429 0
 302 00c8 0A20     		movs	r0, #10
 303 00ca FFF7FEFF 		bl	CyDelayUs
 304              	.LVL28:
 305 00ce DDE7     		b	.L12
 306              	.L19:
 307              		.align	2
 308              	.L18:
 309 00d0 20510040 		.word	1073762592
 310 00d4 22510040 		.word	1073762594
 311 00d8 23510040 		.word	1073762595
 312 00dc 24510040 		.word	1073762596
 313 00e0 21510040 		.word	1073762593
 314              		.cfi_endproc
 315              	.LFE9:
 316              		.size	LCD_Char_1_IsReady, .-LCD_Char_1_IsReady
 317              		.section	.text.LCD_Char_1_WriteData,"ax",%progbits
 318              		.align	2
 319              		.global	LCD_Char_1_WriteData
 320              		.thumb
 321              		.thumb_func
 322              		.type	LCD_Char_1_WriteData, %function
 323              	LCD_Char_1_WriteData:
 324              	.LFB7:
 285:Generated_Source\PSoC5/LCD_Char_1.c ****     uint8 nibble;
 325              		.loc 1 285 0
 326              		.cfi_startproc
 327              		@ args = 0, pretend = 0, frame = 0
 328              		@ frame_needed = 0, uses_anonymous_args = 0
 329              	.LVL29:
 330 0000 10B5     		push	{r4, lr}
 331              		.cfi_def_cfa_offset 8
 332              		.cfi_offset 4, -8
 333              		.cfi_offset 14, -4
 285:Generated_Source\PSoC5/LCD_Char_1.c ****     uint8 nibble;
 334              		.loc 1 285 0
 335 0002 0446     		mov	r4, r0
 288:Generated_Source\PSoC5/LCD_Char_1.c ****     nibble = dByte >> LCD_Char_1_NIBBLE_SHIFT;
 336              		.loc 1 288 0
 337 0004 FFF7FEFF 		bl	LCD_Char_1_IsReady
 338              	.LVL30:
 292:Generated_Source\PSoC5/LCD_Char_1.c **** 
 339              		.loc 1 292 0
 340 0008 2009     		lsrs	r0, r4, #4
 341 000a FFF7FEFF 		bl	LCD_Char_1_WrDatNib
 342              	.LVL31:
 296:Generated_Source\PSoC5/LCD_Char_1.c **** }
 343              		.loc 1 296 0
 344 000e 04F00F00 		and	r0, r4, #15
 297:Generated_Source\PSoC5/LCD_Char_1.c **** 
 345              		.loc 1 297 0
 346 0012 BDE81040 		pop	{r4, lr}
 347              		.cfi_restore 14
 348              		.cfi_restore 4
ARM GAS  C:\Users\jmdevoto\AppData\Local\Temp\ccfHMFyy.s 			page 18


 349              		.cfi_def_cfa_offset 0
 350              	.LVL32:
 296:Generated_Source\PSoC5/LCD_Char_1.c **** }
 351              		.loc 1 296 0
 352 0016 FFF7FEBF 		b	LCD_Char_1_WrDatNib
 353              	.LVL33:
 354              		.cfi_endproc
 355              	.LFE7:
 356              		.size	LCD_Char_1_WriteData, .-LCD_Char_1_WriteData
 357 001a 00BF     		.section	.text.LCD_Char_1_PrintString,"ax",%progbits
 358              		.align	2
 359              		.global	LCD_Char_1_PrintString
 360              		.thumb
 361              		.thumb_func
 362              		.type	LCD_Char_1_PrintString, %function
 363              	LCD_Char_1_PrintString:
 364              	.LFB5:
 234:Generated_Source\PSoC5/LCD_Char_1.c ****     uint8 indexU8 = 1u;
 365              		.loc 1 234 0
 366              		.cfi_startproc
 367              		@ args = 0, pretend = 0, frame = 0
 368              		@ frame_needed = 0, uses_anonymous_args = 0
 369              	.LVL34:
 370 0000 38B5     		push	{r3, r4, r5, lr}
 371              		.cfi_def_cfa_offset 16
 372              		.cfi_offset 3, -16
 373              		.cfi_offset 4, -12
 374              		.cfi_offset 5, -8
 375              		.cfi_offset 14, -4
 234:Generated_Source\PSoC5/LCD_Char_1.c ****     uint8 indexU8 = 1u;
 376              		.loc 1 234 0
 377 0002 0546     		mov	r5, r0
 236:Generated_Source\PSoC5/LCD_Char_1.c **** 
 378              		.loc 1 236 0
 379 0004 0078     		ldrb	r0, [r0]	@ zero_extendqisi2
 380              	.LVL35:
 239:Generated_Source\PSoC5/LCD_Char_1.c ****     {
 381              		.loc 1 239 0
 382 0006 38B1     		cbz	r0, .L22
 383 0008 0124     		movs	r4, #1
 384              	.LVL36:
 385              	.L24:
 241:Generated_Source\PSoC5/LCD_Char_1.c ****         current = string[indexU8];
 386              		.loc 1 241 0
 387 000a FFF7FEFF 		bl	LCD_Char_1_WriteData
 388              	.LVL37:
 242:Generated_Source\PSoC5/LCD_Char_1.c ****         indexU8++;
 389              		.loc 1 242 0
 390 000e 285D     		ldrb	r0, [r5, r4]	@ zero_extendqisi2
 391              	.LVL38:
 243:Generated_Source\PSoC5/LCD_Char_1.c ****     }
 392              		.loc 1 243 0
 393 0010 0134     		adds	r4, r4, #1
 394              	.LVL39:
 395 0012 E4B2     		uxtb	r4, r4
 396              	.LVL40:
 239:Generated_Source\PSoC5/LCD_Char_1.c ****     {
ARM GAS  C:\Users\jmdevoto\AppData\Local\Temp\ccfHMFyy.s 			page 19


 397              		.loc 1 239 0
 398 0014 0028     		cmp	r0, #0
 399 0016 F8D1     		bne	.L24
 400              	.LVL41:
 401              	.L22:
 402 0018 38BD     		pop	{r3, r4, r5, pc}
 403              		.cfi_endproc
 404              	.LFE5:
 405              		.size	LCD_Char_1_PrintString, .-LCD_Char_1_PrintString
 406 001a 00BF     		.section	.text.LCD_Char_1_PutChar,"ax",%progbits
 407              		.align	2
 408              		.global	LCD_Char_1_PutChar
 409              		.thumb
 410              		.thumb_func
 411              		.type	LCD_Char_1_PutChar, %function
 412              	LCD_Char_1_PutChar:
 413              	.LFB6:
 265:Generated_Source\PSoC5/LCD_Char_1.c ****     LCD_Char_1_WriteData((uint8)character);
 414              		.loc 1 265 0
 415              		.cfi_startproc
 416              		@ args = 0, pretend = 0, frame = 0
 417              		@ frame_needed = 0, uses_anonymous_args = 0
 418              		@ link register save eliminated.
 419              	.LVL42:
 266:Generated_Source\PSoC5/LCD_Char_1.c **** }
 420              		.loc 1 266 0
 421 0000 FFF7FEBF 		b	LCD_Char_1_WriteData
 422              	.LVL43:
 423              		.cfi_endproc
 424              	.LFE6:
 425              		.size	LCD_Char_1_PutChar, .-LCD_Char_1_PutChar
 426              		.section	.text.LCD_Char_1_WriteControl,"ax",%progbits
 427              		.align	2
 428              		.global	LCD_Char_1_WriteControl
 429              		.thumb
 430              		.thumb_func
 431              		.type	LCD_Char_1_WriteControl, %function
 432              	LCD_Char_1_WriteControl:
 433              	.LFB8:
 315:Generated_Source\PSoC5/LCD_Char_1.c ****     uint8 nibble;
 434              		.loc 1 315 0
 435              		.cfi_startproc
 436              		@ args = 0, pretend = 0, frame = 0
 437              		@ frame_needed = 0, uses_anonymous_args = 0
 438              	.LVL44:
 439 0000 10B5     		push	{r4, lr}
 440              		.cfi_def_cfa_offset 8
 441              		.cfi_offset 4, -8
 442              		.cfi_offset 14, -4
 315:Generated_Source\PSoC5/LCD_Char_1.c ****     uint8 nibble;
 443              		.loc 1 315 0
 444 0002 0446     		mov	r4, r0
 318:Generated_Source\PSoC5/LCD_Char_1.c **** 
 445              		.loc 1 318 0
 446 0004 FFF7FEFF 		bl	LCD_Char_1_IsReady
 447              	.LVL45:
 323:Generated_Source\PSoC5/LCD_Char_1.c ****     nibble = cByte & LCD_Char_1_NIBBLE_MASK;
ARM GAS  C:\Users\jmdevoto\AppData\Local\Temp\ccfHMFyy.s 			page 20


 448              		.loc 1 323 0
 449 0008 2009     		lsrs	r0, r4, #4
 450 000a FFF7FEFF 		bl	LCD_Char_1_WrCntrlNib
 451              	.LVL46:
 327:Generated_Source\PSoC5/LCD_Char_1.c **** }
 452              		.loc 1 327 0
 453 000e 04F00F00 		and	r0, r4, #15
 328:Generated_Source\PSoC5/LCD_Char_1.c **** 
 454              		.loc 1 328 0
 455 0012 BDE81040 		pop	{r4, lr}
 456              		.cfi_restore 14
 457              		.cfi_restore 4
 458              		.cfi_def_cfa_offset 0
 459              	.LVL47:
 327:Generated_Source\PSoC5/LCD_Char_1.c **** }
 460              		.loc 1 327 0
 461 0016 FFF7FEBF 		b	LCD_Char_1_WrCntrlNib
 462              	.LVL48:
 463              		.cfi_endproc
 464              	.LFE8:
 465              		.size	LCD_Char_1_WriteControl, .-LCD_Char_1_WriteControl
 466 001a 00BF     		.section	.text.LCD_Char_1_Init,"ax",%progbits
 467              		.align	2
 468              		.global	LCD_Char_1_Init
 469              		.thumb
 470              		.thumb_func
 471              		.type	LCD_Char_1_Init, %function
 472              	LCD_Char_1_Init:
 473              	.LFB0:
  56:Generated_Source\PSoC5/LCD_Char_1.c ****     /* INIT CODE */
 474              		.loc 1 56 0
 475              		.cfi_startproc
 476              		@ args = 0, pretend = 0, frame = 0
 477              		@ frame_needed = 0, uses_anonymous_args = 0
 478 0000 08B5     		push	{r3, lr}
 479              		.cfi_def_cfa_offset 8
 480              		.cfi_offset 3, -8
 481              		.cfi_offset 14, -4
  58:Generated_Source\PSoC5/LCD_Char_1.c ****     LCD_Char_1_WrCntrlNib(LCD_Char_1_DISPLAY_8_BIT_INIT);    /* Selects 8-bit mode */
 482              		.loc 1 58 0
 483 0002 2820     		movs	r0, #40
 484 0004 FFF7FEFF 		bl	CyDelay
 485              	.LVL49:
  59:Generated_Source\PSoC5/LCD_Char_1.c ****     CyDelay(5u);                                                         /* Delay 5 ms */
 486              		.loc 1 59 0
 487 0008 0320     		movs	r0, #3
 488 000a FFF7FEFF 		bl	LCD_Char_1_WrCntrlNib
 489              	.LVL50:
  60:Generated_Source\PSoC5/LCD_Char_1.c ****     LCD_Char_1_WrCntrlNib(LCD_Char_1_DISPLAY_8_BIT_INIT);    /* Selects 8-bit mode */
 490              		.loc 1 60 0
 491 000e 0520     		movs	r0, #5
 492 0010 FFF7FEFF 		bl	CyDelay
 493              	.LVL51:
  61:Generated_Source\PSoC5/LCD_Char_1.c ****     CyDelay(15u);                                                        /* Delay 15 ms */
 494              		.loc 1 61 0
 495 0014 0320     		movs	r0, #3
 496 0016 FFF7FEFF 		bl	LCD_Char_1_WrCntrlNib
ARM GAS  C:\Users\jmdevoto\AppData\Local\Temp\ccfHMFyy.s 			page 21


 497              	.LVL52:
  62:Generated_Source\PSoC5/LCD_Char_1.c ****     LCD_Char_1_WrCntrlNib(LCD_Char_1_DISPLAY_8_BIT_INIT);    /* Selects 8-bit mode */
 498              		.loc 1 62 0
 499 001a 0F20     		movs	r0, #15
 500 001c FFF7FEFF 		bl	CyDelay
 501              	.LVL53:
  63:Generated_Source\PSoC5/LCD_Char_1.c ****     CyDelay(1u);                                                         /* Delay 1 ms */
 502              		.loc 1 63 0
 503 0020 0320     		movs	r0, #3
 504 0022 FFF7FEFF 		bl	LCD_Char_1_WrCntrlNib
 505              	.LVL54:
  64:Generated_Source\PSoC5/LCD_Char_1.c ****     LCD_Char_1_WrCntrlNib(LCD_Char_1_DISPLAY_4_BIT_INIT);    /* Selects 4-bit mode */
 506              		.loc 1 64 0
 507 0026 0120     		movs	r0, #1
 508 0028 FFF7FEFF 		bl	CyDelay
 509              	.LVL55:
  65:Generated_Source\PSoC5/LCD_Char_1.c ****     CyDelay(5u);                                                         /* Delay 5 ms */
 510              		.loc 1 65 0
 511 002c 0220     		movs	r0, #2
 512 002e FFF7FEFF 		bl	LCD_Char_1_WrCntrlNib
 513              	.LVL56:
  66:Generated_Source\PSoC5/LCD_Char_1.c **** 
 514              		.loc 1 66 0
 515 0032 0520     		movs	r0, #5
 516 0034 FFF7FEFF 		bl	CyDelay
 517              	.LVL57:
  68:Generated_Source\PSoC5/LCD_Char_1.c ****     LCD_Char_1_WriteControl(LCD_Char_1_DISPLAY_CURSOR_ON);      /* Turn Display, Cursor ON */
 518              		.loc 1 68 0
 519 0038 0620     		movs	r0, #6
 520 003a FFF7FEFF 		bl	LCD_Char_1_WriteControl
 521              	.LVL58:
  69:Generated_Source\PSoC5/LCD_Char_1.c ****     LCD_Char_1_WriteControl(LCD_Char_1_DISPLAY_2_LINES_5x10);   /* 2 Lines by 5x10 Characters */
 522              		.loc 1 69 0
 523 003e 0E20     		movs	r0, #14
 524 0040 FFF7FEFF 		bl	LCD_Char_1_WriteControl
 525              	.LVL59:
  70:Generated_Source\PSoC5/LCD_Char_1.c ****     LCD_Char_1_WriteControl(LCD_Char_1_DISPLAY_CURSOR_OFF);     /* Turn Display, Cursor OFF */
 526              		.loc 1 70 0
 527 0044 2C20     		movs	r0, #44
 528 0046 FFF7FEFF 		bl	LCD_Char_1_WriteControl
 529              	.LVL60:
  71:Generated_Source\PSoC5/LCD_Char_1.c ****     LCD_Char_1_WriteControl(LCD_Char_1_CLEAR_DISPLAY);          /* Clear LCD Screen */
 530              		.loc 1 71 0
 531 004a 0820     		movs	r0, #8
 532 004c FFF7FEFF 		bl	LCD_Char_1_WriteControl
 533              	.LVL61:
  72:Generated_Source\PSoC5/LCD_Char_1.c ****     LCD_Char_1_WriteControl(LCD_Char_1_DISPLAY_ON_CURSOR_OFF);  /* Turn Display ON, Cursor OFF */
 534              		.loc 1 72 0
 535 0050 0120     		movs	r0, #1
 536 0052 FFF7FEFF 		bl	LCD_Char_1_WriteControl
 537              	.LVL62:
  73:Generated_Source\PSoC5/LCD_Char_1.c ****     LCD_Char_1_WriteControl(LCD_Char_1_RESET_CURSOR_POSITION);  /* Set Cursor to 0,0 */
 538              		.loc 1 73 0
 539 0056 0C20     		movs	r0, #12
 540 0058 FFF7FEFF 		bl	LCD_Char_1_WriteControl
 541              	.LVL63:
  74:Generated_Source\PSoC5/LCD_Char_1.c ****     CyDelay(5u);
ARM GAS  C:\Users\jmdevoto\AppData\Local\Temp\ccfHMFyy.s 			page 22


 542              		.loc 1 74 0
 543 005c 0320     		movs	r0, #3
 544 005e FFF7FEFF 		bl	LCD_Char_1_WriteControl
 545              	.LVL64:
  80:Generated_Source\PSoC5/LCD_Char_1.c **** 
 546              		.loc 1 80 0
 547 0062 BDE80840 		pop	{r3, lr}
 548              		.cfi_restore 14
 549              		.cfi_restore 3
 550              		.cfi_def_cfa_offset 0
  75:Generated_Source\PSoC5/LCD_Char_1.c **** 
 551              		.loc 1 75 0
 552 0066 0520     		movs	r0, #5
 553 0068 FFF7FEBF 		b	CyDelay
 554              	.LVL65:
 555              		.cfi_endproc
 556              	.LFE0:
 557              		.size	LCD_Char_1_Init, .-LCD_Char_1_Init
 558              		.section	.text.LCD_Char_1_Enable,"ax",%progbits
 559              		.align	2
 560              		.global	LCD_Char_1_Enable
 561              		.thumb
 562              		.thumb_func
 563              		.type	LCD_Char_1_Enable, %function
 564              	LCD_Char_1_Enable:
 565              	.LFB1:
 105:Generated_Source\PSoC5/LCD_Char_1.c ****     LCD_Char_1_DisplayOn();
 566              		.loc 1 105 0
 567              		.cfi_startproc
 568              		@ args = 0, pretend = 0, frame = 0
 569              		@ frame_needed = 0, uses_anonymous_args = 0
 570 0000 08B5     		push	{r3, lr}
 571              		.cfi_def_cfa_offset 8
 572              		.cfi_offset 3, -8
 573              		.cfi_offset 14, -4
 106:Generated_Source\PSoC5/LCD_Char_1.c ****     LCD_Char_1_enableState = 1u;
 574              		.loc 1 106 0
 575 0002 0C20     		movs	r0, #12
 576 0004 FFF7FEFF 		bl	LCD_Char_1_WriteControl
 577              	.LVL66:
 107:Generated_Source\PSoC5/LCD_Char_1.c **** }
 578              		.loc 1 107 0
 579 0008 014B     		ldr	r3, .L35
 580 000a 0122     		movs	r2, #1
 581 000c 1A70     		strb	r2, [r3]
 582 000e 08BD     		pop	{r3, pc}
 583              	.L36:
 584              		.align	2
 585              	.L35:
 586 0010 00000000 		.word	.LANCHOR0
 587              		.cfi_endproc
 588              	.LFE1:
 589              		.size	LCD_Char_1_Enable, .-LCD_Char_1_Enable
 590              		.section	.text.LCD_Char_1_Start,"ax",%progbits
 591              		.align	2
 592              		.global	LCD_Char_1_Start
 593              		.thumb
ARM GAS  C:\Users\jmdevoto\AppData\Local\Temp\ccfHMFyy.s 			page 23


 594              		.thumb_func
 595              		.type	LCD_Char_1_Start, %function
 596              	LCD_Char_1_Start:
 597              	.LFB2:
 138:Generated_Source\PSoC5/LCD_Char_1.c ****     /* If not initialized, perform initialization */
 598              		.loc 1 138 0
 599              		.cfi_startproc
 600              		@ args = 0, pretend = 0, frame = 0
 601              		@ frame_needed = 0, uses_anonymous_args = 0
 602 0000 10B5     		push	{r4, lr}
 603              		.cfi_def_cfa_offset 8
 604              		.cfi_offset 4, -8
 605              		.cfi_offset 14, -4
 140:Generated_Source\PSoC5/LCD_Char_1.c ****     {
 606              		.loc 1 140 0
 607 0002 064C     		ldr	r4, .L40
 608 0004 6378     		ldrb	r3, [r4, #1]	@ zero_extendqisi2
 609 0006 1BB9     		cbnz	r3, .L38
 142:Generated_Source\PSoC5/LCD_Char_1.c ****         LCD_Char_1_initVar = 1u;
 610              		.loc 1 142 0
 611 0008 FFF7FEFF 		bl	LCD_Char_1_Init
 612              	.LVL67:
 143:Generated_Source\PSoC5/LCD_Char_1.c ****     }
 613              		.loc 1 143 0
 614 000c 0123     		movs	r3, #1
 615 000e 6370     		strb	r3, [r4, #1]
 616              	.L38:
 617              	.LBB8:
 618              	.LBB9:
 106:Generated_Source\PSoC5/LCD_Char_1.c ****     LCD_Char_1_enableState = 1u;
 619              		.loc 1 106 0
 620 0010 0C20     		movs	r0, #12
 621 0012 FFF7FEFF 		bl	LCD_Char_1_WriteControl
 622              	.LVL68:
 107:Generated_Source\PSoC5/LCD_Char_1.c **** }
 623              		.loc 1 107 0
 624 0016 0123     		movs	r3, #1
 625 0018 2370     		strb	r3, [r4]
 626 001a 10BD     		pop	{r4, pc}
 627              	.L41:
 628              		.align	2
 629              	.L40:
 630 001c 00000000 		.word	.LANCHOR0
 631              	.LBE9:
 632              	.LBE8:
 633              		.cfi_endproc
 634              	.LFE2:
 635              		.size	LCD_Char_1_Start, .-LCD_Char_1_Start
 636              		.section	.text.LCD_Char_1_Stop,"ax",%progbits
 637              		.align	2
 638              		.global	LCD_Char_1_Stop
 639              		.thumb
 640              		.thumb_func
 641              		.type	LCD_Char_1_Stop, %function
 642              	LCD_Char_1_Stop:
 643              	.LFB3:
 169:Generated_Source\PSoC5/LCD_Char_1.c ****     /* Calls LCD Off Macro */
ARM GAS  C:\Users\jmdevoto\AppData\Local\Temp\ccfHMFyy.s 			page 24


 644              		.loc 1 169 0
 645              		.cfi_startproc
 646              		@ args = 0, pretend = 0, frame = 0
 647              		@ frame_needed = 0, uses_anonymous_args = 0
 648 0000 08B5     		push	{r3, lr}
 649              		.cfi_def_cfa_offset 8
 650              		.cfi_offset 3, -8
 651              		.cfi_offset 14, -4
 171:Generated_Source\PSoC5/LCD_Char_1.c ****     LCD_Char_1_enableState = 0u;
 652              		.loc 1 171 0
 653 0002 0820     		movs	r0, #8
 654 0004 FFF7FEFF 		bl	LCD_Char_1_WriteControl
 655              	.LVL69:
 172:Generated_Source\PSoC5/LCD_Char_1.c **** }
 656              		.loc 1 172 0
 657 0008 014B     		ldr	r3, .L44
 658 000a 0022     		movs	r2, #0
 659 000c 1A70     		strb	r2, [r3]
 660 000e 08BD     		pop	{r3, pc}
 661              	.L45:
 662              		.align	2
 663              	.L44:
 664 0010 00000000 		.word	.LANCHOR0
 665              		.cfi_endproc
 666              	.LFE3:
 667              		.size	LCD_Char_1_Stop, .-LCD_Char_1_Stop
 668              		.section	.text.LCD_Char_1_Position,"ax",%progbits
 669              		.align	2
 670              		.global	LCD_Char_1_Position
 671              		.thumb
 672              		.thumb_func
 673              		.type	LCD_Char_1_Position, %function
 674              	LCD_Char_1_Position:
 675              	.LFB4:
 197:Generated_Source\PSoC5/LCD_Char_1.c ****     switch (row)
 676              		.loc 1 197 0
 677              		.cfi_startproc
 678              		@ args = 0, pretend = 0, frame = 0
 679              		@ frame_needed = 0, uses_anonymous_args = 0
 680              		@ link register save eliminated.
 681              	.LVL70:
 198:Generated_Source\PSoC5/LCD_Char_1.c ****     {
 682              		.loc 1 198 0
 683 0000 0328     		cmp	r0, #3
 684 0002 16D8     		bhi	.L46
 685 0004 DFE800F0 		tbb	[pc, r0]
 686              	.L49:
 687 0008 11       		.byte	(.L48-.L49)/2
 688 0009 0C       		.byte	(.L50-.L49)/2
 689 000a 07       		.byte	(.L51-.L49)/2
 690 000b 02       		.byte	(.L52-.L49)/2
 691              		.p2align 1
 692              	.L52:
 210:Generated_Source\PSoC5/LCD_Char_1.c ****             break;
 693              		.loc 1 210 0
 694 000c A1F12C00 		sub	r0, r1, #44
 695              	.LVL71:
ARM GAS  C:\Users\jmdevoto\AppData\Local\Temp\ccfHMFyy.s 			page 25


 696 0010 C0B2     		uxtb	r0, r0
 697 0012 FFF7FEBF 		b	LCD_Char_1_WriteControl
 698              	.LVL72:
 699              	.L51:
 207:Generated_Source\PSoC5/LCD_Char_1.c ****             break;
 700              		.loc 1 207 0
 701 0016 A1F16C00 		sub	r0, r1, #108
 702              	.LVL73:
 703 001a C0B2     		uxtb	r0, r0
 704 001c FFF7FEBF 		b	LCD_Char_1_WriteControl
 705              	.LVL74:
 706              	.L50:
 204:Generated_Source\PSoC5/LCD_Char_1.c ****             break;
 707              		.loc 1 204 0
 708 0020 A1F14000 		sub	r0, r1, #64
 709              	.LVL75:
 710 0024 C0B2     		uxtb	r0, r0
 711 0026 FFF7FEBF 		b	LCD_Char_1_WriteControl
 712              	.LVL76:
 713              	.L48:
 201:Generated_Source\PSoC5/LCD_Char_1.c ****             break;
 714              		.loc 1 201 0
 715 002a 81F08000 		eor	r0, r1, #128
 716              	.LVL77:
 717 002e FFF7FEBF 		b	LCD_Char_1_WriteControl
 718              	.LVL78:
 719              	.L46:
 720 0032 7047     		bx	lr
 721              		.cfi_endproc
 722              	.LFE4:
 723              		.size	LCD_Char_1_Position, .-LCD_Char_1_Position
 724              		.section	.text.LCD_Char_1_PrintInt8,"ax",%progbits
 725              		.align	2
 726              		.global	LCD_Char_1_PrintInt8
 727              		.thumb
 728              		.thumb_func
 729              		.type	LCD_Char_1_PrintInt8, %function
 730              	LCD_Char_1_PrintInt8:
 731              	.LFB12:
 549:Generated_Source\PSoC5/LCD_Char_1.c **** }
 550:Generated_Source\PSoC5/LCD_Char_1.c **** 
 551:Generated_Source\PSoC5/LCD_Char_1.c **** 
 552:Generated_Source\PSoC5/LCD_Char_1.c **** #if(LCD_Char_1_CONVERSION_ROUTINES == 1u)
 553:Generated_Source\PSoC5/LCD_Char_1.c **** 
 554:Generated_Source\PSoC5/LCD_Char_1.c ****     /*******************************************************************************
 555:Generated_Source\PSoC5/LCD_Char_1.c ****     *  Function Name: LCD_Char_1_PrintInt8
 556:Generated_Source\PSoC5/LCD_Char_1.c ****     ********************************************************************************
 557:Generated_Source\PSoC5/LCD_Char_1.c ****     *
 558:Generated_Source\PSoC5/LCD_Char_1.c ****     * Summary:
 559:Generated_Source\PSoC5/LCD_Char_1.c ****     *  Print a byte as two ASCII characters.
 560:Generated_Source\PSoC5/LCD_Char_1.c ****     *
 561:Generated_Source\PSoC5/LCD_Char_1.c ****     * Parameters:
 562:Generated_Source\PSoC5/LCD_Char_1.c ****     *  value: The byte to be printed out as ASCII characters.
 563:Generated_Source\PSoC5/LCD_Char_1.c ****     *
 564:Generated_Source\PSoC5/LCD_Char_1.c ****     * Return:
 565:Generated_Source\PSoC5/LCD_Char_1.c ****     *  None.
 566:Generated_Source\PSoC5/LCD_Char_1.c ****     *
ARM GAS  C:\Users\jmdevoto\AppData\Local\Temp\ccfHMFyy.s 			page 26


 567:Generated_Source\PSoC5/LCD_Char_1.c ****     *******************************************************************************/
 568:Generated_Source\PSoC5/LCD_Char_1.c ****     void LCD_Char_1_PrintInt8(uint8 value) 
 569:Generated_Source\PSoC5/LCD_Char_1.c ****     {
 732              		.loc 1 569 0
 733              		.cfi_startproc
 734              		@ args = 0, pretend = 0, frame = 0
 735              		@ frame_needed = 0, uses_anonymous_args = 0
 736              	.LVL79:
 737 0000 38B5     		push	{r3, r4, r5, lr}
 738              		.cfi_def_cfa_offset 16
 739              		.cfi_offset 3, -16
 740              		.cfi_offset 4, -12
 741              		.cfi_offset 5, -8
 742              		.cfi_offset 14, -4
 743              		.loc 1 569 0
 744 0002 0446     		mov	r4, r0
 745              	.LVL80:
 570:Generated_Source\PSoC5/LCD_Char_1.c ****         static char8 const CYCODE LCD_Char_1_hex[16u] = "0123456789ABCDEF";
 571:Generated_Source\PSoC5/LCD_Char_1.c ****         
 572:Generated_Source\PSoC5/LCD_Char_1.c ****         LCD_Char_1_PutChar((char8) LCD_Char_1_hex[value >> LCD_Char_1_BYTE_UPPER_NIBBLE_SHIFT]);
 746              		.loc 1 572 0
 747 0004 054D     		ldr	r5, .L55
 748 0006 0309     		lsrs	r3, r0, #4
 749              	.LBB10:
 750              	.LBB11:
 266:Generated_Source\PSoC5/LCD_Char_1.c **** }
 751              		.loc 1 266 0
 752 0008 E85C     		ldrb	r0, [r5, r3]	@ zero_extendqisi2
 753              	.LVL81:
 754              	.LBE11:
 755              	.LBE10:
 573:Generated_Source\PSoC5/LCD_Char_1.c ****         LCD_Char_1_PutChar((char8) LCD_Char_1_hex[value & LCD_Char_1_BYTE_LOWER_NIBBLE_MASK]);
 756              		.loc 1 573 0
 757 000a 04F00F04 		and	r4, r4, #15
 758              	.LBB13:
 759              	.LBB12:
 266:Generated_Source\PSoC5/LCD_Char_1.c **** }
 760              		.loc 1 266 0
 761 000e FFF7FEFF 		bl	LCD_Char_1_WriteData
 762              	.LVL82:
 763              	.LBE12:
 764              	.LBE13:
 765              	.LBB14:
 766              	.LBB15:
 767 0012 285D     		ldrb	r0, [r5, r4]	@ zero_extendqisi2
 768              	.LBE15:
 769              	.LBE14:
 574:Generated_Source\PSoC5/LCD_Char_1.c ****     }
 770              		.loc 1 574 0
 771 0014 BDE83840 		pop	{r3, r4, r5, lr}
 772              		.cfi_restore 14
 773              		.cfi_restore 5
 774              		.cfi_restore 4
 775              		.cfi_restore 3
 776              		.cfi_def_cfa_offset 0
 777              	.LBB17:
 778              	.LBB16:
ARM GAS  C:\Users\jmdevoto\AppData\Local\Temp\ccfHMFyy.s 			page 27


 266:Generated_Source\PSoC5/LCD_Char_1.c **** }
 779              		.loc 1 266 0
 780 0018 FFF7FEBF 		b	LCD_Char_1_WriteData
 781              	.LVL83:
 782              	.L56:
 783              		.align	2
 784              	.L55:
 785 001c 00000000 		.word	.LANCHOR1
 786              	.LBE16:
 787              	.LBE17:
 788              		.cfi_endproc
 789              	.LFE12:
 790              		.size	LCD_Char_1_PrintInt8, .-LCD_Char_1_PrintInt8
 791              		.section	.text.LCD_Char_1_PrintInt16,"ax",%progbits
 792              		.align	2
 793              		.global	LCD_Char_1_PrintInt16
 794              		.thumb
 795              		.thumb_func
 796              		.type	LCD_Char_1_PrintInt16, %function
 797              	LCD_Char_1_PrintInt16:
 798              	.LFB13:
 575:Generated_Source\PSoC5/LCD_Char_1.c **** 
 576:Generated_Source\PSoC5/LCD_Char_1.c **** 
 577:Generated_Source\PSoC5/LCD_Char_1.c ****     /*******************************************************************************
 578:Generated_Source\PSoC5/LCD_Char_1.c ****     *  Function Name: LCD_Char_1_PrintInt16
 579:Generated_Source\PSoC5/LCD_Char_1.c ****     ********************************************************************************
 580:Generated_Source\PSoC5/LCD_Char_1.c ****     *
 581:Generated_Source\PSoC5/LCD_Char_1.c ****     * Summary:
 582:Generated_Source\PSoC5/LCD_Char_1.c ****     *  Print a uint16 as four ASCII characters.
 583:Generated_Source\PSoC5/LCD_Char_1.c ****     *
 584:Generated_Source\PSoC5/LCD_Char_1.c ****     * Parameters:
 585:Generated_Source\PSoC5/LCD_Char_1.c ****     *  value: The uint16 to be printed out as ASCII characters.
 586:Generated_Source\PSoC5/LCD_Char_1.c ****     *
 587:Generated_Source\PSoC5/LCD_Char_1.c ****     * Return:
 588:Generated_Source\PSoC5/LCD_Char_1.c ****     *  None.
 589:Generated_Source\PSoC5/LCD_Char_1.c ****     *
 590:Generated_Source\PSoC5/LCD_Char_1.c ****     *******************************************************************************/
 591:Generated_Source\PSoC5/LCD_Char_1.c ****     void LCD_Char_1_PrintInt16(uint16 value) 
 592:Generated_Source\PSoC5/LCD_Char_1.c ****     {
 799              		.loc 1 592 0
 800              		.cfi_startproc
 801              		@ args = 0, pretend = 0, frame = 0
 802              		@ frame_needed = 0, uses_anonymous_args = 0
 803              	.LVL84:
 804 0000 10B5     		push	{r4, lr}
 805              		.cfi_def_cfa_offset 8
 806              		.cfi_offset 4, -8
 807              		.cfi_offset 14, -4
 808              		.loc 1 592 0
 809 0002 0446     		mov	r4, r0
 593:Generated_Source\PSoC5/LCD_Char_1.c ****         LCD_Char_1_PrintInt8((uint8)(value >> LCD_Char_1_U16_UPPER_BYTE_SHIFT));
 810              		.loc 1 593 0
 811 0004 000A     		lsrs	r0, r0, #8
 812              	.LVL85:
 813 0006 FFF7FEFF 		bl	LCD_Char_1_PrintInt8
 814              	.LVL86:
 594:Generated_Source\PSoC5/LCD_Char_1.c ****         LCD_Char_1_PrintInt8((uint8)(value & LCD_Char_1_U16_LOWER_BYTE_MASK));
ARM GAS  C:\Users\jmdevoto\AppData\Local\Temp\ccfHMFyy.s 			page 28


 815              		.loc 1 594 0
 816 000a E0B2     		uxtb	r0, r4
 595:Generated_Source\PSoC5/LCD_Char_1.c ****     }
 817              		.loc 1 595 0
 818 000c BDE81040 		pop	{r4, lr}
 819              		.cfi_restore 14
 820              		.cfi_restore 4
 821              		.cfi_def_cfa_offset 0
 594:Generated_Source\PSoC5/LCD_Char_1.c ****         LCD_Char_1_PrintInt8((uint8)(value & LCD_Char_1_U16_LOWER_BYTE_MASK));
 822              		.loc 1 594 0
 823 0010 FFF7FEBF 		b	LCD_Char_1_PrintInt8
 824              	.LVL87:
 825              		.cfi_endproc
 826              	.LFE13:
 827              		.size	LCD_Char_1_PrintInt16, .-LCD_Char_1_PrintInt16
 828              		.section	.text.LCD_Char_1_PrintInt32,"ax",%progbits
 829              		.align	2
 830              		.global	LCD_Char_1_PrintInt32
 831              		.thumb
 832              		.thumb_func
 833              		.type	LCD_Char_1_PrintInt32, %function
 834              	LCD_Char_1_PrintInt32:
 835              	.LFB14:
 596:Generated_Source\PSoC5/LCD_Char_1.c **** 
 597:Generated_Source\PSoC5/LCD_Char_1.c ****     
 598:Generated_Source\PSoC5/LCD_Char_1.c ****     /*******************************************************************************
 599:Generated_Source\PSoC5/LCD_Char_1.c ****     *  Function Name: LCD_Char_1_PrintInt32
 600:Generated_Source\PSoC5/LCD_Char_1.c ****     ********************************************************************************
 601:Generated_Source\PSoC5/LCD_Char_1.c ****     *
 602:Generated_Source\PSoC5/LCD_Char_1.c ****     * Summary:
 603:Generated_Source\PSoC5/LCD_Char_1.c ****     *  Print a uint32 hexadecimal number as eight ASCII characters.
 604:Generated_Source\PSoC5/LCD_Char_1.c ****     *
 605:Generated_Source\PSoC5/LCD_Char_1.c ****     * Parameters:
 606:Generated_Source\PSoC5/LCD_Char_1.c ****     *  value: The uint32 to be printed out as ASCII characters.
 607:Generated_Source\PSoC5/LCD_Char_1.c ****     *
 608:Generated_Source\PSoC5/LCD_Char_1.c ****     * Return:
 609:Generated_Source\PSoC5/LCD_Char_1.c ****     *  None.
 610:Generated_Source\PSoC5/LCD_Char_1.c ****     *
 611:Generated_Source\PSoC5/LCD_Char_1.c ****     *******************************************************************************/
 612:Generated_Source\PSoC5/LCD_Char_1.c ****     void LCD_Char_1_PrintInt32(uint32 value) 
 613:Generated_Source\PSoC5/LCD_Char_1.c ****     {
 836              		.loc 1 613 0
 837              		.cfi_startproc
 838              		@ args = 0, pretend = 0, frame = 0
 839              		@ frame_needed = 0, uses_anonymous_args = 0
 840              	.LVL88:
 841 0000 38B5     		push	{r3, r4, r5, lr}
 842              		.cfi_def_cfa_offset 16
 843              		.cfi_offset 3, -16
 844              		.cfi_offset 4, -12
 845              		.cfi_offset 5, -8
 846              		.cfi_offset 14, -4
 847              		.loc 1 613 0
 848 0002 0546     		mov	r5, r0
 614:Generated_Source\PSoC5/LCD_Char_1.c ****         uint8 shift = LCD_Char_1_32_BIT_SHIFT;
 849              		.loc 1 614 0
 850 0004 2024     		movs	r4, #32
ARM GAS  C:\Users\jmdevoto\AppData\Local\Temp\ccfHMFyy.s 			page 29


 851              	.LVL89:
 852              	.L60:
 615:Generated_Source\PSoC5/LCD_Char_1.c ****         
 616:Generated_Source\PSoC5/LCD_Char_1.c ****         while (shift != 0u)
 617:Generated_Source\PSoC5/LCD_Char_1.c ****         {
 618:Generated_Source\PSoC5/LCD_Char_1.c ****             /* "shift" var is to be subtracted by 8 prior shifting. This implements 
 619:Generated_Source\PSoC5/LCD_Char_1.c ****             * shifting by 24, 16, 8 and 0u. 
 620:Generated_Source\PSoC5/LCD_Char_1.c ****             */
 621:Generated_Source\PSoC5/LCD_Char_1.c ****             shift -= LCD_Char_1_8_BIT_SHIFT;
 853              		.loc 1 621 0
 854 0006 083C     		subs	r4, r4, #8
 855              	.LVL90:
 856 0008 E4B2     		uxtb	r4, r4
 857              	.LVL91:
 622:Generated_Source\PSoC5/LCD_Char_1.c ****             
 623:Generated_Source\PSoC5/LCD_Char_1.c ****             /* Print 8 bits of uint32 hex number */
 624:Generated_Source\PSoC5/LCD_Char_1.c ****             LCD_Char_1_PrintInt8((uint8) ((uint32) (value >> shift)));
 858              		.loc 1 624 0
 859 000a 25FA04F0 		lsr	r0, r5, r4
 860 000e C0B2     		uxtb	r0, r0
 861 0010 FFF7FEFF 		bl	LCD_Char_1_PrintInt8
 862              	.LVL92:
 616:Generated_Source\PSoC5/LCD_Char_1.c ****         {
 863              		.loc 1 616 0
 864 0014 002C     		cmp	r4, #0
 865 0016 F6D1     		bne	.L60
 625:Generated_Source\PSoC5/LCD_Char_1.c ****         }
 626:Generated_Source\PSoC5/LCD_Char_1.c ****     }
 866              		.loc 1 626 0
 867 0018 38BD     		pop	{r3, r4, r5, pc}
 868              		.cfi_endproc
 869              	.LFE14:
 870              		.size	LCD_Char_1_PrintInt32, .-LCD_Char_1_PrintInt32
 871 001a 00BF     		.section	.text.LCD_Char_1_PrintU32Number,"ax",%progbits
 872              		.align	2
 873              		.global	LCD_Char_1_PrintU32Number
 874              		.thumb
 875              		.thumb_func
 876              		.type	LCD_Char_1_PrintU32Number, %function
 877              	LCD_Char_1_PrintU32Number:
 878              	.LFB15:
 627:Generated_Source\PSoC5/LCD_Char_1.c ****     
 628:Generated_Source\PSoC5/LCD_Char_1.c ****     
 629:Generated_Source\PSoC5/LCD_Char_1.c ****     /*******************************************************************************
 630:Generated_Source\PSoC5/LCD_Char_1.c ****     *  Function Name: LCD_Char_1_PrintNumber
 631:Generated_Source\PSoC5/LCD_Char_1.c ****     ********************************************************************************
 632:Generated_Source\PSoC5/LCD_Char_1.c ****     *
 633:Generated_Source\PSoC5/LCD_Char_1.c ****     * Summary:
 634:Generated_Source\PSoC5/LCD_Char_1.c ****     *  Print an uint16 value as a left-justified decimal value.
 635:Generated_Source\PSoC5/LCD_Char_1.c ****     *
 636:Generated_Source\PSoC5/LCD_Char_1.c ****     * Parameters:
 637:Generated_Source\PSoC5/LCD_Char_1.c ****     *  value: A 16-bit value to be printed in ASCII characters as a decimal number
 638:Generated_Source\PSoC5/LCD_Char_1.c ****     *
 639:Generated_Source\PSoC5/LCD_Char_1.c ****     * Return:
 640:Generated_Source\PSoC5/LCD_Char_1.c ****     *  None.
 641:Generated_Source\PSoC5/LCD_Char_1.c ****     *
 642:Generated_Source\PSoC5/LCD_Char_1.c ****     * Note:
ARM GAS  C:\Users\jmdevoto\AppData\Local\Temp\ccfHMFyy.s 			page 30


 643:Generated_Source\PSoC5/LCD_Char_1.c ****     *  This function is implemented as a macro.
 644:Generated_Source\PSoC5/LCD_Char_1.c ****     *
 645:Generated_Source\PSoC5/LCD_Char_1.c ****     *******************************************************************************/
 646:Generated_Source\PSoC5/LCD_Char_1.c **** 
 647:Generated_Source\PSoC5/LCD_Char_1.c ****     
 648:Generated_Source\PSoC5/LCD_Char_1.c ****     /*******************************************************************************
 649:Generated_Source\PSoC5/LCD_Char_1.c ****     *  Function Name: LCD_Char_1_PrintU32Number
 650:Generated_Source\PSoC5/LCD_Char_1.c ****     ********************************************************************************
 651:Generated_Source\PSoC5/LCD_Char_1.c ****     *
 652:Generated_Source\PSoC5/LCD_Char_1.c ****     * Summary:
 653:Generated_Source\PSoC5/LCD_Char_1.c ****     *  Print an uint32 value as a left-justified decimal value.
 654:Generated_Source\PSoC5/LCD_Char_1.c ****     *
 655:Generated_Source\PSoC5/LCD_Char_1.c ****     * Parameters:
 656:Generated_Source\PSoC5/LCD_Char_1.c ****     *  value: A 32-bit value to be printed in ASCII characters as a decimal number
 657:Generated_Source\PSoC5/LCD_Char_1.c ****     *
 658:Generated_Source\PSoC5/LCD_Char_1.c ****     * Return:
 659:Generated_Source\PSoC5/LCD_Char_1.c ****     *  None.
 660:Generated_Source\PSoC5/LCD_Char_1.c ****     *
 661:Generated_Source\PSoC5/LCD_Char_1.c ****     *******************************************************************************/
 662:Generated_Source\PSoC5/LCD_Char_1.c ****     void LCD_Char_1_PrintU32Number(uint32 value) 
 663:Generated_Source\PSoC5/LCD_Char_1.c ****     {
 879              		.loc 1 663 0
 880              		.cfi_startproc
 881              		@ args = 0, pretend = 0, frame = 16
 882              		@ frame_needed = 0, uses_anonymous_args = 0
 883              	.LVL93:
 884 0000 10B5     		push	{r4, lr}
 885              		.cfi_def_cfa_offset 8
 886              		.cfi_offset 4, -8
 887              		.cfi_offset 14, -4
 664:Generated_Source\PSoC5/LCD_Char_1.c ****         uint8 tmpDigit;
 665:Generated_Source\PSoC5/LCD_Char_1.c ****         char8 number[LCD_Char_1_NUMBER_OF_REMAINDERS_U32 + 1u];
 666:Generated_Source\PSoC5/LCD_Char_1.c ****         uint8 digIndex = LCD_Char_1_NUMBER_OF_REMAINDERS_U32;
 667:Generated_Source\PSoC5/LCD_Char_1.c ****         
 668:Generated_Source\PSoC5/LCD_Char_1.c ****         /* This API will output a decimal number as a string and that string will be 
 669:Generated_Source\PSoC5/LCD_Char_1.c ****         * filled from end to start. Set Null termination character first.
 670:Generated_Source\PSoC5/LCD_Char_1.c ****         */
 671:Generated_Source\PSoC5/LCD_Char_1.c ****         number[digIndex] = (char8) '\0';
 888              		.loc 1 671 0
 889 0002 0023     		movs	r3, #0
 663:Generated_Source\PSoC5/LCD_Char_1.c ****         uint8 tmpDigit;
 890              		.loc 1 663 0
 891 0004 84B0     		sub	sp, sp, #16
 892              		.cfi_def_cfa_offset 24
 672:Generated_Source\PSoC5/LCD_Char_1.c ****         digIndex--;
 673:Generated_Source\PSoC5/LCD_Char_1.c ****         
 674:Generated_Source\PSoC5/LCD_Char_1.c ****         /* Load these in reverse order */
 675:Generated_Source\PSoC5/LCD_Char_1.c ****         while(value >= LCD_Char_1_TEN)
 893              		.loc 1 675 0
 894 0006 0928     		cmp	r0, #9
 671:Generated_Source\PSoC5/LCD_Char_1.c ****         digIndex--;
 895              		.loc 1 671 0
 896 0008 8DF80E30 		strb	r3, [sp, #14]
 897              	.LVL94:
 898              		.loc 1 675 0
 899 000c 26D9     		bls	.L66
 676:Generated_Source\PSoC5/LCD_Char_1.c ****         {
ARM GAS  C:\Users\jmdevoto\AppData\Local\Temp\ccfHMFyy.s 			page 31


 677:Generated_Source\PSoC5/LCD_Char_1.c ****             /* Extract decimal digit, indexed by 'digIndex', from 'value' and
 678:Generated_Source\PSoC5/LCD_Char_1.c ****             * convert it to ASCII character.
 679:Generated_Source\PSoC5/LCD_Char_1.c ****             */
 680:Generated_Source\PSoC5/LCD_Char_1.c ****             tmpDigit = (uint8) (((uint8) (value % LCD_Char_1_TEN)) + (uint8) LCD_Char_1_ZERO_CHAR_A
 900              		.loc 1 680 0
 901 000e 144C     		ldr	r4, .L69
 675:Generated_Source\PSoC5/LCD_Char_1.c ****         {
 902              		.loc 1 675 0
 903 0010 0921     		movs	r1, #9
 904              	.LVL95:
 905              	.L65:
 906              		.loc 1 680 0
 907 0012 A4FB0032 		umull	r3, r2, r4, r0
 908 0016 D208     		lsrs	r2, r2, #3
 909 0018 02EB8203 		add	r3, r2, r2, lsl #2
 910 001c A0EB4303 		sub	r3, r0, r3, lsl #1
 681:Generated_Source\PSoC5/LCD_Char_1.c ****             
 682:Generated_Source\PSoC5/LCD_Char_1.c ****             /* Temporary variable 'tmpDigit' is used to avoid Violation of MISRA rule 
 683:Generated_Source\PSoC5/LCD_Char_1.c ****             * #10.3.
 684:Generated_Source\PSoC5/LCD_Char_1.c ****             */
 685:Generated_Source\PSoC5/LCD_Char_1.c ****             number[digIndex] = (char8) tmpDigit;
 686:Generated_Source\PSoC5/LCD_Char_1.c ****             value /= LCD_Char_1_TEN;
 911              		.loc 1 686 0
 912 0020 1046     		mov	r0, r2
 913              	.LVL96:
 685:Generated_Source\PSoC5/LCD_Char_1.c ****             value /= LCD_Char_1_TEN;
 914              		.loc 1 685 0
 915 0022 04AA     		add	r2, sp, #16
 916 0024 0A44     		add	r2, r2, r1
 680:Generated_Source\PSoC5/LCD_Char_1.c ****             
 917              		.loc 1 680 0
 918 0026 3033     		adds	r3, r3, #48
 687:Generated_Source\PSoC5/LCD_Char_1.c ****             digIndex--;
 919              		.loc 1 687 0
 920 0028 0139     		subs	r1, r1, #1
 921              	.LVL97:
 675:Generated_Source\PSoC5/LCD_Char_1.c ****         {
 922              		.loc 1 675 0
 923 002a 0928     		cmp	r0, #9
 685:Generated_Source\PSoC5/LCD_Char_1.c ****             value /= LCD_Char_1_TEN;
 924              		.loc 1 685 0
 925 002c 02F80C3C 		strb	r3, [r2, #-12]
 926              		.loc 1 687 0
 927 0030 C9B2     		uxtb	r1, r1
 928              	.LVL98:
 675:Generated_Source\PSoC5/LCD_Char_1.c ****         {
 929              		.loc 1 675 0
 930 0032 EED8     		bhi	.L65
 931              	.LVL99:
 932              	.L64:
 688:Generated_Source\PSoC5/LCD_Char_1.c ****         }
 689:Generated_Source\PSoC5/LCD_Char_1.c ****         
 690:Generated_Source\PSoC5/LCD_Char_1.c ****         /* Extract last decimal digit 'digIndex', from the 'value' and convert it
 691:Generated_Source\PSoC5/LCD_Char_1.c ****         * to ASCII character.
 692:Generated_Source\PSoC5/LCD_Char_1.c ****         */
 693:Generated_Source\PSoC5/LCD_Char_1.c ****         tmpDigit = (uint8) (((uint8)(value % LCD_Char_1_TEN)) + (uint8) LCD_Char_1_ZERO_CHAR_ASCII)
 933              		.loc 1 693 0
ARM GAS  C:\Users\jmdevoto\AppData\Local\Temp\ccfHMFyy.s 			page 32


 934 0034 0A4B     		ldr	r3, .L69
 935 0036 A3FB0023 		umull	r2, r3, r3, r0
 936 003a DB08     		lsrs	r3, r3, #3
 937 003c 03EB8303 		add	r3, r3, r3, lsl #2
 938 0040 A0EB4300 		sub	r0, r0, r3, lsl #1
 939              	.LVL100:
 940 0044 00F13003 		add	r3, r0, #48
 694:Generated_Source\PSoC5/LCD_Char_1.c ****         number[digIndex] = (char8) tmpDigit;
 941              		.loc 1 694 0
 942 0048 04AA     		add	r2, sp, #16
 695:Generated_Source\PSoC5/LCD_Char_1.c **** 
 696:Generated_Source\PSoC5/LCD_Char_1.c ****         /* Print out number */
 697:Generated_Source\PSoC5/LCD_Char_1.c ****         LCD_Char_1_PrintString(&number[digIndex]);
 943              		.loc 1 697 0
 944 004a 01A8     		add	r0, sp, #4
 694:Generated_Source\PSoC5/LCD_Char_1.c ****         number[digIndex] = (char8) tmpDigit;
 945              		.loc 1 694 0
 946 004c 0A44     		add	r2, r2, r1
 947              		.loc 1 697 0
 948 004e 0844     		add	r0, r0, r1
 694:Generated_Source\PSoC5/LCD_Char_1.c ****         number[digIndex] = (char8) tmpDigit;
 949              		.loc 1 694 0
 950 0050 02F80C3C 		strb	r3, [r2, #-12]
 951              		.loc 1 697 0
 952 0054 FFF7FEFF 		bl	LCD_Char_1_PrintString
 953              	.LVL101:
 698:Generated_Source\PSoC5/LCD_Char_1.c ****     }
 954              		.loc 1 698 0
 955 0058 04B0     		add	sp, sp, #16
 956              		.cfi_remember_state
 957              		.cfi_def_cfa_offset 8
 958              		@ sp needed
 959 005a 10BD     		pop	{r4, pc}
 960              	.LVL102:
 961              	.L66:
 962              		.cfi_restore_state
 675:Generated_Source\PSoC5/LCD_Char_1.c ****         {
 963              		.loc 1 675 0
 964 005c 0921     		movs	r1, #9
 965 005e E9E7     		b	.L64
 966              	.L70:
 967              		.align	2
 968              	.L69:
 969 0060 CDCCCCCC 		.word	-858993459
 970              		.cfi_endproc
 971              	.LFE15:
 972              		.size	LCD_Char_1_PrintU32Number, .-LCD_Char_1_PrintU32Number
 973              		.global	LCD_Char_1_initVar
 974              		.global	LCD_Char_1_enableState
 975              		.section	.rodata
 976              		.align	2
 977              		.set	.LANCHOR1,. + 0
 978              		.type	LCD_Char_1_hex.4861, %object
 979              		.size	LCD_Char_1_hex.4861, 16
 980              	LCD_Char_1_hex.4861:
 981 0000 30313233 		.ascii	"0123456789ABCDEF"
 981      34353637 
ARM GAS  C:\Users\jmdevoto\AppData\Local\Temp\ccfHMFyy.s 			page 33


 981      38394142 
 981      43444546 
 982              		.bss
 983              		.set	.LANCHOR0,. + 0
 984              		.type	LCD_Char_1_enableState, %object
 985              		.size	LCD_Char_1_enableState, 1
 986              	LCD_Char_1_enableState:
 987 0000 00       		.space	1
 988              		.type	LCD_Char_1_initVar, %object
 989              		.size	LCD_Char_1_initVar, 1
 990              	LCD_Char_1_initVar:
 991 0001 00       		.space	1
 992              		.text
 993              	.Letext0:
 994              		.file 2 "Generated_Source\\PSoC5\\cytypes.h"
 995              		.file 3 "Generated_Source\\PSoC5\\CyLib.h"