ARM GAS  C:\Users\mgronber\AppData\Local\Temp\cckW1w38.s 			page 1


   1              		.syntax unified
   2              		.cpu cortex-m3
   3              		.fpu softvfp
   4              		.eabi_attribute 20, 1
   5              		.eabi_attribute 21, 1
   6              		.eabi_attribute 23, 3
   7              		.eabi_attribute 24, 1
   8              		.eabi_attribute 25, 1
   9              		.eabi_attribute 26, 1
  10              		.eabi_attribute 30, 2
  11              		.eabi_attribute 34, 1
  12              		.eabi_attribute 18, 4
  13              		.thumb
  14              		.file	"main.c"
  15              		.text
  16              	.Ltext0:
  17              		.cfi_sections	.debug_frame
  18              		.global	__aeabi_i2f
  19              		.global	__aeabi_fcmplt
  20              		.global	__aeabi_fcmpgt
  21              		.section	.text.UserInterfaceISR,"ax",%progbits
  22              		.align	2
  23              		.global	UserInterfaceISR
  24              		.thumb
  25              		.thumb_func
  26              		.type	UserInterfaceISR, %function
  27              	UserInterfaceISR:
  28              	.LFB59:
  29              		.file 1 "main.c"
   1:main.c        **** /*******************************************************************************
   2:main.c        **** * File Name: main.c
   3:main.c        **** */
   4:main.c        **** 
   5:main.c        **** #include <device.h>
   6:main.c        **** // Hummingbird Includes
   7:main.c        **** #include <fft.h>
   8:main.c        **** #include <midi.h>
   9:main.c        **** #include <pitch.h>
  10:main.c        **** #include <hbird.h>
  11:main.c        **** 
  12:main.c        **** /**** Defines ****/
  13:main.c        **** #define THRESHHOLD 60
  14:main.c        **** #define HYST_VAL 0.75
  15:main.c        **** #define VELO_VAL 100
  16:main.c        **** #define NOTE_HISTORY_LEN 5
  17:main.c        **** int start = 1;
  18:main.c        **** 
  19:main.c        **** #define UI_THRES 10
  20:main.c        **** 
  21:main.c        **** uint8 UI_Update_Mask = 0;
  22:main.c        **** 
  23:main.c        **** //previous POT values for UI
  24:main.c        **** uint16 lastKey = 0;
  25:main.c        **** uint16 lastScale = 0;
  26:main.c        **** uint16 lastHyst = 150;
  27:main.c        **** uint16 lastVelo = VELO_VAL;
  28:main.c        **** 
ARM GAS  C:\Users\mgronber\AppData\Local\Temp\cckW1w38.s 			page 2


  29:main.c        **** int noteHistory[5] = {};
  30:main.c        **** 
  31:main.c        **** // Variables for Button I/O
  32:main.c        **** uint8 csButtStates = 0u;
  33:main.c        **** uint8 csButtStates_old = 0u;
  34:main.c        **** uint8 csButtChange = 0u;
  35:main.c        **** uint8 inqFlags_old = 0u;
  36:main.c        **** char8 LCDstr[10];
  37:main.c        **** 
  38:main.c        **** // Variables for audio aquisition ISR
  39:main.c        **** int16 dataFrames[2][FRAME_LEN];
  40:main.c        **** 
  41:main.c        **** int16 ADCoutput;
  42:main.c        **** uint16 frameIndex = 0;
  43:main.c        **** uint8 currFrame = 0;
  44:main.c        **** uint8 sampleFrame = 0;              // Frame for main to process on.
  45:main.c        **** 
  46:main.c        **** int max_value = 0;
  47:main.c        **** 
  48:main.c        **** //Flags
  49:main.c        **** bool frameReady[2] = {};          // Flag frame as valid for processing.
  50:main.c        **** bool frameLocked[2] = {};          // Sample is being processed and should not be overwritten
  51:main.c        **** bool sustain = false;                   // flag for holding a note until the user is done singing
  52:main.c        **** bool frameProcessed=false;          // Flag to prevent us from processing the same frame twice whil
  53:main.c        **** 
  54:main.c        **** // Variables for MIDI/PDA
  55:main.c        **** uint8 midiMsg[4];  
  56:main.c        **** int lastNote = -1;                  // Last sent MIDI note. -1 means no MIDI signal was active.
  57:main.c        **** int i=0;
  58:main.c        **** int numFrames = 0;                  // TEST VARIABLE counts number of frames that have been good
  59:main.c        **** float pitchHz;
  60:main.c        **** uint16 tempHyst;
  61:main.c        **** double noteTable[MIDI_LEN]; //(index=midi note, value=frequency)
  62:main.c        **** uint8 frame1InUse=0;
  63:main.c        **** uint8 frame2InUse=0;
  64:main.c        **** enum MusicScale curScale=MAJOR;
  65:main.c        **** enum MusicKey   curKey=KEY_OF_C;
  66:main.c        **** 
  67:main.c        **** /* Need for Identity Reply message */
  68:main.c        **** extern volatile uint8 USB_MIDI1_InqFlags;
  69:main.c        **** extern volatile uint8 USB_MIDI2_InqFlags;
  70:main.c        **** volatile uint8 usbActivityCounter = 0u;
  71:main.c        **** 
  72:main.c        **** 
  73:main.c        **** int main()
  74:main.c        **** {
  75:main.c        ****     /******* Initilizations *******/
  76:main.c        ****     //Enable global interrupts 
  77:main.c        ****     CyGlobalIntEnable;
  78:main.c        ****     
  79:main.c        ****     //declare interrupts
  80:main.c        ****     CY_ISR_PROTO(GetSample);      //audio sampling interrupt  
  81:main.c        ****     CY_ISR_PROTO(UserInterfaceISR);     //UI interrupt
  82:main.c        ****     
  83:main.c        ****     //Start interrupts
  84:main.c        ****     isr_1_StartEx(GetSample);
  85:main.c        ****     UI_isr_StartEx(UserInterfaceISR);
ARM GAS  C:\Users\mgronber\AppData\Local\Temp\cckW1w38.s 			page 3


  86:main.c        ****     
  87:main.c        ****     //Start LCD over I2C Protocol
  88:main.c        ****     I2C_CharLCD_Start();
  89:main.c        ****     CharLCD_Start();
  90:main.c        ****             
  91:main.c        ****     //Start the data sample and UI timers
  92:main.c        ****     TIMER_SAMPLERATE_Start();
  93:main.c        ****     TIMER_UI_Start();
  94:main.c        ****     
  95:main.c        ****     //Start ADC conversions
  96:main.c        ****     ADC_MIC_Start();
  97:main.c        ****     ADC_MIC_StartConvert();
  98:main.c        ****     ADC_UI_Start();
  99:main.c        ****     ADC_UI_StartConvert();
 100:main.c        ****      
 101:main.c        ****     //Start MIDI transfers
 102:main.c        ****     UART_MIDITX_Start();
 103:main.c        ****     
 104:main.c        ****     pitch_init();
 105:main.c        ****     
 106:main.c        ****     //Populates Note-MIDI array 
 107:main.c        ****     populate_midi_array(noteTable);    
 108:main.c        **** 
 109:main.c        ****     /* Start USBFS device 0 with VDDD operation */
 110:main.c        ****     USB_Start(0u, USB_DWR_VDDD_OPERATION); 
 111:main.c        ****     
 112:main.c        ****     /******* End of initilizations *******/
 113:main.c        ****     
 114:main.c        ****     //Boot-Up Message
 115:main.c        ****     CharLCD_ClearDisplay();
 116:main.c        ****     CharLCD_Position(0,0);
 117:main.c        ****     CharLCD_PrintString("   -HUMMINGBIRD-  ");
 118:main.c        ****     CharLCD_Position(1,0);
 119:main.c        ****     CharLCD_PrintString("       v0.8  ");
 120:main.c        ****     CyDelay(1000);
 121:main.c        ****     CharLCD_Position(3,0);
 122:main.c        ****     CharLCD_PrintString("Hum when ready...");
 123:main.c        ****     
 124:main.c        ****     /*
 125:main.c        ****     int j = 0;
 126:main.c        ****     while(1){
 127:main.c        ****         CharLCD_ClearDisplay();
 128:main.c        ****         //CharLCD_Position(2,7);
 129:main.c        ****         //CharLCD_PrintNumber(ADC_UI_GetResult16(KEY));
 130:main.c        ****         
 131:main.c        ****         PushArray(noteHistory, j, NOTE_HISTORY_LEN);
 132:main.c        ****         PrintNoteHistory(noteHistory);
 133:main.c        ****         
 134:main.c        ****         CyDelay(1000);
 135:main.c        ****         j++;
 136:main.c        ****     }
 137:main.c        ****     */
 138:main.c        ****     
 139:main.c        ****     /****************************************************** M A I N  L O O P **********************
 140:main.c        ****     while(1u)
 141:main.c        ****     {        
 142:main.c        ****         #if 0
ARM GAS  C:\Users\mgronber\AppData\Local\Temp\cckW1w38.s 			page 4


 143:main.c        ****         if(USB_IsConfigurationChanged() != 0u) /* Host could send double SET_INTERFACE request */
 144:main.c        ****         {
 145:main.c        ****             if(USB_GetConfiguration() != 0u)   /* Init IN endpoints when device configured */
 146:main.c        ****             {
 147:main.c        ****                 MIDI_PWR_Write(0u); /* Power ON CY8CKIT-044 board */ //WE DON'T HAVE THIS BOARD?? -
 148:main.c        ****                 /* Start ISR to determine the sleep condition */
 149:main.c        ****                 Sleep_isr_StartEx(SleepIsr);
 150:main.c        ****                 /* Start SleepTimer's operation */
 151:main.c        ****                 SleepTimer_Start();
 152:main.c        ****             	/* Enable the output endpoint */
 153:main.c        ****                 USB_MIDI_EP_Init();
 154:main.c        ****             }
 155:main.c        ****             else
 156:main.c        ****             {
 157:main.c        ****                 SleepTimer_Stop();
 158:main.c        ****             }    
 159:main.c        ****         }        
 160:main.c        ****         #endif
 161:main.c        ****         
 162:main.c        ****         if (1)
 163:main.c        ****         //if(USB_GetConfiguration() != 0u)    /* Service USB MIDI when device configured */
 164:main.c        ****         {
 165:main.c        ****             #if 0
 166:main.c        ****             /* Call this API from UART RX ISR for Auto DMA mode */
 167:main.c        ****             #if(USB_EP_MM != USB__EP_DMAAUTO) 
 168:main.c        ****                 USB_MIDI_IN_Service();
 169:main.c        ****             #endif
 170:main.c        ****             /* In Manual EP Memory Management mode OUT_EP_Service() 
 171:main.c        ****             *  may have to be called from main foreground or from OUT EP ISR
 172:main.c        ****             */
 173:main.c        ****             #if(USB_EP_MM != USB__EP_DMAAUTO) 
 174:main.c        ****                 USB_MIDI_OUT_EP_Service();
 175:main.c        ****             #endif
 176:main.c        **** 
 177:main.c        ****             /* Sending an Identity Reply Universal Sysex message back to the computer */
 178:main.c        ****             if((USB_MIDI1_InqFlags & USB_INQ_IDENTITY_REQ_FLAG) != 0u)
 179:main.c        ****             {
 180:main.c        ****                 USB_PutUsbMidiIn(sizeof(MIDI_IDENTITY_REPLY), (uint8 *)MIDI_IDENTITY_REPLY, USB_MID
 181:main.c        ****                 USB_MIDI1_InqFlags &= ~USB_INQ_IDENTITY_REQ_FLAG;
 182:main.c        ****             }
 183:main.c        ****             #if (USB_MIDI_EXT_MODE >= USB_TWO_EXT_INTRF)
 184:main.c        ****                 if((USB_MIDI2_InqFlags & USB_INQ_IDENTITY_REQ_FLAG) != 0u)
 185:main.c        ****                 {
 186:main.c        ****                     USB_PutUsbMidiIn(sizeof(MIDI_IDENTITY_REPLY), (uint8 *)MIDI_IDENTITY_REPLY, USB
 187:main.c        ****                     USB_MIDI2_InqFlags &= ~USB_INQ_IDENTITY_REQ_FLAG;
 188:main.c        ****                 }
 189:main.c        ****             #endif /* End USB_MIDI_EXT_MODE >= USB_TWO_EXT_INTRF */
 190:main.c        ****             #endif
 191:main.c        ****             
 192:main.c        ****             /*********************** L C D  U P D A T E ****************************/
 193:main.c        ****             if(UI_Update_Mask){
 194:main.c        ****                 if (start) {
 195:main.c        ****                     initDisplay();
 196:main.c        ****                     start = 0;
 197:main.c        ****                 }
 198:main.c        ****                 if(UI_Update_Mask & 0b0001){
 199:main.c        ****                     UI_Update_Mask &= 0b1110;   //clear KEY bit
ARM GAS  C:\Users\mgronber\AppData\Local\Temp\cckW1w38.s 			page 5


 200:main.c        ****                     curKey = UpdateKeyLCD(lastKey);
 201:main.c        ****                 }
 202:main.c        ****                 if(UI_Update_Mask & 0b0010){
 203:main.c        ****                     UI_Update_Mask &= 0b1101;   //clear SCALE bit
 204:main.c        ****                     curScale = UpdateScaleLCD(lastScale);
 205:main.c        ****                 }
 206:main.c        ****                 if(UI_Update_Mask & 0b0100){
 207:main.c        ****                     UI_Update_Mask &= 0b1011;   //clear HYST bit
 208:main.c        ****                     CharLCD_PosPrintString(2,11,"          ");
 209:main.c        ****                     CharLCD_PosPrintString(2,11,"Hist:");
 210:main.c        ****                     tempHyst = map(lastHyst,0,255,50,101);
 211:main.c        ****                     if(tempHyst > 100) { tempHyst = 100; }
 212:main.c        ****                     CharLCD_PrintNumber(tempHyst);
 213:main.c        ****                     CharLCD_PrintString("%");
 214:main.c        ****                     // NOTE: tempHyst is used by the actual hyst function, but is divided by 100 to
 215:main.c        ****                     
 216:main.c        ****                 }
 217:main.c        ****                 if(UI_Update_Mask & 0b1000){
 218:main.c        ****                     UI_Update_Mask &= 0b0111;   //clear VELO bit
 219:main.c        ****                     CharLCD_PosPrintString(2,0,"          ");
 220:main.c        ****                     CharLCD_PosPrintString(2,0,"Velo:"); 
 221:main.c        ****                     uint16 tempVelo = map(lastVelo,0,255,0,101);
 222:main.c        ****                     if(tempVelo > 100) { tempVelo = 100; }
 223:main.c        ****                     CharLCD_PrintNumber(tempVelo);
 224:main.c        ****                 }  
 225:main.c        ****             }
 226:main.c        ****             
 227:main.c        ****             /*********************** M I D I  O U T P U T ****************************/
 228:main.c        ****             // This is the frame we are operating on. It is always the opposite of the current fram
 229:main.c        ****             sampleFrame = currFrame ^ 0b01; 
 230:main.c        ****             if (frameReady[sampleFrame]&&!frameProcessed) {
 231:main.c        ****                 if (start) {
 232:main.c        ****                     initDisplay();
 233:main.c        ****                     start = 0;
 234:main.c        ****                 }
 235:main.c        ****                 // Lock the current frame and unset the current flag.
 236:main.c        ****                 frameLocked[sampleFrame] = true;
 237:main.c        ****                 frameProcessed = true;
 238:main.c        ****                 
 239:main.c        ****                 //Run Pitch Detection Algorithm        
 240:main.c        ****                 //pitchHz = pitch_fft(dataFrames[sampleFrame], sampImg);
 241:main.c        ****                 //pitchHz = pitch_zero_cross(dataFrames[sampleFrame]);
 242:main.c        ****                 //pitchHz = auto_correlate(dataFrames[sampleFrame]);
 243:main.c        ****                 pitchHz = pitch_auto_fft(dataFrames[sampleFrame]);
 244:main.c        ****                 
 245:main.c        ****                 // Unlocks the frame
 246:main.c        ****                 frameLocked[sampleFrame] = false;
 247:main.c        ****                 CharLCD_PosPrintString(0,0,"      ");
 248:main.c        ****                 CharLCD_PosPrintNumber(0,0,pitchHz);
 249:main.c        ****                 UpdateTuner(noteTable, NoteSnap(noteTable, pitchHz, curKey, curScale), pitchHz);
 250:main.c        ****                 //int note = NoteSnap(noteTable, pitchHz, curKey, curScale);
 251:main.c        ****                 int note = lastNote;
 252:main.c        ****                 
 253:main.c        ****                 if(pitchHz < 1000 && pitchHz > 60){  //eliminate extreme, unintentional freqs
 254:main.c        ****                     if (midi_note_changed(pitchHz, lastNote, noteTable, (float)tempHyst/100)) {
 255:main.c        ****                         note = NoteSnap(noteTable, pitchHz, curKey, curScale);
 256:main.c        ****                         //note = midi_note_from_freq(pitchHz);
ARM GAS  C:\Users\mgronber\AppData\Local\Temp\cckW1w38.s 			page 6


 257:main.c        ****                         CharLCD_PosPrintNumber(3,3,numFrames);
 258:main.c        ****                         if(numFrames<255)
 259:main.c        ****                         {
 260:main.c        ****                             numFrames++;
 261:main.c        ****                         }
 262:main.c        ****                         else
 263:main.c        ****                         {
 264:main.c        ****                             numFrames=0;
 265:main.c        ****                         }
 266:main.c        ****                     }
 267:main.c        ****                 }
 268:main.c        ****                 
 269:main.c        ****                 int changed = note != lastNote && note != -1;
 270:main.c        ****                 
 271:main.c        ****                 // If the new note is not the same as the last and does not = -1, the error value f
 272:main.c        ****                 if (note != lastNote && note != -1) {
 273:main.c        ****                     // If not the initial condition, send a note off signal when new note is detect
 274:main.c        ****                     if (lastNote != -1) {
 275:main.c        ****                         midiMsg[0] = USB_MIDI_NOTE_OFF;
 276:main.c        ****                         midiMsg[1] = lastNote;
 277:main.c        ****                         midiMsg[2] = 0u;        
 278:main.c        ****                         
 279:main.c        ****                         UART_MIDITX_PutChar(midiMsg[0]);
 280:main.c        ****                         UART_MIDITX_PutChar(midiMsg[1]);
 281:main.c        ****                         UART_MIDITX_PutChar(midiMsg[2]);
 282:main.c        ****                         //USB_PutUsbMidiIn(3u, midiMsg, USB_MIDI_CABLE_00);
 283:main.c        ****                     }
 284:main.c        ****                     
 285:main.c        ****                     midiMsg[0] = USB_MIDI_NOTE_ON;
 286:main.c        ****                     midiMsg[1] = note;
 287:main.c        ****                     midiMsg[2] = lastVelo;
 288:main.c        ****                     
 289:main.c        ****                     UART_MIDITX_PutChar(midiMsg[0]);
 290:main.c        ****                     UART_MIDITX_PutChar(midiMsg[1]);
 291:main.c        ****                     UART_MIDITX_PutChar(midiMsg[2]);
 292:main.c        ****                     //USB_PutUsbMidiIn(3u, midiMsg, USB_MIDI_CABLE_00);                            
 293:main.c        ****                     
 294:main.c        ****                     lastNote = note;  
 295:main.c        ****                 }
 296:main.c        ****          
 297:main.c        ****                 // Updates display for debugging
 298:main.c        ****                 CharLCD_PosPrintString(0,0,"   ");
 299:main.c        ****                 CharLCD_PosPrintNumber(0,0,pitchHz);
 300:main.c        ****                 CharLCD_PrintString("Hz");
 301:main.c        ****                 //if (changed) {
 302:main.c        ****                     //CharLCD_PosPrintString(1,0,"   ");
 303:main.c        ****                     //CharLCD_PosPrintString(1,0,midi_note_basename(midiMsg[1]));
 304:main.c        ****                     //CharLCD_PosPrintNumber(1,2,midiMsg[1]);   //print number of midi note
 305:main.c        ****                 //}
 306:main.c        ****             } 
 307:main.c        ****             // If the frameReady was low, meaning no note is being hummed, send MIDI note off
 308:main.c        ****             if(!frameReady[sampleFrame])
 309:main.c        ****             {
 310:main.c        ****                 midiMsg[0] = USB_MIDI_NOTE_OFF;
 311:main.c        ****                 midiMsg[1] = lastNote;
 312:main.c        ****                 midiMsg[2] = 0u;
 313:main.c        ****                 
ARM GAS  C:\Users\mgronber\AppData\Local\Temp\cckW1w38.s 			page 7


 314:main.c        ****                 UART_MIDITX_PutChar(midiMsg[0]);
 315:main.c        ****                 UART_MIDITX_PutChar(midiMsg[1]);
 316:main.c        ****                 UART_MIDITX_PutChar(midiMsg[2]);
 317:main.c        **** 
 318:main.c        ****                 //USB_PutUsbMidiIn(3u, midiMsg, USB_MIDI_CABLE_00);  
 319:main.c        ****             }
 320:main.c        ****            
 321:main.c        **** 
 322:main.c        ****                 #if 0
 323:main.c        ****                 #if(USB_EP_MM == USB__EP_DMAAUTO) 
 324:main.c        ****                    #if (USB_MIDI_EXT_MODE >= USB_ONE_EXT_INTRF)
 325:main.c        ****                         MIDI1_UART_DisableRxInt();
 326:main.c        ****                         #if (USB_MIDI_EXT_MODE >= USB_TWO_EXT_INTRF)
 327:main.c        ****                             MIDI2_UART_DisableRxInt();
 328:main.c        ****                         #endif /* End USB_MIDI_EXT_MODE >= USB_TWO_EXT_INTRF */
 329:main.c        ****                     #endif /* End USB_MIDI_EXT_MODE >= USB_ONE_EXT_INTRF */            
 330:main.c        ****                     USB_MIDI_IN_Service();
 331:main.c        ****                     #if (USB_MIDI_EXT_MODE >= USB_ONE_EXT_INTRF)
 332:main.c        ****                         MIDI1_UART_EnableRxInt();
 333:main.c        ****                         #if (USB_MIDI_EXT_MODE >= USB_TWO_EXT_INTRF)
 334:main.c        ****                             MIDI2_UART_EnableRxInt();
 335:main.c        ****                         #endif /* End USB_MIDI_EXT_MODE >= USB_TWO_EXT_INTRF */
 336:main.c        ****                     #endif /* End USB_MIDI_EXT_MODE >= USB_ONE_EXT_INTRF */                
 337:main.c        ****                 #endif
 338:main.c        ****                 #endif
 339:main.c        ****         } /* END USB CHECK */
 340:main.c        ****     }    
 341:main.c        ****     return 0;
 342:main.c        **** } /**** END MAIN LOOP ****/    
 343:main.c        **** 
 344:main.c        **** 
 345:main.c        **** /* Local processing of USB MIDI out events here */
 346:main.c        **** void USB_callbackLocalMidiEvent(uint8 cable, uint8 *midiMsg) CYREENTRANT
 347:main.c        **** {
 348:main.c        ****     /* Support General System On/Off Message. */
 349:main.c        ****     midiMsg = midiMsg;
 350:main.c        ****     inqFlags_old = USB_MIDI1_InqFlags;
 351:main.c        ****     cable = cable;
 352:main.c        **** }    
 353:main.c        **** 
 354:main.c        **** // ***** GetSample ISR *****
 355:main.c        **** // This ISR fills each audio frame. It runs on a timer which gives us our sampling rate.
 356:main.c        **** // Each frame is 1024 samples stored in an array.
 357:main.c        **** CY_ISR(GetSample){
 358:main.c        ****     TIMER_SAMPLERATE_STATUS;
 359:main.c        ****     
 360:main.c        ****     if (ADC_MIC_IsEndConversion(ADC_MIC_WAIT_FOR_RESULT)) {
 361:main.c        ****         if (!frameLocked[currFrame]) {
 362:main.c        ****             ADCoutput = ADC_MIC_GetResult16();
 363:main.c        ****             
 364:main.c        ****             if (ADCoutput > max_value) {                        // Updates the max value if applica
 365:main.c        ****                 max_value = ADCoutput;
 366:main.c        ****             }
 367:main.c        ****             
 368:main.c        ****             if (frameIndex < FRAME_LEN) {
 369:main.c        ****                 dataFrames[currFrame][frameIndex] = ADCoutput;
 370:main.c        ****                 frameIndex++;
ARM GAS  C:\Users\mgronber\AppData\Local\Temp\cckW1w38.s 			page 8


 371:main.c        ****             } else {                                            // Frame is getting the last value 
 372:main.c        ****                 frameReady[currFrame] = max_value >= THRESHHOLD;  // Sets the frameReady (note is o
 373:main.c        ****                 frameIndex = 0;
 374:main.c        ****                 max_value = 0;
 375:main.c        ****                 currFrame = currFrame ^ 0b01;                   // Swap current frame index.
 376:main.c        ****                 frameProcessed = false;                         // Signals to main that there is a 
 377:main.c        ****             }
 378:main.c        ****         } else {
 379:main.c        ****             currFrame = currFrame ^ 0b01;                       // If a frame is processing, update
 380:main.c        ****         }
 381:main.c        ****     }  
 382:main.c        **** }
 383:main.c        **** 
 384:main.c        **** // ***** Update UI ISR *****
 385:main.c        **** // This ISR checks each POT and updates the LCD if necessary
 386:main.c        **** CY_ISR(UserInterfaceISR){
  30              		.loc 1 386 0
  31              		.cfi_startproc
  32              		@ args = 0, pretend = 0, frame = 8
  33              		@ frame_needed = 0, uses_anonymous_args = 0
  34 0000 2DE9F04F 		push	{r4, r5, r6, r7, r8, r9, r10, fp, lr}
  35              		.cfi_def_cfa_offset 36
  36              		.cfi_offset 4, -36
  37              		.cfi_offset 5, -32
  38              		.cfi_offset 6, -28
  39              		.cfi_offset 7, -24
  40              		.cfi_offset 8, -20
  41              		.cfi_offset 9, -16
  42              		.cfi_offset 10, -12
  43              		.cfi_offset 11, -8
  44              		.cfi_offset 14, -4
 387:main.c        ****     TIMER_UI_STATUS;
  45              		.loc 1 387 0
  46 0004 4B4B     		ldr	r3, .L16
 386:main.c        ****     TIMER_UI_STATUS;
  47              		.loc 1 386 0
  48 0006 83B0     		sub	sp, sp, #12
  49              		.cfi_def_cfa_offset 48
  50              		.loc 1 387 0
  51 0008 1B78     		ldrb	r3, [r3]	@ zero_extendqisi2
 388:main.c        ****     float currKey, currScale, currHyst, currVelo;
 389:main.c        ****     
 390:main.c        ****     ADC_UI_StartConvert();    //must call this for multiplexing inputs
  52              		.loc 1 390 0
  53 000a FFF7FEFF 		bl	ADC_UI_StartConvert
  54              	.LVL0:
 391:main.c        ****     ADC_UI_IsEndConversion(ADC_UI_WAIT_FOR_RESULT);
  55              		.loc 1 391 0
  56 000e 0020     		movs	r0, #0
  57 0010 FFF7FEFF 		bl	ADC_UI_IsEndConversion
  58              	.LVL1:
 392:main.c        ****     ADC_UI_StopConvert();
  59              		.loc 1 392 0
  60 0014 FFF7FEFF 		bl	ADC_UI_StopConvert
  61              	.LVL2:
 393:main.c        ****     
 394:main.c        ****     currKey = ADC_UI_GetResult16(KEY);
ARM GAS  C:\Users\mgronber\AppData\Local\Temp\cckW1w38.s 			page 9


  62              		.loc 1 394 0
  63 0018 0020     		movs	r0, #0
  64 001a FFF7FEFF 		bl	ADC_UI_GetResult16
  65              	.LVL3:
  66 001e 8346     		mov	fp, r0
  67 0020 FFF7FEFF 		bl	__aeabi_i2f
  68              	.LVL4:
  69 0024 8046     		mov	r8, r0
  70              	.LVL5:
 395:main.c        ****     currScale = ADC_UI_GetResult16(SCALE);
  71              		.loc 1 395 0
  72 0026 0120     		movs	r0, #1
  73              	.LVL6:
  74 0028 FFF7FEFF 		bl	ADC_UI_GetResult16
  75              	.LVL7:
  76 002c 0090     		str	r0, [sp]
  77 002e FFF7FEFF 		bl	__aeabi_i2f
  78              	.LVL8:
  79 0032 0746     		mov	r7, r0
  80              	.LVL9:
 396:main.c        ****     currHyst = ADC_UI_GetResult16(HYST);
  81              		.loc 1 396 0
  82 0034 0220     		movs	r0, #2
  83              	.LVL10:
  84 0036 FFF7FEFF 		bl	ADC_UI_GetResult16
  85              	.LVL11:
  86 003a 0190     		str	r0, [sp, #4]
  87 003c FFF7FEFF 		bl	__aeabi_i2f
  88              	.LVL12:
  89 0040 0646     		mov	r6, r0
  90              	.LVL13:
 397:main.c        ****     currVelo = ADC_UI_GetResult16(VELO);
  91              		.loc 1 397 0
  92 0042 0320     		movs	r0, #3
  93              	.LVL14:
  94 0044 FFF7FEFF 		bl	ADC_UI_GetResult16
  95              	.LVL15:
  96 0048 8146     		mov	r9, r0
  97 004a FFF7FEFF 		bl	__aeabi_i2f
  98              	.LVL16:
 398:main.c        **** 
 399:main.c        ****     if(currKey < lastKey - UI_THRES || currKey > lastKey + UI_THRES){
  99              		.loc 1 399 0
 100 004e 3A4C     		ldr	r4, .L16+4
 397:main.c        ****     currVelo = ADC_UI_GetResult16(VELO);
 101              		.loc 1 397 0
 102 0050 0546     		mov	r5, r0
 103              	.LVL17:
 104              		.loc 1 399 0
 105 0052 B4F800A0 		ldrh	r10, [r4]
 106 0056 AAF10A00 		sub	r0, r10, #10
 107              	.LVL18:
 108 005a FFF7FEFF 		bl	__aeabi_i2f
 109              	.LVL19:
 110 005e 0146     		mov	r1, r0
 111 0060 4046     		mov	r0, r8
 112 0062 FFF7FEFF 		bl	__aeabi_fcmplt
ARM GAS  C:\Users\mgronber\AppData\Local\Temp\cckW1w38.s 			page 10


 113              	.LVL20:
 114 0066 0028     		cmp	r0, #0
 115 0068 5DD1     		bne	.L2
 116              		.loc 1 399 0 is_stmt 0 discriminator 1
 117 006a 0AF10A00 		add	r0, r10, #10
 118 006e FFF7FEFF 		bl	__aeabi_i2f
 119              	.LVL21:
 120 0072 0146     		mov	r1, r0
 121 0074 4046     		mov	r0, r8
 122 0076 FFF7FEFF 		bl	__aeabi_fcmpgt
 123              	.LVL22:
 124 007a 0028     		cmp	r0, #0
 125 007c 53D1     		bne	.L2
 126              	.L3:
 400:main.c        ****         lastKey = currKey;
 401:main.c        ****         UI_Update_Mask |= 0b0001;   //set bit for LCD update
 402:main.c        ****     } 
 403:main.c        ****     if(currScale < lastScale - UI_THRES || currScale > lastScale + UI_THRES){
 127              		.loc 1 403 0 is_stmt 1
 128 007e B4F80480 		ldrh	r8, [r4, #4]
 129              	.LVL23:
 130 0082 A8F10A00 		sub	r0, r8, #10
 131 0086 FFF7FEFF 		bl	__aeabi_i2f
 132              	.LVL24:
 133 008a 0146     		mov	r1, r0
 134 008c 3846     		mov	r0, r7
 135 008e FFF7FEFF 		bl	__aeabi_fcmplt
 136              	.LVL25:
 137 0092 0028     		cmp	r0, #0
 138 0094 37D1     		bne	.L5
 139              		.loc 1 403 0 is_stmt 0 discriminator 1
 140 0096 08F10A00 		add	r0, r8, #10
 141 009a FFF7FEFF 		bl	__aeabi_i2f
 142              	.LVL26:
 143 009e 0146     		mov	r1, r0
 144 00a0 3846     		mov	r0, r7
 145 00a2 FFF7FEFF 		bl	__aeabi_fcmpgt
 146              	.LVL27:
 147 00a6 70BB     		cbnz	r0, .L5
 148              	.L6:
 404:main.c        ****         lastScale = currScale;
 405:main.c        ****         UI_Update_Mask |= 0b0010;   //set bit for LCD  update
 406:main.c        ****     }
 407:main.c        ****     if(currHyst < lastHyst - 1 || currHyst > lastHyst + 1){
 149              		.loc 1 407 0 is_stmt 1
 150 00a8 244F     		ldr	r7, .L16+8
 151              	.LVL28:
 152 00aa B7F80080 		ldrh	r8, [r7]
 153 00ae 08F1FF30 		add	r0, r8, #-1
 154 00b2 FFF7FEFF 		bl	__aeabi_i2f
 155              	.LVL29:
 156 00b6 0146     		mov	r1, r0
 157 00b8 3046     		mov	r0, r6
 158 00ba FFF7FEFF 		bl	__aeabi_fcmplt
 159              	.LVL30:
 160 00be 50BB     		cbnz	r0, .L8
 161              		.loc 1 407 0 is_stmt 0 discriminator 1
ARM GAS  C:\Users\mgronber\AppData\Local\Temp\cckW1w38.s 			page 11


 162 00c0 08F10100 		add	r0, r8, #1
 163 00c4 FFF7FEFF 		bl	__aeabi_i2f
 164              	.LVL31:
 165 00c8 0146     		mov	r1, r0
 166 00ca 3046     		mov	r0, r6
 167 00cc FFF7FEFF 		bl	__aeabi_fcmpgt
 168              	.LVL32:
 169 00d0 08BB     		cbnz	r0, .L8
 170              	.L9:
 408:main.c        ****         lastHyst = currHyst;
 409:main.c        ****         UI_Update_Mask |= 0b0100;   //set bit for LCD  update
 410:main.c        ****     }
 411:main.c        ****     if(currVelo < lastVelo - 1 || currVelo > lastVelo + 1){
 171              		.loc 1 411 0 is_stmt 1
 172 00d2 7E88     		ldrh	r6, [r7, #2]
 173              	.LVL33:
 174 00d4 701E     		subs	r0, r6, #1
 175 00d6 FFF7FEFF 		bl	__aeabi_i2f
 176              	.LVL34:
 177 00da 0146     		mov	r1, r0
 178 00dc 2846     		mov	r0, r5
 179 00de FFF7FEFF 		bl	__aeabi_fcmplt
 180              	.LVL35:
 181 00e2 38B9     		cbnz	r0, .L11
 182              		.loc 1 411 0 is_stmt 0 discriminator 1
 183 00e4 701C     		adds	r0, r6, #1
 184 00e6 FFF7FEFF 		bl	__aeabi_i2f
 185              	.LVL36:
 186 00ea 0146     		mov	r1, r0
 187 00ec 2846     		mov	r0, r5
 188 00ee FFF7FEFF 		bl	__aeabi_fcmpgt
 189              	.LVL37:
 190 00f2 28B1     		cbz	r0, .L1
 191              	.L11:
 412:main.c        ****         lastVelo = currVelo;
 413:main.c        ****         UI_Update_Mask |= 0b1000;   //set bit for LCD  update
 192              		.loc 1 413 0 is_stmt 1
 193 00f4 A378     		ldrb	r3, [r4, #2]	@ zero_extendqisi2
 412:main.c        ****         lastVelo = currVelo;
 194              		.loc 1 412 0
 195 00f6 A7F80290 		strh	r9, [r7, #2]	@ movhi
 196              		.loc 1 413 0
 197 00fa 43F00803 		orr	r3, r3, #8
 198 00fe A370     		strb	r3, [r4, #2]
 199              	.L1:
 414:main.c        ****     } 
 415:main.c        ****     
 416:main.c        **** }
 200              		.loc 1 416 0
 201 0100 03B0     		add	sp, sp, #12
 202              		.cfi_remember_state
 203              		.cfi_def_cfa_offset 36
 204              		@ sp needed
 205 0102 BDE8F08F 		pop	{r4, r5, r6, r7, r8, r9, r10, fp, pc}
 206              	.LVL38:
 207              	.L5:
 208              		.cfi_restore_state
ARM GAS  C:\Users\mgronber\AppData\Local\Temp\cckW1w38.s 			page 12


 405:main.c        ****     }
 209              		.loc 1 405 0
 210 0106 A378     		ldrb	r3, [r4, #2]	@ zero_extendqisi2
 404:main.c        ****         UI_Update_Mask |= 0b0010;   //set bit for LCD  update
 211              		.loc 1 404 0
 212 0108 BDF80020 		ldrh	r2, [sp]
 405:main.c        ****     }
 213              		.loc 1 405 0
 214 010c 43F00203 		orr	r3, r3, #2
 404:main.c        ****         UI_Update_Mask |= 0b0010;   //set bit for LCD  update
 215              		.loc 1 404 0
 216 0110 A280     		strh	r2, [r4, #4]	@ movhi
 405:main.c        ****     }
 217              		.loc 1 405 0
 218 0112 A370     		strb	r3, [r4, #2]
 219 0114 C8E7     		b	.L6
 220              	.LVL39:
 221              	.L8:
 409:main.c        ****     }
 222              		.loc 1 409 0
 223 0116 A378     		ldrb	r3, [r4, #2]	@ zero_extendqisi2
 408:main.c        ****         UI_Update_Mask |= 0b0100;   //set bit for LCD  update
 224              		.loc 1 408 0
 225 0118 BDF80420 		ldrh	r2, [sp, #4]
 409:main.c        ****     }
 226              		.loc 1 409 0
 227 011c 43F00403 		orr	r3, r3, #4
 408:main.c        ****         UI_Update_Mask |= 0b0100;   //set bit for LCD  update
 228              		.loc 1 408 0
 229 0120 3A80     		strh	r2, [r7]	@ movhi
 409:main.c        ****     }
 230              		.loc 1 409 0
 231 0122 A370     		strb	r3, [r4, #2]
 232 0124 D5E7     		b	.L9
 233              	.LVL40:
 234              	.L2:
 401:main.c        ****     } 
 235              		.loc 1 401 0
 236 0126 A378     		ldrb	r3, [r4, #2]	@ zero_extendqisi2
 400:main.c        ****         UI_Update_Mask |= 0b0001;   //set bit for LCD update
 237              		.loc 1 400 0
 238 0128 A4F800B0 		strh	fp, [r4]	@ movhi
 401:main.c        ****     } 
 239              		.loc 1 401 0
 240 012c 43F00103 		orr	r3, r3, #1
 241 0130 A370     		strb	r3, [r4, #2]
 242 0132 A4E7     		b	.L3
 243              	.L17:
 244              		.align	2
 245              	.L16:
 246 0134 69640040 		.word	1073767529
 247 0138 00000000 		.word	.LANCHOR0
 248 013c 00000000 		.word	.LANCHOR1
 249              		.cfi_endproc
 250              	.LFE59:
 251              		.size	UserInterfaceISR, .-UserInterfaceISR
 252              		.section	.text.GetSample,"ax",%progbits
ARM GAS  C:\Users\mgronber\AppData\Local\Temp\cckW1w38.s 			page 13


 253              		.align	2
 254              		.global	GetSample
 255              		.thumb
 256              		.thumb_func
 257              		.type	GetSample, %function
 258              	GetSample:
 259              	.LFB58:
 357:main.c        ****     TIMER_SAMPLERATE_STATUS;
 260              		.loc 1 357 0
 261              		.cfi_startproc
 262              		@ args = 0, pretend = 0, frame = 0
 263              		@ frame_needed = 0, uses_anonymous_args = 0
 264 0000 10B5     		push	{r4, lr}
 265              		.cfi_def_cfa_offset 8
 266              		.cfi_offset 4, -8
 267              		.cfi_offset 14, -4
 358:main.c        ****     
 268              		.loc 1 358 0
 269 0002 1B4B     		ldr	r3, .L28
 360:main.c        ****         if (!frameLocked[currFrame]) {
 270              		.loc 1 360 0
 271 0004 0020     		movs	r0, #0
 358:main.c        ****     
 272              		.loc 1 358 0
 273 0006 1B78     		ldrb	r3, [r3]	@ zero_extendqisi2
 360:main.c        ****         if (!frameLocked[currFrame]) {
 274              		.loc 1 360 0
 275 0008 FFF7FEFF 		bl	ADC_MIC_IsEndConversion
 276              	.LVL41:
 277 000c 38B1     		cbz	r0, .L18
 361:main.c        ****             ADCoutput = ADC_MIC_GetResult16();
 278              		.loc 1 361 0
 279 000e 194C     		ldr	r4, .L28+4
 280 0010 A379     		ldrb	r3, [r4, #6]	@ zero_extendqisi2
 281 0012 E218     		adds	r2, r4, r3
 282 0014 127A     		ldrb	r2, [r2, #8]	@ zero_extendqisi2
 283 0016 1AB1     		cbz	r2, .L27
 379:main.c        ****         }
 284              		.loc 1 379 0
 285 0018 83F00103 		eor	r3, r3, #1
 286 001c A371     		strb	r3, [r4, #6]
 287              	.L18:
 288 001e 10BD     		pop	{r4, pc}
 289              	.L27:
 362:main.c        ****             
 290              		.loc 1 362 0
 291 0020 FFF7FEFF 		bl	ADC_MIC_GetResult16
 292              	.LVL42:
 293 0024 144A     		ldr	r2, .L28+8
 364:main.c        ****                 max_value = ADCoutput;
 294              		.loc 1 364 0
 295 0026 E368     		ldr	r3, [r4, #12]
 362:main.c        ****             
 296              		.loc 1 362 0
 297 0028 1080     		strh	r0, [r2]	@ movhi
 368:main.c        ****                 dataFrames[currFrame][frameIndex] = ADCoutput;
 298              		.loc 1 368 0
ARM GAS  C:\Users\mgronber\AppData\Local\Temp\cckW1w38.s 			page 14


 299 002a 228A     		ldrh	r2, [r4, #16]
 364:main.c        ****                 max_value = ADCoutput;
 300              		.loc 1 364 0
 301 002c 9842     		cmp	r0, r3
 365:main.c        ****             }
 302              		.loc 1 365 0
 303 002e C8BF     		it	gt
 304 0030 E060     		strgt	r0, [r4, #12]
 368:main.c        ****                 dataFrames[currFrame][frameIndex] = ADCoutput;
 305              		.loc 1 368 0
 306 0032 B2F5007F 		cmp	r2, #512
 307 0036 0F4B     		ldr	r3, .L28+4
 308 0038 08D2     		bcs	.L22
 369:main.c        ****                 frameIndex++;
 309              		.loc 1 369 0
 310 003a 9979     		ldrb	r1, [r3, #6]	@ zero_extendqisi2
 311 003c 0F4C     		ldr	r4, .L28+12
 312 003e 02EB4121 		add	r1, r2, r1, lsl #9
 370:main.c        ****             } else {                                            // Frame is getting the last value 
 313              		.loc 1 370 0
 314 0042 0132     		adds	r2, r2, #1
 315 0044 1A82     		strh	r2, [r3, #16]	@ movhi
 369:main.c        ****                 frameIndex++;
 316              		.loc 1 369 0
 317 0046 24F81100 		strh	r0, [r4, r1, lsl #1]	@ movhi
 318 004a 10BD     		pop	{r4, pc}
 319              	.L22:
 320              	.LBB4:
 321              	.LBB5:
 372:main.c        ****                 frameIndex = 0;
 322              		.loc 1 372 0
 323 004c D968     		ldr	r1, [r3, #12]
 324 004e 9A79     		ldrb	r2, [r3, #6]	@ zero_extendqisi2
 325 0050 3B29     		cmp	r1, #59
 326 0052 03EB0204 		add	r4, r3, r2
 375:main.c        ****                 frameProcessed = false;                         // Signals to main that there is a 
 327              		.loc 1 375 0
 328 0056 82F00102 		eor	r2, r2, #1
 373:main.c        ****                 max_value = 0;
 329              		.loc 1 373 0
 330 005a 4FF00001 		mov	r1, #0
 372:main.c        ****                 frameIndex = 0;
 331              		.loc 1 372 0
 332 005e D4BF     		ite	le
 333 0060 0020     		movle	r0, #0
 334 0062 0120     		movgt	r0, #1
 375:main.c        ****                 frameProcessed = false;                         // Signals to main that there is a 
 335              		.loc 1 375 0
 336 0064 9A71     		strb	r2, [r3, #6]
 372:main.c        ****                 frameIndex = 0;
 337              		.loc 1 372 0
 338 0066 2075     		strb	r0, [r4, #20]
 373:main.c        ****                 max_value = 0;
 339              		.loc 1 373 0
 340 0068 1982     		strh	r1, [r3, #16]	@ movhi
 374:main.c        ****                 currFrame = currFrame ^ 0b01;                   // Swap current frame index.
 341              		.loc 1 374 0
ARM GAS  C:\Users\mgronber\AppData\Local\Temp\cckW1w38.s 			page 15


 342 006a D960     		str	r1, [r3, #12]
 376:main.c        ****             }
 343              		.loc 1 376 0
 344 006c 9975     		strb	r1, [r3, #22]
 345 006e 10BD     		pop	{r4, pc}
 346              	.L29:
 347              		.align	2
 348              	.L28:
 349 0070 67650040 		.word	1073767783
 350 0074 00000000 		.word	.LANCHOR0
 351 0078 00000000 		.word	ADCoutput
 352 007c 00000000 		.word	dataFrames
 353              	.LBE5:
 354              	.LBE4:
 355              		.cfi_endproc
 356              	.LFE58:
 357              		.size	GetSample, .-GetSample
 358              		.global	__aeabi_f2uiz
 359              		.global	__aeabi_f2d
 360              		.global	__aeabi_ui2f
 361              		.global	__aeabi_fdiv
 362              		.section	.text.startup.main,"ax",%progbits
 363              		.align	2
 364              		.global	main
 365              		.thumb
 366              		.thumb_func
 367              		.type	main, %function
 368              	main:
 369              	.LFB56:
  74:main.c        ****     /******* Initilizations *******/
 370              		.loc 1 74 0
 371              		.cfi_startproc
 372              		@ args = 0, pretend = 0, frame = 8
 373              		@ frame_needed = 0, uses_anonymous_args = 0
 374 0000 2DE9F04F 		push	{r4, r5, r6, r7, r8, r9, r10, fp, lr}
 375              		.cfi_def_cfa_offset 36
 376              		.cfi_offset 4, -36
 377              		.cfi_offset 5, -32
 378              		.cfi_offset 6, -28
 379              		.cfi_offset 7, -24
 380              		.cfi_offset 8, -20
 381              		.cfi_offset 9, -16
 382              		.cfi_offset 10, -12
 383              		.cfi_offset 11, -8
 384              		.cfi_offset 14, -4
 385 0004 85B0     		sub	sp, sp, #20
 386              		.cfi_def_cfa_offset 56
  77:main.c        ****     
 387              		.loc 1 77 0
 388              	@ 77 "main.c" 1
 389 0006 62B6     		CPSIE   i
 390              	@ 0 "" 2
  84:main.c        ****     UI_isr_StartEx(UserInterfaceISR);
 391              		.loc 1 84 0
 392              		.thumb
 393 0008 A348     		ldr	r0, .L93
 394 000a FFF7FEFF 		bl	isr_1_StartEx
ARM GAS  C:\Users\mgronber\AppData\Local\Temp\cckW1w38.s 			page 16


 395              	.LVL43:
  85:main.c        ****     
 396              		.loc 1 85 0
 397 000e A348     		ldr	r0, .L93+4
 398 0010 FFF7FEFF 		bl	UI_isr_StartEx
 399              	.LVL44:
  88:main.c        ****     CharLCD_Start();
 400              		.loc 1 88 0
 401 0014 FFF7FEFF 		bl	I2C_CharLCD_Start
 402              	.LVL45:
  89:main.c        ****             
 403              		.loc 1 89 0
 404 0018 FFF7FEFF 		bl	CharLCD_Start
 405              	.LVL46:
  92:main.c        ****     TIMER_UI_Start();
 406              		.loc 1 92 0
 407 001c FFF7FEFF 		bl	TIMER_SAMPLERATE_Start
 408              	.LVL47:
  93:main.c        ****     
 409              		.loc 1 93 0
 410 0020 FFF7FEFF 		bl	TIMER_UI_Start
 411              	.LVL48:
  96:main.c        ****     ADC_MIC_StartConvert();
 412              		.loc 1 96 0
 413 0024 FFF7FEFF 		bl	ADC_MIC_Start
 414              	.LVL49:
  97:main.c        ****     ADC_UI_Start();
 415              		.loc 1 97 0
 416 0028 FFF7FEFF 		bl	ADC_MIC_StartConvert
 417              	.LVL50:
  98:main.c        ****     ADC_UI_StartConvert();
 418              		.loc 1 98 0
 419 002c FFF7FEFF 		bl	ADC_UI_Start
 420              	.LVL51:
  99:main.c        ****      
 421              		.loc 1 99 0
 422 0030 FFF7FEFF 		bl	ADC_UI_StartConvert
 423              	.LVL52:
 102:main.c        ****     
 424              		.loc 1 102 0
 425 0034 FFF7FEFF 		bl	UART_MIDITX_Start
 426              	.LVL53:
 104:main.c        ****     
 427              		.loc 1 104 0
 428 0038 FFF7FEFF 		bl	pitch_init
 429              	.LVL54:
 107:main.c        **** 
 430              		.loc 1 107 0
 431 003c 9848     		ldr	r0, .L93+8
 432 003e FFF7FEFF 		bl	populate_midi_array
 433              	.LVL55:
 110:main.c        ****     
 434              		.loc 1 110 0
 435 0042 0221     		movs	r1, #2
 436 0044 0020     		movs	r0, #0
 437 0046 FFF7FEFF 		bl	USB_Start
 438              	.LVL56:
ARM GAS  C:\Users\mgronber\AppData\Local\Temp\cckW1w38.s 			page 17


 115:main.c        ****     CharLCD_Position(0,0);
 439              		.loc 1 115 0
 440 004a 0120     		movs	r0, #1
 441 004c FFF7FEFF 		bl	CharLCD_WriteControl
 442              	.LVL57:
 116:main.c        ****     CharLCD_PrintString("   -HUMMINGBIRD-  ");
 443              		.loc 1 116 0
 444 0050 0020     		movs	r0, #0
 445 0052 0146     		mov	r1, r0
 446 0054 FFF7FEFF 		bl	CharLCD_Position
 447              	.LVL58:
 117:main.c        ****     CharLCD_Position(1,0);
 448              		.loc 1 117 0
 449 0058 9248     		ldr	r0, .L93+12
 450 005a FFF7FEFF 		bl	CharLCD_PrintString
 451              	.LVL59:
 118:main.c        ****     CharLCD_PrintString("       v0.8  ");
 452              		.loc 1 118 0
 453 005e 0021     		movs	r1, #0
 454 0060 0120     		movs	r0, #1
 455 0062 FFF7FEFF 		bl	CharLCD_Position
 456              	.LVL60:
 119:main.c        ****     CyDelay(1000);
 457              		.loc 1 119 0
 458 0066 9048     		ldr	r0, .L93+16
 459 0068 FFF7FEFF 		bl	CharLCD_PrintString
 460              	.LVL61:
 120:main.c        ****     CharLCD_Position(3,0);
 461              		.loc 1 120 0
 462 006c 4FF47A70 		mov	r0, #1000
 463 0070 FFF7FEFF 		bl	CyDelay
 464              	.LVL62:
 121:main.c        ****     CharLCD_PrintString("Hum when ready...");
 465              		.loc 1 121 0
 466 0074 0320     		movs	r0, #3
 467 0076 0021     		movs	r1, #0
 468 0078 FFF7FEFF 		bl	CharLCD_Position
 469              	.LVL63:
 122:main.c        ****     
 470              		.loc 1 122 0
 471 007c 8B48     		ldr	r0, .L93+20
 472 007e FFF7FEFF 		bl	CharLCD_PrintString
 473              	.LVL64:
 474 0082 8B4C     		ldr	r4, .L93+24
 475 0084 8B4D     		ldr	r5, .L93+28
 476 0086 DFF860B2 		ldr	fp, .L93+80
 477 008a 8B4E     		ldr	r6, .L93+32
 478 008c 8B4F     		ldr	r7, .L93+36
 479              	.L43:
 193:main.c        ****                 if (start) {
 480              		.loc 1 193 0
 481 008e A378     		ldrb	r3, [r4, #2]	@ zero_extendqisi2
 482 0090 DFF81C82 		ldr	r8, .L93+24
 483 0094 5BB1     		cbz	r3, .L32
 194:main.c        ****                     initDisplay();
 484              		.loc 1 194 0
 485 0096 6A68     		ldr	r2, [r5, #4]
ARM GAS  C:\Users\mgronber\AppData\Local\Temp\cckW1w38.s 			page 18


 486 0098 DFF81892 		ldr	r9, .L93+28
 487 009c 52BB     		cbnz	r2, .L84
 488              	.L33:
 198:main.c        ****                     UI_Update_Mask &= 0b1110;   //clear KEY bit
 489              		.loc 1 198 0
 490 009e D907     		lsls	r1, r3, #31
 491 00a0 31D4     		bmi	.L85
 492              	.L34:
 202:main.c        ****                     UI_Update_Mask &= 0b1101;   //clear SCALE bit
 493              		.loc 1 202 0
 494 00a2 9A07     		lsls	r2, r3, #30
 495 00a4 39D4     		bmi	.L86
 496              	.L35:
 206:main.c        ****                     UI_Update_Mask &= 0b1011;   //clear HYST bit
 497              		.loc 1 206 0
 498 00a6 5807     		lsls	r0, r3, #29
 499 00a8 41D4     		bmi	.L87
 500              	.L36:
 217:main.c        ****                     UI_Update_Mask &= 0b0111;   //clear VELO bit
 501              		.loc 1 217 0
 502 00aa 1907     		lsls	r1, r3, #28
 503 00ac 66D4     		bmi	.L88
 504              	.L32:
 229:main.c        ****             if (frameReady[sampleFrame]&&!frameProcessed) {
 505              		.loc 1 229 0
 506 00ae A379     		ldrb	r3, [r4, #6]	@ zero_extendqisi2
 507 00b0 7F49     		ldr	r1, .L93+24
 508 00b2 83F00103 		eor	r3, r3, #1
 230:main.c        ****                 if (start) {
 509              		.loc 1 230 0
 510 00b6 E218     		adds	r2, r4, r3
 511 00b8 127D     		ldrb	r2, [r2, #20]	@ zero_extendqisi2
 512 00ba 1846     		mov	r0, r3
 229:main.c        ****             if (frameReady[sampleFrame]&&!frameProcessed) {
 513              		.loc 1 229 0
 514 00bc 6376     		strb	r3, [r4, #25]
 230:main.c        ****                 if (start) {
 515              		.loc 1 230 0
 516 00be 002A     		cmp	r2, #0
 517 00c0 7CD1     		bne	.L89
 518              	.L41:
 310:main.c        ****                 midiMsg[1] = lastNote;
 519              		.loc 1 310 0
 520 00c2 8023     		movs	r3, #128
 311:main.c        ****                 midiMsg[2] = 0u;
 521              		.loc 1 311 0
 522 00c4 A968     		ldr	r1, [r5, #8]
 314:main.c        ****                 UART_MIDITX_PutChar(midiMsg[1]);
 523              		.loc 1 314 0
 524 00c6 1846     		mov	r0, r3
 312:main.c        ****                 
 525              		.loc 1 312 0
 526 00c8 0022     		movs	r2, #0
 310:main.c        ****                 midiMsg[1] = lastNote;
 527              		.loc 1 310 0
 528 00ca 3B70     		strb	r3, [r7]
 311:main.c        ****                 midiMsg[2] = 0u;
ARM GAS  C:\Users\mgronber\AppData\Local\Temp\cckW1w38.s 			page 19


 529              		.loc 1 311 0
 530 00cc 7970     		strb	r1, [r7, #1]
 312:main.c        ****                 
 531              		.loc 1 312 0
 532 00ce BA70     		strb	r2, [r7, #2]
 314:main.c        ****                 UART_MIDITX_PutChar(midiMsg[1]);
 533              		.loc 1 314 0
 534 00d0 FFF7FEFF 		bl	UART_MIDITX_PutChar
 535              	.LVL65:
 315:main.c        ****                 UART_MIDITX_PutChar(midiMsg[2]);
 536              		.loc 1 315 0
 537 00d4 7878     		ldrb	r0, [r7, #1]	@ zero_extendqisi2
 538 00d6 FFF7FEFF 		bl	UART_MIDITX_PutChar
 539              	.LVL66:
 316:main.c        **** 
 540              		.loc 1 316 0
 541 00da B878     		ldrb	r0, [r7, #2]	@ zero_extendqisi2
 542 00dc FFF7FEFF 		bl	UART_MIDITX_PutChar
 543              	.LVL67:
 193:main.c        ****                 if (start) {
 544              		.loc 1 193 0
 545 00e0 A378     		ldrb	r3, [r4, #2]	@ zero_extendqisi2
 546 00e2 DFF8CC81 		ldr	r8, .L93+24
 547 00e6 002B     		cmp	r3, #0
 548 00e8 E1D0     		beq	.L32
 194:main.c        ****                     initDisplay();
 549              		.loc 1 194 0
 550 00ea 6A68     		ldr	r2, [r5, #4]
 551 00ec DFF8C491 		ldr	r9, .L93+28
 552 00f0 002A     		cmp	r2, #0
 553 00f2 D4D0     		beq	.L33
 554              	.L84:
 195:main.c        ****                     start = 0;
 555              		.loc 1 195 0
 556 00f4 FFF7FEFF 		bl	initDisplay
 557              	.LVL68:
 558 00f8 98F80230 		ldrb	r3, [r8, #2]	@ zero_extendqisi2
 196:main.c        ****                 }
 559              		.loc 1 196 0
 560 00fc 0022     		movs	r2, #0
 198:main.c        ****                     UI_Update_Mask &= 0b1110;   //clear KEY bit
 561              		.loc 1 198 0
 562 00fe D907     		lsls	r1, r3, #31
 196:main.c        ****                 }
 563              		.loc 1 196 0
 564 0100 C9F80420 		str	r2, [r9, #4]
 198:main.c        ****                     UI_Update_Mask &= 0b1110;   //clear KEY bit
 565              		.loc 1 198 0
 566 0104 CDD5     		bpl	.L34
 567              	.L85:
 199:main.c        ****                     curKey = UpdateKeyLCD(lastKey);
 568              		.loc 1 199 0
 569 0106 03F00E03 		and	r3, r3, #14
 200:main.c        ****                 }
 570              		.loc 1 200 0
 571 010a 2088     		ldrh	r0, [r4]
 199:main.c        ****                     curKey = UpdateKeyLCD(lastKey);
ARM GAS  C:\Users\mgronber\AppData\Local\Temp\cckW1w38.s 			page 20


 572              		.loc 1 199 0
 573 010c A370     		strb	r3, [r4, #2]
 200:main.c        ****                 }
 574              		.loc 1 200 0
 575 010e FFF7FEFF 		bl	UpdateKeyLCD
 576              	.LVL69:
 577 0112 A378     		ldrb	r3, [r4, #2]	@ zero_extendqisi2
 578 0114 E075     		strb	r0, [r4, #23]
 202:main.c        ****                     UI_Update_Mask &= 0b1101;   //clear SCALE bit
 579              		.loc 1 202 0
 580 0116 9A07     		lsls	r2, r3, #30
 581 0118 C5D5     		bpl	.L35
 582              	.L86:
 203:main.c        ****                     curScale = UpdateScaleLCD(lastScale);
 583              		.loc 1 203 0
 584 011a 03F00D03 		and	r3, r3, #13
 204:main.c        ****                 }
 585              		.loc 1 204 0
 586 011e A088     		ldrh	r0, [r4, #4]
 203:main.c        ****                     curScale = UpdateScaleLCD(lastScale);
 587              		.loc 1 203 0
 588 0120 A370     		strb	r3, [r4, #2]
 204:main.c        ****                 }
 589              		.loc 1 204 0
 590 0122 FFF7FEFF 		bl	UpdateScaleLCD
 591              	.LVL70:
 592 0126 A378     		ldrb	r3, [r4, #2]	@ zero_extendqisi2
 593 0128 2076     		strb	r0, [r4, #24]
 206:main.c        ****                     UI_Update_Mask &= 0b1011;   //clear HYST bit
 594              		.loc 1 206 0
 595 012a 5807     		lsls	r0, r3, #29
 596 012c BDD5     		bpl	.L36
 597              	.L87:
 207:main.c        ****                     CharLCD_PosPrintString(2,11,"          ");
 598              		.loc 1 207 0
 599 012e 03F00B03 		and	r3, r3, #11
 208:main.c        ****                     CharLCD_PosPrintString(2,11,"Hist:");
 600              		.loc 1 208 0
 601 0132 0B21     		movs	r1, #11
 602 0134 0220     		movs	r0, #2
 207:main.c        ****                     CharLCD_PosPrintString(2,11,"          ");
 603              		.loc 1 207 0
 604 0136 A370     		strb	r3, [r4, #2]
 208:main.c        ****                     CharLCD_PosPrintString(2,11,"Hist:");
 605              		.loc 1 208 0
 606 0138 FFF7FEFF 		bl	CharLCD_Position
 607              	.LVL71:
 608 013c 6048     		ldr	r0, .L93+40
 609 013e FFF7FEFF 		bl	CharLCD_PrintString
 610              	.LVL72:
 209:main.c        ****                     tempHyst = map(lastHyst,0,255,50,101);
 611              		.loc 1 209 0
 612 0142 0B21     		movs	r1, #11
 613 0144 0220     		movs	r0, #2
 614 0146 FFF7FEFF 		bl	CharLCD_Position
 615              	.LVL73:
 616 014a 5E48     		ldr	r0, .L93+44
ARM GAS  C:\Users\mgronber\AppData\Local\Temp\cckW1w38.s 			page 21


 617 014c FFF7FEFF 		bl	CharLCD_PrintString
 618              	.LVL74:
 210:main.c        ****                     if(tempHyst > 100) { tempHyst = 100; }
 619              		.loc 1 210 0
 620 0150 6523     		movs	r3, #101
 621 0152 0093     		str	r3, [sp]
 622 0154 2888     		ldrh	r0, [r5]
 623 0156 0021     		movs	r1, #0
 624 0158 FF22     		movs	r2, #255
 625 015a 3223     		movs	r3, #50
 626 015c FFF7FEFF 		bl	map
 627              	.LVL75:
 628 0160 80B2     		uxth	r0, r0
 211:main.c        ****                     CharLCD_PrintNumber(tempHyst);
 629              		.loc 1 211 0
 630 0162 6428     		cmp	r0, #100
 631 0164 00F28A80 		bhi	.L37
 210:main.c        ****                     if(tempHyst > 100) { tempHyst = 100; }
 632              		.loc 1 210 0
 633 0168 574B     		ldr	r3, .L93+48
 634 016a 1880     		strh	r0, [r3]	@ movhi
 635              	.L38:
 212:main.c        ****                     CharLCD_PrintString("%");
 636              		.loc 1 212 0
 637 016c FFF7FEFF 		bl	CharLCD_PrintNumber
 638              	.LVL76:
 213:main.c        ****                     // NOTE: tempHyst is used by the actual hyst function, but is divided by 100 to
 639              		.loc 1 213 0
 640 0170 5648     		ldr	r0, .L93+52
 641 0172 FFF7FEFF 		bl	CharLCD_PrintString
 642              	.LVL77:
 643 0176 A378     		ldrb	r3, [r4, #2]	@ zero_extendqisi2
 217:main.c        ****                     UI_Update_Mask &= 0b0111;   //clear VELO bit
 644              		.loc 1 217 0
 645 0178 1907     		lsls	r1, r3, #28
 646 017a 98D5     		bpl	.L32
 647              	.L88:
 648              	.LBB6:
 218:main.c        ****                     CharLCD_PosPrintString(2,0,"          ");
 649              		.loc 1 218 0
 650 017c 03F00703 		and	r3, r3, #7
 219:main.c        ****                     CharLCD_PosPrintString(2,0,"Velo:"); 
 651              		.loc 1 219 0
 652 0180 0021     		movs	r1, #0
 653 0182 0220     		movs	r0, #2
 218:main.c        ****                     CharLCD_PosPrintString(2,0,"          ");
 654              		.loc 1 218 0
 655 0184 A370     		strb	r3, [r4, #2]
 219:main.c        ****                     CharLCD_PosPrintString(2,0,"Velo:"); 
 656              		.loc 1 219 0
 657 0186 FFF7FEFF 		bl	CharLCD_Position
 658              	.LVL78:
 659 018a 4D48     		ldr	r0, .L93+40
 660 018c FFF7FEFF 		bl	CharLCD_PrintString
 661              	.LVL79:
 220:main.c        ****                     uint16 tempVelo = map(lastVelo,0,255,0,101);
 662              		.loc 1 220 0
ARM GAS  C:\Users\mgronber\AppData\Local\Temp\cckW1w38.s 			page 22


 663 0190 0021     		movs	r1, #0
 664 0192 0220     		movs	r0, #2
 665 0194 FFF7FEFF 		bl	CharLCD_Position
 666              	.LVL80:
 667 0198 4D48     		ldr	r0, .L93+56
 668 019a FFF7FEFF 		bl	CharLCD_PrintString
 669              	.LVL81:
 221:main.c        ****                     if(tempVelo > 100) { tempVelo = 100; }
 670              		.loc 1 221 0
 671 019e 0021     		movs	r1, #0
 672 01a0 6523     		movs	r3, #101
 673 01a2 0093     		str	r3, [sp]
 674 01a4 6888     		ldrh	r0, [r5, #2]
 675 01a6 0B46     		mov	r3, r1
 676 01a8 FF22     		movs	r2, #255
 677 01aa FFF7FEFF 		bl	map
 678              	.LVL82:
 679 01ae 80B2     		uxth	r0, r0
 680              	.LVL83:
 223:main.c        ****                 }  
 681              		.loc 1 223 0
 682 01b0 6428     		cmp	r0, #100
 683 01b2 28BF     		it	cs
 684 01b4 6420     		movcs	r0, #100
 685              	.LVL84:
 686 01b6 FFF7FEFF 		bl	CharLCD_PrintNumber
 687              	.LVL85:
 688 01ba 78E7     		b	.L32
 689              	.L89:
 690              	.LBE6:
 230:main.c        ****                 if (start) {
 691              		.loc 1 230 0 discriminator 1
 692 01bc 91F81680 		ldrb	r8, [r1, #22]	@ zero_extendqisi2
 693 01c0 B8F1000F 		cmp	r8, #0
 694 01c4 7FF463AF 		bne	.L43
 695              	.LBB7:
 231:main.c        ****                     initDisplay();
 696              		.loc 1 231 0
 697 01c8 6B68     		ldr	r3, [r5, #4]
 698 01ca DFF8E890 		ldr	r9, .L93+28
 699 01ce 002B     		cmp	r3, #0
 700 01d0 59D1     		bne	.L90
 701              	.L44:
 236:main.c        ****                 frameProcessed = true;
 702              		.loc 1 236 0
 703 01d2 2218     		adds	r2, r4, r0
 704 01d4 0123     		movs	r3, #1
 243:main.c        ****                 
 705              		.loc 1 243 0
 706 01d6 0BEB8020 		add	r0, fp, r0, lsl #10
 236:main.c        ****                 frameProcessed = true;
 707              		.loc 1 236 0
 708 01da 1372     		strb	r3, [r2, #8]
 237:main.c        ****                 
 709              		.loc 1 237 0
 710 01dc A375     		strb	r3, [r4, #22]
 243:main.c        ****                 
ARM GAS  C:\Users\mgronber\AppData\Local\Temp\cckW1w38.s 			page 23


 711              		.loc 1 243 0
 712 01de FFF7FEFF 		bl	pitch_auto_fft
 713              	.LVL86:
 246:main.c        ****                 CharLCD_PosPrintString(0,0,"      ");
 714              		.loc 1 246 0
 715 01e2 637E     		ldrb	r3, [r4, #25]	@ zero_extendqisi2
 716 01e4 4FF0000A 		mov	r10, #0
 717 01e8 2344     		add	r3, r3, r4
 247:main.c        ****                 CharLCD_PosPrintNumber(0,0,pitchHz);
 718              		.loc 1 247 0
 719 01ea 5146     		mov	r1, r10
 243:main.c        ****                 
 720              		.loc 1 243 0
 721 01ec 3060     		str	r0, [r6]	@ float
 247:main.c        ****                 CharLCD_PosPrintNumber(0,0,pitchHz);
 722              		.loc 1 247 0
 723 01ee 5046     		mov	r0, r10
 246:main.c        ****                 CharLCD_PosPrintString(0,0,"      ");
 724              		.loc 1 246 0
 725 01f0 83F808A0 		strb	r10, [r3, #8]
 247:main.c        ****                 CharLCD_PosPrintNumber(0,0,pitchHz);
 726              		.loc 1 247 0
 727 01f4 FFF7FEFF 		bl	CharLCD_Position
 728              	.LVL87:
 729 01f8 3648     		ldr	r0, .L93+60
 730 01fa FFF7FEFF 		bl	CharLCD_PrintString
 731              	.LVL88:
 248:main.c        ****                 UpdateTuner(noteTable, NoteSnap(noteTable, pitchHz, curKey, curScale), pitchHz);
 732              		.loc 1 248 0
 733 01fe 5146     		mov	r1, r10
 734 0200 5046     		mov	r0, r10
 735 0202 FFF7FEFF 		bl	CharLCD_Position
 736              	.LVL89:
 737 0206 3068     		ldr	r0, [r6]	@ float
 738 0208 FFF7FEFF 		bl	__aeabi_f2uiz
 739              	.LVL90:
 740 020c 80B2     		uxth	r0, r0
 741 020e FFF7FEFF 		bl	CharLCD_PrintNumber
 742              	.LVL91:
 249:main.c        ****                 //int note = NoteSnap(noteTable, pitchHz, curKey, curScale);
 743              		.loc 1 249 0
 744 0212 3168     		ldr	r1, [r6]	@ float
 745 0214 E27D     		ldrb	r2, [r4, #23]	@ zero_extendqisi2
 746 0216 237E     		ldrb	r3, [r4, #24]	@ zero_extendqisi2
 747 0218 2148     		ldr	r0, .L93+8
 748 021a FFF7FEFF 		bl	NoteSnap
 749              	.LVL92:
 750 021e 3268     		ldr	r2, [r6]	@ float
 751 0220 C1B2     		uxtb	r1, r0
 752 0222 1F48     		ldr	r0, .L93+8
 753 0224 FFF7FEFF 		bl	UpdateTuner
 754              	.LVL93:
 253:main.c        ****                     if (midi_note_changed(pitchHz, lastNote, noteTable, (float)tempHyst/100)) {
 755              		.loc 1 253 0
 756 0228 D6F80090 		ldr	r9, [r6]	@ float
 757 022c 2A49     		ldr	r1, .L93+64
 758 022e 4846     		mov	r0, r9
ARM GAS  C:\Users\mgronber\AppData\Local\Temp\cckW1w38.s 			page 24


 251:main.c        ****                 
 759              		.loc 1 251 0
 760 0230 D5F80880 		ldr	r8, [r5, #8]
 761              	.LVL94:
 253:main.c        ****                     if (midi_note_changed(pitchHz, lastNote, noteTable, (float)tempHyst/100)) {
 762              		.loc 1 253 0
 763 0234 FFF7FEFF 		bl	__aeabi_fcmplt
 764              	.LVL95:
 765 0238 28B1     		cbz	r0, .L46
 253:main.c        ****                     if (midi_note_changed(pitchHz, lastNote, noteTable, (float)tempHyst/100)) {
 766              		.loc 1 253 0 is_stmt 0 discriminator 1
 767 023a 4846     		mov	r0, r9
 768 023c 2749     		ldr	r1, .L93+68
 769 023e FFF7FEFF 		bl	__aeabi_fcmpgt
 770              	.LVL96:
 771 0242 0028     		cmp	r0, #0
 772 0244 52D1     		bne	.L91
 773              	.L46:
 298:main.c        ****                 CharLCD_PosPrintNumber(0,0,pitchHz);
 774              		.loc 1 298 0 is_stmt 1
 775 0246 0020     		movs	r0, #0
 776 0248 0146     		mov	r1, r0
 777 024a FFF7FEFF 		bl	CharLCD_Position
 778              	.LVL97:
 779 024e 2448     		ldr	r0, .L93+72
 780 0250 FFF7FEFF 		bl	CharLCD_PrintString
 781              	.LVL98:
 299:main.c        ****                 CharLCD_PrintString("Hz");
 782              		.loc 1 299 0
 783 0254 0020     		movs	r0, #0
 784 0256 0146     		mov	r1, r0
 785 0258 FFF7FEFF 		bl	CharLCD_Position
 786              	.LVL99:
 787 025c 3068     		ldr	r0, [r6]	@ float
 788 025e FFF7FEFF 		bl	__aeabi_f2uiz
 789              	.LVL100:
 790 0262 80B2     		uxth	r0, r0
 791 0264 FFF7FEFF 		bl	CharLCD_PrintNumber
 792              	.LVL101:
 300:main.c        ****                 //if (changed) {
 793              		.loc 1 300 0
 794 0268 1E48     		ldr	r0, .L93+76
 795 026a FFF7FEFF 		bl	CharLCD_PrintString
 796              	.LVL102:
 797              	.LBE7:
 308:main.c        ****             {
 798              		.loc 1 308 0
 799 026e 637E     		ldrb	r3, [r4, #25]	@ zero_extendqisi2
 800 0270 2344     		add	r3, r3, r4
 801 0272 1B7D     		ldrb	r3, [r3, #20]	@ zero_extendqisi2
 802 0274 002B     		cmp	r3, #0
 803 0276 7FF40AAF 		bne	.L43
 804 027a 22E7     		b	.L41
 805              	.LVL103:
 806              	.L37:
 211:main.c        ****                     CharLCD_PrintNumber(tempHyst);
 807              		.loc 1 211 0 discriminator 1
ARM GAS  C:\Users\mgronber\AppData\Local\Temp\cckW1w38.s 			page 25


 808 027c 124A     		ldr	r2, .L93+48
 809 027e 6423     		movs	r3, #100
 810 0280 1846     		mov	r0, r3
 811 0282 1380     		strh	r3, [r2]	@ movhi
 812 0284 72E7     		b	.L38
 813              	.L90:
 814 0286 0291     		str	r1, [sp, #8]
 815              	.LBB8:
 232:main.c        ****                     start = 0;
 816              		.loc 1 232 0
 817 0288 FFF7FEFF 		bl	initDisplay
 818              	.LVL104:
 819 028c 0299     		ldr	r1, [sp, #8]
 233:main.c        ****                 }
 820              		.loc 1 233 0
 821 028e C9F80480 		str	r8, [r9, #4]
 822 0292 487E     		ldrb	r0, [r1, #25]	@ zero_extendqisi2
 823 0294 9DE7     		b	.L44
 824              	.L94:
 825 0296 00BF     		.align	2
 826              	.L93:
 827 0298 00000000 		.word	GetSample
 828 029c 00000000 		.word	UserInterfaceISR
 829 02a0 00000000 		.word	noteTable
 830 02a4 00000000 		.word	.LC0
 831 02a8 14000000 		.word	.LC1
 832 02ac 24000000 		.word	.LC2
 833 02b0 00000000 		.word	.LANCHOR0
 834 02b4 00000000 		.word	.LANCHOR1
 835 02b8 00000000 		.word	pitchHz
 836 02bc 00000000 		.word	midiMsg
 837 02c0 38000000 		.word	.LC3
 838 02c4 44000000 		.word	.LC4
 839 02c8 00000000 		.word	tempHyst
 840 02cc 4C000000 		.word	.LC5
 841 02d0 50000000 		.word	.LC6
 842 02d4 58000000 		.word	.LC7
 843 02d8 00007A44 		.word	1148846080
 844 02dc 00007042 		.word	1114636288
 845 02e0 60000000 		.word	.LC8
 846 02e4 64000000 		.word	.LC9
 847 02e8 00000000 		.word	dataFrames
 848              	.LVL105:
 849              	.L91:
 254:main.c        ****                         note = NoteSnap(noteTable, pitchHz, curKey, curScale);
 850              		.loc 1 254 0
 851 02ec 4846     		mov	r0, r9
 852 02ee FFF7FEFF 		bl	__aeabi_f2d
 853              	.LVL106:
 854 02f2 2B4B     		ldr	r3, .L95
 855 02f4 CDE90201 		strd	r0, [sp, #8]
 856 02f8 1888     		ldrh	r0, [r3]
 857 02fa FFF7FEFF 		bl	__aeabi_ui2f
 858              	.LVL107:
 859 02fe 2949     		ldr	r1, .L95+4
 860 0300 FFF7FEFF 		bl	__aeabi_fdiv
 861              	.LVL108:
ARM GAS  C:\Users\mgronber\AppData\Local\Temp\cckW1w38.s 			page 26


 862 0304 4246     		mov	r2, r8
 863 0306 0090     		str	r0, [sp]	@ float
 864 0308 274B     		ldr	r3, .L95+8
 865 030a DDE90201 		ldrd	r0, [sp, #8]
 866 030e FFF7FEFF 		bl	midi_note_changed
 867              	.LVL109:
 868 0312 38BB     		cbnz	r0, .L92
 869              	.L49:
 269:main.c        ****                 
 870              		.loc 1 269 0
 871 0314 AB68     		ldr	r3, [r5, #8]
 272:main.c        ****                     // If not the initial condition, send a note off signal when new note is detect
 872              		.loc 1 272 0
 873 0316 9845     		cmp	r8, r3
 874 0318 95D0     		beq	.L46
 272:main.c        ****                     // If not the initial condition, send a note off signal when new note is detect
 875              		.loc 1 272 0 is_stmt 0 discriminator 1
 876 031a B8F1FF3F 		cmp	r8, #-1
 877 031e 92D0     		beq	.L46
 274:main.c        ****                         midiMsg[0] = USB_MIDI_NOTE_OFF;
 878              		.loc 1 274 0 is_stmt 1
 879 0320 5A1C     		adds	r2, r3, #1
 880 0322 0DD0     		beq	.L51
 275:main.c        ****                         midiMsg[1] = lastNote;
 881              		.loc 1 275 0
 882 0324 8022     		movs	r2, #128
 279:main.c        ****                         UART_MIDITX_PutChar(midiMsg[1]);
 883              		.loc 1 279 0
 884 0326 1046     		mov	r0, r2
 277:main.c        ****                         
 885              		.loc 1 277 0
 886 0328 0021     		movs	r1, #0
 276:main.c        ****                         midiMsg[2] = 0u;        
 887              		.loc 1 276 0
 888 032a 7B70     		strb	r3, [r7, #1]
 275:main.c        ****                         midiMsg[1] = lastNote;
 889              		.loc 1 275 0
 890 032c 3A70     		strb	r2, [r7]
 277:main.c        ****                         
 891              		.loc 1 277 0
 892 032e B970     		strb	r1, [r7, #2]
 279:main.c        ****                         UART_MIDITX_PutChar(midiMsg[1]);
 893              		.loc 1 279 0
 894 0330 FFF7FEFF 		bl	UART_MIDITX_PutChar
 895              	.LVL110:
 280:main.c        ****                         UART_MIDITX_PutChar(midiMsg[2]);
 896              		.loc 1 280 0
 897 0334 7878     		ldrb	r0, [r7, #1]	@ zero_extendqisi2
 898 0336 FFF7FEFF 		bl	UART_MIDITX_PutChar
 899              	.LVL111:
 281:main.c        ****                         //USB_PutUsbMidiIn(3u, midiMsg, USB_MIDI_CABLE_00);
 900              		.loc 1 281 0
 901 033a B878     		ldrb	r0, [r7, #2]	@ zero_extendqisi2
 902 033c FFF7FEFF 		bl	UART_MIDITX_PutChar
 903              	.LVL112:
 904              	.L51:
 285:main.c        ****                     midiMsg[1] = note;
ARM GAS  C:\Users\mgronber\AppData\Local\Temp\cckW1w38.s 			page 27


 905              		.loc 1 285 0
 906 0340 9023     		movs	r3, #144
 287:main.c        ****                     
 907              		.loc 1 287 0
 908 0342 6A88     		ldrh	r2, [r5, #2]
 289:main.c        ****                     UART_MIDITX_PutChar(midiMsg[1]);
 909              		.loc 1 289 0
 910 0344 1846     		mov	r0, r3
 285:main.c        ****                     midiMsg[1] = note;
 911              		.loc 1 285 0
 912 0346 3B70     		strb	r3, [r7]
 287:main.c        ****                     
 913              		.loc 1 287 0
 914 0348 BA70     		strb	r2, [r7, #2]
 286:main.c        ****                     midiMsg[2] = lastVelo;
 915              		.loc 1 286 0
 916 034a 87F80180 		strb	r8, [r7, #1]
 289:main.c        ****                     UART_MIDITX_PutChar(midiMsg[1]);
 917              		.loc 1 289 0
 918 034e FFF7FEFF 		bl	UART_MIDITX_PutChar
 919              	.LVL113:
 290:main.c        ****                     UART_MIDITX_PutChar(midiMsg[2]);
 920              		.loc 1 290 0
 921 0352 7878     		ldrb	r0, [r7, #1]	@ zero_extendqisi2
 922 0354 FFF7FEFF 		bl	UART_MIDITX_PutChar
 923              	.LVL114:
 291:main.c        ****                     //USB_PutUsbMidiIn(3u, midiMsg, USB_MIDI_CABLE_00);                            
 924              		.loc 1 291 0
 925 0358 B878     		ldrb	r0, [r7, #2]	@ zero_extendqisi2
 926 035a FFF7FEFF 		bl	UART_MIDITX_PutChar
 927              	.LVL115:
 294:main.c        ****                 }
 928              		.loc 1 294 0
 929 035e C5F80880 		str	r8, [r5, #8]
 930 0362 70E7     		b	.L46
 931              	.L92:
 255:main.c        ****                         //note = midi_note_from_freq(pitchHz);
 932              		.loc 1 255 0
 933 0364 114B     		ldr	r3, .L95+12
 934 0366 1048     		ldr	r0, .L95+8
 935 0368 1968     		ldr	r1, [r3]	@ float
 936 036a 114B     		ldr	r3, .L95+16
 937 036c DA7D     		ldrb	r2, [r3, #23]	@ zero_extendqisi2
 938 036e 1B7E     		ldrb	r3, [r3, #24]	@ zero_extendqisi2
 939 0370 FFF7FEFF 		bl	NoteSnap
 940              	.LVL116:
 941 0374 8046     		mov	r8, r0
 942              	.LVL117:
 257:main.c        ****                         if(numFrames<255)
 943              		.loc 1 257 0
 944 0376 0320     		movs	r0, #3
 945              	.LVL118:
 946 0378 0146     		mov	r1, r0
 947 037a FFF7FEFF 		bl	CharLCD_Position
 948              	.LVL119:
 949 037e 0C4B     		ldr	r3, .L95+16
 950 0380 988B     		ldrh	r0, [r3, #28]
ARM GAS  C:\Users\mgronber\AppData\Local\Temp\cckW1w38.s 			page 28


 951 0382 FFF7FEFF 		bl	CharLCD_PrintNumber
 952              	.LVL120:
 258:main.c        ****                         {
 953              		.loc 1 258 0
 954 0386 0A4B     		ldr	r3, .L95+16
 955 0388 DB69     		ldr	r3, [r3, #28]
 956 038a FE2B     		cmp	r3, #254
 957 038c 03DC     		bgt	.L50
 260:main.c        ****                         }
 958              		.loc 1 260 0
 959 038e 084A     		ldr	r2, .L95+16
 960 0390 0133     		adds	r3, r3, #1
 961 0392 D361     		str	r3, [r2, #28]
 962 0394 BEE7     		b	.L49
 963              	.L50:
 264:main.c        ****                         }
 964              		.loc 1 264 0
 965 0396 064B     		ldr	r3, .L95+16
 966 0398 C3F81CA0 		str	r10, [r3, #28]
 967 039c BAE7     		b	.L49
 968              	.L96:
 969 039e 00BF     		.align	2
 970              	.L95:
 971 03a0 00000000 		.word	tempHyst
 972 03a4 0000C842 		.word	1120403456
 973 03a8 00000000 		.word	noteTable
 974 03ac 00000000 		.word	pitchHz
 975 03b0 00000000 		.word	.LANCHOR0
 976              	.LBE8:
 977              		.cfi_endproc
 978              	.LFE56:
 979              		.size	main, .-main
 980              		.section	.text.USB_callbackLocalMidiEvent,"ax",%progbits
 981              		.align	2
 982              		.global	USB_callbackLocalMidiEvent
 983              		.thumb
 984              		.thumb_func
 985              		.type	USB_callbackLocalMidiEvent, %function
 986              	USB_callbackLocalMidiEvent:
 987              	.LFB57:
 347:main.c        ****     /* Support General System On/Off Message. */
 988              		.loc 1 347 0
 989              		.cfi_startproc
 990              		@ args = 0, pretend = 0, frame = 0
 991              		@ frame_needed = 0, uses_anonymous_args = 0
 992              		@ link register save eliminated.
 993              	.LVL121:
 350:main.c        ****     cable = cable;
 994              		.loc 1 350 0
 995 0000 024A     		ldr	r2, .L98
 996 0002 034B     		ldr	r3, .L98+4
 997 0004 1278     		ldrb	r2, [r2]	@ zero_extendqisi2
 998 0006 83F82020 		strb	r2, [r3, #32]
 999              	.LVL122:
 1000 000a 7047     		bx	lr
 1001              	.L99:
 1002              		.align	2
ARM GAS  C:\Users\mgronber\AppData\Local\Temp\cckW1w38.s 			page 29


 1003              	.L98:
 1004 000c 00000000 		.word	USB_MIDI1_InqFlags
 1005 0010 00000000 		.word	.LANCHOR0
 1006              		.cfi_endproc
 1007              	.LFE57:
 1008              		.size	USB_callbackLocalMidiEvent, .-USB_callbackLocalMidiEvent
 1009              		.global	usbActivityCounter
 1010              		.global	curKey
 1011              		.global	curScale
 1012              		.global	frame2InUse
 1013              		.global	frame1InUse
 1014              		.comm	noteTable,1024,8
 1015              		.comm	tempHyst,2,2
 1016              		.comm	pitchHz,4,4
 1017              		.global	numFrames
 1018              		.global	i
 1019              		.global	lastNote
 1020              		.comm	midiMsg,4,4
 1021              		.global	frameProcessed
 1022              		.global	sustain
 1023              		.global	frameLocked
 1024              		.global	frameReady
 1025              		.global	max_value
 1026              		.global	sampleFrame
 1027              		.global	currFrame
 1028              		.global	frameIndex
 1029              		.comm	ADCoutput,2,2
 1030              		.comm	dataFrames,2048,4
 1031              		.comm	LCDstr,10,4
 1032              		.global	inqFlags_old
 1033              		.global	csButtChange
 1034              		.global	csButtStates_old
 1035              		.global	csButtStates
 1036              		.global	noteHistory
 1037              		.global	lastVelo
 1038              		.global	lastHyst
 1039              		.global	lastScale
 1040              		.global	lastKey
 1041              		.global	UI_Update_Mask
 1042              		.global	start
 1043              		.data
 1044              		.align	2
 1045              		.set	.LANCHOR1,. + 0
 1046              		.type	lastHyst, %object
 1047              		.size	lastHyst, 2
 1048              	lastHyst:
 1049 0000 9600     		.short	150
 1050              		.type	lastVelo, %object
 1051              		.size	lastVelo, 2
 1052              	lastVelo:
 1053 0002 6400     		.short	100
 1054              		.type	start, %object
 1055              		.size	start, 4
 1056              	start:
 1057 0004 01000000 		.word	1
 1058              		.type	lastNote, %object
 1059              		.size	lastNote, 4
ARM GAS  C:\Users\mgronber\AppData\Local\Temp\cckW1w38.s 			page 30


 1060              	lastNote:
 1061 0008 FFFFFFFF 		.word	-1
 1062              		.section	.rodata.str1.4,"aMS",%progbits,1
 1063              		.align	2
 1064              	.LC0:
 1065 0000 2020202D 		.ascii	"   -HUMMINGBIRD-  \000"
 1065      48554D4D 
 1065      494E4742 
 1065      4952442D 
 1065      202000
 1066 0013 00       		.space	1
 1067              	.LC1:
 1068 0014 20202020 		.ascii	"       v0.8  \000"
 1068      20202076 
 1068      302E3820 
 1068      2000
 1069 0022 0000     		.space	2
 1070              	.LC2:
 1071 0024 48756D20 		.ascii	"Hum when ready...\000"
 1071      7768656E 
 1071      20726561 
 1071      64792E2E 
 1071      2E00
 1072 0036 0000     		.space	2
 1073              	.LC3:
 1074 0038 20202020 		.ascii	"          \000"
 1074      20202020 
 1074      202000
 1075 0043 00       		.space	1
 1076              	.LC4:
 1077 0044 48697374 		.ascii	"Hist:\000"
 1077      3A00
 1078 004a 0000     		.space	2
 1079              	.LC5:
 1080 004c 2500     		.ascii	"%\000"
 1081 004e 0000     		.space	2
 1082              	.LC6:
 1083 0050 56656C6F 		.ascii	"Velo:\000"
 1083      3A00
 1084 0056 0000     		.space	2
 1085              	.LC7:
 1086 0058 20202020 		.ascii	"      \000"
 1086      202000
 1087 005f 00       		.space	1
 1088              	.LC8:
 1089 0060 20202000 		.ascii	"   \000"
 1090              	.LC9:
 1091 0064 487A00   		.ascii	"Hz\000"
 1092 0067 00       		.bss
 1093              		.align	2
 1094              		.set	.LANCHOR0,. + 0
 1095              		.type	lastKey, %object
 1096              		.size	lastKey, 2
 1097              	lastKey:
 1098 0000 0000     		.space	2
 1099              		.type	UI_Update_Mask, %object
 1100              		.size	UI_Update_Mask, 1
ARM GAS  C:\Users\mgronber\AppData\Local\Temp\cckW1w38.s 			page 31


 1101              	UI_Update_Mask:
 1102 0002 00       		.space	1
 1103 0003 00       		.space	1
 1104              		.type	lastScale, %object
 1105              		.size	lastScale, 2
 1106              	lastScale:
 1107 0004 0000     		.space	2
 1108              		.type	currFrame, %object
 1109              		.size	currFrame, 1
 1110              	currFrame:
 1111 0006 00       		.space	1
 1112 0007 00       		.space	1
 1113              		.type	frameLocked, %object
 1114              		.size	frameLocked, 2
 1115              	frameLocked:
 1116 0008 0000     		.space	2
 1117 000a 0000     		.space	2
 1118              		.type	max_value, %object
 1119              		.size	max_value, 4
 1120              	max_value:
 1121 000c 00000000 		.space	4
 1122              		.type	frameIndex, %object
 1123              		.size	frameIndex, 2
 1124              	frameIndex:
 1125 0010 0000     		.space	2
 1126 0012 0000     		.space	2
 1127              		.type	frameReady, %object
 1128              		.size	frameReady, 2
 1129              	frameReady:
 1130 0014 0000     		.space	2
 1131              		.type	frameProcessed, %object
 1132              		.size	frameProcessed, 1
 1133              	frameProcessed:
 1134 0016 00       		.space	1
 1135              		.type	curKey, %object
 1136              		.size	curKey, 1
 1137              	curKey:
 1138 0017 00       		.space	1
 1139              		.type	curScale, %object
 1140              		.size	curScale, 1
 1141              	curScale:
 1142 0018 00       		.space	1
 1143              		.type	sampleFrame, %object
 1144              		.size	sampleFrame, 1
 1145              	sampleFrame:
 1146 0019 00       		.space	1
 1147 001a 0000     		.space	2
 1148              		.type	numFrames, %object
 1149              		.size	numFrames, 4
 1150              	numFrames:
 1151 001c 00000000 		.space	4
 1152              		.type	inqFlags_old, %object
 1153              		.size	inqFlags_old, 1
 1154              	inqFlags_old:
 1155 0020 00       		.space	1
 1156              		.type	usbActivityCounter, %object
 1157              		.size	usbActivityCounter, 1
ARM GAS  C:\Users\mgronber\AppData\Local\Temp\cckW1w38.s 			page 32


 1158              	usbActivityCounter:
 1159 0021 00       		.space	1
 1160              		.type	frame2InUse, %object
 1161              		.size	frame2InUse, 1
 1162              	frame2InUse:
 1163 0022 00       		.space	1
 1164              		.type	frame1InUse, %object
 1165              		.size	frame1InUse, 1
 1166              	frame1InUse:
 1167 0023 00       		.space	1
 1168              		.type	i, %object
 1169              		.size	i, 4
 1170              	i:
 1171 0024 00000000 		.space	4
 1172              		.type	sustain, %object
 1173              		.size	sustain, 1
 1174              	sustain:
 1175 0028 00       		.space	1
 1176              		.type	csButtChange, %object
 1177              		.size	csButtChange, 1
 1178              	csButtChange:
 1179 0029 00       		.space	1
 1180              		.type	csButtStates_old, %object
 1181              		.size	csButtStates_old, 1
 1182              	csButtStates_old:
 1183 002a 00       		.space	1
 1184              		.type	csButtStates, %object
 1185              		.size	csButtStates, 1
 1186              	csButtStates:
 1187 002b 00       		.space	1
 1188              		.type	noteHistory, %object
 1189              		.size	noteHistory, 20
 1190              	noteHistory:
 1191 002c 00000000 		.space	20
 1191      00000000 
 1191      00000000 
 1191      00000000 
 1191      00000000 
 1192              		.text
 1193              	.Letext0:
 1194              		.file 2 "c:\\program files (x86)\\cypress\\psoc creator\\4.0\\psoc creator\\import\\gnu\\arm\\4.9.
 1195              		.file 3 "c:\\program files (x86)\\cypress\\psoc creator\\4.0\\psoc creator\\import\\gnu\\arm\\4.9.
 1196              		.file 4 "Generated_Source\\PSoC5/cytypes.h"
 1197              		.file 5 "./midi.h"
 1198              		.file 6 "Generated_Source\\PSoC5/core_cm3.h"
 1199              		.file 7 "Generated_Source\\PSoC5/ADC_UI.h"
 1200              		.file 8 "Generated_Source\\PSoC5/ADC_MIC.h"
 1201              		.file 9 "Generated_Source\\PSoC5/CharLCD_I2C.h"
 1202              		.file 10 "./pitch.h"
 1203              		.file 11 "./hbird.h"
 1204              		.file 12 "Generated_Source\\PSoC5/UART_MIDITX.h"
 1205              		.file 13 "Generated_Source\\PSoC5/isr_1.h"
 1206              		.file 14 "Generated_Source\\PSoC5/UI_isr.h"
 1207              		.file 15 "Generated_Source\\PSoC5/I2C_CharLCD.h"
 1208              		.file 16 "Generated_Source\\PSoC5/TIMER_SAMPLERATE.h"
 1209              		.file 17 "Generated_Source\\PSoC5/TIMER_UI.h"
 1210              		.file 18 "Generated_Source\\PSoC5/USB.h"
ARM GAS  C:\Users\mgronber\AppData\Local\Temp\cckW1w38.s 			page 33


 1211              		.file 19 "Generated_Source\\PSoC5/CyLib.h"