ARM GAS  C:\Users\mgronber\AppData\Local\Temp\cctlx6x0.s 			page 1


   1              		.syntax unified
   2              		.cpu cortex-m3
   3              		.fpu softvfp
   4              		.eabi_attribute 20, 1
   5              		.eabi_attribute 21, 1
   6              		.eabi_attribute 23, 3
   7              		.eabi_attribute 24, 1
   8              		.eabi_attribute 25, 1
   9              		.eabi_attribute 26, 1
  10              		.eabi_attribute 30, 2
  11              		.eabi_attribute 34, 1
  12              		.eabi_attribute 18, 4
  13              		.thumb
  14              		.file	"midi.c"
  15              		.text
  16              	.Ltext0:
  17              		.cfi_sections	.debug_frame
  18              		.section	.text.GenerateMidiArray,"ax",%progbits
  19              		.align	2
  20              		.global	GenerateMidiArray
  21              		.thumb
  22              		.thumb_func
  23              		.type	GenerateMidiArray, %function
  24              	GenerateMidiArray:
  25              	.LFB56:
  26              		.file 1 "midi.c"
   1:midi.c        **** #include <math.h>
   2:midi.c        **** #include "midi.h"
   3:midi.c        **** #include <stdio.h>
   4:midi.c        **** 
   5:midi.c        **** /*******************************************************************************
   6:midi.c        **** * Function Name: GenerateMidiArray
   7:midi.c        **** ********************************************************************************
   8:midi.c        **** * Summary:
   9:midi.c        **** *  Aquires command, note, and velocity bytes and tosses them into an array (supplied by user)
  10:midi.c        **** *
  11:midi.c        **** * Parameters:
  12:midi.c        **** *  midiArray[4], cmd, note, vel
  13:midi.c        **** *
  14:midi.c        **** * Return:
  15:midi.c        **** *  None, modifies midiArray[]
  16:midi.c        **** *
  17:midi.c        **** *******************************************************************************/
  18:midi.c        **** void GenerateMidiArray(uint8 midiArray[4], uint8 cmd, uint8 note, uint8 vel)
  19:midi.c        **** {
  27              		.loc 1 19 0
  28              		.cfi_startproc
  29              		@ args = 0, pretend = 0, frame = 0
  30              		@ frame_needed = 0, uses_anonymous_args = 0
  31              		@ link register save eliminated.
  32              	.LVL0:
  20:midi.c        ****     midiArray[0]=cmd;
  33              		.loc 1 20 0
  34 0000 0170     		strb	r1, [r0]
  21:midi.c        ****     midiArray[1]=note;
  35              		.loc 1 21 0
  36 0002 4270     		strb	r2, [r0, #1]
ARM GAS  C:\Users\mgronber\AppData\Local\Temp\cctlx6x0.s 			page 2


  22:midi.c        ****     midiArray[2]=vel;
  37              		.loc 1 22 0
  38 0004 8370     		strb	r3, [r0, #2]
  39 0006 7047     		bx	lr
  40              		.cfi_endproc
  41              	.LFE56:
  42              		.size	GenerateMidiArray, .-GenerateMidiArray
  43              		.global	__aeabi_i2d
  44              		.global	__aeabi_ddiv
  45              		.global	__aeabi_dmul
  46              		.section	.text.populate_midi_array,"ax",%progbits
  47              		.align	2
  48              		.global	populate_midi_array
  49              		.thumb
  50              		.thumb_func
  51              		.type	populate_midi_array, %function
  52              	populate_midi_array:
  53              	.LFB57:
  23:midi.c        **** }
  24:midi.c        **** 
  25:midi.c        **** void populate_midi_array(double notes[MIDI_LEN])
  26:midi.c        **** {
  54              		.loc 1 26 0
  55              		.cfi_startproc
  56              		@ args = 0, pretend = 0, frame = 0
  57              		@ frame_needed = 0, uses_anonymous_args = 0
  58              	.LVL1:
  59 0000 70B5     		push	{r4, r5, r6, lr}
  60              		.cfi_def_cfa_offset 16
  61              		.cfi_offset 4, -16
  62              		.cfi_offset 5, -12
  63              		.cfi_offset 6, -8
  64              		.cfi_offset 14, -4
  65              		.loc 1 26 0
  66 0002 6FF00705 		mvn	r5, #7
  67 0006 4419     		adds	r4, r0, r5
  68 0008 00F57E76 		add	r6, r0, #1016
  69              	.LVL2:
  70              	.L3:
  27:midi.c        **** 	// Frequency of A, used as a basis for generation
  28:midi.c        **** 	int freq_a = 440;
  29:midi.c        **** 
  30:midi.c        **** 	// Shifted up 1 (- 9 changed to - 8) for unknown reasons
  31:midi.c        **** 	int i;
  32:midi.c        **** 	for (i = 0; i < 128; i++) {
  33:midi.c        **** 		notes[i] = (freq_a / 32) * pow(2.0, (i - 8) / 12.0); 
  71              		.loc 1 33 0 discriminator 3
  72 000c 2846     		mov	r0, r5
  73 000e FFF7FEFF 		bl	__aeabi_i2d
  74              	.LVL3:
  75 0012 0022     		movs	r2, #0
  76 0014 0A4B     		ldr	r3, .L7
  77 0016 FFF7FEFF 		bl	__aeabi_ddiv
  78              	.LVL4:
  79 001a 0246     		mov	r2, r0
  80 001c 0B46     		mov	r3, r1
  81 001e 0020     		movs	r0, #0
ARM GAS  C:\Users\mgronber\AppData\Local\Temp\cctlx6x0.s 			page 3


  82 0020 4FF08041 		mov	r1, #1073741824
  83 0024 FFF7FEFF 		bl	pow
  84              	.LVL5:
  85 0028 0022     		movs	r2, #0
  86 002a 064B     		ldr	r3, .L7+4
  87 002c FFF7FEFF 		bl	__aeabi_dmul
  88              	.LVL6:
  89 0030 E4E90201 		strd	r0, [r4, #8]!
  90              	.LVL7:
  32:midi.c        **** 		notes[i] = (freq_a / 32) * pow(2.0, (i - 8) / 12.0); 
  91              		.loc 1 32 0 discriminator 3
  92 0034 B442     		cmp	r4, r6
  93 0036 05F10105 		add	r5, r5, #1
  94              	.LVL8:
  95 003a E7D1     		bne	.L3
  34:midi.c        **** 	}
  35:midi.c        **** }
  96              		.loc 1 35 0
  97 003c 70BD     		pop	{r4, r5, r6, pc}
  98              	.LVL9:
  99              	.L8:
 100 003e 00BF     		.align	2
 101              	.L7:
 102 0040 00002840 		.word	1076363264
 103 0044 00002A40 		.word	1076494336
 104              		.cfi_endproc
 105              	.LFE57:
 106              		.size	populate_midi_array, .-populate_midi_array
 107              		.global	__aeabi_dadd
 108              		.global	__aeabi_d2iz
 109              		.section	.text.midi_note_from_freq,"ax",%progbits
 110              		.align	2
 111              		.global	midi_note_from_freq
 112              		.thumb
 113              		.thumb_func
 114              		.type	midi_note_from_freq, %function
 115              	midi_note_from_freq:
 116              	.LFB58:
  36:midi.c        **** 
  37:midi.c        **** int midi_note_from_freq(double freq)
  38:midi.c        **** {
 117              		.loc 1 38 0
 118              		.cfi_startproc
 119              		@ args = 0, pretend = 0, frame = 0
 120              		@ frame_needed = 0, uses_anonymous_args = 0
 121              	.LVL10:
 122 0000 08B5     		push	{r3, lr}
 123              		.cfi_def_cfa_offset 8
 124              		.cfi_offset 3, -8
 125              		.cfi_offset 14, -4
  39:midi.c        **** 	return (int)(round((69 + (12 * log(freq / 440) / log(2.0)))));
 126              		.loc 1 39 0
 127 0002 0022     		movs	r2, #0
 128 0004 0E4B     		ldr	r3, .L11+8
 129 0006 FFF7FEFF 		bl	__aeabi_ddiv
 130              	.LVL11:
 131 000a FFF7FEFF 		bl	log
ARM GAS  C:\Users\mgronber\AppData\Local\Temp\cctlx6x0.s 			page 4


 132              	.LVL12:
 133 000e 0022     		movs	r2, #0
 134 0010 0C4B     		ldr	r3, .L11+12
 135 0012 FFF7FEFF 		bl	__aeabi_dmul
 136              	.LVL13:
 137 0016 08A3     		adr	r3, .L11
 138 0018 D3E90023 		ldrd	r2, [r3]
 139 001c FFF7FEFF 		bl	__aeabi_ddiv
 140              	.LVL14:
 141 0020 0022     		movs	r2, #0
 142 0022 094B     		ldr	r3, .L11+16
 143 0024 FFF7FEFF 		bl	__aeabi_dadd
 144              	.LVL15:
 145 0028 FFF7FEFF 		bl	round
 146              	.LVL16:
 147 002c FFF7FEFF 		bl	__aeabi_d2iz
 148              	.LVL17:
  40:midi.c        **** }
 149              		.loc 1 40 0
 150 0030 08BD     		pop	{r3, pc}
 151              	.L12:
 152 0032 00BFAFF3 		.align	3
 152      0080
 153              	.L11:
 154 0038 EF39FAFE 		.word	-17155601
 155 003c 422EE63F 		.word	1072049730
 156 0040 00807B40 		.word	1081835520
 157 0044 00002840 		.word	1076363264
 158 0048 00405140 		.word	1079066624
 159              		.cfi_endproc
 160              	.LFE58:
 161              		.size	midi_note_from_freq, .-midi_note_from_freq
 162              		.global	__aeabi_f2d
 163              		.global	__aeabi_dsub
 164              		.global	__aeabi_d2f
 165              		.global	__aeabi_dcmplt
 166 004c AFF30080 		.section	.text.midi_note_changed,"ax",%progbits
 167              		.align	2
 168              		.global	midi_note_changed
 169              		.thumb
 170              		.thumb_func
 171              		.type	midi_note_changed, %function
 172              	midi_note_changed:
 173              	.LFB59:
  41:midi.c        **** 
  42:midi.c        **** int midi_note_changed(double freq, int last_midi, double notes[MIDI_LEN], float hystVal)
  43:midi.c        **** {
 174              		.loc 1 43 0
 175              		.cfi_startproc
 176              		@ args = 4, pretend = 0, frame = 0
 177              		@ frame_needed = 0, uses_anonymous_args = 0
 178              	.LVL18:
  44:midi.c        ****     if (last_midi < 1) {
 179              		.loc 1 44 0
 180 0000 002A     		cmp	r2, #0
  43:midi.c        ****     if (last_midi < 1) {
 181              		.loc 1 43 0
ARM GAS  C:\Users\mgronber\AppData\Local\Temp\cctlx6x0.s 			page 5


 182 0002 2DE9F84F 		push	{r3, r4, r5, r6, r7, r8, r9, r10, fp, lr}
 183              		.cfi_def_cfa_offset 40
 184              		.cfi_offset 3, -40
 185              		.cfi_offset 4, -36
 186              		.cfi_offset 5, -32
 187              		.cfi_offset 6, -28
 188              		.cfi_offset 7, -24
 189              		.cfi_offset 8, -20
 190              		.cfi_offset 9, -16
 191              		.cfi_offset 10, -12
 192              		.cfi_offset 11, -8
 193              		.cfi_offset 14, -4
  43:midi.c        ****     if (last_midi < 1) {
 194              		.loc 1 43 0
 195 0006 0646     		mov	r6, r0
 196 0008 0F46     		mov	r7, r1
 197 000a 1D46     		mov	r5, r3
 198              		.loc 1 44 0
 199 000c 54DD     		ble	.L17
 200 000e 7E2A     		cmp	r2, #126
 201 0010 A8BF     		it	ge
 202 0012 7E22     		movge	r2, #126
 203              	.LVL19:
 204 0014 541C     		adds	r4, r2, #1
 205 0016 E400     		lsls	r4, r4, #3
 206 0018 A4F1080B 		sub	fp, r4, #8
 207 001c A4F1100A 		sub	r10, r4, #16
 208              	.L14:
 209              	.LVL20:
  45:midi.c        ****         last_midi = 1;
  46:midi.c        ****     } else if (last_midi > 126) {
  47:midi.c        ****         last_midi = 126;
  48:midi.c        ****     }
  49:midi.c        ****     
  50:midi.c        ****     float upper = notes[last_midi] + hystVal*(notes[last_midi + 1] - notes[last_midi]);
 210              		.loc 1 50 0
 211 0020 0A98     		ldr	r0, [sp, #40]	@ float
 212              	.LVL21:
 213 0022 FFF7FEFF 		bl	__aeabi_f2d
 214              	.LVL22:
 215 0026 AB44     		add	fp, fp, r5
 216 0028 2A19     		adds	r2, r5, r4
  51:midi.c        ****     float lower = notes[last_midi] - hystVal*(notes[last_midi] - notes[last_midi - 1]);
 217              		.loc 1 51 0
 218 002a 05EB0A0E 		add	lr, r5, r10
  50:midi.c        ****     float lower = notes[last_midi] - hystVal*(notes[last_midi] - notes[last_midi - 1]);
 219              		.loc 1 50 0
 220 002e 8046     		mov	r8, r0
 221 0030 DBE90045 		ldrd	r4, [fp]
 222              		.loc 1 51 0
 223 0034 DEE900AB 		ldrd	r10, [lr]
  50:midi.c        ****     float lower = notes[last_midi] - hystVal*(notes[last_midi] - notes[last_midi - 1]);
 224              		.loc 1 50 0
 225 0038 8946     		mov	r9, r1
 226              	.LVL23:
 227 003a D2E90001 		ldrd	r0, [r2]
 228 003e 2B46     		mov	r3, r5
ARM GAS  C:\Users\mgronber\AppData\Local\Temp\cctlx6x0.s 			page 6


 229 0040 2246     		mov	r2, r4
 230 0042 FFF7FEFF 		bl	__aeabi_dsub
 231              	.LVL24:
 232 0046 0246     		mov	r2, r0
 233 0048 0B46     		mov	r3, r1
 234 004a 4046     		mov	r0, r8
 235 004c 4946     		mov	r1, r9
 236 004e FFF7FEFF 		bl	__aeabi_dmul
 237              	.LVL25:
 238 0052 0246     		mov	r2, r0
 239 0054 0B46     		mov	r3, r1
 240 0056 2046     		mov	r0, r4
 241 0058 2946     		mov	r1, r5
 242 005a FFF7FEFF 		bl	__aeabi_dadd
 243              	.LVL26:
 244 005e FFF7FEFF 		bl	__aeabi_d2f
 245              	.LVL27:
  52:midi.c        ****     
  53:midi.c        ****     return (freq > upper) || (freq < lower);
 246              		.loc 1 53 0
 247 0062 FFF7FEFF 		bl	__aeabi_f2d
 248              	.LVL28:
 249 0066 3246     		mov	r2, r6
 250 0068 3B46     		mov	r3, r7
 251 006a FFF7FEFF 		bl	__aeabi_dcmplt
 252              	.LVL29:
 253 006e 00BB     		cbnz	r0, .L18
  51:midi.c        ****     
 254              		.loc 1 51 0 discriminator 2
 255 0070 5246     		mov	r2, r10
 256 0072 5B46     		mov	r3, fp
 257 0074 2046     		mov	r0, r4
 258 0076 2946     		mov	r1, r5
 259 0078 FFF7FEFF 		bl	__aeabi_dsub
 260              	.LVL30:
 261 007c 0246     		mov	r2, r0
 262 007e 0B46     		mov	r3, r1
 263 0080 4046     		mov	r0, r8
 264 0082 4946     		mov	r1, r9
 265 0084 FFF7FEFF 		bl	__aeabi_dmul
 266              	.LVL31:
 267 0088 0246     		mov	r2, r0
 268 008a 0B46     		mov	r3, r1
 269 008c 2046     		mov	r0, r4
 270 008e 2946     		mov	r1, r5
 271 0090 FFF7FEFF 		bl	__aeabi_dsub
 272              	.LVL32:
 273 0094 FFF7FEFF 		bl	__aeabi_d2f
 274              	.LVL33:
 275              		.loc 1 53 0 discriminator 2
 276 0098 FFF7FEFF 		bl	__aeabi_f2d
 277              	.LVL34:
 278 009c 0246     		mov	r2, r0
 279 009e 0B46     		mov	r3, r1
 280 00a0 3046     		mov	r0, r6
 281 00a2 3946     		mov	r1, r7
 282 00a4 FFF7FEFF 		bl	__aeabi_dcmplt
ARM GAS  C:\Users\mgronber\AppData\Local\Temp\cctlx6x0.s 			page 7


 283              	.LVL35:
 284 00a8 0030     		adds	r0, r0, #0
 285 00aa 18BF     		it	ne
 286 00ac 0120     		movne	r0, #1
 287 00ae BDE8F88F 		pop	{r3, r4, r5, r6, r7, r8, r9, r10, fp, pc}
 288              	.LVL36:
 289              	.L18:
 290              		.loc 1 53 0 is_stmt 0
 291 00b2 0120     		movs	r0, #1
  54:midi.c        **** }
 292              		.loc 1 54 0 is_stmt 1
 293 00b4 BDE8F88F 		pop	{r3, r4, r5, r6, r7, r8, r9, r10, fp, pc}
 294              	.LVL37:
 295              	.L17:
 296 00b8 4FF0000A 		mov	r10, #0
 297 00bc 4FF0080B 		mov	fp, #8
 298 00c0 1024     		movs	r4, #16
 299 00c2 ADE7     		b	.L14
 300              		.cfi_endproc
 301              	.LFE59:
 302              		.size	midi_note_changed, .-midi_note_changed
 303              		.section	.text.midi_note_basename,"ax",%progbits
 304              		.align	2
 305              		.global	midi_note_basename
 306              		.thumb
 307              		.thumb_func
 308              		.type	midi_note_basename, %function
 309              	midi_note_basename:
 310              	.LFB60:
  55:midi.c        **** 
  56:midi.c        **** char *midi_note_basename(int note)
  57:midi.c        **** {
 311              		.loc 1 57 0
 312              		.cfi_startproc
 313              		@ args = 0, pretend = 0, frame = 0
 314              		@ frame_needed = 0, uses_anonymous_args = 0
 315              		@ link register save eliminated.
 316              	.LVL38:
  58:midi.c        **** 	if (note % 12 == 0) {
 317              		.loc 1 58 0
 318 0000 554A     		ldr	r2, .L35
  57:midi.c        **** 	if (note % 12 == 0) {
 319              		.loc 1 57 0
 320 0002 10B4     		push	{r4}
 321              		.cfi_def_cfa_offset 4
 322              		.cfi_offset 4, -4
 323              		.loc 1 58 0
 324 0004 82FB0041 		smull	r4, r1, r2, r0
 325 0008 C317     		asrs	r3, r0, #31
 326 000a C3EB6103 		rsb	r3, r3, r1, asr #1
 327 000e 03EB4303 		add	r3, r3, r3, lsl #1
 328 0012 B0EB830F 		cmp	r0, r3, lsl #2
 329 0016 00F08680 		beq	.L22
  59:midi.c        **** 		return "C";
  60:midi.c        **** 	} else if ((note - 1) % 12 == 0) {
 330              		.loc 1 60 0
 331 001a 411E     		subs	r1, r0, #1
ARM GAS  C:\Users\mgronber\AppData\Local\Temp\cctlx6x0.s 			page 8


 332 001c 82FB0134 		smull	r3, r4, r2, r1
 333 0020 CB17     		asrs	r3, r1, #31
 334 0022 C3EB6403 		rsb	r3, r3, r4, asr #1
 335 0026 03EB4303 		add	r3, r3, r3, lsl #1
 336 002a B1EB830F 		cmp	r1, r3, lsl #2
 337 002e 76D0     		beq	.L23
  61:midi.c        **** 		return "C#";
  62:midi.c        **** 	} else if ((note - 2) % 12 == 0) {
 338              		.loc 1 62 0
 339 0030 811E     		subs	r1, r0, #2
 340 0032 82FB0134 		smull	r3, r4, r2, r1
 341 0036 CB17     		asrs	r3, r1, #31
 342 0038 C3EB6403 		rsb	r3, r3, r4, asr #1
 343 003c 03EB4303 		add	r3, r3, r3, lsl #1
 344 0040 B1EB830F 		cmp	r1, r3, lsl #2
 345 0044 75D0     		beq	.L24
  63:midi.c        **** 		return "D";
  64:midi.c        **** 	} else if ((note - 3) % 12 == 0) {
 346              		.loc 1 64 0
 347 0046 C11E     		subs	r1, r0, #3
 348 0048 82FB0134 		smull	r3, r4, r2, r1
 349 004c CB17     		asrs	r3, r1, #31
 350 004e C3EB6403 		rsb	r3, r3, r4, asr #1
 351 0052 03EB4303 		add	r3, r3, r3, lsl #1
 352 0056 B1EB830F 		cmp	r1, r3, lsl #2
 353 005a 68D0     		beq	.L25
  65:midi.c        **** 		return "D#";
  66:midi.c        **** 	} else if ((note - 4) % 12 == 0) {
 354              		.loc 1 66 0
 355 005c 011F     		subs	r1, r0, #4
 356 005e 82FB0134 		smull	r3, r4, r2, r1
 357 0062 CB17     		asrs	r3, r1, #31
 358 0064 C3EB6403 		rsb	r3, r3, r4, asr #1
 359 0068 03EB4303 		add	r3, r3, r3, lsl #1
 360 006c B1EB830F 		cmp	r1, r3, lsl #2
 361 0070 63D0     		beq	.L26
  67:midi.c        **** 		return "E";
  68:midi.c        **** 	} else if ((note - 5) % 12 == 0) {
 362              		.loc 1 68 0
 363 0072 411F     		subs	r1, r0, #5
 364 0074 82FB0134 		smull	r3, r4, r2, r1
 365 0078 CB17     		asrs	r3, r1, #31
 366 007a C3EB6403 		rsb	r3, r3, r4, asr #1
 367 007e 03EB4303 		add	r3, r3, r3, lsl #1
 368 0082 B1EB830F 		cmp	r1, r3, lsl #2
 369 0086 5CD0     		beq	.L27
  69:midi.c        **** 		return "F";
  70:midi.c        **** 	} else if ((note - 6) % 12 == 0) {
 370              		.loc 1 70 0
 371 0088 811F     		subs	r1, r0, #6
 372 008a 82FB0134 		smull	r3, r4, r2, r1
 373 008e CB17     		asrs	r3, r1, #31
 374 0090 C3EB6403 		rsb	r3, r3, r4, asr #1
 375 0094 03EB4303 		add	r3, r3, r3, lsl #1
 376 0098 B1EB830F 		cmp	r1, r3, lsl #2
 377 009c 4FD0     		beq	.L28
  71:midi.c        **** 		return "F#";
ARM GAS  C:\Users\mgronber\AppData\Local\Temp\cctlx6x0.s 			page 9


  72:midi.c        **** 	} else if ((note - 7) % 12 == 0) {
 378              		.loc 1 72 0
 379 009e C11F     		subs	r1, r0, #7
 380 00a0 82FB0134 		smull	r3, r4, r2, r1
 381 00a4 CB17     		asrs	r3, r1, #31
 382 00a6 C3EB6403 		rsb	r3, r3, r4, asr #1
 383 00aa 03EB4303 		add	r3, r3, r3, lsl #1
 384 00ae B1EB830F 		cmp	r1, r3, lsl #2
 385 00b2 48D0     		beq	.L29
  73:midi.c        **** 		return "G";
  74:midi.c        **** 	} else if ((note - 8) % 12 == 0) {
 386              		.loc 1 74 0
 387 00b4 A0F10801 		sub	r1, r0, #8
 388 00b8 82FB0134 		smull	r3, r4, r2, r1
 389 00bc CB17     		asrs	r3, r1, #31
 390 00be C3EB6403 		rsb	r3, r3, r4, asr #1
 391 00c2 03EB4303 		add	r3, r3, r3, lsl #1
 392 00c6 B1EB830F 		cmp	r1, r3, lsl #2
 393 00ca 3ED0     		beq	.L30
  75:midi.c        **** 		return "G#";
  76:midi.c        **** 	} else if ((note - 9) % 12 == 0) {
 394              		.loc 1 76 0
 395 00cc A0F10901 		sub	r1, r0, #9
 396 00d0 82FB0132 		smull	r3, r2, r2, r1
 397 00d4 CB17     		asrs	r3, r1, #31
 398 00d6 C3EB6202 		rsb	r2, r3, r2, asr #1
 399 00da 02EB4202 		add	r2, r2, r2, lsl #1
 400 00de B1EB820F 		cmp	r1, r2, lsl #2
 401 00e2 34D0     		beq	.L31
  77:midi.c        **** 		return "A";
  78:midi.c        **** 	} else if ((note - 10) % 12 == 0) {
 402              		.loc 1 78 0
 403 00e4 1C49     		ldr	r1, .L35
 404 00e6 A0F10A02 		sub	r2, r0, #10
 405 00ea 81FB0234 		smull	r3, r4, r1, r2
 406 00ee D317     		asrs	r3, r2, #31
 407 00f0 C3EB6403 		rsb	r3, r3, r4, asr #1
 408 00f4 03EB4303 		add	r3, r3, r3, lsl #1
 409 00f8 B2EB830F 		cmp	r2, r3, lsl #2
 410 00fc 29D0     		beq	.L32
  79:midi.c        **** 		return "A#";
  80:midi.c        **** 	} else if ((note - 11) % 12 == 0) {
 411              		.loc 1 80 0
 412 00fe 0B38     		subs	r0, r0, #11
 413              	.LVL39:
 414 0100 81FB0031 		smull	r3, r1, r1, r0
 415 0104 C317     		asrs	r3, r0, #31
 416 0106 C3EB6103 		rsb	r3, r3, r1, asr #1
 417 010a 03EB4302 		add	r2, r3, r3, lsl #1
  81:midi.c        **** 		return "B";
  82:midi.c        **** 	}
  83:midi.c        **** 
  84:midi.c        **** 	return "";
 418              		.loc 1 84 0
 419 010e 1349     		ldr	r1, .L35+4
 420 0110 134B     		ldr	r3, .L35+8
  80:midi.c        **** 		return "B";
ARM GAS  C:\Users\mgronber\AppData\Local\Temp\cctlx6x0.s 			page 10


 421              		.loc 1 80 0
 422 0112 B0EB820F 		cmp	r0, r2, lsl #2
 423              		.loc 1 84 0
 424 0116 0CBF     		ite	eq
 425 0118 1846     		moveq	r0, r3
 426              	.LVL40:
 427 011a 0846     		movne	r0, r1
 428 011c 00E0     		b	.L21
 429              	.LVL41:
 430              	.L23:
  61:midi.c        **** 	} else if ((note - 2) % 12 == 0) {
 431              		.loc 1 61 0
 432 011e 1148     		ldr	r0, .L35+12
 433              	.LVL42:
 434              	.L21:
  85:midi.c        **** }
 435              		.loc 1 85 0
 436 0120 5DF8044B 		ldr	r4, [sp], #4
 437              		.cfi_remember_state
 438              		.cfi_restore 4
 439              		.cfi_def_cfa_offset 0
 440 0124 7047     		bx	lr
 441              	.LVL43:
 442              	.L22:
 443              		.cfi_restore_state
  59:midi.c        **** 	} else if ((note - 1) % 12 == 0) {
 444              		.loc 1 59 0
 445 0126 1048     		ldr	r0, .L35+16
 446              	.LVL44:
 447              		.loc 1 85 0
 448 0128 5DF8044B 		ldr	r4, [sp], #4
 449              		.cfi_remember_state
 450              		.cfi_restore 4
 451              		.cfi_def_cfa_offset 0
 452 012c 7047     		bx	lr
 453              	.LVL45:
 454              	.L25:
 455              		.cfi_restore_state
  65:midi.c        **** 	} else if ((note - 4) % 12 == 0) {
 456              		.loc 1 65 0
 457 012e 0F48     		ldr	r0, .L35+20
 458              	.LVL46:
 459 0130 F6E7     		b	.L21
 460              	.LVL47:
 461              	.L24:
  63:midi.c        **** 	} else if ((note - 3) % 12 == 0) {
 462              		.loc 1 63 0
 463 0132 0F48     		ldr	r0, .L35+24
 464              	.LVL48:
 465              		.loc 1 85 0
 466 0134 5DF8044B 		ldr	r4, [sp], #4
 467              		.cfi_remember_state
 468              		.cfi_restore 4
 469              		.cfi_def_cfa_offset 0
 470 0138 7047     		bx	lr
 471              	.LVL49:
 472              	.L26:
ARM GAS  C:\Users\mgronber\AppData\Local\Temp\cctlx6x0.s 			page 11


 473              		.cfi_restore_state
  67:midi.c        **** 	} else if ((note - 5) % 12 == 0) {
 474              		.loc 1 67 0
 475 013a 0E48     		ldr	r0, .L35+28
 476              	.LVL50:
 477 013c F0E7     		b	.L21
 478              	.LVL51:
 479              	.L28:
  71:midi.c        **** 	} else if ((note - 7) % 12 == 0) {
 480              		.loc 1 71 0
 481 013e 0E48     		ldr	r0, .L35+32
 482              	.LVL52:
 483 0140 EEE7     		b	.L21
 484              	.LVL53:
 485              	.L27:
  69:midi.c        **** 	} else if ((note - 6) % 12 == 0) {
 486              		.loc 1 69 0
 487 0142 0E48     		ldr	r0, .L35+36
 488              	.LVL54:
 489 0144 ECE7     		b	.L21
 490              	.LVL55:
 491              	.L29:
  73:midi.c        **** 	} else if ((note - 8) % 12 == 0) {
 492              		.loc 1 73 0
 493 0146 0E48     		ldr	r0, .L35+40
 494              	.LVL56:
 495 0148 EAE7     		b	.L21
 496              	.LVL57:
 497              	.L30:
  75:midi.c        **** 	} else if ((note - 9) % 12 == 0) {
 498              		.loc 1 75 0
 499 014a 0E48     		ldr	r0, .L35+44
 500              	.LVL58:
 501 014c E8E7     		b	.L21
 502              	.LVL59:
 503              	.L31:
  77:midi.c        **** 	} else if ((note - 10) % 12 == 0) {
 504              		.loc 1 77 0
 505 014e 0E48     		ldr	r0, .L35+48
 506              	.LVL60:
 507 0150 E6E7     		b	.L21
 508              	.LVL61:
 509              	.L32:
  79:midi.c        **** 	} else if ((note - 11) % 12 == 0) {
 510              		.loc 1 79 0
 511 0152 0E48     		ldr	r0, .L35+52
 512              	.LVL62:
 513 0154 E4E7     		b	.L21
 514              	.L36:
 515 0156 00BF     		.align	2
 516              	.L35:
 517 0158 ABAAAA2A 		.word	715827883
 518 015c 30000000 		.word	.LC12
 519 0160 2C000000 		.word	.LC11
 520 0164 04000000 		.word	.LC1
 521 0168 00000000 		.word	.LC0
 522 016c 0C000000 		.word	.LC3
ARM GAS  C:\Users\mgronber\AppData\Local\Temp\cctlx6x0.s 			page 12


 523 0170 08000000 		.word	.LC2
 524 0174 10000000 		.word	.LC4
 525 0178 18000000 		.word	.LC6
 526 017c 14000000 		.word	.LC5
 527 0180 1C000000 		.word	.LC7
 528 0184 20000000 		.word	.LC8
 529 0188 24000000 		.word	.LC9
 530 018c 28000000 		.word	.LC10
 531              		.cfi_endproc
 532              	.LFE60:
 533              		.size	midi_note_basename, .-midi_note_basename
 534              		.section	.text.midi_note_truename,"ax",%progbits
 535              		.align	2
 536              		.global	midi_note_truename
 537              		.thumb
 538              		.thumb_func
 539              		.type	midi_note_truename, %function
 540              	midi_note_truename:
 541              	.LFB61:
  86:midi.c        **** 
  87:midi.c        **** char *midi_note_truename(int note, char noteStr[3])
  88:midi.c        **** {
 542              		.loc 1 88 0
 543              		.cfi_startproc
 544              		@ args = 0, pretend = 0, frame = 0
 545              		@ frame_needed = 0, uses_anonymous_args = 0
 546              	.LVL63:
 547 0000 F8B5     		push	{r3, r4, r5, r6, r7, lr}
 548              		.cfi_def_cfa_offset 24
 549              		.cfi_offset 3, -24
 550              		.cfi_offset 4, -20
 551              		.cfi_offset 5, -16
 552              		.cfi_offset 6, -12
 553              		.cfi_offset 7, -8
 554              		.cfi_offset 14, -4
 555              		.loc 1 88 0
 556 0002 0346     		mov	r3, r0
  89:midi.c        **** 	if (note % 12 == 0) {
 557              		.loc 1 89 0
 558 0004 704C     		ldr	r4, .L64
 559 0006 C617     		asrs	r6, r0, #31
 560 0008 84FB0302 		smull	r0, r2, r4, r3
 561              	.LVL64:
 562 000c C6EB6202 		rsb	r2, r6, r2, asr #1
 563 0010 02EB4200 		add	r0, r2, r2, lsl #1
 564 0014 B3EB800F 		cmp	r3, r0, lsl #2
  88:midi.c        **** 	if (note % 12 == 0) {
 565              		.loc 1 88 0
 566 0018 0D46     		mov	r5, r1
 567              		.loc 1 89 0
 568 001a 00F08180 		beq	.L52
  90:midi.c        ****         sprintf(noteStr, "C-%d", midi_note_octave(note));
  91:midi.c        **** 		return noteStr;
  92:midi.c        **** 	} else if ((note - 1) % 12 == 0) {
 569              		.loc 1 92 0
 570 001e 581E     		subs	r0, r3, #1
 571 0020 84FB0017 		smull	r1, r7, r4, r0
ARM GAS  C:\Users\mgronber\AppData\Local\Temp\cctlx6x0.s 			page 13


 572              	.LVL65:
 573 0024 C117     		asrs	r1, r0, #31
 574 0026 C1EB6701 		rsb	r1, r1, r7, asr #1
 575 002a 01EB4101 		add	r1, r1, r1, lsl #1
 576 002e B0EB810F 		cmp	r0, r1, lsl #2
 577 0032 00F08780 		beq	.L53
  93:midi.c        **** 		sprintf(noteStr, "C#%d", midi_note_octave(note));
  94:midi.c        **** 		return noteStr;
  95:midi.c        **** 	} else if ((note - 2) % 12 == 0) {
 578              		.loc 1 95 0
 579 0036 981E     		subs	r0, r3, #2
 580 0038 84FB0017 		smull	r1, r7, r4, r0
 581 003c C117     		asrs	r1, r0, #31
 582 003e C1EB6701 		rsb	r1, r1, r7, asr #1
 583 0042 01EB4101 		add	r1, r1, r1, lsl #1
 584 0046 B0EB810F 		cmp	r0, r1, lsl #2
 585 004a 6FD0     		beq	.L54
  96:midi.c        **** 		sprintf(noteStr, "D-%d", midi_note_octave(note));
  97:midi.c        **** 		return noteStr;
  98:midi.c        **** 	} else if ((note - 3) % 12 == 0) {
 586              		.loc 1 98 0
 587 004c D81E     		subs	r0, r3, #3
 588 004e 84FB0017 		smull	r1, r7, r4, r0
 589 0052 C117     		asrs	r1, r0, #31
 590 0054 C1EB6701 		rsb	r1, r1, r7, asr #1
 591 0058 01EB4101 		add	r1, r1, r1, lsl #1
 592 005c B0EB810F 		cmp	r0, r1, lsl #2
 593 0060 76D0     		beq	.L55
  99:midi.c        **** 		sprintf(noteStr, "D#%d", midi_note_octave(note));
 100:midi.c        **** 		return noteStr;
 101:midi.c        **** 	} else if ((note - 4) % 12 == 0) {
 594              		.loc 1 101 0
 595 0062 181F     		subs	r0, r3, #4
 596 0064 84FB0017 		smull	r1, r7, r4, r0
 597 0068 C117     		asrs	r1, r0, #31
 598 006a C1EB6701 		rsb	r1, r1, r7, asr #1
 599 006e 01EB4101 		add	r1, r1, r1, lsl #1
 600 0072 B0EB810F 		cmp	r0, r1, lsl #2
 601 0076 71D0     		beq	.L56
 102:midi.c        ****         sprintf(noteStr, "E-%d", midi_note_octave(note));
 103:midi.c        **** 		return noteStr;
 104:midi.c        **** 	} else if ((note - 5) % 12 == 0) {
 602              		.loc 1 104 0
 603 0078 581F     		subs	r0, r3, #5
 604 007a 84FB0017 		smull	r1, r7, r4, r0
 605 007e C117     		asrs	r1, r0, #31
 606 0080 C1EB6701 		rsb	r1, r1, r7, asr #1
 607 0084 01EB4101 		add	r1, r1, r1, lsl #1
 608 0088 B0EB810F 		cmp	r0, r1, lsl #2
 609 008c 6CD0     		beq	.L57
 105:midi.c        ****         sprintf(noteStr, "F-%d", midi_note_octave(note));
 106:midi.c        **** 		return noteStr;
 107:midi.c        **** 	} else if ((note - 6) % 12 == 0) {
 610              		.loc 1 107 0
 611 008e 981F     		subs	r0, r3, #6
 612 0090 84FB0017 		smull	r1, r7, r4, r0
 613 0094 C117     		asrs	r1, r0, #31
ARM GAS  C:\Users\mgronber\AppData\Local\Temp\cctlx6x0.s 			page 14


 614 0096 C1EB6701 		rsb	r1, r1, r7, asr #1
 615 009a 01EB4101 		add	r1, r1, r1, lsl #1
 616 009e B0EB810F 		cmp	r0, r1, lsl #2
 617 00a2 49D0     		beq	.L58
 108:midi.c        ****         sprintf(noteStr, "F#%d", midi_note_octave(note));
 109:midi.c        **** 		return noteStr;
 110:midi.c        **** 	} else if ((note - 7) % 12 == 0) {
 618              		.loc 1 110 0
 619 00a4 D81F     		subs	r0, r3, #7
 620 00a6 84FB0017 		smull	r1, r7, r4, r0
 621 00aa C117     		asrs	r1, r0, #31
 622 00ac C1EB6701 		rsb	r1, r1, r7, asr #1
 623 00b0 01EB4101 		add	r1, r1, r1, lsl #1
 624 00b4 B0EB810F 		cmp	r0, r1, lsl #2
 625 00b8 66D0     		beq	.L59
 111:midi.c        ****         sprintf(noteStr, "G-%d", midi_note_octave(note));
 112:midi.c        **** 		return noteStr;
 113:midi.c        **** 	} else if ((note - 8) % 12 == 0) {
 626              		.loc 1 113 0
 627 00ba A3F10800 		sub	r0, r3, #8
 628 00be 84FB0017 		smull	r1, r7, r4, r0
 629 00c2 C117     		asrs	r1, r0, #31
 630 00c4 C1EB6701 		rsb	r1, r1, r7, asr #1
 631 00c8 01EB4101 		add	r1, r1, r1, lsl #1
 632 00cc B0EB810F 		cmp	r0, r1, lsl #2
 633 00d0 60D0     		beq	.L60
 114:midi.c        ****         sprintf(noteStr, "G#%d", midi_note_octave(note));
 115:midi.c        **** 		return noteStr;
 116:midi.c        **** 	} else if ((note - 9) % 12 == 0) {
 634              		.loc 1 116 0
 635 00d2 A3F10901 		sub	r1, r3, #9
 636 00d6 84FB0124 		smull	r2, r4, r4, r1
 637 00da CA17     		asrs	r2, r1, #31
 638 00dc C2EB6404 		rsb	r4, r2, r4, asr #1
 639 00e0 04EB4404 		add	r4, r4, r4, lsl #1
 640 00e4 B1EB840F 		cmp	r1, r4, lsl #2
 641              	.LBB28:
 642              	.LBB29:
 117:midi.c        ****         sprintf(noteStr, "A-%d", midi_note_octave(note));
 118:midi.c        **** 		return noteStr;
 119:midi.c        **** 	} else if ((note - 10) % 12 == 0) {
 120:midi.c        ****         sprintf(noteStr, "A#%d", midi_note_octave(note));
 121:midi.c        **** 		return noteStr;
 122:midi.c        **** 	} else if ((note - 11) % 12 == 0) {
 123:midi.c        ****         sprintf(noteStr, "B-%d", midi_note_octave(note));
 124:midi.c        **** 		return noteStr;
 125:midi.c        **** 	}
 126:midi.c        **** 	return "";
 127:midi.c        **** }
 128:midi.c        **** 
 129:midi.c        **** int midi_note_octave(int note)
 130:midi.c        **** {
 131:midi.c        **** 	return note / 12;
 643              		.loc 1 131 0
 644 00e8 374A     		ldr	r2, .L64
 645              	.LBE29:
 646              	.LBE28:
ARM GAS  C:\Users\mgronber\AppData\Local\Temp\cctlx6x0.s 			page 15


 116:midi.c        ****         sprintf(noteStr, "A-%d", midi_note_octave(note));
 647              		.loc 1 116 0
 648 00ea 59D0     		beq	.L61
 119:midi.c        ****         sprintf(noteStr, "A#%d", midi_note_octave(note));
 649              		.loc 1 119 0
 650 00ec A3F10A00 		sub	r0, r3, #10
 651 00f0 82FB0014 		smull	r1, r4, r2, r0
 652 00f4 C117     		asrs	r1, r0, #31
 653 00f6 C1EB6401 		rsb	r1, r1, r4, asr #1
 654 00fa 01EB4101 		add	r1, r1, r1, lsl #1
 655 00fe B0EB810F 		cmp	r0, r1, lsl #2
 656 0102 57D0     		beq	.L62
 122:midi.c        ****         sprintf(noteStr, "B-%d", midi_note_octave(note));
 657              		.loc 1 122 0
 658 0104 A3F10B00 		sub	r0, r3, #11
 659 0108 82FB0014 		smull	r1, r4, r2, r0
 660 010c C117     		asrs	r1, r0, #31
 661 010e C1EB6401 		rsb	r1, r1, r4, asr #1
 662 0112 01EB4101 		add	r1, r1, r1, lsl #1
 663 0116 B0EB810F 		cmp	r0, r1, lsl #2
 664 011a 2BD0     		beq	.L63
 126:midi.c        **** }
 665              		.loc 1 126 0
 666 011c 2B48     		ldr	r0, .L64+4
 127:midi.c        **** 
 667              		.loc 1 127 0
 668 011e F8BD     		pop	{r3, r4, r5, r6, r7, pc}
 669              	.LVL66:
 670              	.L52:
  90:midi.c        **** 		return noteStr;
 671              		.loc 1 90 0
 672 0120 0846     		mov	r0, r1
 673 0122 2B49     		ldr	r1, .L64+8
 674              	.LVL67:
 675 0124 FFF7FEFF 		bl	sprintf
 676              	.LVL68:
  91:midi.c        **** 	} else if ((note - 1) % 12 == 0) {
 677              		.loc 1 91 0
 678 0128 2846     		mov	r0, r5
 679 012a F8BD     		pop	{r3, r4, r5, r6, r7, pc}
 680              	.LVL69:
 681              	.L54:
  96:midi.c        **** 		return noteStr;
 682              		.loc 1 96 0
 683 012c 2846     		mov	r0, r5
 684 012e 2949     		ldr	r1, .L64+12
 685 0130 FFF7FEFF 		bl	sprintf
 686              	.LVL70:
  97:midi.c        **** 	} else if ((note - 3) % 12 == 0) {
 687              		.loc 1 97 0
 688 0134 2846     		mov	r0, r5
 689 0136 F8BD     		pop	{r3, r4, r5, r6, r7, pc}
 690              	.LVL71:
 691              	.L58:
 108:midi.c        **** 		return noteStr;
 692              		.loc 1 108 0
 693 0138 2846     		mov	r0, r5
ARM GAS  C:\Users\mgronber\AppData\Local\Temp\cctlx6x0.s 			page 16


 694 013a 2749     		ldr	r1, .L64+16
 695 013c FFF7FEFF 		bl	sprintf
 696              	.LVL72:
 109:midi.c        **** 	} else if ((note - 7) % 12 == 0) {
 697              		.loc 1 109 0
 698 0140 2846     		mov	r0, r5
 699 0142 F8BD     		pop	{r3, r4, r5, r6, r7, pc}
 700              	.LVL73:
 701              	.L53:
  93:midi.c        **** 		return noteStr;
 702              		.loc 1 93 0
 703 0144 2846     		mov	r0, r5
 704 0146 2549     		ldr	r1, .L64+20
 705 0148 FFF7FEFF 		bl	sprintf
 706              	.LVL74:
  94:midi.c        **** 	} else if ((note - 2) % 12 == 0) {
 707              		.loc 1 94 0
 708 014c 2846     		mov	r0, r5
 709 014e F8BD     		pop	{r3, r4, r5, r6, r7, pc}
 710              	.LVL75:
 711              	.L55:
  99:midi.c        **** 		return noteStr;
 712              		.loc 1 99 0
 713 0150 2846     		mov	r0, r5
 714 0152 2349     		ldr	r1, .L64+24
 715 0154 FFF7FEFF 		bl	sprintf
 716              	.LVL76:
 100:midi.c        **** 	} else if ((note - 4) % 12 == 0) {
 717              		.loc 1 100 0
 718 0158 2846     		mov	r0, r5
 719 015a F8BD     		pop	{r3, r4, r5, r6, r7, pc}
 720              	.LVL77:
 721              	.L56:
 102:midi.c        **** 		return noteStr;
 722              		.loc 1 102 0
 723 015c 2846     		mov	r0, r5
 724 015e 2149     		ldr	r1, .L64+28
 725 0160 FFF7FEFF 		bl	sprintf
 726              	.LVL78:
 103:midi.c        **** 	} else if ((note - 5) % 12 == 0) {
 727              		.loc 1 103 0
 728 0164 2846     		mov	r0, r5
 729 0166 F8BD     		pop	{r3, r4, r5, r6, r7, pc}
 730              	.LVL79:
 731              	.L57:
 105:midi.c        **** 		return noteStr;
 732              		.loc 1 105 0
 733 0168 2846     		mov	r0, r5
 734 016a 1F49     		ldr	r1, .L64+32
 735 016c FFF7FEFF 		bl	sprintf
 736              	.LVL80:
 106:midi.c        **** 	} else if ((note - 6) % 12 == 0) {
 737              		.loc 1 106 0
 738 0170 2846     		mov	r0, r5
 739 0172 F8BD     		pop	{r3, r4, r5, r6, r7, pc}
 740              	.LVL81:
 741              	.L63:
ARM GAS  C:\Users\mgronber\AppData\Local\Temp\cctlx6x0.s 			page 17


 742              	.LBB31:
 743              	.LBB32:
 744              		.loc 1 131 0
 745 0174 82FB0332 		smull	r3, r2, r2, r3
 746              	.LVL82:
 747              	.LBE32:
 748              	.LBE31:
 123:midi.c        **** 		return noteStr;
 749              		.loc 1 123 0
 750 0178 2846     		mov	r0, r5
 751              	.LVL83:
 752 017a C6EB6202 		rsb	r2, r6, r2, asr #1
 753 017e 1B49     		ldr	r1, .L64+36
 754 0180 FFF7FEFF 		bl	sprintf
 755              	.LVL84:
 124:midi.c        **** 	}
 756              		.loc 1 124 0
 757 0184 2846     		mov	r0, r5
 758 0186 F8BD     		pop	{r3, r4, r5, r6, r7, pc}
 759              	.LVL85:
 760              	.L59:
 111:midi.c        **** 		return noteStr;
 761              		.loc 1 111 0
 762 0188 2846     		mov	r0, r5
 763 018a 1949     		ldr	r1, .L64+40
 764 018c FFF7FEFF 		bl	sprintf
 765              	.LVL86:
 112:midi.c        **** 	} else if ((note - 8) % 12 == 0) {
 766              		.loc 1 112 0
 767 0190 2846     		mov	r0, r5
 768 0192 F8BD     		pop	{r3, r4, r5, r6, r7, pc}
 769              	.LVL87:
 770              	.L60:
 114:midi.c        **** 		return noteStr;
 771              		.loc 1 114 0
 772 0194 2846     		mov	r0, r5
 773 0196 1749     		ldr	r1, .L64+44
 774 0198 FFF7FEFF 		bl	sprintf
 775              	.LVL88:
 115:midi.c        **** 	} else if ((note - 9) % 12 == 0) {
 776              		.loc 1 115 0
 777 019c 2846     		mov	r0, r5
 778 019e F8BD     		pop	{r3, r4, r5, r6, r7, pc}
 779              	.LVL89:
 780              	.L61:
 781              	.LBB33:
 782              	.LBB30:
 783              		.loc 1 131 0
 784 01a0 82FB0332 		smull	r3, r2, r2, r3
 785              	.LVL90:
 786              	.LBE30:
 787              	.LBE33:
 117:midi.c        **** 		return noteStr;
 788              		.loc 1 117 0
 789 01a4 2846     		mov	r0, r5
 790 01a6 1449     		ldr	r1, .L64+48
 791              	.LVL91:
ARM GAS  C:\Users\mgronber\AppData\Local\Temp\cctlx6x0.s 			page 18


 792 01a8 C6EB6202 		rsb	r2, r6, r2, asr #1
 793 01ac FFF7FEFF 		bl	sprintf
 794              	.LVL92:
 118:midi.c        **** 	} else if ((note - 10) % 12 == 0) {
 795              		.loc 1 118 0
 796 01b0 2846     		mov	r0, r5
 797 01b2 F8BD     		pop	{r3, r4, r5, r6, r7, pc}
 798              	.LVL93:
 799              	.L62:
 800              	.LBB34:
 801              	.LBB35:
 802              		.loc 1 131 0
 803 01b4 82FB0332 		smull	r3, r2, r2, r3
 804              	.LVL94:
 805              	.LBE35:
 806              	.LBE34:
 120:midi.c        **** 		return noteStr;
 807              		.loc 1 120 0
 808 01b8 2846     		mov	r0, r5
 809              	.LVL95:
 810 01ba C6EB6202 		rsb	r2, r6, r2, asr #1
 811 01be 0F49     		ldr	r1, .L64+52
 812 01c0 FFF7FEFF 		bl	sprintf
 813              	.LVL96:
 121:midi.c        **** 	} else if ((note - 11) % 12 == 0) {
 814              		.loc 1 121 0
 815 01c4 2846     		mov	r0, r5
 816 01c6 F8BD     		pop	{r3, r4, r5, r6, r7, pc}
 817              	.LVL97:
 818              	.L65:
 819              		.align	2
 820              	.L64:
 821 01c8 ABAAAA2A 		.word	715827883
 822 01cc 30000000 		.word	.LC12
 823 01d0 34000000 		.word	.LC13
 824 01d4 44000000 		.word	.LC15
 825 01d8 64000000 		.word	.LC19
 826 01dc 3C000000 		.word	.LC14
 827 01e0 4C000000 		.word	.LC16
 828 01e4 54000000 		.word	.LC17
 829 01e8 5C000000 		.word	.LC18
 830 01ec 8C000000 		.word	.LC24
 831 01f0 6C000000 		.word	.LC20
 832 01f4 74000000 		.word	.LC21
 833 01f8 7C000000 		.word	.LC22
 834 01fc 84000000 		.word	.LC23
 835              		.cfi_endproc
 836              	.LFE61:
 837              		.size	midi_note_truename, .-midi_note_truename
 838              		.section	.text.midi_note_octave,"ax",%progbits
 839              		.align	2
 840              		.global	midi_note_octave
 841              		.thumb
 842              		.thumb_func
 843              		.type	midi_note_octave, %function
 844              	midi_note_octave:
 845              	.LFB62:
ARM GAS  C:\Users\mgronber\AppData\Local\Temp\cctlx6x0.s 			page 19


 130:midi.c        **** 	return note / 12;
 846              		.loc 1 130 0
 847              		.cfi_startproc
 848              		@ args = 0, pretend = 0, frame = 0
 849              		@ frame_needed = 0, uses_anonymous_args = 0
 850              		@ link register save eliminated.
 851              	.LVL98:
 852              		.loc 1 131 0
 853 0000 034A     		ldr	r2, .L67
 854 0002 C317     		asrs	r3, r0, #31
 855 0004 82FB0020 		smull	r2, r0, r2, r0
 856              	.LVL99:
 132:midi.c        **** }
 857              		.loc 1 132 0
 858 0008 C3EB6000 		rsb	r0, r3, r0, asr #1
 859 000c 7047     		bx	lr
 860              	.L68:
 861 000e 00BF     		.align	2
 862              	.L67:
 863 0010 ABAAAA2A 		.word	715827883
 864              		.cfi_endproc
 865              	.LFE62:
 866              		.size	midi_note_octave, .-midi_note_octave
 867              		.section	.text.midi_note_shift_octave,"ax",%progbits
 868              		.align	2
 869              		.global	midi_note_shift_octave
 870              		.thumb
 871              		.thumb_func
 872              		.type	midi_note_shift_octave, %function
 873              	midi_note_shift_octave:
 874              	.LFB63:
 133:midi.c        **** 
 134:midi.c        **** int midi_note_shift_octave(int note, int new_octave)
 135:midi.c        **** {
 875              		.loc 1 135 0
 876              		.cfi_startproc
 877              		@ args = 0, pretend = 0, frame = 0
 878              		@ frame_needed = 0, uses_anonymous_args = 0
 879              	.LVL100:
 880              	.LBB36:
 881              	.LBB37:
 131:midi.c        **** }
 882              		.loc 1 131 0
 883 0000 074B     		ldr	r3, .L73
 884              	.LBE37:
 885              	.LBE36:
 886              		.loc 1 135 0
 887 0002 00B5     		push	{lr}
 888              		.cfi_def_cfa_offset 4
 889              		.cfi_offset 14, -4
 890              	.LBB39:
 891              	.LBB38:
 131:midi.c        **** }
 892              		.loc 1 131 0
 893 0004 83FB00E3 		smull	lr, r3, r3, r0
 894 0008 C217     		asrs	r2, r0, #31
 895 000a C2EB6303 		rsb	r3, r2, r3, asr #1
ARM GAS  C:\Users\mgronber\AppData\Local\Temp\cctlx6x0.s 			page 20


 896              	.LBE38:
 897              	.LBE39:
 136:midi.c        **** 	int oct = midi_note_octave(note);
 137:midi.c        **** 	if (oct == new_octave) return note;
 898              		.loc 1 137 0
 899 000e 9942     		cmp	r1, r3
 900 0010 04D0     		beq	.L70
 138:midi.c        **** 	return note - (12 * (oct - new_octave));
 901              		.loc 1 138 0
 902 0012 C91A     		subs	r1, r1, r3
 903              	.LVL101:
 904 0014 01EB4101 		add	r1, r1, r1, lsl #1
 905 0018 00EB8100 		add	r0, r0, r1, lsl #2
 906              	.LVL102:
 907              	.L70:
 139:midi.c        **** }
 908              		.loc 1 139 0
 909 001c 5DF804FB 		ldr	pc, [sp], #4
 910              	.L74:
 911              		.align	2
 912              	.L73:
 913 0020 ABAAAA2A 		.word	715827883
 914              		.cfi_endproc
 915              	.LFE63:
 916              		.size	midi_note_shift_octave, .-midi_note_shift_octave
 917              		.global	__aeabi_i2f
 918              		.global	__aeabi_f2iz
 919              		.global	__aeabi_dcmpgt
 920              		.global	__aeabi_fcmplt
 921              		.section	.text.NoteSnap,"ax",%progbits
 922              		.align	2
 923              		.global	NoteSnap
 924              		.thumb
 925              		.thumb_func
 926              		.type	NoteSnap, %function
 927              	NoteSnap:
 928              	.LFB64:
 140:midi.c        **** // REVISIONS:
 141:midi.c        **** //  Trying to implement this design: freq<freqtable[key+startOctave+scale[i]]
 142:midi.c        **** int scaleMajor[29]=    { 0, 2, 4, 5, 7, 9,11,        // first octave
 143:midi.c        ****                         12,14,16,17,19,21,23,        // second octave
 144:midi.c        ****                         24,26,28,29,31,33,35,        // third octave
 145:midi.c        ****                         36,38,40,41,43,45,47,        // forth octave
 146:midi.c        ****                         48};
 147:midi.c        **** int scaleNatMinor[29]=
 148:midi.c        ****                      { 0, 2, 3, 5, 7, 8,10,         // first octave
 149:midi.c        ****                       12,14,15,17,19,20,22,        // second octave
 150:midi.c        ****                       24,26,27,29,31,32,34,        // third octave
 151:midi.c        ****                       36,38,39,41,43,44,46,        // forth octave
 152:midi.c        ****                       48};
 153:midi.c        **** #if 1
 154:midi.c        **** int NoteSnap(double freqTable[MIDI_LEN], float freq, enum MusicKey key, enum MusicScale scale)
 155:midi.c        **** {  
 929              		.loc 1 155 0
 930              		.cfi_startproc
 931              		@ args = 0, pretend = 0, frame = 16
 932              		@ frame_needed = 0, uses_anonymous_args = 0
ARM GAS  C:\Users\mgronber\AppData\Local\Temp\cctlx6x0.s 			page 21


 933              	.LVL103:
 156:midi.c        ****     if(key<0 || key>=127){
 934              		.loc 1 156 0
 935 0000 7E2A     		cmp	r2, #126
 936 0002 00F20B82 		bhi	.L173
 155:midi.c        ****     if(key<0 || key>=127){
 937              		.loc 1 155 0
 938 0006 2DE9F04F 		push	{r4, r5, r6, r7, r8, r9, r10, fp, lr}
 939              		.cfi_def_cfa_offset 36
 940              		.cfi_offset 4, -36
 941              		.cfi_offset 5, -32
 942              		.cfi_offset 6, -28
 943              		.cfi_offset 7, -24
 944              		.cfi_offset 8, -20
 945              		.cfi_offset 9, -16
 946              		.cfi_offset 10, -12
 947              		.cfi_offset 11, -8
 948              		.cfi_offset 14, -4
 949 000a 0646     		mov	r6, r0
 950 000c 85B0     		sub	sp, sp, #20
 951              		.cfi_def_cfa_offset 56
 157:midi.c        ****         return -1;
 158:midi.c        ****     }
 159:midi.c        ****     
 160:midi.c        ****     
 161:midi.c        ****     int i = key;    // Scrolls through our scale to find the proper note
 162:midi.c        ****     int note, prevNote;       // Our output, and temporary variable for storing the current MIDI no
 163:midi.c        ****     float lb,up; // lower and upper bounds for computing the rounded freq
 164:midi.c        **** 
 165:midi.c        **** 
 166:midi.c        ****     // error out for freq < keying point
 167:midi.c        ****     if(freq<freqTable[i]) {
 952              		.loc 1 167 0
 953 000e 0846     		mov	r0, r1
 954              	.LVL104:
 955 0010 D500     		lsls	r5, r2, #3
 956 0012 9846     		mov	r8, r3
 957 0014 1446     		mov	r4, r2
 958 0016 FFF7FEFF 		bl	__aeabi_f2d
 959              	.LVL105:
 960 001a 7719     		adds	r7, r6, r5
 961 001c D7E90023 		ldrd	r2, [r7]
 962              	.LVL106:
 963 0020 8246     		mov	r10, r0
 964 0022 8B46     		mov	fp, r1
 965 0024 FFF7FEFF 		bl	__aeabi_dcmplt
 966              	.LVL107:
 967 0028 0028     		cmp	r0, #0
 968 002a 34D1     		bne	.L259
 168:midi.c        ****             return -1;
 169:midi.c        ****     } 
 170:midi.c        **** 
 171:midi.c        ****     if (scale == CHROMATIC) {
 969              		.loc 1 171 0
 970 002c B8F1060F 		cmp	r8, #6
 971 0030 00F04C81 		beq	.L284
 172:midi.c        ****         return (float)midi_note_from_freq(freq);
ARM GAS  C:\Users\mgronber\AppData\Local\Temp\cctlx6x0.s 			page 22


 173:midi.c        ****     }
 174:midi.c        ****     
 175:midi.c        ****     // Major scale
 176:midi.c        ****     if(scale==MAJOR){
 972              		.loc 1 176 0
 973 0034 B8F1000F 		cmp	r8, #0
 974 0038 32D1     		bne	.L78
 177:midi.c        ****         while(i<50)     //cycles through all the notes in the major scale
 975              		.loc 1 177 0
 976 003a 312C     		cmp	r4, #49
 977 003c 2BD8     		bhi	.L259
 178:midi.c        ****         {
 179:midi.c        ****             note = key + 24 + scaleMajor[i];        // The current MIDI note is the key+octave scal
 978              		.loc 1 179 0
 979 003e AC4B     		ldr	r3, .L308
 980 0040 04F11802 		add	r2, r4, #24
 981 0044 53F82450 		ldr	r5, [r3, r4, lsl #2]
 982 0048 0293     		str	r3, [sp, #8]
 983 004a 1544     		add	r5, r5, r2
 984              	.LVL108:
 180:midi.c        ****             if(freq<freqTable[note]){               // When freq<note, we've found a note with a fr
 985              		.loc 1 180 0
 986 004c 06EBC503 		add	r3, r6, r5, lsl #3
 987 0050 D3E90089 		ldrd	r8, [r3]
 179:midi.c        ****             if(freq<freqTable[note]){               // When freq<note, we've found a note with a fr
 988              		.loc 1 179 0
 989 0054 0092     		str	r2, [sp]
 990              		.loc 1 180 0
 991 0056 5046     		mov	r0, r10
 992 0058 5946     		mov	r1, fp
 993 005a 4246     		mov	r2, r8
 994 005c 4B46     		mov	r3, r9
 995 005e FFF7FEFF 		bl	__aeabi_dcmplt
 996              	.LVL109:
 997 0062 0028     		cmp	r0, #0
 998 0064 40F08A80 		bne	.L79
 999 0068 029B     		ldr	r3, [sp, #8]
 1000 006a 03EB8407 		add	r7, r3, r4, lsl #2
 1001 006e 0FE0     		b	.L81
 1002              	.L83:
 179:midi.c        ****             if(freq<freqTable[note]){               // When freq<note, we've found a note with a fr
 1003              		.loc 1 179 0
 1004 0070 009B     		ldr	r3, [sp]
 1005 0072 57F8045F 		ldr	r5, [r7, #4]!
 1006              	.LVL110:
 1007              		.loc 1 180 0
 1008 0076 5046     		mov	r0, r10
 179:midi.c        ****             if(freq<freqTable[note]){               // When freq<note, we've found a note with a fr
 1009              		.loc 1 179 0
 1010 0078 1D44     		add	r5, r5, r3
 1011              	.LVL111:
 1012              		.loc 1 180 0
 1013 007a 06EBC503 		add	r3, r6, r5, lsl #3
 1014 007e D3E90089 		ldrd	r8, [r3]
 1015 0082 5946     		mov	r1, fp
 1016 0084 4246     		mov	r2, r8
 1017 0086 4B46     		mov	r3, r9
ARM GAS  C:\Users\mgronber\AppData\Local\Temp\cctlx6x0.s 			page 23


 1018 0088 FFF7FEFF 		bl	__aeabi_dcmplt
 1019              	.LVL112:
 1020 008c 0028     		cmp	r0, #0
 1021 008e 75D1     		bne	.L79
 1022              	.L81:
 181:midi.c        ****                 prevNote = key + 24 + scaleMajor[i-1]; //Find the previous note, then compare which
 182:midi.c        ****                 if(freqTable[note]-freq > freq-freqTable[prevNote]){
 183:midi.c        ****                     return prevNote;                // If our input is closer to the previous note,
 184:midi.c        ****                 }
 185:midi.c        ****                 else{
 186:midi.c        ****                     return note;                    // If our input is closer to the current note, 
 187:midi.c        ****                 }      
 188:midi.c        ****             }
 189:midi.c        ****             i++;
 1023              		.loc 1 189 0
 1024 0090 0134     		adds	r4, r4, #1
 1025              	.LVL113:
 177:midi.c        ****         {
 1026              		.loc 1 177 0
 1027 0092 322C     		cmp	r4, #50
 1028 0094 ECD1     		bne	.L83
 1029              	.LVL114:
 1030              	.L259:
 157:midi.c        ****     }
 1031              		.loc 1 157 0
 1032 0096 4FF0FF30 		mov	r0, #-1
 1033              	.L76:
 190:midi.c        ****             
 191:midi.c        ****         }
 192:midi.c        ****     }
 193:midi.c        **** 
 194:midi.c        **** 
 195:midi.c        ****     // Increment Minor scale
 196:midi.c        ****     else if(scale==NATURAL_MINOR) {        
 197:midi.c        ****         {
 198:midi.c        ****             while(i<50)     //cycles through all the notes in the major scale
 199:midi.c        ****             {
 200:midi.c        ****                 note = key + 24 + scaleNatMinor[i];        // The current MIDI note is the key+octa
 201:midi.c        ****                 if(freq<freqTable[note]){               // When freq<note, we've found a note with 
 202:midi.c        ****                     prevNote = key + 24 + scaleNatMinor[i-1]; //Find the previous note, then compar
 203:midi.c        ****                     if(freqTable[note]-freq > freq-freqTable[prevNote]){
 204:midi.c        ****                         return prevNote;                // If our input is closer to the previous n
 205:midi.c        ****                     }
 206:midi.c        ****                     else{
 207:midi.c        ****                         return note;                    // If our input is closer to the current no
 208:midi.c        ****                     }      
 209:midi.c        ****                 }
 210:midi.c        ****                 i++;
 211:midi.c        ****                 
 212:midi.c        ****             }
 213:midi.c        ****         }
 214:midi.c        ****     }
 215:midi.c        ****           // End of minor
 216:midi.c        **** 
 217:midi.c        **** 
 218:midi.c        ****     // increment major pentatonic scale
 219:midi.c        ****     else if(scale==MAJOR_PENT) {
ARM GAS  C:\Users\mgronber\AppData\Local\Temp\cctlx6x0.s 			page 24


 220:midi.c        ****             while(freq > freqTable[i] && i<127) {        //C
 221:midi.c        ****                     i=i+2;        // D 
 222:midi.c        ****                     if(freq<freqTable[i]) {
 223:midi.c        ****                         lb= freq - freqTable[i-2];
 224:midi.c        ****                         up= freqTable[i] - freq;
 225:midi.c        ****                                if(lb<up){
 226:midi.c        ****                                        return freqTable[i-2];
 227:midi.c        ****                                } 
 228:midi.c        ****                                return freqTable[i];
 229:midi.c        ****                        }
 230:midi.c        ****                        i=i+2;        // E
 231:midi.c        ****                        if(freq<freqTable[i]) {
 232:midi.c        ****                         lb= freq - freqTable[i-2];
 233:midi.c        ****                         up= freqTable[i] - freq;
 234:midi.c        ****                                if(lb<up){
 235:midi.c        ****                                        return freqTable[i-2];
 236:midi.c        ****                                } 
 237:midi.c        ****                                return freqTable[i];
 238:midi.c        ****                        }
 239:midi.c        ****                        i=i+3;        //G
 240:midi.c        ****                        if(freq<freqTable[i]) {
 241:midi.c        ****                         lb= freq - freqTable[i-3];
 242:midi.c        ****                         up= freqTable[i] - freq;
 243:midi.c        ****                                if(lb<up){
 244:midi.c        ****                                        return freqTable[i-3];
 245:midi.c        ****                                } 
 246:midi.c        ****                                return freqTable[i];
 247:midi.c        ****                        }
 248:midi.c        ****                        i=i+2;        //A
 249:midi.c        ****                        if(freq<freqTable[i]) {
 250:midi.c        ****                         lb= freq - freqTable[i-2];
 251:midi.c        ****                         up= freqTable[i] - freq;
 252:midi.c        ****                                if(lb<up){
 253:midi.c        ****                                        return freqTable[i-2];
 254:midi.c        ****                                } 
 255:midi.c        ****                                return freqTable[i];
 256:midi.c        ****                        }
 257:midi.c        ****                        i=i+3;        // C
 258:midi.c        ****                        if(freq<freqTable[i]) {
 259:midi.c        ****                         lb= freq - freqTable[i-3];
 260:midi.c        ****                         up= freqTable[i] - freq;
 261:midi.c        ****                                if(lb<up){
 262:midi.c        ****                                        return freqTable[i-3];
 263:midi.c        ****                                } 
 264:midi.c        ****                                return freqTable[i];
 265:midi.c        ****                        }
 266:midi.c        ****             }
 267:midi.c        ****     }        // end of major p
 268:midi.c        **** 
 269:midi.c        **** 
 270:midi.c        ****     // Minor Pentatonic scale
 271:midi.c        ****     else if(scale==MINOR_PENT) { 
 272:midi.c        ****             while(freq > freqTable[i] && i<127) {        // C
 273:midi.c        ****                     i=i+3;        //Eb
 274:midi.c        ****                     if(freq<freqTable[i]) {
 275:midi.c        ****                         lb= freq - freqTable[i-3];
 276:midi.c        ****                         up= freqTable[i] - freq;
ARM GAS  C:\Users\mgronber\AppData\Local\Temp\cctlx6x0.s 			page 25


 277:midi.c        ****                                if(lb<up){
 278:midi.c        ****                                        return freqTable[i-3];
 279:midi.c        ****                                } 
 280:midi.c        ****                                return freqTable[i];
 281:midi.c        ****                        }
 282:midi.c        ****                        i=i+2;        //F
 283:midi.c        ****                        if(freq<freqTable[i]) {
 284:midi.c        ****                         lb= freq - freqTable[i-2];
 285:midi.c        ****                         up= freqTable[i] - freq;
 286:midi.c        ****                                if(lb<up){
 287:midi.c        ****                                        return freqTable[i-2];
 288:midi.c        ****                                } 
 289:midi.c        ****                                return freqTable[i];
 290:midi.c        ****                        }
 291:midi.c        ****                        i=i+2;        //G
 292:midi.c        ****                        if(freq<freqTable[i]) {
 293:midi.c        ****                         lb= freq - freqTable[i-2];
 294:midi.c        ****                         up= freqTable[i] - freq;
 295:midi.c        ****                                if(lb<up){
 296:midi.c        ****                                        return freqTable[i-2];
 297:midi.c        ****                                } 
 298:midi.c        ****                                return freqTable[i];
 299:midi.c        ****                        }
 300:midi.c        ****                        i=i+3;        //Bb
 301:midi.c        ****                        if(freq<freqTable[i]) {
 302:midi.c        ****                         lb= freq - freqTable[i-3];
 303:midi.c        ****                         up= freqTable[i] - freq;
 304:midi.c        ****                                if(lb<up){
 305:midi.c        ****                                        return freqTable[i-3];
 306:midi.c        ****                                } 
 307:midi.c        ****                                return freqTable[i];
 308:midi.c        ****                        }
 309:midi.c        ****                        i=i+2;        // back at C
 310:midi.c        ****                        if(freq<freqTable[i]) {
 311:midi.c        ****                         lb= freq - freqTable[i-2];
 312:midi.c        ****                         up= freqTable[i] - freq;
 313:midi.c        ****                                if(lb<up){
 314:midi.c        ****                                        return freqTable[i-2];
 315:midi.c        ****                                } 
 316:midi.c        ****                                return freqTable[i];
 317:midi.c        ****                        }
 318:midi.c        ****             }
 319:midi.c        ****     }        // end of minor pentatonic scale
 320:midi.c        **** 
 321:midi.c        **** 
 322:midi.c        ****     // Whole tone scale
 323:midi.c        ****     else if(scale==WHOLE_TONE) {
 324:midi.c        ****             while(freq > freqTable[i] && i<127) {
 325:midi.c        ****                     i=i+2;
 326:midi.c        ****                     if(freq<freqTable[i]) {
 327:midi.c        ****                         lb= freq - freqTable[i-2];
 328:midi.c        ****                         up= freqTable[i] - freq;
 329:midi.c        ****                                if(lb<up){
 330:midi.c        ****                                        return freqTable[i-2];
 331:midi.c        ****                                } 
 332:midi.c        ****                                return freqTable[i];
 333:midi.c        ****                        }
ARM GAS  C:\Users\mgronber\AppData\Local\Temp\cctlx6x0.s 			page 26


 334:midi.c        ****             }
 335:midi.c        ****     }
 336:midi.c        **** 
 337:midi.c        **** 
 338:midi.c        ****     // Blues scale
 339:midi.c        ****     else if(scale==BLUES) {
 340:midi.c        ****             while(freq > freqTable[i] && i<127) {        //C
 341:midi.c        ****                     i=i+3;        //Eb
 342:midi.c        ****                     if(freq<freqTable[i]) {
 343:midi.c        ****                         lb= freq - freqTable[i-3];
 344:midi.c        ****                         up= freqTable[i] - freq;
 345:midi.c        ****                                if(lb<up){
 346:midi.c        ****                                        return freqTable[i-3];
 347:midi.c        ****                                } 
 348:midi.c        ****                                return freqTable[i];
 349:midi.c        ****                        }
 350:midi.c        ****                        i=i+2;        //F
 351:midi.c        ****                        if(freq<freqTable[i]) {
 352:midi.c        ****                         lb= freq - freqTable[i-2];
 353:midi.c        ****                         up= freqTable[i] - freq;
 354:midi.c        ****                                if(lb<up){
 355:midi.c        ****                                        return freqTable[i-2];
 356:midi.c        ****                                } 
 357:midi.c        ****                                return freqTable[i];
 358:midi.c        ****                        }
 359:midi.c        ****                        i++;        //Gb
 360:midi.c        ****                        if(freq<freqTable[i]) {
 361:midi.c        ****                         lb= freq - freqTable[i-1];
 362:midi.c        ****                         up= freqTable[i] - freq;
 363:midi.c        ****                                if(lb<up){
 364:midi.c        ****                                        return freqTable[i-1];
 365:midi.c        ****                                } 
 366:midi.c        ****                                return freqTable[i];
 367:midi.c        ****                        }
 368:midi.c        ****                        i++;        //G
 369:midi.c        ****                        if(freq<freqTable[i]) {
 370:midi.c        ****                         lb= freq - freqTable[i-1];
 371:midi.c        ****                         up= freqTable[i] - freq;
 372:midi.c        ****                                if(lb<up){
 373:midi.c        ****                                        return freqTable[i-1];
 374:midi.c        ****                                } 
 375:midi.c        ****                                return freqTable[i];
 376:midi.c        ****                        }
 377:midi.c        ****                        i=i+3;        //Bb
 378:midi.c        ****                        if(freq<freqTable[i]) {
 379:midi.c        ****                         lb= freq - freqTable[i-3];
 380:midi.c        ****                         up= freqTable[i] - freq;
 381:midi.c        ****                                if(lb<up){
 382:midi.c        ****                                        return freqTable[i-3];
 383:midi.c        ****                                } 
 384:midi.c        ****                                return freqTable[i];
 385:midi.c        ****                        }
 386:midi.c        ****                        i=i+2;        // back at C again
 387:midi.c        ****                        if(freq<freqTable[i]) {
 388:midi.c        ****                         lb= freq - freqTable[i-2];
 389:midi.c        ****                         up= freqTable[i] - freq;
 390:midi.c        ****                                if(lb<up){
ARM GAS  C:\Users\mgronber\AppData\Local\Temp\cctlx6x0.s 			page 27


 391:midi.c        ****                                        return freqTable[i-2];
 392:midi.c        ****                                } 
 393:midi.c        ****                                return freqTable[i];
 394:midi.c        ****                        }
 395:midi.c        ****             }
 396:midi.c        ****     }        // end of blues scale
 397:midi.c        ****     
 398:midi.c        ****     return -1;
 399:midi.c        **** 
 400:midi.c        **** 
 401:midi.c        **** 
 402:midi.c        **** 
 403:midi.c        **** }        // end of FrequencyMap
 1034              		.loc 1 403 0
 1035 009a 05B0     		add	sp, sp, #20
 1036              		.cfi_remember_state
 1037              		.cfi_def_cfa_offset 36
 1038              		@ sp needed
 1039 009c BDE8F08F 		pop	{r4, r5, r6, r7, r8, r9, r10, fp, pc}
 1040              	.LVL115:
 1041              	.L78:
 1042              		.cfi_restore_state
 196:midi.c        ****         {
 1043              		.loc 1 196 0
 1044 00a0 B8F1010F 		cmp	r8, #1
 1045 00a4 00F0E280 		beq	.L285
 219:midi.c        ****             while(freq > freqTable[i] && i<127) {        //C
 1046              		.loc 1 219 0
 1047 00a8 B8F1020F 		cmp	r8, #2
 1048 00ac 00F01781 		beq	.L286
 271:midi.c        ****             while(freq > freqTable[i] && i<127) {        // C
 1049              		.loc 1 271 0
 1050 00b0 B8F1030F 		cmp	r8, #3
 1051 00b4 00F08680 		beq	.L287
 323:midi.c        ****             while(freq > freqTable[i] && i<127) {
 1052              		.loc 1 323 0
 1053 00b8 B8F1040F 		cmp	r8, #4
 1054 00bc 00F08781 		beq	.L288
 339:midi.c        ****             while(freq > freqTable[i] && i<127) {        //C
 1055              		.loc 1 339 0
 1056 00c0 B8F1050F 		cmp	r8, #5
 1057 00c4 E7D1     		bne	.L259
 1058 00c6 D7E90089 		ldrd	r8, [r7]
 1059 00ca 04F10C05 		add	r5, r4, #12
 1060 00ce 06EBC505 		add	r5, r6, r5, lsl #3
 1061 00d2 0296     		str	r6, [sp, #8]
 1062 00d4 44E0     		b	.L167
 1063              	.LVL116:
 1064              	.L295:
 340:midi.c        ****                     i=i+3;        //Eb
 1065              		.loc 1 340 0 discriminator 1
 1066 00d6 7E2C     		cmp	r4, #126
 1067 00d8 DDDC     		bgt	.L259
 342:midi.c        ****                         lb= freq - freqTable[i-3];
 1068              		.loc 1 342 0
 1069 00da 55E91289 		ldrd	r8, [r5, #-72]
 1070 00de 5046     		mov	r0, r10
ARM GAS  C:\Users\mgronber\AppData\Local\Temp\cctlx6x0.s 			page 28


 1071 00e0 5946     		mov	r1, fp
 1072 00e2 4246     		mov	r2, r8
 1073 00e4 4B46     		mov	r3, r9
 1074              	.LVL117:
 1075 00e6 FFF7FEFF 		bl	__aeabi_dcmplt
 1076              	.LVL118:
 1077 00ea 0028     		cmp	r0, #0
 1078 00ec 40F0CE81 		bne	.L289
 351:midi.c        ****                         lb= freq - freqTable[i-2];
 1079              		.loc 1 351 0
 1080 00f0 55E90E89 		ldrd	r8, [r5, #-56]
 1081 00f4 5046     		mov	r0, r10
 1082 00f6 5946     		mov	r1, fp
 1083 00f8 4246     		mov	r2, r8
 1084 00fa 4B46     		mov	r3, r9
 1085 00fc FFF7FEFF 		bl	__aeabi_dcmplt
 1086              	.LVL119:
 1087 0100 0028     		cmp	r0, #0
 1088 0102 40F0BD81 		bne	.L290
 360:midi.c        ****                         lb= freq - freqTable[i-1];
 1089              		.loc 1 360 0
 1090 0106 55E90C89 		ldrd	r8, [r5, #-48]
 1091 010a 5046     		mov	r0, r10
 1092 010c 5946     		mov	r1, fp
 1093 010e 4246     		mov	r2, r8
 1094 0110 4B46     		mov	r3, r9
 1095 0112 FFF7FEFF 		bl	__aeabi_dcmplt
 1096              	.LVL120:
 1097 0116 0028     		cmp	r0, #0
 1098 0118 40F0C781 		bne	.L291
 369:midi.c        ****                         lb= freq - freqTable[i-1];
 1099              		.loc 1 369 0
 1100 011c 55E90A89 		ldrd	r8, [r5, #-40]
 1101 0120 5046     		mov	r0, r10
 1102 0122 5946     		mov	r1, fp
 1103 0124 4246     		mov	r2, r8
 1104 0126 4B46     		mov	r3, r9
 1105 0128 FFF7FEFF 		bl	__aeabi_dcmplt
 1106              	.LVL121:
 1107 012c 0028     		cmp	r0, #0
 1108 012e 40F0B481 		bne	.L292
 378:midi.c        ****                         lb= freq - freqTable[i-3];
 1109              		.loc 1 378 0
 1110 0132 55E90489 		ldrd	r8, [r5, #-16]
 1111 0136 5046     		mov	r0, r10
 1112 0138 5946     		mov	r1, fp
 1113 013a 4246     		mov	r2, r8
 1114 013c 4B46     		mov	r3, r9
 1115 013e FFF7FEFF 		bl	__aeabi_dcmplt
 1116              	.LVL122:
 386:midi.c        ****                        if(freq<freqTable[i]) {
 1117              		.loc 1 386 0
 1118 0142 0C34     		adds	r4, r4, #12
 1119              	.LVL123:
 378:midi.c        ****                         lb= freq - freqTable[i-3];
 1120              		.loc 1 378 0
 1121 0144 0028     		cmp	r0, #0
ARM GAS  C:\Users\mgronber\AppData\Local\Temp\cctlx6x0.s 			page 29


 1122 0146 40F0C181 		bne	.L293
 387:midi.c        ****                         lb= freq - freqTable[i-2];
 1123              		.loc 1 387 0
 1124 014a F5E81889 		ldrd	r8, [r5], #96
 1125 014e 5046     		mov	r0, r10
 1126 0150 5946     		mov	r1, fp
 1127 0152 4246     		mov	r2, r8
 1128 0154 4B46     		mov	r3, r9
 1129 0156 FFF7FEFF 		bl	__aeabi_dcmplt
 1130              	.LVL124:
 1131 015a 0028     		cmp	r0, #0
 1132 015c 40F0B481 		bne	.L294
 1133              	.LVL125:
 1134              	.L167:
 340:midi.c        ****                     i=i+3;        //Eb
 1135              		.loc 1 340 0
 1136 0160 4B46     		mov	r3, r9
 1137 0162 4246     		mov	r2, r8
 1138 0164 5046     		mov	r0, r10
 1139 0166 5946     		mov	r1, fp
 1140 0168 FFF7FEFF 		bl	__aeabi_dcmpgt
 1141              	.LVL126:
 1142 016c E31C     		adds	r3, r4, #3
 1143              	.LVL127:
 1144 016e 0093     		str	r3, [sp]
 1145 0170 671D     		adds	r7, r4, #5
 1146 0172 04F10A06 		add	r6, r4, #10
 1147 0176 0028     		cmp	r0, #0
 1148 0178 ADD1     		bne	.L295
 1149 017a 8CE7     		b	.L259
 1150              	.LVL128:
 1151              	.L79:
 181:midi.c        ****                 if(freqTable[note]-freq > freq-freqTable[prevNote]){
 1152              		.loc 1 181 0
 1153 017c 029B     		ldr	r3, [sp, #8]
 1154 017e 013C     		subs	r4, r4, #1
 1155              	.LVL129:
 1156 0180 53F82430 		ldr	r3, [r3, r4, lsl #2]
 1157 0184 009A     		ldr	r2, [sp]
 182:midi.c        ****                     return prevNote;                // If our input is closer to the previous note,
 1158              		.loc 1 182 0
 1159 0186 4046     		mov	r0, r8
 181:midi.c        ****                 if(freqTable[note]-freq > freq-freqTable[prevNote]){
 1160              		.loc 1 181 0
 1161 0188 1A44     		add	r2, r2, r3
 1162 018a 1746     		mov	r7, r2
 1163              	.LVL130:
 182:midi.c        ****                     return prevNote;                // If our input is closer to the previous note,
 1164              		.loc 1 182 0
 1165 018c 5B46     		mov	r3, fp
 1166 018e 5246     		mov	r2, r10
 1167              	.LVL131:
 1168 0190 4946     		mov	r1, r9
 1169 0192 FFF7FEFF 		bl	__aeabi_dsub
 1170              	.LVL132:
 1171 0196 06EBC706 		add	r6, r6, r7, lsl #3
 1172              	.LVL133:
ARM GAS  C:\Users\mgronber\AppData\Local\Temp\cctlx6x0.s 			page 30


 1173 019a D6E90023 		ldrd	r2, [r6]
 1174 019e 8046     		mov	r8, r0
 1175 01a0 8946     		mov	r9, r1
 1176 01a2 5046     		mov	r0, r10
 1177 01a4 5946     		mov	r1, fp
 1178 01a6 FFF7FEFF 		bl	__aeabi_dsub
 1179              	.LVL134:
 1180 01aa 0246     		mov	r2, r0
 1181 01ac 0B46     		mov	r3, r1
 1182 01ae 4046     		mov	r0, r8
 1183 01b0 4946     		mov	r1, r9
 1184 01b2 FFF7FEFF 		bl	__aeabi_dcmpgt
 1185              	.LVL135:
 186:midi.c        ****                 }      
 1186              		.loc 1 186 0
 1187 01b6 0028     		cmp	r0, #0
 1188 01b8 14BF     		ite	ne
 1189 01ba 3846     		movne	r0, r7
 1190 01bc 2846     		moveq	r0, r5
 1191              		.loc 1 403 0
 1192 01be 05B0     		add	sp, sp, #20
 1193              		.cfi_remember_state
 1194              		.cfi_def_cfa_offset 36
 1195              		@ sp needed
 1196 01c0 BDE8F08F 		pop	{r4, r5, r6, r7, r8, r9, r10, fp, pc}
 1197              	.LVL136:
 1198              	.L287:
 1199              		.cfi_restore_state
 1200 01c4 04F10C05 		add	r5, r4, #12
 1201 01c8 06EBC505 		add	r5, r6, r5, lsl #3
 1202 01cc D7E90089 		ldrd	r8, [r7]
 1203 01d0 0396     		str	r6, [sp, #12]
 1204 01d2 3BE0     		b	.L132
 1205              	.LVL137:
 1206              	.L300:
 272:midi.c        ****                     i=i+3;        //Eb
 1207              		.loc 1 272 0 discriminator 1
 1208 01d4 7E2C     		cmp	r4, #126
 309:midi.c        ****                        if(freq<freqTable[i]) {
 1209              		.loc 1 309 0 discriminator 1
 1210 01d6 04F10C04 		add	r4, r4, #12
 272:midi.c        ****                     i=i+3;        //Eb
 1211              		.loc 1 272 0 discriminator 1
 1212 01da 3FF75CAF 		bgt	.L259
 274:midi.c        ****                         lb= freq - freqTable[i-3];
 1213              		.loc 1 274 0
 1214 01de 55E91289 		ldrd	r8, [r5, #-72]
 1215 01e2 5046     		mov	r0, r10
 1216 01e4 5946     		mov	r1, fp
 1217 01e6 4246     		mov	r2, r8
 1218 01e8 4B46     		mov	r3, r9
 1219 01ea FFF7FEFF 		bl	__aeabi_dcmplt
 1220              	.LVL138:
 1221 01ee 0028     		cmp	r0, #0
 1222 01f0 40F08981 		bne	.L296
 283:midi.c        ****                         lb= freq - freqTable[i-2];
 1223              		.loc 1 283 0
ARM GAS  C:\Users\mgronber\AppData\Local\Temp\cctlx6x0.s 			page 31


 1224 01f4 55E90E89 		ldrd	r8, [r5, #-56]
 1225 01f8 5046     		mov	r0, r10
 1226 01fa 5946     		mov	r1, fp
 1227 01fc 4246     		mov	r2, r8
 1228 01fe 4B46     		mov	r3, r9
 1229 0200 FFF7FEFF 		bl	__aeabi_dcmplt
 1230              	.LVL139:
 1231 0204 0028     		cmp	r0, #0
 1232 0206 40F00C81 		bne	.L280
 292:midi.c        ****                         lb= freq - freqTable[i-2];
 1233              		.loc 1 292 0
 1234 020a 55E90A89 		ldrd	r8, [r5, #-40]
 1235 020e 5046     		mov	r0, r10
 1236 0210 5946     		mov	r1, fp
 1237 0212 4246     		mov	r2, r8
 1238 0214 4B46     		mov	r3, r9
 1239 0216 FFF7FEFF 		bl	__aeabi_dcmplt
 1240              	.LVL140:
 1241 021a 0028     		cmp	r0, #0
 1242 021c 40F08181 		bne	.L297
 301:midi.c        ****                         lb= freq - freqTable[i-3];
 1243              		.loc 1 301 0
 1244 0220 55E90489 		ldrd	r8, [r5, #-16]
 1245 0224 5046     		mov	r0, r10
 1246 0226 5946     		mov	r1, fp
 1247 0228 4246     		mov	r2, r8
 1248 022a 4B46     		mov	r3, r9
 1249 022c FFF7FEFF 		bl	__aeabi_dcmplt
 1250              	.LVL141:
 1251 0230 0028     		cmp	r0, #0
 1252 0232 40F06F81 		bne	.L298
 310:midi.c        ****                         lb= freq - freqTable[i-2];
 1253              		.loc 1 310 0
 1254 0236 F5E81889 		ldrd	r8, [r5], #96
 1255 023a 5046     		mov	r0, r10
 1256 023c 5946     		mov	r1, fp
 1257 023e 4246     		mov	r2, r8
 1258 0240 4B46     		mov	r3, r9
 1259 0242 FFF7FEFF 		bl	__aeabi_dcmplt
 1260              	.LVL142:
 1261 0246 0028     		cmp	r0, #0
 1262 0248 40F07281 		bne	.L299
 1263              	.LVL143:
 1264              	.L132:
 272:midi.c        ****                     i=i+3;        //Eb
 1265              		.loc 1 272 0
 1266 024c 4B46     		mov	r3, r9
 1267 024e 4246     		mov	r2, r8
 1268 0250 5046     		mov	r0, r10
 1269 0252 5946     		mov	r1, fp
 1270 0254 FFF7FEFF 		bl	__aeabi_dcmpgt
 1271              	.LVL144:
 1272 0258 E31C     		adds	r3, r4, #3
 1273              	.LVL145:
 1274 025a 0293     		str	r3, [sp, #8]
 1275 025c 04F10A03 		add	r3, r4, #10
 1276              	.LVL146:
ARM GAS  C:\Users\mgronber\AppData\Local\Temp\cctlx6x0.s 			page 32


 1277 0260 671D     		adds	r7, r4, #5
 1278 0262 E61D     		adds	r6, r4, #7
 1279 0264 0093     		str	r3, [sp]
 1280 0266 0028     		cmp	r0, #0
 1281 0268 B4D1     		bne	.L300
 1282 026a 14E7     		b	.L259
 1283              	.LVL147:
 1284              	.L285:
 198:midi.c        ****             {
 1285              		.loc 1 198 0
 1286 026c 312C     		cmp	r4, #49
 1287 026e 3FF612AF 		bhi	.L259
 200:midi.c        ****                 if(freq<freqTable[note]){               // When freq<note, we've found a note with 
 1288              		.loc 1 200 0
 1289 0272 1F4B     		ldr	r3, .L308
 1290 0274 A700     		lsls	r7, r4, #2
 1291 0276 0293     		str	r3, [sp, #8]
 1292 0278 3B44     		add	r3, r3, r7
 1293 027a 5D6F     		ldr	r5, [r3, #116]
 1294 027c 04F11803 		add	r3, r4, #24
 1295 0280 1D44     		add	r5, r5, r3
 1296 0282 0093     		str	r3, [sp]
 201:midi.c        ****                     prevNote = key + 24 + scaleNatMinor[i-1]; //Find the previous note, then compar
 1297              		.loc 1 201 0
 1298 0284 06EBC503 		add	r3, r6, r5, lsl #3
 1299 0288 D3E90089 		ldrd	r8, [r3]
 1300 028c 5046     		mov	r0, r10
 1301 028e 5946     		mov	r1, fp
 1302 0290 4246     		mov	r2, r8
 1303 0292 4B46     		mov	r3, r9
 1304 0294 FFF7FEFF 		bl	__aeabi_dcmplt
 1305              	.LVL148:
 1306 0298 0028     		cmp	r0, #0
 1307 029a 76D1     		bne	.L85
 1308 029c 029B     		ldr	r3, [sp, #8]
 1309 029e 7433     		adds	r3, r3, #116
 1310 02a0 1F44     		add	r7, r7, r3
 1311 02a2 0FE0     		b	.L87
 1312              	.L89:
 200:midi.c        ****                 if(freq<freqTable[note]){               // When freq<note, we've found a note with 
 1313              		.loc 1 200 0
 1314 02a4 009B     		ldr	r3, [sp]
 1315 02a6 57F8045F 		ldr	r5, [r7, #4]!
 1316              	.LVL149:
 201:midi.c        ****                     prevNote = key + 24 + scaleNatMinor[i-1]; //Find the previous note, then compar
 1317              		.loc 1 201 0
 1318 02aa 5046     		mov	r0, r10
 200:midi.c        ****                 if(freq<freqTable[note]){               // When freq<note, we've found a note with 
 1319              		.loc 1 200 0
 1320 02ac 1D44     		add	r5, r5, r3
 1321              	.LVL150:
 201:midi.c        ****                     prevNote = key + 24 + scaleNatMinor[i-1]; //Find the previous note, then compar
 1322              		.loc 1 201 0
 1323 02ae 06EBC503 		add	r3, r6, r5, lsl #3
 1324 02b2 D3E90089 		ldrd	r8, [r3]
 1325 02b6 5946     		mov	r1, fp
 1326 02b8 4246     		mov	r2, r8
ARM GAS  C:\Users\mgronber\AppData\Local\Temp\cctlx6x0.s 			page 33


 1327 02ba 4B46     		mov	r3, r9
 1328 02bc FFF7FEFF 		bl	__aeabi_dcmplt
 1329              	.LVL151:
 1330 02c0 0028     		cmp	r0, #0
 1331 02c2 62D1     		bne	.L85
 1332              	.LVL152:
 1333              	.L87:
 210:midi.c        ****                 
 1334              		.loc 1 210 0
 1335 02c4 0134     		adds	r4, r4, #1
 1336              	.LVL153:
 198:midi.c        ****             {
 1337              		.loc 1 198 0
 1338 02c6 322C     		cmp	r4, #50
 1339 02c8 ECD1     		bne	.L89
 1340 02ca E4E6     		b	.L259
 1341              	.L284:
 172:midi.c        ****     }
 1342              		.loc 1 172 0
 1343 02cc 5946     		mov	r1, fp
 1344 02ce 5046     		mov	r0, r10
 1345 02d0 FFF7FEFF 		bl	midi_note_from_freq
 1346              	.LVL154:
 1347 02d4 FFF7FEFF 		bl	__aeabi_i2f
 1348              	.LVL155:
 1349 02d8 FFF7FEFF 		bl	__aeabi_f2iz
 1350              	.LVL156:
 1351 02dc DDE6     		b	.L76
 1352              	.L286:
 1353 02de 04F10C05 		add	r5, r4, #12
 1354 02e2 06EBC505 		add	r5, r6, r5, lsl #3
 1355 02e6 D7E90089 		ldrd	r8, [r7]
 1356 02ea 0396     		str	r6, [sp, #12]
 1357 02ec 3DE0     		b	.L108
 1358              	.L309:
 1359 02ee 00BF     		.align	2
 1360              	.L308:
 1361 02f0 00000000 		.word	.LANCHOR0
 1362              	.LVL157:
 1363              	.L305:
 220:midi.c        ****                     i=i+2;        // D 
 1364              		.loc 1 220 0 discriminator 1
 1365 02f4 7E2C     		cmp	r4, #126
 257:midi.c        ****                        if(freq<freqTable[i]) {
 1366              		.loc 1 257 0 discriminator 1
 1367 02f6 04F10C04 		add	r4, r4, #12
 220:midi.c        ****                     i=i+2;        // D 
 1368              		.loc 1 220 0 discriminator 1
 1369 02fa 3FF7CCAE 		bgt	.L259
 222:midi.c        ****                         lb= freq - freqTable[i-2];
 1370              		.loc 1 222 0
 1371 02fe 55E91489 		ldrd	r8, [r5, #-80]
 1372 0302 5046     		mov	r0, r10
 1373 0304 5946     		mov	r1, fp
 1374 0306 4246     		mov	r2, r8
 1375 0308 4B46     		mov	r3, r9
 1376 030a FFF7FEFF 		bl	__aeabi_dcmplt
ARM GAS  C:\Users\mgronber\AppData\Local\Temp\cctlx6x0.s 			page 34


 1377              	.LVL158:
 1378 030e 0028     		cmp	r0, #0
 1379 0310 40F0D380 		bne	.L301
 231:midi.c        ****                         lb= freq - freqTable[i-2];
 1380              		.loc 1 231 0
 1381 0314 55E91089 		ldrd	r8, [r5, #-64]
 1382 0318 5046     		mov	r0, r10
 1383 031a 5946     		mov	r1, fp
 1384 031c 4246     		mov	r2, r8
 1385 031e 4B46     		mov	r3, r9
 1386 0320 FFF7FEFF 		bl	__aeabi_dcmplt
 1387              	.LVL159:
 1388 0324 0028     		cmp	r0, #0
 1389 0326 7CD1     		bne	.L280
 240:midi.c        ****                         lb= freq - freqTable[i-3];
 1390              		.loc 1 240 0
 1391 0328 55E90A89 		ldrd	r8, [r5, #-40]
 1392 032c 5046     		mov	r0, r10
 1393 032e 5946     		mov	r1, fp
 1394 0330 4246     		mov	r2, r8
 1395 0332 4B46     		mov	r3, r9
 1396 0334 FFF7FEFF 		bl	__aeabi_dcmplt
 1397              	.LVL160:
 1398 0338 0028     		cmp	r0, #0
 1399 033a 40F0CE80 		bne	.L302
 249:midi.c        ****                         lb= freq - freqTable[i-2];
 1400              		.loc 1 249 0
 1401 033e 55E90689 		ldrd	r8, [r5, #-24]
 1402 0342 5046     		mov	r0, r10
 1403 0344 5946     		mov	r1, fp
 1404 0346 4246     		mov	r2, r8
 1405 0348 4B46     		mov	r3, r9
 1406 034a FFF7FEFF 		bl	__aeabi_dcmplt
 1407              	.LVL161:
 1408 034e 0028     		cmp	r0, #0
 1409 0350 40F0CA80 		bne	.L303
 258:midi.c        ****                         lb= freq - freqTable[i-3];
 1410              		.loc 1 258 0
 1411 0354 F5E81889 		ldrd	r8, [r5], #96
 1412 0358 5046     		mov	r0, r10
 1413 035a 5946     		mov	r1, fp
 1414 035c 4246     		mov	r2, r8
 1415 035e 4B46     		mov	r3, r9
 1416 0360 FFF7FEFF 		bl	__aeabi_dcmplt
 1417              	.LVL162:
 1418 0364 0028     		cmp	r0, #0
 1419 0366 40F0C680 		bne	.L304
 1420              	.LVL163:
 1421              	.L108:
 220:midi.c        ****                     i=i+2;        // D 
 1422              		.loc 1 220 0
 1423 036a 4B46     		mov	r3, r9
 1424 036c 4246     		mov	r2, r8
 1425 036e 5046     		mov	r0, r10
 1426 0370 5946     		mov	r1, fp
 1427 0372 FFF7FEFF 		bl	__aeabi_dcmpgt
 1428              	.LVL164:
ARM GAS  C:\Users\mgronber\AppData\Local\Temp\cctlx6x0.s 			page 35


 1429 0376 A31C     		adds	r3, r4, #2
 1430              	.LVL165:
 1431 0378 0293     		str	r3, [sp, #8]
 1432 037a 04F10903 		add	r3, r4, #9
 1433              	.LVL166:
 1434 037e 271D     		adds	r7, r4, #4
 1435 0380 E61D     		adds	r6, r4, #7
 1436 0382 0093     		str	r3, [sp]
 1437 0384 0028     		cmp	r0, #0
 1438 0386 B5D1     		bne	.L305
 1439 0388 85E6     		b	.L259
 1440              	.LVL167:
 1441              	.L85:
 202:midi.c        ****                     if(freqTable[note]-freq > freq-freqTable[prevNote]){
 1442              		.loc 1 202 0
 1443 038a 029B     		ldr	r3, [sp, #8]
 1444 038c 009A     		ldr	r2, [sp]
 1445 038e 03EB8404 		add	r4, r3, r4, lsl #2
 1446              	.LVL168:
 1447 0392 236F     		ldr	r3, [r4, #112]
 203:midi.c        ****                         return prevNote;                // If our input is closer to the previous n
 1448              		.loc 1 203 0
 1449 0394 4046     		mov	r0, r8
 202:midi.c        ****                     if(freqTable[note]-freq > freq-freqTable[prevNote]){
 1450              		.loc 1 202 0
 1451 0396 1A44     		add	r2, r2, r3
 1452 0398 9046     		mov	r8, r2
 1453              	.LVL169:
 203:midi.c        ****                         return prevNote;                // If our input is closer to the previous n
 1454              		.loc 1 203 0
 1455 039a 5B46     		mov	r3, fp
 1456 039c 5246     		mov	r2, r10
 1457              	.LVL170:
 1458 039e 4946     		mov	r1, r9
 1459 03a0 FFF7FEFF 		bl	__aeabi_dsub
 1460              	.LVL171:
 1461 03a4 06EBC806 		add	r6, r6, r8, lsl #3
 1462              	.LVL172:
 1463 03a8 CDE90001 		strd	r0, [sp]
 1464 03ac D6E90023 		ldrd	r2, [r6]
 1465 03b0 5046     		mov	r0, r10
 1466 03b2 5946     		mov	r1, fp
 1467 03b4 FFF7FEFF 		bl	__aeabi_dsub
 1468              	.LVL173:
 1469 03b8 0246     		mov	r2, r0
 1470 03ba 0B46     		mov	r3, r1
 1471 03bc DDE90001 		ldrd	r0, [sp]
 1472 03c0 FFF7FEFF 		bl	__aeabi_dcmpgt
 1473              	.LVL174:
 207:midi.c        ****                     }      
 1474              		.loc 1 207 0
 1475 03c4 0028     		cmp	r0, #0
 1476 03c6 14BF     		ite	ne
 1477 03c8 4046     		movne	r0, r8
 1478 03ca 2846     		moveq	r0, r5
 1479 03cc 65E6     		b	.L76
 1480              	.LVL175:
ARM GAS  C:\Users\mgronber\AppData\Local\Temp\cctlx6x0.s 			page 36


 1481              	.L288:
 1482 03ce D7E90023 		ldrd	r2, [r7]
 1483 03d2 B846     		mov	r8, r7
 1484 03d4 C4EB4477 		rsb	r7, r4, r4, lsl #29
 1485 03d8 FF00     		lsls	r7, r7, #3
 1486 03da B946     		mov	r9, r7
 1487 03dc 0096     		str	r6, [sp]
 1488 03de 1F46     		mov	r7, r3
 1489 03e0 1646     		mov	r6, r2
 1490              	.LVL176:
 1491 03e2 0DE0     		b	.L140
 1492              	.L307:
 324:midi.c        ****                     i=i+2;
 1493              		.loc 1 324 0 discriminator 1
 1494 03e4 7E2C     		cmp	r4, #126
 325:midi.c        ****                     if(freq<freqTable[i]) {
 1495              		.loc 1 325 0 discriminator 1
 1496 03e6 04F10204 		add	r4, r4, #2
 1497              	.LVL177:
 324:midi.c        ****                     i=i+2;
 1498              		.loc 1 324 0 discriminator 1
 1499 03ea 3FF754AE 		bgt	.L259
 326:midi.c        ****                         lb= freq - freqTable[i-2];
 1500              		.loc 1 326 0
 1501 03ee D3E90067 		ldrd	r6, [r3]
 1502 03f2 5046     		mov	r0, r10
 1503 03f4 5946     		mov	r1, fp
 1504 03f6 3246     		mov	r2, r6
 1505 03f8 3B46     		mov	r3, r7
 1506 03fa FFF7FEFF 		bl	__aeabi_dcmplt
 1507              	.LVL178:
 1508 03fe A8BB     		cbnz	r0, .L306
 1509              	.LVL179:
 1510              	.L140:
 324:midi.c        ****                     i=i+2;
 1511              		.loc 1 324 0
 1512 0400 3B46     		mov	r3, r7
 1513 0402 3246     		mov	r2, r6
 1514 0404 5046     		mov	r0, r10
 1515 0406 5946     		mov	r1, fp
 1516 0408 FFF7FEFF 		bl	__aeabi_dcmpgt
 1517              	.LVL180:
 1518 040c 08F11008 		add	r8, r8, #16
 1519 0410 09EB0803 		add	r3, r9, r8
 1520 0414 2B44     		add	r3, r3, r5
 1521 0416 0028     		cmp	r0, #0
 1522 0418 E4D1     		bne	.L307
 1523 041a 3CE6     		b	.L259
 1524              	.LVL181:
 1525              	.L173:
 1526              		.cfi_def_cfa_offset 0
 1527              		.cfi_restore 4
 1528              		.cfi_restore 5
 1529              		.cfi_restore 6
 1530              		.cfi_restore 7
 1531              		.cfi_restore 8
 1532              		.cfi_restore 9
ARM GAS  C:\Users\mgronber\AppData\Local\Temp\cctlx6x0.s 			page 37


 1533              		.cfi_restore 10
 1534              		.cfi_restore 11
 1535              		.cfi_restore 14
 157:midi.c        ****     }
 1536              		.loc 1 157 0
 1537 041c 4FF0FF30 		mov	r0, #-1
 1538              	.LVL182:
 1539              		.loc 1 403 0
 1540 0420 7047     		bx	lr
 1541              	.LVL183:
 1542              	.L280:
 1543              		.cfi_def_cfa_offset 56
 1544              		.cfi_offset 4, -36
 1545              		.cfi_offset 5, -32
 1546              		.cfi_offset 6, -28
 1547              		.cfi_offset 7, -24
 1548              		.cfi_offset 8, -20
 1549              		.cfi_offset 9, -16
 1550              		.cfi_offset 10, -12
 1551              		.cfi_offset 11, -8
 1552              		.cfi_offset 14, -4
 1553 0422 039E     		ldr	r6, [sp, #12]
 284:midi.c        ****                         up= freqTable[i] - freq;
 1554              		.loc 1 284 0
 1555 0424 06EBC706 		add	r6, r6, r7, lsl #3
 1556 0428 56E90445 		ldrd	r4, [r6, #-16]
 1557              	.LVL184:
 1558              	.L263:
 388:midi.c        ****                         up= freqTable[i] - freq;
 1559              		.loc 1 388 0
 1560 042c 2246     		mov	r2, r4
 1561 042e 2B46     		mov	r3, r5
 1562 0430 5046     		mov	r0, r10
 1563 0432 5946     		mov	r1, fp
 1564 0434 FFF7FEFF 		bl	__aeabi_dsub
 1565              	.LVL185:
 1566 0438 FFF7FEFF 		bl	__aeabi_d2f
 1567              	.LVL186:
 389:midi.c        ****                                if(lb<up){
 1568              		.loc 1 389 0
 1569 043c 5246     		mov	r2, r10
 388:midi.c        ****                         up= freqTable[i] - freq;
 1570              		.loc 1 388 0
 1571 043e 0646     		mov	r6, r0
 389:midi.c        ****                                if(lb<up){
 1572              		.loc 1 389 0
 1573 0440 5B46     		mov	r3, fp
 1574 0442 4046     		mov	r0, r8
 1575 0444 4946     		mov	r1, r9
 1576 0446 FFF7FEFF 		bl	__aeabi_dsub
 1577              	.LVL187:
 1578 044a FFF7FEFF 		bl	__aeabi_d2f
 1579              	.LVL188:
 1580 044e 0146     		mov	r1, r0
 390:midi.c        ****                                        return freqTable[i-2];
 1581              		.loc 1 390 0
 1582 0450 3046     		mov	r0, r6
ARM GAS  C:\Users\mgronber\AppData\Local\Temp\cctlx6x0.s 			page 38


 1583 0452 FFF7FEFF 		bl	__aeabi_fcmplt
 1584              	.LVL189:
 1585 0456 20B1     		cbz	r0, .L258
 391:midi.c        ****                                } 
 1586              		.loc 1 391 0
 1587 0458 2046     		mov	r0, r4
 1588 045a 2946     		mov	r1, r5
 1589 045c FFF7FEFF 		bl	__aeabi_d2iz
 1590              	.LVL190:
 1591 0460 1BE6     		b	.L76
 1592              	.L258:
 393:midi.c        ****                        }
 1593              		.loc 1 393 0
 1594 0462 4046     		mov	r0, r8
 1595 0464 4946     		mov	r1, r9
 1596 0466 FFF7FEFF 		bl	__aeabi_d2iz
 1597              	.LVL191:
 1598 046a 16E6     		b	.L76
 1599              	.LVL192:
 1600              	.L306:
 1601 046c B946     		mov	r9, r7
 1602 046e B046     		mov	r8, r6
 1603 0470 009E     		ldr	r6, [sp]
 1604              	.LVL193:
 1605              	.L269:
 388:midi.c        ****                         up= freqTable[i] - freq;
 1606              		.loc 1 388 0
 1607 0472 06EBC404 		add	r4, r6, r4, lsl #3
 1608              	.LVL194:
 1609 0476 A4F11005 		add	r5, r4, #-16
 1610 047a D5E90045 		ldrd	r4, [r5]
 1611 047e D5E7     		b	.L263
 1612              	.LVL195:
 1613              	.L290:
 1614 0480 029E     		ldr	r6, [sp, #8]
 352:midi.c        ****                         up= freqTable[i] - freq;
 1615              		.loc 1 352 0
 1616 0482 06EBC706 		add	r6, r6, r7, lsl #3
 1617 0486 56E90445 		ldrd	r4, [r6, #-16]
 1618              	.LVL196:
 1619 048a CFE7     		b	.L263
 1620              	.LVL197:
 1621              	.L289:
 1622 048c 029E     		ldr	r6, [sp, #8]
 343:midi.c        ****                         up= freqTable[i] - freq;
 1623              		.loc 1 343 0
 1624 048e 009B     		ldr	r3, [sp]
 1625 0490 06EBC306 		add	r6, r6, r3, lsl #3
 1626 0494 56E90645 		ldrd	r4, [r6, #-24]
 1627              	.LVL198:
 1628 0498 C8E7     		b	.L263
 1629              	.LVL199:
 1630              	.L292:
 1631 049a 029E     		ldr	r6, [sp, #8]
 370:midi.c        ****                         up= freqTable[i] - freq;
 1632              		.loc 1 370 0
 1633 049c 06EBC404 		add	r4, r6, r4, lsl #3
ARM GAS  C:\Users\mgronber\AppData\Local\Temp\cctlx6x0.s 			page 39


 1634              	.LVL200:
 1635 04a0 04F13005 		add	r5, r4, #48
 1636 04a4 D5E90045 		ldrd	r4, [r5]
 1637              	.LVL201:
 1638 04a8 C0E7     		b	.L263
 1639              	.LVL202:
 1640              	.L291:
 1641 04aa 029E     		ldr	r6, [sp, #8]
 361:midi.c        ****                         up= freqTable[i] - freq;
 1642              		.loc 1 361 0
 1643 04ac 06EBC404 		add	r4, r6, r4, lsl #3
 1644              	.LVL203:
 1645 04b0 04F12805 		add	r5, r4, #40
 1646 04b4 D5E90045 		ldrd	r4, [r5]
 1647              	.LVL204:
 1648 04b8 B8E7     		b	.L263
 1649              	.LVL205:
 1650              	.L301:
 1651 04ba 039E     		ldr	r6, [sp, #12]
 223:midi.c        ****                         up= freqTable[i] - freq;
 1652              		.loc 1 223 0
 1653 04bc 029B     		ldr	r3, [sp, #8]
 1654 04be 06EBC306 		add	r6, r6, r3, lsl #3
 1655 04c2 56E90445 		ldrd	r4, [r6, #-16]
 1656              	.LVL206:
 1657 04c6 B1E7     		b	.L263
 1658              	.LVL207:
 1659              	.L294:
 1660 04c8 029E     		ldr	r6, [sp, #8]
 1661 04ca D2E7     		b	.L269
 1662              	.L293:
 1663 04cc 3346     		mov	r3, r6
 1664 04ce 029E     		ldr	r6, [sp, #8]
 379:midi.c        ****                         up= freqTable[i] - freq;
 1665              		.loc 1 379 0
 1666 04d0 06EBC306 		add	r6, r6, r3, lsl #3
 1667 04d4 56E90645 		ldrd	r4, [r6, #-24]
 1668              	.LVL208:
 1669 04d8 A8E7     		b	.L263
 1670              	.LVL209:
 1671              	.L302:
 1672 04da 3346     		mov	r3, r6
 1673 04dc 039E     		ldr	r6, [sp, #12]
 241:midi.c        ****                         up= freqTable[i] - freq;
 1674              		.loc 1 241 0
 1675 04de 06EBC306 		add	r6, r6, r3, lsl #3
 1676 04e2 56E90645 		ldrd	r4, [r6, #-24]
 1677              	.LVL210:
 1678 04e6 A1E7     		b	.L263
 1679              	.LVL211:
 1680              	.L303:
 1681 04e8 039E     		ldr	r6, [sp, #12]
 250:midi.c        ****                         up= freqTable[i] - freq;
 1682              		.loc 1 250 0
 1683 04ea 009B     		ldr	r3, [sp]
 1684 04ec 06EBC306 		add	r6, r6, r3, lsl #3
 1685 04f0 56E90445 		ldrd	r4, [r6, #-16]
ARM GAS  C:\Users\mgronber\AppData\Local\Temp\cctlx6x0.s 			page 40


 1686              	.LVL212:
 1687 04f4 9AE7     		b	.L263
 1688              	.LVL213:
 1689              	.L304:
 1690 04f6 039E     		ldr	r6, [sp, #12]
 259:midi.c        ****                         up= freqTable[i] - freq;
 1691              		.loc 1 259 0
 1692 04f8 06EBC404 		add	r4, r6, r4, lsl #3
 1693              	.LVL214:
 1694 04fc A4F11805 		add	r5, r4, #-24
 1695 0500 D5E90045 		ldrd	r4, [r5]
 1696              	.LVL215:
 1697 0504 92E7     		b	.L263
 1698              	.LVL216:
 1699              	.L296:
 1700 0506 039E     		ldr	r6, [sp, #12]
 275:midi.c        ****                         up= freqTable[i] - freq;
 1701              		.loc 1 275 0
 1702 0508 029B     		ldr	r3, [sp, #8]
 1703 050a 06EBC306 		add	r6, r6, r3, lsl #3
 1704 050e 56E90645 		ldrd	r4, [r6, #-24]
 1705              	.LVL217:
 1706 0512 8BE7     		b	.L263
 1707              	.LVL218:
 1708              	.L298:
 1709 0514 039E     		ldr	r6, [sp, #12]
 302:midi.c        ****                         up= freqTable[i] - freq;
 1710              		.loc 1 302 0
 1711 0516 009B     		ldr	r3, [sp]
 1712 0518 06EBC306 		add	r6, r6, r3, lsl #3
 1713 051c 56E90645 		ldrd	r4, [r6, #-24]
 1714              	.LVL219:
 1715 0520 84E7     		b	.L263
 1716              	.LVL220:
 1717              	.L297:
 1718 0522 3346     		mov	r3, r6
 1719 0524 039E     		ldr	r6, [sp, #12]
 293:midi.c        ****                         up= freqTable[i] - freq;
 1720              		.loc 1 293 0
 1721 0526 06EBC306 		add	r6, r6, r3, lsl #3
 1722 052a 56E90445 		ldrd	r4, [r6, #-16]
 1723              	.LVL221:
 1724 052e 7DE7     		b	.L263
 1725              	.LVL222:
 1726              	.L299:
 1727 0530 039E     		ldr	r6, [sp, #12]
 1728 0532 9EE7     		b	.L269
 1729              		.cfi_endproc
 1730              	.LFE64:
 1731              		.size	NoteSnap, .-NoteSnap
 1732              		.global	scaleNatMinor
 1733              		.global	scaleMajor
 1734              		.data
 1735              		.align	2
 1736              		.set	.LANCHOR0,. + 0
 1737              		.type	scaleMajor, %object
 1738              		.size	scaleMajor, 116
ARM GAS  C:\Users\mgronber\AppData\Local\Temp\cctlx6x0.s 			page 41


 1739              	scaleMajor:
 1740 0000 00000000 		.word	0
 1741 0004 02000000 		.word	2
 1742 0008 04000000 		.word	4
 1743 000c 05000000 		.word	5
 1744 0010 07000000 		.word	7
 1745 0014 09000000 		.word	9
 1746 0018 0B000000 		.word	11
 1747 001c 0C000000 		.word	12
 1748 0020 0E000000 		.word	14
 1749 0024 10000000 		.word	16
 1750 0028 11000000 		.word	17
 1751 002c 13000000 		.word	19
 1752 0030 15000000 		.word	21
 1753 0034 17000000 		.word	23
 1754 0038 18000000 		.word	24
 1755 003c 1A000000 		.word	26
 1756 0040 1C000000 		.word	28
 1757 0044 1D000000 		.word	29
 1758 0048 1F000000 		.word	31
 1759 004c 21000000 		.word	33
 1760 0050 23000000 		.word	35
 1761 0054 24000000 		.word	36
 1762 0058 26000000 		.word	38
 1763 005c 28000000 		.word	40
 1764 0060 29000000 		.word	41
 1765 0064 2B000000 		.word	43
 1766 0068 2D000000 		.word	45
 1767 006c 2F000000 		.word	47
 1768 0070 30000000 		.word	48
 1769              		.type	scaleNatMinor, %object
 1770              		.size	scaleNatMinor, 116
 1771              	scaleNatMinor:
 1772 0074 00000000 		.word	0
 1773 0078 02000000 		.word	2
 1774 007c 03000000 		.word	3
 1775 0080 05000000 		.word	5
 1776 0084 07000000 		.word	7
 1777 0088 08000000 		.word	8
 1778 008c 0A000000 		.word	10
 1779 0090 0C000000 		.word	12
 1780 0094 0E000000 		.word	14
 1781 0098 0F000000 		.word	15
 1782 009c 11000000 		.word	17
 1783 00a0 13000000 		.word	19
 1784 00a4 14000000 		.word	20
 1785 00a8 16000000 		.word	22
 1786 00ac 18000000 		.word	24
 1787 00b0 1A000000 		.word	26
 1788 00b4 1B000000 		.word	27
 1789 00b8 1D000000 		.word	29
 1790 00bc 1F000000 		.word	31
 1791 00c0 20000000 		.word	32
 1792 00c4 22000000 		.word	34
 1793 00c8 24000000 		.word	36
 1794 00cc 26000000 		.word	38
 1795 00d0 27000000 		.word	39
ARM GAS  C:\Users\mgronber\AppData\Local\Temp\cctlx6x0.s 			page 42


 1796 00d4 29000000 		.word	41
 1797 00d8 2B000000 		.word	43
 1798 00dc 2C000000 		.word	44
 1799 00e0 2E000000 		.word	46
 1800 00e4 30000000 		.word	48
 1801              		.section	.rodata.str1.4,"aMS",%progbits,1
 1802              		.align	2
 1803              	.LC0:
 1804 0000 4300     		.ascii	"C\000"
 1805 0002 0000     		.space	2
 1806              	.LC1:
 1807 0004 432300   		.ascii	"C#\000"
 1808 0007 00       		.space	1
 1809              	.LC2:
 1810 0008 4400     		.ascii	"D\000"
 1811 000a 0000     		.space	2
 1812              	.LC3:
 1813 000c 442300   		.ascii	"D#\000"
 1814 000f 00       		.space	1
 1815              	.LC4:
 1816 0010 4500     		.ascii	"E\000"
 1817 0012 0000     		.space	2
 1818              	.LC5:
 1819 0014 4600     		.ascii	"F\000"
 1820 0016 0000     		.space	2
 1821              	.LC6:
 1822 0018 462300   		.ascii	"F#\000"
 1823 001b 00       		.space	1
 1824              	.LC7:
 1825 001c 4700     		.ascii	"G\000"
 1826 001e 0000     		.space	2
 1827              	.LC8:
 1828 0020 472300   		.ascii	"G#\000"
 1829 0023 00       		.space	1
 1830              	.LC9:
 1831 0024 4100     		.ascii	"A\000"
 1832 0026 0000     		.space	2
 1833              	.LC10:
 1834 0028 412300   		.ascii	"A#\000"
 1835 002b 00       		.space	1
 1836              	.LC11:
 1837 002c 4200     		.ascii	"B\000"
 1838 002e 0000     		.space	2
 1839              	.LC12:
 1840 0030 00       		.ascii	"\000"
 1841 0031 000000   		.space	3
 1842              	.LC13:
 1843 0034 432D2564 		.ascii	"C-%d\000"
 1843      00
 1844 0039 000000   		.space	3
 1845              	.LC14:
 1846 003c 43232564 		.ascii	"C#%d\000"
 1846      00
 1847 0041 000000   		.space	3
 1848              	.LC15:
 1849 0044 442D2564 		.ascii	"D-%d\000"
 1849      00
ARM GAS  C:\Users\mgronber\AppData\Local\Temp\cctlx6x0.s 			page 43


 1850 0049 000000   		.space	3
 1851              	.LC16:
 1852 004c 44232564 		.ascii	"D#%d\000"
 1852      00
 1853 0051 000000   		.space	3
 1854              	.LC17:
 1855 0054 452D2564 		.ascii	"E-%d\000"
 1855      00
 1856 0059 000000   		.space	3
 1857              	.LC18:
 1858 005c 462D2564 		.ascii	"F-%d\000"
 1858      00
 1859 0061 000000   		.space	3
 1860              	.LC19:
 1861 0064 46232564 		.ascii	"F#%d\000"
 1861      00
 1862 0069 000000   		.space	3
 1863              	.LC20:
 1864 006c 472D2564 		.ascii	"G-%d\000"
 1864      00
 1865 0071 000000   		.space	3
 1866              	.LC21:
 1867 0074 47232564 		.ascii	"G#%d\000"
 1867      00
 1868 0079 000000   		.space	3
 1869              	.LC22:
 1870 007c 412D2564 		.ascii	"A-%d\000"
 1870      00
 1871 0081 000000   		.space	3
 1872              	.LC23:
 1873 0084 41232564 		.ascii	"A#%d\000"
 1873      00
 1874 0089 000000   		.space	3
 1875              	.LC24:
 1876 008c 422D2564 		.ascii	"B-%d\000"
 1876      00
 1877 0091 000000   		.text
 1878              	.Letext0:
 1879              		.file 2 "c:\\program files (x86)\\cypress\\psoc creator\\4.0\\psoc creator\\import\\gnu\\arm\\4.9.
 1880              		.file 3 "c:\\program files (x86)\\cypress\\psoc creator\\4.0\\psoc creator\\import\\gnu\\arm\\4.9.
 1881              		.file 4 "Generated_Source\\PSoC5/cytypes.h"
 1882              		.file 5 "midi.h"
 1883              		.file 6 "Generated_Source\\PSoC5/core_cm3.h"
 1884              		.file 7 "c:\\program files (x86)\\cypress\\psoc creator\\4.0\\psoc creator\\import\\gnu\\arm\\4.9.
 1885              		.file 8 "c:\\program files (x86)\\cypress\\psoc creator\\4.0\\psoc creator\\import\\gnu\\arm\\4.9.