ARM GAS  C:\Users\anjmarqu\AppData\Local\Temp\ccfbkqQm.s 			page 1


   1              		.syntax unified
   2              		.cpu cortex-m3
   3              		.fpu softvfp
   4              		.eabi_attribute 20, 1
   5              		.eabi_attribute 21, 1
   6              		.eabi_attribute 23, 3
   7              		.eabi_attribute 24, 1
   8              		.eabi_attribute 25, 1
   9              		.eabi_attribute 26, 1
  10              		.eabi_attribute 30, 2
  11              		.eabi_attribute 34, 1
  12              		.eabi_attribute 18, 4
  13              		.thumb
  14              		.file	"MIDI2_UART_INT.c"
  15              		.text
  16              	.Ltext0:
  17              		.cfi_sections	.debug_frame
  18              		.section	.text.MIDI2_UART_RXISR,"ax",%progbits
  19              		.align	2
  20              		.global	MIDI2_UART_RXISR
  21              		.thumb
  22              		.thumb_func
  23              		.type	MIDI2_UART_RXISR, %function
  24              	MIDI2_UART_RXISR:
  25              	.LFB0:
  26              		.file 1 "Generated_Source\\PSoC5\\MIDI2_UART_INT.c"
   1:Generated_Source\PSoC5/MIDI2_UART_INT.c **** /*******************************************************************************
   2:Generated_Source\PSoC5/MIDI2_UART_INT.c **** * File Name: MIDI2_UART_INT.c
   3:Generated_Source\PSoC5/MIDI2_UART_INT.c **** * Version 2.30
   4:Generated_Source\PSoC5/MIDI2_UART_INT.c **** *
   5:Generated_Source\PSoC5/MIDI2_UART_INT.c **** * Description:
   6:Generated_Source\PSoC5/MIDI2_UART_INT.c **** *  This file provides all Interrupt Service functionality of the UART component
   7:Generated_Source\PSoC5/MIDI2_UART_INT.c **** *
   8:Generated_Source\PSoC5/MIDI2_UART_INT.c **** * Note:
   9:Generated_Source\PSoC5/MIDI2_UART_INT.c **** *  Any unusual or non-standard behavior should be noted here. Other-
  10:Generated_Source\PSoC5/MIDI2_UART_INT.c **** *  wise, this section should remain blank.
  11:Generated_Source\PSoC5/MIDI2_UART_INT.c **** *
  12:Generated_Source\PSoC5/MIDI2_UART_INT.c **** ********************************************************************************
  13:Generated_Source\PSoC5/MIDI2_UART_INT.c **** * Copyright 2008-2012, Cypress Semiconductor Corporation.  All rights reserved.
  14:Generated_Source\PSoC5/MIDI2_UART_INT.c **** * You may use this file only in accordance with the license, terms, conditions,
  15:Generated_Source\PSoC5/MIDI2_UART_INT.c **** * disclaimers, and limitations in the end user license agreement accompanying
  16:Generated_Source\PSoC5/MIDI2_UART_INT.c **** * the software package with which this file was provided.
  17:Generated_Source\PSoC5/MIDI2_UART_INT.c **** *******************************************************************************/
  18:Generated_Source\PSoC5/MIDI2_UART_INT.c **** 
  19:Generated_Source\PSoC5/MIDI2_UART_INT.c **** #include "MIDI2_UART.h"
  20:Generated_Source\PSoC5/MIDI2_UART_INT.c **** #include "CyLib.h"
  21:Generated_Source\PSoC5/MIDI2_UART_INT.c **** 
  22:Generated_Source\PSoC5/MIDI2_UART_INT.c **** 
  23:Generated_Source\PSoC5/MIDI2_UART_INT.c **** /***************************************
  24:Generated_Source\PSoC5/MIDI2_UART_INT.c **** * Custom Declratations
  25:Generated_Source\PSoC5/MIDI2_UART_INT.c **** ***************************************/
  26:Generated_Source\PSoC5/MIDI2_UART_INT.c **** /* `#START CUSTOM_DECLARATIONS` Place your declaration here */
  27:Generated_Source\PSoC5/MIDI2_UART_INT.c **** #include "USB_midi.h"
  28:Generated_Source\PSoC5/MIDI2_UART_INT.c **** #include "LED_InB.h"
  29:Generated_Source\PSoC5/MIDI2_UART_INT.c **** /* `#END` */
  30:Generated_Source\PSoC5/MIDI2_UART_INT.c **** 
  31:Generated_Source\PSoC5/MIDI2_UART_INT.c **** #if( (MIDI2_UART_RX_ENABLED || MIDI2_UART_HD_ENABLED) && \
ARM GAS  C:\Users\anjmarqu\AppData\Local\Temp\ccfbkqQm.s 			page 2


  32:Generated_Source\PSoC5/MIDI2_UART_INT.c ****      (MIDI2_UART_RXBUFFERSIZE > MIDI2_UART_FIFO_LENGTH))
  33:Generated_Source\PSoC5/MIDI2_UART_INT.c **** 
  34:Generated_Source\PSoC5/MIDI2_UART_INT.c **** 
  35:Generated_Source\PSoC5/MIDI2_UART_INT.c ****     /*******************************************************************************
  36:Generated_Source\PSoC5/MIDI2_UART_INT.c ****     * Function Name: MIDI2_UART_RXISR
  37:Generated_Source\PSoC5/MIDI2_UART_INT.c ****     ********************************************************************************
  38:Generated_Source\PSoC5/MIDI2_UART_INT.c ****     *
  39:Generated_Source\PSoC5/MIDI2_UART_INT.c ****     * Summary:
  40:Generated_Source\PSoC5/MIDI2_UART_INT.c ****     *  Interrupt Service Routine for RX portion of the UART
  41:Generated_Source\PSoC5/MIDI2_UART_INT.c ****     *
  42:Generated_Source\PSoC5/MIDI2_UART_INT.c ****     * Parameters:
  43:Generated_Source\PSoC5/MIDI2_UART_INT.c ****     *  None.
  44:Generated_Source\PSoC5/MIDI2_UART_INT.c ****     *
  45:Generated_Source\PSoC5/MIDI2_UART_INT.c ****     * Return:
  46:Generated_Source\PSoC5/MIDI2_UART_INT.c ****     *  None.
  47:Generated_Source\PSoC5/MIDI2_UART_INT.c ****     *
  48:Generated_Source\PSoC5/MIDI2_UART_INT.c ****     * Global Variables:
  49:Generated_Source\PSoC5/MIDI2_UART_INT.c ****     *  MIDI2_UART_rxBuffer - RAM buffer pointer for save received data.
  50:Generated_Source\PSoC5/MIDI2_UART_INT.c ****     *  MIDI2_UART_rxBufferWrite - cyclic index for write to rxBuffer,
  51:Generated_Source\PSoC5/MIDI2_UART_INT.c ****     *     increments after each byte saved to buffer.
  52:Generated_Source\PSoC5/MIDI2_UART_INT.c ****     *  MIDI2_UART_rxBufferRead - cyclic index for read from rxBuffer,
  53:Generated_Source\PSoC5/MIDI2_UART_INT.c ****     *     checked to detect overflow condition.
  54:Generated_Source\PSoC5/MIDI2_UART_INT.c ****     *  MIDI2_UART_rxBufferOverflow - software overflow flag. Set to one
  55:Generated_Source\PSoC5/MIDI2_UART_INT.c ****     *     when MIDI2_UART_rxBufferWrite index overtakes
  56:Generated_Source\PSoC5/MIDI2_UART_INT.c ****     *     MIDI2_UART_rxBufferRead index.
  57:Generated_Source\PSoC5/MIDI2_UART_INT.c ****     *  MIDI2_UART_rxBufferLoopDetect - additional variable to detect overflow.
  58:Generated_Source\PSoC5/MIDI2_UART_INT.c ****     *     Set to one when MIDI2_UART_rxBufferWrite is equal to
  59:Generated_Source\PSoC5/MIDI2_UART_INT.c ****     *    MIDI2_UART_rxBufferRead
  60:Generated_Source\PSoC5/MIDI2_UART_INT.c ****     *  MIDI2_UART_rxAddressMode - this variable contains the Address mode,
  61:Generated_Source\PSoC5/MIDI2_UART_INT.c ****     *     selected in customizer or set by UART_SetRxAddressMode() API.
  62:Generated_Source\PSoC5/MIDI2_UART_INT.c ****     *  MIDI2_UART_rxAddressDetected - set to 1 when correct address received,
  63:Generated_Source\PSoC5/MIDI2_UART_INT.c ****     *     and analysed to store following addressed data bytes to the buffer.
  64:Generated_Source\PSoC5/MIDI2_UART_INT.c ****     *     When not correct address received, set to 0 to skip following data bytes.
  65:Generated_Source\PSoC5/MIDI2_UART_INT.c ****     *
  66:Generated_Source\PSoC5/MIDI2_UART_INT.c ****     *******************************************************************************/
  67:Generated_Source\PSoC5/MIDI2_UART_INT.c ****     CY_ISR(MIDI2_UART_RXISR)
  68:Generated_Source\PSoC5/MIDI2_UART_INT.c ****     {
  27              		.loc 1 68 0
  28              		.cfi_startproc
  29              		@ args = 0, pretend = 0, frame = 0
  30              		@ frame_needed = 0, uses_anonymous_args = 0
  31              	.LVL0:
  69:Generated_Source\PSoC5/MIDI2_UART_INT.c ****         uint8 readData;
  70:Generated_Source\PSoC5/MIDI2_UART_INT.c ****         uint8 increment_pointer = 0u;
  71:Generated_Source\PSoC5/MIDI2_UART_INT.c ****         #if(CY_PSOC3)
  72:Generated_Source\PSoC5/MIDI2_UART_INT.c ****             uint8 int_en;
  73:Generated_Source\PSoC5/MIDI2_UART_INT.c ****         #endif /* CY_PSOC3 */
  74:Generated_Source\PSoC5/MIDI2_UART_INT.c **** 
  75:Generated_Source\PSoC5/MIDI2_UART_INT.c ****         /* User code required at start of ISR */
  76:Generated_Source\PSoC5/MIDI2_UART_INT.c ****         /* `#START MIDI2_UART_RXISR_START` */
  77:Generated_Source\PSoC5/MIDI2_UART_INT.c ****         //LED_InB_Write(1);
  78:Generated_Source\PSoC5/MIDI2_UART_INT.c ****         /* `#END` */
  79:Generated_Source\PSoC5/MIDI2_UART_INT.c **** 
  80:Generated_Source\PSoC5/MIDI2_UART_INT.c ****         #if(CY_PSOC3)   /* Make sure nested interrupt is enabled */
  81:Generated_Source\PSoC5/MIDI2_UART_INT.c ****             int_en = EA;
  82:Generated_Source\PSoC5/MIDI2_UART_INT.c ****             CyGlobalIntEnable;
  83:Generated_Source\PSoC5/MIDI2_UART_INT.c ****         #endif /* CY_PSOC3 */
ARM GAS  C:\Users\anjmarqu\AppData\Local\Temp\ccfbkqQm.s 			page 3


  84:Generated_Source\PSoC5/MIDI2_UART_INT.c **** 
  85:Generated_Source\PSoC5/MIDI2_UART_INT.c ****         readData = MIDI2_UART_RXSTATUS_REG;
  32              		.loc 1 85 0
  33 0000 1849     		ldr	r1, .L15
  34 0002 0B78     		ldrb	r3, [r1]	@ zero_extendqisi2
  35              	.LVL1:
  86:Generated_Source\PSoC5/MIDI2_UART_INT.c **** 
  87:Generated_Source\PSoC5/MIDI2_UART_INT.c ****         if((readData & (MIDI2_UART_RX_STS_BREAK | MIDI2_UART_RX_STS_PAR_ERROR |
  88:Generated_Source\PSoC5/MIDI2_UART_INT.c ****                         MIDI2_UART_RX_STS_STOP_ERROR | MIDI2_UART_RX_STS_OVERRUN)) != 0u)
  89:Generated_Source\PSoC5/MIDI2_UART_INT.c ****         {
  90:Generated_Source\PSoC5/MIDI2_UART_INT.c ****             /* ERROR handling. */
  91:Generated_Source\PSoC5/MIDI2_UART_INT.c ****             /* `#START MIDI2_UART_RXISR_ERROR` */
  92:Generated_Source\PSoC5/MIDI2_UART_INT.c **** 
  93:Generated_Source\PSoC5/MIDI2_UART_INT.c ****             /* `#END` */
  94:Generated_Source\PSoC5/MIDI2_UART_INT.c ****         }
  95:Generated_Source\PSoC5/MIDI2_UART_INT.c **** 
  96:Generated_Source\PSoC5/MIDI2_UART_INT.c ****         while((readData & MIDI2_UART_RX_STS_FIFO_NOTEMPTY) != 0u)
  36              		.loc 1 96 0
  37 0004 9A06     		lsls	r2, r3, #26
  38 0006 2CD5     		bpl	.L13
  39 0008 174A     		ldr	r2, .L15+4
  68:Generated_Source\PSoC5/MIDI2_UART_INT.c ****         uint8 readData;
  40              		.loc 1 68 0
  41 000a 2DE9F043 		push	{r4, r5, r6, r7, r8, r9, lr}
  42              		.cfi_def_cfa_offset 28
  43              		.cfi_offset 4, -28
  44              		.cfi_offset 5, -24
  45              		.cfi_offset 6, -20
  46              		.cfi_offset 7, -16
  47              		.cfi_offset 8, -12
  48              		.cfi_offset 9, -8
  49              		.cfi_offset 14, -4
  97:Generated_Source\PSoC5/MIDI2_UART_INT.c ****         {
  98:Generated_Source\PSoC5/MIDI2_UART_INT.c **** 
  99:Generated_Source\PSoC5/MIDI2_UART_INT.c ****             #if (MIDI2_UART_RXHW_ADDRESS_ENABLED)
 100:Generated_Source\PSoC5/MIDI2_UART_INT.c ****                 if(MIDI2_UART_rxAddressMode == (uint8)MIDI2_UART__B_UART__AM_SW_DETECT_TO_BUFFER)
 101:Generated_Source\PSoC5/MIDI2_UART_INT.c ****                 {
 102:Generated_Source\PSoC5/MIDI2_UART_INT.c ****                     if((readData & MIDI2_UART_RX_STS_MRKSPC) != 0u)
 103:Generated_Source\PSoC5/MIDI2_UART_INT.c ****                     {
 104:Generated_Source\PSoC5/MIDI2_UART_INT.c ****                         if ((readData & MIDI2_UART_RX_STS_ADDR_MATCH) != 0u)
 105:Generated_Source\PSoC5/MIDI2_UART_INT.c ****                         {
 106:Generated_Source\PSoC5/MIDI2_UART_INT.c ****                             MIDI2_UART_rxAddressDetected = 1u;
 107:Generated_Source\PSoC5/MIDI2_UART_INT.c ****                         }
 108:Generated_Source\PSoC5/MIDI2_UART_INT.c ****                         else
 109:Generated_Source\PSoC5/MIDI2_UART_INT.c ****                         {
 110:Generated_Source\PSoC5/MIDI2_UART_INT.c ****                             MIDI2_UART_rxAddressDetected = 0u;
 111:Generated_Source\PSoC5/MIDI2_UART_INT.c ****                         }
 112:Generated_Source\PSoC5/MIDI2_UART_INT.c ****                     }
 113:Generated_Source\PSoC5/MIDI2_UART_INT.c **** 
 114:Generated_Source\PSoC5/MIDI2_UART_INT.c ****                     readData = MIDI2_UART_RXDATA_REG;
 115:Generated_Source\PSoC5/MIDI2_UART_INT.c ****                     if(MIDI2_UART_rxAddressDetected != 0u)
 116:Generated_Source\PSoC5/MIDI2_UART_INT.c ****                     {   /* store only addressed data */
 117:Generated_Source\PSoC5/MIDI2_UART_INT.c ****                         MIDI2_UART_rxBuffer[MIDI2_UART_rxBufferWrite] = readData;
 118:Generated_Source\PSoC5/MIDI2_UART_INT.c ****                         increment_pointer = 1u;
 119:Generated_Source\PSoC5/MIDI2_UART_INT.c ****                     }
 120:Generated_Source\PSoC5/MIDI2_UART_INT.c ****                 }
 121:Generated_Source\PSoC5/MIDI2_UART_INT.c ****                 else /* without software addressing */
ARM GAS  C:\Users\anjmarqu\AppData\Local\Temp\ccfbkqQm.s 			page 4


 122:Generated_Source\PSoC5/MIDI2_UART_INT.c ****                 {
 123:Generated_Source\PSoC5/MIDI2_UART_INT.c ****                     MIDI2_UART_rxBuffer[MIDI2_UART_rxBufferWrite] = MIDI2_UART_RXDATA_REG;
 124:Generated_Source\PSoC5/MIDI2_UART_INT.c ****                     increment_pointer = 1u;
 125:Generated_Source\PSoC5/MIDI2_UART_INT.c ****                 }
 126:Generated_Source\PSoC5/MIDI2_UART_INT.c ****             #else  /* without addressing */
 127:Generated_Source\PSoC5/MIDI2_UART_INT.c ****                 MIDI2_UART_rxBuffer[MIDI2_UART_rxBufferWrite] = MIDI2_UART_RXDATA_REG;
 128:Generated_Source\PSoC5/MIDI2_UART_INT.c ****                 increment_pointer = 1u;
 129:Generated_Source\PSoC5/MIDI2_UART_INT.c ****             #endif /* End SW_DETECT_TO_BUFFER */
 130:Generated_Source\PSoC5/MIDI2_UART_INT.c **** 
 131:Generated_Source\PSoC5/MIDI2_UART_INT.c ****             /* do not increment buffer pointer when skip not adderessed data */
 132:Generated_Source\PSoC5/MIDI2_UART_INT.c ****             if( increment_pointer != 0u )
 133:Generated_Source\PSoC5/MIDI2_UART_INT.c ****             {
 134:Generated_Source\PSoC5/MIDI2_UART_INT.c ****                 if(MIDI2_UART_rxBufferLoopDetect != 0u)
 135:Generated_Source\PSoC5/MIDI2_UART_INT.c ****                 {   /* Set Software Buffer status Overflow */
 136:Generated_Source\PSoC5/MIDI2_UART_INT.c ****                     MIDI2_UART_rxBufferOverflow = 1u;
 137:Generated_Source\PSoC5/MIDI2_UART_INT.c ****                 }
 138:Generated_Source\PSoC5/MIDI2_UART_INT.c ****                 /* Set next pointer. */
 139:Generated_Source\PSoC5/MIDI2_UART_INT.c ****                 MIDI2_UART_rxBufferWrite++;
  50              		.loc 1 139 0
  51 000e 9046     		mov	r8, r2
  52 0010 164E     		ldr	r6, .L15+8
  53 0012 1748     		ldr	r0, .L15+12
  54 0014 174D     		ldr	r5, .L15+16
 127:Generated_Source\PSoC5/MIDI2_UART_INT.c ****                 increment_pointer = 1u;
  55              		.loc 1 127 0
  56 0016 184C     		ldr	r4, .L15+20
 136:Generated_Source\PSoC5/MIDI2_UART_INT.c ****                 }
  57              		.loc 1 136 0
  58 0018 DFF860E0 		ldr	lr, .L15+24
  59 001c 0127     		movs	r7, #1
 140:Generated_Source\PSoC5/MIDI2_UART_INT.c **** 
 141:Generated_Source\PSoC5/MIDI2_UART_INT.c ****                 /* Check pointer for a loop condition */
 142:Generated_Source\PSoC5/MIDI2_UART_INT.c ****                 if(MIDI2_UART_rxBufferWrite >= MIDI2_UART_RXBUFFERSIZE)
 143:Generated_Source\PSoC5/MIDI2_UART_INT.c ****                 {
 144:Generated_Source\PSoC5/MIDI2_UART_INT.c ****                     MIDI2_UART_rxBufferWrite = 0u;
  60              		.loc 1 144 0
  61 001e 4FF0000C 		mov	ip, #0
  62              	.LVL2:
  63              	.L2:
 127:Generated_Source\PSoC5/MIDI2_UART_INT.c ****                 increment_pointer = 1u;
  64              		.loc 1 127 0
  65 0022 1378     		ldrb	r3, [r2]	@ zero_extendqisi2
  66 0024 94F80090 		ldrb	r9, [r4]	@ zero_extendqisi2
  67 0028 DBB2     		uxtb	r3, r3
  68 002a 5FFA89F9 		uxtb	r9, r9
  69 002e 06F80390 		strb	r9, [r6, r3]
  70              	.LVL3:
 134:Generated_Source\PSoC5/MIDI2_UART_INT.c ****                 {   /* Set Software Buffer status Overflow */
  71              		.loc 1 134 0
  72 0032 0378     		ldrb	r3, [r0]	@ zero_extendqisi2
  73 0034 0BB1     		cbz	r3, .L3
 136:Generated_Source\PSoC5/MIDI2_UART_INT.c ****                 }
  74              		.loc 1 136 0
  75 0036 8EF80070 		strb	r7, [lr]
  76              	.L3:
 139:Generated_Source\PSoC5/MIDI2_UART_INT.c **** 
  77              		.loc 1 139 0
ARM GAS  C:\Users\anjmarqu\AppData\Local\Temp\ccfbkqQm.s 			page 5


  78 003a 1378     		ldrb	r3, [r2]	@ zero_extendqisi2
  79 003c 0133     		adds	r3, r3, #1
  80 003e DBB2     		uxtb	r3, r3
  81 0040 1370     		strb	r3, [r2]
 142:Generated_Source\PSoC5/MIDI2_UART_INT.c ****                 {
  82              		.loc 1 142 0
  83 0042 1378     		ldrb	r3, [r2]	@ zero_extendqisi2
  84 0044 FF2B     		cmp	r3, #255
  85              		.loc 1 144 0
  86 0046 08BF     		it	eq
  87 0048 88F800C0 		strbeq	ip, [r8]
 145:Generated_Source\PSoC5/MIDI2_UART_INT.c ****                 }
 146:Generated_Source\PSoC5/MIDI2_UART_INT.c ****                 /* Detect pre-overload condition and set flag */
 147:Generated_Source\PSoC5/MIDI2_UART_INT.c ****                 if(MIDI2_UART_rxBufferWrite == MIDI2_UART_rxBufferRead)
  88              		.loc 1 147 0
  89 004c 92F80090 		ldrb	r9, [r2]	@ zero_extendqisi2
  90 0050 2B78     		ldrb	r3, [r5]	@ zero_extendqisi2
  91 0052 9945     		cmp	r9, r3
 148:Generated_Source\PSoC5/MIDI2_UART_INT.c ****                 {
 149:Generated_Source\PSoC5/MIDI2_UART_INT.c ****                     MIDI2_UART_rxBufferLoopDetect = 1u;
  92              		.loc 1 149 0
  93 0054 08BF     		it	eq
  94 0056 0770     		strbeq	r7, [r0]
 150:Generated_Source\PSoC5/MIDI2_UART_INT.c ****                     /* When Hardware Flow Control selected */
 151:Generated_Source\PSoC5/MIDI2_UART_INT.c ****                     #if(MIDI2_UART_FLOW_CONTROL != 0u)
 152:Generated_Source\PSoC5/MIDI2_UART_INT.c ****                     /* Disable RX interrupt mask, it will be enabled when user read data from the b
 153:Generated_Source\PSoC5/MIDI2_UART_INT.c ****                         MIDI2_UART_RXSTATUS_MASK_REG  &= (uint8)~MIDI2_UART_RX_STS_FIFO_NOTEMPTY;
 154:Generated_Source\PSoC5/MIDI2_UART_INT.c ****                         CyIntClearPending(MIDI2_UART_RX_VECT_NUM);
 155:Generated_Source\PSoC5/MIDI2_UART_INT.c ****                         break; /* Break the reading of the FIFO loop, leave the data there for gene
 156:Generated_Source\PSoC5/MIDI2_UART_INT.c ****                     #endif /* End MIDI2_UART_FLOW_CONTROL != 0 */
 157:Generated_Source\PSoC5/MIDI2_UART_INT.c ****                 }
 158:Generated_Source\PSoC5/MIDI2_UART_INT.c ****             }
 159:Generated_Source\PSoC5/MIDI2_UART_INT.c **** 
 160:Generated_Source\PSoC5/MIDI2_UART_INT.c ****             /* Check again if there is data. */
 161:Generated_Source\PSoC5/MIDI2_UART_INT.c ****             readData = MIDI2_UART_RXSTATUS_REG;
  95              		.loc 1 161 0
  96 0058 0B78     		ldrb	r3, [r1]	@ zero_extendqisi2
  97              	.LVL4:
  96:Generated_Source\PSoC5/MIDI2_UART_INT.c ****         {
  98              		.loc 1 96 0
  99 005a 9B06     		lsls	r3, r3, #26
 100              	.LVL5:
 101 005c E1D4     		bmi	.L2
 102 005e BDE8F083 		pop	{r4, r5, r6, r7, r8, r9, pc}
 103              	.LVL6:
 104              	.L13:
 105              		.cfi_def_cfa_offset 0
 106              		.cfi_restore 4
 107              		.cfi_restore 5
 108              		.cfi_restore 6
 109              		.cfi_restore 7
 110              		.cfi_restore 8
 111              		.cfi_restore 9
 112              		.cfi_restore 14
 113 0062 7047     		bx	lr
 114              	.L16:
 115              		.align	2
ARM GAS  C:\Users\anjmarqu\AppData\Local\Temp\ccfbkqQm.s 			page 6


 116              	.L15:
 117 0064 63640040 		.word	1073767523
 118 0068 00000000 		.word	MIDI2_UART_rxBufferWrite
 119 006c 00000000 		.word	MIDI2_UART_rxBuffer
 120 0070 00000000 		.word	MIDI2_UART_rxBufferLoopDetect
 121 0074 00000000 		.word	MIDI2_UART_rxBufferRead
 122 0078 40640040 		.word	1073767488
 123 007c 00000000 		.word	MIDI2_UART_rxBufferOverflow
 124              		.cfi_endproc
 125              	.LFE0:
 126              		.size	MIDI2_UART_RXISR, .-MIDI2_UART_RXISR
 127              		.section	.text.MIDI2_UART_TXISR,"ax",%progbits
 128              		.align	2
 129              		.global	MIDI2_UART_TXISR
 130              		.thumb
 131              		.thumb_func
 132              		.type	MIDI2_UART_TXISR, %function
 133              	MIDI2_UART_TXISR:
 134              	.LFB1:
 162:Generated_Source\PSoC5/MIDI2_UART_INT.c ****         }
 163:Generated_Source\PSoC5/MIDI2_UART_INT.c **** 
 164:Generated_Source\PSoC5/MIDI2_UART_INT.c ****         /* User code required at end of ISR (Optional) */
 165:Generated_Source\PSoC5/MIDI2_UART_INT.c ****         /* `#START MIDI2_UART_RXISR_END` */
 166:Generated_Source\PSoC5/MIDI2_UART_INT.c ****         #if(USB_EP_MM == USB__EP_DMAAUTO) 
 167:Generated_Source\PSoC5/MIDI2_UART_INT.c ****             USB_MIDI_IN_Service();
 168:Generated_Source\PSoC5/MIDI2_UART_INT.c ****         #endif
 169:Generated_Source\PSoC5/MIDI2_UART_INT.c ****         //LED_InB_Write(0);
 170:Generated_Source\PSoC5/MIDI2_UART_INT.c ****         /* `#END` */
 171:Generated_Source\PSoC5/MIDI2_UART_INT.c **** 
 172:Generated_Source\PSoC5/MIDI2_UART_INT.c ****         #if(CY_PSOC3)
 173:Generated_Source\PSoC5/MIDI2_UART_INT.c ****             EA = int_en;
 174:Generated_Source\PSoC5/MIDI2_UART_INT.c ****         #endif /* CY_PSOC3 */
 175:Generated_Source\PSoC5/MIDI2_UART_INT.c **** 
 176:Generated_Source\PSoC5/MIDI2_UART_INT.c ****     }
 177:Generated_Source\PSoC5/MIDI2_UART_INT.c **** 
 178:Generated_Source\PSoC5/MIDI2_UART_INT.c **** #endif /* End MIDI2_UART_RX_ENABLED && (MIDI2_UART_RXBUFFERSIZE > MIDI2_UART_FIFO_LENGTH) */
 179:Generated_Source\PSoC5/MIDI2_UART_INT.c **** 
 180:Generated_Source\PSoC5/MIDI2_UART_INT.c **** 
 181:Generated_Source\PSoC5/MIDI2_UART_INT.c **** #if(MIDI2_UART_TX_ENABLED && (MIDI2_UART_TXBUFFERSIZE > MIDI2_UART_FIFO_LENGTH))
 182:Generated_Source\PSoC5/MIDI2_UART_INT.c **** 
 183:Generated_Source\PSoC5/MIDI2_UART_INT.c **** 
 184:Generated_Source\PSoC5/MIDI2_UART_INT.c ****     /*******************************************************************************
 185:Generated_Source\PSoC5/MIDI2_UART_INT.c ****     * Function Name: MIDI2_UART_TXISR
 186:Generated_Source\PSoC5/MIDI2_UART_INT.c ****     ********************************************************************************
 187:Generated_Source\PSoC5/MIDI2_UART_INT.c ****     *
 188:Generated_Source\PSoC5/MIDI2_UART_INT.c ****     * Summary:
 189:Generated_Source\PSoC5/MIDI2_UART_INT.c ****     * Interrupt Service Routine for the TX portion of the UART
 190:Generated_Source\PSoC5/MIDI2_UART_INT.c ****     *
 191:Generated_Source\PSoC5/MIDI2_UART_INT.c ****     * Parameters:
 192:Generated_Source\PSoC5/MIDI2_UART_INT.c ****     *  None.
 193:Generated_Source\PSoC5/MIDI2_UART_INT.c ****     *
 194:Generated_Source\PSoC5/MIDI2_UART_INT.c ****     * Return:
 195:Generated_Source\PSoC5/MIDI2_UART_INT.c ****     *  None.
 196:Generated_Source\PSoC5/MIDI2_UART_INT.c ****     *
 197:Generated_Source\PSoC5/MIDI2_UART_INT.c ****     * Global Variables:
 198:Generated_Source\PSoC5/MIDI2_UART_INT.c ****     *  MIDI2_UART_txBuffer - RAM buffer pointer for transmit data from.
 199:Generated_Source\PSoC5/MIDI2_UART_INT.c ****     *  MIDI2_UART_txBufferRead - cyclic index for read and transmit data
ARM GAS  C:\Users\anjmarqu\AppData\Local\Temp\ccfbkqQm.s 			page 7


 200:Generated_Source\PSoC5/MIDI2_UART_INT.c ****     *     from txBuffer, increments after each transmited byte.
 201:Generated_Source\PSoC5/MIDI2_UART_INT.c ****     *  MIDI2_UART_rxBufferWrite - cyclic index for write to txBuffer,
 202:Generated_Source\PSoC5/MIDI2_UART_INT.c ****     *     checked to detect available for transmission bytes.
 203:Generated_Source\PSoC5/MIDI2_UART_INT.c ****     *
 204:Generated_Source\PSoC5/MIDI2_UART_INT.c ****     *******************************************************************************/
 205:Generated_Source\PSoC5/MIDI2_UART_INT.c ****     CY_ISR(MIDI2_UART_TXISR)
 206:Generated_Source\PSoC5/MIDI2_UART_INT.c ****     {
 135              		.loc 1 206 0
 136              		.cfi_startproc
 137              		@ args = 0, pretend = 0, frame = 0
 138              		@ frame_needed = 0, uses_anonymous_args = 0
 207:Generated_Source\PSoC5/MIDI2_UART_INT.c **** 
 208:Generated_Source\PSoC5/MIDI2_UART_INT.c ****         #if(CY_PSOC3)
 209:Generated_Source\PSoC5/MIDI2_UART_INT.c ****             uint8 int_en;
 210:Generated_Source\PSoC5/MIDI2_UART_INT.c ****         #endif /* CY_PSOC3 */
 211:Generated_Source\PSoC5/MIDI2_UART_INT.c **** 
 212:Generated_Source\PSoC5/MIDI2_UART_INT.c ****         /* User code required at start of ISR */
 213:Generated_Source\PSoC5/MIDI2_UART_INT.c ****         /* `#START MIDI2_UART_TXISR_START` */
 214:Generated_Source\PSoC5/MIDI2_UART_INT.c **** 
 215:Generated_Source\PSoC5/MIDI2_UART_INT.c ****         /* `#END` */
 216:Generated_Source\PSoC5/MIDI2_UART_INT.c **** 
 217:Generated_Source\PSoC5/MIDI2_UART_INT.c ****         #if(CY_PSOC3)   /* Make sure nested interrupt is enabled */
 218:Generated_Source\PSoC5/MIDI2_UART_INT.c ****             int_en = EA;
 219:Generated_Source\PSoC5/MIDI2_UART_INT.c ****             CyGlobalIntEnable;
 220:Generated_Source\PSoC5/MIDI2_UART_INT.c ****         #endif /* CY_PSOC3 */
 221:Generated_Source\PSoC5/MIDI2_UART_INT.c **** 
 222:Generated_Source\PSoC5/MIDI2_UART_INT.c ****         while((MIDI2_UART_txBufferRead != MIDI2_UART_txBufferWrite) &&
 139              		.loc 1 222 0
 140 0000 144A     		ldr	r2, .L27
 141 0002 1548     		ldr	r0, .L27+4
 142 0004 1378     		ldrb	r3, [r2]	@ zero_extendqisi2
 143 0006 0178     		ldrb	r1, [r0]	@ zero_extendqisi2
 144 0008 9942     		cmp	r1, r3
 145 000a 21D0     		beq	.L25
 206:Generated_Source\PSoC5/MIDI2_UART_INT.c **** 
 146              		.loc 1 206 0
 147 000c F0B5     		push	{r4, r5, r6, r7, lr}
 148              		.cfi_def_cfa_offset 20
 149              		.cfi_offset 4, -20
 150              		.cfi_offset 5, -16
 151              		.cfi_offset 6, -12
 152              		.cfi_offset 7, -8
 153              		.cfi_offset 14, -4
 223:Generated_Source\PSoC5/MIDI2_UART_INT.c ****              ((MIDI2_UART_TXSTATUS_REG & MIDI2_UART_TX_STS_FIFO_FULL) == 0u))
 154              		.loc 1 223 0
 155 000e 1349     		ldr	r1, .L27+8
 156 0010 0B78     		ldrb	r3, [r1]	@ zero_extendqisi2
 157 0012 03F00403 		and	r3, r3, #4
 222:Generated_Source\PSoC5/MIDI2_UART_INT.c ****              ((MIDI2_UART_TXSTATUS_REG & MIDI2_UART_TX_STS_FIFO_FULL) == 0u))
 158              		.loc 1 222 0
 159 0016 03F0FF06 		and	r6, r3, #255
 160 001a C3B9     		cbnz	r3, .L17
 224:Generated_Source\PSoC5/MIDI2_UART_INT.c ****         {
 225:Generated_Source\PSoC5/MIDI2_UART_INT.c ****             /* Check pointer. */
 226:Generated_Source\PSoC5/MIDI2_UART_INT.c ****             if(MIDI2_UART_txBufferRead >= MIDI2_UART_TXBUFFERSIZE)
 161              		.loc 1 226 0
 162 001c 1746     		mov	r7, r2
ARM GAS  C:\Users\anjmarqu\AppData\Local\Temp\ccfbkqQm.s 			page 8


 163 001e 104D     		ldr	r5, .L27+12
 227:Generated_Source\PSoC5/MIDI2_UART_INT.c ****             {
 228:Generated_Source\PSoC5/MIDI2_UART_INT.c ****                 MIDI2_UART_txBufferRead = 0u;
 229:Generated_Source\PSoC5/MIDI2_UART_INT.c ****             }
 230:Generated_Source\PSoC5/MIDI2_UART_INT.c **** 
 231:Generated_Source\PSoC5/MIDI2_UART_INT.c ****             MIDI2_UART_TXDATA_REG = MIDI2_UART_txBuffer[MIDI2_UART_txBufferRead];
 164              		.loc 1 231 0
 165 0020 104C     		ldr	r4, .L27+16
 166 0022 02E0     		b	.L21
 167              	.L26:
 223:Generated_Source\PSoC5/MIDI2_UART_INT.c ****         {
 168              		.loc 1 223 0 discriminator 1
 169 0024 0B78     		ldrb	r3, [r1]	@ zero_extendqisi2
 222:Generated_Source\PSoC5/MIDI2_UART_INT.c ****              ((MIDI2_UART_TXSTATUS_REG & MIDI2_UART_TX_STS_FIFO_FULL) == 0u))
 170              		.loc 1 222 0 discriminator 1
 171 0026 5B07     		lsls	r3, r3, #29
 172 0028 11D4     		bmi	.L17
 173              	.L21:
 226:Generated_Source\PSoC5/MIDI2_UART_INT.c ****             {
 174              		.loc 1 226 0
 175 002a 1378     		ldrb	r3, [r2]	@ zero_extendqisi2
 176 002c FF2B     		cmp	r3, #255
 228:Generated_Source\PSoC5/MIDI2_UART_INT.c ****             }
 177              		.loc 1 228 0
 178 002e 08BF     		it	eq
 179 0030 3E70     		strbeq	r6, [r7]
 180              		.loc 1 231 0
 181 0032 1378     		ldrb	r3, [r2]	@ zero_extendqisi2
 182 0034 DBB2     		uxtb	r3, r3
 183 0036 EB5C     		ldrb	r3, [r5, r3]	@ zero_extendqisi2
 184 0038 DBB2     		uxtb	r3, r3
 185 003a 2370     		strb	r3, [r4]
 232:Generated_Source\PSoC5/MIDI2_UART_INT.c **** 
 233:Generated_Source\PSoC5/MIDI2_UART_INT.c ****             /* Set next pointer. */
 234:Generated_Source\PSoC5/MIDI2_UART_INT.c ****             MIDI2_UART_txBufferRead++;
 186              		.loc 1 234 0
 187 003c 1378     		ldrb	r3, [r2]	@ zero_extendqisi2
 222:Generated_Source\PSoC5/MIDI2_UART_INT.c ****              ((MIDI2_UART_TXSTATUS_REG & MIDI2_UART_TX_STS_FIFO_FULL) == 0u))
 188              		.loc 1 222 0
 189 003e 90F800E0 		ldrb	lr, [r0]	@ zero_extendqisi2
 190              		.loc 1 234 0
 191 0042 0133     		adds	r3, r3, #1
 192 0044 DBB2     		uxtb	r3, r3
 193 0046 1370     		strb	r3, [r2]
 222:Generated_Source\PSoC5/MIDI2_UART_INT.c ****              ((MIDI2_UART_TXSTATUS_REG & MIDI2_UART_TX_STS_FIFO_FULL) == 0u))
 194              		.loc 1 222 0
 195 0048 1378     		ldrb	r3, [r2]	@ zero_extendqisi2
 196 004a 9E45     		cmp	lr, r3
 197 004c EAD1     		bne	.L26
 198              	.L17:
 199 004e F0BD     		pop	{r4, r5, r6, r7, pc}
 200              	.L25:
 201              		.cfi_def_cfa_offset 0
 202              		.cfi_restore 4
 203              		.cfi_restore 5
 204              		.cfi_restore 6
 205              		.cfi_restore 7
ARM GAS  C:\Users\anjmarqu\AppData\Local\Temp\ccfbkqQm.s 			page 9


 206              		.cfi_restore 14
 207 0050 7047     		bx	lr
 208              	.L28:
 209 0052 00BF     		.align	2
 210              	.L27:
 211 0054 00000000 		.word	MIDI2_UART_txBufferRead
 212 0058 00000000 		.word	MIDI2_UART_txBufferWrite
 213 005c 68650040 		.word	1073767784
 214 0060 00000000 		.word	MIDI2_UART_txBuffer
 215 0064 49650040 		.word	1073767753
 216              		.cfi_endproc
 217              	.LFE1:
 218              		.size	MIDI2_UART_TXISR, .-MIDI2_UART_TXISR
 219              		.text
 220              	.Letext0:
 221              		.file 2 "Generated_Source\\PSoC5\\cytypes.h"
 222              		.file 3 "Generated_Source\\PSoC5\\MIDI2_UART.h"