ARM GAS  C:\Users\anjmarqu\AppData\Local\Temp\cc7ytAPG.s 			page 1


   1              		.syntax unified
   2              		.cpu cortex-m3
   3              		.fpu softvfp
   4              		.eabi_attribute 20, 1
   5              		.eabi_attribute 21, 1
   6              		.eabi_attribute 23, 3
   7              		.eabi_attribute 24, 1
   8              		.eabi_attribute 25, 1
   9              		.eabi_attribute 26, 1
  10              		.eabi_attribute 30, 2
  11              		.eabi_attribute 34, 1
  12              		.eabi_attribute 18, 4
  13              		.thumb
  14              		.file	"MIDI2_UART.c"
  15              		.text
  16              	.Ltext0:
  17              		.cfi_sections	.debug_frame
  18              		.section	.text.MIDI2_UART_Init,"ax",%progbits
  19              		.align	2
  20              		.global	MIDI2_UART_Init
  21              		.thumb
  22              		.thumb_func
  23              		.type	MIDI2_UART_Init, %function
  24              	MIDI2_UART_Init:
  25              	.LFB1:
  26              		.file 1 "Generated_Source\\PSoC5\\MIDI2_UART.c"
   1:Generated_Source\PSoC5/MIDI2_UART.c **** /*******************************************************************************
   2:Generated_Source\PSoC5/MIDI2_UART.c **** * File Name: MIDI2_UART.c
   3:Generated_Source\PSoC5/MIDI2_UART.c **** * Version 2.30
   4:Generated_Source\PSoC5/MIDI2_UART.c **** *
   5:Generated_Source\PSoC5/MIDI2_UART.c **** * Description:
   6:Generated_Source\PSoC5/MIDI2_UART.c **** *  This file provides all API functionality of the UART component
   7:Generated_Source\PSoC5/MIDI2_UART.c **** *
   8:Generated_Source\PSoC5/MIDI2_UART.c **** * Note:
   9:Generated_Source\PSoC5/MIDI2_UART.c **** *
  10:Generated_Source\PSoC5/MIDI2_UART.c **** ********************************************************************************
  11:Generated_Source\PSoC5/MIDI2_UART.c **** * Copyright 2008-2012, Cypress Semiconductor Corporation.  All rights reserved.
  12:Generated_Source\PSoC5/MIDI2_UART.c **** * You may use this file only in accordance with the license, terms, conditions,
  13:Generated_Source\PSoC5/MIDI2_UART.c **** * disclaimers, and limitations in the end user license agreement accompanying
  14:Generated_Source\PSoC5/MIDI2_UART.c **** * the software package with which this file was provided.
  15:Generated_Source\PSoC5/MIDI2_UART.c **** *******************************************************************************/
  16:Generated_Source\PSoC5/MIDI2_UART.c **** 
  17:Generated_Source\PSoC5/MIDI2_UART.c **** #include "MIDI2_UART.h"
  18:Generated_Source\PSoC5/MIDI2_UART.c **** #include "CyLib.h"
  19:Generated_Source\PSoC5/MIDI2_UART.c **** #if(MIDI2_UART_INTERNAL_CLOCK_USED)
  20:Generated_Source\PSoC5/MIDI2_UART.c ****     #include "MIDI2_UART_IntClock.h"
  21:Generated_Source\PSoC5/MIDI2_UART.c **** #endif /* End MIDI2_UART_INTERNAL_CLOCK_USED */
  22:Generated_Source\PSoC5/MIDI2_UART.c **** 
  23:Generated_Source\PSoC5/MIDI2_UART.c **** 
  24:Generated_Source\PSoC5/MIDI2_UART.c **** /***************************************
  25:Generated_Source\PSoC5/MIDI2_UART.c **** * Global data allocation
  26:Generated_Source\PSoC5/MIDI2_UART.c **** ***************************************/
  27:Generated_Source\PSoC5/MIDI2_UART.c **** 
  28:Generated_Source\PSoC5/MIDI2_UART.c **** uint8 MIDI2_UART_initVar = 0u;
  29:Generated_Source\PSoC5/MIDI2_UART.c **** #if( MIDI2_UART_TX_ENABLED && (MIDI2_UART_TXBUFFERSIZE > MIDI2_UART_FIFO_LENGTH))
  30:Generated_Source\PSoC5/MIDI2_UART.c ****     volatile uint8 MIDI2_UART_txBuffer[MIDI2_UART_TXBUFFERSIZE];
  31:Generated_Source\PSoC5/MIDI2_UART.c ****     volatile uint8 MIDI2_UART_txBufferRead = 0u;
ARM GAS  C:\Users\anjmarqu\AppData\Local\Temp\cc7ytAPG.s 			page 2


  32:Generated_Source\PSoC5/MIDI2_UART.c ****     uint8 MIDI2_UART_txBufferWrite = 0u;
  33:Generated_Source\PSoC5/MIDI2_UART.c **** #endif /* End MIDI2_UART_TX_ENABLED */
  34:Generated_Source\PSoC5/MIDI2_UART.c **** #if( ( MIDI2_UART_RX_ENABLED || MIDI2_UART_HD_ENABLED ) && \
  35:Generated_Source\PSoC5/MIDI2_UART.c ****      (MIDI2_UART_RXBUFFERSIZE > MIDI2_UART_FIFO_LENGTH) )
  36:Generated_Source\PSoC5/MIDI2_UART.c ****     volatile uint8 MIDI2_UART_rxBuffer[MIDI2_UART_RXBUFFERSIZE];
  37:Generated_Source\PSoC5/MIDI2_UART.c ****     volatile uint8 MIDI2_UART_rxBufferRead = 0u;
  38:Generated_Source\PSoC5/MIDI2_UART.c ****     volatile uint8 MIDI2_UART_rxBufferWrite = 0u;
  39:Generated_Source\PSoC5/MIDI2_UART.c ****     volatile uint8 MIDI2_UART_rxBufferLoopDetect = 0u;
  40:Generated_Source\PSoC5/MIDI2_UART.c ****     volatile uint8 MIDI2_UART_rxBufferOverflow = 0u;
  41:Generated_Source\PSoC5/MIDI2_UART.c ****     #if (MIDI2_UART_RXHW_ADDRESS_ENABLED)
  42:Generated_Source\PSoC5/MIDI2_UART.c ****         volatile uint8 MIDI2_UART_rxAddressMode = MIDI2_UART_RXADDRESSMODE;
  43:Generated_Source\PSoC5/MIDI2_UART.c ****         volatile uint8 MIDI2_UART_rxAddressDetected = 0u;
  44:Generated_Source\PSoC5/MIDI2_UART.c ****     #endif /* End EnableHWAddress */
  45:Generated_Source\PSoC5/MIDI2_UART.c **** #endif /* End MIDI2_UART_RX_ENABLED */
  46:Generated_Source\PSoC5/MIDI2_UART.c **** 
  47:Generated_Source\PSoC5/MIDI2_UART.c **** 
  48:Generated_Source\PSoC5/MIDI2_UART.c **** /*******************************************************************************
  49:Generated_Source\PSoC5/MIDI2_UART.c **** * Function Name: MIDI2_UART_Start
  50:Generated_Source\PSoC5/MIDI2_UART.c **** ********************************************************************************
  51:Generated_Source\PSoC5/MIDI2_UART.c **** *
  52:Generated_Source\PSoC5/MIDI2_UART.c **** * Summary:
  53:Generated_Source\PSoC5/MIDI2_UART.c **** *  Initialize and Enable the UART component.
  54:Generated_Source\PSoC5/MIDI2_UART.c **** *  Enable the clock input to enable operation.
  55:Generated_Source\PSoC5/MIDI2_UART.c **** *
  56:Generated_Source\PSoC5/MIDI2_UART.c **** * Parameters:
  57:Generated_Source\PSoC5/MIDI2_UART.c **** *  None.
  58:Generated_Source\PSoC5/MIDI2_UART.c **** *
  59:Generated_Source\PSoC5/MIDI2_UART.c **** * Return:
  60:Generated_Source\PSoC5/MIDI2_UART.c **** *  None.
  61:Generated_Source\PSoC5/MIDI2_UART.c **** *
  62:Generated_Source\PSoC5/MIDI2_UART.c **** * Global variables:
  63:Generated_Source\PSoC5/MIDI2_UART.c **** *  The MIDI2_UART_intiVar variable is used to indicate initial
  64:Generated_Source\PSoC5/MIDI2_UART.c **** *  configuration of this component. The variable is initialized to zero (0u)
  65:Generated_Source\PSoC5/MIDI2_UART.c **** *  and set to one (1u) the first time UART_Start() is called. This allows for
  66:Generated_Source\PSoC5/MIDI2_UART.c **** *  component initialization without re-initialization in all subsequent calls
  67:Generated_Source\PSoC5/MIDI2_UART.c **** *  to the MIDI2_UART_Start() routine.
  68:Generated_Source\PSoC5/MIDI2_UART.c **** *
  69:Generated_Source\PSoC5/MIDI2_UART.c **** * Reentrant:
  70:Generated_Source\PSoC5/MIDI2_UART.c **** *  No.
  71:Generated_Source\PSoC5/MIDI2_UART.c **** *
  72:Generated_Source\PSoC5/MIDI2_UART.c **** *******************************************************************************/
  73:Generated_Source\PSoC5/MIDI2_UART.c **** void MIDI2_UART_Start(void) 
  74:Generated_Source\PSoC5/MIDI2_UART.c **** {
  75:Generated_Source\PSoC5/MIDI2_UART.c ****     /* If not Initialized then initialize all required hardware and software */
  76:Generated_Source\PSoC5/MIDI2_UART.c ****     if(MIDI2_UART_initVar == 0u)
  77:Generated_Source\PSoC5/MIDI2_UART.c ****     {
  78:Generated_Source\PSoC5/MIDI2_UART.c ****         MIDI2_UART_Init();
  79:Generated_Source\PSoC5/MIDI2_UART.c ****         MIDI2_UART_initVar = 1u;
  80:Generated_Source\PSoC5/MIDI2_UART.c ****     }
  81:Generated_Source\PSoC5/MIDI2_UART.c ****     MIDI2_UART_Enable();
  82:Generated_Source\PSoC5/MIDI2_UART.c **** }
  83:Generated_Source\PSoC5/MIDI2_UART.c **** 
  84:Generated_Source\PSoC5/MIDI2_UART.c **** 
  85:Generated_Source\PSoC5/MIDI2_UART.c **** /*******************************************************************************
  86:Generated_Source\PSoC5/MIDI2_UART.c **** * Function Name: MIDI2_UART_Init
  87:Generated_Source\PSoC5/MIDI2_UART.c **** ********************************************************************************
  88:Generated_Source\PSoC5/MIDI2_UART.c **** *
ARM GAS  C:\Users\anjmarqu\AppData\Local\Temp\cc7ytAPG.s 			page 3


  89:Generated_Source\PSoC5/MIDI2_UART.c **** * Summary:
  90:Generated_Source\PSoC5/MIDI2_UART.c **** *  Initialize component's parameters to the parameters set by user in the
  91:Generated_Source\PSoC5/MIDI2_UART.c **** *  customizer of the component placed onto schematic. Usually called in
  92:Generated_Source\PSoC5/MIDI2_UART.c **** *  MIDI2_UART_Start().
  93:Generated_Source\PSoC5/MIDI2_UART.c **** *
  94:Generated_Source\PSoC5/MIDI2_UART.c **** * Parameters:
  95:Generated_Source\PSoC5/MIDI2_UART.c **** *  None.
  96:Generated_Source\PSoC5/MIDI2_UART.c **** *
  97:Generated_Source\PSoC5/MIDI2_UART.c **** * Return:
  98:Generated_Source\PSoC5/MIDI2_UART.c **** *  None.
  99:Generated_Source\PSoC5/MIDI2_UART.c **** *
 100:Generated_Source\PSoC5/MIDI2_UART.c **** *******************************************************************************/
 101:Generated_Source\PSoC5/MIDI2_UART.c **** void MIDI2_UART_Init(void) 
 102:Generated_Source\PSoC5/MIDI2_UART.c **** {
  27              		.loc 1 102 0
  28              		.cfi_startproc
  29              		@ args = 0, pretend = 0, frame = 0
  30              		@ frame_needed = 0, uses_anonymous_args = 0
  31 0000 38B5     		push	{r3, r4, r5, lr}
  32              		.cfi_def_cfa_offset 16
  33              		.cfi_offset 3, -16
  34              		.cfi_offset 4, -12
  35              		.cfi_offset 5, -8
  36              		.cfi_offset 14, -4
 103:Generated_Source\PSoC5/MIDI2_UART.c ****     #if(MIDI2_UART_RX_ENABLED || MIDI2_UART_HD_ENABLED)
 104:Generated_Source\PSoC5/MIDI2_UART.c **** 
 105:Generated_Source\PSoC5/MIDI2_UART.c ****         #if(MIDI2_UART_RX_INTERRUPT_ENABLED && (MIDI2_UART_RXBUFFERSIZE > MIDI2_UART_FIFO_LENGTH))
 106:Generated_Source\PSoC5/MIDI2_UART.c ****             /* Set the RX Interrupt. */
 107:Generated_Source\PSoC5/MIDI2_UART.c ****             (void)CyIntSetVector(MIDI2_UART_RX_VECT_NUM, &MIDI2_UART_RXISR);
  37              		.loc 1 107 0
  38 0002 1049     		ldr	r1, .L3
  39 0004 0520     		movs	r0, #5
  40 0006 FFF7FEFF 		bl	CyIntSetVector
  41              	.LVL0:
 108:Generated_Source\PSoC5/MIDI2_UART.c ****             CyIntSetPriority(MIDI2_UART_RX_VECT_NUM, MIDI2_UART_RX_PRIOR_NUM);
  42              		.loc 1 108 0
  43 000a 0520     		movs	r0, #5
  44 000c 0721     		movs	r1, #7
  45 000e FFF7FEFF 		bl	CyIntSetPriority
  46              	.LVL1:
 109:Generated_Source\PSoC5/MIDI2_UART.c ****         #endif /* End MIDI2_UART_RX_INTERRUPT_ENABLED */
 110:Generated_Source\PSoC5/MIDI2_UART.c **** 
 111:Generated_Source\PSoC5/MIDI2_UART.c ****         #if (MIDI2_UART_RXHW_ADDRESS_ENABLED)
 112:Generated_Source\PSoC5/MIDI2_UART.c ****             MIDI2_UART_SetRxAddressMode(MIDI2_UART_RXAddressMode);
 113:Generated_Source\PSoC5/MIDI2_UART.c ****             MIDI2_UART_SetRxAddress1(MIDI2_UART_RXHWADDRESS1);
 114:Generated_Source\PSoC5/MIDI2_UART.c ****             MIDI2_UART_SetRxAddress2(MIDI2_UART_RXHWADDRESS2);
 115:Generated_Source\PSoC5/MIDI2_UART.c ****         #endif /* End MIDI2_UART_RXHW_ADDRESS_ENABLED */
 116:Generated_Source\PSoC5/MIDI2_UART.c **** 
 117:Generated_Source\PSoC5/MIDI2_UART.c ****         /* Init Count7 period */
 118:Generated_Source\PSoC5/MIDI2_UART.c ****         MIDI2_UART_RXBITCTR_PERIOD_REG = MIDI2_UART_RXBITCTR_INIT;
 119:Generated_Source\PSoC5/MIDI2_UART.c ****         /* Configure the Initial RX interrupt mask */
 120:Generated_Source\PSoC5/MIDI2_UART.c ****         MIDI2_UART_RXSTATUS_MASK_REG  = MIDI2_UART_INIT_RX_INTERRUPTS_MASK;
  47              		.loc 1 120 0
  48 0012 0D4B     		ldr	r3, .L3+4
 118:Generated_Source\PSoC5/MIDI2_UART.c ****         /* Configure the Initial RX interrupt mask */
  49              		.loc 1 118 0
  50 0014 0D49     		ldr	r1, .L3+8
ARM GAS  C:\Users\anjmarqu\AppData\Local\Temp\cc7ytAPG.s 			page 4


  51              		.loc 1 120 0
  52 0016 2022     		movs	r2, #32
 118:Generated_Source\PSoC5/MIDI2_UART.c ****         /* Configure the Initial RX interrupt mask */
  53              		.loc 1 118 0
  54 0018 7120     		movs	r0, #113
  55 001a 0870     		strb	r0, [r1]
  56              		.loc 1 120 0
  57 001c 1A70     		strb	r2, [r3]
 121:Generated_Source\PSoC5/MIDI2_UART.c ****     #endif /* End MIDI2_UART_RX_ENABLED || MIDI2_UART_HD_ENABLED*/
 122:Generated_Source\PSoC5/MIDI2_UART.c **** 
 123:Generated_Source\PSoC5/MIDI2_UART.c ****     #if(MIDI2_UART_TX_ENABLED)
 124:Generated_Source\PSoC5/MIDI2_UART.c ****         #if(MIDI2_UART_TX_INTERRUPT_ENABLED && (MIDI2_UART_TXBUFFERSIZE > MIDI2_UART_FIFO_LENGTH))
 125:Generated_Source\PSoC5/MIDI2_UART.c ****             /* Set the TX Interrupt. */
 126:Generated_Source\PSoC5/MIDI2_UART.c ****             (void)CyIntSetVector(MIDI2_UART_TX_VECT_NUM, &MIDI2_UART_TXISR);
  58              		.loc 1 126 0
  59 001e 0C49     		ldr	r1, .L3+12
  60 0020 0620     		movs	r0, #6
  61 0022 FFF7FEFF 		bl	CyIntSetVector
  62              	.LVL2:
 127:Generated_Source\PSoC5/MIDI2_UART.c ****             CyIntSetPriority(MIDI2_UART_TX_VECT_NUM, MIDI2_UART_TX_PRIOR_NUM);
  63              		.loc 1 127 0
  64 0026 0620     		movs	r0, #6
  65 0028 0721     		movs	r1, #7
  66 002a FFF7FEFF 		bl	CyIntSetPriority
  67              	.LVL3:
 128:Generated_Source\PSoC5/MIDI2_UART.c ****         #endif /* End MIDI2_UART_TX_INTERRUPT_ENABLED */
 129:Generated_Source\PSoC5/MIDI2_UART.c **** 
 130:Generated_Source\PSoC5/MIDI2_UART.c ****         /* Write Counter Value for TX Bit Clk Generator*/
 131:Generated_Source\PSoC5/MIDI2_UART.c ****         #if(MIDI2_UART_TXCLKGEN_DP)
 132:Generated_Source\PSoC5/MIDI2_UART.c ****             MIDI2_UART_TXBITCLKGEN_CTR_REG = MIDI2_UART_BIT_CENTER;
  68              		.loc 1 132 0
  69 002e 094C     		ldr	r4, .L3+16
 133:Generated_Source\PSoC5/MIDI2_UART.c ****             MIDI2_UART_TXBITCLKTX_COMPLETE_REG = (MIDI2_UART_NUMBER_OF_DATA_BITS +
  70              		.loc 1 133 0
  71 0030 0949     		ldr	r1, .L3+20
 134:Generated_Source\PSoC5/MIDI2_UART.c ****                         MIDI2_UART_NUMBER_OF_START_BIT) * MIDI2_UART_OVER_SAMPLE_COUNT;
 135:Generated_Source\PSoC5/MIDI2_UART.c ****         #else
 136:Generated_Source\PSoC5/MIDI2_UART.c ****             MIDI2_UART_TXBITCTR_PERIOD_REG = ((MIDI2_UART_NUMBER_OF_DATA_BITS +
 137:Generated_Source\PSoC5/MIDI2_UART.c ****                         MIDI2_UART_NUMBER_OF_START_BIT) * MIDI2_UART_OVER_SAMPLE_8) - 1u;
 138:Generated_Source\PSoC5/MIDI2_UART.c ****         #endif /* End MIDI2_UART_TXCLKGEN_DP */
 139:Generated_Source\PSoC5/MIDI2_UART.c **** 
 140:Generated_Source\PSoC5/MIDI2_UART.c ****         /* Configure the Initial TX interrupt mask */
 141:Generated_Source\PSoC5/MIDI2_UART.c ****         #if(MIDI2_UART_TX_INTERRUPT_ENABLED && (MIDI2_UART_TXBUFFERSIZE > MIDI2_UART_FIFO_LENGTH))
 142:Generated_Source\PSoC5/MIDI2_UART.c ****             MIDI2_UART_TXSTATUS_MASK_REG = MIDI2_UART_TX_STS_FIFO_EMPTY;
  72              		.loc 1 142 0
  73 0032 0A4B     		ldr	r3, .L3+24
 132:Generated_Source\PSoC5/MIDI2_UART.c ****             MIDI2_UART_TXBITCLKTX_COMPLETE_REG = (MIDI2_UART_NUMBER_OF_DATA_BITS +
  74              		.loc 1 132 0
  75 0034 0725     		movs	r5, #7
 133:Generated_Source\PSoC5/MIDI2_UART.c ****             MIDI2_UART_TXBITCLKTX_COMPLETE_REG = (MIDI2_UART_NUMBER_OF_DATA_BITS +
  76              		.loc 1 133 0
  77 0036 3020     		movs	r0, #48
  78              		.loc 1 142 0
  79 0038 0222     		movs	r2, #2
 132:Generated_Source\PSoC5/MIDI2_UART.c ****             MIDI2_UART_TXBITCLKTX_COMPLETE_REG = (MIDI2_UART_NUMBER_OF_DATA_BITS +
  80              		.loc 1 132 0
  81 003a 2570     		strb	r5, [r4]
ARM GAS  C:\Users\anjmarqu\AppData\Local\Temp\cc7ytAPG.s 			page 5


 133:Generated_Source\PSoC5/MIDI2_UART.c ****             MIDI2_UART_TXBITCLKTX_COMPLETE_REG = (MIDI2_UART_NUMBER_OF_DATA_BITS +
  82              		.loc 1 133 0
  83 003c 0870     		strb	r0, [r1]
  84              		.loc 1 142 0
  85 003e 1A70     		strb	r2, [r3]
  86 0040 38BD     		pop	{r3, r4, r5, pc}
  87              	.L4:
  88 0042 00BF     		.align	2
  89              	.L3:
  90 0044 00000000 		.word	MIDI2_UART_RXISR
  91 0048 83640040 		.word	1073767555
  92 004c 80640040 		.word	1073767552
  93 0050 00000000 		.word	MIDI2_UART_TXISR
  94 0054 28640040 		.word	1073767464
  95 0058 38640040 		.word	1073767480
  96 005c 88650040 		.word	1073767816
  97              		.cfi_endproc
  98              	.LFE1:
  99              		.size	MIDI2_UART_Init, .-MIDI2_UART_Init
 100              		.section	.text.MIDI2_UART_Enable,"ax",%progbits
 101              		.align	2
 102              		.global	MIDI2_UART_Enable
 103              		.thumb
 104              		.thumb_func
 105              		.type	MIDI2_UART_Enable, %function
 106              	MIDI2_UART_Enable:
 107              	.LFB2:
 143:Generated_Source\PSoC5/MIDI2_UART.c ****         #else
 144:Generated_Source\PSoC5/MIDI2_UART.c ****             MIDI2_UART_TXSTATUS_MASK_REG = MIDI2_UART_INIT_TX_INTERRUPTS_MASK;
 145:Generated_Source\PSoC5/MIDI2_UART.c ****         #endif /*End MIDI2_UART_TX_INTERRUPT_ENABLED*/
 146:Generated_Source\PSoC5/MIDI2_UART.c **** 
 147:Generated_Source\PSoC5/MIDI2_UART.c ****     #endif /* End MIDI2_UART_TX_ENABLED */
 148:Generated_Source\PSoC5/MIDI2_UART.c **** 
 149:Generated_Source\PSoC5/MIDI2_UART.c ****     #if(MIDI2_UART_PARITY_TYPE_SW)  /* Write Parity to Control Register */
 150:Generated_Source\PSoC5/MIDI2_UART.c ****         MIDI2_UART_WriteControlRegister( \
 151:Generated_Source\PSoC5/MIDI2_UART.c ****             (MIDI2_UART_ReadControlRegister() & (uint8)~MIDI2_UART_CTRL_PARITY_TYPE_MASK) | \
 152:Generated_Source\PSoC5/MIDI2_UART.c ****             (uint8)(MIDI2_UART_PARITY_TYPE << MIDI2_UART_CTRL_PARITY_TYPE0_SHIFT) );
 153:Generated_Source\PSoC5/MIDI2_UART.c ****     #endif /* End MIDI2_UART_PARITY_TYPE_SW */
 154:Generated_Source\PSoC5/MIDI2_UART.c **** }
 155:Generated_Source\PSoC5/MIDI2_UART.c **** 
 156:Generated_Source\PSoC5/MIDI2_UART.c **** 
 157:Generated_Source\PSoC5/MIDI2_UART.c **** /*******************************************************************************
 158:Generated_Source\PSoC5/MIDI2_UART.c **** * Function Name: MIDI2_UART_Enable
 159:Generated_Source\PSoC5/MIDI2_UART.c **** ********************************************************************************
 160:Generated_Source\PSoC5/MIDI2_UART.c **** *
 161:Generated_Source\PSoC5/MIDI2_UART.c **** * Summary:
 162:Generated_Source\PSoC5/MIDI2_UART.c **** *  Enables the UART block operation
 163:Generated_Source\PSoC5/MIDI2_UART.c **** *
 164:Generated_Source\PSoC5/MIDI2_UART.c **** * Parameters:
 165:Generated_Source\PSoC5/MIDI2_UART.c **** *  None.
 166:Generated_Source\PSoC5/MIDI2_UART.c **** *
 167:Generated_Source\PSoC5/MIDI2_UART.c **** * Return:
 168:Generated_Source\PSoC5/MIDI2_UART.c **** *  None.
 169:Generated_Source\PSoC5/MIDI2_UART.c **** *
 170:Generated_Source\PSoC5/MIDI2_UART.c **** * Global Variables:
 171:Generated_Source\PSoC5/MIDI2_UART.c **** *  MIDI2_UART_rxAddressDetected - set to initial state (0).
 172:Generated_Source\PSoC5/MIDI2_UART.c **** *
ARM GAS  C:\Users\anjmarqu\AppData\Local\Temp\cc7ytAPG.s 			page 6


 173:Generated_Source\PSoC5/MIDI2_UART.c **** *******************************************************************************/
 174:Generated_Source\PSoC5/MIDI2_UART.c **** void MIDI2_UART_Enable(void) 
 175:Generated_Source\PSoC5/MIDI2_UART.c **** {
 108              		.loc 1 175 0
 109              		.cfi_startproc
 110              		@ args = 0, pretend = 0, frame = 0
 111              		@ frame_needed = 0, uses_anonymous_args = 0
 112 0000 38B5     		push	{r3, r4, r5, lr}
 113              		.cfi_def_cfa_offset 16
 114              		.cfi_offset 3, -16
 115              		.cfi_offset 4, -12
 116              		.cfi_offset 5, -8
 117              		.cfi_offset 14, -4
 176:Generated_Source\PSoC5/MIDI2_UART.c ****     uint8 enableInterrupts;
 177:Generated_Source\PSoC5/MIDI2_UART.c ****     enableInterrupts = CyEnterCriticalSection();
 118              		.loc 1 177 0
 119 0002 FFF7FEFF 		bl	CyEnterCriticalSection
 120              	.LVL4:
 178:Generated_Source\PSoC5/MIDI2_UART.c **** 
 179:Generated_Source\PSoC5/MIDI2_UART.c ****     #if(MIDI2_UART_RX_ENABLED || MIDI2_UART_HD_ENABLED)
 180:Generated_Source\PSoC5/MIDI2_UART.c ****         /*RX Counter (Count7) Enable */
 181:Generated_Source\PSoC5/MIDI2_UART.c ****         MIDI2_UART_RXBITCTR_CONTROL_REG |= MIDI2_UART_CNTR_ENABLE;
 121              		.loc 1 181 0
 122 0006 0C49     		ldr	r1, .L7
 182:Generated_Source\PSoC5/MIDI2_UART.c ****         /* Enable the RX Interrupt. */
 183:Generated_Source\PSoC5/MIDI2_UART.c ****         MIDI2_UART_RXSTATUS_ACTL_REG  |= MIDI2_UART_INT_ENABLE;
 123              		.loc 1 183 0
 124 0008 0C4C     		ldr	r4, .L7+4
 181:Generated_Source\PSoC5/MIDI2_UART.c ****         /* Enable the RX Interrupt. */
 125              		.loc 1 181 0
 126 000a 0B78     		ldrb	r3, [r1]	@ zero_extendqisi2
 184:Generated_Source\PSoC5/MIDI2_UART.c ****         #if(MIDI2_UART_RX_INTERRUPT_ENABLED && (MIDI2_UART_RXBUFFERSIZE > MIDI2_UART_FIFO_LENGTH))
 185:Generated_Source\PSoC5/MIDI2_UART.c ****             CyIntEnable(MIDI2_UART_RX_VECT_NUM);
 127              		.loc 1 185 0
 128 000c 0C4A     		ldr	r2, .L7+8
 181:Generated_Source\PSoC5/MIDI2_UART.c ****         /* Enable the RX Interrupt. */
 129              		.loc 1 181 0
 130 000e 43F02003 		orr	r3, r3, #32
 131 0012 0B70     		strb	r3, [r1]
 183:Generated_Source\PSoC5/MIDI2_UART.c ****         #if(MIDI2_UART_RX_INTERRUPT_ENABLED && (MIDI2_UART_RXBUFFERSIZE > MIDI2_UART_FIFO_LENGTH))
 132              		.loc 1 183 0
 133 0014 2378     		ldrb	r3, [r4]	@ zero_extendqisi2
 134              		.loc 1 185 0
 135 0016 2025     		movs	r5, #32
 183:Generated_Source\PSoC5/MIDI2_UART.c ****         #if(MIDI2_UART_RX_INTERRUPT_ENABLED && (MIDI2_UART_RXBUFFERSIZE > MIDI2_UART_FIFO_LENGTH))
 136              		.loc 1 183 0
 137 0018 43F01003 		orr	r3, r3, #16
 138 001c 2370     		strb	r3, [r4]
 139              		.loc 1 185 0
 140 001e 1560     		str	r5, [r2]
 186:Generated_Source\PSoC5/MIDI2_UART.c ****             #if (MIDI2_UART_RXHW_ADDRESS_ENABLED)
 187:Generated_Source\PSoC5/MIDI2_UART.c ****                 MIDI2_UART_rxAddressDetected = 0u;
 188:Generated_Source\PSoC5/MIDI2_UART.c ****             #endif /* End MIDI2_UART_RXHW_ADDRESS_ENABLED */
 189:Generated_Source\PSoC5/MIDI2_UART.c ****         #endif /* End MIDI2_UART_RX_INTERRUPT_ENABLED */
 190:Generated_Source\PSoC5/MIDI2_UART.c ****     #endif /* End MIDI2_UART_RX_ENABLED || MIDI2_UART_HD_ENABLED*/
 191:Generated_Source\PSoC5/MIDI2_UART.c **** 
 192:Generated_Source\PSoC5/MIDI2_UART.c ****     #if(MIDI2_UART_TX_ENABLED)
ARM GAS  C:\Users\anjmarqu\AppData\Local\Temp\cc7ytAPG.s 			page 7


 193:Generated_Source\PSoC5/MIDI2_UART.c ****         /*TX Counter (DP/Count7) Enable */
 194:Generated_Source\PSoC5/MIDI2_UART.c ****         #if(!MIDI2_UART_TXCLKGEN_DP)
 195:Generated_Source\PSoC5/MIDI2_UART.c ****             MIDI2_UART_TXBITCTR_CONTROL_REG |= MIDI2_UART_CNTR_ENABLE;
 196:Generated_Source\PSoC5/MIDI2_UART.c ****         #endif /* End MIDI2_UART_TXCLKGEN_DP */
 197:Generated_Source\PSoC5/MIDI2_UART.c ****         /* Enable the TX Interrupt. */
 198:Generated_Source\PSoC5/MIDI2_UART.c ****         MIDI2_UART_TXSTATUS_ACTL_REG |= MIDI2_UART_INT_ENABLE;
 141              		.loc 1 198 0
 142 0020 91F80831 		ldrb	r3, [r1, #264]	@ zero_extendqisi2
 199:Generated_Source\PSoC5/MIDI2_UART.c ****         #if(MIDI2_UART_TX_INTERRUPT_ENABLED && (MIDI2_UART_TXBUFFERSIZE > MIDI2_UART_FIFO_LENGTH))
 200:Generated_Source\PSoC5/MIDI2_UART.c ****             CyIntEnable(MIDI2_UART_TX_VECT_NUM);
 143              		.loc 1 200 0
 144 0024 4024     		movs	r4, #64
 198:Generated_Source\PSoC5/MIDI2_UART.c ****         #if(MIDI2_UART_TX_INTERRUPT_ENABLED && (MIDI2_UART_TXBUFFERSIZE > MIDI2_UART_FIFO_LENGTH))
 145              		.loc 1 198 0
 146 0026 43F01003 		orr	r3, r3, #16
 147 002a 81F80831 		strb	r3, [r1, #264]
 148              		.loc 1 200 0
 149 002e 1460     		str	r4, [r2]
 201:Generated_Source\PSoC5/MIDI2_UART.c ****         #endif /* End MIDI2_UART_TX_INTERRUPT_ENABLED*/
 202:Generated_Source\PSoC5/MIDI2_UART.c ****      #endif /* End MIDI2_UART_TX_ENABLED */
 203:Generated_Source\PSoC5/MIDI2_UART.c **** 
 204:Generated_Source\PSoC5/MIDI2_UART.c ****     #if(MIDI2_UART_INTERNAL_CLOCK_USED)
 205:Generated_Source\PSoC5/MIDI2_UART.c ****         /* Enable the clock. */
 206:Generated_Source\PSoC5/MIDI2_UART.c ****         MIDI2_UART_IntClock_Start();
 207:Generated_Source\PSoC5/MIDI2_UART.c ****     #endif /* End MIDI2_UART_INTERNAL_CLOCK_USED */
 208:Generated_Source\PSoC5/MIDI2_UART.c **** 
 209:Generated_Source\PSoC5/MIDI2_UART.c ****     CyExitCriticalSection(enableInterrupts);
 210:Generated_Source\PSoC5/MIDI2_UART.c **** }
 150              		.loc 1 210 0
 151 0030 BDE83840 		pop	{r3, r4, r5, lr}
 152              		.cfi_restore 14
 153              		.cfi_restore 5
 154              		.cfi_restore 4
 155              		.cfi_restore 3
 156              		.cfi_def_cfa_offset 0
 209:Generated_Source\PSoC5/MIDI2_UART.c **** }
 157              		.loc 1 209 0
 158 0034 FFF7FEBF 		b	CyExitCriticalSection
 159              	.LVL5:
 160              	.L8:
 161              		.align	2
 162              	.L7:
 163 0038 90640040 		.word	1073767568
 164 003c 93640040 		.word	1073767571
 165 0040 00E100E0 		.word	-536813312
 166              		.cfi_endproc
 167              	.LFE2:
 168              		.size	MIDI2_UART_Enable, .-MIDI2_UART_Enable
 169              		.section	.text.MIDI2_UART_Start,"ax",%progbits
 170              		.align	2
 171              		.global	MIDI2_UART_Start
 172              		.thumb
 173              		.thumb_func
 174              		.type	MIDI2_UART_Start, %function
 175              	MIDI2_UART_Start:
 176              	.LFB0:
  74:Generated_Source\PSoC5/MIDI2_UART.c ****     /* If not Initialized then initialize all required hardware and software */
ARM GAS  C:\Users\anjmarqu\AppData\Local\Temp\cc7ytAPG.s 			page 8


 177              		.loc 1 74 0
 178              		.cfi_startproc
 179              		@ args = 0, pretend = 0, frame = 0
 180              		@ frame_needed = 0, uses_anonymous_args = 0
 181 0000 10B5     		push	{r4, lr}
 182              		.cfi_def_cfa_offset 8
 183              		.cfi_offset 4, -8
 184              		.cfi_offset 14, -4
  76:Generated_Source\PSoC5/MIDI2_UART.c ****     {
 185              		.loc 1 76 0
 186 0002 054C     		ldr	r4, .L13
 187 0004 2378     		ldrb	r3, [r4]	@ zero_extendqisi2
 188 0006 1BB9     		cbnz	r3, .L10
  78:Generated_Source\PSoC5/MIDI2_UART.c ****         MIDI2_UART_initVar = 1u;
 189              		.loc 1 78 0
 190 0008 FFF7FEFF 		bl	MIDI2_UART_Init
 191              	.LVL6:
  79:Generated_Source\PSoC5/MIDI2_UART.c ****     }
 192              		.loc 1 79 0
 193 000c 0123     		movs	r3, #1
 194 000e 2370     		strb	r3, [r4]
 195              	.L10:
  82:Generated_Source\PSoC5/MIDI2_UART.c **** 
 196              		.loc 1 82 0
 197 0010 BDE81040 		pop	{r4, lr}
 198              		.cfi_restore 14
 199              		.cfi_restore 4
 200              		.cfi_def_cfa_offset 0
  81:Generated_Source\PSoC5/MIDI2_UART.c **** }
 201              		.loc 1 81 0
 202 0014 FFF7FEBF 		b	MIDI2_UART_Enable
 203              	.LVL7:
 204              	.L14:
 205              		.align	2
 206              	.L13:
 207 0018 00000000 		.word	.LANCHOR0
 208              		.cfi_endproc
 209              	.LFE0:
 210              		.size	MIDI2_UART_Start, .-MIDI2_UART_Start
 211              		.section	.text.MIDI2_UART_Stop,"ax",%progbits
 212              		.align	2
 213              		.global	MIDI2_UART_Stop
 214              		.thumb
 215              		.thumb_func
 216              		.type	MIDI2_UART_Stop, %function
 217              	MIDI2_UART_Stop:
 218              	.LFB3:
 211:Generated_Source\PSoC5/MIDI2_UART.c **** 
 212:Generated_Source\PSoC5/MIDI2_UART.c **** 
 213:Generated_Source\PSoC5/MIDI2_UART.c **** /*******************************************************************************
 214:Generated_Source\PSoC5/MIDI2_UART.c **** * Function Name: MIDI2_UART_Stop
 215:Generated_Source\PSoC5/MIDI2_UART.c **** ********************************************************************************
 216:Generated_Source\PSoC5/MIDI2_UART.c **** *
 217:Generated_Source\PSoC5/MIDI2_UART.c **** * Summary:
 218:Generated_Source\PSoC5/MIDI2_UART.c **** *  Disable the UART component
 219:Generated_Source\PSoC5/MIDI2_UART.c **** *
 220:Generated_Source\PSoC5/MIDI2_UART.c **** * Parameters:
ARM GAS  C:\Users\anjmarqu\AppData\Local\Temp\cc7ytAPG.s 			page 9


 221:Generated_Source\PSoC5/MIDI2_UART.c **** *  None.
 222:Generated_Source\PSoC5/MIDI2_UART.c **** *
 223:Generated_Source\PSoC5/MIDI2_UART.c **** * Return:
 224:Generated_Source\PSoC5/MIDI2_UART.c **** *  None.
 225:Generated_Source\PSoC5/MIDI2_UART.c **** *
 226:Generated_Source\PSoC5/MIDI2_UART.c **** *******************************************************************************/
 227:Generated_Source\PSoC5/MIDI2_UART.c **** void MIDI2_UART_Stop(void) 
 228:Generated_Source\PSoC5/MIDI2_UART.c **** {
 219              		.loc 1 228 0
 220              		.cfi_startproc
 221              		@ args = 0, pretend = 0, frame = 0
 222              		@ frame_needed = 0, uses_anonymous_args = 0
 223 0000 38B5     		push	{r3, r4, r5, lr}
 224              		.cfi_def_cfa_offset 16
 225              		.cfi_offset 3, -16
 226              		.cfi_offset 4, -12
 227              		.cfi_offset 5, -8
 228              		.cfi_offset 14, -4
 229:Generated_Source\PSoC5/MIDI2_UART.c ****     uint8 enableInterrupts;
 230:Generated_Source\PSoC5/MIDI2_UART.c ****     enableInterrupts = CyEnterCriticalSection();
 229              		.loc 1 230 0
 230 0002 FFF7FEFF 		bl	CyEnterCriticalSection
 231              	.LVL8:
 231:Generated_Source\PSoC5/MIDI2_UART.c **** 
 232:Generated_Source\PSoC5/MIDI2_UART.c ****     /* Write Bit Counter Disable */
 233:Generated_Source\PSoC5/MIDI2_UART.c ****     #if(MIDI2_UART_RX_ENABLED || MIDI2_UART_HD_ENABLED)
 234:Generated_Source\PSoC5/MIDI2_UART.c ****         MIDI2_UART_RXBITCTR_CONTROL_REG &= (uint8)~MIDI2_UART_CNTR_ENABLE;
 232              		.loc 1 234 0
 233 0006 0C49     		ldr	r1, .L17
 235:Generated_Source\PSoC5/MIDI2_UART.c ****     #endif /* End MIDI2_UART_RX_ENABLED */
 236:Generated_Source\PSoC5/MIDI2_UART.c **** 
 237:Generated_Source\PSoC5/MIDI2_UART.c ****     #if(MIDI2_UART_TX_ENABLED)
 238:Generated_Source\PSoC5/MIDI2_UART.c ****         #if(!MIDI2_UART_TXCLKGEN_DP)
 239:Generated_Source\PSoC5/MIDI2_UART.c ****             MIDI2_UART_TXBITCTR_CONTROL_REG &= (uint8)~MIDI2_UART_CNTR_ENABLE;
 240:Generated_Source\PSoC5/MIDI2_UART.c ****         #endif /* End MIDI2_UART_TXCLKGEN_DP */
 241:Generated_Source\PSoC5/MIDI2_UART.c ****     #endif /* MIDI2_UART_TX_ENABLED */
 242:Generated_Source\PSoC5/MIDI2_UART.c **** 
 243:Generated_Source\PSoC5/MIDI2_UART.c ****     #if(MIDI2_UART_INTERNAL_CLOCK_USED)
 244:Generated_Source\PSoC5/MIDI2_UART.c ****         /* Disable the clock. */
 245:Generated_Source\PSoC5/MIDI2_UART.c ****         MIDI2_UART_IntClock_Stop();
 246:Generated_Source\PSoC5/MIDI2_UART.c ****     #endif /* End MIDI2_UART_INTERNAL_CLOCK_USED */
 247:Generated_Source\PSoC5/MIDI2_UART.c **** 
 248:Generated_Source\PSoC5/MIDI2_UART.c ****     /* Disable internal interrupt component */
 249:Generated_Source\PSoC5/MIDI2_UART.c ****     #if(MIDI2_UART_RX_ENABLED || MIDI2_UART_HD_ENABLED)
 250:Generated_Source\PSoC5/MIDI2_UART.c ****         MIDI2_UART_RXSTATUS_ACTL_REG  &= (uint8)~MIDI2_UART_INT_ENABLE;
 234              		.loc 1 250 0
 235 0008 0C4C     		ldr	r4, .L17+4
 234:Generated_Source\PSoC5/MIDI2_UART.c ****     #endif /* End MIDI2_UART_RX_ENABLED */
 236              		.loc 1 234 0
 237 000a 0B78     		ldrb	r3, [r1]	@ zero_extendqisi2
 238              	.LBB36:
 239              	.LBB37:
 251:Generated_Source\PSoC5/MIDI2_UART.c ****         #if(MIDI2_UART_RX_INTERRUPT_ENABLED && (MIDI2_UART_RXBUFFERSIZE > MIDI2_UART_FIFO_LENGTH))
 252:Generated_Source\PSoC5/MIDI2_UART.c ****             MIDI2_UART_DisableRxInt();
 253:Generated_Source\PSoC5/MIDI2_UART.c ****         #endif /* End MIDI2_UART_RX_INTERRUPT_ENABLED */
 254:Generated_Source\PSoC5/MIDI2_UART.c ****     #endif /* End MIDI2_UART_RX_ENABLED */
 255:Generated_Source\PSoC5/MIDI2_UART.c **** 
ARM GAS  C:\Users\anjmarqu\AppData\Local\Temp\cc7ytAPG.s 			page 10


 256:Generated_Source\PSoC5/MIDI2_UART.c ****     #if(MIDI2_UART_TX_ENABLED)
 257:Generated_Source\PSoC5/MIDI2_UART.c ****         MIDI2_UART_TXSTATUS_ACTL_REG &= (uint8)~MIDI2_UART_INT_ENABLE;
 258:Generated_Source\PSoC5/MIDI2_UART.c ****         #if(MIDI2_UART_TX_INTERRUPT_ENABLED && (MIDI2_UART_TXBUFFERSIZE > MIDI2_UART_FIFO_LENGTH))
 259:Generated_Source\PSoC5/MIDI2_UART.c ****             MIDI2_UART_DisableTxInt();
 260:Generated_Source\PSoC5/MIDI2_UART.c ****         #endif /* End MIDI2_UART_TX_INTERRUPT_ENABLED */
 261:Generated_Source\PSoC5/MIDI2_UART.c ****     #endif /* End MIDI2_UART_TX_ENABLED */
 262:Generated_Source\PSoC5/MIDI2_UART.c **** 
 263:Generated_Source\PSoC5/MIDI2_UART.c ****     CyExitCriticalSection(enableInterrupts);
 264:Generated_Source\PSoC5/MIDI2_UART.c **** }
 265:Generated_Source\PSoC5/MIDI2_UART.c **** 
 266:Generated_Source\PSoC5/MIDI2_UART.c **** 
 267:Generated_Source\PSoC5/MIDI2_UART.c **** /*******************************************************************************
 268:Generated_Source\PSoC5/MIDI2_UART.c **** * Function Name: MIDI2_UART_ReadControlRegister
 269:Generated_Source\PSoC5/MIDI2_UART.c **** ********************************************************************************
 270:Generated_Source\PSoC5/MIDI2_UART.c **** *
 271:Generated_Source\PSoC5/MIDI2_UART.c **** * Summary:
 272:Generated_Source\PSoC5/MIDI2_UART.c **** *  Read the current state of the control register
 273:Generated_Source\PSoC5/MIDI2_UART.c **** *
 274:Generated_Source\PSoC5/MIDI2_UART.c **** * Parameters:
 275:Generated_Source\PSoC5/MIDI2_UART.c **** *  None.
 276:Generated_Source\PSoC5/MIDI2_UART.c **** *
 277:Generated_Source\PSoC5/MIDI2_UART.c **** * Return:
 278:Generated_Source\PSoC5/MIDI2_UART.c **** *  Current state of the control register.
 279:Generated_Source\PSoC5/MIDI2_UART.c **** *
 280:Generated_Source\PSoC5/MIDI2_UART.c **** *******************************************************************************/
 281:Generated_Source\PSoC5/MIDI2_UART.c **** uint8 MIDI2_UART_ReadControlRegister(void) 
 282:Generated_Source\PSoC5/MIDI2_UART.c **** {
 283:Generated_Source\PSoC5/MIDI2_UART.c ****     #if( MIDI2_UART_CONTROL_REG_REMOVED )
 284:Generated_Source\PSoC5/MIDI2_UART.c ****         return(0u);
 285:Generated_Source\PSoC5/MIDI2_UART.c ****     #else
 286:Generated_Source\PSoC5/MIDI2_UART.c ****         return(MIDI2_UART_CONTROL_REG);
 287:Generated_Source\PSoC5/MIDI2_UART.c ****     #endif /* End MIDI2_UART_CONTROL_REG_REMOVED */
 288:Generated_Source\PSoC5/MIDI2_UART.c **** }
 289:Generated_Source\PSoC5/MIDI2_UART.c **** 
 290:Generated_Source\PSoC5/MIDI2_UART.c **** 
 291:Generated_Source\PSoC5/MIDI2_UART.c **** /*******************************************************************************
 292:Generated_Source\PSoC5/MIDI2_UART.c **** * Function Name: MIDI2_UART_WriteControlRegister
 293:Generated_Source\PSoC5/MIDI2_UART.c **** ********************************************************************************
 294:Generated_Source\PSoC5/MIDI2_UART.c **** *
 295:Generated_Source\PSoC5/MIDI2_UART.c **** * Summary:
 296:Generated_Source\PSoC5/MIDI2_UART.c **** *  Writes an 8-bit value into the control register
 297:Generated_Source\PSoC5/MIDI2_UART.c **** *
 298:Generated_Source\PSoC5/MIDI2_UART.c **** * Parameters:
 299:Generated_Source\PSoC5/MIDI2_UART.c **** *  control:  control register value
 300:Generated_Source\PSoC5/MIDI2_UART.c **** *
 301:Generated_Source\PSoC5/MIDI2_UART.c **** * Return:
 302:Generated_Source\PSoC5/MIDI2_UART.c **** *  None.
 303:Generated_Source\PSoC5/MIDI2_UART.c **** *
 304:Generated_Source\PSoC5/MIDI2_UART.c **** *******************************************************************************/
 305:Generated_Source\PSoC5/MIDI2_UART.c **** void  MIDI2_UART_WriteControlRegister(uint8 control) 
 306:Generated_Source\PSoC5/MIDI2_UART.c **** {
 307:Generated_Source\PSoC5/MIDI2_UART.c ****     #if( MIDI2_UART_CONTROL_REG_REMOVED )
 308:Generated_Source\PSoC5/MIDI2_UART.c ****         if(control != 0u) { }      /* release compiler warning */
 309:Generated_Source\PSoC5/MIDI2_UART.c ****     #else
 310:Generated_Source\PSoC5/MIDI2_UART.c ****        MIDI2_UART_CONTROL_REG = control;
 311:Generated_Source\PSoC5/MIDI2_UART.c ****     #endif /* End MIDI2_UART_CONTROL_REG_REMOVED */
 312:Generated_Source\PSoC5/MIDI2_UART.c **** }
ARM GAS  C:\Users\anjmarqu\AppData\Local\Temp\cc7ytAPG.s 			page 11


 313:Generated_Source\PSoC5/MIDI2_UART.c **** 
 314:Generated_Source\PSoC5/MIDI2_UART.c **** 
 315:Generated_Source\PSoC5/MIDI2_UART.c **** #if(MIDI2_UART_RX_ENABLED || MIDI2_UART_HD_ENABLED)
 316:Generated_Source\PSoC5/MIDI2_UART.c **** 
 317:Generated_Source\PSoC5/MIDI2_UART.c ****     #if(MIDI2_UART_RX_INTERRUPT_ENABLED)
 318:Generated_Source\PSoC5/MIDI2_UART.c **** 
 319:Generated_Source\PSoC5/MIDI2_UART.c ****         /*******************************************************************************
 320:Generated_Source\PSoC5/MIDI2_UART.c ****         * Function Name: MIDI2_UART_EnableRxInt
 321:Generated_Source\PSoC5/MIDI2_UART.c ****         ********************************************************************************
 322:Generated_Source\PSoC5/MIDI2_UART.c ****         *
 323:Generated_Source\PSoC5/MIDI2_UART.c ****         * Summary:
 324:Generated_Source\PSoC5/MIDI2_UART.c ****         *  Enable RX interrupt generation
 325:Generated_Source\PSoC5/MIDI2_UART.c ****         *
 326:Generated_Source\PSoC5/MIDI2_UART.c ****         * Parameters:
 327:Generated_Source\PSoC5/MIDI2_UART.c ****         *  None.
 328:Generated_Source\PSoC5/MIDI2_UART.c ****         *
 329:Generated_Source\PSoC5/MIDI2_UART.c ****         * Return:
 330:Generated_Source\PSoC5/MIDI2_UART.c ****         *  None.
 331:Generated_Source\PSoC5/MIDI2_UART.c ****         *
 332:Generated_Source\PSoC5/MIDI2_UART.c ****         * Theory:
 333:Generated_Source\PSoC5/MIDI2_UART.c ****         *  Enable the interrupt output -or- the interrupt component itself
 334:Generated_Source\PSoC5/MIDI2_UART.c ****         *
 335:Generated_Source\PSoC5/MIDI2_UART.c ****         *******************************************************************************/
 336:Generated_Source\PSoC5/MIDI2_UART.c ****         void MIDI2_UART_EnableRxInt(void) 
 337:Generated_Source\PSoC5/MIDI2_UART.c ****         {
 338:Generated_Source\PSoC5/MIDI2_UART.c ****             CyIntEnable(MIDI2_UART_RX_VECT_NUM);
 339:Generated_Source\PSoC5/MIDI2_UART.c ****         }
 340:Generated_Source\PSoC5/MIDI2_UART.c **** 
 341:Generated_Source\PSoC5/MIDI2_UART.c **** 
 342:Generated_Source\PSoC5/MIDI2_UART.c ****         /*******************************************************************************
 343:Generated_Source\PSoC5/MIDI2_UART.c ****         * Function Name: MIDI2_UART_DisableRxInt
 344:Generated_Source\PSoC5/MIDI2_UART.c ****         ********************************************************************************
 345:Generated_Source\PSoC5/MIDI2_UART.c ****         *
 346:Generated_Source\PSoC5/MIDI2_UART.c ****         * Summary:
 347:Generated_Source\PSoC5/MIDI2_UART.c ****         *  Disable RX interrupt generation
 348:Generated_Source\PSoC5/MIDI2_UART.c ****         *
 349:Generated_Source\PSoC5/MIDI2_UART.c ****         * Parameters:
 350:Generated_Source\PSoC5/MIDI2_UART.c ****         *  None.
 351:Generated_Source\PSoC5/MIDI2_UART.c ****         *
 352:Generated_Source\PSoC5/MIDI2_UART.c ****         * Return:
 353:Generated_Source\PSoC5/MIDI2_UART.c ****         *  None.
 354:Generated_Source\PSoC5/MIDI2_UART.c ****         *
 355:Generated_Source\PSoC5/MIDI2_UART.c ****         * Theory:
 356:Generated_Source\PSoC5/MIDI2_UART.c ****         *  Disable the interrupt output -or- the interrupt component itself
 357:Generated_Source\PSoC5/MIDI2_UART.c ****         *
 358:Generated_Source\PSoC5/MIDI2_UART.c ****         *******************************************************************************/
 359:Generated_Source\PSoC5/MIDI2_UART.c ****         void MIDI2_UART_DisableRxInt(void) 
 360:Generated_Source\PSoC5/MIDI2_UART.c ****         {
 361:Generated_Source\PSoC5/MIDI2_UART.c ****             CyIntDisable(MIDI2_UART_RX_VECT_NUM);
 240              		.loc 1 361 0
 241 000c 0C4A     		ldr	r2, .L17+8
 242              	.LBE37:
 243              	.LBE36:
 234:Generated_Source\PSoC5/MIDI2_UART.c ****     #endif /* End MIDI2_UART_RX_ENABLED */
 244              		.loc 1 234 0
 245 000e 03F0DF03 		and	r3, r3, #223
 246 0012 0B70     		strb	r3, [r1]
ARM GAS  C:\Users\anjmarqu\AppData\Local\Temp\cc7ytAPG.s 			page 12


 250:Generated_Source\PSoC5/MIDI2_UART.c ****         #if(MIDI2_UART_RX_INTERRUPT_ENABLED && (MIDI2_UART_RXBUFFERSIZE > MIDI2_UART_FIFO_LENGTH))
 247              		.loc 1 250 0
 248 0014 2378     		ldrb	r3, [r4]	@ zero_extendqisi2
 249              	.LBB40:
 250              	.LBB38:
 251              		.loc 1 361 0
 252 0016 2025     		movs	r5, #32
 253              	.LBE38:
 254              	.LBE40:
 250:Generated_Source\PSoC5/MIDI2_UART.c ****         #if(MIDI2_UART_RX_INTERRUPT_ENABLED && (MIDI2_UART_RXBUFFERSIZE > MIDI2_UART_FIFO_LENGTH))
 255              		.loc 1 250 0
 256 0018 03F0EF03 		and	r3, r3, #239
 257 001c 2370     		strb	r3, [r4]
 258              	.LBB41:
 259              	.LBB39:
 260              		.loc 1 361 0
 261 001e 1560     		str	r5, [r2]
 262              	.LBE39:
 263              	.LBE41:
 257:Generated_Source\PSoC5/MIDI2_UART.c ****         #if(MIDI2_UART_TX_INTERRUPT_ENABLED && (MIDI2_UART_TXBUFFERSIZE > MIDI2_UART_FIFO_LENGTH))
 264              		.loc 1 257 0
 265 0020 91F80831 		ldrb	r3, [r1, #264]	@ zero_extendqisi2
 266              	.LBB42:
 267              	.LBB43:
 362:Generated_Source\PSoC5/MIDI2_UART.c ****         }
 363:Generated_Source\PSoC5/MIDI2_UART.c **** 
 364:Generated_Source\PSoC5/MIDI2_UART.c ****     #endif /* MIDI2_UART_RX_INTERRUPT_ENABLED */
 365:Generated_Source\PSoC5/MIDI2_UART.c **** 
 366:Generated_Source\PSoC5/MIDI2_UART.c **** 
 367:Generated_Source\PSoC5/MIDI2_UART.c ****     /*******************************************************************************
 368:Generated_Source\PSoC5/MIDI2_UART.c ****     * Function Name: MIDI2_UART_SetRxInterruptMode
 369:Generated_Source\PSoC5/MIDI2_UART.c ****     ********************************************************************************
 370:Generated_Source\PSoC5/MIDI2_UART.c ****     *
 371:Generated_Source\PSoC5/MIDI2_UART.c ****     * Summary:
 372:Generated_Source\PSoC5/MIDI2_UART.c ****     *  Configure which status bits trigger an interrupt event
 373:Generated_Source\PSoC5/MIDI2_UART.c ****     *
 374:Generated_Source\PSoC5/MIDI2_UART.c ****     * Parameters:
 375:Generated_Source\PSoC5/MIDI2_UART.c ****     *  IntSrc:  An or'd combination of the desired status bit masks (defined in
 376:Generated_Source\PSoC5/MIDI2_UART.c ****     *           the header file)
 377:Generated_Source\PSoC5/MIDI2_UART.c ****     *
 378:Generated_Source\PSoC5/MIDI2_UART.c ****     * Return:
 379:Generated_Source\PSoC5/MIDI2_UART.c ****     *  None.
 380:Generated_Source\PSoC5/MIDI2_UART.c ****     *
 381:Generated_Source\PSoC5/MIDI2_UART.c ****     * Theory:
 382:Generated_Source\PSoC5/MIDI2_UART.c ****     *  Enables the output of specific status bits to the interrupt controller
 383:Generated_Source\PSoC5/MIDI2_UART.c ****     *
 384:Generated_Source\PSoC5/MIDI2_UART.c ****     *******************************************************************************/
 385:Generated_Source\PSoC5/MIDI2_UART.c ****     void MIDI2_UART_SetRxInterruptMode(uint8 intSrc) 
 386:Generated_Source\PSoC5/MIDI2_UART.c ****     {
 387:Generated_Source\PSoC5/MIDI2_UART.c ****         MIDI2_UART_RXSTATUS_MASK_REG  = intSrc;
 388:Generated_Source\PSoC5/MIDI2_UART.c ****     }
 389:Generated_Source\PSoC5/MIDI2_UART.c **** 
 390:Generated_Source\PSoC5/MIDI2_UART.c **** 
 391:Generated_Source\PSoC5/MIDI2_UART.c ****     /*******************************************************************************
 392:Generated_Source\PSoC5/MIDI2_UART.c ****     * Function Name: MIDI2_UART_ReadRxData
 393:Generated_Source\PSoC5/MIDI2_UART.c ****     ********************************************************************************
 394:Generated_Source\PSoC5/MIDI2_UART.c ****     *
ARM GAS  C:\Users\anjmarqu\AppData\Local\Temp\cc7ytAPG.s 			page 13


 395:Generated_Source\PSoC5/MIDI2_UART.c ****     * Summary:
 396:Generated_Source\PSoC5/MIDI2_UART.c ****     *  Returns data in RX Data register without checking status register to
 397:Generated_Source\PSoC5/MIDI2_UART.c ****     *  determine if data is valid
 398:Generated_Source\PSoC5/MIDI2_UART.c ****     *
 399:Generated_Source\PSoC5/MIDI2_UART.c ****     * Parameters:
 400:Generated_Source\PSoC5/MIDI2_UART.c ****     *  None.
 401:Generated_Source\PSoC5/MIDI2_UART.c ****     *
 402:Generated_Source\PSoC5/MIDI2_UART.c ****     * Return:
 403:Generated_Source\PSoC5/MIDI2_UART.c ****     *  Received data from RX register
 404:Generated_Source\PSoC5/MIDI2_UART.c ****     *
 405:Generated_Source\PSoC5/MIDI2_UART.c ****     * Global Variables:
 406:Generated_Source\PSoC5/MIDI2_UART.c ****     *  MIDI2_UART_rxBuffer - RAM buffer pointer for save received data.
 407:Generated_Source\PSoC5/MIDI2_UART.c ****     *  MIDI2_UART_rxBufferWrite - cyclic index for write to rxBuffer,
 408:Generated_Source\PSoC5/MIDI2_UART.c ****     *     checked to identify new data.
 409:Generated_Source\PSoC5/MIDI2_UART.c ****     *  MIDI2_UART_rxBufferRead - cyclic index for read from rxBuffer,
 410:Generated_Source\PSoC5/MIDI2_UART.c ****     *     incremented after each byte has been read from buffer.
 411:Generated_Source\PSoC5/MIDI2_UART.c ****     *  MIDI2_UART_rxBufferLoopDetect - creared if loop condition was detected
 412:Generated_Source\PSoC5/MIDI2_UART.c ****     *     in RX ISR.
 413:Generated_Source\PSoC5/MIDI2_UART.c ****     *
 414:Generated_Source\PSoC5/MIDI2_UART.c ****     * Reentrant:
 415:Generated_Source\PSoC5/MIDI2_UART.c ****     *  No.
 416:Generated_Source\PSoC5/MIDI2_UART.c ****     *
 417:Generated_Source\PSoC5/MIDI2_UART.c ****     *******************************************************************************/
 418:Generated_Source\PSoC5/MIDI2_UART.c ****     uint8 MIDI2_UART_ReadRxData(void) 
 419:Generated_Source\PSoC5/MIDI2_UART.c ****     {
 420:Generated_Source\PSoC5/MIDI2_UART.c ****         uint8 rxData;
 421:Generated_Source\PSoC5/MIDI2_UART.c **** 
 422:Generated_Source\PSoC5/MIDI2_UART.c ****         #if(MIDI2_UART_RXBUFFERSIZE > MIDI2_UART_FIFO_LENGTH)
 423:Generated_Source\PSoC5/MIDI2_UART.c ****             uint8 loc_rxBufferRead;
 424:Generated_Source\PSoC5/MIDI2_UART.c ****             uint8 loc_rxBufferWrite;
 425:Generated_Source\PSoC5/MIDI2_UART.c ****             /* Protect variables that could change on interrupt. */
 426:Generated_Source\PSoC5/MIDI2_UART.c ****             /* Disable Rx interrupt. */
 427:Generated_Source\PSoC5/MIDI2_UART.c ****             #if(MIDI2_UART_RX_INTERRUPT_ENABLED)
 428:Generated_Source\PSoC5/MIDI2_UART.c ****                 MIDI2_UART_DisableRxInt();
 429:Generated_Source\PSoC5/MIDI2_UART.c ****             #endif /* MIDI2_UART_RX_INTERRUPT_ENABLED */
 430:Generated_Source\PSoC5/MIDI2_UART.c ****             loc_rxBufferRead = MIDI2_UART_rxBufferRead;
 431:Generated_Source\PSoC5/MIDI2_UART.c ****             loc_rxBufferWrite = MIDI2_UART_rxBufferWrite;
 432:Generated_Source\PSoC5/MIDI2_UART.c **** 
 433:Generated_Source\PSoC5/MIDI2_UART.c ****             if( (MIDI2_UART_rxBufferLoopDetect != 0u) || (loc_rxBufferRead != loc_rxBufferWrite) )
 434:Generated_Source\PSoC5/MIDI2_UART.c ****             {
 435:Generated_Source\PSoC5/MIDI2_UART.c ****                 rxData = MIDI2_UART_rxBuffer[loc_rxBufferRead];
 436:Generated_Source\PSoC5/MIDI2_UART.c ****                 loc_rxBufferRead++;
 437:Generated_Source\PSoC5/MIDI2_UART.c **** 
 438:Generated_Source\PSoC5/MIDI2_UART.c ****                 if(loc_rxBufferRead >= MIDI2_UART_RXBUFFERSIZE)
 439:Generated_Source\PSoC5/MIDI2_UART.c ****                 {
 440:Generated_Source\PSoC5/MIDI2_UART.c ****                     loc_rxBufferRead = 0u;
 441:Generated_Source\PSoC5/MIDI2_UART.c ****                 }
 442:Generated_Source\PSoC5/MIDI2_UART.c ****                 /* Update the real pointer */
 443:Generated_Source\PSoC5/MIDI2_UART.c ****                 MIDI2_UART_rxBufferRead = loc_rxBufferRead;
 444:Generated_Source\PSoC5/MIDI2_UART.c **** 
 445:Generated_Source\PSoC5/MIDI2_UART.c ****                 if(MIDI2_UART_rxBufferLoopDetect != 0u )
 446:Generated_Source\PSoC5/MIDI2_UART.c ****                 {
 447:Generated_Source\PSoC5/MIDI2_UART.c ****                     MIDI2_UART_rxBufferLoopDetect = 0u;
 448:Generated_Source\PSoC5/MIDI2_UART.c ****                     #if( (MIDI2_UART_RX_INTERRUPT_ENABLED) && (MIDI2_UART_FLOW_CONTROL != 0u) && \
 449:Generated_Source\PSoC5/MIDI2_UART.c ****                          (MIDI2_UART_RXBUFFERSIZE > MIDI2_UART_FIFO_LENGTH) )
 450:Generated_Source\PSoC5/MIDI2_UART.c ****                         /* When Hardware Flow Control selected - return RX mask */
 451:Generated_Source\PSoC5/MIDI2_UART.c ****                         #if( MIDI2_UART_HD_ENABLED )
ARM GAS  C:\Users\anjmarqu\AppData\Local\Temp\cc7ytAPG.s 			page 14


 452:Generated_Source\PSoC5/MIDI2_UART.c ****                             if((MIDI2_UART_CONTROL_REG & MIDI2_UART_CTRL_HD_SEND) == 0u)
 453:Generated_Source\PSoC5/MIDI2_UART.c ****                             {   /* In Half duplex mode return RX mask only in RX
 454:Generated_Source\PSoC5/MIDI2_UART.c ****                                 *  configuration set, otherwise
 455:Generated_Source\PSoC5/MIDI2_UART.c ****                                 *  mask will be returned in LoadRxConfig() API.
 456:Generated_Source\PSoC5/MIDI2_UART.c ****                                 */
 457:Generated_Source\PSoC5/MIDI2_UART.c ****                                 MIDI2_UART_RXSTATUS_MASK_REG  |= MIDI2_UART_RX_STS_FIFO_NOTEMPTY;
 458:Generated_Source\PSoC5/MIDI2_UART.c ****                             }
 459:Generated_Source\PSoC5/MIDI2_UART.c ****                         #else
 460:Generated_Source\PSoC5/MIDI2_UART.c ****                             MIDI2_UART_RXSTATUS_MASK_REG  |= MIDI2_UART_RX_STS_FIFO_NOTEMPTY;
 461:Generated_Source\PSoC5/MIDI2_UART.c ****                         #endif /* end MIDI2_UART_HD_ENABLED */
 462:Generated_Source\PSoC5/MIDI2_UART.c ****                     #endif /* MIDI2_UART_RX_INTERRUPT_ENABLED and Hardware flow control*/
 463:Generated_Source\PSoC5/MIDI2_UART.c ****                 }
 464:Generated_Source\PSoC5/MIDI2_UART.c ****             }
 465:Generated_Source\PSoC5/MIDI2_UART.c ****             else
 466:Generated_Source\PSoC5/MIDI2_UART.c ****             {   /* Needs to check status for RX_STS_FIFO_NOTEMPTY bit*/
 467:Generated_Source\PSoC5/MIDI2_UART.c ****                 rxData = MIDI2_UART_RXDATA_REG;
 468:Generated_Source\PSoC5/MIDI2_UART.c ****             }
 469:Generated_Source\PSoC5/MIDI2_UART.c **** 
 470:Generated_Source\PSoC5/MIDI2_UART.c ****             /* Enable Rx interrupt. */
 471:Generated_Source\PSoC5/MIDI2_UART.c ****             #if(MIDI2_UART_RX_INTERRUPT_ENABLED)
 472:Generated_Source\PSoC5/MIDI2_UART.c ****                 MIDI2_UART_EnableRxInt();
 473:Generated_Source\PSoC5/MIDI2_UART.c ****             #endif /* End MIDI2_UART_RX_INTERRUPT_ENABLED */
 474:Generated_Source\PSoC5/MIDI2_UART.c **** 
 475:Generated_Source\PSoC5/MIDI2_UART.c ****         #else /* MIDI2_UART_RXBUFFERSIZE > MIDI2_UART_FIFO_LENGTH */
 476:Generated_Source\PSoC5/MIDI2_UART.c **** 
 477:Generated_Source\PSoC5/MIDI2_UART.c ****             /* Needs to check status for RX_STS_FIFO_NOTEMPTY bit*/
 478:Generated_Source\PSoC5/MIDI2_UART.c ****             rxData = MIDI2_UART_RXDATA_REG;
 479:Generated_Source\PSoC5/MIDI2_UART.c **** 
 480:Generated_Source\PSoC5/MIDI2_UART.c ****         #endif /* MIDI2_UART_RXBUFFERSIZE > MIDI2_UART_FIFO_LENGTH */
 481:Generated_Source\PSoC5/MIDI2_UART.c **** 
 482:Generated_Source\PSoC5/MIDI2_UART.c ****         return(rxData);
 483:Generated_Source\PSoC5/MIDI2_UART.c ****     }
 484:Generated_Source\PSoC5/MIDI2_UART.c **** 
 485:Generated_Source\PSoC5/MIDI2_UART.c **** 
 486:Generated_Source\PSoC5/MIDI2_UART.c ****     /*******************************************************************************
 487:Generated_Source\PSoC5/MIDI2_UART.c ****     * Function Name: MIDI2_UART_ReadRxStatus
 488:Generated_Source\PSoC5/MIDI2_UART.c ****     ********************************************************************************
 489:Generated_Source\PSoC5/MIDI2_UART.c ****     *
 490:Generated_Source\PSoC5/MIDI2_UART.c ****     * Summary:
 491:Generated_Source\PSoC5/MIDI2_UART.c ****     *  Read the current state of the status register
 492:Generated_Source\PSoC5/MIDI2_UART.c ****     *  And detect software buffer overflow.
 493:Generated_Source\PSoC5/MIDI2_UART.c ****     *
 494:Generated_Source\PSoC5/MIDI2_UART.c ****     * Parameters:
 495:Generated_Source\PSoC5/MIDI2_UART.c ****     *  None.
 496:Generated_Source\PSoC5/MIDI2_UART.c ****     *
 497:Generated_Source\PSoC5/MIDI2_UART.c ****     * Return:
 498:Generated_Source\PSoC5/MIDI2_UART.c ****     *  Current state of the status register.
 499:Generated_Source\PSoC5/MIDI2_UART.c ****     *
 500:Generated_Source\PSoC5/MIDI2_UART.c ****     * Global Variables:
 501:Generated_Source\PSoC5/MIDI2_UART.c ****     *  MIDI2_UART_rxBufferOverflow - used to indicate overload condition.
 502:Generated_Source\PSoC5/MIDI2_UART.c ****     *   It set to one in RX interrupt when there isn?t free space in
 503:Generated_Source\PSoC5/MIDI2_UART.c ****     *   MIDI2_UART_rxBufferRead to write new data. This condition returned
 504:Generated_Source\PSoC5/MIDI2_UART.c ****     *   and cleared to zero by this API as an
 505:Generated_Source\PSoC5/MIDI2_UART.c ****     *   MIDI2_UART_RX_STS_SOFT_BUFF_OVER bit along with RX Status register
 506:Generated_Source\PSoC5/MIDI2_UART.c ****     *   bits.
 507:Generated_Source\PSoC5/MIDI2_UART.c ****     *
 508:Generated_Source\PSoC5/MIDI2_UART.c ****     *******************************************************************************/
ARM GAS  C:\Users\anjmarqu\AppData\Local\Temp\cc7ytAPG.s 			page 15


 509:Generated_Source\PSoC5/MIDI2_UART.c ****     uint8 MIDI2_UART_ReadRxStatus(void) 
 510:Generated_Source\PSoC5/MIDI2_UART.c ****     {
 511:Generated_Source\PSoC5/MIDI2_UART.c ****         uint8 status;
 512:Generated_Source\PSoC5/MIDI2_UART.c **** 
 513:Generated_Source\PSoC5/MIDI2_UART.c ****         status = MIDI2_UART_RXSTATUS_REG & MIDI2_UART_RX_HW_MASK;
 514:Generated_Source\PSoC5/MIDI2_UART.c **** 
 515:Generated_Source\PSoC5/MIDI2_UART.c ****         #if(MIDI2_UART_RXBUFFERSIZE > MIDI2_UART_FIFO_LENGTH)
 516:Generated_Source\PSoC5/MIDI2_UART.c ****             if( MIDI2_UART_rxBufferOverflow != 0u )
 517:Generated_Source\PSoC5/MIDI2_UART.c ****             {
 518:Generated_Source\PSoC5/MIDI2_UART.c ****                 status |= MIDI2_UART_RX_STS_SOFT_BUFF_OVER;
 519:Generated_Source\PSoC5/MIDI2_UART.c ****                 MIDI2_UART_rxBufferOverflow = 0u;
 520:Generated_Source\PSoC5/MIDI2_UART.c ****             }
 521:Generated_Source\PSoC5/MIDI2_UART.c ****         #endif /* MIDI2_UART_RXBUFFERSIZE */
 522:Generated_Source\PSoC5/MIDI2_UART.c **** 
 523:Generated_Source\PSoC5/MIDI2_UART.c ****         return(status);
 524:Generated_Source\PSoC5/MIDI2_UART.c ****     }
 525:Generated_Source\PSoC5/MIDI2_UART.c **** 
 526:Generated_Source\PSoC5/MIDI2_UART.c **** 
 527:Generated_Source\PSoC5/MIDI2_UART.c ****     /*******************************************************************************
 528:Generated_Source\PSoC5/MIDI2_UART.c ****     * Function Name: MIDI2_UART_GetChar
 529:Generated_Source\PSoC5/MIDI2_UART.c ****     ********************************************************************************
 530:Generated_Source\PSoC5/MIDI2_UART.c ****     *
 531:Generated_Source\PSoC5/MIDI2_UART.c ****     * Summary:
 532:Generated_Source\PSoC5/MIDI2_UART.c ****     *  Reads UART RX buffer immediately, if data is not available or an error
 533:Generated_Source\PSoC5/MIDI2_UART.c ****     *  condition exists, zero is returned; otherwise, character is read and
 534:Generated_Source\PSoC5/MIDI2_UART.c ****     *  returned.
 535:Generated_Source\PSoC5/MIDI2_UART.c ****     *
 536:Generated_Source\PSoC5/MIDI2_UART.c ****     * Parameters:
 537:Generated_Source\PSoC5/MIDI2_UART.c ****     *  None.
 538:Generated_Source\PSoC5/MIDI2_UART.c ****     *
 539:Generated_Source\PSoC5/MIDI2_UART.c ****     * Return:
 540:Generated_Source\PSoC5/MIDI2_UART.c ****     *  Character read from UART RX buffer. ASCII characters from 1 to 255 are valid.
 541:Generated_Source\PSoC5/MIDI2_UART.c ****     *  A returned zero signifies an error condition or no data available.
 542:Generated_Source\PSoC5/MIDI2_UART.c ****     *
 543:Generated_Source\PSoC5/MIDI2_UART.c ****     * Global Variables:
 544:Generated_Source\PSoC5/MIDI2_UART.c ****     *  MIDI2_UART_rxBuffer - RAM buffer pointer for save received data.
 545:Generated_Source\PSoC5/MIDI2_UART.c ****     *  MIDI2_UART_rxBufferWrite - cyclic index for write to rxBuffer,
 546:Generated_Source\PSoC5/MIDI2_UART.c ****     *     checked to identify new data.
 547:Generated_Source\PSoC5/MIDI2_UART.c ****     *  MIDI2_UART_rxBufferRead - cyclic index for read from rxBuffer,
 548:Generated_Source\PSoC5/MIDI2_UART.c ****     *     incremented after each byte has been read from buffer.
 549:Generated_Source\PSoC5/MIDI2_UART.c ****     *  MIDI2_UART_rxBufferLoopDetect - creared if loop condition was detected
 550:Generated_Source\PSoC5/MIDI2_UART.c ****     *     in RX ISR.
 551:Generated_Source\PSoC5/MIDI2_UART.c ****     *
 552:Generated_Source\PSoC5/MIDI2_UART.c ****     * Reentrant:
 553:Generated_Source\PSoC5/MIDI2_UART.c ****     *  No.
 554:Generated_Source\PSoC5/MIDI2_UART.c ****     *
 555:Generated_Source\PSoC5/MIDI2_UART.c ****     *******************************************************************************/
 556:Generated_Source\PSoC5/MIDI2_UART.c ****     uint8 MIDI2_UART_GetChar(void) 
 557:Generated_Source\PSoC5/MIDI2_UART.c ****     {
 558:Generated_Source\PSoC5/MIDI2_UART.c ****         uint8 rxData = 0u;
 559:Generated_Source\PSoC5/MIDI2_UART.c ****         uint8 rxStatus;
 560:Generated_Source\PSoC5/MIDI2_UART.c **** 
 561:Generated_Source\PSoC5/MIDI2_UART.c ****         #if(MIDI2_UART_RXBUFFERSIZE > MIDI2_UART_FIFO_LENGTH)
 562:Generated_Source\PSoC5/MIDI2_UART.c ****             uint8 loc_rxBufferRead;
 563:Generated_Source\PSoC5/MIDI2_UART.c ****             uint8 loc_rxBufferWrite;
 564:Generated_Source\PSoC5/MIDI2_UART.c ****             /* Protect variables that could change on interrupt. */
 565:Generated_Source\PSoC5/MIDI2_UART.c ****             /* Disable Rx interrupt. */
ARM GAS  C:\Users\anjmarqu\AppData\Local\Temp\cc7ytAPG.s 			page 16


 566:Generated_Source\PSoC5/MIDI2_UART.c ****             #if(MIDI2_UART_RX_INTERRUPT_ENABLED)
 567:Generated_Source\PSoC5/MIDI2_UART.c ****                 MIDI2_UART_DisableRxInt();
 568:Generated_Source\PSoC5/MIDI2_UART.c ****             #endif /* MIDI2_UART_RX_INTERRUPT_ENABLED */
 569:Generated_Source\PSoC5/MIDI2_UART.c ****             loc_rxBufferRead = MIDI2_UART_rxBufferRead;
 570:Generated_Source\PSoC5/MIDI2_UART.c ****             loc_rxBufferWrite = MIDI2_UART_rxBufferWrite;
 571:Generated_Source\PSoC5/MIDI2_UART.c **** 
 572:Generated_Source\PSoC5/MIDI2_UART.c ****             if( (MIDI2_UART_rxBufferLoopDetect != 0u) || (loc_rxBufferRead != loc_rxBufferWrite) )
 573:Generated_Source\PSoC5/MIDI2_UART.c ****             {
 574:Generated_Source\PSoC5/MIDI2_UART.c ****                 rxData = MIDI2_UART_rxBuffer[loc_rxBufferRead];
 575:Generated_Source\PSoC5/MIDI2_UART.c ****                 loc_rxBufferRead++;
 576:Generated_Source\PSoC5/MIDI2_UART.c ****                 if(loc_rxBufferRead >= MIDI2_UART_RXBUFFERSIZE)
 577:Generated_Source\PSoC5/MIDI2_UART.c ****                 {
 578:Generated_Source\PSoC5/MIDI2_UART.c ****                     loc_rxBufferRead = 0u;
 579:Generated_Source\PSoC5/MIDI2_UART.c ****                 }
 580:Generated_Source\PSoC5/MIDI2_UART.c ****                 /* Update the real pointer */
 581:Generated_Source\PSoC5/MIDI2_UART.c ****                 MIDI2_UART_rxBufferRead = loc_rxBufferRead;
 582:Generated_Source\PSoC5/MIDI2_UART.c **** 
 583:Generated_Source\PSoC5/MIDI2_UART.c ****                 if(MIDI2_UART_rxBufferLoopDetect > 0u )
 584:Generated_Source\PSoC5/MIDI2_UART.c ****                 {
 585:Generated_Source\PSoC5/MIDI2_UART.c ****                     MIDI2_UART_rxBufferLoopDetect = 0u;
 586:Generated_Source\PSoC5/MIDI2_UART.c ****                     #if( (MIDI2_UART_RX_INTERRUPT_ENABLED) && (MIDI2_UART_FLOW_CONTROL != 0u) )
 587:Generated_Source\PSoC5/MIDI2_UART.c ****                         /* When Hardware Flow Control selected - return RX mask */
 588:Generated_Source\PSoC5/MIDI2_UART.c ****                         #if( MIDI2_UART_HD_ENABLED )
 589:Generated_Source\PSoC5/MIDI2_UART.c ****                             if((MIDI2_UART_CONTROL_REG & MIDI2_UART_CTRL_HD_SEND) == 0u)
 590:Generated_Source\PSoC5/MIDI2_UART.c ****                             {   /* In Half duplex mode return RX mask only if
 591:Generated_Source\PSoC5/MIDI2_UART.c ****                                 *  RX configuration set, otherwise
 592:Generated_Source\PSoC5/MIDI2_UART.c ****                                 *  mask will be returned in LoadRxConfig() API.
 593:Generated_Source\PSoC5/MIDI2_UART.c ****                                 */
 594:Generated_Source\PSoC5/MIDI2_UART.c ****                                 MIDI2_UART_RXSTATUS_MASK_REG  |= MIDI2_UART_RX_STS_FIFO_NOTEMPTY;
 595:Generated_Source\PSoC5/MIDI2_UART.c ****                             }
 596:Generated_Source\PSoC5/MIDI2_UART.c ****                         #else
 597:Generated_Source\PSoC5/MIDI2_UART.c ****                             MIDI2_UART_RXSTATUS_MASK_REG  |= MIDI2_UART_RX_STS_FIFO_NOTEMPTY;
 598:Generated_Source\PSoC5/MIDI2_UART.c ****                         #endif /* end MIDI2_UART_HD_ENABLED */
 599:Generated_Source\PSoC5/MIDI2_UART.c ****                     #endif /* MIDI2_UART_RX_INTERRUPT_ENABLED and Hardware flow control*/
 600:Generated_Source\PSoC5/MIDI2_UART.c ****                 }
 601:Generated_Source\PSoC5/MIDI2_UART.c **** 
 602:Generated_Source\PSoC5/MIDI2_UART.c ****             }
 603:Generated_Source\PSoC5/MIDI2_UART.c ****             else
 604:Generated_Source\PSoC5/MIDI2_UART.c ****             {   rxStatus = MIDI2_UART_RXSTATUS_REG;
 605:Generated_Source\PSoC5/MIDI2_UART.c ****                 if((rxStatus & MIDI2_UART_RX_STS_FIFO_NOTEMPTY) != 0u)
 606:Generated_Source\PSoC5/MIDI2_UART.c ****                 {   /* Read received data from FIFO*/
 607:Generated_Source\PSoC5/MIDI2_UART.c ****                     rxData = MIDI2_UART_RXDATA_REG;
 608:Generated_Source\PSoC5/MIDI2_UART.c ****                     /*Check status on error*/
 609:Generated_Source\PSoC5/MIDI2_UART.c ****                     if((rxStatus & (MIDI2_UART_RX_STS_BREAK | MIDI2_UART_RX_STS_PAR_ERROR |
 610:Generated_Source\PSoC5/MIDI2_UART.c ****                                    MIDI2_UART_RX_STS_STOP_ERROR | MIDI2_UART_RX_STS_OVERRUN)) != 0u
 611:Generated_Source\PSoC5/MIDI2_UART.c ****                     {
 612:Generated_Source\PSoC5/MIDI2_UART.c ****                         rxData = 0u;
 613:Generated_Source\PSoC5/MIDI2_UART.c ****                     }
 614:Generated_Source\PSoC5/MIDI2_UART.c ****                 }
 615:Generated_Source\PSoC5/MIDI2_UART.c ****             }
 616:Generated_Source\PSoC5/MIDI2_UART.c **** 
 617:Generated_Source\PSoC5/MIDI2_UART.c ****             /* Enable Rx interrupt. */
 618:Generated_Source\PSoC5/MIDI2_UART.c ****             #if(MIDI2_UART_RX_INTERRUPT_ENABLED)
 619:Generated_Source\PSoC5/MIDI2_UART.c ****                 MIDI2_UART_EnableRxInt();
 620:Generated_Source\PSoC5/MIDI2_UART.c ****             #endif /* MIDI2_UART_RX_INTERRUPT_ENABLED */
 621:Generated_Source\PSoC5/MIDI2_UART.c **** 
 622:Generated_Source\PSoC5/MIDI2_UART.c ****         #else /* MIDI2_UART_RXBUFFERSIZE > MIDI2_UART_FIFO_LENGTH */
ARM GAS  C:\Users\anjmarqu\AppData\Local\Temp\cc7ytAPG.s 			page 17


 623:Generated_Source\PSoC5/MIDI2_UART.c **** 
 624:Generated_Source\PSoC5/MIDI2_UART.c ****             rxStatus =MIDI2_UART_RXSTATUS_REG;
 625:Generated_Source\PSoC5/MIDI2_UART.c ****             if((rxStatus & MIDI2_UART_RX_STS_FIFO_NOTEMPTY) != 0u)
 626:Generated_Source\PSoC5/MIDI2_UART.c ****             {   /* Read received data from FIFO*/
 627:Generated_Source\PSoC5/MIDI2_UART.c ****                 rxData = MIDI2_UART_RXDATA_REG;
 628:Generated_Source\PSoC5/MIDI2_UART.c ****                 /*Check status on error*/
 629:Generated_Source\PSoC5/MIDI2_UART.c ****                 if((rxStatus & (MIDI2_UART_RX_STS_BREAK | MIDI2_UART_RX_STS_PAR_ERROR |
 630:Generated_Source\PSoC5/MIDI2_UART.c ****                                MIDI2_UART_RX_STS_STOP_ERROR | MIDI2_UART_RX_STS_OVERRUN)) != 0u)
 631:Generated_Source\PSoC5/MIDI2_UART.c ****                 {
 632:Generated_Source\PSoC5/MIDI2_UART.c ****                     rxData = 0u;
 633:Generated_Source\PSoC5/MIDI2_UART.c ****                 }
 634:Generated_Source\PSoC5/MIDI2_UART.c ****             }
 635:Generated_Source\PSoC5/MIDI2_UART.c ****         #endif /* MIDI2_UART_RXBUFFERSIZE > MIDI2_UART_FIFO_LENGTH */
 636:Generated_Source\PSoC5/MIDI2_UART.c **** 
 637:Generated_Source\PSoC5/MIDI2_UART.c ****         return(rxData);
 638:Generated_Source\PSoC5/MIDI2_UART.c ****     }
 639:Generated_Source\PSoC5/MIDI2_UART.c **** 
 640:Generated_Source\PSoC5/MIDI2_UART.c **** 
 641:Generated_Source\PSoC5/MIDI2_UART.c ****     /*******************************************************************************
 642:Generated_Source\PSoC5/MIDI2_UART.c ****     * Function Name: MIDI2_UART_GetByte
 643:Generated_Source\PSoC5/MIDI2_UART.c ****     ********************************************************************************
 644:Generated_Source\PSoC5/MIDI2_UART.c ****     *
 645:Generated_Source\PSoC5/MIDI2_UART.c ****     * Summary:
 646:Generated_Source\PSoC5/MIDI2_UART.c ****     *  Grab the next available byte of data from the recieve FIFO
 647:Generated_Source\PSoC5/MIDI2_UART.c ****     *
 648:Generated_Source\PSoC5/MIDI2_UART.c ****     * Parameters:
 649:Generated_Source\PSoC5/MIDI2_UART.c ****     *  None.
 650:Generated_Source\PSoC5/MIDI2_UART.c ****     *
 651:Generated_Source\PSoC5/MIDI2_UART.c ****     * Return:
 652:Generated_Source\PSoC5/MIDI2_UART.c ****     *  MSB contains Status Register and LSB contains UART RX data
 653:Generated_Source\PSoC5/MIDI2_UART.c ****     *
 654:Generated_Source\PSoC5/MIDI2_UART.c ****     * Reentrant:
 655:Generated_Source\PSoC5/MIDI2_UART.c ****     *  No.
 656:Generated_Source\PSoC5/MIDI2_UART.c ****     *
 657:Generated_Source\PSoC5/MIDI2_UART.c ****     *******************************************************************************/
 658:Generated_Source\PSoC5/MIDI2_UART.c ****     uint16 MIDI2_UART_GetByte(void) 
 659:Generated_Source\PSoC5/MIDI2_UART.c ****     {
 660:Generated_Source\PSoC5/MIDI2_UART.c ****         return ( ((uint16)MIDI2_UART_ReadRxStatus() << 8u) | MIDI2_UART_ReadRxData() );
 661:Generated_Source\PSoC5/MIDI2_UART.c ****     }
 662:Generated_Source\PSoC5/MIDI2_UART.c **** 
 663:Generated_Source\PSoC5/MIDI2_UART.c **** 
 664:Generated_Source\PSoC5/MIDI2_UART.c ****     /*******************************************************************************
 665:Generated_Source\PSoC5/MIDI2_UART.c ****     * Function Name: MIDI2_UART_GetRxBufferSize
 666:Generated_Source\PSoC5/MIDI2_UART.c ****     ********************************************************************************
 667:Generated_Source\PSoC5/MIDI2_UART.c ****     *
 668:Generated_Source\PSoC5/MIDI2_UART.c ****     * Summary:
 669:Generated_Source\PSoC5/MIDI2_UART.c ****     *  Determine the amount of bytes left in the RX buffer and return the count in
 670:Generated_Source\PSoC5/MIDI2_UART.c ****     *  bytes
 671:Generated_Source\PSoC5/MIDI2_UART.c ****     *
 672:Generated_Source\PSoC5/MIDI2_UART.c ****     * Parameters:
 673:Generated_Source\PSoC5/MIDI2_UART.c ****     *  None.
 674:Generated_Source\PSoC5/MIDI2_UART.c ****     *
 675:Generated_Source\PSoC5/MIDI2_UART.c ****     * Return:
 676:Generated_Source\PSoC5/MIDI2_UART.c ****     *  uint8: Integer count of the number of bytes left
 677:Generated_Source\PSoC5/MIDI2_UART.c ****     *  in the RX buffer
 678:Generated_Source\PSoC5/MIDI2_UART.c ****     *
 679:Generated_Source\PSoC5/MIDI2_UART.c ****     * Global Variables:
ARM GAS  C:\Users\anjmarqu\AppData\Local\Temp\cc7ytAPG.s 			page 18


 680:Generated_Source\PSoC5/MIDI2_UART.c ****     *  MIDI2_UART_rxBufferWrite - used to calculate left bytes.
 681:Generated_Source\PSoC5/MIDI2_UART.c ****     *  MIDI2_UART_rxBufferRead - used to calculate left bytes.
 682:Generated_Source\PSoC5/MIDI2_UART.c ****     *  MIDI2_UART_rxBufferLoopDetect - checked to decide left bytes amount.
 683:Generated_Source\PSoC5/MIDI2_UART.c ****     *
 684:Generated_Source\PSoC5/MIDI2_UART.c ****     * Reentrant:
 685:Generated_Source\PSoC5/MIDI2_UART.c ****     *  No.
 686:Generated_Source\PSoC5/MIDI2_UART.c ****     *
 687:Generated_Source\PSoC5/MIDI2_UART.c ****     * Theory:
 688:Generated_Source\PSoC5/MIDI2_UART.c ****     *  Allows the user to find out how full the RX Buffer is.
 689:Generated_Source\PSoC5/MIDI2_UART.c ****     *
 690:Generated_Source\PSoC5/MIDI2_UART.c ****     *******************************************************************************/
 691:Generated_Source\PSoC5/MIDI2_UART.c ****     uint8 MIDI2_UART_GetRxBufferSize(void)
 692:Generated_Source\PSoC5/MIDI2_UART.c ****                                                             
 693:Generated_Source\PSoC5/MIDI2_UART.c ****     {
 694:Generated_Source\PSoC5/MIDI2_UART.c ****         uint8 size;
 695:Generated_Source\PSoC5/MIDI2_UART.c **** 
 696:Generated_Source\PSoC5/MIDI2_UART.c ****         #if(MIDI2_UART_RXBUFFERSIZE > MIDI2_UART_FIFO_LENGTH)
 697:Generated_Source\PSoC5/MIDI2_UART.c **** 
 698:Generated_Source\PSoC5/MIDI2_UART.c ****             /* Disable Rx interrupt. */
 699:Generated_Source\PSoC5/MIDI2_UART.c ****             /* Protect variables that could change on interrupt. */
 700:Generated_Source\PSoC5/MIDI2_UART.c ****             #if(MIDI2_UART_RX_INTERRUPT_ENABLED)
 701:Generated_Source\PSoC5/MIDI2_UART.c ****                 MIDI2_UART_DisableRxInt();
 702:Generated_Source\PSoC5/MIDI2_UART.c ****             #endif /* MIDI2_UART_RX_INTERRUPT_ENABLED */
 703:Generated_Source\PSoC5/MIDI2_UART.c **** 
 704:Generated_Source\PSoC5/MIDI2_UART.c ****             if(MIDI2_UART_rxBufferRead == MIDI2_UART_rxBufferWrite)
 705:Generated_Source\PSoC5/MIDI2_UART.c ****             {
 706:Generated_Source\PSoC5/MIDI2_UART.c ****                 if(MIDI2_UART_rxBufferLoopDetect > 0u)
 707:Generated_Source\PSoC5/MIDI2_UART.c ****                 {
 708:Generated_Source\PSoC5/MIDI2_UART.c ****                     size = MIDI2_UART_RXBUFFERSIZE;
 709:Generated_Source\PSoC5/MIDI2_UART.c ****                 }
 710:Generated_Source\PSoC5/MIDI2_UART.c ****                 else
 711:Generated_Source\PSoC5/MIDI2_UART.c ****                 {
 712:Generated_Source\PSoC5/MIDI2_UART.c ****                     size = 0u;
 713:Generated_Source\PSoC5/MIDI2_UART.c ****                 }
 714:Generated_Source\PSoC5/MIDI2_UART.c ****             }
 715:Generated_Source\PSoC5/MIDI2_UART.c ****             else if(MIDI2_UART_rxBufferRead < MIDI2_UART_rxBufferWrite)
 716:Generated_Source\PSoC5/MIDI2_UART.c ****             {
 717:Generated_Source\PSoC5/MIDI2_UART.c ****                 size = (MIDI2_UART_rxBufferWrite - MIDI2_UART_rxBufferRead);
 718:Generated_Source\PSoC5/MIDI2_UART.c ****             }
 719:Generated_Source\PSoC5/MIDI2_UART.c ****             else
 720:Generated_Source\PSoC5/MIDI2_UART.c ****             {
 721:Generated_Source\PSoC5/MIDI2_UART.c ****                 size = (MIDI2_UART_RXBUFFERSIZE - MIDI2_UART_rxBufferRead) + MIDI2_UART_rxBufferWri
 722:Generated_Source\PSoC5/MIDI2_UART.c ****             }
 723:Generated_Source\PSoC5/MIDI2_UART.c **** 
 724:Generated_Source\PSoC5/MIDI2_UART.c ****             /* Enable Rx interrupt. */
 725:Generated_Source\PSoC5/MIDI2_UART.c ****             #if(MIDI2_UART_RX_INTERRUPT_ENABLED)
 726:Generated_Source\PSoC5/MIDI2_UART.c ****                 MIDI2_UART_EnableRxInt();
 727:Generated_Source\PSoC5/MIDI2_UART.c ****             #endif /* End MIDI2_UART_RX_INTERRUPT_ENABLED */
 728:Generated_Source\PSoC5/MIDI2_UART.c **** 
 729:Generated_Source\PSoC5/MIDI2_UART.c ****         #else /* MIDI2_UART_RXBUFFERSIZE > MIDI2_UART_FIFO_LENGTH */
 730:Generated_Source\PSoC5/MIDI2_UART.c **** 
 731:Generated_Source\PSoC5/MIDI2_UART.c ****             /* We can only know if there is data in the fifo. */
 732:Generated_Source\PSoC5/MIDI2_UART.c ****             size = ((MIDI2_UART_RXSTATUS_REG & MIDI2_UART_RX_STS_FIFO_NOTEMPTY) != 0u) ? 1u : 0u;
 733:Generated_Source\PSoC5/MIDI2_UART.c **** 
 734:Generated_Source\PSoC5/MIDI2_UART.c ****         #endif /* End MIDI2_UART_RXBUFFERSIZE > MIDI2_UART_FIFO_LENGTH */
 735:Generated_Source\PSoC5/MIDI2_UART.c **** 
 736:Generated_Source\PSoC5/MIDI2_UART.c ****         return(size);
ARM GAS  C:\Users\anjmarqu\AppData\Local\Temp\cc7ytAPG.s 			page 19


 737:Generated_Source\PSoC5/MIDI2_UART.c ****     }
 738:Generated_Source\PSoC5/MIDI2_UART.c **** 
 739:Generated_Source\PSoC5/MIDI2_UART.c **** 
 740:Generated_Source\PSoC5/MIDI2_UART.c ****     /*******************************************************************************
 741:Generated_Source\PSoC5/MIDI2_UART.c ****     * Function Name: MIDI2_UART_ClearRxBuffer
 742:Generated_Source\PSoC5/MIDI2_UART.c ****     ********************************************************************************
 743:Generated_Source\PSoC5/MIDI2_UART.c ****     *
 744:Generated_Source\PSoC5/MIDI2_UART.c ****     * Summary:
 745:Generated_Source\PSoC5/MIDI2_UART.c ****     *  Clears the RX RAM buffer by setting the read and write pointers both to zero.
 746:Generated_Source\PSoC5/MIDI2_UART.c ****     *  Clears hardware RX FIFO.
 747:Generated_Source\PSoC5/MIDI2_UART.c ****     *
 748:Generated_Source\PSoC5/MIDI2_UART.c ****     * Parameters:
 749:Generated_Source\PSoC5/MIDI2_UART.c ****     *  None.
 750:Generated_Source\PSoC5/MIDI2_UART.c ****     *
 751:Generated_Source\PSoC5/MIDI2_UART.c ****     * Return:
 752:Generated_Source\PSoC5/MIDI2_UART.c ****     *  None.
 753:Generated_Source\PSoC5/MIDI2_UART.c ****     *
 754:Generated_Source\PSoC5/MIDI2_UART.c ****     * Global Variables:
 755:Generated_Source\PSoC5/MIDI2_UART.c ****     *  MIDI2_UART_rxBufferWrite - cleared to zero.
 756:Generated_Source\PSoC5/MIDI2_UART.c ****     *  MIDI2_UART_rxBufferRead - cleared to zero.
 757:Generated_Source\PSoC5/MIDI2_UART.c ****     *  MIDI2_UART_rxBufferLoopDetect - cleared to zero.
 758:Generated_Source\PSoC5/MIDI2_UART.c ****     *  MIDI2_UART_rxBufferOverflow - cleared to zero.
 759:Generated_Source\PSoC5/MIDI2_UART.c ****     *
 760:Generated_Source\PSoC5/MIDI2_UART.c ****     * Reentrant:
 761:Generated_Source\PSoC5/MIDI2_UART.c ****     *  No.
 762:Generated_Source\PSoC5/MIDI2_UART.c ****     *
 763:Generated_Source\PSoC5/MIDI2_UART.c ****     * Theory:
 764:Generated_Source\PSoC5/MIDI2_UART.c ****     *  Setting the pointers to zero makes the system believe there is no data to
 765:Generated_Source\PSoC5/MIDI2_UART.c ****     *  read and writing will resume at address 0 overwriting any data that may
 766:Generated_Source\PSoC5/MIDI2_UART.c ****     *  have remained in the RAM.
 767:Generated_Source\PSoC5/MIDI2_UART.c ****     *
 768:Generated_Source\PSoC5/MIDI2_UART.c ****     * Side Effects:
 769:Generated_Source\PSoC5/MIDI2_UART.c ****     *  Any received data not read from the RAM or FIFO buffer will be lost.
 770:Generated_Source\PSoC5/MIDI2_UART.c ****     *******************************************************************************/
 771:Generated_Source\PSoC5/MIDI2_UART.c ****     void MIDI2_UART_ClearRxBuffer(void) 
 772:Generated_Source\PSoC5/MIDI2_UART.c ****     {
 773:Generated_Source\PSoC5/MIDI2_UART.c ****         uint8 enableInterrupts;
 774:Generated_Source\PSoC5/MIDI2_UART.c **** 
 775:Generated_Source\PSoC5/MIDI2_UART.c ****         /* clear the HW FIFO */
 776:Generated_Source\PSoC5/MIDI2_UART.c ****         /* Enter critical section */
 777:Generated_Source\PSoC5/MIDI2_UART.c ****         enableInterrupts = CyEnterCriticalSection();
 778:Generated_Source\PSoC5/MIDI2_UART.c ****         MIDI2_UART_RXDATA_AUX_CTL_REG |=  MIDI2_UART_RX_FIFO_CLR;
 779:Generated_Source\PSoC5/MIDI2_UART.c ****         MIDI2_UART_RXDATA_AUX_CTL_REG &= (uint8)~MIDI2_UART_RX_FIFO_CLR;
 780:Generated_Source\PSoC5/MIDI2_UART.c ****         /* Exit critical section */
 781:Generated_Source\PSoC5/MIDI2_UART.c ****         CyExitCriticalSection(enableInterrupts);
 782:Generated_Source\PSoC5/MIDI2_UART.c **** 
 783:Generated_Source\PSoC5/MIDI2_UART.c ****         #if(MIDI2_UART_RXBUFFERSIZE > MIDI2_UART_FIFO_LENGTH)
 784:Generated_Source\PSoC5/MIDI2_UART.c ****             /* Disable Rx interrupt. */
 785:Generated_Source\PSoC5/MIDI2_UART.c ****             /* Protect variables that could change on interrupt. */
 786:Generated_Source\PSoC5/MIDI2_UART.c ****             #if(MIDI2_UART_RX_INTERRUPT_ENABLED)
 787:Generated_Source\PSoC5/MIDI2_UART.c ****                 MIDI2_UART_DisableRxInt();
 788:Generated_Source\PSoC5/MIDI2_UART.c ****             #endif /* End MIDI2_UART_RX_INTERRUPT_ENABLED */
 789:Generated_Source\PSoC5/MIDI2_UART.c **** 
 790:Generated_Source\PSoC5/MIDI2_UART.c ****             MIDI2_UART_rxBufferRead = 0u;
 791:Generated_Source\PSoC5/MIDI2_UART.c ****             MIDI2_UART_rxBufferWrite = 0u;
 792:Generated_Source\PSoC5/MIDI2_UART.c ****             MIDI2_UART_rxBufferLoopDetect = 0u;
 793:Generated_Source\PSoC5/MIDI2_UART.c ****             MIDI2_UART_rxBufferOverflow = 0u;
ARM GAS  C:\Users\anjmarqu\AppData\Local\Temp\cc7ytAPG.s 			page 20


 794:Generated_Source\PSoC5/MIDI2_UART.c **** 
 795:Generated_Source\PSoC5/MIDI2_UART.c ****             /* Enable Rx interrupt. */
 796:Generated_Source\PSoC5/MIDI2_UART.c ****             #if(MIDI2_UART_RX_INTERRUPT_ENABLED)
 797:Generated_Source\PSoC5/MIDI2_UART.c ****                 MIDI2_UART_EnableRxInt();
 798:Generated_Source\PSoC5/MIDI2_UART.c ****             #endif /* End MIDI2_UART_RX_INTERRUPT_ENABLED */
 799:Generated_Source\PSoC5/MIDI2_UART.c ****         #endif /* End MIDI2_UART_RXBUFFERSIZE > MIDI2_UART_FIFO_LENGTH */
 800:Generated_Source\PSoC5/MIDI2_UART.c **** 
 801:Generated_Source\PSoC5/MIDI2_UART.c ****     }
 802:Generated_Source\PSoC5/MIDI2_UART.c **** 
 803:Generated_Source\PSoC5/MIDI2_UART.c **** 
 804:Generated_Source\PSoC5/MIDI2_UART.c ****     /*******************************************************************************
 805:Generated_Source\PSoC5/MIDI2_UART.c ****     * Function Name: MIDI2_UART_SetRxAddressMode
 806:Generated_Source\PSoC5/MIDI2_UART.c ****     ********************************************************************************
 807:Generated_Source\PSoC5/MIDI2_UART.c ****     *
 808:Generated_Source\PSoC5/MIDI2_UART.c ****     * Summary:
 809:Generated_Source\PSoC5/MIDI2_UART.c ****     *  Set the receive addressing mode
 810:Generated_Source\PSoC5/MIDI2_UART.c ****     *
 811:Generated_Source\PSoC5/MIDI2_UART.c ****     * Parameters:
 812:Generated_Source\PSoC5/MIDI2_UART.c ****     *  addressMode: Enumerated value indicating the mode of RX addressing
 813:Generated_Source\PSoC5/MIDI2_UART.c ****     *  MIDI2_UART__B_UART__AM_SW_BYTE_BYTE -  Software Byte-by-Byte address
 814:Generated_Source\PSoC5/MIDI2_UART.c ****     *                                               detection
 815:Generated_Source\PSoC5/MIDI2_UART.c ****     *  MIDI2_UART__B_UART__AM_SW_DETECT_TO_BUFFER - Software Detect to Buffer
 816:Generated_Source\PSoC5/MIDI2_UART.c ****     *                                               address detection
 817:Generated_Source\PSoC5/MIDI2_UART.c ****     *  MIDI2_UART__B_UART__AM_HW_BYTE_BY_BYTE - Hardware Byte-by-Byte address
 818:Generated_Source\PSoC5/MIDI2_UART.c ****     *                                               detection
 819:Generated_Source\PSoC5/MIDI2_UART.c ****     *  MIDI2_UART__B_UART__AM_HW_DETECT_TO_BUFFER - Hardware Detect to Buffer
 820:Generated_Source\PSoC5/MIDI2_UART.c ****     *                                               address detection
 821:Generated_Source\PSoC5/MIDI2_UART.c ****     *  MIDI2_UART__B_UART__AM_NONE - No address detection
 822:Generated_Source\PSoC5/MIDI2_UART.c ****     *
 823:Generated_Source\PSoC5/MIDI2_UART.c ****     * Return:
 824:Generated_Source\PSoC5/MIDI2_UART.c ****     *  None.
 825:Generated_Source\PSoC5/MIDI2_UART.c ****     *
 826:Generated_Source\PSoC5/MIDI2_UART.c ****     * Global Variables:
 827:Generated_Source\PSoC5/MIDI2_UART.c ****     *  MIDI2_UART_rxAddressMode - the parameter stored in this variable for
 828:Generated_Source\PSoC5/MIDI2_UART.c ****     *   the farther usage in RX ISR.
 829:Generated_Source\PSoC5/MIDI2_UART.c ****     *  MIDI2_UART_rxAddressDetected - set to initial state (0).
 830:Generated_Source\PSoC5/MIDI2_UART.c ****     *
 831:Generated_Source\PSoC5/MIDI2_UART.c ****     *******************************************************************************/
 832:Generated_Source\PSoC5/MIDI2_UART.c ****     void MIDI2_UART_SetRxAddressMode(uint8 addressMode)
 833:Generated_Source\PSoC5/MIDI2_UART.c ****                                                         
 834:Generated_Source\PSoC5/MIDI2_UART.c ****     {
 835:Generated_Source\PSoC5/MIDI2_UART.c ****         #if(MIDI2_UART_RXHW_ADDRESS_ENABLED)
 836:Generated_Source\PSoC5/MIDI2_UART.c ****             #if(MIDI2_UART_CONTROL_REG_REMOVED)
 837:Generated_Source\PSoC5/MIDI2_UART.c ****                 if(addressMode != 0u) { }     /* release compiler warning */
 838:Generated_Source\PSoC5/MIDI2_UART.c ****             #else /* MIDI2_UART_CONTROL_REG_REMOVED */
 839:Generated_Source\PSoC5/MIDI2_UART.c ****                 uint8 tmpCtrl;
 840:Generated_Source\PSoC5/MIDI2_UART.c ****                 tmpCtrl = MIDI2_UART_CONTROL_REG & (uint8)~MIDI2_UART_CTRL_RXADDR_MODE_MASK;
 841:Generated_Source\PSoC5/MIDI2_UART.c ****                 tmpCtrl |= (uint8)(addressMode << MIDI2_UART_CTRL_RXADDR_MODE0_SHIFT);
 842:Generated_Source\PSoC5/MIDI2_UART.c ****                 MIDI2_UART_CONTROL_REG = tmpCtrl;
 843:Generated_Source\PSoC5/MIDI2_UART.c ****                 #if(MIDI2_UART_RX_INTERRUPT_ENABLED && \
 844:Generated_Source\PSoC5/MIDI2_UART.c ****                    (MIDI2_UART_RXBUFFERSIZE > MIDI2_UART_FIFO_LENGTH) )
 845:Generated_Source\PSoC5/MIDI2_UART.c ****                     MIDI2_UART_rxAddressMode = addressMode;
 846:Generated_Source\PSoC5/MIDI2_UART.c ****                     MIDI2_UART_rxAddressDetected = 0u;
 847:Generated_Source\PSoC5/MIDI2_UART.c ****                 #endif /* End MIDI2_UART_RXBUFFERSIZE > MIDI2_UART_FIFO_LENGTH*/
 848:Generated_Source\PSoC5/MIDI2_UART.c ****             #endif /* End MIDI2_UART_CONTROL_REG_REMOVED */
 849:Generated_Source\PSoC5/MIDI2_UART.c ****         #else /* MIDI2_UART_RXHW_ADDRESS_ENABLED */
 850:Generated_Source\PSoC5/MIDI2_UART.c ****             if(addressMode != 0u) { }     /* release compiler warning */
ARM GAS  C:\Users\anjmarqu\AppData\Local\Temp\cc7ytAPG.s 			page 21


 851:Generated_Source\PSoC5/MIDI2_UART.c ****         #endif /* End MIDI2_UART_RXHW_ADDRESS_ENABLED */
 852:Generated_Source\PSoC5/MIDI2_UART.c ****     }
 853:Generated_Source\PSoC5/MIDI2_UART.c **** 
 854:Generated_Source\PSoC5/MIDI2_UART.c **** 
 855:Generated_Source\PSoC5/MIDI2_UART.c ****     /*******************************************************************************
 856:Generated_Source\PSoC5/MIDI2_UART.c ****     * Function Name: MIDI2_UART_SetRxAddress1
 857:Generated_Source\PSoC5/MIDI2_UART.c ****     ********************************************************************************
 858:Generated_Source\PSoC5/MIDI2_UART.c ****     *
 859:Generated_Source\PSoC5/MIDI2_UART.c ****     * Summary:
 860:Generated_Source\PSoC5/MIDI2_UART.c ****     *  Set the first hardware address compare value
 861:Generated_Source\PSoC5/MIDI2_UART.c ****     *
 862:Generated_Source\PSoC5/MIDI2_UART.c ****     * Parameters:
 863:Generated_Source\PSoC5/MIDI2_UART.c ****     *  address
 864:Generated_Source\PSoC5/MIDI2_UART.c ****     *
 865:Generated_Source\PSoC5/MIDI2_UART.c ****     * Return:
 866:Generated_Source\PSoC5/MIDI2_UART.c ****     *  None.
 867:Generated_Source\PSoC5/MIDI2_UART.c ****     *
 868:Generated_Source\PSoC5/MIDI2_UART.c ****     *******************************************************************************/
 869:Generated_Source\PSoC5/MIDI2_UART.c ****     void MIDI2_UART_SetRxAddress1(uint8 address) 
 870:Generated_Source\PSoC5/MIDI2_UART.c **** 
 871:Generated_Source\PSoC5/MIDI2_UART.c ****     {
 872:Generated_Source\PSoC5/MIDI2_UART.c ****         MIDI2_UART_RXADDRESS1_REG = address;
 873:Generated_Source\PSoC5/MIDI2_UART.c ****     }
 874:Generated_Source\PSoC5/MIDI2_UART.c **** 
 875:Generated_Source\PSoC5/MIDI2_UART.c **** 
 876:Generated_Source\PSoC5/MIDI2_UART.c ****     /*******************************************************************************
 877:Generated_Source\PSoC5/MIDI2_UART.c ****     * Function Name: MIDI2_UART_SetRxAddress2
 878:Generated_Source\PSoC5/MIDI2_UART.c ****     ********************************************************************************
 879:Generated_Source\PSoC5/MIDI2_UART.c ****     *
 880:Generated_Source\PSoC5/MIDI2_UART.c ****     * Summary:
 881:Generated_Source\PSoC5/MIDI2_UART.c ****     *  Set the second hardware address compare value
 882:Generated_Source\PSoC5/MIDI2_UART.c ****     *
 883:Generated_Source\PSoC5/MIDI2_UART.c ****     * Parameters:
 884:Generated_Source\PSoC5/MIDI2_UART.c ****     *  address
 885:Generated_Source\PSoC5/MIDI2_UART.c ****     *
 886:Generated_Source\PSoC5/MIDI2_UART.c ****     * Return:
 887:Generated_Source\PSoC5/MIDI2_UART.c ****     *  None.
 888:Generated_Source\PSoC5/MIDI2_UART.c ****     *
 889:Generated_Source\PSoC5/MIDI2_UART.c ****     *******************************************************************************/
 890:Generated_Source\PSoC5/MIDI2_UART.c ****     void MIDI2_UART_SetRxAddress2(uint8 address) 
 891:Generated_Source\PSoC5/MIDI2_UART.c ****     {
 892:Generated_Source\PSoC5/MIDI2_UART.c ****         MIDI2_UART_RXADDRESS2_REG = address;
 893:Generated_Source\PSoC5/MIDI2_UART.c ****     }
 894:Generated_Source\PSoC5/MIDI2_UART.c **** 
 895:Generated_Source\PSoC5/MIDI2_UART.c **** #endif  /* MIDI2_UART_RX_ENABLED || MIDI2_UART_HD_ENABLED*/
 896:Generated_Source\PSoC5/MIDI2_UART.c **** 
 897:Generated_Source\PSoC5/MIDI2_UART.c **** 
 898:Generated_Source\PSoC5/MIDI2_UART.c **** #if( (MIDI2_UART_TX_ENABLED) || (MIDI2_UART_HD_ENABLED) )
 899:Generated_Source\PSoC5/MIDI2_UART.c **** 
 900:Generated_Source\PSoC5/MIDI2_UART.c ****     #if(MIDI2_UART_TX_INTERRUPT_ENABLED)
 901:Generated_Source\PSoC5/MIDI2_UART.c **** 
 902:Generated_Source\PSoC5/MIDI2_UART.c ****         /*******************************************************************************
 903:Generated_Source\PSoC5/MIDI2_UART.c ****         * Function Name: MIDI2_UART_EnableTxInt
 904:Generated_Source\PSoC5/MIDI2_UART.c ****         ********************************************************************************
 905:Generated_Source\PSoC5/MIDI2_UART.c ****         *
 906:Generated_Source\PSoC5/MIDI2_UART.c ****         * Summary:
 907:Generated_Source\PSoC5/MIDI2_UART.c ****         *  Enable TX interrupt generation
ARM GAS  C:\Users\anjmarqu\AppData\Local\Temp\cc7ytAPG.s 			page 22


 908:Generated_Source\PSoC5/MIDI2_UART.c ****         *
 909:Generated_Source\PSoC5/MIDI2_UART.c ****         * Parameters:
 910:Generated_Source\PSoC5/MIDI2_UART.c ****         *  None.
 911:Generated_Source\PSoC5/MIDI2_UART.c ****         *
 912:Generated_Source\PSoC5/MIDI2_UART.c ****         * Return:
 913:Generated_Source\PSoC5/MIDI2_UART.c ****         *  None.
 914:Generated_Source\PSoC5/MIDI2_UART.c ****         *
 915:Generated_Source\PSoC5/MIDI2_UART.c ****         * Theory:
 916:Generated_Source\PSoC5/MIDI2_UART.c ****         *  Enable the interrupt output -or- the interrupt component itself
 917:Generated_Source\PSoC5/MIDI2_UART.c ****         *
 918:Generated_Source\PSoC5/MIDI2_UART.c ****         *******************************************************************************/
 919:Generated_Source\PSoC5/MIDI2_UART.c ****         void MIDI2_UART_EnableTxInt(void) 
 920:Generated_Source\PSoC5/MIDI2_UART.c ****         {
 921:Generated_Source\PSoC5/MIDI2_UART.c ****             CyIntEnable(MIDI2_UART_TX_VECT_NUM);
 922:Generated_Source\PSoC5/MIDI2_UART.c ****         }
 923:Generated_Source\PSoC5/MIDI2_UART.c **** 
 924:Generated_Source\PSoC5/MIDI2_UART.c **** 
 925:Generated_Source\PSoC5/MIDI2_UART.c ****         /*******************************************************************************
 926:Generated_Source\PSoC5/MIDI2_UART.c ****         * Function Name: MIDI2_UART_DisableTxInt
 927:Generated_Source\PSoC5/MIDI2_UART.c ****         ********************************************************************************
 928:Generated_Source\PSoC5/MIDI2_UART.c ****         *
 929:Generated_Source\PSoC5/MIDI2_UART.c ****         * Summary:
 930:Generated_Source\PSoC5/MIDI2_UART.c ****         *  Disable TX interrupt generation
 931:Generated_Source\PSoC5/MIDI2_UART.c ****         *
 932:Generated_Source\PSoC5/MIDI2_UART.c ****         * Parameters:
 933:Generated_Source\PSoC5/MIDI2_UART.c ****         *  None.
 934:Generated_Source\PSoC5/MIDI2_UART.c ****         *
 935:Generated_Source\PSoC5/MIDI2_UART.c ****         * Return:
 936:Generated_Source\PSoC5/MIDI2_UART.c ****         *  None.
 937:Generated_Source\PSoC5/MIDI2_UART.c ****         *
 938:Generated_Source\PSoC5/MIDI2_UART.c ****         * Theory:
 939:Generated_Source\PSoC5/MIDI2_UART.c ****         *  Disable the interrupt output -or- the interrupt component itself
 940:Generated_Source\PSoC5/MIDI2_UART.c ****         *
 941:Generated_Source\PSoC5/MIDI2_UART.c ****         *******************************************************************************/
 942:Generated_Source\PSoC5/MIDI2_UART.c ****         void MIDI2_UART_DisableTxInt(void) 
 943:Generated_Source\PSoC5/MIDI2_UART.c ****         {
 944:Generated_Source\PSoC5/MIDI2_UART.c ****             CyIntDisable(MIDI2_UART_TX_VECT_NUM);
 268              		.loc 1 944 0
 269 0024 4024     		movs	r4, #64
 270              	.LBE43:
 271              	.LBE42:
 257:Generated_Source\PSoC5/MIDI2_UART.c ****         #if(MIDI2_UART_TX_INTERRUPT_ENABLED && (MIDI2_UART_TXBUFFERSIZE > MIDI2_UART_FIFO_LENGTH))
 272              		.loc 1 257 0
 273 0026 03F0EF03 		and	r3, r3, #239
 274 002a 81F80831 		strb	r3, [r1, #264]
 275              	.LBB45:
 276              	.LBB44:
 277              		.loc 1 944 0
 278 002e 1460     		str	r4, [r2]
 279              	.LBE44:
 280              	.LBE45:
 264:Generated_Source\PSoC5/MIDI2_UART.c **** 
 281              		.loc 1 264 0
 282 0030 BDE83840 		pop	{r3, r4, r5, lr}
 283              		.cfi_restore 14
 284              		.cfi_restore 5
 285              		.cfi_restore 4
ARM GAS  C:\Users\anjmarqu\AppData\Local\Temp\cc7ytAPG.s 			page 23


 286              		.cfi_restore 3
 287              		.cfi_def_cfa_offset 0
 263:Generated_Source\PSoC5/MIDI2_UART.c **** }
 288              		.loc 1 263 0
 289 0034 FFF7FEBF 		b	CyExitCriticalSection
 290              	.LVL9:
 291              	.L18:
 292              		.align	2
 293              	.L17:
 294 0038 90640040 		.word	1073767568
 295 003c 93640040 		.word	1073767571
 296 0040 80E100E0 		.word	-536813184
 297              		.cfi_endproc
 298              	.LFE3:
 299              		.size	MIDI2_UART_Stop, .-MIDI2_UART_Stop
 300              		.section	.text.MIDI2_UART_ReadControlRegister,"ax",%progbits
 301              		.align	2
 302              		.global	MIDI2_UART_ReadControlRegister
 303              		.thumb
 304              		.thumb_func
 305              		.type	MIDI2_UART_ReadControlRegister, %function
 306              	MIDI2_UART_ReadControlRegister:
 307              	.LFB4:
 282:Generated_Source\PSoC5/MIDI2_UART.c ****     #if( MIDI2_UART_CONTROL_REG_REMOVED )
 308              		.loc 1 282 0
 309              		.cfi_startproc
 310              		@ args = 0, pretend = 0, frame = 0
 311              		@ frame_needed = 0, uses_anonymous_args = 0
 312              		@ link register save eliminated.
 288:Generated_Source\PSoC5/MIDI2_UART.c **** 
 313              		.loc 1 288 0
 314 0000 0020     		movs	r0, #0
 315 0002 7047     		bx	lr
 316              		.cfi_endproc
 317              	.LFE4:
 318              		.size	MIDI2_UART_ReadControlRegister, .-MIDI2_UART_ReadControlRegister
 319              		.section	.text.MIDI2_UART_WriteControlRegister,"ax",%progbits
 320              		.align	2
 321              		.global	MIDI2_UART_WriteControlRegister
 322              		.thumb
 323              		.thumb_func
 324              		.type	MIDI2_UART_WriteControlRegister, %function
 325              	MIDI2_UART_WriteControlRegister:
 326              	.LFB5:
 306:Generated_Source\PSoC5/MIDI2_UART.c ****     #if( MIDI2_UART_CONTROL_REG_REMOVED )
 327              		.loc 1 306 0
 328              		.cfi_startproc
 329              		@ args = 0, pretend = 0, frame = 0
 330              		@ frame_needed = 0, uses_anonymous_args = 0
 331              		@ link register save eliminated.
 332              	.LVL10:
 333 0000 7047     		bx	lr
 334              		.cfi_endproc
 335              	.LFE5:
 336              		.size	MIDI2_UART_WriteControlRegister, .-MIDI2_UART_WriteControlRegister
 337 0002 00BF     		.section	.text.MIDI2_UART_EnableRxInt,"ax",%progbits
 338              		.align	2
ARM GAS  C:\Users\anjmarqu\AppData\Local\Temp\cc7ytAPG.s 			page 24


 339              		.global	MIDI2_UART_EnableRxInt
 340              		.thumb
 341              		.thumb_func
 342              		.type	MIDI2_UART_EnableRxInt, %function
 343              	MIDI2_UART_EnableRxInt:
 344              	.LFB6:
 337:Generated_Source\PSoC5/MIDI2_UART.c ****             CyIntEnable(MIDI2_UART_RX_VECT_NUM);
 345              		.loc 1 337 0
 346              		.cfi_startproc
 347              		@ args = 0, pretend = 0, frame = 0
 348              		@ frame_needed = 0, uses_anonymous_args = 0
 349              		@ link register save eliminated.
 338:Generated_Source\PSoC5/MIDI2_UART.c ****         }
 350              		.loc 1 338 0
 351 0000 014B     		ldr	r3, .L22
 352 0002 2022     		movs	r2, #32
 353 0004 1A60     		str	r2, [r3]
 354 0006 7047     		bx	lr
 355              	.L23:
 356              		.align	2
 357              	.L22:
 358 0008 00E100E0 		.word	-536813312
 359              		.cfi_endproc
 360              	.LFE6:
 361              		.size	MIDI2_UART_EnableRxInt, .-MIDI2_UART_EnableRxInt
 362              		.section	.text.MIDI2_UART_DisableRxInt,"ax",%progbits
 363              		.align	2
 364              		.global	MIDI2_UART_DisableRxInt
 365              		.thumb
 366              		.thumb_func
 367              		.type	MIDI2_UART_DisableRxInt, %function
 368              	MIDI2_UART_DisableRxInt:
 369              	.LFB7:
 360:Generated_Source\PSoC5/MIDI2_UART.c ****             CyIntDisable(MIDI2_UART_RX_VECT_NUM);
 370              		.loc 1 360 0
 371              		.cfi_startproc
 372              		@ args = 0, pretend = 0, frame = 0
 373              		@ frame_needed = 0, uses_anonymous_args = 0
 374              		@ link register save eliminated.
 361:Generated_Source\PSoC5/MIDI2_UART.c ****         }
 375              		.loc 1 361 0
 376 0000 014B     		ldr	r3, .L25
 377 0002 2022     		movs	r2, #32
 378 0004 1A60     		str	r2, [r3]
 379 0006 7047     		bx	lr
 380              	.L26:
 381              		.align	2
 382              	.L25:
 383 0008 80E100E0 		.word	-536813184
 384              		.cfi_endproc
 385              	.LFE7:
 386              		.size	MIDI2_UART_DisableRxInt, .-MIDI2_UART_DisableRxInt
 387              		.section	.text.MIDI2_UART_SetRxInterruptMode,"ax",%progbits
 388              		.align	2
 389              		.global	MIDI2_UART_SetRxInterruptMode
 390              		.thumb
 391              		.thumb_func
ARM GAS  C:\Users\anjmarqu\AppData\Local\Temp\cc7ytAPG.s 			page 25


 392              		.type	MIDI2_UART_SetRxInterruptMode, %function
 393              	MIDI2_UART_SetRxInterruptMode:
 394              	.LFB8:
 386:Generated_Source\PSoC5/MIDI2_UART.c ****         MIDI2_UART_RXSTATUS_MASK_REG  = intSrc;
 395              		.loc 1 386 0
 396              		.cfi_startproc
 397              		@ args = 0, pretend = 0, frame = 0
 398              		@ frame_needed = 0, uses_anonymous_args = 0
 399              		@ link register save eliminated.
 400              	.LVL11:
 387:Generated_Source\PSoC5/MIDI2_UART.c ****     }
 401              		.loc 1 387 0
 402 0000 014B     		ldr	r3, .L28
 403 0002 1870     		strb	r0, [r3]
 404 0004 7047     		bx	lr
 405              	.L29:
 406 0006 00BF     		.align	2
 407              	.L28:
 408 0008 83640040 		.word	1073767555
 409              		.cfi_endproc
 410              	.LFE8:
 411              		.size	MIDI2_UART_SetRxInterruptMode, .-MIDI2_UART_SetRxInterruptMode
 412              		.section	.text.MIDI2_UART_ReadRxData,"ax",%progbits
 413              		.align	2
 414              		.global	MIDI2_UART_ReadRxData
 415              		.thumb
 416              		.thumb_func
 417              		.type	MIDI2_UART_ReadRxData, %function
 418              	MIDI2_UART_ReadRxData:
 419              	.LFB9:
 419:Generated_Source\PSoC5/MIDI2_UART.c ****         uint8 rxData;
 420              		.loc 1 419 0
 421              		.cfi_startproc
 422              		@ args = 0, pretend = 0, frame = 0
 423              		@ frame_needed = 0, uses_anonymous_args = 0
 424              		@ link register save eliminated.
 425 0000 10B4     		push	{r4}
 426              		.cfi_def_cfa_offset 4
 427              		.cfi_offset 4, -4
 428              	.LBB46:
 429              	.LBB47:
 361:Generated_Source\PSoC5/MIDI2_UART.c ****         }
 430              		.loc 1 361 0
 431 0002 124B     		ldr	r3, .L39
 432              	.LBE47:
 433              	.LBE46:
 430:Generated_Source\PSoC5/MIDI2_UART.c ****             loc_rxBufferWrite = MIDI2_UART_rxBufferWrite;
 434              		.loc 1 430 0
 435 0004 124A     		ldr	r2, .L39+4
 436              	.LBB49:
 437              	.LBB48:
 361:Generated_Source\PSoC5/MIDI2_UART.c ****         }
 438              		.loc 1 361 0
 439 0006 2021     		movs	r1, #32
 440 0008 1960     		str	r1, [r3]
 441              	.LBE48:
 442              	.LBE49:
ARM GAS  C:\Users\anjmarqu\AppData\Local\Temp\cc7ytAPG.s 			page 26


 430:Generated_Source\PSoC5/MIDI2_UART.c ****             loc_rxBufferWrite = MIDI2_UART_rxBufferWrite;
 443              		.loc 1 430 0
 444 000a 5178     		ldrb	r1, [r2, #1]	@ zero_extendqisi2
 431:Generated_Source\PSoC5/MIDI2_UART.c **** 
 445              		.loc 1 431 0
 446 000c 9378     		ldrb	r3, [r2, #2]	@ zero_extendqisi2
 433:Generated_Source\PSoC5/MIDI2_UART.c ****             {
 447              		.loc 1 433 0
 448 000e D078     		ldrb	r0, [r2, #3]	@ zero_extendqisi2
 430:Generated_Source\PSoC5/MIDI2_UART.c ****             loc_rxBufferWrite = MIDI2_UART_rxBufferWrite;
 449              		.loc 1 430 0
 450 0010 C9B2     		uxtb	r1, r1
 451              	.LVL12:
 431:Generated_Source\PSoC5/MIDI2_UART.c **** 
 452              		.loc 1 431 0
 453 0012 DBB2     		uxtb	r3, r3
 454              	.LVL13:
 433:Generated_Source\PSoC5/MIDI2_UART.c ****             {
 455              		.loc 1 433 0
 456 0014 08B9     		cbnz	r0, .L31
 433:Generated_Source\PSoC5/MIDI2_UART.c ****             {
 457              		.loc 1 433 0 is_stmt 0 discriminator 1
 458 0016 9942     		cmp	r1, r3
 459 0018 13D0     		beq	.L32
 460              	.L31:
 436:Generated_Source\PSoC5/MIDI2_UART.c **** 
 461              		.loc 1 436 0 is_stmt 1
 462 001a 4B1C     		adds	r3, r1, #1
 463              	.LVL14:
 464 001c DBB2     		uxtb	r3, r3
 440:Generated_Source\PSoC5/MIDI2_UART.c ****                 }
 465              		.loc 1 440 0
 466 001e FF2B     		cmp	r3, #255
 435:Generated_Source\PSoC5/MIDI2_UART.c ****                 loc_rxBufferRead++;
 467              		.loc 1 435 0
 468 0020 0C48     		ldr	r0, .L39+8
 440:Generated_Source\PSoC5/MIDI2_UART.c ****                 }
 469              		.loc 1 440 0
 470 0022 08BF     		it	eq
 471 0024 0023     		moveq	r3, #0
 435:Generated_Source\PSoC5/MIDI2_UART.c ****                 loc_rxBufferRead++;
 472              		.loc 1 435 0
 473 0026 405C     		ldrb	r0, [r0, r1]	@ zero_extendqisi2
 443:Generated_Source\PSoC5/MIDI2_UART.c **** 
 474              		.loc 1 443 0
 475 0028 5370     		strb	r3, [r2, #1]
 445:Generated_Source\PSoC5/MIDI2_UART.c ****                 {
 476              		.loc 1 445 0
 477 002a D378     		ldrb	r3, [r2, #3]	@ zero_extendqisi2
 443:Generated_Source\PSoC5/MIDI2_UART.c **** 
 478              		.loc 1 443 0
 479 002c 084C     		ldr	r4, .L39+4
 435:Generated_Source\PSoC5/MIDI2_UART.c ****                 loc_rxBufferRead++;
 480              		.loc 1 435 0
 481 002e C0B2     		uxtb	r0, r0
 482              	.LVL15:
 445:Generated_Source\PSoC5/MIDI2_UART.c ****                 {
ARM GAS  C:\Users\anjmarqu\AppData\Local\Temp\cc7ytAPG.s 			page 27


 483              		.loc 1 445 0
 484 0030 0BB1     		cbz	r3, .L34
 485              	.LVL16:
 447:Generated_Source\PSoC5/MIDI2_UART.c ****                     #if( (MIDI2_UART_RX_INTERRUPT_ENABLED) && (MIDI2_UART_FLOW_CONTROL != 0u) && \
 486              		.loc 1 447 0
 487 0032 0023     		movs	r3, #0
 488 0034 E370     		strb	r3, [r4, #3]
 489              	.LVL17:
 490              	.L34:
 491              	.LBB50:
 492              	.LBB51:
 338:Generated_Source\PSoC5/MIDI2_UART.c ****         }
 493              		.loc 1 338 0
 494 0036 084B     		ldr	r3, .L39+12
 495 0038 2022     		movs	r2, #32
 496 003a 1A60     		str	r2, [r3]
 497              	.LBE51:
 498              	.LBE50:
 483:Generated_Source\PSoC5/MIDI2_UART.c **** 
 499              		.loc 1 483 0
 500 003c 5DF8044B 		ldr	r4, [sp], #4
 501              		.cfi_remember_state
 502              		.cfi_restore 4
 503              		.cfi_def_cfa_offset 0
 504 0040 7047     		bx	lr
 505              	.LVL18:
 506              	.L32:
 507              		.cfi_restore_state
 467:Generated_Source\PSoC5/MIDI2_UART.c ****             }
 508              		.loc 1 467 0
 509 0042 064B     		ldr	r3, .L39+16
 510              	.LVL19:
 511 0044 1878     		ldrb	r0, [r3]	@ zero_extendqisi2
 512 0046 C0B2     		uxtb	r0, r0
 513              	.LVL20:
 514 0048 F5E7     		b	.L34
 515              	.L40:
 516 004a 00BF     		.align	2
 517              	.L39:
 518 004c 80E100E0 		.word	-536813184
 519 0050 00000000 		.word	.LANCHOR0
 520 0054 00000000 		.word	MIDI2_UART_rxBuffer
 521 0058 00E100E0 		.word	-536813312
 522 005c 40640040 		.word	1073767488
 523              		.cfi_endproc
 524              	.LFE9:
 525              		.size	MIDI2_UART_ReadRxData, .-MIDI2_UART_ReadRxData
 526              		.section	.text.MIDI2_UART_ReadRxStatus,"ax",%progbits
 527              		.align	2
 528              		.global	MIDI2_UART_ReadRxStatus
 529              		.thumb
 530              		.thumb_func
 531              		.type	MIDI2_UART_ReadRxStatus, %function
 532              	MIDI2_UART_ReadRxStatus:
 533              	.LFB10:
 510:Generated_Source\PSoC5/MIDI2_UART.c ****         uint8 status;
 534              		.loc 1 510 0
ARM GAS  C:\Users\anjmarqu\AppData\Local\Temp\cc7ytAPG.s 			page 28


 535              		.cfi_startproc
 536              		@ args = 0, pretend = 0, frame = 0
 537              		@ frame_needed = 0, uses_anonymous_args = 0
 538              		@ link register save eliminated.
 513:Generated_Source\PSoC5/MIDI2_UART.c **** 
 539              		.loc 1 513 0
 540 0000 054A     		ldr	r2, .L46
 516:Generated_Source\PSoC5/MIDI2_UART.c ****             {
 541              		.loc 1 516 0
 542 0002 064B     		ldr	r3, .L46+4
 513:Generated_Source\PSoC5/MIDI2_UART.c **** 
 543              		.loc 1 513 0
 544 0004 1078     		ldrb	r0, [r2]	@ zero_extendqisi2
 516:Generated_Source\PSoC5/MIDI2_UART.c ****             {
 545              		.loc 1 516 0
 546 0006 1A79     		ldrb	r2, [r3, #4]	@ zero_extendqisi2
 513:Generated_Source\PSoC5/MIDI2_UART.c **** 
 547              		.loc 1 513 0
 548 0008 00F07F00 		and	r0, r0, #127
 549              	.LVL21:
 516:Generated_Source\PSoC5/MIDI2_UART.c ****             {
 550              		.loc 1 516 0
 551 000c 1AB1     		cbz	r2, .L42
 519:Generated_Source\PSoC5/MIDI2_UART.c ****             }
 552              		.loc 1 519 0
 553 000e 0022     		movs	r2, #0
 518:Generated_Source\PSoC5/MIDI2_UART.c ****                 MIDI2_UART_rxBufferOverflow = 0u;
 554              		.loc 1 518 0
 555 0010 40F08000 		orr	r0, r0, #128
 556              	.LVL22:
 519:Generated_Source\PSoC5/MIDI2_UART.c ****             }
 557              		.loc 1 519 0
 558 0014 1A71     		strb	r2, [r3, #4]
 559              	.L42:
 524:Generated_Source\PSoC5/MIDI2_UART.c **** 
 560              		.loc 1 524 0
 561 0016 7047     		bx	lr
 562              	.L47:
 563              		.align	2
 564              	.L46:
 565 0018 63640040 		.word	1073767523
 566 001c 00000000 		.word	.LANCHOR0
 567              		.cfi_endproc
 568              	.LFE10:
 569              		.size	MIDI2_UART_ReadRxStatus, .-MIDI2_UART_ReadRxStatus
 570              		.section	.text.MIDI2_UART_GetChar,"ax",%progbits
 571              		.align	2
 572              		.global	MIDI2_UART_GetChar
 573              		.thumb
 574              		.thumb_func
 575              		.type	MIDI2_UART_GetChar, %function
 576              	MIDI2_UART_GetChar:
 577              	.LFB11:
 557:Generated_Source\PSoC5/MIDI2_UART.c ****         uint8 rxData = 0u;
 578              		.loc 1 557 0
 579              		.cfi_startproc
 580              		@ args = 0, pretend = 0, frame = 0
ARM GAS  C:\Users\anjmarqu\AppData\Local\Temp\cc7ytAPG.s 			page 29


 581              		@ frame_needed = 0, uses_anonymous_args = 0
 582              		@ link register save eliminated.
 583              	.LVL23:
 584 0000 10B4     		push	{r4}
 585              		.cfi_def_cfa_offset 4
 586              		.cfi_offset 4, -4
 587              	.LBB52:
 588              	.LBB53:
 361:Generated_Source\PSoC5/MIDI2_UART.c ****         }
 589              		.loc 1 361 0
 590 0002 184B     		ldr	r3, .L60
 591              	.LBE53:
 592              	.LBE52:
 569:Generated_Source\PSoC5/MIDI2_UART.c ****             loc_rxBufferWrite = MIDI2_UART_rxBufferWrite;
 593              		.loc 1 569 0
 594 0004 184A     		ldr	r2, .L60+4
 595              	.LBB55:
 596              	.LBB54:
 361:Generated_Source\PSoC5/MIDI2_UART.c ****         }
 597              		.loc 1 361 0
 598 0006 2021     		movs	r1, #32
 599 0008 1960     		str	r1, [r3]
 600              	.LBE54:
 601              	.LBE55:
 569:Generated_Source\PSoC5/MIDI2_UART.c ****             loc_rxBufferWrite = MIDI2_UART_rxBufferWrite;
 602              		.loc 1 569 0
 603 000a 5178     		ldrb	r1, [r2, #1]	@ zero_extendqisi2
 570:Generated_Source\PSoC5/MIDI2_UART.c **** 
 604              		.loc 1 570 0
 605 000c 9378     		ldrb	r3, [r2, #2]	@ zero_extendqisi2
 572:Generated_Source\PSoC5/MIDI2_UART.c ****             {
 606              		.loc 1 572 0
 607 000e D078     		ldrb	r0, [r2, #3]	@ zero_extendqisi2
 569:Generated_Source\PSoC5/MIDI2_UART.c ****             loc_rxBufferWrite = MIDI2_UART_rxBufferWrite;
 608              		.loc 1 569 0
 609 0010 C9B2     		uxtb	r1, r1
 610              	.LVL24:
 570:Generated_Source\PSoC5/MIDI2_UART.c **** 
 611              		.loc 1 570 0
 612 0012 DBB2     		uxtb	r3, r3
 613              	.LVL25:
 572:Generated_Source\PSoC5/MIDI2_UART.c ****             {
 614              		.loc 1 572 0
 615 0014 08B9     		cbnz	r0, .L49
 572:Generated_Source\PSoC5/MIDI2_UART.c ****             {
 616              		.loc 1 572 0 is_stmt 0 discriminator 1
 617 0016 9942     		cmp	r1, r3
 618 0018 13D0     		beq	.L50
 619              	.L49:
 575:Generated_Source\PSoC5/MIDI2_UART.c ****                 if(loc_rxBufferRead >= MIDI2_UART_RXBUFFERSIZE)
 620              		.loc 1 575 0 is_stmt 1
 621 001a 4B1C     		adds	r3, r1, #1
 622              	.LVL26:
 623 001c DBB2     		uxtb	r3, r3
 578:Generated_Source\PSoC5/MIDI2_UART.c ****                 }
 624              		.loc 1 578 0
 625 001e FF2B     		cmp	r3, #255
ARM GAS  C:\Users\anjmarqu\AppData\Local\Temp\cc7ytAPG.s 			page 30


 574:Generated_Source\PSoC5/MIDI2_UART.c ****                 loc_rxBufferRead++;
 626              		.loc 1 574 0
 627 0020 1248     		ldr	r0, .L60+8
 578:Generated_Source\PSoC5/MIDI2_UART.c ****                 }
 628              		.loc 1 578 0
 629 0022 08BF     		it	eq
 630 0024 0023     		moveq	r3, #0
 574:Generated_Source\PSoC5/MIDI2_UART.c ****                 loc_rxBufferRead++;
 631              		.loc 1 574 0
 632 0026 405C     		ldrb	r0, [r0, r1]	@ zero_extendqisi2
 581:Generated_Source\PSoC5/MIDI2_UART.c **** 
 633              		.loc 1 581 0
 634 0028 5370     		strb	r3, [r2, #1]
 583:Generated_Source\PSoC5/MIDI2_UART.c ****                 {
 635              		.loc 1 583 0
 636 002a D378     		ldrb	r3, [r2, #3]	@ zero_extendqisi2
 581:Generated_Source\PSoC5/MIDI2_UART.c **** 
 637              		.loc 1 581 0
 638 002c 0E4C     		ldr	r4, .L60+4
 574:Generated_Source\PSoC5/MIDI2_UART.c ****                 loc_rxBufferRead++;
 639              		.loc 1 574 0
 640 002e C0B2     		uxtb	r0, r0
 641              	.LVL27:
 583:Generated_Source\PSoC5/MIDI2_UART.c ****                 {
 642              		.loc 1 583 0
 643 0030 0BB1     		cbz	r3, .L52
 644              	.LVL28:
 585:Generated_Source\PSoC5/MIDI2_UART.c ****                     #if( (MIDI2_UART_RX_INTERRUPT_ENABLED) && (MIDI2_UART_FLOW_CONTROL != 0u) )
 645              		.loc 1 585 0
 646 0032 0023     		movs	r3, #0
 647 0034 E370     		strb	r3, [r4, #3]
 648              	.LVL29:
 649              	.L52:
 650              	.LBB56:
 651              	.LBB57:
 338:Generated_Source\PSoC5/MIDI2_UART.c ****         }
 652              		.loc 1 338 0
 653 0036 0E4B     		ldr	r3, .L60+12
 654 0038 2022     		movs	r2, #32
 655 003a 1A60     		str	r2, [r3]
 656              	.LBE57:
 657              	.LBE56:
 638:Generated_Source\PSoC5/MIDI2_UART.c **** 
 658              		.loc 1 638 0
 659 003c 5DF8044B 		ldr	r4, [sp], #4
 660              		.cfi_remember_state
 661              		.cfi_restore 4
 662              		.cfi_def_cfa_offset 0
 663 0040 7047     		bx	lr
 664              	.LVL30:
 665              	.L50:
 666              		.cfi_restore_state
 604:Generated_Source\PSoC5/MIDI2_UART.c ****                 if((rxStatus & MIDI2_UART_RX_STS_FIFO_NOTEMPTY) != 0u)
 667              		.loc 1 604 0
 668 0042 0C4B     		ldr	r3, .L60+16
 669              	.LVL31:
 670 0044 1B78     		ldrb	r3, [r3]	@ zero_extendqisi2
ARM GAS  C:\Users\anjmarqu\AppData\Local\Temp\cc7ytAPG.s 			page 31


 671 0046 DBB2     		uxtb	r3, r3
 672              	.LVL32:
 605:Generated_Source\PSoC5/MIDI2_UART.c ****                 {   /* Read received data from FIFO*/
 673              		.loc 1 605 0
 674 0048 03F02002 		and	r2, r3, #32
 675 004c 02F0FF00 		and	r0, r2, #255
 676 0050 002A     		cmp	r2, #0
 677 0052 F0D0     		beq	.L52
 607:Generated_Source\PSoC5/MIDI2_UART.c ****                     /*Check status on error*/
 678              		.loc 1 607 0
 679 0054 084A     		ldr	r2, .L60+20
 612:Generated_Source\PSoC5/MIDI2_UART.c ****                     }
 680              		.loc 1 612 0
 681 0056 13F01E0F 		tst	r3, #30
 607:Generated_Source\PSoC5/MIDI2_UART.c ****                     /*Check status on error*/
 682              		.loc 1 607 0
 683 005a 1078     		ldrb	r0, [r2]	@ zero_extendqisi2
 684              	.LVL33:
 612:Generated_Source\PSoC5/MIDI2_UART.c ****                     }
 685              		.loc 1 612 0
 686 005c 18BF     		it	ne
 687 005e 0020     		movne	r0, #0
 688              	.LVL34:
 689 0060 E9E7     		b	.L52
 690              	.L61:
 691 0062 00BF     		.align	2
 692              	.L60:
 693 0064 80E100E0 		.word	-536813184
 694 0068 00000000 		.word	.LANCHOR0
 695 006c 00000000 		.word	MIDI2_UART_rxBuffer
 696 0070 00E100E0 		.word	-536813312
 697 0074 63640040 		.word	1073767523
 698 0078 40640040 		.word	1073767488
 699              		.cfi_endproc
 700              	.LFE11:
 701              		.size	MIDI2_UART_GetChar, .-MIDI2_UART_GetChar
 702              		.section	.text.MIDI2_UART_GetByte,"ax",%progbits
 703              		.align	2
 704              		.global	MIDI2_UART_GetByte
 705              		.thumb
 706              		.thumb_func
 707              		.type	MIDI2_UART_GetByte, %function
 708              	MIDI2_UART_GetByte:
 709              	.LFB12:
 659:Generated_Source\PSoC5/MIDI2_UART.c ****         return ( ((uint16)MIDI2_UART_ReadRxStatus() << 8u) | MIDI2_UART_ReadRxData() );
 710              		.loc 1 659 0
 711              		.cfi_startproc
 712              		@ args = 0, pretend = 0, frame = 0
 713              		@ frame_needed = 0, uses_anonymous_args = 0
 714 0000 10B5     		push	{r4, lr}
 715              		.cfi_def_cfa_offset 8
 716              		.cfi_offset 4, -8
 717              		.cfi_offset 14, -4
 718              	.LBB58:
 719              	.LBB59:
 513:Generated_Source\PSoC5/MIDI2_UART.c **** 
 720              		.loc 1 513 0
ARM GAS  C:\Users\anjmarqu\AppData\Local\Temp\cc7ytAPG.s 			page 32


 721 0002 084A     		ldr	r2, .L68
 516:Generated_Source\PSoC5/MIDI2_UART.c ****             {
 722              		.loc 1 516 0
 723 0004 084B     		ldr	r3, .L68+4
 513:Generated_Source\PSoC5/MIDI2_UART.c **** 
 724              		.loc 1 513 0
 725 0006 1478     		ldrb	r4, [r2]	@ zero_extendqisi2
 516:Generated_Source\PSoC5/MIDI2_UART.c ****             {
 726              		.loc 1 516 0
 727 0008 1A79     		ldrb	r2, [r3, #4]	@ zero_extendqisi2
 513:Generated_Source\PSoC5/MIDI2_UART.c **** 
 728              		.loc 1 513 0
 729 000a 04F07F04 		and	r4, r4, #127
 730              	.LVL35:
 516:Generated_Source\PSoC5/MIDI2_UART.c ****             {
 731              		.loc 1 516 0
 732 000e 1AB1     		cbz	r2, .L63
 519:Generated_Source\PSoC5/MIDI2_UART.c ****             }
 733              		.loc 1 519 0
 734 0010 0022     		movs	r2, #0
 518:Generated_Source\PSoC5/MIDI2_UART.c ****                 MIDI2_UART_rxBufferOverflow = 0u;
 735              		.loc 1 518 0
 736 0012 44F08004 		orr	r4, r4, #128
 737              	.LVL36:
 519:Generated_Source\PSoC5/MIDI2_UART.c ****             }
 738              		.loc 1 519 0
 739 0016 1A71     		strb	r2, [r3, #4]
 740              	.L63:
 741              	.LBE59:
 742              	.LBE58:
 660:Generated_Source\PSoC5/MIDI2_UART.c ****     }
 743              		.loc 1 660 0
 744 0018 FFF7FEFF 		bl	MIDI2_UART_ReadRxData
 745              	.LVL37:
 746 001c 40EA0420 		orr	r0, r0, r4, lsl #8
 661:Generated_Source\PSoC5/MIDI2_UART.c **** 
 747              		.loc 1 661 0
 748 0020 80B2     		uxth	r0, r0
 749 0022 10BD     		pop	{r4, pc}
 750              	.LVL38:
 751              	.L69:
 752              		.align	2
 753              	.L68:
 754 0024 63640040 		.word	1073767523
 755 0028 00000000 		.word	.LANCHOR0
 756              		.cfi_endproc
 757              	.LFE12:
 758              		.size	MIDI2_UART_GetByte, .-MIDI2_UART_GetByte
 759              		.section	.text.MIDI2_UART_GetRxBufferSize,"ax",%progbits
 760              		.align	2
 761              		.global	MIDI2_UART_GetRxBufferSize
 762              		.thumb
 763              		.thumb_func
 764              		.type	MIDI2_UART_GetRxBufferSize, %function
 765              	MIDI2_UART_GetRxBufferSize:
 766              	.LFB13:
 693:Generated_Source\PSoC5/MIDI2_UART.c ****         uint8 size;
ARM GAS  C:\Users\anjmarqu\AppData\Local\Temp\cc7ytAPG.s 			page 33


 767              		.loc 1 693 0
 768              		.cfi_startproc
 769              		@ args = 0, pretend = 0, frame = 0
 770              		@ frame_needed = 0, uses_anonymous_args = 0
 771              		@ link register save eliminated.
 772              	.LBB60:
 773              	.LBB61:
 361:Generated_Source\PSoC5/MIDI2_UART.c ****         }
 774              		.loc 1 361 0
 775 0000 0F4B     		ldr	r3, .L76
 776 0002 2021     		movs	r1, #32
 777              	.LBE61:
 778              	.LBE60:
 704:Generated_Source\PSoC5/MIDI2_UART.c ****             {
 779              		.loc 1 704 0
 780 0004 0F4A     		ldr	r2, .L76+4
 781              	.LBB63:
 782              	.LBB62:
 361:Generated_Source\PSoC5/MIDI2_UART.c ****         }
 783              		.loc 1 361 0
 784 0006 1960     		str	r1, [r3]
 785              	.LBE62:
 786              	.LBE63:
 704:Generated_Source\PSoC5/MIDI2_UART.c ****             {
 787              		.loc 1 704 0
 788 0008 5178     		ldrb	r1, [r2, #1]	@ zero_extendqisi2
 789 000a 9378     		ldrb	r3, [r2, #2]	@ zero_extendqisi2
 790 000c 9942     		cmp	r1, r3
 791 000e 0DD0     		beq	.L75
 715:Generated_Source\PSoC5/MIDI2_UART.c ****             {
 792              		.loc 1 715 0
 793 0010 5178     		ldrb	r1, [r2, #1]	@ zero_extendqisi2
 794 0012 9378     		ldrb	r3, [r2, #2]	@ zero_extendqisi2
 795 0014 9942     		cmp	r1, r3
 717:Generated_Source\PSoC5/MIDI2_UART.c ****             }
 796              		.loc 1 717 0
 797 0016 9378     		ldrb	r3, [r2, #2]	@ zero_extendqisi2
 798 0018 5078     		ldrb	r0, [r2, #1]	@ zero_extendqisi2
 799 001a 28BF     		it	cs
 800 001c 03F1FF33 		addcs	r3, r3, #-1
 721:Generated_Source\PSoC5/MIDI2_UART.c ****             }
 801              		.loc 1 721 0
 802 0020 181A     		subs	r0, r3, r0
 803              	.LBB64:
 804              	.LBB65:
 338:Generated_Source\PSoC5/MIDI2_UART.c ****         }
 805              		.loc 1 338 0
 806 0022 094B     		ldr	r3, .L76+8
 807 0024 2022     		movs	r2, #32
 808              	.LBE65:
 809              	.LBE64:
 721:Generated_Source\PSoC5/MIDI2_UART.c ****             }
 810              		.loc 1 721 0
 811 0026 C0B2     		uxtb	r0, r0
 812              	.LVL39:
 813              	.LBB69:
 814              	.LBB66:
ARM GAS  C:\Users\anjmarqu\AppData\Local\Temp\cc7ytAPG.s 			page 34


 338:Generated_Source\PSoC5/MIDI2_UART.c ****         }
 815              		.loc 1 338 0
 816 0028 1A60     		str	r2, [r3]
 817              	.LBE66:
 818              	.LBE69:
 737:Generated_Source\PSoC5/MIDI2_UART.c **** 
 819              		.loc 1 737 0
 820 002a 7047     		bx	lr
 821              	.LVL40:
 822              	.L75:
 706:Generated_Source\PSoC5/MIDI2_UART.c ****                 {
 823              		.loc 1 706 0
 824 002c D078     		ldrb	r0, [r2, #3]	@ zero_extendqisi2
 825              	.LBB70:
 826              	.LBB67:
 338:Generated_Source\PSoC5/MIDI2_UART.c ****         }
 827              		.loc 1 338 0
 828 002e 064B     		ldr	r3, .L76+8
 829 0030 2022     		movs	r2, #32
 830              	.LBE67:
 831              	.LBE70:
 706:Generated_Source\PSoC5/MIDI2_UART.c ****                 {
 832              		.loc 1 706 0
 833 0032 0028     		cmp	r0, #0
 834 0034 14BF     		ite	ne
 835 0036 FF20     		movne	r0, #255
 836 0038 0020     		moveq	r0, #0
 837              	.LVL41:
 838              	.LBB71:
 839              	.LBB68:
 338:Generated_Source\PSoC5/MIDI2_UART.c ****         }
 840              		.loc 1 338 0
 841 003a 1A60     		str	r2, [r3]
 842              	.LBE68:
 843              	.LBE71:
 737:Generated_Source\PSoC5/MIDI2_UART.c **** 
 844              		.loc 1 737 0
 845 003c 7047     		bx	lr
 846              	.L77:
 847 003e 00BF     		.align	2
 848              	.L76:
 849 0040 80E100E0 		.word	-536813184
 850 0044 00000000 		.word	.LANCHOR0
 851 0048 00E100E0 		.word	-536813312
 852              		.cfi_endproc
 853              	.LFE13:
 854              		.size	MIDI2_UART_GetRxBufferSize, .-MIDI2_UART_GetRxBufferSize
 855              		.section	.text.MIDI2_UART_ClearRxBuffer,"ax",%progbits
 856              		.align	2
 857              		.global	MIDI2_UART_ClearRxBuffer
 858              		.thumb
 859              		.thumb_func
 860              		.type	MIDI2_UART_ClearRxBuffer, %function
 861              	MIDI2_UART_ClearRxBuffer:
 862              	.LFB14:
 772:Generated_Source\PSoC5/MIDI2_UART.c ****         uint8 enableInterrupts;
 863              		.loc 1 772 0
ARM GAS  C:\Users\anjmarqu\AppData\Local\Temp\cc7ytAPG.s 			page 35


 864              		.cfi_startproc
 865              		@ args = 0, pretend = 0, frame = 0
 866              		@ frame_needed = 0, uses_anonymous_args = 0
 867 0000 10B5     		push	{r4, lr}
 868              		.cfi_def_cfa_offset 8
 869              		.cfi_offset 4, -8
 870              		.cfi_offset 14, -4
 777:Generated_Source\PSoC5/MIDI2_UART.c ****         MIDI2_UART_RXDATA_AUX_CTL_REG |=  MIDI2_UART_RX_FIFO_CLR;
 871              		.loc 1 777 0
 872 0002 FFF7FEFF 		bl	CyEnterCriticalSection
 873              	.LVL42:
 778:Generated_Source\PSoC5/MIDI2_UART.c ****         MIDI2_UART_RXDATA_AUX_CTL_REG &= (uint8)~MIDI2_UART_RX_FIFO_CLR;
 874              		.loc 1 778 0
 875 0006 0B4B     		ldr	r3, .L80
 876              	.LBB72:
 877              	.LBB73:
 361:Generated_Source\PSoC5/MIDI2_UART.c ****         }
 878              		.loc 1 361 0
 879 0008 0B4C     		ldr	r4, .L80+4
 880              	.LBE73:
 881              	.LBE72:
 778:Generated_Source\PSoC5/MIDI2_UART.c ****         MIDI2_UART_RXDATA_AUX_CTL_REG &= (uint8)~MIDI2_UART_RX_FIFO_CLR;
 882              		.loc 1 778 0
 883 000a 1A78     		ldrb	r2, [r3]	@ zero_extendqisi2
 884 000c 42F00102 		orr	r2, r2, #1
 885 0010 1A70     		strb	r2, [r3]
 779:Generated_Source\PSoC5/MIDI2_UART.c ****         /* Exit critical section */
 886              		.loc 1 779 0
 887 0012 1A78     		ldrb	r2, [r3]	@ zero_extendqisi2
 888 0014 02F0FE02 		and	r2, r2, #254
 889 0018 1A70     		strb	r2, [r3]
 781:Generated_Source\PSoC5/MIDI2_UART.c **** 
 890              		.loc 1 781 0
 891 001a FFF7FEFF 		bl	CyExitCriticalSection
 892              	.LVL43:
 790:Generated_Source\PSoC5/MIDI2_UART.c ****             MIDI2_UART_rxBufferWrite = 0u;
 893              		.loc 1 790 0
 894 001e 074B     		ldr	r3, .L80+8
 895 0020 0022     		movs	r2, #0
 896              	.LBB76:
 897              	.LBB74:
 361:Generated_Source\PSoC5/MIDI2_UART.c ****         }
 898              		.loc 1 361 0
 899 0022 2021     		movs	r1, #32
 900              	.LBE74:
 901              	.LBE76:
 902              	.LBB77:
 903              	.LBB78:
 338:Generated_Source\PSoC5/MIDI2_UART.c ****         }
 904              		.loc 1 338 0
 905 0024 0648     		ldr	r0, .L80+12
 906              	.LBE78:
 907              	.LBE77:
 908              	.LBB80:
 909              	.LBB75:
 361:Generated_Source\PSoC5/MIDI2_UART.c ****         }
 910              		.loc 1 361 0
ARM GAS  C:\Users\anjmarqu\AppData\Local\Temp\cc7ytAPG.s 			page 36


 911 0026 2160     		str	r1, [r4]
 912              	.LBE75:
 913              	.LBE80:
 790:Generated_Source\PSoC5/MIDI2_UART.c ****             MIDI2_UART_rxBufferWrite = 0u;
 914              		.loc 1 790 0
 915 0028 5A70     		strb	r2, [r3, #1]
 791:Generated_Source\PSoC5/MIDI2_UART.c ****             MIDI2_UART_rxBufferLoopDetect = 0u;
 916              		.loc 1 791 0
 917 002a 9A70     		strb	r2, [r3, #2]
 792:Generated_Source\PSoC5/MIDI2_UART.c ****             MIDI2_UART_rxBufferOverflow = 0u;
 918              		.loc 1 792 0
 919 002c DA70     		strb	r2, [r3, #3]
 793:Generated_Source\PSoC5/MIDI2_UART.c **** 
 920              		.loc 1 793 0
 921 002e 1A71     		strb	r2, [r3, #4]
 922              	.LBB81:
 923              	.LBB79:
 338:Generated_Source\PSoC5/MIDI2_UART.c ****         }
 924              		.loc 1 338 0
 925 0030 0160     		str	r1, [r0]
 926 0032 10BD     		pop	{r4, pc}
 927              	.L81:
 928              		.align	2
 929              	.L80:
 930 0034 90640040 		.word	1073767568
 931 0038 80E100E0 		.word	-536813184
 932 003c 00000000 		.word	.LANCHOR0
 933 0040 00E100E0 		.word	-536813312
 934              	.LBE79:
 935              	.LBE81:
 936              		.cfi_endproc
 937              	.LFE14:
 938              		.size	MIDI2_UART_ClearRxBuffer, .-MIDI2_UART_ClearRxBuffer
 939              		.section	.text.MIDI2_UART_SetRxAddressMode,"ax",%progbits
 940              		.align	2
 941              		.global	MIDI2_UART_SetRxAddressMode
 942              		.thumb
 943              		.thumb_func
 944              		.type	MIDI2_UART_SetRxAddressMode, %function
 945              	MIDI2_UART_SetRxAddressMode:
 946              	.LFB15:
 834:Generated_Source\PSoC5/MIDI2_UART.c ****         #if(MIDI2_UART_RXHW_ADDRESS_ENABLED)
 947              		.loc 1 834 0
 948              		.cfi_startproc
 949              		@ args = 0, pretend = 0, frame = 0
 950              		@ frame_needed = 0, uses_anonymous_args = 0
 951              		@ link register save eliminated.
 952              	.LVL44:
 953 0000 7047     		bx	lr
 954              		.cfi_endproc
 955              	.LFE15:
 956              		.size	MIDI2_UART_SetRxAddressMode, .-MIDI2_UART_SetRxAddressMode
 957 0002 00BF     		.section	.text.MIDI2_UART_SetRxAddress1,"ax",%progbits
 958              		.align	2
 959              		.global	MIDI2_UART_SetRxAddress1
 960              		.thumb
 961              		.thumb_func
ARM GAS  C:\Users\anjmarqu\AppData\Local\Temp\cc7ytAPG.s 			page 37


 962              		.type	MIDI2_UART_SetRxAddress1, %function
 963              	MIDI2_UART_SetRxAddress1:
 964              	.LFB16:
 871:Generated_Source\PSoC5/MIDI2_UART.c ****         MIDI2_UART_RXADDRESS1_REG = address;
 965              		.loc 1 871 0
 966              		.cfi_startproc
 967              		@ args = 0, pretend = 0, frame = 0
 968              		@ frame_needed = 0, uses_anonymous_args = 0
 969              		@ link register save eliminated.
 970              	.LVL45:
 872:Generated_Source\PSoC5/MIDI2_UART.c ****     }
 971              		.loc 1 872 0
 972 0000 014B     		ldr	r3, .L84
 973 0002 1870     		strb	r0, [r3]
 974 0004 7047     		bx	lr
 975              	.L85:
 976 0006 00BF     		.align	2
 977              	.L84:
 978 0008 20640040 		.word	1073767456
 979              		.cfi_endproc
 980              	.LFE16:
 981              		.size	MIDI2_UART_SetRxAddress1, .-MIDI2_UART_SetRxAddress1
 982              		.section	.text.MIDI2_UART_SetRxAddress2,"ax",%progbits
 983              		.align	2
 984              		.global	MIDI2_UART_SetRxAddress2
 985              		.thumb
 986              		.thumb_func
 987              		.type	MIDI2_UART_SetRxAddress2, %function
 988              	MIDI2_UART_SetRxAddress2:
 989              	.LFB17:
 891:Generated_Source\PSoC5/MIDI2_UART.c ****         MIDI2_UART_RXADDRESS2_REG = address;
 990              		.loc 1 891 0
 991              		.cfi_startproc
 992              		@ args = 0, pretend = 0, frame = 0
 993              		@ frame_needed = 0, uses_anonymous_args = 0
 994              		@ link register save eliminated.
 995              	.LVL46:
 892:Generated_Source\PSoC5/MIDI2_UART.c ****     }
 996              		.loc 1 892 0
 997 0000 014B     		ldr	r3, .L87
 998 0002 1870     		strb	r0, [r3]
 999 0004 7047     		bx	lr
 1000              	.L88:
 1001 0006 00BF     		.align	2
 1002              	.L87:
 1003 0008 30640040 		.word	1073767472
 1004              		.cfi_endproc
 1005              	.LFE17:
 1006              		.size	MIDI2_UART_SetRxAddress2, .-MIDI2_UART_SetRxAddress2
 1007              		.section	.text.MIDI2_UART_EnableTxInt,"ax",%progbits
 1008              		.align	2
 1009              		.global	MIDI2_UART_EnableTxInt
 1010              		.thumb
 1011              		.thumb_func
 1012              		.type	MIDI2_UART_EnableTxInt, %function
 1013              	MIDI2_UART_EnableTxInt:
 1014              	.LFB18:
ARM GAS  C:\Users\anjmarqu\AppData\Local\Temp\cc7ytAPG.s 			page 38


 920:Generated_Source\PSoC5/MIDI2_UART.c ****             CyIntEnable(MIDI2_UART_TX_VECT_NUM);
 1015              		.loc 1 920 0
 1016              		.cfi_startproc
 1017              		@ args = 0, pretend = 0, frame = 0
 1018              		@ frame_needed = 0, uses_anonymous_args = 0
 1019              		@ link register save eliminated.
 921:Generated_Source\PSoC5/MIDI2_UART.c ****         }
 1020              		.loc 1 921 0
 1021 0000 014B     		ldr	r3, .L90
 1022 0002 4022     		movs	r2, #64
 1023 0004 1A60     		str	r2, [r3]
 1024 0006 7047     		bx	lr
 1025              	.L91:
 1026              		.align	2
 1027              	.L90:
 1028 0008 00E100E0 		.word	-536813312
 1029              		.cfi_endproc
 1030              	.LFE18:
 1031              		.size	MIDI2_UART_EnableTxInt, .-MIDI2_UART_EnableTxInt
 1032              		.section	.text.MIDI2_UART_DisableTxInt,"ax",%progbits
 1033              		.align	2
 1034              		.global	MIDI2_UART_DisableTxInt
 1035              		.thumb
 1036              		.thumb_func
 1037              		.type	MIDI2_UART_DisableTxInt, %function
 1038              	MIDI2_UART_DisableTxInt:
 1039              	.LFB19:
 943:Generated_Source\PSoC5/MIDI2_UART.c ****             CyIntDisable(MIDI2_UART_TX_VECT_NUM);
 1040              		.loc 1 943 0
 1041              		.cfi_startproc
 1042              		@ args = 0, pretend = 0, frame = 0
 1043              		@ frame_needed = 0, uses_anonymous_args = 0
 1044              		@ link register save eliminated.
 1045              		.loc 1 944 0
 1046 0000 014B     		ldr	r3, .L93
 1047 0002 4022     		movs	r2, #64
 1048 0004 1A60     		str	r2, [r3]
 1049 0006 7047     		bx	lr
 1050              	.L94:
 1051              		.align	2
 1052              	.L93:
 1053 0008 80E100E0 		.word	-536813184
 1054              		.cfi_endproc
 1055              	.LFE19:
 1056              		.size	MIDI2_UART_DisableTxInt, .-MIDI2_UART_DisableTxInt
 1057              		.section	.text.MIDI2_UART_SetTxInterruptMode,"ax",%progbits
 1058              		.align	2
 1059              		.global	MIDI2_UART_SetTxInterruptMode
 1060              		.thumb
 1061              		.thumb_func
 1062              		.type	MIDI2_UART_SetTxInterruptMode, %function
 1063              	MIDI2_UART_SetTxInterruptMode:
 1064              	.LFB20:
 945:Generated_Source\PSoC5/MIDI2_UART.c ****         }
 946:Generated_Source\PSoC5/MIDI2_UART.c **** 
 947:Generated_Source\PSoC5/MIDI2_UART.c ****     #endif /* MIDI2_UART_TX_INTERRUPT_ENABLED */
 948:Generated_Source\PSoC5/MIDI2_UART.c **** 
ARM GAS  C:\Users\anjmarqu\AppData\Local\Temp\cc7ytAPG.s 			page 39


 949:Generated_Source\PSoC5/MIDI2_UART.c **** 
 950:Generated_Source\PSoC5/MIDI2_UART.c ****     /*******************************************************************************
 951:Generated_Source\PSoC5/MIDI2_UART.c ****     * Function Name: MIDI2_UART_SetTxInterruptMode
 952:Generated_Source\PSoC5/MIDI2_UART.c ****     ********************************************************************************
 953:Generated_Source\PSoC5/MIDI2_UART.c ****     *
 954:Generated_Source\PSoC5/MIDI2_UART.c ****     * Summary:
 955:Generated_Source\PSoC5/MIDI2_UART.c ****     *  Configure which status bits trigger an interrupt event
 956:Generated_Source\PSoC5/MIDI2_UART.c ****     *
 957:Generated_Source\PSoC5/MIDI2_UART.c ****     * Parameters:
 958:Generated_Source\PSoC5/MIDI2_UART.c ****     *  intSrc: An or'd combination of the desired status bit masks (defined in
 959:Generated_Source\PSoC5/MIDI2_UART.c ****     *          the header file)
 960:Generated_Source\PSoC5/MIDI2_UART.c ****     *
 961:Generated_Source\PSoC5/MIDI2_UART.c ****     * Return:
 962:Generated_Source\PSoC5/MIDI2_UART.c ****     *  None.
 963:Generated_Source\PSoC5/MIDI2_UART.c ****     *
 964:Generated_Source\PSoC5/MIDI2_UART.c ****     * Theory:
 965:Generated_Source\PSoC5/MIDI2_UART.c ****     *  Enables the output of specific status bits to the interrupt controller
 966:Generated_Source\PSoC5/MIDI2_UART.c ****     *
 967:Generated_Source\PSoC5/MIDI2_UART.c ****     *******************************************************************************/
 968:Generated_Source\PSoC5/MIDI2_UART.c ****     void MIDI2_UART_SetTxInterruptMode(uint8 intSrc) 
 969:Generated_Source\PSoC5/MIDI2_UART.c ****     {
 1065              		.loc 1 969 0
 1066              		.cfi_startproc
 1067              		@ args = 0, pretend = 0, frame = 0
 1068              		@ frame_needed = 0, uses_anonymous_args = 0
 1069              		@ link register save eliminated.
 1070              	.LVL47:
 970:Generated_Source\PSoC5/MIDI2_UART.c ****         MIDI2_UART_TXSTATUS_MASK_REG = intSrc;
 1071              		.loc 1 970 0
 1072 0000 014B     		ldr	r3, .L96
 1073 0002 1870     		strb	r0, [r3]
 1074 0004 7047     		bx	lr
 1075              	.L97:
 1076 0006 00BF     		.align	2
 1077              	.L96:
 1078 0008 88650040 		.word	1073767816
 1079              		.cfi_endproc
 1080              	.LFE20:
 1081              		.size	MIDI2_UART_SetTxInterruptMode, .-MIDI2_UART_SetTxInterruptMode
 1082              		.section	.text.MIDI2_UART_WriteTxData,"ax",%progbits
 1083              		.align	2
 1084              		.global	MIDI2_UART_WriteTxData
 1085              		.thumb
 1086              		.thumb_func
 1087              		.type	MIDI2_UART_WriteTxData, %function
 1088              	MIDI2_UART_WriteTxData:
 1089              	.LFB21:
 971:Generated_Source\PSoC5/MIDI2_UART.c ****     }
 972:Generated_Source\PSoC5/MIDI2_UART.c **** 
 973:Generated_Source\PSoC5/MIDI2_UART.c **** 
 974:Generated_Source\PSoC5/MIDI2_UART.c ****     /*******************************************************************************
 975:Generated_Source\PSoC5/MIDI2_UART.c ****     * Function Name: MIDI2_UART_WriteTxData
 976:Generated_Source\PSoC5/MIDI2_UART.c ****     ********************************************************************************
 977:Generated_Source\PSoC5/MIDI2_UART.c ****     *
 978:Generated_Source\PSoC5/MIDI2_UART.c ****     * Summary:
 979:Generated_Source\PSoC5/MIDI2_UART.c ****     *  Write a byte of data to the Transmit FIFO or TX buffer to be sent when the
 980:Generated_Source\PSoC5/MIDI2_UART.c ****     *  bus is available. WriteTxData sends a byte without checking for buffer room
ARM GAS  C:\Users\anjmarqu\AppData\Local\Temp\cc7ytAPG.s 			page 40


 981:Generated_Source\PSoC5/MIDI2_UART.c ****     *  or status. It is up to the user to separately check status.
 982:Generated_Source\PSoC5/MIDI2_UART.c ****     *
 983:Generated_Source\PSoC5/MIDI2_UART.c ****     * Parameters:
 984:Generated_Source\PSoC5/MIDI2_UART.c ****     *  TXDataByte: byte of data to place in the transmit FIFO
 985:Generated_Source\PSoC5/MIDI2_UART.c ****     *
 986:Generated_Source\PSoC5/MIDI2_UART.c ****     * Return:
 987:Generated_Source\PSoC5/MIDI2_UART.c ****     * void
 988:Generated_Source\PSoC5/MIDI2_UART.c ****     *
 989:Generated_Source\PSoC5/MIDI2_UART.c ****     * Global Variables:
 990:Generated_Source\PSoC5/MIDI2_UART.c ****     *  MIDI2_UART_txBuffer - RAM buffer pointer for save data for transmission
 991:Generated_Source\PSoC5/MIDI2_UART.c ****     *  MIDI2_UART_txBufferWrite - cyclic index for write to txBuffer,
 992:Generated_Source\PSoC5/MIDI2_UART.c ****     *    incremented after each byte saved to buffer.
 993:Generated_Source\PSoC5/MIDI2_UART.c ****     *  MIDI2_UART_txBufferRead - cyclic index for read from txBuffer,
 994:Generated_Source\PSoC5/MIDI2_UART.c ****     *    checked to identify the condition to write to FIFO directly or to TX buffer
 995:Generated_Source\PSoC5/MIDI2_UART.c ****     *  MIDI2_UART_initVar - checked to identify that the component has been
 996:Generated_Source\PSoC5/MIDI2_UART.c ****     *    initialized.
 997:Generated_Source\PSoC5/MIDI2_UART.c ****     *
 998:Generated_Source\PSoC5/MIDI2_UART.c ****     * Reentrant:
 999:Generated_Source\PSoC5/MIDI2_UART.c ****     *  No.
1000:Generated_Source\PSoC5/MIDI2_UART.c ****     *
1001:Generated_Source\PSoC5/MIDI2_UART.c ****     *******************************************************************************/
1002:Generated_Source\PSoC5/MIDI2_UART.c ****     void MIDI2_UART_WriteTxData(uint8 txDataByte) 
1003:Generated_Source\PSoC5/MIDI2_UART.c ****     {
 1090              		.loc 1 1003 0
 1091              		.cfi_startproc
 1092              		@ args = 0, pretend = 0, frame = 0
 1093              		@ frame_needed = 0, uses_anonymous_args = 0
 1094              		@ link register save eliminated.
 1095              	.LVL48:
 1096 0000 10B4     		push	{r4}
 1097              		.cfi_def_cfa_offset 4
 1098              		.cfi_offset 4, -4
1004:Generated_Source\PSoC5/MIDI2_UART.c ****         /* If not Initialized then skip this function*/
1005:Generated_Source\PSoC5/MIDI2_UART.c ****         if(MIDI2_UART_initVar != 0u)
 1099              		.loc 1 1005 0
 1100 0002 104B     		ldr	r3, .L109
 1101 0004 1A78     		ldrb	r2, [r3]	@ zero_extendqisi2
 1102 0006 9AB1     		cbz	r2, .L98
 1103              	.LBB82:
 1104              	.LBB83:
 944:Generated_Source\PSoC5/MIDI2_UART.c ****         }
 1105              		.loc 1 944 0
 1106 0008 0F4A     		ldr	r2, .L109+4
 1107 000a 4021     		movs	r1, #64
 1108 000c 1160     		str	r1, [r2]
 1109              	.LBE83:
 1110              	.LBE82:
1006:Generated_Source\PSoC5/MIDI2_UART.c ****         {
1007:Generated_Source\PSoC5/MIDI2_UART.c ****             #if(MIDI2_UART_TXBUFFERSIZE > MIDI2_UART_FIFO_LENGTH)
1008:Generated_Source\PSoC5/MIDI2_UART.c **** 
1009:Generated_Source\PSoC5/MIDI2_UART.c ****                 /* Disable Tx interrupt. */
1010:Generated_Source\PSoC5/MIDI2_UART.c ****                 /* Protect variables that could change on interrupt. */
1011:Generated_Source\PSoC5/MIDI2_UART.c ****                 #if(MIDI2_UART_TX_INTERRUPT_ENABLED)
1012:Generated_Source\PSoC5/MIDI2_UART.c ****                     MIDI2_UART_DisableTxInt();
1013:Generated_Source\PSoC5/MIDI2_UART.c ****                 #endif /* End MIDI2_UART_TX_INTERRUPT_ENABLED */
1014:Generated_Source\PSoC5/MIDI2_UART.c **** 
1015:Generated_Source\PSoC5/MIDI2_UART.c ****                 if( (MIDI2_UART_txBufferRead == MIDI2_UART_txBufferWrite) &&
ARM GAS  C:\Users\anjmarqu\AppData\Local\Temp\cc7ytAPG.s 			page 41


 1111              		.loc 1 1015 0
 1112 000e 5979     		ldrb	r1, [r3, #5]	@ zero_extendqisi2
 1113 0010 9A79     		ldrb	r2, [r3, #6]	@ zero_extendqisi2
 1114 0012 9142     		cmp	r1, r2
 1115 0014 0FD0     		beq	.L108
 1116              	.L100:
1016:Generated_Source\PSoC5/MIDI2_UART.c ****                     ((MIDI2_UART_TXSTATUS_REG & MIDI2_UART_TX_STS_FIFO_FULL) == 0u) )
1017:Generated_Source\PSoC5/MIDI2_UART.c ****                 {
1018:Generated_Source\PSoC5/MIDI2_UART.c ****                     /* Add directly to the FIFO. */
1019:Generated_Source\PSoC5/MIDI2_UART.c ****                     MIDI2_UART_TXDATA_REG = txDataByte;
1020:Generated_Source\PSoC5/MIDI2_UART.c ****                 }
1021:Generated_Source\PSoC5/MIDI2_UART.c ****                 else
1022:Generated_Source\PSoC5/MIDI2_UART.c ****                 {
1023:Generated_Source\PSoC5/MIDI2_UART.c ****                     if(MIDI2_UART_txBufferWrite >= MIDI2_UART_TXBUFFERSIZE)
 1117              		.loc 1 1023 0
 1118 0016 FF2A     		cmp	r2, #255
 1119 0018 18BF     		it	ne
 1120 001a 511C     		addne	r1, r2, #1
1024:Generated_Source\PSoC5/MIDI2_UART.c ****                     {
1025:Generated_Source\PSoC5/MIDI2_UART.c ****                         MIDI2_UART_txBufferWrite = 0u;
1026:Generated_Source\PSoC5/MIDI2_UART.c ****                     }
1027:Generated_Source\PSoC5/MIDI2_UART.c **** 
1028:Generated_Source\PSoC5/MIDI2_UART.c ****                     MIDI2_UART_txBuffer[MIDI2_UART_txBufferWrite] = txDataByte;
 1121              		.loc 1 1028 0
 1122 001c 0B4C     		ldr	r4, .L109+8
 1123 001e 12BF     		itee	ne
 1124 0020 C9B2     		uxtbne	r1, r1
 1125 0022 0121     		moveq	r1, #1
 1126 0024 0022     		moveq	r2, #0
1029:Generated_Source\PSoC5/MIDI2_UART.c **** 
1030:Generated_Source\PSoC5/MIDI2_UART.c ****                     /* Add to the software buffer. */
1031:Generated_Source\PSoC5/MIDI2_UART.c ****                     MIDI2_UART_txBufferWrite++;
 1127              		.loc 1 1031 0
 1128 0026 9971     		strb	r1, [r3, #6]
1028:Generated_Source\PSoC5/MIDI2_UART.c **** 
 1129              		.loc 1 1028 0
 1130 0028 A054     		strb	r0, [r4, r2]
 1131              	.L101:
 1132              	.LBB84:
 1133              	.LBB85:
 921:Generated_Source\PSoC5/MIDI2_UART.c ****         }
 1134              		.loc 1 921 0
 1135 002a 094B     		ldr	r3, .L109+12
 1136 002c 4022     		movs	r2, #64
 1137 002e 1A60     		str	r2, [r3]
 1138              	.L98:
 1139              	.LBE85:
 1140              	.LBE84:
1032:Generated_Source\PSoC5/MIDI2_UART.c **** 
1033:Generated_Source\PSoC5/MIDI2_UART.c ****                 }
1034:Generated_Source\PSoC5/MIDI2_UART.c **** 
1035:Generated_Source\PSoC5/MIDI2_UART.c ****                 /* Enable Tx interrupt. */
1036:Generated_Source\PSoC5/MIDI2_UART.c ****                 #if(MIDI2_UART_TX_INTERRUPT_ENABLED)
1037:Generated_Source\PSoC5/MIDI2_UART.c ****                     MIDI2_UART_EnableTxInt();
1038:Generated_Source\PSoC5/MIDI2_UART.c ****                 #endif /* End MIDI2_UART_TX_INTERRUPT_ENABLED */
1039:Generated_Source\PSoC5/MIDI2_UART.c **** 
1040:Generated_Source\PSoC5/MIDI2_UART.c ****             #else /* MIDI2_UART_TXBUFFERSIZE > MIDI2_UART_FIFO_LENGTH */
ARM GAS  C:\Users\anjmarqu\AppData\Local\Temp\cc7ytAPG.s 			page 42


1041:Generated_Source\PSoC5/MIDI2_UART.c **** 
1042:Generated_Source\PSoC5/MIDI2_UART.c ****                 /* Add directly to the FIFO. */
1043:Generated_Source\PSoC5/MIDI2_UART.c ****                 MIDI2_UART_TXDATA_REG = txDataByte;
1044:Generated_Source\PSoC5/MIDI2_UART.c **** 
1045:Generated_Source\PSoC5/MIDI2_UART.c ****             #endif /* End MIDI2_UART_TXBUFFERSIZE > MIDI2_UART_FIFO_LENGTH */
1046:Generated_Source\PSoC5/MIDI2_UART.c ****         }
1047:Generated_Source\PSoC5/MIDI2_UART.c ****     }
 1141              		.loc 1 1047 0
 1142 0030 5DF8044B 		ldr	r4, [sp], #4
 1143              		.cfi_remember_state
 1144              		.cfi_restore 4
 1145              		.cfi_def_cfa_offset 0
 1146 0034 7047     		bx	lr
 1147              	.L108:
 1148              		.cfi_restore_state
1016:Generated_Source\PSoC5/MIDI2_UART.c ****                 {
 1149              		.loc 1 1016 0 discriminator 1
 1150 0036 0749     		ldr	r1, .L109+16
 1151 0038 0978     		ldrb	r1, [r1]	@ zero_extendqisi2
1015:Generated_Source\PSoC5/MIDI2_UART.c ****                     ((MIDI2_UART_TXSTATUS_REG & MIDI2_UART_TX_STS_FIFO_FULL) == 0u) )
 1152              		.loc 1 1015 0 discriminator 1
 1153 003a 4907     		lsls	r1, r1, #29
 1154 003c EBD4     		bmi	.L100
1019:Generated_Source\PSoC5/MIDI2_UART.c ****                 }
 1155              		.loc 1 1019 0
 1156 003e 064B     		ldr	r3, .L109+20
 1157 0040 1870     		strb	r0, [r3]
 1158 0042 F2E7     		b	.L101
 1159              	.L110:
 1160              		.align	2
 1161              	.L109:
 1162 0044 00000000 		.word	.LANCHOR0
 1163 0048 80E100E0 		.word	-536813184
 1164 004c 00000000 		.word	MIDI2_UART_txBuffer
 1165 0050 00E100E0 		.word	-536813312
 1166 0054 68650040 		.word	1073767784
 1167 0058 49650040 		.word	1073767753
 1168              		.cfi_endproc
 1169              	.LFE21:
 1170              		.size	MIDI2_UART_WriteTxData, .-MIDI2_UART_WriteTxData
 1171              		.section	.text.MIDI2_UART_ReadTxStatus,"ax",%progbits
 1172              		.align	2
 1173              		.global	MIDI2_UART_ReadTxStatus
 1174              		.thumb
 1175              		.thumb_func
 1176              		.type	MIDI2_UART_ReadTxStatus, %function
 1177              	MIDI2_UART_ReadTxStatus:
 1178              	.LFB22:
1048:Generated_Source\PSoC5/MIDI2_UART.c **** 
1049:Generated_Source\PSoC5/MIDI2_UART.c **** 
1050:Generated_Source\PSoC5/MIDI2_UART.c ****     /*******************************************************************************
1051:Generated_Source\PSoC5/MIDI2_UART.c ****     * Function Name: MIDI2_UART_ReadTxStatus
1052:Generated_Source\PSoC5/MIDI2_UART.c ****     ********************************************************************************
1053:Generated_Source\PSoC5/MIDI2_UART.c ****     *
1054:Generated_Source\PSoC5/MIDI2_UART.c ****     * Summary:
1055:Generated_Source\PSoC5/MIDI2_UART.c ****     *  Read the status register for the component
1056:Generated_Source\PSoC5/MIDI2_UART.c ****     *
ARM GAS  C:\Users\anjmarqu\AppData\Local\Temp\cc7ytAPG.s 			page 43


1057:Generated_Source\PSoC5/MIDI2_UART.c ****     * Parameters:
1058:Generated_Source\PSoC5/MIDI2_UART.c ****     *  None.
1059:Generated_Source\PSoC5/MIDI2_UART.c ****     *
1060:Generated_Source\PSoC5/MIDI2_UART.c ****     * Return:
1061:Generated_Source\PSoC5/MIDI2_UART.c ****     *  Contents of the status register
1062:Generated_Source\PSoC5/MIDI2_UART.c ****     *
1063:Generated_Source\PSoC5/MIDI2_UART.c ****     * Theory:
1064:Generated_Source\PSoC5/MIDI2_UART.c ****     *  This function reads the status register which is clear on read. It is up to
1065:Generated_Source\PSoC5/MIDI2_UART.c ****     *  the user to handle all bits in this return value accordingly, even if the bit
1066:Generated_Source\PSoC5/MIDI2_UART.c ****     *  was not enabled as an interrupt source the event happened and must be handled
1067:Generated_Source\PSoC5/MIDI2_UART.c ****     *  accordingly.
1068:Generated_Source\PSoC5/MIDI2_UART.c ****     *
1069:Generated_Source\PSoC5/MIDI2_UART.c ****     *******************************************************************************/
1070:Generated_Source\PSoC5/MIDI2_UART.c ****     uint8 MIDI2_UART_ReadTxStatus(void) 
1071:Generated_Source\PSoC5/MIDI2_UART.c ****     {
 1179              		.loc 1 1071 0
 1180              		.cfi_startproc
 1181              		@ args = 0, pretend = 0, frame = 0
 1182              		@ frame_needed = 0, uses_anonymous_args = 0
 1183              		@ link register save eliminated.
1072:Generated_Source\PSoC5/MIDI2_UART.c ****         return(MIDI2_UART_TXSTATUS_REG);
 1184              		.loc 1 1072 0
 1185 0000 014B     		ldr	r3, .L112
 1186 0002 1878     		ldrb	r0, [r3]	@ zero_extendqisi2
1073:Generated_Source\PSoC5/MIDI2_UART.c ****     }
 1187              		.loc 1 1073 0
 1188 0004 7047     		bx	lr
 1189              	.L113:
 1190 0006 00BF     		.align	2
 1191              	.L112:
 1192 0008 68650040 		.word	1073767784
 1193              		.cfi_endproc
 1194              	.LFE22:
 1195              		.size	MIDI2_UART_ReadTxStatus, .-MIDI2_UART_ReadTxStatus
 1196              		.section	.text.MIDI2_UART_PutChar,"ax",%progbits
 1197              		.align	2
 1198              		.global	MIDI2_UART_PutChar
 1199              		.thumb
 1200              		.thumb_func
 1201              		.type	MIDI2_UART_PutChar, %function
 1202              	MIDI2_UART_PutChar:
 1203              	.LFB23:
1074:Generated_Source\PSoC5/MIDI2_UART.c **** 
1075:Generated_Source\PSoC5/MIDI2_UART.c **** 
1076:Generated_Source\PSoC5/MIDI2_UART.c ****     /*******************************************************************************
1077:Generated_Source\PSoC5/MIDI2_UART.c ****     * Function Name: MIDI2_UART_PutChar
1078:Generated_Source\PSoC5/MIDI2_UART.c ****     ********************************************************************************
1079:Generated_Source\PSoC5/MIDI2_UART.c ****     *
1080:Generated_Source\PSoC5/MIDI2_UART.c ****     * Summary:
1081:Generated_Source\PSoC5/MIDI2_UART.c ****     *  Wait to send byte until TX register or buffer has room.
1082:Generated_Source\PSoC5/MIDI2_UART.c ****     *
1083:Generated_Source\PSoC5/MIDI2_UART.c ****     * Parameters:
1084:Generated_Source\PSoC5/MIDI2_UART.c ****     *  txDataByte: The 8-bit data value to send across the UART.
1085:Generated_Source\PSoC5/MIDI2_UART.c ****     *
1086:Generated_Source\PSoC5/MIDI2_UART.c ****     * Return:
1087:Generated_Source\PSoC5/MIDI2_UART.c ****     *  None.
1088:Generated_Source\PSoC5/MIDI2_UART.c ****     *
ARM GAS  C:\Users\anjmarqu\AppData\Local\Temp\cc7ytAPG.s 			page 44


1089:Generated_Source\PSoC5/MIDI2_UART.c ****     * Global Variables:
1090:Generated_Source\PSoC5/MIDI2_UART.c ****     *  MIDI2_UART_txBuffer - RAM buffer pointer for save data for transmission
1091:Generated_Source\PSoC5/MIDI2_UART.c ****     *  MIDI2_UART_txBufferWrite - cyclic index for write to txBuffer,
1092:Generated_Source\PSoC5/MIDI2_UART.c ****     *     checked to identify free space in txBuffer and incremented after each byte
1093:Generated_Source\PSoC5/MIDI2_UART.c ****     *     saved to buffer.
1094:Generated_Source\PSoC5/MIDI2_UART.c ****     *  MIDI2_UART_txBufferRead - cyclic index for read from txBuffer,
1095:Generated_Source\PSoC5/MIDI2_UART.c ****     *     checked to identify free space in txBuffer.
1096:Generated_Source\PSoC5/MIDI2_UART.c ****     *  MIDI2_UART_initVar - checked to identify that the component has been
1097:Generated_Source\PSoC5/MIDI2_UART.c ****     *     initialized.
1098:Generated_Source\PSoC5/MIDI2_UART.c ****     *
1099:Generated_Source\PSoC5/MIDI2_UART.c ****     * Reentrant:
1100:Generated_Source\PSoC5/MIDI2_UART.c ****     *  No.
1101:Generated_Source\PSoC5/MIDI2_UART.c ****     *
1102:Generated_Source\PSoC5/MIDI2_UART.c ****     * Theory:
1103:Generated_Source\PSoC5/MIDI2_UART.c ****     *  Allows the user to transmit any byte of data in a single transfer
1104:Generated_Source\PSoC5/MIDI2_UART.c ****     *
1105:Generated_Source\PSoC5/MIDI2_UART.c ****     *******************************************************************************/
1106:Generated_Source\PSoC5/MIDI2_UART.c ****     void MIDI2_UART_PutChar(uint8 txDataByte) 
1107:Generated_Source\PSoC5/MIDI2_UART.c ****     {
 1204              		.loc 1 1107 0
 1205              		.cfi_startproc
 1206              		@ args = 0, pretend = 0, frame = 0
 1207              		@ frame_needed = 0, uses_anonymous_args = 0
 1208              		@ link register save eliminated.
 1209              	.LVL49:
 1210 0000 30B4     		push	{r4, r5}
 1211              		.cfi_def_cfa_offset 8
 1212              		.cfi_offset 4, -8
 1213              		.cfi_offset 5, -4
 1214 0002 124D     		ldr	r5, .L125
 1215 0004 A979     		ldrb	r1, [r5, #6]	@ zero_extendqisi2
 1216              	.L117:
 1217              	.LVL50:
1108:Generated_Source\PSoC5/MIDI2_UART.c ****             #if(MIDI2_UART_TXBUFFERSIZE > MIDI2_UART_FIFO_LENGTH)
1109:Generated_Source\PSoC5/MIDI2_UART.c ****                 /* The temporary output pointer is used since it takes two instructions
1110:Generated_Source\PSoC5/MIDI2_UART.c ****                 *  to increment with a wrap, and we can't risk doing that with the real
1111:Generated_Source\PSoC5/MIDI2_UART.c ****                 *  pointer and getting an interrupt in between instructions.
1112:Generated_Source\PSoC5/MIDI2_UART.c ****                 */
1113:Generated_Source\PSoC5/MIDI2_UART.c ****                 uint8 loc_txBufferWrite;
1114:Generated_Source\PSoC5/MIDI2_UART.c ****                 uint8 loc_txBufferRead;
1115:Generated_Source\PSoC5/MIDI2_UART.c **** 
1116:Generated_Source\PSoC5/MIDI2_UART.c ****                 do{
1117:Generated_Source\PSoC5/MIDI2_UART.c ****                     /* Block if software buffer is full, so we don't overwrite. */
1118:Generated_Source\PSoC5/MIDI2_UART.c ****                     #if ((MIDI2_UART_TXBUFFERSIZE > MIDI2_UART_MAX_BYTE_VALUE) && (CY_PSOC3))
1119:Generated_Source\PSoC5/MIDI2_UART.c ****                         /* Disable TX interrupt to protect variables that could change on interrupt
1120:Generated_Source\PSoC5/MIDI2_UART.c ****                         CyIntDisable(MIDI2_UART_TX_VECT_NUM);
1121:Generated_Source\PSoC5/MIDI2_UART.c ****                     #endif /* End TXBUFFERSIZE > 255 */
1122:Generated_Source\PSoC5/MIDI2_UART.c ****                     loc_txBufferWrite = MIDI2_UART_txBufferWrite;
1123:Generated_Source\PSoC5/MIDI2_UART.c ****                     loc_txBufferRead = MIDI2_UART_txBufferRead;
 1218              		.loc 1 1123 0
 1219 0006 6B79     		ldrb	r3, [r5, #5]	@ zero_extendqisi2
 1220 0008 DBB2     		uxtb	r3, r3
 1221              	.LVL51:
1124:Generated_Source\PSoC5/MIDI2_UART.c ****                     #if ((MIDI2_UART_TXBUFFERSIZE > MIDI2_UART_MAX_BYTE_VALUE) && (CY_PSOC3))
1125:Generated_Source\PSoC5/MIDI2_UART.c ****                         /* Enable interrupt to continue transmission */
1126:Generated_Source\PSoC5/MIDI2_UART.c ****                         CyIntEnable(MIDI2_UART_TX_VECT_NUM);
1127:Generated_Source\PSoC5/MIDI2_UART.c ****                     #endif /* End TXBUFFERSIZE > 255 */
ARM GAS  C:\Users\anjmarqu\AppData\Local\Temp\cc7ytAPG.s 			page 45


1128:Generated_Source\PSoC5/MIDI2_UART.c ****                 }while( (loc_txBufferWrite < loc_txBufferRead) ? (loc_txBufferWrite == (loc_txBuffe
1129:Generated_Source\PSoC5/MIDI2_UART.c ****                                         ((loc_txBufferWrite - loc_txBufferRead) ==
 1222              		.loc 1 1129 0
 1223 000a CA1A     		subs	r2, r1, r3
1128:Generated_Source\PSoC5/MIDI2_UART.c ****                                         ((loc_txBufferWrite - loc_txBufferRead) ==
 1224              		.loc 1 1128 0
 1225 000c 8B42     		cmp	r3, r1
 1226 000e 03F1FF34 		add	r4, r3, #-1
 1227 0012 8CBF     		ite	hi
 1228 0014 0A1B     		subhi	r2, r1, r4
 1229 0016 FE3A     		subls	r2, #254
 1230 0018 B2FA82F2 		clz	r2, r2
 1231 001c 5209     		lsrs	r2, r2, #5
1130:Generated_Source\PSoC5/MIDI2_UART.c ****                                         (uint8)(MIDI2_UART_TXBUFFERSIZE - 1u)) );
 1232              		.loc 1 1130 0
 1233 001e 002A     		cmp	r2, #0
 1234 0020 F1D1     		bne	.L117
1131:Generated_Source\PSoC5/MIDI2_UART.c **** 
1132:Generated_Source\PSoC5/MIDI2_UART.c ****                 if( (loc_txBufferRead == loc_txBufferWrite) &&
 1235              		.loc 1 1132 0
 1236 0022 8B42     		cmp	r3, r1
 1237 0024 0AD0     		beq	.L124
 1238              	.LVL52:
 1239              	.L118:
1133:Generated_Source\PSoC5/MIDI2_UART.c ****                     ((MIDI2_UART_TXSTATUS_REG & MIDI2_UART_TX_STS_FIFO_FULL) == 0u) )
1134:Generated_Source\PSoC5/MIDI2_UART.c ****                 {
1135:Generated_Source\PSoC5/MIDI2_UART.c ****                     /* Add directly to the FIFO. */
1136:Generated_Source\PSoC5/MIDI2_UART.c ****                     MIDI2_UART_TXDATA_REG = txDataByte;
1137:Generated_Source\PSoC5/MIDI2_UART.c ****                 }
1138:Generated_Source\PSoC5/MIDI2_UART.c ****                 else
1139:Generated_Source\PSoC5/MIDI2_UART.c ****                 {
1140:Generated_Source\PSoC5/MIDI2_UART.c ****                     if(loc_txBufferWrite >= MIDI2_UART_TXBUFFERSIZE)
 1240              		.loc 1 1140 0
 1241 0026 FF29     		cmp	r1, #255
1141:Generated_Source\PSoC5/MIDI2_UART.c ****                     {
1142:Generated_Source\PSoC5/MIDI2_UART.c ****                         loc_txBufferWrite = 0u;
1143:Generated_Source\PSoC5/MIDI2_UART.c ****                     }
1144:Generated_Source\PSoC5/MIDI2_UART.c ****                     /* Add to the software buffer. */
1145:Generated_Source\PSoC5/MIDI2_UART.c ****                     MIDI2_UART_txBuffer[loc_txBufferWrite] = txDataByte;
 1242              		.loc 1 1145 0
 1243 0028 094A     		ldr	r2, .L125+4
 1244 002a 15BF     		itete	ne
 1245 002c 4B1C     		addne	r3, r1, #1
 1246 002e 0021     		moveq	r1, #0
 1247              	.LVL53:
 1248 0030 DBB2     		uxtbne	r3, r3
 1249 0032 0123     		moveq	r3, #1
 1250 0034 5054     		strb	r0, [r2, r1]
 1251              	.LVL54:
1146:Generated_Source\PSoC5/MIDI2_UART.c ****                     loc_txBufferWrite++;
1147:Generated_Source\PSoC5/MIDI2_UART.c **** 
1148:Generated_Source\PSoC5/MIDI2_UART.c ****                     /* Finally, update the real output pointer */
1149:Generated_Source\PSoC5/MIDI2_UART.c ****                     #if ((MIDI2_UART_TXBUFFERSIZE > MIDI2_UART_MAX_BYTE_VALUE) && (CY_PSOC3))
1150:Generated_Source\PSoC5/MIDI2_UART.c ****                         CyIntDisable(MIDI2_UART_TX_VECT_NUM);
1151:Generated_Source\PSoC5/MIDI2_UART.c ****                     #endif /* End TXBUFFERSIZE > 255 */
1152:Generated_Source\PSoC5/MIDI2_UART.c ****                     MIDI2_UART_txBufferWrite = loc_txBufferWrite;
 1252              		.loc 1 1152 0
ARM GAS  C:\Users\anjmarqu\AppData\Local\Temp\cc7ytAPG.s 			page 46


 1253 0036 AB71     		strb	r3, [r5, #6]
1153:Generated_Source\PSoC5/MIDI2_UART.c ****                     #if ((MIDI2_UART_TXBUFFERSIZE > MIDI2_UART_MAX_BYTE_VALUE) && (CY_PSOC3))
1154:Generated_Source\PSoC5/MIDI2_UART.c ****                         CyIntEnable(MIDI2_UART_TX_VECT_NUM);
1155:Generated_Source\PSoC5/MIDI2_UART.c ****                     #endif /* End TXBUFFERSIZE > 255 */
1156:Generated_Source\PSoC5/MIDI2_UART.c ****                 }
1157:Generated_Source\PSoC5/MIDI2_UART.c **** 
1158:Generated_Source\PSoC5/MIDI2_UART.c ****             #else /* MIDI2_UART_TXBUFFERSIZE > MIDI2_UART_FIFO_LENGTH */
1159:Generated_Source\PSoC5/MIDI2_UART.c **** 
1160:Generated_Source\PSoC5/MIDI2_UART.c ****                 while((MIDI2_UART_TXSTATUS_REG & MIDI2_UART_TX_STS_FIFO_FULL) != 0u)
1161:Generated_Source\PSoC5/MIDI2_UART.c ****                 {
1162:Generated_Source\PSoC5/MIDI2_UART.c ****                     ; /* Wait for room in the FIFO. */
1163:Generated_Source\PSoC5/MIDI2_UART.c ****                 }
1164:Generated_Source\PSoC5/MIDI2_UART.c **** 
1165:Generated_Source\PSoC5/MIDI2_UART.c ****                 /* Add directly to the FIFO. */
1166:Generated_Source\PSoC5/MIDI2_UART.c ****                 MIDI2_UART_TXDATA_REG = txDataByte;
1167:Generated_Source\PSoC5/MIDI2_UART.c **** 
1168:Generated_Source\PSoC5/MIDI2_UART.c ****             #endif /* End MIDI2_UART_TXBUFFERSIZE > MIDI2_UART_FIFO_LENGTH */
1169:Generated_Source\PSoC5/MIDI2_UART.c ****     }
 1254              		.loc 1 1169 0
 1255 0038 30BC     		pop	{r4, r5}
 1256              		.cfi_remember_state
 1257              		.cfi_restore 5
 1258              		.cfi_restore 4
 1259              		.cfi_def_cfa_offset 0
 1260              	.LVL55:
 1261 003a 7047     		bx	lr
 1262              	.LVL56:
 1263              	.L124:
 1264              		.cfi_restore_state
1133:Generated_Source\PSoC5/MIDI2_UART.c ****                 {
 1265              		.loc 1 1133 0 discriminator 1
 1266 003c 054B     		ldr	r3, .L125+8
 1267              	.LVL57:
 1268 003e 1B78     		ldrb	r3, [r3]	@ zero_extendqisi2
1132:Generated_Source\PSoC5/MIDI2_UART.c ****                     ((MIDI2_UART_TXSTATUS_REG & MIDI2_UART_TX_STS_FIFO_FULL) == 0u) )
 1269              		.loc 1 1132 0 discriminator 1
 1270 0040 5B07     		lsls	r3, r3, #29
 1271 0042 F0D4     		bmi	.L118
1136:Generated_Source\PSoC5/MIDI2_UART.c ****                 }
 1272              		.loc 1 1136 0
 1273 0044 044B     		ldr	r3, .L125+12
 1274 0046 1870     		strb	r0, [r3]
 1275              		.loc 1 1169 0
 1276 0048 30BC     		pop	{r4, r5}
 1277              		.cfi_restore 4
 1278              		.cfi_restore 5
 1279              		.cfi_def_cfa_offset 0
 1280              	.LVL58:
 1281 004a 7047     		bx	lr
 1282              	.L126:
 1283              		.align	2
 1284              	.L125:
 1285 004c 00000000 		.word	.LANCHOR0
 1286 0050 00000000 		.word	MIDI2_UART_txBuffer
 1287 0054 68650040 		.word	1073767784
 1288 0058 49650040 		.word	1073767753
 1289              		.cfi_endproc
ARM GAS  C:\Users\anjmarqu\AppData\Local\Temp\cc7ytAPG.s 			page 47


 1290              	.LFE23:
 1291              		.size	MIDI2_UART_PutChar, .-MIDI2_UART_PutChar
 1292              		.section	.text.MIDI2_UART_PutString,"ax",%progbits
 1293              		.align	2
 1294              		.global	MIDI2_UART_PutString
 1295              		.thumb
 1296              		.thumb_func
 1297              		.type	MIDI2_UART_PutString, %function
 1298              	MIDI2_UART_PutString:
 1299              	.LFB24:
1170:Generated_Source\PSoC5/MIDI2_UART.c **** 
1171:Generated_Source\PSoC5/MIDI2_UART.c **** 
1172:Generated_Source\PSoC5/MIDI2_UART.c ****     /*******************************************************************************
1173:Generated_Source\PSoC5/MIDI2_UART.c ****     * Function Name: MIDI2_UART_PutString
1174:Generated_Source\PSoC5/MIDI2_UART.c ****     ********************************************************************************
1175:Generated_Source\PSoC5/MIDI2_UART.c ****     *
1176:Generated_Source\PSoC5/MIDI2_UART.c ****     * Summary:
1177:Generated_Source\PSoC5/MIDI2_UART.c ****     *  Write a Sequence of bytes on the Transmit line. Data comes from RAM or ROM.
1178:Generated_Source\PSoC5/MIDI2_UART.c ****     *
1179:Generated_Source\PSoC5/MIDI2_UART.c ****     * Parameters:
1180:Generated_Source\PSoC5/MIDI2_UART.c ****     *  string: char pointer to character string of Data to Send.
1181:Generated_Source\PSoC5/MIDI2_UART.c ****     *
1182:Generated_Source\PSoC5/MIDI2_UART.c ****     * Return:
1183:Generated_Source\PSoC5/MIDI2_UART.c ****     *  None.
1184:Generated_Source\PSoC5/MIDI2_UART.c ****     *
1185:Generated_Source\PSoC5/MIDI2_UART.c ****     * Global Variables:
1186:Generated_Source\PSoC5/MIDI2_UART.c ****     *  MIDI2_UART_initVar - checked to identify that the component has been
1187:Generated_Source\PSoC5/MIDI2_UART.c ****     *     initialized.
1188:Generated_Source\PSoC5/MIDI2_UART.c ****     *
1189:Generated_Source\PSoC5/MIDI2_UART.c ****     * Reentrant:
1190:Generated_Source\PSoC5/MIDI2_UART.c ****     *  No.
1191:Generated_Source\PSoC5/MIDI2_UART.c ****     *
1192:Generated_Source\PSoC5/MIDI2_UART.c ****     * Theory:
1193:Generated_Source\PSoC5/MIDI2_UART.c ****     *  This function will block if there is not enough memory to place the whole
1194:Generated_Source\PSoC5/MIDI2_UART.c ****     *  string, it will block until the entire string has been written to the
1195:Generated_Source\PSoC5/MIDI2_UART.c ****     *  transmit buffer.
1196:Generated_Source\PSoC5/MIDI2_UART.c ****     *
1197:Generated_Source\PSoC5/MIDI2_UART.c ****     *******************************************************************************/
1198:Generated_Source\PSoC5/MIDI2_UART.c ****     void MIDI2_UART_PutString(const char8 string[]) 
1199:Generated_Source\PSoC5/MIDI2_UART.c ****     {
 1300              		.loc 1 1199 0
 1301              		.cfi_startproc
 1302              		@ args = 0, pretend = 0, frame = 0
 1303              		@ frame_needed = 0, uses_anonymous_args = 0
 1304              	.LVL59:
 1305 0000 38B5     		push	{r3, r4, r5, lr}
 1306              		.cfi_def_cfa_offset 16
 1307              		.cfi_offset 3, -16
 1308              		.cfi_offset 4, -12
 1309              		.cfi_offset 5, -8
 1310              		.cfi_offset 14, -4
1200:Generated_Source\PSoC5/MIDI2_UART.c ****         uint16 buf_index = 0u;
1201:Generated_Source\PSoC5/MIDI2_UART.c ****         /* If not Initialized then skip this function*/
1202:Generated_Source\PSoC5/MIDI2_UART.c ****         if(MIDI2_UART_initVar != 0u)
 1311              		.loc 1 1202 0
 1312 0002 074B     		ldr	r3, .L136
 1313 0004 1B78     		ldrb	r3, [r3]	@ zero_extendqisi2
ARM GAS  C:\Users\anjmarqu\AppData\Local\Temp\cc7ytAPG.s 			page 48


 1314 0006 53B1     		cbz	r3, .L127
 1315 0008 0546     		mov	r5, r0
1203:Generated_Source\PSoC5/MIDI2_UART.c ****         {
1204:Generated_Source\PSoC5/MIDI2_UART.c ****             /* This is a blocking function, it will not exit until all data is sent*/
1205:Generated_Source\PSoC5/MIDI2_UART.c ****             while(string[buf_index] != (char8)0)
 1316              		.loc 1 1205 0
 1317 000a 0078     		ldrb	r0, [r0]	@ zero_extendqisi2
 1318              	.LVL60:
 1319 000c 38B1     		cbz	r0, .L127
 1320 000e 0024     		movs	r4, #0
 1321              	.LVL61:
 1322              	.L130:
1206:Generated_Source\PSoC5/MIDI2_UART.c ****             {
1207:Generated_Source\PSoC5/MIDI2_UART.c ****                 MIDI2_UART_PutChar((uint8)string[buf_index]);
1208:Generated_Source\PSoC5/MIDI2_UART.c ****                 buf_index++;
 1323              		.loc 1 1208 0
 1324 0010 0134     		adds	r4, r4, #1
 1325              	.LVL62:
 1326 0012 A4B2     		uxth	r4, r4
1207:Generated_Source\PSoC5/MIDI2_UART.c ****                 buf_index++;
 1327              		.loc 1 1207 0
 1328 0014 FFF7FEFF 		bl	MIDI2_UART_PutChar
 1329              	.LVL63:
1205:Generated_Source\PSoC5/MIDI2_UART.c ****             {
 1330              		.loc 1 1205 0
 1331 0018 285D     		ldrb	r0, [r5, r4]	@ zero_extendqisi2
 1332 001a 0028     		cmp	r0, #0
 1333 001c F8D1     		bne	.L130
 1334              	.LVL64:
 1335              	.L127:
 1336 001e 38BD     		pop	{r3, r4, r5, pc}
 1337              	.L137:
 1338              		.align	2
 1339              	.L136:
 1340 0020 00000000 		.word	.LANCHOR0
 1341              		.cfi_endproc
 1342              	.LFE24:
 1343              		.size	MIDI2_UART_PutString, .-MIDI2_UART_PutString
 1344              		.section	.text.MIDI2_UART_PutArray,"ax",%progbits
 1345              		.align	2
 1346              		.global	MIDI2_UART_PutArray
 1347              		.thumb
 1348              		.thumb_func
 1349              		.type	MIDI2_UART_PutArray, %function
 1350              	MIDI2_UART_PutArray:
 1351              	.LFB25:
1209:Generated_Source\PSoC5/MIDI2_UART.c ****             }
1210:Generated_Source\PSoC5/MIDI2_UART.c ****         }
1211:Generated_Source\PSoC5/MIDI2_UART.c ****     }
1212:Generated_Source\PSoC5/MIDI2_UART.c **** 
1213:Generated_Source\PSoC5/MIDI2_UART.c **** 
1214:Generated_Source\PSoC5/MIDI2_UART.c ****     /*******************************************************************************
1215:Generated_Source\PSoC5/MIDI2_UART.c ****     * Function Name: MIDI2_UART_PutArray
1216:Generated_Source\PSoC5/MIDI2_UART.c ****     ********************************************************************************
1217:Generated_Source\PSoC5/MIDI2_UART.c ****     *
1218:Generated_Source\PSoC5/MIDI2_UART.c ****     * Summary:
1219:Generated_Source\PSoC5/MIDI2_UART.c ****     *  Write a Sequence of bytes on the Transmit line. Data comes from RAM or ROM.
ARM GAS  C:\Users\anjmarqu\AppData\Local\Temp\cc7ytAPG.s 			page 49


1220:Generated_Source\PSoC5/MIDI2_UART.c ****     *
1221:Generated_Source\PSoC5/MIDI2_UART.c ****     * Parameters:
1222:Generated_Source\PSoC5/MIDI2_UART.c ****     *  string: Address of the memory array residing in RAM or ROM.
1223:Generated_Source\PSoC5/MIDI2_UART.c ****     *  byteCount: Number of Bytes to be transmitted.
1224:Generated_Source\PSoC5/MIDI2_UART.c ****     *
1225:Generated_Source\PSoC5/MIDI2_UART.c ****     * Return:
1226:Generated_Source\PSoC5/MIDI2_UART.c ****     *  None.
1227:Generated_Source\PSoC5/MIDI2_UART.c ****     *
1228:Generated_Source\PSoC5/MIDI2_UART.c ****     * Global Variables:
1229:Generated_Source\PSoC5/MIDI2_UART.c ****     *  MIDI2_UART_initVar - checked to identify that the component has been
1230:Generated_Source\PSoC5/MIDI2_UART.c ****     *     initialized.
1231:Generated_Source\PSoC5/MIDI2_UART.c ****     *
1232:Generated_Source\PSoC5/MIDI2_UART.c ****     * Reentrant:
1233:Generated_Source\PSoC5/MIDI2_UART.c ****     *  No.
1234:Generated_Source\PSoC5/MIDI2_UART.c ****     *
1235:Generated_Source\PSoC5/MIDI2_UART.c ****     *******************************************************************************/
1236:Generated_Source\PSoC5/MIDI2_UART.c ****     void MIDI2_UART_PutArray(const uint8 string[], uint8 byteCount)
1237:Generated_Source\PSoC5/MIDI2_UART.c ****                                                                     
1238:Generated_Source\PSoC5/MIDI2_UART.c ****     {
 1352              		.loc 1 1238 0
 1353              		.cfi_startproc
 1354              		@ args = 0, pretend = 0, frame = 0
 1355              		@ frame_needed = 0, uses_anonymous_args = 0
 1356              	.LVL65:
1239:Generated_Source\PSoC5/MIDI2_UART.c ****         uint8 buf_index = 0u;
1240:Generated_Source\PSoC5/MIDI2_UART.c ****         /* If not Initialized then skip this function*/
1241:Generated_Source\PSoC5/MIDI2_UART.c ****         if(MIDI2_UART_initVar != 0u)
 1357              		.loc 1 1241 0
 1358 0000 084B     		ldr	r3, .L145
 1359 0002 1B78     		ldrb	r3, [r3]	@ zero_extendqisi2
 1360 0004 63B1     		cbz	r3, .L144
1238:Generated_Source\PSoC5/MIDI2_UART.c ****         uint8 buf_index = 0u;
 1361              		.loc 1 1238 0
 1362 0006 70B5     		push	{r4, r5, r6, lr}
 1363              		.cfi_def_cfa_offset 16
 1364              		.cfi_offset 4, -16
 1365              		.cfi_offset 5, -12
 1366              		.cfi_offset 6, -8
 1367              		.cfi_offset 14, -4
 1368 0008 0E46     		mov	r6, r1
 1369 000a 0546     		mov	r5, r0
 1370              		.loc 1 1241 0
 1371 000c 0446     		mov	r4, r0
 1372              	.LVL66:
 1373              	.L140:
1242:Generated_Source\PSoC5/MIDI2_UART.c ****         {
1243:Generated_Source\PSoC5/MIDI2_UART.c ****             do
1244:Generated_Source\PSoC5/MIDI2_UART.c ****             {
1245:Generated_Source\PSoC5/MIDI2_UART.c ****                 MIDI2_UART_PutChar(string[buf_index]);
 1374              		.loc 1 1245 0 discriminator 1
 1375 000e 14F8010B 		ldrb	r0, [r4], #1	@ zero_extendqisi2
 1376              	.LVL67:
 1377 0012 FFF7FEFF 		bl	MIDI2_UART_PutChar
 1378              	.LVL68:
 1379 0016 631B     		subs	r3, r4, r5
1246:Generated_Source\PSoC5/MIDI2_UART.c ****                 buf_index++;
1247:Generated_Source\PSoC5/MIDI2_UART.c ****             }while(buf_index < byteCount);
ARM GAS  C:\Users\anjmarqu\AppData\Local\Temp\cc7ytAPG.s 			page 50


 1380              		.loc 1 1247 0 discriminator 1
 1381 0018 DBB2     		uxtb	r3, r3
 1382 001a 9E42     		cmp	r6, r3
 1383 001c F7D8     		bhi	.L140
 1384 001e 70BD     		pop	{r4, r5, r6, pc}
 1385              	.LVL69:
 1386              	.L144:
 1387              		.cfi_def_cfa_offset 0
 1388              		.cfi_restore 4
 1389              		.cfi_restore 5
 1390              		.cfi_restore 6
 1391              		.cfi_restore 14
 1392 0020 7047     		bx	lr
 1393              	.L146:
 1394 0022 00BF     		.align	2
 1395              	.L145:
 1396 0024 00000000 		.word	.LANCHOR0
 1397              		.cfi_endproc
 1398              	.LFE25:
 1399              		.size	MIDI2_UART_PutArray, .-MIDI2_UART_PutArray
 1400              		.section	.text.MIDI2_UART_PutCRLF,"ax",%progbits
 1401              		.align	2
 1402              		.global	MIDI2_UART_PutCRLF
 1403              		.thumb
 1404              		.thumb_func
 1405              		.type	MIDI2_UART_PutCRLF, %function
 1406              	MIDI2_UART_PutCRLF:
 1407              	.LFB26:
1248:Generated_Source\PSoC5/MIDI2_UART.c ****         }
1249:Generated_Source\PSoC5/MIDI2_UART.c ****     }
1250:Generated_Source\PSoC5/MIDI2_UART.c **** 
1251:Generated_Source\PSoC5/MIDI2_UART.c **** 
1252:Generated_Source\PSoC5/MIDI2_UART.c ****     /*******************************************************************************
1253:Generated_Source\PSoC5/MIDI2_UART.c ****     * Function Name: MIDI2_UART_PutCRLF
1254:Generated_Source\PSoC5/MIDI2_UART.c ****     ********************************************************************************
1255:Generated_Source\PSoC5/MIDI2_UART.c ****     *
1256:Generated_Source\PSoC5/MIDI2_UART.c ****     * Summary:
1257:Generated_Source\PSoC5/MIDI2_UART.c ****     *  Write a character and then carriage return and line feed.
1258:Generated_Source\PSoC5/MIDI2_UART.c ****     *
1259:Generated_Source\PSoC5/MIDI2_UART.c ****     * Parameters:
1260:Generated_Source\PSoC5/MIDI2_UART.c ****     *  txDataByte: uint8 Character to send.
1261:Generated_Source\PSoC5/MIDI2_UART.c ****     *
1262:Generated_Source\PSoC5/MIDI2_UART.c ****     * Return:
1263:Generated_Source\PSoC5/MIDI2_UART.c ****     *  None.
1264:Generated_Source\PSoC5/MIDI2_UART.c ****     *
1265:Generated_Source\PSoC5/MIDI2_UART.c ****     * Global Variables:
1266:Generated_Source\PSoC5/MIDI2_UART.c ****     *  MIDI2_UART_initVar - checked to identify that the component has been
1267:Generated_Source\PSoC5/MIDI2_UART.c ****     *     initialized.
1268:Generated_Source\PSoC5/MIDI2_UART.c ****     *
1269:Generated_Source\PSoC5/MIDI2_UART.c ****     * Reentrant:
1270:Generated_Source\PSoC5/MIDI2_UART.c ****     *  No.
1271:Generated_Source\PSoC5/MIDI2_UART.c ****     *
1272:Generated_Source\PSoC5/MIDI2_UART.c ****     *******************************************************************************/
1273:Generated_Source\PSoC5/MIDI2_UART.c ****     void MIDI2_UART_PutCRLF(uint8 txDataByte) 
1274:Generated_Source\PSoC5/MIDI2_UART.c ****     {
 1408              		.loc 1 1274 0
 1409              		.cfi_startproc
ARM GAS  C:\Users\anjmarqu\AppData\Local\Temp\cc7ytAPG.s 			page 51


 1410              		@ args = 0, pretend = 0, frame = 0
 1411              		@ frame_needed = 0, uses_anonymous_args = 0
 1412              	.LVL70:
 1413 0000 08B5     		push	{r3, lr}
 1414              		.cfi_def_cfa_offset 8
 1415              		.cfi_offset 3, -8
 1416              		.cfi_offset 14, -4
1275:Generated_Source\PSoC5/MIDI2_UART.c ****         /* If not Initialized then skip this function*/
1276:Generated_Source\PSoC5/MIDI2_UART.c ****         if(MIDI2_UART_initVar != 0u)
 1417              		.loc 1 1276 0
 1418 0002 074B     		ldr	r3, .L151
 1419 0004 1B78     		ldrb	r3, [r3]	@ zero_extendqisi2
 1420 0006 03B9     		cbnz	r3, .L150
 1421 0008 08BD     		pop	{r3, pc}
 1422              	.L150:
1277:Generated_Source\PSoC5/MIDI2_UART.c ****         {
1278:Generated_Source\PSoC5/MIDI2_UART.c ****             MIDI2_UART_PutChar(txDataByte);
 1423              		.loc 1 1278 0
 1424 000a FFF7FEFF 		bl	MIDI2_UART_PutChar
 1425              	.LVL71:
1279:Generated_Source\PSoC5/MIDI2_UART.c ****             MIDI2_UART_PutChar(0x0Du);
 1426              		.loc 1 1279 0
 1427 000e 0D20     		movs	r0, #13
 1428 0010 FFF7FEFF 		bl	MIDI2_UART_PutChar
 1429              	.LVL72:
1280:Generated_Source\PSoC5/MIDI2_UART.c ****             MIDI2_UART_PutChar(0x0Au);
1281:Generated_Source\PSoC5/MIDI2_UART.c ****         }
1282:Generated_Source\PSoC5/MIDI2_UART.c ****     }
 1430              		.loc 1 1282 0
 1431 0014 BDE80840 		pop	{r3, lr}
 1432              		.cfi_restore 14
 1433              		.cfi_restore 3
 1434              		.cfi_def_cfa_offset 0
1280:Generated_Source\PSoC5/MIDI2_UART.c ****             MIDI2_UART_PutChar(0x0Au);
 1435              		.loc 1 1280 0
 1436 0018 0A20     		movs	r0, #10
 1437 001a FFF7FEBF 		b	MIDI2_UART_PutChar
 1438              	.LVL73:
 1439              	.L152:
 1440 001e 00BF     		.align	2
 1441              	.L151:
 1442 0020 00000000 		.word	.LANCHOR0
 1443              		.cfi_endproc
 1444              	.LFE26:
 1445              		.size	MIDI2_UART_PutCRLF, .-MIDI2_UART_PutCRLF
 1446              		.section	.text.MIDI2_UART_GetTxBufferSize,"ax",%progbits
 1447              		.align	2
 1448              		.global	MIDI2_UART_GetTxBufferSize
 1449              		.thumb
 1450              		.thumb_func
 1451              		.type	MIDI2_UART_GetTxBufferSize, %function
 1452              	MIDI2_UART_GetTxBufferSize:
 1453              	.LFB27:
1283:Generated_Source\PSoC5/MIDI2_UART.c **** 
1284:Generated_Source\PSoC5/MIDI2_UART.c **** 
1285:Generated_Source\PSoC5/MIDI2_UART.c ****     /*******************************************************************************
1286:Generated_Source\PSoC5/MIDI2_UART.c ****     * Function Name: MIDI2_UART_GetTxBufferSize
ARM GAS  C:\Users\anjmarqu\AppData\Local\Temp\cc7ytAPG.s 			page 52


1287:Generated_Source\PSoC5/MIDI2_UART.c ****     ********************************************************************************
1288:Generated_Source\PSoC5/MIDI2_UART.c ****     *
1289:Generated_Source\PSoC5/MIDI2_UART.c ****     * Summary:
1290:Generated_Source\PSoC5/MIDI2_UART.c ****     *  Determine the amount of space left in the TX buffer and return the count in
1291:Generated_Source\PSoC5/MIDI2_UART.c ****     *  bytes
1292:Generated_Source\PSoC5/MIDI2_UART.c ****     *
1293:Generated_Source\PSoC5/MIDI2_UART.c ****     * Parameters:
1294:Generated_Source\PSoC5/MIDI2_UART.c ****     *  None.
1295:Generated_Source\PSoC5/MIDI2_UART.c ****     *
1296:Generated_Source\PSoC5/MIDI2_UART.c ****     * Return:
1297:Generated_Source\PSoC5/MIDI2_UART.c ****     *  Integer count of the number of bytes left in the TX buffer
1298:Generated_Source\PSoC5/MIDI2_UART.c ****     *
1299:Generated_Source\PSoC5/MIDI2_UART.c ****     * Global Variables:
1300:Generated_Source\PSoC5/MIDI2_UART.c ****     *  MIDI2_UART_txBufferWrite - used to calculate left space.
1301:Generated_Source\PSoC5/MIDI2_UART.c ****     *  MIDI2_UART_txBufferRead - used to calculate left space.
1302:Generated_Source\PSoC5/MIDI2_UART.c ****     *
1303:Generated_Source\PSoC5/MIDI2_UART.c ****     * Reentrant:
1304:Generated_Source\PSoC5/MIDI2_UART.c ****     *  No.
1305:Generated_Source\PSoC5/MIDI2_UART.c ****     *
1306:Generated_Source\PSoC5/MIDI2_UART.c ****     * Theory:
1307:Generated_Source\PSoC5/MIDI2_UART.c ****     *  Allows the user to find out how full the TX Buffer is.
1308:Generated_Source\PSoC5/MIDI2_UART.c ****     *
1309:Generated_Source\PSoC5/MIDI2_UART.c ****     *******************************************************************************/
1310:Generated_Source\PSoC5/MIDI2_UART.c ****     uint8 MIDI2_UART_GetTxBufferSize(void)
1311:Generated_Source\PSoC5/MIDI2_UART.c ****                                                             
1312:Generated_Source\PSoC5/MIDI2_UART.c ****     {
 1454              		.loc 1 1312 0
 1455              		.cfi_startproc
 1456              		@ args = 0, pretend = 0, frame = 0
 1457              		@ frame_needed = 0, uses_anonymous_args = 0
 1458              		@ link register save eliminated.
 1459              	.LBB86:
 1460              	.LBB87:
 944:Generated_Source\PSoC5/MIDI2_UART.c ****         }
 1461              		.loc 1 944 0
 1462 0000 0C4B     		ldr	r3, .L158
 1463 0002 4021     		movs	r1, #64
 1464              	.LBE87:
 1465              	.LBE86:
1313:Generated_Source\PSoC5/MIDI2_UART.c ****         uint8 size;
1314:Generated_Source\PSoC5/MIDI2_UART.c **** 
1315:Generated_Source\PSoC5/MIDI2_UART.c ****         #if(MIDI2_UART_TXBUFFERSIZE > MIDI2_UART_FIFO_LENGTH)
1316:Generated_Source\PSoC5/MIDI2_UART.c **** 
1317:Generated_Source\PSoC5/MIDI2_UART.c ****             /* Disable Tx interrupt. */
1318:Generated_Source\PSoC5/MIDI2_UART.c ****             /* Protect variables that could change on interrupt. */
1319:Generated_Source\PSoC5/MIDI2_UART.c ****             #if(MIDI2_UART_TX_INTERRUPT_ENABLED)
1320:Generated_Source\PSoC5/MIDI2_UART.c ****                 MIDI2_UART_DisableTxInt();
1321:Generated_Source\PSoC5/MIDI2_UART.c ****             #endif /* End MIDI2_UART_TX_INTERRUPT_ENABLED */
1322:Generated_Source\PSoC5/MIDI2_UART.c **** 
1323:Generated_Source\PSoC5/MIDI2_UART.c ****             if(MIDI2_UART_txBufferRead == MIDI2_UART_txBufferWrite)
 1466              		.loc 1 1323 0
 1467 0004 0C4A     		ldr	r2, .L158+4
 1468              	.LBB89:
 1469              	.LBB88:
 944:Generated_Source\PSoC5/MIDI2_UART.c ****         }
 1470              		.loc 1 944 0
 1471 0006 1960     		str	r1, [r3]
ARM GAS  C:\Users\anjmarqu\AppData\Local\Temp\cc7ytAPG.s 			page 53


 1472              	.LBE88:
 1473              	.LBE89:
 1474              		.loc 1 1323 0
 1475 0008 5179     		ldrb	r1, [r2, #5]	@ zero_extendqisi2
 1476 000a 9379     		ldrb	r3, [r2, #6]	@ zero_extendqisi2
 1477 000c 9942     		cmp	r1, r3
 1478 000e 0BD0     		beq	.L156
1324:Generated_Source\PSoC5/MIDI2_UART.c ****             {
1325:Generated_Source\PSoC5/MIDI2_UART.c ****                 size = 0u;
1326:Generated_Source\PSoC5/MIDI2_UART.c ****             }
1327:Generated_Source\PSoC5/MIDI2_UART.c ****             else if(MIDI2_UART_txBufferRead < MIDI2_UART_txBufferWrite)
 1479              		.loc 1 1327 0
 1480 0010 5179     		ldrb	r1, [r2, #5]	@ zero_extendqisi2
1328:Generated_Source\PSoC5/MIDI2_UART.c ****             {
1329:Generated_Source\PSoC5/MIDI2_UART.c ****                 size = (MIDI2_UART_txBufferWrite - MIDI2_UART_txBufferRead);
 1481              		.loc 1 1329 0
 1482 0012 5079     		ldrb	r0, [r2, #5]	@ zero_extendqisi2
1327:Generated_Source\PSoC5/MIDI2_UART.c ****             {
 1483              		.loc 1 1327 0
 1484 0014 8B42     		cmp	r3, r1
 1485 0016 98BF     		it	ls
 1486 0018 03F1FF33 		addls	r3, r3, #-1
1330:Generated_Source\PSoC5/MIDI2_UART.c ****             }
1331:Generated_Source\PSoC5/MIDI2_UART.c ****             else
1332:Generated_Source\PSoC5/MIDI2_UART.c ****             {
1333:Generated_Source\PSoC5/MIDI2_UART.c ****                 size = (MIDI2_UART_TXBUFFERSIZE - MIDI2_UART_txBufferRead) + MIDI2_UART_txBufferWri
 1487              		.loc 1 1333 0
 1488 001c 181A     		subs	r0, r3, r0
 1489              	.LBB90:
 1490              	.LBB91:
 921:Generated_Source\PSoC5/MIDI2_UART.c ****         }
 1491              		.loc 1 921 0
 1492 001e 074B     		ldr	r3, .L158+8
 1493 0020 4022     		movs	r2, #64
 1494              	.LBE91:
 1495              	.LBE90:
 1496              		.loc 1 1333 0
 1497 0022 C0B2     		uxtb	r0, r0
 1498              	.LVL74:
 1499              	.LBB95:
 1500              	.LBB92:
 921:Generated_Source\PSoC5/MIDI2_UART.c ****         }
 1501              		.loc 1 921 0
 1502 0024 1A60     		str	r2, [r3]
 1503              	.LBE92:
 1504              	.LBE95:
1334:Generated_Source\PSoC5/MIDI2_UART.c ****             }
1335:Generated_Source\PSoC5/MIDI2_UART.c **** 
1336:Generated_Source\PSoC5/MIDI2_UART.c ****             /* Enable Tx interrupt. */
1337:Generated_Source\PSoC5/MIDI2_UART.c ****             #if(MIDI2_UART_TX_INTERRUPT_ENABLED)
1338:Generated_Source\PSoC5/MIDI2_UART.c ****                 MIDI2_UART_EnableTxInt();
1339:Generated_Source\PSoC5/MIDI2_UART.c ****             #endif /* End MIDI2_UART_TX_INTERRUPT_ENABLED */
1340:Generated_Source\PSoC5/MIDI2_UART.c **** 
1341:Generated_Source\PSoC5/MIDI2_UART.c ****         #else /* MIDI2_UART_TXBUFFERSIZE > MIDI2_UART_FIFO_LENGTH */
1342:Generated_Source\PSoC5/MIDI2_UART.c **** 
1343:Generated_Source\PSoC5/MIDI2_UART.c ****             size = MIDI2_UART_TXSTATUS_REG;
1344:Generated_Source\PSoC5/MIDI2_UART.c **** 
ARM GAS  C:\Users\anjmarqu\AppData\Local\Temp\cc7ytAPG.s 			page 54


1345:Generated_Source\PSoC5/MIDI2_UART.c ****             /* Is the fifo is full. */
1346:Generated_Source\PSoC5/MIDI2_UART.c ****             if((size & MIDI2_UART_TX_STS_FIFO_FULL) != 0u)
1347:Generated_Source\PSoC5/MIDI2_UART.c ****             {
1348:Generated_Source\PSoC5/MIDI2_UART.c ****                 size = MIDI2_UART_FIFO_LENGTH;
1349:Generated_Source\PSoC5/MIDI2_UART.c ****             }
1350:Generated_Source\PSoC5/MIDI2_UART.c ****             else if((size & MIDI2_UART_TX_STS_FIFO_EMPTY) != 0u)
1351:Generated_Source\PSoC5/MIDI2_UART.c ****             {
1352:Generated_Source\PSoC5/MIDI2_UART.c ****                 size = 0u;
1353:Generated_Source\PSoC5/MIDI2_UART.c ****             }
1354:Generated_Source\PSoC5/MIDI2_UART.c ****             else
1355:Generated_Source\PSoC5/MIDI2_UART.c ****             {
1356:Generated_Source\PSoC5/MIDI2_UART.c ****                 /* We only know there is data in the fifo. */
1357:Generated_Source\PSoC5/MIDI2_UART.c ****                 size = 1u;
1358:Generated_Source\PSoC5/MIDI2_UART.c ****             }
1359:Generated_Source\PSoC5/MIDI2_UART.c **** 
1360:Generated_Source\PSoC5/MIDI2_UART.c ****         #endif /* End MIDI2_UART_TXBUFFERSIZE > MIDI2_UART_FIFO_LENGTH */
1361:Generated_Source\PSoC5/MIDI2_UART.c **** 
1362:Generated_Source\PSoC5/MIDI2_UART.c ****         return(size);
1363:Generated_Source\PSoC5/MIDI2_UART.c ****     }
 1505              		.loc 1 1363 0
 1506 0026 7047     		bx	lr
 1507              	.LVL75:
 1508              	.L156:
 1509              	.LBB96:
 1510              	.LBB93:
 921:Generated_Source\PSoC5/MIDI2_UART.c ****         }
 1511              		.loc 1 921 0
 1512 0028 044B     		ldr	r3, .L158+8
 1513 002a 4022     		movs	r2, #64
 1514              	.LBE93:
 1515              	.LBE96:
1325:Generated_Source\PSoC5/MIDI2_UART.c ****             }
 1516              		.loc 1 1325 0
 1517 002c 0020     		movs	r0, #0
 1518              	.LVL76:
 1519              	.LBB97:
 1520              	.LBB94:
 921:Generated_Source\PSoC5/MIDI2_UART.c ****         }
 1521              		.loc 1 921 0
 1522 002e 1A60     		str	r2, [r3]
 1523              	.LBE94:
 1524              	.LBE97:
 1525              		.loc 1 1363 0
 1526 0030 7047     		bx	lr
 1527              	.L159:
 1528 0032 00BF     		.align	2
 1529              	.L158:
 1530 0034 80E100E0 		.word	-536813184
 1531 0038 00000000 		.word	.LANCHOR0
 1532 003c 00E100E0 		.word	-536813312
 1533              		.cfi_endproc
 1534              	.LFE27:
 1535              		.size	MIDI2_UART_GetTxBufferSize, .-MIDI2_UART_GetTxBufferSize
 1536              		.section	.text.MIDI2_UART_ClearTxBuffer,"ax",%progbits
 1537              		.align	2
 1538              		.global	MIDI2_UART_ClearTxBuffer
 1539              		.thumb
ARM GAS  C:\Users\anjmarqu\AppData\Local\Temp\cc7ytAPG.s 			page 55


 1540              		.thumb_func
 1541              		.type	MIDI2_UART_ClearTxBuffer, %function
 1542              	MIDI2_UART_ClearTxBuffer:
 1543              	.LFB28:
1364:Generated_Source\PSoC5/MIDI2_UART.c **** 
1365:Generated_Source\PSoC5/MIDI2_UART.c **** 
1366:Generated_Source\PSoC5/MIDI2_UART.c ****     /*******************************************************************************
1367:Generated_Source\PSoC5/MIDI2_UART.c ****     * Function Name: MIDI2_UART_ClearTxBuffer
1368:Generated_Source\PSoC5/MIDI2_UART.c ****     ********************************************************************************
1369:Generated_Source\PSoC5/MIDI2_UART.c ****     *
1370:Generated_Source\PSoC5/MIDI2_UART.c ****     * Summary:
1371:Generated_Source\PSoC5/MIDI2_UART.c ****     *  Clears the TX RAM buffer by setting the read and write pointers both to zero.
1372:Generated_Source\PSoC5/MIDI2_UART.c ****     *  Clears the hardware TX FIFO.  Any data present in the FIFO will not be sent.
1373:Generated_Source\PSoC5/MIDI2_UART.c ****     *
1374:Generated_Source\PSoC5/MIDI2_UART.c ****     * Parameters:
1375:Generated_Source\PSoC5/MIDI2_UART.c ****     *  None.
1376:Generated_Source\PSoC5/MIDI2_UART.c ****     *
1377:Generated_Source\PSoC5/MIDI2_UART.c ****     * Return:
1378:Generated_Source\PSoC5/MIDI2_UART.c ****     *  None.
1379:Generated_Source\PSoC5/MIDI2_UART.c ****     *
1380:Generated_Source\PSoC5/MIDI2_UART.c ****     * Global Variables:
1381:Generated_Source\PSoC5/MIDI2_UART.c ****     *  MIDI2_UART_txBufferWrite - cleared to zero.
1382:Generated_Source\PSoC5/MIDI2_UART.c ****     *  MIDI2_UART_txBufferRead - cleared to zero.
1383:Generated_Source\PSoC5/MIDI2_UART.c ****     *
1384:Generated_Source\PSoC5/MIDI2_UART.c ****     * Reentrant:
1385:Generated_Source\PSoC5/MIDI2_UART.c ****     *  No.
1386:Generated_Source\PSoC5/MIDI2_UART.c ****     *
1387:Generated_Source\PSoC5/MIDI2_UART.c ****     * Theory:
1388:Generated_Source\PSoC5/MIDI2_UART.c ****     *  Setting the pointers to zero makes the system believe there is no data to
1389:Generated_Source\PSoC5/MIDI2_UART.c ****     *  read and writing will resume at address 0 overwriting any data that may have
1390:Generated_Source\PSoC5/MIDI2_UART.c ****     *  remained in the RAM.
1391:Generated_Source\PSoC5/MIDI2_UART.c ****     *
1392:Generated_Source\PSoC5/MIDI2_UART.c ****     * Side Effects:
1393:Generated_Source\PSoC5/MIDI2_UART.c ****     *  Any received data not read from the RAM buffer will be lost when overwritten.
1394:Generated_Source\PSoC5/MIDI2_UART.c ****     *
1395:Generated_Source\PSoC5/MIDI2_UART.c ****     *******************************************************************************/
1396:Generated_Source\PSoC5/MIDI2_UART.c ****     void MIDI2_UART_ClearTxBuffer(void) 
1397:Generated_Source\PSoC5/MIDI2_UART.c ****     {
 1544              		.loc 1 1397 0
 1545              		.cfi_startproc
 1546              		@ args = 0, pretend = 0, frame = 0
 1547              		@ frame_needed = 0, uses_anonymous_args = 0
 1548 0000 10B5     		push	{r4, lr}
 1549              		.cfi_def_cfa_offset 8
 1550              		.cfi_offset 4, -8
 1551              		.cfi_offset 14, -4
1398:Generated_Source\PSoC5/MIDI2_UART.c ****         uint8 enableInterrupts;
1399:Generated_Source\PSoC5/MIDI2_UART.c **** 
1400:Generated_Source\PSoC5/MIDI2_UART.c ****         /* Enter critical section */
1401:Generated_Source\PSoC5/MIDI2_UART.c ****         enableInterrupts = CyEnterCriticalSection();
 1552              		.loc 1 1401 0
 1553 0002 FFF7FEFF 		bl	CyEnterCriticalSection
 1554              	.LVL77:
1402:Generated_Source\PSoC5/MIDI2_UART.c ****         /* clear the HW FIFO */
1403:Generated_Source\PSoC5/MIDI2_UART.c ****         MIDI2_UART_TXDATA_AUX_CTL_REG |=  MIDI2_UART_TX_FIFO_CLR;
 1555              		.loc 1 1403 0
 1556 0006 0A4B     		ldr	r3, .L162
ARM GAS  C:\Users\anjmarqu\AppData\Local\Temp\cc7ytAPG.s 			page 56


 1557              	.LBB98:
 1558              	.LBB99:
 944:Generated_Source\PSoC5/MIDI2_UART.c ****         }
 1559              		.loc 1 944 0
 1560 0008 0A4C     		ldr	r4, .L162+4
 1561              	.LBE99:
 1562              	.LBE98:
 1563              		.loc 1 1403 0
 1564 000a 1A78     		ldrb	r2, [r3]	@ zero_extendqisi2
 1565 000c 42F00102 		orr	r2, r2, #1
 1566 0010 1A70     		strb	r2, [r3]
1404:Generated_Source\PSoC5/MIDI2_UART.c ****         MIDI2_UART_TXDATA_AUX_CTL_REG &= (uint8)~MIDI2_UART_TX_FIFO_CLR;
 1567              		.loc 1 1404 0
 1568 0012 1A78     		ldrb	r2, [r3]	@ zero_extendqisi2
 1569 0014 02F0FE02 		and	r2, r2, #254
 1570 0018 1A70     		strb	r2, [r3]
1405:Generated_Source\PSoC5/MIDI2_UART.c ****         /* Exit critical section */
1406:Generated_Source\PSoC5/MIDI2_UART.c ****         CyExitCriticalSection(enableInterrupts);
 1571              		.loc 1 1406 0
 1572 001a FFF7FEFF 		bl	CyExitCriticalSection
 1573              	.LVL78:
1407:Generated_Source\PSoC5/MIDI2_UART.c **** 
1408:Generated_Source\PSoC5/MIDI2_UART.c ****         #if(MIDI2_UART_TXBUFFERSIZE > MIDI2_UART_FIFO_LENGTH)
1409:Generated_Source\PSoC5/MIDI2_UART.c **** 
1410:Generated_Source\PSoC5/MIDI2_UART.c ****             /* Disable Tx interrupt. */
1411:Generated_Source\PSoC5/MIDI2_UART.c ****             /* Protect variables that could change on interrupt. */
1412:Generated_Source\PSoC5/MIDI2_UART.c ****             #if(MIDI2_UART_TX_INTERRUPT_ENABLED)
1413:Generated_Source\PSoC5/MIDI2_UART.c ****                 MIDI2_UART_DisableTxInt();
1414:Generated_Source\PSoC5/MIDI2_UART.c ****             #endif /* End MIDI2_UART_TX_INTERRUPT_ENABLED */
1415:Generated_Source\PSoC5/MIDI2_UART.c **** 
1416:Generated_Source\PSoC5/MIDI2_UART.c ****             MIDI2_UART_txBufferRead = 0u;
 1574              		.loc 1 1416 0
 1575 001e 064A     		ldr	r2, .L162+8
 1576              	.LBB102:
 1577              	.LBB100:
 944:Generated_Source\PSoC5/MIDI2_UART.c ****         }
 1578              		.loc 1 944 0
 1579 0020 4023     		movs	r3, #64
 1580              	.LBE100:
 1581              	.LBE102:
 1582              		.loc 1 1416 0
 1583 0022 0021     		movs	r1, #0
 1584              	.LBB103:
 1585              	.LBB104:
 921:Generated_Source\PSoC5/MIDI2_UART.c ****         }
 1586              		.loc 1 921 0
 1587 0024 0548     		ldr	r0, .L162+12
 1588              	.LBE104:
 1589              	.LBE103:
 1590              	.LBB106:
 1591              	.LBB101:
 944:Generated_Source\PSoC5/MIDI2_UART.c ****         }
 1592              		.loc 1 944 0
 1593 0026 2360     		str	r3, [r4]
 1594              	.LBE101:
 1595              	.LBE106:
1417:Generated_Source\PSoC5/MIDI2_UART.c ****             MIDI2_UART_txBufferWrite = 0u;
ARM GAS  C:\Users\anjmarqu\AppData\Local\Temp\cc7ytAPG.s 			page 57


 1596              		.loc 1 1417 0
 1597 0028 9171     		strb	r1, [r2, #6]
1416:Generated_Source\PSoC5/MIDI2_UART.c ****             MIDI2_UART_txBufferWrite = 0u;
 1598              		.loc 1 1416 0
 1599 002a 5171     		strb	r1, [r2, #5]
 1600              	.LBB107:
 1601              	.LBB105:
 921:Generated_Source\PSoC5/MIDI2_UART.c ****         }
 1602              		.loc 1 921 0
 1603 002c 0360     		str	r3, [r0]
 1604 002e 10BD     		pop	{r4, pc}
 1605              	.L163:
 1606              		.align	2
 1607              	.L162:
 1608 0030 99650040 		.word	1073767833
 1609 0034 80E100E0 		.word	-536813184
 1610 0038 00000000 		.word	.LANCHOR0
 1611 003c 00E100E0 		.word	-536813312
 1612              	.LBE105:
 1613              	.LBE107:
 1614              		.cfi_endproc
 1615              	.LFE28:
 1616              		.size	MIDI2_UART_ClearTxBuffer, .-MIDI2_UART_ClearTxBuffer
 1617              		.section	.text.MIDI2_UART_SendBreak,"ax",%progbits
 1618              		.align	2
 1619              		.global	MIDI2_UART_SendBreak
 1620              		.thumb
 1621              		.thumb_func
 1622              		.type	MIDI2_UART_SendBreak, %function
 1623              	MIDI2_UART_SendBreak:
 1624              	.LFB29:
1418:Generated_Source\PSoC5/MIDI2_UART.c **** 
1419:Generated_Source\PSoC5/MIDI2_UART.c ****             /* Enable Tx interrupt. */
1420:Generated_Source\PSoC5/MIDI2_UART.c ****             #if(MIDI2_UART_TX_INTERRUPT_ENABLED)
1421:Generated_Source\PSoC5/MIDI2_UART.c ****                 MIDI2_UART_EnableTxInt();
1422:Generated_Source\PSoC5/MIDI2_UART.c ****             #endif /* End MIDI2_UART_TX_INTERRUPT_ENABLED */
1423:Generated_Source\PSoC5/MIDI2_UART.c **** 
1424:Generated_Source\PSoC5/MIDI2_UART.c ****         #endif /* End MIDI2_UART_TXBUFFERSIZE > MIDI2_UART_FIFO_LENGTH */
1425:Generated_Source\PSoC5/MIDI2_UART.c ****     }
1426:Generated_Source\PSoC5/MIDI2_UART.c **** 
1427:Generated_Source\PSoC5/MIDI2_UART.c **** 
1428:Generated_Source\PSoC5/MIDI2_UART.c ****     /*******************************************************************************
1429:Generated_Source\PSoC5/MIDI2_UART.c ****     * Function Name: MIDI2_UART_SendBreak
1430:Generated_Source\PSoC5/MIDI2_UART.c ****     ********************************************************************************
1431:Generated_Source\PSoC5/MIDI2_UART.c ****     *
1432:Generated_Source\PSoC5/MIDI2_UART.c ****     * Summary:
1433:Generated_Source\PSoC5/MIDI2_UART.c ****     *  Write a Break command to the UART
1434:Generated_Source\PSoC5/MIDI2_UART.c ****     *
1435:Generated_Source\PSoC5/MIDI2_UART.c ****     * Parameters:
1436:Generated_Source\PSoC5/MIDI2_UART.c ****     *  uint8 retMode:  Wait mode,
1437:Generated_Source\PSoC5/MIDI2_UART.c ****     *   0 - Initialize registers for Break, sends the Break signal and return
1438:Generated_Source\PSoC5/MIDI2_UART.c ****     *       imediately.
1439:Generated_Source\PSoC5/MIDI2_UART.c ****     *   1 - Wait until Break sending is complete, reinitialize registers to normal
1440:Generated_Source\PSoC5/MIDI2_UART.c ****     *       transmission mode then return.
1441:Generated_Source\PSoC5/MIDI2_UART.c ****     *   2 - Reinitialize registers to normal transmission mode then return.
1442:Generated_Source\PSoC5/MIDI2_UART.c ****     *   3 - both steps: 0 and 1
1443:Generated_Source\PSoC5/MIDI2_UART.c ****     *       init registers for Break, send Break signal
ARM GAS  C:\Users\anjmarqu\AppData\Local\Temp\cc7ytAPG.s 			page 58


1444:Generated_Source\PSoC5/MIDI2_UART.c ****     *       wait until Break sending is complete, reinit registers to normal
1445:Generated_Source\PSoC5/MIDI2_UART.c ****     *       transmission mode then return.
1446:Generated_Source\PSoC5/MIDI2_UART.c ****     *
1447:Generated_Source\PSoC5/MIDI2_UART.c ****     * Return:
1448:Generated_Source\PSoC5/MIDI2_UART.c ****     *  None.
1449:Generated_Source\PSoC5/MIDI2_UART.c ****     *
1450:Generated_Source\PSoC5/MIDI2_UART.c ****     * Global Variables:
1451:Generated_Source\PSoC5/MIDI2_UART.c ****     *  MIDI2_UART_initVar - checked to identify that the component has been
1452:Generated_Source\PSoC5/MIDI2_UART.c ****     *     initialized.
1453:Generated_Source\PSoC5/MIDI2_UART.c ****     *  tx_period - static variable, used for keeping TX period configuration.
1454:Generated_Source\PSoC5/MIDI2_UART.c ****     *
1455:Generated_Source\PSoC5/MIDI2_UART.c ****     * Reentrant:
1456:Generated_Source\PSoC5/MIDI2_UART.c ****     *  No.
1457:Generated_Source\PSoC5/MIDI2_UART.c ****     *
1458:Generated_Source\PSoC5/MIDI2_UART.c ****     * Theory:
1459:Generated_Source\PSoC5/MIDI2_UART.c ****     *  SendBreak function initializes registers to send 13-bit break signal. It is
1460:Generated_Source\PSoC5/MIDI2_UART.c ****     *  important to return the registers configuration to normal for continue 8-bit
1461:Generated_Source\PSoC5/MIDI2_UART.c ****     *  operation.
1462:Generated_Source\PSoC5/MIDI2_UART.c ****     *  Trere are 3 variants for this API usage:
1463:Generated_Source\PSoC5/MIDI2_UART.c ****     *  1) SendBreak(3) - function will send the Break signal and take care on the
1464:Generated_Source\PSoC5/MIDI2_UART.c ****     *     configuration returning. Funcition will block CPU untill transmition
1465:Generated_Source\PSoC5/MIDI2_UART.c ****     *     complete.
1466:Generated_Source\PSoC5/MIDI2_UART.c ****     *  2) User may want to use bloking time if UART configured to the low speed
1467:Generated_Source\PSoC5/MIDI2_UART.c ****     *     operation
1468:Generated_Source\PSoC5/MIDI2_UART.c ****     *     Emample for this case:
1469:Generated_Source\PSoC5/MIDI2_UART.c ****     *     SendBreak(0);     - init Break signal transmition
1470:Generated_Source\PSoC5/MIDI2_UART.c ****     *         Add your code here to use CPU time
1471:Generated_Source\PSoC5/MIDI2_UART.c ****     *     SendBreak(1);     - complete Break operation
1472:Generated_Source\PSoC5/MIDI2_UART.c ****     *  3) Same to 2) but user may want to init and use the interrupt for complete
1473:Generated_Source\PSoC5/MIDI2_UART.c ****     *     break operation.
1474:Generated_Source\PSoC5/MIDI2_UART.c ****     *     Example for this case:
1475:Generated_Source\PSoC5/MIDI2_UART.c ****     *     Init TX interrupt whith "TX - On TX Complete" parameter
1476:Generated_Source\PSoC5/MIDI2_UART.c ****     *     SendBreak(0);     - init Break signal transmition
1477:Generated_Source\PSoC5/MIDI2_UART.c ****     *         Add your code here to use CPU time
1478:Generated_Source\PSoC5/MIDI2_UART.c ****     *     When interrupt appear with UART_TX_STS_COMPLETE status:
1479:Generated_Source\PSoC5/MIDI2_UART.c ****     *     SendBreak(2);     - complete Break operation
1480:Generated_Source\PSoC5/MIDI2_UART.c ****     *
1481:Generated_Source\PSoC5/MIDI2_UART.c ****     * Side Effects:
1482:Generated_Source\PSoC5/MIDI2_UART.c ****     *   Uses static variable to keep registers configuration.
1483:Generated_Source\PSoC5/MIDI2_UART.c ****     *
1484:Generated_Source\PSoC5/MIDI2_UART.c ****     *******************************************************************************/
1485:Generated_Source\PSoC5/MIDI2_UART.c ****     void MIDI2_UART_SendBreak(uint8 retMode) 
1486:Generated_Source\PSoC5/MIDI2_UART.c ****     {
 1625              		.loc 1 1486 0
 1626              		.cfi_startproc
 1627              		@ args = 0, pretend = 0, frame = 0
 1628              		@ frame_needed = 0, uses_anonymous_args = 0
 1629              		@ link register save eliminated.
 1630              	.LVL79:
1487:Generated_Source\PSoC5/MIDI2_UART.c **** 
1488:Generated_Source\PSoC5/MIDI2_UART.c ****         /* If not Initialized then skip this function*/
1489:Generated_Source\PSoC5/MIDI2_UART.c ****         if(MIDI2_UART_initVar != 0u)
 1631              		.loc 1 1489 0
 1632 0000 1249     		ldr	r1, .L190
 1633 0002 0B78     		ldrb	r3, [r1]	@ zero_extendqisi2
 1634 0004 C3B1     		cbz	r3, .L188
1486:Generated_Source\PSoC5/MIDI2_UART.c **** 
ARM GAS  C:\Users\anjmarqu\AppData\Local\Temp\cc7ytAPG.s 			page 59


 1635              		.loc 1 1486 0
 1636 0006 F0B4     		push	{r4, r5, r6, r7}
 1637              		.cfi_def_cfa_offset 16
 1638              		.cfi_offset 4, -16
 1639              		.cfi_offset 5, -12
 1640              		.cfi_offset 6, -8
 1641              		.cfi_offset 7, -4
 1642              	.LBB108:
1490:Generated_Source\PSoC5/MIDI2_UART.c ****         {
1491:Generated_Source\PSoC5/MIDI2_UART.c ****             /*Set the Counter to 13-bits and transmit a 00 byte*/
1492:Generated_Source\PSoC5/MIDI2_UART.c ****             /*When that is done then reset the counter value back*/
1493:Generated_Source\PSoC5/MIDI2_UART.c ****             uint8 tmpStat;
1494:Generated_Source\PSoC5/MIDI2_UART.c **** 
1495:Generated_Source\PSoC5/MIDI2_UART.c ****             #if(MIDI2_UART_HD_ENABLED) /* Half Duplex mode*/
1496:Generated_Source\PSoC5/MIDI2_UART.c **** 
1497:Generated_Source\PSoC5/MIDI2_UART.c ****                 if( (retMode == MIDI2_UART_SEND_BREAK) ||
1498:Generated_Source\PSoC5/MIDI2_UART.c ****                     (retMode == MIDI2_UART_SEND_WAIT_REINIT ) )
1499:Generated_Source\PSoC5/MIDI2_UART.c ****                 {
1500:Generated_Source\PSoC5/MIDI2_UART.c ****                     /* CTRL_HD_SEND_BREAK - sends break bits in HD mode*/
1501:Generated_Source\PSoC5/MIDI2_UART.c ****                     MIDI2_UART_WriteControlRegister(MIDI2_UART_ReadControlRegister() |
1502:Generated_Source\PSoC5/MIDI2_UART.c ****                                                           MIDI2_UART_CTRL_HD_SEND_BREAK);
1503:Generated_Source\PSoC5/MIDI2_UART.c ****                     /* Send zeros*/
1504:Generated_Source\PSoC5/MIDI2_UART.c ****                     MIDI2_UART_TXDATA_REG = 0u;
1505:Generated_Source\PSoC5/MIDI2_UART.c **** 
1506:Generated_Source\PSoC5/MIDI2_UART.c ****                     do /*wait until transmit starts*/
1507:Generated_Source\PSoC5/MIDI2_UART.c ****                     {
1508:Generated_Source\PSoC5/MIDI2_UART.c ****                         tmpStat = MIDI2_UART_TXSTATUS_REG;
1509:Generated_Source\PSoC5/MIDI2_UART.c ****                     }while((tmpStat & MIDI2_UART_TX_STS_FIFO_EMPTY) != 0u);
1510:Generated_Source\PSoC5/MIDI2_UART.c ****                 }
1511:Generated_Source\PSoC5/MIDI2_UART.c **** 
1512:Generated_Source\PSoC5/MIDI2_UART.c ****                 if( (retMode == MIDI2_UART_WAIT_FOR_COMPLETE_REINIT) ||
1513:Generated_Source\PSoC5/MIDI2_UART.c ****                     (retMode == MIDI2_UART_SEND_WAIT_REINIT) )
1514:Generated_Source\PSoC5/MIDI2_UART.c ****                 {
1515:Generated_Source\PSoC5/MIDI2_UART.c ****                     do /*wait until transmit complete*/
1516:Generated_Source\PSoC5/MIDI2_UART.c ****                     {
1517:Generated_Source\PSoC5/MIDI2_UART.c ****                         tmpStat = MIDI2_UART_TXSTATUS_REG;
1518:Generated_Source\PSoC5/MIDI2_UART.c ****                     }while(((uint8)~tmpStat & MIDI2_UART_TX_STS_COMPLETE) != 0u);
1519:Generated_Source\PSoC5/MIDI2_UART.c ****                 }
1520:Generated_Source\PSoC5/MIDI2_UART.c **** 
1521:Generated_Source\PSoC5/MIDI2_UART.c ****                 if( (retMode == MIDI2_UART_WAIT_FOR_COMPLETE_REINIT) ||
1522:Generated_Source\PSoC5/MIDI2_UART.c ****                     (retMode == MIDI2_UART_REINIT) ||
1523:Generated_Source\PSoC5/MIDI2_UART.c ****                     (retMode == MIDI2_UART_SEND_WAIT_REINIT) )
1524:Generated_Source\PSoC5/MIDI2_UART.c ****                 {
1525:Generated_Source\PSoC5/MIDI2_UART.c ****                     MIDI2_UART_WriteControlRegister(MIDI2_UART_ReadControlRegister() &
1526:Generated_Source\PSoC5/MIDI2_UART.c ****                                                   (uint8)~MIDI2_UART_CTRL_HD_SEND_BREAK);
1527:Generated_Source\PSoC5/MIDI2_UART.c ****                 }
1528:Generated_Source\PSoC5/MIDI2_UART.c **** 
1529:Generated_Source\PSoC5/MIDI2_UART.c ****             #else /* MIDI2_UART_HD_ENABLED Full Duplex mode */
1530:Generated_Source\PSoC5/MIDI2_UART.c **** 
1531:Generated_Source\PSoC5/MIDI2_UART.c ****                 static uint8 tx_period;
1532:Generated_Source\PSoC5/MIDI2_UART.c **** 
1533:Generated_Source\PSoC5/MIDI2_UART.c ****                 if( (retMode == MIDI2_UART_SEND_BREAK) ||
 1643              		.loc 1 1533 0
 1644 0008 B8B9     		cbnz	r0, .L189
 1645              	.L167:
1534:Generated_Source\PSoC5/MIDI2_UART.c ****                     (retMode == MIDI2_UART_SEND_WAIT_REINIT) )
1535:Generated_Source\PSoC5/MIDI2_UART.c ****                 {
ARM GAS  C:\Users\anjmarqu\AppData\Local\Temp\cc7ytAPG.s 			page 60


1536:Generated_Source\PSoC5/MIDI2_UART.c ****                     /* CTRL_HD_SEND_BREAK - skip to send parity bit at Break signal in Full Duplex 
1537:Generated_Source\PSoC5/MIDI2_UART.c ****                     #if( (MIDI2_UART_PARITY_TYPE != MIDI2_UART__B_UART__NONE_REVB) || \
1538:Generated_Source\PSoC5/MIDI2_UART.c ****                                         (MIDI2_UART_PARITY_TYPE_SW != 0u) )
1539:Generated_Source\PSoC5/MIDI2_UART.c ****                         MIDI2_UART_WriteControlRegister(MIDI2_UART_ReadControlRegister() |
1540:Generated_Source\PSoC5/MIDI2_UART.c ****                                                               MIDI2_UART_CTRL_HD_SEND_BREAK);
1541:Generated_Source\PSoC5/MIDI2_UART.c ****                     #endif /* End MIDI2_UART_PARITY_TYPE != MIDI2_UART__B_UART__NONE_REVB  */
1542:Generated_Source\PSoC5/MIDI2_UART.c **** 
1543:Generated_Source\PSoC5/MIDI2_UART.c ****                     #if(MIDI2_UART_TXCLKGEN_DP)
1544:Generated_Source\PSoC5/MIDI2_UART.c ****                         tx_period = MIDI2_UART_TXBITCLKTX_COMPLETE_REG;
 1646              		.loc 1 1544 0
 1647 000a 114B     		ldr	r3, .L190+4
1545:Generated_Source\PSoC5/MIDI2_UART.c ****                         MIDI2_UART_TXBITCLKTX_COMPLETE_REG = MIDI2_UART_TXBITCTR_BREAKBITS;
1546:Generated_Source\PSoC5/MIDI2_UART.c ****                     #else
1547:Generated_Source\PSoC5/MIDI2_UART.c ****                         tx_period = MIDI2_UART_TXBITCTR_PERIOD_REG;
1548:Generated_Source\PSoC5/MIDI2_UART.c ****                         MIDI2_UART_TXBITCTR_PERIOD_REG = MIDI2_UART_TXBITCTR_BREAKBITS8X;
1549:Generated_Source\PSoC5/MIDI2_UART.c ****                     #endif /* End MIDI2_UART_TXCLKGEN_DP */
1550:Generated_Source\PSoC5/MIDI2_UART.c **** 
1551:Generated_Source\PSoC5/MIDI2_UART.c ****                     /* Send zeros*/
1552:Generated_Source\PSoC5/MIDI2_UART.c ****                     MIDI2_UART_TXDATA_REG = 0u;
 1648              		.loc 1 1552 0
 1649 000c 114C     		ldr	r4, .L190+8
1544:Generated_Source\PSoC5/MIDI2_UART.c ****                         MIDI2_UART_TXBITCLKTX_COMPLETE_REG = MIDI2_UART_TXBITCTR_BREAKBITS;
 1650              		.loc 1 1544 0
 1651 000e 1F78     		ldrb	r7, [r3]	@ zero_extendqisi2
1545:Generated_Source\PSoC5/MIDI2_UART.c ****                         MIDI2_UART_TXBITCLKTX_COMPLETE_REG = MIDI2_UART_TXBITCTR_BREAKBITS;
 1652              		.loc 1 1545 0
 1653 0010 6726     		movs	r6, #103
 1654              		.loc 1 1552 0
 1655 0012 0025     		movs	r5, #0
1553:Generated_Source\PSoC5/MIDI2_UART.c **** 
1554:Generated_Source\PSoC5/MIDI2_UART.c ****                     do /* wait until transmit starts */
1555:Generated_Source\PSoC5/MIDI2_UART.c ****                     {
1556:Generated_Source\PSoC5/MIDI2_UART.c ****                         tmpStat = MIDI2_UART_TXSTATUS_REG;
 1656              		.loc 1 1556 0
 1657 0014 104A     		ldr	r2, .L190+12
1544:Generated_Source\PSoC5/MIDI2_UART.c ****                         MIDI2_UART_TXBITCLKTX_COMPLETE_REG = MIDI2_UART_TXBITCTR_BREAKBITS;
 1658              		.loc 1 1544 0
 1659 0016 CF71     		strb	r7, [r1, #7]
1545:Generated_Source\PSoC5/MIDI2_UART.c ****                     #else
 1660              		.loc 1 1545 0
 1661 0018 1E70     		strb	r6, [r3]
1552:Generated_Source\PSoC5/MIDI2_UART.c **** 
 1662              		.loc 1 1552 0
 1663 001a 2570     		strb	r5, [r4]
 1664              	.L169:
 1665              		.loc 1 1556 0 discriminator 1
 1666 001c 1378     		ldrb	r3, [r2]	@ zero_extendqisi2
 1667              	.LVL80:
1557:Generated_Source\PSoC5/MIDI2_UART.c ****                     }while((tmpStat & MIDI2_UART_TX_STS_FIFO_EMPTY) != 0u);
 1668              		.loc 1 1557 0 discriminator 1
 1669 001e 9C07     		lsls	r4, r3, #30
 1670 0020 FCD4     		bmi	.L169
1558:Generated_Source\PSoC5/MIDI2_UART.c ****                 }
1559:Generated_Source\PSoC5/MIDI2_UART.c **** 
1560:Generated_Source\PSoC5/MIDI2_UART.c ****                 if( (retMode == MIDI2_UART_WAIT_FOR_COMPLETE_REINIT) ||
 1671              		.loc 1 1560 0
 1672 0022 00F0FD03 		and	r3, r0, #253
ARM GAS  C:\Users\anjmarqu\AppData\Local\Temp\cc7ytAPG.s 			page 61


 1673              	.LVL81:
 1674 0026 012B     		cmp	r3, #1
 1675 0028 0BD0     		beq	.L170
 1676              	.L174:
1561:Generated_Source\PSoC5/MIDI2_UART.c ****                     (retMode == MIDI2_UART_SEND_WAIT_REINIT) )
1562:Generated_Source\PSoC5/MIDI2_UART.c ****                 {
1563:Generated_Source\PSoC5/MIDI2_UART.c ****                     do /*wait until transmit complete*/
1564:Generated_Source\PSoC5/MIDI2_UART.c ****                     {
1565:Generated_Source\PSoC5/MIDI2_UART.c ****                         tmpStat = MIDI2_UART_TXSTATUS_REG;
1566:Generated_Source\PSoC5/MIDI2_UART.c ****                     }while(((uint8)~tmpStat & MIDI2_UART_TX_STS_COMPLETE) != 0u);
1567:Generated_Source\PSoC5/MIDI2_UART.c ****                 }
1568:Generated_Source\PSoC5/MIDI2_UART.c **** 
1569:Generated_Source\PSoC5/MIDI2_UART.c ****                 if( (retMode == MIDI2_UART_WAIT_FOR_COMPLETE_REINIT) ||
 1677              		.loc 1 1569 0
 1678 002a 0138     		subs	r0, r0, #1
 1679              	.LVL82:
 1680 002c 0228     		cmp	r0, #2
 1681 002e 02D8     		bhi	.L164
1570:Generated_Source\PSoC5/MIDI2_UART.c ****                     (retMode == MIDI2_UART_REINIT) ||
1571:Generated_Source\PSoC5/MIDI2_UART.c ****                     (retMode == MIDI2_UART_SEND_WAIT_REINIT) )
1572:Generated_Source\PSoC5/MIDI2_UART.c ****                 {
1573:Generated_Source\PSoC5/MIDI2_UART.c **** 
1574:Generated_Source\PSoC5/MIDI2_UART.c ****                     #if(MIDI2_UART_TXCLKGEN_DP)
1575:Generated_Source\PSoC5/MIDI2_UART.c ****                         MIDI2_UART_TXBITCLKTX_COMPLETE_REG = tx_period;
 1682              		.loc 1 1575 0
 1683 0030 CA79     		ldrb	r2, [r1, #7]	@ zero_extendqisi2
 1684 0032 074B     		ldr	r3, .L190+4
 1685 0034 1A70     		strb	r2, [r3]
 1686              	.L164:
 1687              	.LBE108:
1576:Generated_Source\PSoC5/MIDI2_UART.c ****                     #else
1577:Generated_Source\PSoC5/MIDI2_UART.c ****                         MIDI2_UART_TXBITCTR_PERIOD_REG = tx_period;
1578:Generated_Source\PSoC5/MIDI2_UART.c ****                     #endif /* End MIDI2_UART_TXCLKGEN_DP */
1579:Generated_Source\PSoC5/MIDI2_UART.c **** 
1580:Generated_Source\PSoC5/MIDI2_UART.c ****                     #if( (MIDI2_UART_PARITY_TYPE != MIDI2_UART__B_UART__NONE_REVB) || \
1581:Generated_Source\PSoC5/MIDI2_UART.c ****                          (MIDI2_UART_PARITY_TYPE_SW != 0u) )
1582:Generated_Source\PSoC5/MIDI2_UART.c ****                         MIDI2_UART_WriteControlRegister(MIDI2_UART_ReadControlRegister() &
1583:Generated_Source\PSoC5/MIDI2_UART.c ****                                                       (uint8)~MIDI2_UART_CTRL_HD_SEND_BREAK);
1584:Generated_Source\PSoC5/MIDI2_UART.c ****                     #endif /* End MIDI2_UART_PARITY_TYPE != NONE */
1585:Generated_Source\PSoC5/MIDI2_UART.c ****                 }
1586:Generated_Source\PSoC5/MIDI2_UART.c ****             #endif    /* End MIDI2_UART_HD_ENABLED */
1587:Generated_Source\PSoC5/MIDI2_UART.c ****         }
1588:Generated_Source\PSoC5/MIDI2_UART.c ****     }
 1688              		.loc 1 1588 0
 1689 0036 F0BC     		pop	{r4, r5, r6, r7}
 1690              		.cfi_restore 7
 1691              		.cfi_restore 6
 1692              		.cfi_restore 5
 1693              		.cfi_restore 4
 1694              		.cfi_def_cfa_offset 0
 1695              	.L188:
 1696 0038 7047     		bx	lr
 1697              	.LVL83:
 1698              	.L189:
 1699              		.cfi_def_cfa_offset 16
 1700              		.cfi_offset 4, -16
 1701              		.cfi_offset 5, -12
ARM GAS  C:\Users\anjmarqu\AppData\Local\Temp\cc7ytAPG.s 			page 62


 1702              		.cfi_offset 6, -8
 1703              		.cfi_offset 7, -4
 1704              	.LBB109:
1533:Generated_Source\PSoC5/MIDI2_UART.c ****                     (retMode == MIDI2_UART_SEND_WAIT_REINIT) )
 1705              		.loc 1 1533 0 discriminator 1
 1706 003a 0328     		cmp	r0, #3
 1707 003c E5D0     		beq	.L167
1560:Generated_Source\PSoC5/MIDI2_UART.c ****                     (retMode == MIDI2_UART_SEND_WAIT_REINIT) )
 1708              		.loc 1 1560 0
 1709 003e 0128     		cmp	r0, #1
 1710 0040 F3D1     		bne	.L174
 1711              	.L170:
1565:Generated_Source\PSoC5/MIDI2_UART.c ****                     }while(((uint8)~tmpStat & MIDI2_UART_TX_STS_COMPLETE) != 0u);
 1712              		.loc 1 1565 0
 1713 0042 054A     		ldr	r2, .L190+12
 1714              	.L173:
1565:Generated_Source\PSoC5/MIDI2_UART.c ****                     }while(((uint8)~tmpStat & MIDI2_UART_TX_STS_COMPLETE) != 0u);
 1715              		.loc 1 1565 0 is_stmt 0 discriminator 1
 1716 0044 1378     		ldrb	r3, [r2]	@ zero_extendqisi2
 1717              	.LVL84:
1566:Generated_Source\PSoC5/MIDI2_UART.c ****                 }
 1718              		.loc 1 1566 0 is_stmt 1 discriminator 1
 1719 0046 DB07     		lsls	r3, r3, #31
 1720              	.LVL85:
 1721 0048 FCD5     		bpl	.L173
 1722 004a EEE7     		b	.L174
 1723              	.L191:
 1724              		.align	2
 1725              	.L190:
 1726 004c 00000000 		.word	.LANCHOR0
 1727 0050 38640040 		.word	1073767480
 1728 0054 49650040 		.word	1073767753
 1729 0058 68650040 		.word	1073767784
 1730              	.LBE109:
 1731              		.cfi_endproc
 1732              	.LFE29:
 1733              		.size	MIDI2_UART_SendBreak, .-MIDI2_UART_SendBreak
 1734              		.section	.text.MIDI2_UART_SetTxAddressMode,"ax",%progbits
 1735              		.align	2
 1736              		.global	MIDI2_UART_SetTxAddressMode
 1737              		.thumb
 1738              		.thumb_func
 1739              		.type	MIDI2_UART_SetTxAddressMode, %function
 1740              	MIDI2_UART_SetTxAddressMode:
 1741              	.LFB30:
1589:Generated_Source\PSoC5/MIDI2_UART.c **** 
1590:Generated_Source\PSoC5/MIDI2_UART.c **** 
1591:Generated_Source\PSoC5/MIDI2_UART.c ****     /*******************************************************************************
1592:Generated_Source\PSoC5/MIDI2_UART.c ****     * Function Name: MIDI2_UART_SetTxAddressMode
1593:Generated_Source\PSoC5/MIDI2_UART.c ****     ********************************************************************************
1594:Generated_Source\PSoC5/MIDI2_UART.c ****     *
1595:Generated_Source\PSoC5/MIDI2_UART.c ****     * Summary:
1596:Generated_Source\PSoC5/MIDI2_UART.c ****     *  Set the transmit addressing mode
1597:Generated_Source\PSoC5/MIDI2_UART.c ****     *
1598:Generated_Source\PSoC5/MIDI2_UART.c ****     * Parameters:
1599:Generated_Source\PSoC5/MIDI2_UART.c ****     *  addressMode: 0 -> Space
1600:Generated_Source\PSoC5/MIDI2_UART.c ****     *               1 -> Mark
ARM GAS  C:\Users\anjmarqu\AppData\Local\Temp\cc7ytAPG.s 			page 63


1601:Generated_Source\PSoC5/MIDI2_UART.c ****     *
1602:Generated_Source\PSoC5/MIDI2_UART.c ****     * Return:
1603:Generated_Source\PSoC5/MIDI2_UART.c ****     *  None.
1604:Generated_Source\PSoC5/MIDI2_UART.c ****     *
1605:Generated_Source\PSoC5/MIDI2_UART.c ****     *******************************************************************************/
1606:Generated_Source\PSoC5/MIDI2_UART.c ****     void MIDI2_UART_SetTxAddressMode(uint8 addressMode) 
1607:Generated_Source\PSoC5/MIDI2_UART.c ****     {
 1742              		.loc 1 1607 0
 1743              		.cfi_startproc
 1744              		@ args = 0, pretend = 0, frame = 0
 1745              		@ frame_needed = 0, uses_anonymous_args = 0
 1746              		@ link register save eliminated.
 1747              	.LVL86:
 1748 0000 7047     		bx	lr
 1749              		.cfi_endproc
 1750              	.LFE30:
 1751              		.size	MIDI2_UART_SetTxAddressMode, .-MIDI2_UART_SetTxAddressMode
 1752              		.global	MIDI2_UART_rxBufferOverflow
 1753              		.global	MIDI2_UART_rxBufferLoopDetect
 1754              		.global	MIDI2_UART_rxBufferWrite
 1755              		.global	MIDI2_UART_rxBufferRead
 1756              		.comm	MIDI2_UART_rxBuffer,255,4
 1757              		.global	MIDI2_UART_txBufferWrite
 1758              		.global	MIDI2_UART_txBufferRead
 1759              		.comm	MIDI2_UART_txBuffer,255,4
 1760              		.global	MIDI2_UART_initVar
 1761              		.bss
 1762              		.set	.LANCHOR0,. + 0
 1763              		.type	MIDI2_UART_initVar, %object
 1764              		.size	MIDI2_UART_initVar, 1
 1765              	MIDI2_UART_initVar:
 1766 0000 00       		.space	1
 1767              		.type	MIDI2_UART_rxBufferRead, %object
 1768              		.size	MIDI2_UART_rxBufferRead, 1
 1769              	MIDI2_UART_rxBufferRead:
 1770 0001 00       		.space	1
 1771              		.type	MIDI2_UART_rxBufferWrite, %object
 1772              		.size	MIDI2_UART_rxBufferWrite, 1
 1773              	MIDI2_UART_rxBufferWrite:
 1774 0002 00       		.space	1
 1775              		.type	MIDI2_UART_rxBufferLoopDetect, %object
 1776              		.size	MIDI2_UART_rxBufferLoopDetect, 1
 1777              	MIDI2_UART_rxBufferLoopDetect:
 1778 0003 00       		.space	1
 1779              		.type	MIDI2_UART_rxBufferOverflow, %object
 1780              		.size	MIDI2_UART_rxBufferOverflow, 1
 1781              	MIDI2_UART_rxBufferOverflow:
 1782 0004 00       		.space	1
 1783              		.type	MIDI2_UART_txBufferRead, %object
 1784              		.size	MIDI2_UART_txBufferRead, 1
 1785              	MIDI2_UART_txBufferRead:
 1786 0005 00       		.space	1
 1787              		.type	MIDI2_UART_txBufferWrite, %object
 1788              		.size	MIDI2_UART_txBufferWrite, 1
 1789              	MIDI2_UART_txBufferWrite:
 1790 0006 00       		.space	1
 1791              		.type	tx_period.4968, %object
ARM GAS  C:\Users\anjmarqu\AppData\Local\Temp\cc7ytAPG.s 			page 64


 1792              		.size	tx_period.4968, 1
 1793              	tx_period.4968:
 1794 0007 00       		.space	1
 1795              		.text
 1796              	.Letext0:
 1797              		.file 2 "Generated_Source\\PSoC5\\cytypes.h"
 1798              		.file 3 "Generated_Source\\PSoC5\\CyLib.h"
 1799              		.section	.debug_info,"",%progbits
 1800              	.Ldebug_info0:
 1801 0000 0C090000 		.4byte	0x90c
 1802 0004 0400     		.2byte	0x4
 1803 0006 00000000 		.4byte	.Ldebug_abbrev0
 1804 000a 04       		.byte	0x4
 1805 000b 01       		.uleb128 0x1
 1806 000c 05030000 		.4byte	.LASF80
 1807 0010 01       		.byte	0x1
 1808 0011 17050000 		.4byte	.LASF81
 1809 0015 40060000 		.4byte	.LASF82
 1810 0019 70010000 		.4byte	.Ldebug_ranges0+0x170
 1811 001d 00000000 		.4byte	0
 1812 0021 00000000 		.4byte	.Ldebug_line0
 1813 0025 02       		.uleb128 0x2
 1814 0026 01       		.byte	0x1
 1815 0027 06       		.byte	0x6
 1816 0028 14010000 		.4byte	.LASF0
 1817 002c 02       		.uleb128 0x2
 1818 002d 01       		.byte	0x1
 1819 002e 08       		.byte	0x8
 1820 002f 8E040000 		.4byte	.LASF1
 1821 0033 02       		.uleb128 0x2
 1822 0034 02       		.byte	0x2
 1823 0035 05       		.byte	0x5
 1824 0036 B8040000 		.4byte	.LASF2
 1825 003a 02       		.uleb128 0x2
 1826 003b 02       		.byte	0x2
 1827 003c 07       		.byte	0x7
 1828 003d 6D020000 		.4byte	.LASF3
 1829 0041 02       		.uleb128 0x2
 1830 0042 04       		.byte	0x4
 1831 0043 05       		.byte	0x5
 1832 0044 39010000 		.4byte	.LASF4
 1833 0048 02       		.uleb128 0x2
 1834 0049 04       		.byte	0x4
 1835 004a 07       		.byte	0x7
 1836 004b 18020000 		.4byte	.LASF5
 1837 004f 02       		.uleb128 0x2
 1838 0050 08       		.byte	0x8
 1839 0051 05       		.byte	0x5
 1840 0052 06010000 		.4byte	.LASF6
 1841 0056 02       		.uleb128 0x2
 1842 0057 08       		.byte	0x8
 1843 0058 07       		.byte	0x7
 1844 0059 C7000000 		.4byte	.LASF7
 1845 005d 03       		.uleb128 0x3
 1846 005e 04       		.byte	0x4
 1847 005f 05       		.byte	0x5
 1848 0060 696E7400 		.ascii	"int\000"
ARM GAS  C:\Users\anjmarqu\AppData\Local\Temp\cc7ytAPG.s 			page 65


 1849 0064 02       		.uleb128 0x2
 1850 0065 04       		.byte	0x4
 1851 0066 07       		.byte	0x7
 1852 0067 F0010000 		.4byte	.LASF8
 1853 006b 04       		.uleb128 0x4
 1854 006c 42010000 		.4byte	.LASF9
 1855 0070 02       		.byte	0x2
 1856 0071 5B       		.byte	0x5b
 1857 0072 2C000000 		.4byte	0x2c
 1858 0076 04       		.uleb128 0x4
 1859 0077 00000000 		.4byte	.LASF10
 1860 007b 02       		.byte	0x2
 1861 007c 5C       		.byte	0x5c
 1862 007d 3A000000 		.4byte	0x3a
 1863 0081 04       		.uleb128 0x4
 1864 0082 6D010000 		.4byte	.LASF11
 1865 0086 02       		.byte	0x2
 1866 0087 5D       		.byte	0x5d
 1867 0088 48000000 		.4byte	0x48
 1868 008c 02       		.uleb128 0x2
 1869 008d 04       		.byte	0x4
 1870 008e 04       		.byte	0x4
 1871 008f 52040000 		.4byte	.LASF12
 1872 0093 02       		.uleb128 0x2
 1873 0094 08       		.byte	0x8
 1874 0095 04       		.byte	0x4
 1875 0096 48010000 		.4byte	.LASF13
 1876 009a 04       		.uleb128 0x4
 1877 009b 8E050000 		.4byte	.LASF14
 1878 009f 02       		.byte	0x2
 1879 00a0 6C       		.byte	0x6c
 1880 00a1 A5000000 		.4byte	0xa5
 1881 00a5 02       		.uleb128 0x2
 1882 00a6 01       		.byte	0x1
 1883 00a7 08       		.byte	0x8
 1884 00a8 54050000 		.4byte	.LASF15
 1885 00ac 04       		.uleb128 0x4
 1886 00ad 89040000 		.4byte	.LASF16
 1887 00b1 02       		.byte	0x2
 1888 00b2 F0       		.byte	0xf0
 1889 00b3 B7000000 		.4byte	0xb7
 1890 00b7 05       		.uleb128 0x5
 1891 00b8 6B000000 		.4byte	0x6b
 1892 00bc 04       		.uleb128 0x4
 1893 00bd FF020000 		.4byte	.LASF17
 1894 00c1 02       		.byte	0x2
 1895 00c2 F2       		.byte	0xf2
 1896 00c3 C7000000 		.4byte	0xc7
 1897 00c7 05       		.uleb128 0x5
 1898 00c8 81000000 		.4byte	0x81
 1899 00cc 06       		.uleb128 0x6
 1900 00cd 59050000 		.4byte	.LASF18
 1901 00d1 02       		.byte	0x2
 1902 00d2 0201     		.2byte	0x102
 1903 00d4 D8000000 		.4byte	0xd8
 1904 00d8 07       		.uleb128 0x7
 1905 00d9 04       		.byte	0x4
ARM GAS  C:\Users\anjmarqu\AppData\Local\Temp\cc7ytAPG.s 			page 66


 1906 00da DE000000 		.4byte	0xde
 1907 00de 08       		.uleb128 0x8
 1908 00df 02       		.uleb128 0x2
 1909 00e0 04       		.byte	0x4
 1910 00e1 07       		.byte	0x7
 1911 00e2 AB030000 		.4byte	.LASF19
 1912 00e6 09       		.uleb128 0x9
 1913 00e7 43000000 		.4byte	.LASF20
 1914 00eb 01       		.byte	0x1
 1915 00ec 6701     		.2byte	0x167
 1916 00ee 01       		.byte	0x1
 1917 00ef 09       		.uleb128 0x9
 1918 00f0 F9040000 		.4byte	.LASF21
 1919 00f4 01       		.byte	0x1
 1920 00f5 5001     		.2byte	0x150
 1921 00f7 01       		.byte	0x1
 1922 00f8 0A       		.uleb128 0xa
 1923 00f9 AC050000 		.4byte	.LASF78
 1924 00fd 01       		.byte	0x1
 1925 00fe FD01     		.2byte	0x1fd
 1926 0100 6B000000 		.4byte	0x6b
 1927 0104 01       		.byte	0x1
 1928 0105 16010000 		.4byte	0x116
 1929 0109 0B       		.uleb128 0xb
 1930 010a A5050000 		.4byte	.LASF83
 1931 010e 01       		.byte	0x1
 1932 010f FF01     		.2byte	0x1ff
 1933 0111 6B000000 		.4byte	0x6b
 1934 0115 00       		.byte	0
 1935 0116 09       		.uleb128 0x9
 1936 0117 94010000 		.4byte	.LASF22
 1937 011b 01       		.byte	0x1
 1938 011c AE03     		.2byte	0x3ae
 1939 011e 01       		.byte	0x1
 1940 011f 09       		.uleb128 0x9
 1941 0120 77050000 		.4byte	.LASF23
 1942 0124 01       		.byte	0x1
 1943 0125 9703     		.2byte	0x397
 1944 0127 01       		.byte	0x1
 1945 0128 0C       		.uleb128 0xc
 1946 0129 9B030000 		.4byte	.LASF24
 1947 012d 01       		.byte	0x1
 1948 012e 65       		.byte	0x65
 1949 012f 00000000 		.4byte	.LFB1
 1950 0133 60000000 		.4byte	.LFE1-.LFB1
 1951 0137 01       		.uleb128 0x1
 1952 0138 9C       		.byte	0x9c
 1953 0139 90010000 		.4byte	0x190
 1954 013d 0D       		.uleb128 0xd
 1955 013e 0A000000 		.4byte	.LVL0
 1956 0142 C7080000 		.4byte	0x8c7
 1957 0146 50010000 		.4byte	0x150
 1958 014a 0E       		.uleb128 0xe
 1959 014b 01       		.uleb128 0x1
 1960 014c 50       		.byte	0x50
 1961 014d 01       		.uleb128 0x1
 1962 014e 35       		.byte	0x35
ARM GAS  C:\Users\anjmarqu\AppData\Local\Temp\cc7ytAPG.s 			page 67


 1963 014f 00       		.byte	0
 1964 0150 0D       		.uleb128 0xd
 1965 0151 12000000 		.4byte	.LVL1
 1966 0155 E1080000 		.4byte	0x8e1
 1967 0159 68010000 		.4byte	0x168
 1968 015d 0E       		.uleb128 0xe
 1969 015e 01       		.uleb128 0x1
 1970 015f 51       		.byte	0x51
 1971 0160 01       		.uleb128 0x1
 1972 0161 37       		.byte	0x37
 1973 0162 0E       		.uleb128 0xe
 1974 0163 01       		.uleb128 0x1
 1975 0164 50       		.byte	0x50
 1976 0165 01       		.uleb128 0x1
 1977 0166 35       		.byte	0x35
 1978 0167 00       		.byte	0
 1979 0168 0D       		.uleb128 0xd
 1980 0169 26000000 		.4byte	.LVL2
 1981 016d C7080000 		.4byte	0x8c7
 1982 0171 7B010000 		.4byte	0x17b
 1983 0175 0E       		.uleb128 0xe
 1984 0176 01       		.uleb128 0x1
 1985 0177 50       		.byte	0x50
 1986 0178 01       		.uleb128 0x1
 1987 0179 36       		.byte	0x36
 1988 017a 00       		.byte	0
 1989 017b 0F       		.uleb128 0xf
 1990 017c 2E000000 		.4byte	.LVL3
 1991 0180 E1080000 		.4byte	0x8e1
 1992 0184 0E       		.uleb128 0xe
 1993 0185 01       		.uleb128 0x1
 1994 0186 51       		.byte	0x51
 1995 0187 01       		.uleb128 0x1
 1996 0188 37       		.byte	0x37
 1997 0189 0E       		.uleb128 0xe
 1998 018a 01       		.uleb128 0x1
 1999 018b 50       		.byte	0x50
 2000 018c 01       		.uleb128 0x1
 2001 018d 36       		.byte	0x36
 2002 018e 00       		.byte	0
 2003 018f 00       		.byte	0
 2004 0190 0C       		.uleb128 0xc
 2005 0191 4F010000 		.4byte	.LASF25
 2006 0195 01       		.byte	0x1
 2007 0196 AE       		.byte	0xae
 2008 0197 00000000 		.4byte	.LFB2
 2009 019b 44000000 		.4byte	.LFE2-.LFB2
 2010 019f 01       		.uleb128 0x1
 2011 01a0 9C       		.byte	0x9c
 2012 01a1 C7010000 		.4byte	0x1c7
 2013 01a5 10       		.uleb128 0x10
 2014 01a6 94050000 		.4byte	.LASF28
 2015 01aa 01       		.byte	0x1
 2016 01ab B0       		.byte	0xb0
 2017 01ac 6B000000 		.4byte	0x6b
 2018 01b0 00000000 		.4byte	.LLST0
 2019 01b4 11       		.uleb128 0x11
ARM GAS  C:\Users\anjmarqu\AppData\Local\Temp\cc7ytAPG.s 			page 68


 2020 01b5 06000000 		.4byte	.LVL4
 2021 01b9 F7080000 		.4byte	0x8f7
 2022 01bd 12       		.uleb128 0x12
 2023 01be 38000000 		.4byte	.LVL5
 2024 01c2 02090000 		.4byte	0x902
 2025 01c6 00       		.byte	0
 2026 01c7 0C       		.uleb128 0xc
 2027 01c8 66050000 		.4byte	.LASF26
 2028 01cc 01       		.byte	0x1
 2029 01cd 49       		.byte	0x49
 2030 01ce 00000000 		.4byte	.LFB0
 2031 01d2 1C000000 		.4byte	.LFE0-.LFB0
 2032 01d6 01       		.uleb128 0x1
 2033 01d7 9C       		.byte	0x9c
 2034 01d8 EF010000 		.4byte	0x1ef
 2035 01dc 11       		.uleb128 0x11
 2036 01dd 0C000000 		.4byte	.LVL6
 2037 01e1 28010000 		.4byte	0x128
 2038 01e5 12       		.uleb128 0x12
 2039 01e6 18000000 		.4byte	.LVL7
 2040 01ea 90010000 		.4byte	0x190
 2041 01ee 00       		.byte	0
 2042 01ef 0C       		.uleb128 0xc
 2043 01f0 C8020000 		.4byte	.LASF27
 2044 01f4 01       		.byte	0x1
 2045 01f5 E3       		.byte	0xe3
 2046 01f6 00000000 		.4byte	.LFB3
 2047 01fa 44000000 		.4byte	.LFE3-.LFB3
 2048 01fe 01       		.uleb128 0x1
 2049 01ff 9C       		.byte	0x9c
 2050 0200 45020000 		.4byte	0x245
 2051 0204 10       		.uleb128 0x10
 2052 0205 94050000 		.4byte	.LASF28
 2053 0209 01       		.byte	0x1
 2054 020a E5       		.byte	0xe5
 2055 020b 6B000000 		.4byte	0x6b
 2056 020f 13000000 		.4byte	.LLST1
 2057 0213 13       		.uleb128 0x13
 2058 0214 E6000000 		.4byte	0xe6
 2059 0218 0C000000 		.4byte	.LBB36
 2060 021c 00000000 		.4byte	.Ldebug_ranges0+0
 2061 0220 01       		.byte	0x1
 2062 0221 FC       		.byte	0xfc
 2063 0222 14       		.uleb128 0x14
 2064 0223 16010000 		.4byte	0x116
 2065 0227 24000000 		.4byte	.LBB42
 2066 022b 20000000 		.4byte	.Ldebug_ranges0+0x20
 2067 022f 01       		.byte	0x1
 2068 0230 0301     		.2byte	0x103
 2069 0232 11       		.uleb128 0x11
 2070 0233 06000000 		.4byte	.LVL8
 2071 0237 F7080000 		.4byte	0x8f7
 2072 023b 12       		.uleb128 0x12
 2073 023c 38000000 		.4byte	.LVL9
 2074 0240 02090000 		.4byte	0x902
 2075 0244 00       		.byte	0
 2076 0245 15       		.uleb128 0x15
ARM GAS  C:\Users\anjmarqu\AppData\Local\Temp\cc7ytAPG.s 			page 69


 2077 0246 19000000 		.4byte	.LASF51
 2078 024a 01       		.byte	0x1
 2079 024b 1901     		.2byte	0x119
 2080 024d 6B000000 		.4byte	0x6b
 2081 0251 00000000 		.4byte	.LFB4
 2082 0255 04000000 		.4byte	.LFE4-.LFB4
 2083 0259 01       		.uleb128 0x1
 2084 025a 9C       		.byte	0x9c
 2085 025b 16       		.uleb128 0x16
 2086 025c 7E000000 		.4byte	.LASF29
 2087 0260 01       		.byte	0x1
 2088 0261 3101     		.2byte	0x131
 2089 0263 00000000 		.4byte	.LFB5
 2090 0267 02000000 		.4byte	.LFE5-.LFB5
 2091 026b 01       		.uleb128 0x1
 2092 026c 9C       		.byte	0x9c
 2093 026d 80020000 		.4byte	0x280
 2094 0271 17       		.uleb128 0x17
 2095 0272 74010000 		.4byte	.LASF31
 2096 0276 01       		.byte	0x1
 2097 0277 3101     		.2byte	0x131
 2098 0279 6B000000 		.4byte	0x6b
 2099 027d 01       		.uleb128 0x1
 2100 027e 50       		.byte	0x50
 2101 027f 00       		.byte	0
 2102 0280 18       		.uleb128 0x18
 2103 0281 EF000000 		.4byte	0xef
 2104 0285 00000000 		.4byte	.LFB6
 2105 0289 0C000000 		.4byte	.LFE6-.LFB6
 2106 028d 01       		.uleb128 0x1
 2107 028e 9C       		.byte	0x9c
 2108 028f 18       		.uleb128 0x18
 2109 0290 E6000000 		.4byte	0xe6
 2110 0294 00000000 		.4byte	.LFB7
 2111 0298 0C000000 		.4byte	.LFE7-.LFB7
 2112 029c 01       		.uleb128 0x1
 2113 029d 9C       		.byte	0x9c
 2114 029e 16       		.uleb128 0x16
 2115 029f CA010000 		.4byte	.LASF30
 2116 02a3 01       		.byte	0x1
 2117 02a4 8101     		.2byte	0x181
 2118 02a6 00000000 		.4byte	.LFB8
 2119 02aa 0C000000 		.4byte	.LFE8-.LFB8
 2120 02ae 01       		.uleb128 0x1
 2121 02af 9C       		.byte	0x9c
 2122 02b0 C3020000 		.4byte	0x2c3
 2123 02b4 17       		.uleb128 0x17
 2124 02b5 C1020000 		.4byte	.LASF32
 2125 02b9 01       		.byte	0x1
 2126 02ba 8101     		.2byte	0x181
 2127 02bc 6B000000 		.4byte	0x6b
 2128 02c0 01       		.uleb128 0x1
 2129 02c1 50       		.byte	0x50
 2130 02c2 00       		.byte	0
 2131 02c3 19       		.uleb128 0x19
 2132 02c4 B1000000 		.4byte	.LASF36
 2133 02c8 01       		.byte	0x1
ARM GAS  C:\Users\anjmarqu\AppData\Local\Temp\cc7ytAPG.s 			page 70


 2134 02c9 A201     		.2byte	0x1a2
 2135 02cb 6B000000 		.4byte	0x6b
 2136 02cf 00000000 		.4byte	.LFB9
 2137 02d3 60000000 		.4byte	.LFE9-.LFB9
 2138 02d7 01       		.uleb128 0x1
 2139 02d8 9C       		.byte	0x9c
 2140 02d9 2E030000 		.4byte	0x32e
 2141 02dd 1A       		.uleb128 0x1a
 2142 02de 10050000 		.4byte	.LASF33
 2143 02e2 01       		.byte	0x1
 2144 02e3 A401     		.2byte	0x1a4
 2145 02e5 6B000000 		.4byte	0x6b
 2146 02e9 26000000 		.4byte	.LLST2
 2147 02ed 1A       		.uleb128 0x1a
 2148 02ee 8F020000 		.4byte	.LASF34
 2149 02f2 01       		.byte	0x1
 2150 02f3 A701     		.2byte	0x1a7
 2151 02f5 6B000000 		.4byte	0x6b
 2152 02f9 44000000 		.4byte	.LLST3
 2153 02fd 1A       		.uleb128 0x1a
 2154 02fe 07000000 		.4byte	.LASF35
 2155 0302 01       		.byte	0x1
 2156 0303 A801     		.2byte	0x1a8
 2157 0305 6B000000 		.4byte	0x6b
 2158 0309 80000000 		.4byte	.LLST4
 2159 030d 14       		.uleb128 0x14
 2160 030e E6000000 		.4byte	0xe6
 2161 0312 02000000 		.4byte	.LBB46
 2162 0316 38000000 		.4byte	.Ldebug_ranges0+0x38
 2163 031a 01       		.byte	0x1
 2164 031b AC01     		.2byte	0x1ac
 2165 031d 1B       		.uleb128 0x1b
 2166 031e EF000000 		.4byte	0xef
 2167 0322 36000000 		.4byte	.LBB50
 2168 0326 06000000 		.4byte	.LBE50-.LBB50
 2169 032a 01       		.byte	0x1
 2170 032b D801     		.2byte	0x1d8
 2171 032d 00       		.byte	0
 2172 032e 1C       		.uleb128 0x1c
 2173 032f F8000000 		.4byte	0xf8
 2174 0333 00000000 		.4byte	.LFB10
 2175 0337 20000000 		.4byte	.LFE10-.LFB10
 2176 033b 01       		.uleb128 0x1
 2177 033c 9C       		.byte	0x9c
 2178 033d 49030000 		.4byte	0x349
 2179 0341 1D       		.uleb128 0x1d
 2180 0342 09010000 		.4byte	0x109
 2181 0346 01       		.uleb128 0x1
 2182 0347 50       		.byte	0x50
 2183 0348 00       		.byte	0
 2184 0349 19       		.uleb128 0x19
 2185 034a 9E000000 		.4byte	.LASF37
 2186 034e 01       		.byte	0x1
 2187 034f 2C02     		.2byte	0x22c
 2188 0351 6B000000 		.4byte	0x6b
 2189 0355 00000000 		.4byte	.LFB11
 2190 0359 7C000000 		.4byte	.LFE11-.LFB11
ARM GAS  C:\Users\anjmarqu\AppData\Local\Temp\cc7ytAPG.s 			page 71


 2191 035d 01       		.uleb128 0x1
 2192 035e 9C       		.byte	0x9c
 2193 035f C2030000 		.4byte	0x3c2
 2194 0363 1A       		.uleb128 0x1a
 2195 0364 10050000 		.4byte	.LASF33
 2196 0368 01       		.byte	0x1
 2197 0369 2E02     		.2byte	0x22e
 2198 036b 6B000000 		.4byte	0x6b
 2199 036f 9E000000 		.4byte	.LLST5
 2200 0373 1E       		.uleb128 0x1e
 2201 0374 07040000 		.4byte	.LASF38
 2202 0378 01       		.byte	0x1
 2203 0379 2F02     		.2byte	0x22f
 2204 037b 6B000000 		.4byte	0x6b
 2205 037f 01       		.uleb128 0x1
 2206 0380 53       		.byte	0x53
 2207 0381 1A       		.uleb128 0x1a
 2208 0382 8F020000 		.4byte	.LASF34
 2209 0386 01       		.byte	0x1
 2210 0387 3202     		.2byte	0x232
 2211 0389 6B000000 		.4byte	0x6b
 2212 038d D4000000 		.4byte	.LLST6
 2213 0391 1A       		.uleb128 0x1a
 2214 0392 07000000 		.4byte	.LASF35
 2215 0396 01       		.byte	0x1
 2216 0397 3302     		.2byte	0x233
 2217 0399 6B000000 		.4byte	0x6b
 2218 039d 10010000 		.4byte	.LLST7
 2219 03a1 14       		.uleb128 0x14
 2220 03a2 E6000000 		.4byte	0xe6
 2221 03a6 02000000 		.4byte	.LBB52
 2222 03aa 50000000 		.4byte	.Ldebug_ranges0+0x50
 2223 03ae 01       		.byte	0x1
 2224 03af 3702     		.2byte	0x237
 2225 03b1 1B       		.uleb128 0x1b
 2226 03b2 EF000000 		.4byte	0xef
 2227 03b6 36000000 		.4byte	.LBB56
 2228 03ba 06000000 		.4byte	.LBE56-.LBB56
 2229 03be 01       		.byte	0x1
 2230 03bf 6B02     		.2byte	0x26b
 2231 03c1 00       		.byte	0
 2232 03c2 19       		.uleb128 0x19
 2233 03c3 3F040000 		.4byte	.LASF39
 2234 03c7 01       		.byte	0x1
 2235 03c8 9202     		.2byte	0x292
 2236 03ca 76000000 		.4byte	0x76
 2237 03ce 00000000 		.4byte	.LFB12
 2238 03d2 2C000000 		.4byte	.LFE12-.LFB12
 2239 03d6 01       		.uleb128 0x1
 2240 03d7 9C       		.byte	0x9c
 2241 03d8 0E040000 		.4byte	0x40e
 2242 03dc 1F       		.uleb128 0x1f
 2243 03dd F8000000 		.4byte	0xf8
 2244 03e1 02000000 		.4byte	.LBB58
 2245 03e5 16000000 		.4byte	.LBE58-.LBB58
 2246 03e9 01       		.byte	0x1
 2247 03ea 9402     		.2byte	0x294
ARM GAS  C:\Users\anjmarqu\AppData\Local\Temp\cc7ytAPG.s 			page 72


 2248 03ec 04040000 		.4byte	0x404
 2249 03f0 20       		.uleb128 0x20
 2250 03f1 02000000 		.4byte	.LBB59
 2251 03f5 16000000 		.4byte	.LBE59-.LBB59
 2252 03f9 21       		.uleb128 0x21
 2253 03fa 09010000 		.4byte	0x109
 2254 03fe 2E010000 		.4byte	.LLST8
 2255 0402 00       		.byte	0
 2256 0403 00       		.byte	0
 2257 0404 11       		.uleb128 0x11
 2258 0405 1C000000 		.4byte	.LVL37
 2259 0409 C3020000 		.4byte	0x2c3
 2260 040d 00       		.byte	0
 2261 040e 19       		.uleb128 0x19
 2262 040f 6E040000 		.4byte	.LASF40
 2263 0413 01       		.byte	0x1
 2264 0414 B302     		.2byte	0x2b3
 2265 0416 6B000000 		.4byte	0x6b
 2266 041a 00000000 		.4byte	.LFB13
 2267 041e 4C000000 		.4byte	.LFE13-.LFB13
 2268 0422 01       		.uleb128 0x1
 2269 0423 9C       		.byte	0x9c
 2270 0424 59040000 		.4byte	0x459
 2271 0428 1A       		.uleb128 0x1a
 2272 0429 68020000 		.4byte	.LASF41
 2273 042d 01       		.byte	0x1
 2274 042e B602     		.2byte	0x2b6
 2275 0430 6B000000 		.4byte	0x6b
 2276 0434 41010000 		.4byte	.LLST9
 2277 0438 14       		.uleb128 0x14
 2278 0439 E6000000 		.4byte	0xe6
 2279 043d 00000000 		.4byte	.LBB60
 2280 0441 68000000 		.4byte	.Ldebug_ranges0+0x68
 2281 0445 01       		.byte	0x1
 2282 0446 BD02     		.2byte	0x2bd
 2283 0448 14       		.uleb128 0x14
 2284 0449 EF000000 		.4byte	0xef
 2285 044d 22000000 		.4byte	.LBB64
 2286 0451 80000000 		.4byte	.Ldebug_ranges0+0x80
 2287 0455 01       		.byte	0x1
 2288 0456 D602     		.2byte	0x2d6
 2289 0458 00       		.byte	0
 2290 0459 16       		.uleb128 0x16
 2291 045a 2A020000 		.4byte	.LASF42
 2292 045e 01       		.byte	0x1
 2293 045f 0303     		.2byte	0x303
 2294 0461 00000000 		.4byte	.LFB14
 2295 0465 44000000 		.4byte	.LFE14-.LFB14
 2296 0469 01       		.uleb128 0x1
 2297 046a 9C       		.byte	0x9c
 2298 046b B2040000 		.4byte	0x4b2
 2299 046f 1A       		.uleb128 0x1a
 2300 0470 94050000 		.4byte	.LASF28
 2301 0474 01       		.byte	0x1
 2302 0475 0503     		.2byte	0x305
 2303 0477 6B000000 		.4byte	0x6b
 2304 047b 5F010000 		.4byte	.LLST10
ARM GAS  C:\Users\anjmarqu\AppData\Local\Temp\cc7ytAPG.s 			page 73


 2305 047f 14       		.uleb128 0x14
 2306 0480 E6000000 		.4byte	0xe6
 2307 0484 08000000 		.4byte	.LBB72
 2308 0488 A8000000 		.4byte	.Ldebug_ranges0+0xa8
 2309 048c 01       		.byte	0x1
 2310 048d 1303     		.2byte	0x313
 2311 048f 14       		.uleb128 0x14
 2312 0490 EF000000 		.4byte	0xef
 2313 0494 24000000 		.4byte	.LBB77
 2314 0498 C8000000 		.4byte	.Ldebug_ranges0+0xc8
 2315 049c 01       		.byte	0x1
 2316 049d 1D03     		.2byte	0x31d
 2317 049f 11       		.uleb128 0x11
 2318 04a0 06000000 		.4byte	.LVL42
 2319 04a4 F7080000 		.4byte	0x8f7
 2320 04a8 11       		.uleb128 0x11
 2321 04a9 1E000000 		.4byte	.LVL43
 2322 04ad 02090000 		.4byte	0x902
 2323 04b1 00       		.byte	0
 2324 04b2 16       		.uleb128 0x16
 2325 04b3 B4030000 		.4byte	.LASF43
 2326 04b7 01       		.byte	0x1
 2327 04b8 4003     		.2byte	0x340
 2328 04ba 00000000 		.4byte	.LFB15
 2329 04be 02000000 		.4byte	.LFE15-.LFB15
 2330 04c2 01       		.uleb128 0x1
 2331 04c3 9C       		.byte	0x9c
 2332 04c4 D7040000 		.4byte	0x4d7
 2333 04c8 17       		.uleb128 0x17
 2334 04c9 61010000 		.4byte	.LASF44
 2335 04cd 01       		.byte	0x1
 2336 04ce 4003     		.2byte	0x340
 2337 04d0 6B000000 		.4byte	0x6b
 2338 04d4 01       		.uleb128 0x1
 2339 04d5 50       		.byte	0x50
 2340 04d6 00       		.byte	0
 2341 04d7 16       		.uleb128 0x16
 2342 04d8 D9050000 		.4byte	.LASF45
 2343 04dc 01       		.byte	0x1
 2344 04dd 6503     		.2byte	0x365
 2345 04df 00000000 		.4byte	.LFB16
 2346 04e3 0C000000 		.4byte	.LFE16-.LFB16
 2347 04e7 01       		.uleb128 0x1
 2348 04e8 9C       		.byte	0x9c
 2349 04e9 FC040000 		.4byte	0x4fc
 2350 04ed 17       		.uleb128 0x17
 2351 04ee E7030000 		.4byte	.LASF46
 2352 04f2 01       		.byte	0x1
 2353 04f3 6503     		.2byte	0x365
 2354 04f5 6B000000 		.4byte	0x6b
 2355 04f9 01       		.uleb128 0x1
 2356 04fa 50       		.byte	0x50
 2357 04fb 00       		.byte	0
 2358 04fc 16       		.uleb128 0x16
 2359 04fd F2050000 		.4byte	.LASF47
 2360 0501 01       		.byte	0x1
 2361 0502 7A03     		.2byte	0x37a
ARM GAS  C:\Users\anjmarqu\AppData\Local\Temp\cc7ytAPG.s 			page 74


 2362 0504 00000000 		.4byte	.LFB17
 2363 0508 0C000000 		.4byte	.LFE17-.LFB17
 2364 050c 01       		.uleb128 0x1
 2365 050d 9C       		.byte	0x9c
 2366 050e 21050000 		.4byte	0x521
 2367 0512 17       		.uleb128 0x17
 2368 0513 E7030000 		.4byte	.LASF46
 2369 0517 01       		.byte	0x1
 2370 0518 7A03     		.2byte	0x37a
 2371 051a 6B000000 		.4byte	0x6b
 2372 051e 01       		.uleb128 0x1
 2373 051f 50       		.byte	0x50
 2374 0520 00       		.byte	0
 2375 0521 18       		.uleb128 0x18
 2376 0522 1F010000 		.4byte	0x11f
 2377 0526 00000000 		.4byte	.LFB18
 2378 052a 0C000000 		.4byte	.LFE18-.LFB18
 2379 052e 01       		.uleb128 0x1
 2380 052f 9C       		.byte	0x9c
 2381 0530 18       		.uleb128 0x18
 2382 0531 16010000 		.4byte	0x116
 2383 0535 00000000 		.4byte	.LFB19
 2384 0539 0C000000 		.4byte	.LFE19-.LFB19
 2385 053d 01       		.uleb128 0x1
 2386 053e 9C       		.byte	0x9c
 2387 053f 16       		.uleb128 0x16
 2388 0540 AC010000 		.4byte	.LASF48
 2389 0544 01       		.byte	0x1
 2390 0545 C803     		.2byte	0x3c8
 2391 0547 00000000 		.4byte	.LFB20
 2392 054b 0C000000 		.4byte	.LFE20-.LFB20
 2393 054f 01       		.uleb128 0x1
 2394 0550 9C       		.byte	0x9c
 2395 0551 64050000 		.4byte	0x564
 2396 0555 17       		.uleb128 0x17
 2397 0556 C1020000 		.4byte	.LASF32
 2398 055a 01       		.byte	0x1
 2399 055b C803     		.2byte	0x3c8
 2400 055d 6B000000 		.4byte	0x6b
 2401 0561 01       		.uleb128 0x1
 2402 0562 50       		.byte	0x50
 2403 0563 00       		.byte	0
 2404 0564 16       		.uleb128 0x16
 2405 0565 D0030000 		.4byte	.LASF49
 2406 0569 01       		.byte	0x1
 2407 056a EA03     		.2byte	0x3ea
 2408 056c 00000000 		.4byte	.LFB21
 2409 0570 5C000000 		.4byte	.LFE21-.LFB21
 2410 0574 01       		.uleb128 0x1
 2411 0575 9C       		.byte	0x9c
 2412 0576 A9050000 		.4byte	0x5a9
 2413 057a 17       		.uleb128 0x17
 2414 057b 38000000 		.4byte	.LASF50
 2415 057f 01       		.byte	0x1
 2416 0580 EA03     		.2byte	0x3ea
 2417 0582 6B000000 		.4byte	0x6b
 2418 0586 01       		.uleb128 0x1
ARM GAS  C:\Users\anjmarqu\AppData\Local\Temp\cc7ytAPG.s 			page 75


 2419 0587 50       		.byte	0x50
 2420 0588 1B       		.uleb128 0x1b
 2421 0589 16010000 		.4byte	0x116
 2422 058d 08000000 		.4byte	.LBB82
 2423 0591 06000000 		.4byte	.LBE82-.LBB82
 2424 0595 01       		.byte	0x1
 2425 0596 F403     		.2byte	0x3f4
 2426 0598 1B       		.uleb128 0x1b
 2427 0599 1F010000 		.4byte	0x11f
 2428 059d 2A000000 		.4byte	.LBB84
 2429 05a1 06000000 		.4byte	.LBE84-.LBB84
 2430 05a5 01       		.byte	0x1
 2431 05a6 0D04     		.2byte	0x40d
 2432 05a8 00       		.byte	0
 2433 05a9 15       		.uleb128 0x15
 2434 05aa 7C010000 		.4byte	.LASF52
 2435 05ae 01       		.byte	0x1
 2436 05af 2E04     		.2byte	0x42e
 2437 05b1 6B000000 		.4byte	0x6b
 2438 05b5 00000000 		.4byte	.LFB22
 2439 05b9 0C000000 		.4byte	.LFE22-.LFB22
 2440 05bd 01       		.uleb128 0x1
 2441 05be 9C       		.byte	0x9c
 2442 05bf 16       		.uleb128 0x16
 2443 05c0 EC020000 		.4byte	.LASF53
 2444 05c4 01       		.byte	0x1
 2445 05c5 5204     		.2byte	0x452
 2446 05c7 00000000 		.4byte	.LFB23
 2447 05cb 5C000000 		.4byte	.LFE23-.LFB23
 2448 05cf 01       		.uleb128 0x1
 2449 05d0 9C       		.byte	0x9c
 2450 05d1 04060000 		.4byte	0x604
 2451 05d5 17       		.uleb128 0x17
 2452 05d6 38000000 		.4byte	.LASF50
 2453 05da 01       		.byte	0x1
 2454 05db 5204     		.2byte	0x452
 2455 05dd 6B000000 		.4byte	0x6b
 2456 05e1 01       		.uleb128 0x1
 2457 05e2 50       		.byte	0x50
 2458 05e3 1A       		.uleb128 0x1a
 2459 05e4 8B060000 		.4byte	.LASF54
 2460 05e8 01       		.byte	0x1
 2461 05e9 5904     		.2byte	0x459
 2462 05eb 6B000000 		.4byte	0x6b
 2463 05ef 72010000 		.4byte	.LLST11
 2464 05f3 1A       		.uleb128 0x1a
 2465 05f4 43020000 		.4byte	.LASF55
 2466 05f8 01       		.byte	0x1
 2467 05f9 5A04     		.2byte	0x45a
 2468 05fb 6B000000 		.4byte	0x6b
 2469 05ff 9B010000 		.4byte	.LLST12
 2470 0603 00       		.byte	0
 2471 0604 16       		.uleb128 0x16
 2472 0605 DE000000 		.4byte	.LASF56
 2473 0609 01       		.byte	0x1
 2474 060a AE04     		.2byte	0x4ae
 2475 060c 00000000 		.4byte	.LFB24
ARM GAS  C:\Users\anjmarqu\AppData\Local\Temp\cc7ytAPG.s 			page 76


 2476 0610 24000000 		.4byte	.LFE24-.LFB24
 2477 0614 01       		.uleb128 0x1
 2478 0615 9C       		.byte	0x9c
 2479 0616 44060000 		.4byte	0x644
 2480 061a 22       		.uleb128 0x22
 2481 061b 77000000 		.4byte	.LASF57
 2482 061f 01       		.byte	0x1
 2483 0620 AE04     		.2byte	0x4ae
 2484 0622 44060000 		.4byte	0x644
 2485 0626 D3010000 		.4byte	.LLST13
 2486 062a 1A       		.uleb128 0x1a
 2487 062b 0B060000 		.4byte	.LASF58
 2488 062f 01       		.byte	0x1
 2489 0630 B004     		.2byte	0x4b0
 2490 0632 76000000 		.4byte	0x76
 2491 0636 FF010000 		.4byte	.LLST14
 2492 063a 11       		.uleb128 0x11
 2493 063b 18000000 		.4byte	.LVL63
 2494 063f BF050000 		.4byte	0x5bf
 2495 0643 00       		.byte	0
 2496 0644 07       		.uleb128 0x7
 2497 0645 04       		.byte	0x4
 2498 0646 4A060000 		.4byte	0x64a
 2499 064a 23       		.uleb128 0x23
 2500 064b 9A000000 		.4byte	0x9a
 2501 064f 16       		.uleb128 0x16
 2502 0650 D8020000 		.4byte	.LASF59
 2503 0654 01       		.byte	0x1
 2504 0655 D404     		.2byte	0x4d4
 2505 0657 00000000 		.4byte	.LFB25
 2506 065b 28000000 		.4byte	.LFE25-.LFB25
 2507 065f 01       		.uleb128 0x1
 2508 0660 9C       		.byte	0x9c
 2509 0661 9F060000 		.4byte	0x69f
 2510 0665 22       		.uleb128 0x22
 2511 0666 77000000 		.4byte	.LASF57
 2512 066a 01       		.byte	0x1
 2513 066b D404     		.2byte	0x4d4
 2514 066d 9F060000 		.4byte	0x69f
 2515 0671 29020000 		.4byte	.LLST15
 2516 0675 22       		.uleb128 0x22
 2517 0676 EF040000 		.4byte	.LASF60
 2518 067a 01       		.byte	0x1
 2519 067b D404     		.2byte	0x4d4
 2520 067d 6B000000 		.4byte	0x6b
 2521 0681 52020000 		.4byte	.LLST16
 2522 0685 1A       		.uleb128 0x1a
 2523 0686 0B060000 		.4byte	.LASF58
 2524 068a 01       		.byte	0x1
 2525 068b D704     		.2byte	0x4d7
 2526 068d 6B000000 		.4byte	0x6b
 2527 0691 7E020000 		.4byte	.LLST17
 2528 0695 11       		.uleb128 0x11
 2529 0696 16000000 		.4byte	.LVL68
 2530 069a BF050000 		.4byte	0x5bf
 2531 069e 00       		.byte	0
 2532 069f 07       		.uleb128 0x7
ARM GAS  C:\Users\anjmarqu\AppData\Local\Temp\cc7ytAPG.s 			page 77


 2533 06a0 04       		.byte	0x4
 2534 06a1 A5060000 		.4byte	0x6a5
 2535 06a5 23       		.uleb128 0x23
 2536 06a6 6B000000 		.4byte	0x6b
 2537 06aa 16       		.uleb128 0x16
 2538 06ab 2D060000 		.4byte	.LASF61
 2539 06af 01       		.byte	0x1
 2540 06b0 F904     		.2byte	0x4f9
 2541 06b2 00000000 		.4byte	.LFB26
 2542 06b6 24000000 		.4byte	.LFE26-.LFB26
 2543 06ba 01       		.uleb128 0x1
 2544 06bb 9C       		.byte	0x9c
 2545 06bc FC060000 		.4byte	0x6fc
 2546 06c0 22       		.uleb128 0x22
 2547 06c1 38000000 		.4byte	.LASF50
 2548 06c5 01       		.byte	0x1
 2549 06c6 F904     		.2byte	0x4f9
 2550 06c8 6B000000 		.4byte	0x6b
 2551 06cc BE020000 		.4byte	.LLST18
 2552 06d0 11       		.uleb128 0x11
 2553 06d1 0E000000 		.4byte	.LVL71
 2554 06d5 BF050000 		.4byte	0x5bf
 2555 06d9 0D       		.uleb128 0xd
 2556 06da 14000000 		.4byte	.LVL72
 2557 06de BF050000 		.4byte	0x5bf
 2558 06e2 EC060000 		.4byte	0x6ec
 2559 06e6 0E       		.uleb128 0xe
 2560 06e7 01       		.uleb128 0x1
 2561 06e8 50       		.byte	0x50
 2562 06e9 01       		.uleb128 0x1
 2563 06ea 3D       		.byte	0x3d
 2564 06eb 00       		.byte	0
 2565 06ec 24       		.uleb128 0x24
 2566 06ed 1E000000 		.4byte	.LVL73
 2567 06f1 BF050000 		.4byte	0x5bf
 2568 06f5 0E       		.uleb128 0xe
 2569 06f6 01       		.uleb128 0x1
 2570 06f7 50       		.byte	0x50
 2571 06f8 01       		.uleb128 0x1
 2572 06f9 3A       		.byte	0x3a
 2573 06fa 00       		.byte	0
 2574 06fb 00       		.byte	0
 2575 06fc 19       		.uleb128 0x19
 2576 06fd FD010000 		.4byte	.LASF62
 2577 0701 01       		.byte	0x1
 2578 0702 1E05     		.2byte	0x51e
 2579 0704 6B000000 		.4byte	0x6b
 2580 0708 00000000 		.4byte	.LFB27
 2581 070c 40000000 		.4byte	.LFE27-.LFB27
 2582 0710 01       		.uleb128 0x1
 2583 0711 9C       		.byte	0x9c
 2584 0712 47070000 		.4byte	0x747
 2585 0716 1A       		.uleb128 0x1a
 2586 0717 68020000 		.4byte	.LASF41
 2587 071b 01       		.byte	0x1
 2588 071c 2105     		.2byte	0x521
 2589 071e 6B000000 		.4byte	0x6b
ARM GAS  C:\Users\anjmarqu\AppData\Local\Temp\cc7ytAPG.s 			page 78


 2590 0722 DF020000 		.4byte	.LLST19
 2591 0726 14       		.uleb128 0x14
 2592 0727 16010000 		.4byte	0x116
 2593 072b 00000000 		.4byte	.LBB86
 2594 072f E0000000 		.4byte	.Ldebug_ranges0+0xe0
 2595 0733 01       		.byte	0x1
 2596 0734 2805     		.2byte	0x528
 2597 0736 14       		.uleb128 0x14
 2598 0737 1F010000 		.4byte	0x11f
 2599 073b 1E000000 		.4byte	.LBB90
 2600 073f F8000000 		.4byte	.Ldebug_ranges0+0xf8
 2601 0743 01       		.byte	0x1
 2602 0744 3A05     		.2byte	0x53a
 2603 0746 00       		.byte	0
 2604 0747 16       		.uleb128 0x16
 2605 0748 3B050000 		.4byte	.LASF63
 2606 074c 01       		.byte	0x1
 2607 074d 7405     		.2byte	0x574
 2608 074f 00000000 		.4byte	.LFB28
 2609 0753 40000000 		.4byte	.LFE28-.LFB28
 2610 0757 01       		.uleb128 0x1
 2611 0758 9C       		.byte	0x9c
 2612 0759 A0070000 		.4byte	0x7a0
 2613 075d 1A       		.uleb128 0x1a
 2614 075e 94050000 		.4byte	.LASF28
 2615 0762 01       		.byte	0x1
 2616 0763 7605     		.2byte	0x576
 2617 0765 6B000000 		.4byte	0x6b
 2618 0769 FD020000 		.4byte	.LLST20
 2619 076d 14       		.uleb128 0x14
 2620 076e 16010000 		.4byte	0x116
 2621 0772 08000000 		.4byte	.LBB98
 2622 0776 20010000 		.4byte	.Ldebug_ranges0+0x120
 2623 077a 01       		.byte	0x1
 2624 077b 8505     		.2byte	0x585
 2625 077d 14       		.uleb128 0x14
 2626 077e 1F010000 		.4byte	0x11f
 2627 0782 24000000 		.4byte	.LBB103
 2628 0786 40010000 		.4byte	.Ldebug_ranges0+0x140
 2629 078a 01       		.byte	0x1
 2630 078b 8D05     		.2byte	0x58d
 2631 078d 11       		.uleb128 0x11
 2632 078e 06000000 		.4byte	.LVL77
 2633 0792 F7080000 		.4byte	0x8f7
 2634 0796 11       		.uleb128 0x11
 2635 0797 1E000000 		.4byte	.LVL78
 2636 079b 02090000 		.4byte	0x902
 2637 079f 00       		.byte	0
 2638 07a0 16       		.uleb128 0x16
 2639 07a1 C4050000 		.4byte	.LASF64
 2640 07a5 01       		.byte	0x1
 2641 07a6 CD05     		.2byte	0x5cd
 2642 07a8 00000000 		.4byte	.LFB29
 2643 07ac 5C000000 		.4byte	.LFE29-.LFB29
 2644 07b0 01       		.uleb128 0x1
 2645 07b1 9C       		.byte	0x9c
 2646 07b2 EF070000 		.4byte	0x7ef
ARM GAS  C:\Users\anjmarqu\AppData\Local\Temp\cc7ytAPG.s 			page 79


 2647 07b6 22       		.uleb128 0x22
 2648 07b7 E8010000 		.4byte	.LASF65
 2649 07bb 01       		.byte	0x1
 2650 07bc CD05     		.2byte	0x5cd
 2651 07be 6B000000 		.4byte	0x6b
 2652 07c2 10030000 		.4byte	.LLST21
 2653 07c6 25       		.uleb128 0x25
 2654 07c7 58010000 		.4byte	.Ldebug_ranges0+0x158
 2655 07cb 1A       		.uleb128 0x1a
 2656 07cc 93030000 		.4byte	.LASF66
 2657 07d0 01       		.byte	0x1
 2658 07d1 D505     		.2byte	0x5d5
 2659 07d3 6B000000 		.4byte	0x6b
 2660 07d7 3C030000 		.4byte	.LLST22
 2661 07db 1E       		.uleb128 0x1e
 2662 07dc A0020000 		.4byte	.LASF67
 2663 07e0 01       		.byte	0x1
 2664 07e1 FB05     		.2byte	0x5fb
 2665 07e3 6B000000 		.4byte	0x6b
 2666 07e7 05       		.uleb128 0x5
 2667 07e8 03       		.byte	0x3
 2668 07e9 07000000 		.4byte	tx_period.4968
 2669 07ed 00       		.byte	0
 2670 07ee 00       		.byte	0
 2671 07ef 16       		.uleb128 0x16
 2672 07f0 5B000000 		.4byte	.LASF68
 2673 07f4 01       		.byte	0x1
 2674 07f5 4606     		.2byte	0x646
 2675 07f7 00000000 		.4byte	.LFB30
 2676 07fb 02000000 		.4byte	.LFE30-.LFB30
 2677 07ff 01       		.uleb128 0x1
 2678 0800 9C       		.byte	0x9c
 2679 0801 14080000 		.4byte	0x814
 2680 0805 17       		.uleb128 0x17
 2681 0806 61010000 		.4byte	.LASF44
 2682 080a 01       		.byte	0x1
 2683 080b 4606     		.2byte	0x646
 2684 080d 6B000000 		.4byte	0x6b
 2685 0811 01       		.uleb128 0x1
 2686 0812 50       		.byte	0x50
 2687 0813 00       		.byte	0
 2688 0814 26       		.uleb128 0x26
 2689 0815 F3000000 		.4byte	.LASF69
 2690 0819 01       		.byte	0x1
 2691 081a 1C       		.byte	0x1c
 2692 081b 6B000000 		.4byte	0x6b
 2693 081f 05       		.uleb128 0x5
 2694 0820 03       		.byte	0x3
 2695 0821 00000000 		.4byte	MIDI2_UART_initVar
 2696 0825 27       		.uleb128 0x27
 2697 0826 6B000000 		.4byte	0x6b
 2698 082a 35080000 		.4byte	0x835
 2699 082e 28       		.uleb128 0x28
 2700 082f DF000000 		.4byte	0xdf
 2701 0833 FE       		.byte	0xfe
 2702 0834 00       		.byte	0
 2703 0835 26       		.uleb128 0x26
ARM GAS  C:\Users\anjmarqu\AppData\Local\Temp\cc7ytAPG.s 			page 80


 2704 0836 54020000 		.4byte	.LASF70
 2705 083a 01       		.byte	0x1
 2706 083b 1E       		.byte	0x1e
 2707 083c 46080000 		.4byte	0x846
 2708 0840 05       		.uleb128 0x5
 2709 0841 03       		.byte	0x3
 2710 0842 00000000 		.4byte	MIDI2_UART_txBuffer
 2711 0846 05       		.uleb128 0x5
 2712 0847 25080000 		.4byte	0x825
 2713 084b 26       		.uleb128 0x26
 2714 084c 15060000 		.4byte	.LASF71
 2715 0850 01       		.byte	0x1
 2716 0851 1F       		.byte	0x1f
 2717 0852 B7000000 		.4byte	0xb7
 2718 0856 05       		.uleb128 0x5
 2719 0857 03       		.byte	0x3
 2720 0858 00000000 		.4byte	MIDI2_UART_txBufferRead
 2721 085c 26       		.uleb128 0x26
 2722 085d 20010000 		.4byte	.LASF72
 2723 0861 01       		.byte	0x1
 2724 0862 20       		.byte	0x20
 2725 0863 6B000000 		.4byte	0x6b
 2726 0867 05       		.uleb128 0x5
 2727 0868 03       		.byte	0x3
 2728 0869 00000000 		.4byte	MIDI2_UART_txBufferWrite
 2729 086d 26       		.uleb128 0x26
 2730 086e DB040000 		.4byte	.LASF73
 2731 0872 01       		.byte	0x1
 2732 0873 24       		.byte	0x24
 2733 0874 7E080000 		.4byte	0x87e
 2734 0878 05       		.uleb128 0x5
 2735 0879 03       		.byte	0x3
 2736 087a 00000000 		.4byte	MIDI2_UART_rxBuffer
 2737 087e 05       		.uleb128 0x5
 2738 087f 25080000 		.4byte	0x825
 2739 0883 26       		.uleb128 0x26
 2740 0884 EF030000 		.4byte	.LASF74
 2741 0888 01       		.byte	0x1
 2742 0889 25       		.byte	0x25
 2743 088a B7000000 		.4byte	0xb7
 2744 088e 05       		.uleb128 0x5
 2745 088f 03       		.byte	0x3
 2746 0890 00000000 		.4byte	MIDI2_UART_rxBufferRead
 2747 0894 26       		.uleb128 0x26
 2748 0895 C2040000 		.4byte	.LASF75
 2749 0899 01       		.byte	0x1
 2750 089a 26       		.byte	0x26
 2751 089b B7000000 		.4byte	0xb7
 2752 089f 05       		.uleb128 0x5
 2753 08a0 03       		.byte	0x3
 2754 08a1 00000000 		.4byte	MIDI2_UART_rxBufferWrite
 2755 08a5 26       		.uleb128 0x26
 2756 08a6 10040000 		.4byte	.LASF76
 2757 08aa 01       		.byte	0x1
 2758 08ab 27       		.byte	0x27
 2759 08ac B7000000 		.4byte	0xb7
 2760 08b0 05       		.uleb128 0x5
ARM GAS  C:\Users\anjmarqu\AppData\Local\Temp\cc7ytAPG.s 			page 81


 2761 08b1 03       		.byte	0x3
 2762 08b2 00000000 		.4byte	MIDI2_UART_rxBufferLoopDetect
 2763 08b6 26       		.uleb128 0x26
 2764 08b7 9C040000 		.4byte	.LASF77
 2765 08bb 01       		.byte	0x1
 2766 08bc 28       		.byte	0x28
 2767 08bd B7000000 		.4byte	0xb7
 2768 08c1 05       		.uleb128 0x5
 2769 08c2 03       		.byte	0x3
 2770 08c3 00000000 		.4byte	MIDI2_UART_rxBufferOverflow
 2771 08c7 29       		.uleb128 0x29
 2772 08c8 80020000 		.4byte	.LASF79
 2773 08cc 03       		.byte	0x3
 2774 08cd 89       		.byte	0x89
 2775 08ce CC000000 		.4byte	0xcc
 2776 08d2 E1080000 		.4byte	0x8e1
 2777 08d6 2A       		.uleb128 0x2a
 2778 08d7 6B000000 		.4byte	0x6b
 2779 08db 2A       		.uleb128 0x2a
 2780 08dc CC000000 		.4byte	0xcc
 2781 08e0 00       		.byte	0
 2782 08e1 2B       		.uleb128 0x2b
 2783 08e2 2E040000 		.4byte	.LASF84
 2784 08e6 03       		.byte	0x3
 2785 08e7 8C       		.byte	0x8c
 2786 08e8 F7080000 		.4byte	0x8f7
 2787 08ec 2A       		.uleb128 0x2a
 2788 08ed 6B000000 		.4byte	0x6b
 2789 08f1 2A       		.uleb128 0x2a
 2790 08f2 6B000000 		.4byte	0x6b
 2791 08f6 00       		.byte	0
 2792 08f7 2C       		.uleb128 0x2c
 2793 08f8 AA020000 		.4byte	.LASF85
 2794 08fc 03       		.byte	0x3
 2795 08fd 7E       		.byte	0x7e
 2796 08fe 6B000000 		.4byte	0x6b
 2797 0902 2D       		.uleb128 0x2d
 2798 0903 58040000 		.4byte	.LASF86
 2799 0907 03       		.byte	0x3
 2800 0908 7F       		.byte	0x7f
 2801 0909 2A       		.uleb128 0x2a
 2802 090a 6B000000 		.4byte	0x6b
 2803 090e 00       		.byte	0
 2804 090f 00       		.byte	0
 2805              		.section	.debug_abbrev,"",%progbits
 2806              	.Ldebug_abbrev0:
 2807 0000 01       		.uleb128 0x1
 2808 0001 11       		.uleb128 0x11
 2809 0002 01       		.byte	0x1
 2810 0003 25       		.uleb128 0x25
 2811 0004 0E       		.uleb128 0xe
 2812 0005 13       		.uleb128 0x13
 2813 0006 0B       		.uleb128 0xb
 2814 0007 03       		.uleb128 0x3
 2815 0008 0E       		.uleb128 0xe
 2816 0009 1B       		.uleb128 0x1b
 2817 000a 0E       		.uleb128 0xe
ARM GAS  C:\Users\anjmarqu\AppData\Local\Temp\cc7ytAPG.s 			page 82


 2818 000b 55       		.uleb128 0x55
 2819 000c 17       		.uleb128 0x17
 2820 000d 11       		.uleb128 0x11
 2821 000e 01       		.uleb128 0x1
 2822 000f 10       		.uleb128 0x10
 2823 0010 17       		.uleb128 0x17
 2824 0011 00       		.byte	0
 2825 0012 00       		.byte	0
 2826 0013 02       		.uleb128 0x2
 2827 0014 24       		.uleb128 0x24
 2828 0015 00       		.byte	0
 2829 0016 0B       		.uleb128 0xb
 2830 0017 0B       		.uleb128 0xb
 2831 0018 3E       		.uleb128 0x3e
 2832 0019 0B       		.uleb128 0xb
 2833 001a 03       		.uleb128 0x3
 2834 001b 0E       		.uleb128 0xe
 2835 001c 00       		.byte	0
 2836 001d 00       		.byte	0
 2837 001e 03       		.uleb128 0x3
 2838 001f 24       		.uleb128 0x24
 2839 0020 00       		.byte	0
 2840 0021 0B       		.uleb128 0xb
 2841 0022 0B       		.uleb128 0xb
 2842 0023 3E       		.uleb128 0x3e
 2843 0024 0B       		.uleb128 0xb
 2844 0025 03       		.uleb128 0x3
 2845 0026 08       		.uleb128 0x8
 2846 0027 00       		.byte	0
 2847 0028 00       		.byte	0
 2848 0029 04       		.uleb128 0x4
 2849 002a 16       		.uleb128 0x16
 2850 002b 00       		.byte	0
 2851 002c 03       		.uleb128 0x3
 2852 002d 0E       		.uleb128 0xe
 2853 002e 3A       		.uleb128 0x3a
 2854 002f 0B       		.uleb128 0xb
 2855 0030 3B       		.uleb128 0x3b
 2856 0031 0B       		.uleb128 0xb
 2857 0032 49       		.uleb128 0x49
 2858 0033 13       		.uleb128 0x13
 2859 0034 00       		.byte	0
 2860 0035 00       		.byte	0
 2861 0036 05       		.uleb128 0x5
 2862 0037 35       		.uleb128 0x35
 2863 0038 00       		.byte	0
 2864 0039 49       		.uleb128 0x49
 2865 003a 13       		.uleb128 0x13
 2866 003b 00       		.byte	0
 2867 003c 00       		.byte	0
 2868 003d 06       		.uleb128 0x6
 2869 003e 16       		.uleb128 0x16
 2870 003f 00       		.byte	0
 2871 0040 03       		.uleb128 0x3
 2872 0041 0E       		.uleb128 0xe
 2873 0042 3A       		.uleb128 0x3a
 2874 0043 0B       		.uleb128 0xb
ARM GAS  C:\Users\anjmarqu\AppData\Local\Temp\cc7ytAPG.s 			page 83


 2875 0044 3B       		.uleb128 0x3b
 2876 0045 05       		.uleb128 0x5
 2877 0046 49       		.uleb128 0x49
 2878 0047 13       		.uleb128 0x13
 2879 0048 00       		.byte	0
 2880 0049 00       		.byte	0
 2881 004a 07       		.uleb128 0x7
 2882 004b 0F       		.uleb128 0xf
 2883 004c 00       		.byte	0
 2884 004d 0B       		.uleb128 0xb
 2885 004e 0B       		.uleb128 0xb
 2886 004f 49       		.uleb128 0x49
 2887 0050 13       		.uleb128 0x13
 2888 0051 00       		.byte	0
 2889 0052 00       		.byte	0
 2890 0053 08       		.uleb128 0x8
 2891 0054 15       		.uleb128 0x15
 2892 0055 00       		.byte	0
 2893 0056 27       		.uleb128 0x27
 2894 0057 19       		.uleb128 0x19
 2895 0058 00       		.byte	0
 2896 0059 00       		.byte	0
 2897 005a 09       		.uleb128 0x9
 2898 005b 2E       		.uleb128 0x2e
 2899 005c 00       		.byte	0
 2900 005d 3F       		.uleb128 0x3f
 2901 005e 19       		.uleb128 0x19
 2902 005f 03       		.uleb128 0x3
 2903 0060 0E       		.uleb128 0xe
 2904 0061 3A       		.uleb128 0x3a
 2905 0062 0B       		.uleb128 0xb
 2906 0063 3B       		.uleb128 0x3b
 2907 0064 05       		.uleb128 0x5
 2908 0065 27       		.uleb128 0x27
 2909 0066 19       		.uleb128 0x19
 2910 0067 20       		.uleb128 0x20
 2911 0068 0B       		.uleb128 0xb
 2912 0069 00       		.byte	0
 2913 006a 00       		.byte	0
 2914 006b 0A       		.uleb128 0xa
 2915 006c 2E       		.uleb128 0x2e
 2916 006d 01       		.byte	0x1
 2917 006e 3F       		.uleb128 0x3f
 2918 006f 19       		.uleb128 0x19
 2919 0070 03       		.uleb128 0x3
 2920 0071 0E       		.uleb128 0xe
 2921 0072 3A       		.uleb128 0x3a
 2922 0073 0B       		.uleb128 0xb
 2923 0074 3B       		.uleb128 0x3b
 2924 0075 05       		.uleb128 0x5
 2925 0076 27       		.uleb128 0x27
 2926 0077 19       		.uleb128 0x19
 2927 0078 49       		.uleb128 0x49
 2928 0079 13       		.uleb128 0x13
 2929 007a 20       		.uleb128 0x20
 2930 007b 0B       		.uleb128 0xb
 2931 007c 01       		.uleb128 0x1
ARM GAS  C:\Users\anjmarqu\AppData\Local\Temp\cc7ytAPG.s 			page 84


 2932 007d 13       		.uleb128 0x13
 2933 007e 00       		.byte	0
 2934 007f 00       		.byte	0
 2935 0080 0B       		.uleb128 0xb
 2936 0081 34       		.uleb128 0x34
 2937 0082 00       		.byte	0
 2938 0083 03       		.uleb128 0x3
 2939 0084 0E       		.uleb128 0xe
 2940 0085 3A       		.uleb128 0x3a
 2941 0086 0B       		.uleb128 0xb
 2942 0087 3B       		.uleb128 0x3b
 2943 0088 05       		.uleb128 0x5
 2944 0089 49       		.uleb128 0x49
 2945 008a 13       		.uleb128 0x13
 2946 008b 00       		.byte	0
 2947 008c 00       		.byte	0
 2948 008d 0C       		.uleb128 0xc
 2949 008e 2E       		.uleb128 0x2e
 2950 008f 01       		.byte	0x1
 2951 0090 3F       		.uleb128 0x3f
 2952 0091 19       		.uleb128 0x19
 2953 0092 03       		.uleb128 0x3
 2954 0093 0E       		.uleb128 0xe
 2955 0094 3A       		.uleb128 0x3a
 2956 0095 0B       		.uleb128 0xb
 2957 0096 3B       		.uleb128 0x3b
 2958 0097 0B       		.uleb128 0xb
 2959 0098 27       		.uleb128 0x27
 2960 0099 19       		.uleb128 0x19
 2961 009a 11       		.uleb128 0x11
 2962 009b 01       		.uleb128 0x1
 2963 009c 12       		.uleb128 0x12
 2964 009d 06       		.uleb128 0x6
 2965 009e 40       		.uleb128 0x40
 2966 009f 18       		.uleb128 0x18
 2967 00a0 9742     		.uleb128 0x2117
 2968 00a2 19       		.uleb128 0x19
 2969 00a3 01       		.uleb128 0x1
 2970 00a4 13       		.uleb128 0x13
 2971 00a5 00       		.byte	0
 2972 00a6 00       		.byte	0
 2973 00a7 0D       		.uleb128 0xd
 2974 00a8 898201   		.uleb128 0x4109
 2975 00ab 01       		.byte	0x1
 2976 00ac 11       		.uleb128 0x11
 2977 00ad 01       		.uleb128 0x1
 2978 00ae 31       		.uleb128 0x31
 2979 00af 13       		.uleb128 0x13
 2980 00b0 01       		.uleb128 0x1
 2981 00b1 13       		.uleb128 0x13
 2982 00b2 00       		.byte	0
 2983 00b3 00       		.byte	0
 2984 00b4 0E       		.uleb128 0xe
 2985 00b5 8A8201   		.uleb128 0x410a
 2986 00b8 00       		.byte	0
 2987 00b9 02       		.uleb128 0x2
 2988 00ba 18       		.uleb128 0x18
ARM GAS  C:\Users\anjmarqu\AppData\Local\Temp\cc7ytAPG.s 			page 85


 2989 00bb 9142     		.uleb128 0x2111
 2990 00bd 18       		.uleb128 0x18
 2991 00be 00       		.byte	0
 2992 00bf 00       		.byte	0
 2993 00c0 0F       		.uleb128 0xf
 2994 00c1 898201   		.uleb128 0x4109
 2995 00c4 01       		.byte	0x1
 2996 00c5 11       		.uleb128 0x11
 2997 00c6 01       		.uleb128 0x1
 2998 00c7 31       		.uleb128 0x31
 2999 00c8 13       		.uleb128 0x13
 3000 00c9 00       		.byte	0
 3001 00ca 00       		.byte	0
 3002 00cb 10       		.uleb128 0x10
 3003 00cc 34       		.uleb128 0x34
 3004 00cd 00       		.byte	0
 3005 00ce 03       		.uleb128 0x3
 3006 00cf 0E       		.uleb128 0xe
 3007 00d0 3A       		.uleb128 0x3a
 3008 00d1 0B       		.uleb128 0xb
 3009 00d2 3B       		.uleb128 0x3b
 3010 00d3 0B       		.uleb128 0xb
 3011 00d4 49       		.uleb128 0x49
 3012 00d5 13       		.uleb128 0x13
 3013 00d6 02       		.uleb128 0x2
 3014 00d7 17       		.uleb128 0x17
 3015 00d8 00       		.byte	0
 3016 00d9 00       		.byte	0
 3017 00da 11       		.uleb128 0x11
 3018 00db 898201   		.uleb128 0x4109
 3019 00de 00       		.byte	0
 3020 00df 11       		.uleb128 0x11
 3021 00e0 01       		.uleb128 0x1
 3022 00e1 31       		.uleb128 0x31
 3023 00e2 13       		.uleb128 0x13
 3024 00e3 00       		.byte	0
 3025 00e4 00       		.byte	0
 3026 00e5 12       		.uleb128 0x12
 3027 00e6 898201   		.uleb128 0x4109
 3028 00e9 00       		.byte	0
 3029 00ea 11       		.uleb128 0x11
 3030 00eb 01       		.uleb128 0x1
 3031 00ec 9542     		.uleb128 0x2115
 3032 00ee 19       		.uleb128 0x19
 3033 00ef 31       		.uleb128 0x31
 3034 00f0 13       		.uleb128 0x13
 3035 00f1 00       		.byte	0
 3036 00f2 00       		.byte	0
 3037 00f3 13       		.uleb128 0x13
 3038 00f4 1D       		.uleb128 0x1d
 3039 00f5 00       		.byte	0
 3040 00f6 31       		.uleb128 0x31
 3041 00f7 13       		.uleb128 0x13
 3042 00f8 52       		.uleb128 0x52
 3043 00f9 01       		.uleb128 0x1
 3044 00fa 55       		.uleb128 0x55
 3045 00fb 17       		.uleb128 0x17
ARM GAS  C:\Users\anjmarqu\AppData\Local\Temp\cc7ytAPG.s 			page 86


 3046 00fc 58       		.uleb128 0x58
 3047 00fd 0B       		.uleb128 0xb
 3048 00fe 59       		.uleb128 0x59
 3049 00ff 0B       		.uleb128 0xb
 3050 0100 00       		.byte	0
 3051 0101 00       		.byte	0
 3052 0102 14       		.uleb128 0x14
 3053 0103 1D       		.uleb128 0x1d
 3054 0104 00       		.byte	0
 3055 0105 31       		.uleb128 0x31
 3056 0106 13       		.uleb128 0x13
 3057 0107 52       		.uleb128 0x52
 3058 0108 01       		.uleb128 0x1
 3059 0109 55       		.uleb128 0x55
 3060 010a 17       		.uleb128 0x17
 3061 010b 58       		.uleb128 0x58
 3062 010c 0B       		.uleb128 0xb
 3063 010d 59       		.uleb128 0x59
 3064 010e 05       		.uleb128 0x5
 3065 010f 00       		.byte	0
 3066 0110 00       		.byte	0
 3067 0111 15       		.uleb128 0x15
 3068 0112 2E       		.uleb128 0x2e
 3069 0113 00       		.byte	0
 3070 0114 3F       		.uleb128 0x3f
 3071 0115 19       		.uleb128 0x19
 3072 0116 03       		.uleb128 0x3
 3073 0117 0E       		.uleb128 0xe
 3074 0118 3A       		.uleb128 0x3a
 3075 0119 0B       		.uleb128 0xb
 3076 011a 3B       		.uleb128 0x3b
 3077 011b 05       		.uleb128 0x5
 3078 011c 27       		.uleb128 0x27
 3079 011d 19       		.uleb128 0x19
 3080 011e 49       		.uleb128 0x49
 3081 011f 13       		.uleb128 0x13
 3082 0120 11       		.uleb128 0x11
 3083 0121 01       		.uleb128 0x1
 3084 0122 12       		.uleb128 0x12
 3085 0123 06       		.uleb128 0x6
 3086 0124 40       		.uleb128 0x40
 3087 0125 18       		.uleb128 0x18
 3088 0126 9742     		.uleb128 0x2117
 3089 0128 19       		.uleb128 0x19
 3090 0129 00       		.byte	0
 3091 012a 00       		.byte	0
 3092 012b 16       		.uleb128 0x16
 3093 012c 2E       		.uleb128 0x2e
 3094 012d 01       		.byte	0x1
 3095 012e 3F       		.uleb128 0x3f
 3096 012f 19       		.uleb128 0x19
 3097 0130 03       		.uleb128 0x3
 3098 0131 0E       		.uleb128 0xe
 3099 0132 3A       		.uleb128 0x3a
 3100 0133 0B       		.uleb128 0xb
 3101 0134 3B       		.uleb128 0x3b
 3102 0135 05       		.uleb128 0x5
ARM GAS  C:\Users\anjmarqu\AppData\Local\Temp\cc7ytAPG.s 			page 87


 3103 0136 27       		.uleb128 0x27
 3104 0137 19       		.uleb128 0x19
 3105 0138 11       		.uleb128 0x11
 3106 0139 01       		.uleb128 0x1
 3107 013a 12       		.uleb128 0x12
 3108 013b 06       		.uleb128 0x6
 3109 013c 40       		.uleb128 0x40
 3110 013d 18       		.uleb128 0x18
 3111 013e 9742     		.uleb128 0x2117
 3112 0140 19       		.uleb128 0x19
 3113 0141 01       		.uleb128 0x1
 3114 0142 13       		.uleb128 0x13
 3115 0143 00       		.byte	0
 3116 0144 00       		.byte	0
 3117 0145 17       		.uleb128 0x17
 3118 0146 05       		.uleb128 0x5
 3119 0147 00       		.byte	0
 3120 0148 03       		.uleb128 0x3
 3121 0149 0E       		.uleb128 0xe
 3122 014a 3A       		.uleb128 0x3a
 3123 014b 0B       		.uleb128 0xb
 3124 014c 3B       		.uleb128 0x3b
 3125 014d 05       		.uleb128 0x5
 3126 014e 49       		.uleb128 0x49
 3127 014f 13       		.uleb128 0x13
 3128 0150 02       		.uleb128 0x2
 3129 0151 18       		.uleb128 0x18
 3130 0152 00       		.byte	0
 3131 0153 00       		.byte	0
 3132 0154 18       		.uleb128 0x18
 3133 0155 2E       		.uleb128 0x2e
 3134 0156 00       		.byte	0
 3135 0157 31       		.uleb128 0x31
 3136 0158 13       		.uleb128 0x13
 3137 0159 11       		.uleb128 0x11
 3138 015a 01       		.uleb128 0x1
 3139 015b 12       		.uleb128 0x12
 3140 015c 06       		.uleb128 0x6
 3141 015d 40       		.uleb128 0x40
 3142 015e 18       		.uleb128 0x18
 3143 015f 9742     		.uleb128 0x2117
 3144 0161 19       		.uleb128 0x19
 3145 0162 00       		.byte	0
 3146 0163 00       		.byte	0
 3147 0164 19       		.uleb128 0x19
 3148 0165 2E       		.uleb128 0x2e
 3149 0166 01       		.byte	0x1
 3150 0167 3F       		.uleb128 0x3f
 3151 0168 19       		.uleb128 0x19
 3152 0169 03       		.uleb128 0x3
 3153 016a 0E       		.uleb128 0xe
 3154 016b 3A       		.uleb128 0x3a
 3155 016c 0B       		.uleb128 0xb
 3156 016d 3B       		.uleb128 0x3b
 3157 016e 05       		.uleb128 0x5
 3158 016f 27       		.uleb128 0x27
 3159 0170 19       		.uleb128 0x19
ARM GAS  C:\Users\anjmarqu\AppData\Local\Temp\cc7ytAPG.s 			page 88


 3160 0171 49       		.uleb128 0x49
 3161 0172 13       		.uleb128 0x13
 3162 0173 11       		.uleb128 0x11
 3163 0174 01       		.uleb128 0x1
 3164 0175 12       		.uleb128 0x12
 3165 0176 06       		.uleb128 0x6
 3166 0177 40       		.uleb128 0x40
 3167 0178 18       		.uleb128 0x18
 3168 0179 9742     		.uleb128 0x2117
 3169 017b 19       		.uleb128 0x19
 3170 017c 01       		.uleb128 0x1
 3171 017d 13       		.uleb128 0x13
 3172 017e 00       		.byte	0
 3173 017f 00       		.byte	0
 3174 0180 1A       		.uleb128 0x1a
 3175 0181 34       		.uleb128 0x34
 3176 0182 00       		.byte	0
 3177 0183 03       		.uleb128 0x3
 3178 0184 0E       		.uleb128 0xe
 3179 0185 3A       		.uleb128 0x3a
 3180 0186 0B       		.uleb128 0xb
 3181 0187 3B       		.uleb128 0x3b
 3182 0188 05       		.uleb128 0x5
 3183 0189 49       		.uleb128 0x49
 3184 018a 13       		.uleb128 0x13
 3185 018b 02       		.uleb128 0x2
 3186 018c 17       		.uleb128 0x17
 3187 018d 00       		.byte	0
 3188 018e 00       		.byte	0
 3189 018f 1B       		.uleb128 0x1b
 3190 0190 1D       		.uleb128 0x1d
 3191 0191 00       		.byte	0
 3192 0192 31       		.uleb128 0x31
 3193 0193 13       		.uleb128 0x13
 3194 0194 11       		.uleb128 0x11
 3195 0195 01       		.uleb128 0x1
 3196 0196 12       		.uleb128 0x12
 3197 0197 06       		.uleb128 0x6
 3198 0198 58       		.uleb128 0x58
 3199 0199 0B       		.uleb128 0xb
 3200 019a 59       		.uleb128 0x59
 3201 019b 05       		.uleb128 0x5
 3202 019c 00       		.byte	0
 3203 019d 00       		.byte	0
 3204 019e 1C       		.uleb128 0x1c
 3205 019f 2E       		.uleb128 0x2e
 3206 01a0 01       		.byte	0x1
 3207 01a1 31       		.uleb128 0x31
 3208 01a2 13       		.uleb128 0x13
 3209 01a3 11       		.uleb128 0x11
 3210 01a4 01       		.uleb128 0x1
 3211 01a5 12       		.uleb128 0x12
 3212 01a6 06       		.uleb128 0x6
 3213 01a7 40       		.uleb128 0x40
 3214 01a8 18       		.uleb128 0x18
 3215 01a9 9742     		.uleb128 0x2117
 3216 01ab 19       		.uleb128 0x19
ARM GAS  C:\Users\anjmarqu\AppData\Local\Temp\cc7ytAPG.s 			page 89


 3217 01ac 01       		.uleb128 0x1
 3218 01ad 13       		.uleb128 0x13
 3219 01ae 00       		.byte	0
 3220 01af 00       		.byte	0
 3221 01b0 1D       		.uleb128 0x1d
 3222 01b1 34       		.uleb128 0x34
 3223 01b2 00       		.byte	0
 3224 01b3 31       		.uleb128 0x31
 3225 01b4 13       		.uleb128 0x13
 3226 01b5 02       		.uleb128 0x2
 3227 01b6 18       		.uleb128 0x18
 3228 01b7 00       		.byte	0
 3229 01b8 00       		.byte	0
 3230 01b9 1E       		.uleb128 0x1e
 3231 01ba 34       		.uleb128 0x34
 3232 01bb 00       		.byte	0
 3233 01bc 03       		.uleb128 0x3
 3234 01bd 0E       		.uleb128 0xe
 3235 01be 3A       		.uleb128 0x3a
 3236 01bf 0B       		.uleb128 0xb
 3237 01c0 3B       		.uleb128 0x3b
 3238 01c1 05       		.uleb128 0x5
 3239 01c2 49       		.uleb128 0x49
 3240 01c3 13       		.uleb128 0x13
 3241 01c4 02       		.uleb128 0x2
 3242 01c5 18       		.uleb128 0x18
 3243 01c6 00       		.byte	0
 3244 01c7 00       		.byte	0
 3245 01c8 1F       		.uleb128 0x1f
 3246 01c9 1D       		.uleb128 0x1d
 3247 01ca 01       		.byte	0x1
 3248 01cb 31       		.uleb128 0x31
 3249 01cc 13       		.uleb128 0x13
 3250 01cd 11       		.uleb128 0x11
 3251 01ce 01       		.uleb128 0x1
 3252 01cf 12       		.uleb128 0x12
 3253 01d0 06       		.uleb128 0x6
 3254 01d1 58       		.uleb128 0x58
 3255 01d2 0B       		.uleb128 0xb
 3256 01d3 59       		.uleb128 0x59
 3257 01d4 05       		.uleb128 0x5
 3258 01d5 01       		.uleb128 0x1
 3259 01d6 13       		.uleb128 0x13
 3260 01d7 00       		.byte	0
 3261 01d8 00       		.byte	0
 3262 01d9 20       		.uleb128 0x20
 3263 01da 0B       		.uleb128 0xb
 3264 01db 01       		.byte	0x1
 3265 01dc 11       		.uleb128 0x11
 3266 01dd 01       		.uleb128 0x1
 3267 01de 12       		.uleb128 0x12
 3268 01df 06       		.uleb128 0x6
 3269 01e0 00       		.byte	0
 3270 01e1 00       		.byte	0
 3271 01e2 21       		.uleb128 0x21
 3272 01e3 34       		.uleb128 0x34
 3273 01e4 00       		.byte	0
ARM GAS  C:\Users\anjmarqu\AppData\Local\Temp\cc7ytAPG.s 			page 90


 3274 01e5 31       		.uleb128 0x31
 3275 01e6 13       		.uleb128 0x13
 3276 01e7 02       		.uleb128 0x2
 3277 01e8 17       		.uleb128 0x17
 3278 01e9 00       		.byte	0
 3279 01ea 00       		.byte	0
 3280 01eb 22       		.uleb128 0x22
 3281 01ec 05       		.uleb128 0x5
 3282 01ed 00       		.byte	0
 3283 01ee 03       		.uleb128 0x3
 3284 01ef 0E       		.uleb128 0xe
 3285 01f0 3A       		.uleb128 0x3a
 3286 01f1 0B       		.uleb128 0xb
 3287 01f2 3B       		.uleb128 0x3b
 3288 01f3 05       		.uleb128 0x5
 3289 01f4 49       		.uleb128 0x49
 3290 01f5 13       		.uleb128 0x13
 3291 01f6 02       		.uleb128 0x2
 3292 01f7 17       		.uleb128 0x17
 3293 01f8 00       		.byte	0
 3294 01f9 00       		.byte	0
 3295 01fa 23       		.uleb128 0x23
 3296 01fb 26       		.uleb128 0x26
 3297 01fc 00       		.byte	0
 3298 01fd 49       		.uleb128 0x49
 3299 01fe 13       		.uleb128 0x13
 3300 01ff 00       		.byte	0
 3301 0200 00       		.byte	0
 3302 0201 24       		.uleb128 0x24
 3303 0202 898201   		.uleb128 0x4109
 3304 0205 01       		.byte	0x1
 3305 0206 11       		.uleb128 0x11
 3306 0207 01       		.uleb128 0x1
 3307 0208 9542     		.uleb128 0x2115
 3308 020a 19       		.uleb128 0x19
 3309 020b 31       		.uleb128 0x31
 3310 020c 13       		.uleb128 0x13
 3311 020d 00       		.byte	0
 3312 020e 00       		.byte	0
 3313 020f 25       		.uleb128 0x25
 3314 0210 0B       		.uleb128 0xb
 3315 0211 01       		.byte	0x1
 3316 0212 55       		.uleb128 0x55
 3317 0213 17       		.uleb128 0x17
 3318 0214 00       		.byte	0
 3319 0215 00       		.byte	0
 3320 0216 26       		.uleb128 0x26
 3321 0217 34       		.uleb128 0x34
 3322 0218 00       		.byte	0
 3323 0219 03       		.uleb128 0x3
 3324 021a 0E       		.uleb128 0xe
 3325 021b 3A       		.uleb128 0x3a
 3326 021c 0B       		.uleb128 0xb
 3327 021d 3B       		.uleb128 0x3b
 3328 021e 0B       		.uleb128 0xb
 3329 021f 49       		.uleb128 0x49
 3330 0220 13       		.uleb128 0x13
ARM GAS  C:\Users\anjmarqu\AppData\Local\Temp\cc7ytAPG.s 			page 91


 3331 0221 3F       		.uleb128 0x3f
 3332 0222 19       		.uleb128 0x19
 3333 0223 02       		.uleb128 0x2
 3334 0224 18       		.uleb128 0x18
 3335 0225 00       		.byte	0
 3336 0226 00       		.byte	0
 3337 0227 27       		.uleb128 0x27
 3338 0228 01       		.uleb128 0x1
 3339 0229 01       		.byte	0x1
 3340 022a 49       		.uleb128 0x49
 3341 022b 13       		.uleb128 0x13
 3342 022c 01       		.uleb128 0x1
 3343 022d 13       		.uleb128 0x13
 3344 022e 00       		.byte	0
 3345 022f 00       		.byte	0
 3346 0230 28       		.uleb128 0x28
 3347 0231 21       		.uleb128 0x21
 3348 0232 00       		.byte	0
 3349 0233 49       		.uleb128 0x49
 3350 0234 13       		.uleb128 0x13
 3351 0235 2F       		.uleb128 0x2f
 3352 0236 0B       		.uleb128 0xb
 3353 0237 00       		.byte	0
 3354 0238 00       		.byte	0
 3355 0239 29       		.uleb128 0x29
 3356 023a 2E       		.uleb128 0x2e
 3357 023b 01       		.byte	0x1
 3358 023c 3F       		.uleb128 0x3f
 3359 023d 19       		.uleb128 0x19
 3360 023e 03       		.uleb128 0x3
 3361 023f 0E       		.uleb128 0xe
 3362 0240 3A       		.uleb128 0x3a
 3363 0241 0B       		.uleb128 0xb
 3364 0242 3B       		.uleb128 0x3b
 3365 0243 0B       		.uleb128 0xb
 3366 0244 27       		.uleb128 0x27
 3367 0245 19       		.uleb128 0x19
 3368 0246 49       		.uleb128 0x49
 3369 0247 13       		.uleb128 0x13
 3370 0248 3C       		.uleb128 0x3c
 3371 0249 19       		.uleb128 0x19
 3372 024a 01       		.uleb128 0x1
 3373 024b 13       		.uleb128 0x13
 3374 024c 00       		.byte	0
 3375 024d 00       		.byte	0
 3376 024e 2A       		.uleb128 0x2a
 3377 024f 05       		.uleb128 0x5
 3378 0250 00       		.byte	0
 3379 0251 49       		.uleb128 0x49
 3380 0252 13       		.uleb128 0x13
 3381 0253 00       		.byte	0
 3382 0254 00       		.byte	0
 3383 0255 2B       		.uleb128 0x2b
 3384 0256 2E       		.uleb128 0x2e
 3385 0257 01       		.byte	0x1
 3386 0258 3F       		.uleb128 0x3f
 3387 0259 19       		.uleb128 0x19
ARM GAS  C:\Users\anjmarqu\AppData\Local\Temp\cc7ytAPG.s 			page 92


 3388 025a 03       		.uleb128 0x3
 3389 025b 0E       		.uleb128 0xe
 3390 025c 3A       		.uleb128 0x3a
 3391 025d 0B       		.uleb128 0xb
 3392 025e 3B       		.uleb128 0x3b
 3393 025f 0B       		.uleb128 0xb
 3394 0260 27       		.uleb128 0x27
 3395 0261 19       		.uleb128 0x19
 3396 0262 3C       		.uleb128 0x3c
 3397 0263 19       		.uleb128 0x19
 3398 0264 01       		.uleb128 0x1
 3399 0265 13       		.uleb128 0x13
 3400 0266 00       		.byte	0
 3401 0267 00       		.byte	0
 3402 0268 2C       		.uleb128 0x2c
 3403 0269 2E       		.uleb128 0x2e
 3404 026a 00       		.byte	0
 3405 026b 3F       		.uleb128 0x3f
 3406 026c 19       		.uleb128 0x19
 3407 026d 03       		.uleb128 0x3
 3408 026e 0E       		.uleb128 0xe
 3409 026f 3A       		.uleb128 0x3a
 3410 0270 0B       		.uleb128 0xb
 3411 0271 3B       		.uleb128 0x3b
 3412 0272 0B       		.uleb128 0xb
 3413 0273 27       		.uleb128 0x27
 3414 0274 19       		.uleb128 0x19
 3415 0275 49       		.uleb128 0x49
 3416 0276 13       		.uleb128 0x13
 3417 0277 3C       		.uleb128 0x3c
 3418 0278 19       		.uleb128 0x19
 3419 0279 00       		.byte	0
 3420 027a 00       		.byte	0
 3421 027b 2D       		.uleb128 0x2d
 3422 027c 2E       		.uleb128 0x2e
 3423 027d 01       		.byte	0x1
 3424 027e 3F       		.uleb128 0x3f
 3425 027f 19       		.uleb128 0x19
 3426 0280 03       		.uleb128 0x3
 3427 0281 0E       		.uleb128 0xe
 3428 0282 3A       		.uleb128 0x3a
 3429 0283 0B       		.uleb128 0xb
 3430 0284 3B       		.uleb128 0x3b
 3431 0285 0B       		.uleb128 0xb
 3432 0286 27       		.uleb128 0x27
 3433 0287 19       		.uleb128 0x19
 3434 0288 3C       		.uleb128 0x3c
 3435 0289 19       		.uleb128 0x19
 3436 028a 00       		.byte	0
 3437 028b 00       		.byte	0
 3438 028c 00       		.byte	0
 3439              		.section	.debug_loc,"",%progbits
 3440              	.Ldebug_loc0:
 3441              	.LLST0:
 3442 0000 06000000 		.4byte	.LVL4
 3443 0004 37000000 		.4byte	.LVL5-1
 3444 0008 0100     		.2byte	0x1
ARM GAS  C:\Users\anjmarqu\AppData\Local\Temp\cc7ytAPG.s 			page 93


 3445 000a 50       		.byte	0x50
 3446 000b 00000000 		.4byte	0
 3447 000f 00000000 		.4byte	0
 3448              	.LLST1:
 3449 0013 06000000 		.4byte	.LVL8
 3450 0017 37000000 		.4byte	.LVL9-1
 3451 001b 0100     		.2byte	0x1
 3452 001d 50       		.byte	0x50
 3453 001e 00000000 		.4byte	0
 3454 0022 00000000 		.4byte	0
 3455              	.LLST2:
 3456 0026 30000000 		.4byte	.LVL15
 3457 002a 42000000 		.4byte	.LVL18
 3458 002e 0100     		.2byte	0x1
 3459 0030 50       		.byte	0x50
 3460 0031 48000000 		.4byte	.LVL20
 3461 0035 60000000 		.4byte	.LFE9
 3462 0039 0100     		.2byte	0x1
 3463 003b 50       		.byte	0x50
 3464 003c 00000000 		.4byte	0
 3465 0040 00000000 		.4byte	0
 3466              	.LLST3:
 3467 0044 12000000 		.4byte	.LVL12
 3468 0048 30000000 		.4byte	.LVL15
 3469 004c 0100     		.2byte	0x1
 3470 004e 51       		.byte	0x51
 3471 004f 32000000 		.4byte	.LVL16
 3472 0053 36000000 		.4byte	.LVL17
 3473 0057 1400     		.2byte	0x14
 3474 0059 30       		.byte	0x30
 3475 005a 71       		.byte	0x71
 3476 005b 01       		.sleb128 1
 3477 005c 08       		.byte	0x8
 3478 005d FF       		.byte	0xff
 3479 005e 1A       		.byte	0x1a
 3480 005f 71       		.byte	0x71
 3481 0060 01       		.sleb128 1
 3482 0061 08       		.byte	0x8
 3483 0062 FF       		.byte	0xff
 3484 0063 1A       		.byte	0x1a
 3485 0064 08       		.byte	0x8
 3486 0065 FF       		.byte	0xff
 3487 0066 29       		.byte	0x29
 3488 0067 28       		.byte	0x28
 3489 0068 0100     		.2byte	0x1
 3490 006a 16       		.byte	0x16
 3491 006b 13       		.byte	0x13
 3492 006c 9F       		.byte	0x9f
 3493 006d 42000000 		.4byte	.LVL18
 3494 0071 60000000 		.4byte	.LFE9
 3495 0075 0100     		.2byte	0x1
 3496 0077 51       		.byte	0x51
 3497 0078 00000000 		.4byte	0
 3498 007c 00000000 		.4byte	0
 3499              	.LLST4:
 3500 0080 14000000 		.4byte	.LVL13
 3501 0084 1C000000 		.4byte	.LVL14
ARM GAS  C:\Users\anjmarqu\AppData\Local\Temp\cc7ytAPG.s 			page 94


 3502 0088 0100     		.2byte	0x1
 3503 008a 53       		.byte	0x53
 3504 008b 42000000 		.4byte	.LVL18
 3505 008f 44000000 		.4byte	.LVL19
 3506 0093 0100     		.2byte	0x1
 3507 0095 53       		.byte	0x53
 3508 0096 00000000 		.4byte	0
 3509 009a 00000000 		.4byte	0
 3510              	.LLST5:
 3511 009e 00000000 		.4byte	.LVL23
 3512 00a2 30000000 		.4byte	.LVL27
 3513 00a6 0200     		.2byte	0x2
 3514 00a8 30       		.byte	0x30
 3515 00a9 9F       		.byte	0x9f
 3516 00aa 30000000 		.4byte	.LVL27
 3517 00ae 42000000 		.4byte	.LVL30
 3518 00b2 0100     		.2byte	0x1
 3519 00b4 50       		.byte	0x50
 3520 00b5 42000000 		.4byte	.LVL30
 3521 00b9 5C000000 		.4byte	.LVL33
 3522 00bd 0200     		.2byte	0x2
 3523 00bf 30       		.byte	0x30
 3524 00c0 9F       		.byte	0x9f
 3525 00c1 5C000000 		.4byte	.LVL33
 3526 00c5 60000000 		.4byte	.LVL34
 3527 00c9 0100     		.2byte	0x1
 3528 00cb 50       		.byte	0x50
 3529 00cc 00000000 		.4byte	0
 3530 00d0 00000000 		.4byte	0
 3531              	.LLST6:
 3532 00d4 12000000 		.4byte	.LVL24
 3533 00d8 30000000 		.4byte	.LVL27
 3534 00dc 0100     		.2byte	0x1
 3535 00de 51       		.byte	0x51
 3536 00df 32000000 		.4byte	.LVL28
 3537 00e3 36000000 		.4byte	.LVL29
 3538 00e7 1400     		.2byte	0x14
 3539 00e9 30       		.byte	0x30
 3540 00ea 71       		.byte	0x71
 3541 00eb 01       		.sleb128 1
 3542 00ec 08       		.byte	0x8
 3543 00ed FF       		.byte	0xff
 3544 00ee 1A       		.byte	0x1a
 3545 00ef 71       		.byte	0x71
 3546 00f0 01       		.sleb128 1
 3547 00f1 08       		.byte	0x8
 3548 00f2 FF       		.byte	0xff
 3549 00f3 1A       		.byte	0x1a
 3550 00f4 08       		.byte	0x8
 3551 00f5 FF       		.byte	0xff
 3552 00f6 29       		.byte	0x29
 3553 00f7 28       		.byte	0x28
 3554 00f8 0100     		.2byte	0x1
 3555 00fa 16       		.byte	0x16
 3556 00fb 13       		.byte	0x13
 3557 00fc 9F       		.byte	0x9f
 3558 00fd 42000000 		.4byte	.LVL30
ARM GAS  C:\Users\anjmarqu\AppData\Local\Temp\cc7ytAPG.s 			page 95


 3559 0101 7C000000 		.4byte	.LFE11
 3560 0105 0100     		.2byte	0x1
 3561 0107 51       		.byte	0x51
 3562 0108 00000000 		.4byte	0
 3563 010c 00000000 		.4byte	0
 3564              	.LLST7:
 3565 0110 14000000 		.4byte	.LVL25
 3566 0114 1C000000 		.4byte	.LVL26
 3567 0118 0100     		.2byte	0x1
 3568 011a 53       		.byte	0x53
 3569 011b 42000000 		.4byte	.LVL30
 3570 011f 44000000 		.4byte	.LVL31
 3571 0123 0100     		.2byte	0x1
 3572 0125 53       		.byte	0x53
 3573 0126 00000000 		.4byte	0
 3574 012a 00000000 		.4byte	0
 3575              	.LLST8:
 3576 012e 0E000000 		.4byte	.LVL35
 3577 0132 24000000 		.4byte	.LVL38
 3578 0136 0100     		.2byte	0x1
 3579 0138 54       		.byte	0x54
 3580 0139 00000000 		.4byte	0
 3581 013d 00000000 		.4byte	0
 3582              	.LLST9:
 3583 0141 28000000 		.4byte	.LVL39
 3584 0145 2C000000 		.4byte	.LVL40
 3585 0149 0100     		.2byte	0x1
 3586 014b 50       		.byte	0x50
 3587 014c 3A000000 		.4byte	.LVL41
 3588 0150 4C000000 		.4byte	.LFE13
 3589 0154 0100     		.2byte	0x1
 3590 0156 50       		.byte	0x50
 3591 0157 00000000 		.4byte	0
 3592 015b 00000000 		.4byte	0
 3593              	.LLST10:
 3594 015f 06000000 		.4byte	.LVL42
 3595 0163 1D000000 		.4byte	.LVL43-1
 3596 0167 0100     		.2byte	0x1
 3597 0169 50       		.byte	0x50
 3598 016a 00000000 		.4byte	0
 3599 016e 00000000 		.4byte	0
 3600              	.LLST11:
 3601 0172 06000000 		.4byte	.LVL50
 3602 0176 30000000 		.4byte	.LVL53
 3603 017a 0100     		.2byte	0x1
 3604 017c 51       		.byte	0x51
 3605 017d 36000000 		.4byte	.LVL54
 3606 0181 3C000000 		.4byte	.LVL56
 3607 0185 0100     		.2byte	0x1
 3608 0187 53       		.byte	0x53
 3609 0188 3C000000 		.4byte	.LVL56
 3610 018c 5C000000 		.4byte	.LFE23
 3611 0190 0100     		.2byte	0x1
 3612 0192 51       		.byte	0x51
 3613 0193 00000000 		.4byte	0
 3614 0197 00000000 		.4byte	0
 3615              	.LLST12:
ARM GAS  C:\Users\anjmarqu\AppData\Local\Temp\cc7ytAPG.s 			page 96


 3616 019b 0A000000 		.4byte	.LVL51
 3617 019f 26000000 		.4byte	.LVL52
 3618 01a3 0100     		.2byte	0x1
 3619 01a5 53       		.byte	0x53
 3620 01a6 26000000 		.4byte	.LVL52
 3621 01aa 3A000000 		.4byte	.LVL55
 3622 01ae 0300     		.2byte	0x3
 3623 01b0 74       		.byte	0x74
 3624 01b1 01       		.sleb128 1
 3625 01b2 9F       		.byte	0x9f
 3626 01b3 3C000000 		.4byte	.LVL56
 3627 01b7 3E000000 		.4byte	.LVL57
 3628 01bb 0100     		.2byte	0x1
 3629 01bd 53       		.byte	0x53
 3630 01be 3E000000 		.4byte	.LVL57
 3631 01c2 4A000000 		.4byte	.LVL58
 3632 01c6 0300     		.2byte	0x3
 3633 01c8 74       		.byte	0x74
 3634 01c9 01       		.sleb128 1
 3635 01ca 9F       		.byte	0x9f
 3636 01cb 00000000 		.4byte	0
 3637 01cf 00000000 		.4byte	0
 3638              	.LLST13:
 3639 01d3 00000000 		.4byte	.LVL59
 3640 01d7 0C000000 		.4byte	.LVL60
 3641 01db 0100     		.2byte	0x1
 3642 01dd 50       		.byte	0x50
 3643 01de 0C000000 		.4byte	.LVL60
 3644 01e2 1E000000 		.4byte	.LVL64
 3645 01e6 0100     		.2byte	0x1
 3646 01e8 55       		.byte	0x55
 3647 01e9 1E000000 		.4byte	.LVL64
 3648 01ed 24000000 		.4byte	.LFE24
 3649 01f1 0400     		.2byte	0x4
 3650 01f3 F3       		.byte	0xf3
 3651 01f4 01       		.uleb128 0x1
 3652 01f5 50       		.byte	0x50
 3653 01f6 9F       		.byte	0x9f
 3654 01f7 00000000 		.4byte	0
 3655 01fb 00000000 		.4byte	0
 3656              	.LLST14:
 3657 01ff 00000000 		.4byte	.LVL59
 3658 0203 10000000 		.4byte	.LVL61
 3659 0207 0200     		.2byte	0x2
 3660 0209 30       		.byte	0x30
 3661 020a 9F       		.byte	0x9f
 3662 020b 10000000 		.4byte	.LVL61
 3663 020f 12000000 		.4byte	.LVL62
 3664 0213 0100     		.2byte	0x1
 3665 0215 54       		.byte	0x54
 3666 0216 18000000 		.4byte	.LVL63
 3667 021a 1E000000 		.4byte	.LVL64
 3668 021e 0100     		.2byte	0x1
 3669 0220 54       		.byte	0x54
 3670 0221 00000000 		.4byte	0
 3671 0225 00000000 		.4byte	0
 3672              	.LLST15:
ARM GAS  C:\Users\anjmarqu\AppData\Local\Temp\cc7ytAPG.s 			page 97


 3673 0229 00000000 		.4byte	.LVL65
 3674 022d 0E000000 		.4byte	.LVL66
 3675 0231 0100     		.2byte	0x1
 3676 0233 50       		.byte	0x50
 3677 0234 0E000000 		.4byte	.LVL66
 3678 0238 20000000 		.4byte	.LVL69
 3679 023c 0100     		.2byte	0x1
 3680 023e 55       		.byte	0x55
 3681 023f 20000000 		.4byte	.LVL69
 3682 0243 28000000 		.4byte	.LFE25
 3683 0247 0100     		.2byte	0x1
 3684 0249 50       		.byte	0x50
 3685 024a 00000000 		.4byte	0
 3686 024e 00000000 		.4byte	0
 3687              	.LLST16:
 3688 0252 00000000 		.4byte	.LVL65
 3689 0256 0E000000 		.4byte	.LVL66
 3690 025a 0100     		.2byte	0x1
 3691 025c 51       		.byte	0x51
 3692 025d 0E000000 		.4byte	.LVL66
 3693 0261 20000000 		.4byte	.LVL69
 3694 0265 0400     		.2byte	0x4
 3695 0267 F3       		.byte	0xf3
 3696 0268 01       		.uleb128 0x1
 3697 0269 51       		.byte	0x51
 3698 026a 9F       		.byte	0x9f
 3699 026b 20000000 		.4byte	.LVL69
 3700 026f 28000000 		.4byte	.LFE25
 3701 0273 0100     		.2byte	0x1
 3702 0275 51       		.byte	0x51
 3703 0276 00000000 		.4byte	0
 3704 027a 00000000 		.4byte	0
 3705              	.LLST17:
 3706 027e 00000000 		.4byte	.LVL65
 3707 0282 0E000000 		.4byte	.LVL66
 3708 0286 0200     		.2byte	0x2
 3709 0288 30       		.byte	0x30
 3710 0289 9F       		.byte	0x9f
 3711 028a 0E000000 		.4byte	.LVL66
 3712 028e 12000000 		.4byte	.LVL67
 3713 0292 0600     		.2byte	0x6
 3714 0294 74       		.byte	0x74
 3715 0295 00       		.sleb128 0
 3716 0296 75       		.byte	0x75
 3717 0297 00       		.sleb128 0
 3718 0298 1C       		.byte	0x1c
 3719 0299 9F       		.byte	0x9f
 3720 029a 16000000 		.4byte	.LVL68
 3721 029e 20000000 		.4byte	.LVL69
 3722 02a2 0600     		.2byte	0x6
 3723 02a4 74       		.byte	0x74
 3724 02a5 00       		.sleb128 0
 3725 02a6 75       		.byte	0x75
 3726 02a7 00       		.sleb128 0
 3727 02a8 1C       		.byte	0x1c
 3728 02a9 9F       		.byte	0x9f
 3729 02aa 20000000 		.4byte	.LVL69
ARM GAS  C:\Users\anjmarqu\AppData\Local\Temp\cc7ytAPG.s 			page 98


 3730 02ae 28000000 		.4byte	.LFE25
 3731 02b2 0200     		.2byte	0x2
 3732 02b4 30       		.byte	0x30
 3733 02b5 9F       		.byte	0x9f
 3734 02b6 00000000 		.4byte	0
 3735 02ba 00000000 		.4byte	0
 3736              	.LLST18:
 3737 02be 00000000 		.4byte	.LVL70
 3738 02c2 0D000000 		.4byte	.LVL71-1
 3739 02c6 0100     		.2byte	0x1
 3740 02c8 50       		.byte	0x50
 3741 02c9 0D000000 		.4byte	.LVL71-1
 3742 02cd 24000000 		.4byte	.LFE26
 3743 02d1 0400     		.2byte	0x4
 3744 02d3 F3       		.byte	0xf3
 3745 02d4 01       		.uleb128 0x1
 3746 02d5 50       		.byte	0x50
 3747 02d6 9F       		.byte	0x9f
 3748 02d7 00000000 		.4byte	0
 3749 02db 00000000 		.4byte	0
 3750              	.LLST19:
 3751 02df 24000000 		.4byte	.LVL74
 3752 02e3 28000000 		.4byte	.LVL75
 3753 02e7 0100     		.2byte	0x1
 3754 02e9 50       		.byte	0x50
 3755 02ea 2E000000 		.4byte	.LVL76
 3756 02ee 40000000 		.4byte	.LFE27
 3757 02f2 0100     		.2byte	0x1
 3758 02f4 50       		.byte	0x50
 3759 02f5 00000000 		.4byte	0
 3760 02f9 00000000 		.4byte	0
 3761              	.LLST20:
 3762 02fd 06000000 		.4byte	.LVL77
 3763 0301 1D000000 		.4byte	.LVL78-1
 3764 0305 0100     		.2byte	0x1
 3765 0307 50       		.byte	0x50
 3766 0308 00000000 		.4byte	0
 3767 030c 00000000 		.4byte	0
 3768              	.LLST21:
 3769 0310 00000000 		.4byte	.LVL79
 3770 0314 2C000000 		.4byte	.LVL82
 3771 0318 0100     		.2byte	0x1
 3772 031a 50       		.byte	0x50
 3773 031b 2C000000 		.4byte	.LVL82
 3774 031f 3A000000 		.4byte	.LVL83
 3775 0323 0400     		.2byte	0x4
 3776 0325 F3       		.byte	0xf3
 3777 0326 01       		.uleb128 0x1
 3778 0327 50       		.byte	0x50
 3779 0328 9F       		.byte	0x9f
 3780 0329 3A000000 		.4byte	.LVL83
 3781 032d 5C000000 		.4byte	.LFE29
 3782 0331 0100     		.2byte	0x1
 3783 0333 50       		.byte	0x50
 3784 0334 00000000 		.4byte	0
 3785 0338 00000000 		.4byte	0
 3786              	.LLST22:
ARM GAS  C:\Users\anjmarqu\AppData\Local\Temp\cc7ytAPG.s 			page 99


 3787 033c 1E000000 		.4byte	.LVL80
 3788 0340 26000000 		.4byte	.LVL81
 3789 0344 0100     		.2byte	0x1
 3790 0346 53       		.byte	0x53
 3791 0347 46000000 		.4byte	.LVL84
 3792 034b 48000000 		.4byte	.LVL85
 3793 034f 0100     		.2byte	0x1
 3794 0351 53       		.byte	0x53
 3795 0352 00000000 		.4byte	0
 3796 0356 00000000 		.4byte	0
 3797              		.section	.debug_aranges,"",%progbits
 3798 0000 0C010000 		.4byte	0x10c
 3799 0004 0200     		.2byte	0x2
 3800 0006 00000000 		.4byte	.Ldebug_info0
 3801 000a 04       		.byte	0x4
 3802 000b 00       		.byte	0
 3803 000c 0000     		.2byte	0
 3804 000e 0000     		.2byte	0
 3805 0010 00000000 		.4byte	.LFB1
 3806 0014 60000000 		.4byte	.LFE1-.LFB1
 3807 0018 00000000 		.4byte	.LFB2
 3808 001c 44000000 		.4byte	.LFE2-.LFB2
 3809 0020 00000000 		.4byte	.LFB0
 3810 0024 1C000000 		.4byte	.LFE0-.LFB0
 3811 0028 00000000 		.4byte	.LFB3
 3812 002c 44000000 		.4byte	.LFE3-.LFB3
 3813 0030 00000000 		.4byte	.LFB4
 3814 0034 04000000 		.4byte	.LFE4-.LFB4
 3815 0038 00000000 		.4byte	.LFB5
 3816 003c 02000000 		.4byte	.LFE5-.LFB5
 3817 0040 00000000 		.4byte	.LFB6
 3818 0044 0C000000 		.4byte	.LFE6-.LFB6
 3819 0048 00000000 		.4byte	.LFB7
 3820 004c 0C000000 		.4byte	.LFE7-.LFB7
 3821 0050 00000000 		.4byte	.LFB8
 3822 0054 0C000000 		.4byte	.LFE8-.LFB8
 3823 0058 00000000 		.4byte	.LFB9
 3824 005c 60000000 		.4byte	.LFE9-.LFB9
 3825 0060 00000000 		.4byte	.LFB10
 3826 0064 20000000 		.4byte	.LFE10-.LFB10
 3827 0068 00000000 		.4byte	.LFB11
 3828 006c 7C000000 		.4byte	.LFE11-.LFB11
 3829 0070 00000000 		.4byte	.LFB12
 3830 0074 2C000000 		.4byte	.LFE12-.LFB12
 3831 0078 00000000 		.4byte	.LFB13
 3832 007c 4C000000 		.4byte	.LFE13-.LFB13
 3833 0080 00000000 		.4byte	.LFB14
 3834 0084 44000000 		.4byte	.LFE14-.LFB14
 3835 0088 00000000 		.4byte	.LFB15
 3836 008c 02000000 		.4byte	.LFE15-.LFB15
 3837 0090 00000000 		.4byte	.LFB16
 3838 0094 0C000000 		.4byte	.LFE16-.LFB16
 3839 0098 00000000 		.4byte	.LFB17
 3840 009c 0C000000 		.4byte	.LFE17-.LFB17
 3841 00a0 00000000 		.4byte	.LFB18
 3842 00a4 0C000000 		.4byte	.LFE18-.LFB18
 3843 00a8 00000000 		.4byte	.LFB19
ARM GAS  C:\Users\anjmarqu\AppData\Local\Temp\cc7ytAPG.s 			page 100


 3844 00ac 0C000000 		.4byte	.LFE19-.LFB19
 3845 00b0 00000000 		.4byte	.LFB20
 3846 00b4 0C000000 		.4byte	.LFE20-.LFB20
 3847 00b8 00000000 		.4byte	.LFB21
 3848 00bc 5C000000 		.4byte	.LFE21-.LFB21
 3849 00c0 00000000 		.4byte	.LFB22
 3850 00c4 0C000000 		.4byte	.LFE22-.LFB22
 3851 00c8 00000000 		.4byte	.LFB23
 3852 00cc 5C000000 		.4byte	.LFE23-.LFB23
 3853 00d0 00000000 		.4byte	.LFB24
 3854 00d4 24000000 		.4byte	.LFE24-.LFB24
 3855 00d8 00000000 		.4byte	.LFB25
 3856 00dc 28000000 		.4byte	.LFE25-.LFB25
 3857 00e0 00000000 		.4byte	.LFB26
 3858 00e4 24000000 		.4byte	.LFE26-.LFB26
 3859 00e8 00000000 		.4byte	.LFB27
 3860 00ec 40000000 		.4byte	.LFE27-.LFB27
 3861 00f0 00000000 		.4byte	.LFB28
 3862 00f4 40000000 		.4byte	.LFE28-.LFB28
 3863 00f8 00000000 		.4byte	.LFB29
 3864 00fc 5C000000 		.4byte	.LFE29-.LFB29
 3865 0100 00000000 		.4byte	.LFB30
 3866 0104 02000000 		.4byte	.LFE30-.LFB30
 3867 0108 00000000 		.4byte	0
 3868 010c 00000000 		.4byte	0
 3869              		.section	.debug_ranges,"",%progbits
 3870              	.Ldebug_ranges0:
 3871 0000 0C000000 		.4byte	.LBB36
 3872 0004 0E000000 		.4byte	.LBE36
 3873 0008 16000000 		.4byte	.LBB40
 3874 000c 18000000 		.4byte	.LBE40
 3875 0010 1E000000 		.4byte	.LBB41
 3876 0014 20000000 		.4byte	.LBE41
 3877 0018 00000000 		.4byte	0
 3878 001c 00000000 		.4byte	0
 3879 0020 24000000 		.4byte	.LBB42
 3880 0024 26000000 		.4byte	.LBE42
 3881 0028 2E000000 		.4byte	.LBB45
 3882 002c 30000000 		.4byte	.LBE45
 3883 0030 00000000 		.4byte	0
 3884 0034 00000000 		.4byte	0
 3885 0038 02000000 		.4byte	.LBB46
 3886 003c 04000000 		.4byte	.LBE46
 3887 0040 06000000 		.4byte	.LBB49
 3888 0044 0A000000 		.4byte	.LBE49
 3889 0048 00000000 		.4byte	0
 3890 004c 00000000 		.4byte	0
 3891 0050 02000000 		.4byte	.LBB52
 3892 0054 04000000 		.4byte	.LBE52
 3893 0058 06000000 		.4byte	.LBB55
 3894 005c 0A000000 		.4byte	.LBE55
 3895 0060 00000000 		.4byte	0
 3896 0064 00000000 		.4byte	0
 3897 0068 00000000 		.4byte	.LBB60
 3898 006c 04000000 		.4byte	.LBE60
 3899 0070 06000000 		.4byte	.LBB63
 3900 0074 08000000 		.4byte	.LBE63
ARM GAS  C:\Users\anjmarqu\AppData\Local\Temp\cc7ytAPG.s 			page 101


 3901 0078 00000000 		.4byte	0
 3902 007c 00000000 		.4byte	0
 3903 0080 22000000 		.4byte	.LBB64
 3904 0084 26000000 		.4byte	.LBE64
 3905 0088 28000000 		.4byte	.LBB69
 3906 008c 2A000000 		.4byte	.LBE69
 3907 0090 2E000000 		.4byte	.LBB70
 3908 0094 32000000 		.4byte	.LBE70
 3909 0098 3A000000 		.4byte	.LBB71
 3910 009c 3C000000 		.4byte	.LBE71
 3911 00a0 00000000 		.4byte	0
 3912 00a4 00000000 		.4byte	0
 3913 00a8 08000000 		.4byte	.LBB72
 3914 00ac 0A000000 		.4byte	.LBE72
 3915 00b0 22000000 		.4byte	.LBB76
 3916 00b4 24000000 		.4byte	.LBE76
 3917 00b8 26000000 		.4byte	.LBB80
 3918 00bc 28000000 		.4byte	.LBE80
 3919 00c0 00000000 		.4byte	0
 3920 00c4 00000000 		.4byte	0
 3921 00c8 24000000 		.4byte	.LBB77
 3922 00cc 26000000 		.4byte	.LBE77
 3923 00d0 30000000 		.4byte	.LBB81
 3924 00d4 44000000 		.4byte	.LBE81
 3925 00d8 00000000 		.4byte	0
 3926 00dc 00000000 		.4byte	0
 3927 00e0 00000000 		.4byte	.LBB86
 3928 00e4 04000000 		.4byte	.LBE86
 3929 00e8 06000000 		.4byte	.LBB89
 3930 00ec 08000000 		.4byte	.LBE89
 3931 00f0 00000000 		.4byte	0
 3932 00f4 00000000 		.4byte	0
 3933 00f8 1E000000 		.4byte	.LBB90
 3934 00fc 22000000 		.4byte	.LBE90
 3935 0100 24000000 		.4byte	.LBB95
 3936 0104 26000000 		.4byte	.LBE95
 3937 0108 28000000 		.4byte	.LBB96
 3938 010c 2C000000 		.4byte	.LBE96
 3939 0110 2E000000 		.4byte	.LBB97
 3940 0114 30000000 		.4byte	.LBE97
 3941 0118 00000000 		.4byte	0
 3942 011c 00000000 		.4byte	0
 3943 0120 08000000 		.4byte	.LBB98
 3944 0124 0A000000 		.4byte	.LBE98
 3945 0128 20000000 		.4byte	.LBB102
 3946 012c 22000000 		.4byte	.LBE102
 3947 0130 26000000 		.4byte	.LBB106
 3948 0134 28000000 		.4byte	.LBE106
 3949 0138 00000000 		.4byte	0
 3950 013c 00000000 		.4byte	0
 3951 0140 24000000 		.4byte	.LBB103
 3952 0144 26000000 		.4byte	.LBE103
 3953 0148 2C000000 		.4byte	.LBB107
 3954 014c 40000000 		.4byte	.LBE107
 3955 0150 00000000 		.4byte	0
 3956 0154 00000000 		.4byte	0
 3957 0158 08000000 		.4byte	.LBB108
ARM GAS  C:\Users\anjmarqu\AppData\Local\Temp\cc7ytAPG.s 			page 102


 3958 015c 36000000 		.4byte	.LBE108
 3959 0160 3A000000 		.4byte	.LBB109
 3960 0164 5C000000 		.4byte	.LBE109
 3961 0168 00000000 		.4byte	0
 3962 016c 00000000 		.4byte	0
 3963 0170 00000000 		.4byte	.LFB1
 3964 0174 60000000 		.4byte	.LFE1
 3965 0178 00000000 		.4byte	.LFB2
 3966 017c 44000000 		.4byte	.LFE2
 3967 0180 00000000 		.4byte	.LFB0
 3968 0184 1C000000 		.4byte	.LFE0
 3969 0188 00000000 		.4byte	.LFB3
 3970 018c 44000000 		.4byte	.LFE3
 3971 0190 00000000 		.4byte	.LFB4
 3972 0194 04000000 		.4byte	.LFE4
 3973 0198 00000000 		.4byte	.LFB5
 3974 019c 02000000 		.4byte	.LFE5
 3975 01a0 00000000 		.4byte	.LFB6
 3976 01a4 0C000000 		.4byte	.LFE6
 3977 01a8 00000000 		.4byte	.LFB7
 3978 01ac 0C000000 		.4byte	.LFE7
 3979 01b0 00000000 		.4byte	.LFB8
 3980 01b4 0C000000 		.4byte	.LFE8
 3981 01b8 00000000 		.4byte	.LFB9
 3982 01bc 60000000 		.4byte	.LFE9
 3983 01c0 00000000 		.4byte	.LFB10
 3984 01c4 20000000 		.4byte	.LFE10
 3985 01c8 00000000 		.4byte	.LFB11
 3986 01cc 7C000000 		.4byte	.LFE11
 3987 01d0 00000000 		.4byte	.LFB12
 3988 01d4 2C000000 		.4byte	.LFE12
 3989 01d8 00000000 		.4byte	.LFB13
 3990 01dc 4C000000 		.4byte	.LFE13
 3991 01e0 00000000 		.4byte	.LFB14
 3992 01e4 44000000 		.4byte	.LFE14
 3993 01e8 00000000 		.4byte	.LFB15
 3994 01ec 02000000 		.4byte	.LFE15
 3995 01f0 00000000 		.4byte	.LFB16
 3996 01f4 0C000000 		.4byte	.LFE16
 3997 01f8 00000000 		.4byte	.LFB17
 3998 01fc 0C000000 		.4byte	.LFE17
 3999 0200 00000000 		.4byte	.LFB18
 4000 0204 0C000000 		.4byte	.LFE18
 4001 0208 00000000 		.4byte	.LFB19
 4002 020c 0C000000 		.4byte	.LFE19
 4003 0210 00000000 		.4byte	.LFB20
 4004 0214 0C000000 		.4byte	.LFE20
 4005 0218 00000000 		.4byte	.LFB21
 4006 021c 5C000000 		.4byte	.LFE21
 4007 0220 00000000 		.4byte	.LFB22
 4008 0224 0C000000 		.4byte	.LFE22
 4009 0228 00000000 		.4byte	.LFB23
 4010 022c 5C000000 		.4byte	.LFE23
 4011 0230 00000000 		.4byte	.LFB24
 4012 0234 24000000 		.4byte	.LFE24
 4013 0238 00000000 		.4byte	.LFB25
 4014 023c 28000000 		.4byte	.LFE25
ARM GAS  C:\Users\anjmarqu\AppData\Local\Temp\cc7ytAPG.s 			page 103


 4015 0240 00000000 		.4byte	.LFB26
 4016 0244 24000000 		.4byte	.LFE26
 4017 0248 00000000 		.4byte	.LFB27
 4018 024c 40000000 		.4byte	.LFE27
 4019 0250 00000000 		.4byte	.LFB28
 4020 0254 40000000 		.4byte	.LFE28
 4021 0258 00000000 		.4byte	.LFB29
 4022 025c 5C000000 		.4byte	.LFE29
 4023 0260 00000000 		.4byte	.LFB30
 4024 0264 02000000 		.4byte	.LFE30
 4025 0268 00000000 		.4byte	0
 4026 026c 00000000 		.4byte	0
 4027              		.section	.debug_line,"",%progbits
 4028              	.Ldebug_line0:
 4029 0000 91040000 		.section	.debug_str,"MS",%progbits,1
 4029      02005200 
 4029      00000201 
 4029      FB0E0D00 
 4029      01010101 
 4030              	.LASF10:
 4031 0000 75696E74 		.ascii	"uint16\000"
 4031      313600
 4032              	.LASF35:
 4033 0007 6C6F635F 		.ascii	"loc_rxBufferWrite\000"
 4033      72784275 
 4033      66666572 
 4033      57726974 
 4033      6500
 4034              	.LASF51:
 4035 0019 4D494449 		.ascii	"MIDI2_UART_ReadControlRegister\000"
 4035      325F5541 
 4035      52545F52 
 4035      65616443 
 4035      6F6E7472 
 4036              	.LASF50:
 4037 0038 74784461 		.ascii	"txDataByte\000"
 4037      74614279 
 4037      746500
 4038              	.LASF20:
 4039 0043 4D494449 		.ascii	"MIDI2_UART_DisableRxInt\000"
 4039      325F5541 
 4039      52545F44 
 4039      69736162 
 4039      6C655278 
 4040              	.LASF68:
 4041 005b 4D494449 		.ascii	"MIDI2_UART_SetTxAddressMode\000"
 4041      325F5541 
 4041      52545F53 
 4041      65745478 
 4041      41646472 
 4042              	.LASF57:
 4043 0077 73747269 		.ascii	"string\000"
 4043      6E6700
 4044              	.LASF29:
 4045 007e 4D494449 		.ascii	"MIDI2_UART_WriteControlRegister\000"
 4045      325F5541 
 4045      52545F57 
ARM GAS  C:\Users\anjmarqu\AppData\Local\Temp\cc7ytAPG.s 			page 104


 4045      72697465 
 4045      436F6E74 
 4046              	.LASF37:
 4047 009e 4D494449 		.ascii	"MIDI2_UART_GetChar\000"
 4047      325F5541 
 4047      52545F47 
 4047      65744368 
 4047      617200
 4048              	.LASF36:
 4049 00b1 4D494449 		.ascii	"MIDI2_UART_ReadRxData\000"
 4049      325F5541 
 4049      52545F52 
 4049      65616452 
 4049      78446174 
 4050              	.LASF7:
 4051 00c7 6C6F6E67 		.ascii	"long long unsigned int\000"
 4051      206C6F6E 
 4051      6720756E 
 4051      7369676E 
 4051      65642069 
 4052              	.LASF56:
 4053 00de 4D494449 		.ascii	"MIDI2_UART_PutString\000"
 4053      325F5541 
 4053      52545F50 
 4053      75745374 
 4053      72696E67 
 4054              	.LASF69:
 4055 00f3 4D494449 		.ascii	"MIDI2_UART_initVar\000"
 4055      325F5541 
 4055      52545F69 
 4055      6E697456 
 4055      617200
 4056              	.LASF6:
 4057 0106 6C6F6E67 		.ascii	"long long int\000"
 4057      206C6F6E 
 4057      6720696E 
 4057      7400
 4058              	.LASF0:
 4059 0114 7369676E 		.ascii	"signed char\000"
 4059      65642063 
 4059      68617200 
 4060              	.LASF72:
 4061 0120 4D494449 		.ascii	"MIDI2_UART_txBufferWrite\000"
 4061      325F5541 
 4061      52545F74 
 4061      78427566 
 4061      66657257 
 4062              	.LASF4:
 4063 0139 6C6F6E67 		.ascii	"long int\000"
 4063      20696E74 
 4063      00
 4064              	.LASF9:
 4065 0142 75696E74 		.ascii	"uint8\000"
 4065      3800
 4066              	.LASF13:
 4067 0148 646F7562 		.ascii	"double\000"
 4067      6C6500
ARM GAS  C:\Users\anjmarqu\AppData\Local\Temp\cc7ytAPG.s 			page 105


 4068              	.LASF25:
 4069 014f 4D494449 		.ascii	"MIDI2_UART_Enable\000"
 4069      325F5541 
 4069      52545F45 
 4069      6E61626C 
 4069      6500
 4070              	.LASF44:
 4071 0161 61646472 		.ascii	"addressMode\000"
 4071      6573734D 
 4071      6F646500 
 4072              	.LASF11:
 4073 016d 75696E74 		.ascii	"uint32\000"
 4073      333200
 4074              	.LASF31:
 4075 0174 636F6E74 		.ascii	"control\000"
 4075      726F6C00 
 4076              	.LASF52:
 4077 017c 4D494449 		.ascii	"MIDI2_UART_ReadTxStatus\000"
 4077      325F5541 
 4077      52545F52 
 4077      65616454 
 4077      78537461 
 4078              	.LASF22:
 4079 0194 4D494449 		.ascii	"MIDI2_UART_DisableTxInt\000"
 4079      325F5541 
 4079      52545F44 
 4079      69736162 
 4079      6C655478 
 4080              	.LASF48:
 4081 01ac 4D494449 		.ascii	"MIDI2_UART_SetTxInterruptMode\000"
 4081      325F5541 
 4081      52545F53 
 4081      65745478 
 4081      496E7465 
 4082              	.LASF30:
 4083 01ca 4D494449 		.ascii	"MIDI2_UART_SetRxInterruptMode\000"
 4083      325F5541 
 4083      52545F53 
 4083      65745278 
 4083      496E7465 
 4084              	.LASF65:
 4085 01e8 7265744D 		.ascii	"retMode\000"
 4085      6F646500 
 4086              	.LASF8:
 4087 01f0 756E7369 		.ascii	"unsigned int\000"
 4087      676E6564 
 4087      20696E74 
 4087      00
 4088              	.LASF62:
 4089 01fd 4D494449 		.ascii	"MIDI2_UART_GetTxBufferSize\000"
 4089      325F5541 
 4089      52545F47 
 4089      65745478 
 4089      42756666 
 4090              	.LASF5:
 4091 0218 6C6F6E67 		.ascii	"long unsigned int\000"
 4091      20756E73 
ARM GAS  C:\Users\anjmarqu\AppData\Local\Temp\cc7ytAPG.s 			page 106


 4091      69676E65 
 4091      6420696E 
 4091      7400
 4092              	.LASF42:
 4093 022a 4D494449 		.ascii	"MIDI2_UART_ClearRxBuffer\000"
 4093      325F5541 
 4093      52545F43 
 4093      6C656172 
 4093      52784275 
 4094              	.LASF55:
 4095 0243 6C6F635F 		.ascii	"loc_txBufferRead\000"
 4095      74784275 
 4095      66666572 
 4095      52656164 
 4095      00
 4096              	.LASF70:
 4097 0254 4D494449 		.ascii	"MIDI2_UART_txBuffer\000"
 4097      325F5541 
 4097      52545F74 
 4097      78427566 
 4097      66657200 
 4098              	.LASF41:
 4099 0268 73697A65 		.ascii	"size\000"
 4099      00
 4100              	.LASF3:
 4101 026d 73686F72 		.ascii	"short unsigned int\000"
 4101      7420756E 
 4101      7369676E 
 4101      65642069 
 4101      6E7400
 4102              	.LASF79:
 4103 0280 4379496E 		.ascii	"CyIntSetVector\000"
 4103      74536574 
 4103      56656374 
 4103      6F7200
 4104              	.LASF34:
 4105 028f 6C6F635F 		.ascii	"loc_rxBufferRead\000"
 4105      72784275 
 4105      66666572 
 4105      52656164 
 4105      00
 4106              	.LASF67:
 4107 02a0 74785F70 		.ascii	"tx_period\000"
 4107      6572696F 
 4107      6400
 4108              	.LASF85:
 4109 02aa 4379456E 		.ascii	"CyEnterCriticalSection\000"
 4109      74657243 
 4109      72697469 
 4109      63616C53 
 4109      65637469 
 4110              	.LASF32:
 4111 02c1 696E7453 		.ascii	"intSrc\000"
 4111      726300
 4112              	.LASF27:
 4113 02c8 4D494449 		.ascii	"MIDI2_UART_Stop\000"
 4113      325F5541 
ARM GAS  C:\Users\anjmarqu\AppData\Local\Temp\cc7ytAPG.s 			page 107


 4113      52545F53 
 4113      746F7000 
 4114              	.LASF59:
 4115 02d8 4D494449 		.ascii	"MIDI2_UART_PutArray\000"
 4115      325F5541 
 4115      52545F50 
 4115      75744172 
 4115      72617900 
 4116              	.LASF53:
 4117 02ec 4D494449 		.ascii	"MIDI2_UART_PutChar\000"
 4117      325F5541 
 4117      52545F50 
 4117      75744368 
 4117      617200
 4118              	.LASF17:
 4119 02ff 72656733 		.ascii	"reg32\000"
 4119      3200
 4120              	.LASF80:
 4121 0305 474E5520 		.ascii	"GNU C 4.9.3 20150303 (release) [ARM/embedded-4_9-br"
 4121      4320342E 
 4121      392E3320 
 4121      32303135 
 4121      30333033 
 4122 0338 616E6368 		.ascii	"anch revision 221220] -mcpu=cortex-m3 -mthumb -g -O"
 4122      20726576 
 4122      6973696F 
 4122      6E203232 
 4122      31323230 
 4123 036b 32202D66 		.ascii	"2 -ffunction-sections -ffat-lto-objects\000"
 4123      66756E63 
 4123      74696F6E 
 4123      2D736563 
 4123      74696F6E 
 4124              	.LASF66:
 4125 0393 746D7053 		.ascii	"tmpStat\000"
 4125      74617400 
 4126              	.LASF24:
 4127 039b 4D494449 		.ascii	"MIDI2_UART_Init\000"
 4127      325F5541 
 4127      52545F49 
 4127      6E697400 
 4128              	.LASF19:
 4129 03ab 73697A65 		.ascii	"sizetype\000"
 4129      74797065 
 4129      00
 4130              	.LASF43:
 4131 03b4 4D494449 		.ascii	"MIDI2_UART_SetRxAddressMode\000"
 4131      325F5541 
 4131      52545F53 
 4131      65745278 
 4131      41646472 
 4132              	.LASF49:
 4133 03d0 4D494449 		.ascii	"MIDI2_UART_WriteTxData\000"
 4133      325F5541 
 4133      52545F57 
 4133      72697465 
 4133      54784461 
ARM GAS  C:\Users\anjmarqu\AppData\Local\Temp\cc7ytAPG.s 			page 108


 4134              	.LASF46:
 4135 03e7 61646472 		.ascii	"address\000"
 4135      65737300 
 4136              	.LASF74:
 4137 03ef 4D494449 		.ascii	"MIDI2_UART_rxBufferRead\000"
 4137      325F5541 
 4137      52545F72 
 4137      78427566 
 4137      66657252 
 4138              	.LASF38:
 4139 0407 72785374 		.ascii	"rxStatus\000"
 4139      61747573 
 4139      00
 4140              	.LASF76:
 4141 0410 4D494449 		.ascii	"MIDI2_UART_rxBufferLoopDetect\000"
 4141      325F5541 
 4141      52545F72 
 4141      78427566 
 4141      6665724C 
 4142              	.LASF84:
 4143 042e 4379496E 		.ascii	"CyIntSetPriority\000"
 4143      74536574 
 4143      5072696F 
 4143      72697479 
 4143      00
 4144              	.LASF39:
 4145 043f 4D494449 		.ascii	"MIDI2_UART_GetByte\000"
 4145      325F5541 
 4145      52545F47 
 4145      65744279 
 4145      746500
 4146              	.LASF12:
 4147 0452 666C6F61 		.ascii	"float\000"
 4147      7400
 4148              	.LASF86:
 4149 0458 43794578 		.ascii	"CyExitCriticalSection\000"
 4149      69744372 
 4149      69746963 
 4149      616C5365 
 4149      6374696F 
 4150              	.LASF40:
 4151 046e 4D494449 		.ascii	"MIDI2_UART_GetRxBufferSize\000"
 4151      325F5541 
 4151      52545F47 
 4151      65745278 
 4151      42756666 
 4152              	.LASF16:
 4153 0489 72656738 		.ascii	"reg8\000"
 4153      00
 4154              	.LASF1:
 4155 048e 756E7369 		.ascii	"unsigned char\000"
 4155      676E6564 
 4155      20636861 
 4155      7200
 4156              	.LASF77:
 4157 049c 4D494449 		.ascii	"MIDI2_UART_rxBufferOverflow\000"
 4157      325F5541 
ARM GAS  C:\Users\anjmarqu\AppData\Local\Temp\cc7ytAPG.s 			page 109


 4157      52545F72 
 4157      78427566 
 4157      6665724F 
 4158              	.LASF2:
 4159 04b8 73686F72 		.ascii	"short int\000"
 4159      7420696E 
 4159      7400
 4160              	.LASF75:
 4161 04c2 4D494449 		.ascii	"MIDI2_UART_rxBufferWrite\000"
 4161      325F5541 
 4161      52545F72 
 4161      78427566 
 4161      66657257 
 4162              	.LASF73:
 4163 04db 4D494449 		.ascii	"MIDI2_UART_rxBuffer\000"
 4163      325F5541 
 4163      52545F72 
 4163      78427566 
 4163      66657200 
 4164              	.LASF60:
 4165 04ef 62797465 		.ascii	"byteCount\000"
 4165      436F756E 
 4165      7400
 4166              	.LASF21:
 4167 04f9 4D494449 		.ascii	"MIDI2_UART_EnableRxInt\000"
 4167      325F5541 
 4167      52545F45 
 4167      6E61626C 
 4167      65527849 
 4168              	.LASF33:
 4169 0510 72784461 		.ascii	"rxData\000"
 4169      746100
 4170              	.LASF81:
 4171 0517 47656E65 		.ascii	"Generated_Source\\PSoC5\\MIDI2_UART.c\000"
 4171      72617465 
 4171      645F536F 
 4171      75726365 
 4171      5C50536F 
 4172              	.LASF63:
 4173 053b 4D494449 		.ascii	"MIDI2_UART_ClearTxBuffer\000"
 4173      325F5541 
 4173      52545F43 
 4173      6C656172 
 4173      54784275 
 4174              	.LASF15:
 4175 0554 63686172 		.ascii	"char\000"
 4175      00
 4176              	.LASF18:
 4177 0559 63796973 		.ascii	"cyisraddress\000"
 4177      72616464 
 4177      72657373 
 4177      00
 4178              	.LASF26:
 4179 0566 4D494449 		.ascii	"MIDI2_UART_Start\000"
 4179      325F5541 
 4179      52545F53 
 4179      74617274 
ARM GAS  C:\Users\anjmarqu\AppData\Local\Temp\cc7ytAPG.s 			page 110


 4179      00
 4180              	.LASF23:
 4181 0577 4D494449 		.ascii	"MIDI2_UART_EnableTxInt\000"
 4181      325F5541 
 4181      52545F45 
 4181      6E61626C 
 4181      65547849 
 4182              	.LASF14:
 4183 058e 63686172 		.ascii	"char8\000"
 4183      3800
 4184              	.LASF28:
 4185 0594 656E6162 		.ascii	"enableInterrupts\000"
 4185      6C65496E 
 4185      74657272 
 4185      75707473 
 4185      00
 4186              	.LASF83:
 4187 05a5 73746174 		.ascii	"status\000"
 4187      757300
 4188              	.LASF78:
 4189 05ac 4D494449 		.ascii	"MIDI2_UART_ReadRxStatus\000"
 4189      325F5541 
 4189      52545F52 
 4189      65616452 
 4189      78537461 
 4190              	.LASF64:
 4191 05c4 4D494449 		.ascii	"MIDI2_UART_SendBreak\000"
 4191      325F5541 
 4191      52545F53 
 4191      656E6442 
 4191      7265616B 
 4192              	.LASF45:
 4193 05d9 4D494449 		.ascii	"MIDI2_UART_SetRxAddress1\000"
 4193      325F5541 
 4193      52545F53 
 4193      65745278 
 4193      41646472 
 4194              	.LASF47:
 4195 05f2 4D494449 		.ascii	"MIDI2_UART_SetRxAddress2\000"
 4195      325F5541 
 4195      52545F53 
 4195      65745278 
 4195      41646472 
 4196              	.LASF58:
 4197 060b 6275665F 		.ascii	"buf_index\000"
 4197      696E6465 
 4197      7800
 4198              	.LASF71:
 4199 0615 4D494449 		.ascii	"MIDI2_UART_txBufferRead\000"
 4199      325F5541 
 4199      52545F74 
 4199      78427566 
 4199      66657252 
 4200              	.LASF61:
 4201 062d 4D494449 		.ascii	"MIDI2_UART_PutCRLF\000"
 4201      325F5541 
 4201      52545F50 
ARM GAS  C:\Users\anjmarqu\AppData\Local\Temp\cc7ytAPG.s 			page 111


 4201      75744352 
 4201      4C4600
 4202              	.LASF82:
 4203 0640 433A5C55 		.ascii	"C:\\Users\\anjmarqu\\Desktop\\Hummingbird\\Hummingb"
 4203      73657273 
 4203      5C616E6A 
 4203      6D617271 
 4203      755C4465 
 4204 066e 69726428 		.ascii	"ird(Continuous Output).cydsn\000"
 4204      436F6E74 
 4204      696E756F 
 4204      7573204F 
 4204      75747075 
 4205              	.LASF54:
 4206 068b 6C6F635F 		.ascii	"loc_txBufferWrite\000"
 4206      74784275 
 4206      66666572 
 4206      57726974 
 4206      6500
 4207              		.ident	"GCC: (GNU Tools for ARM Embedded Processors) 4.9.3 20150303 (release) [ARM/embedded-4_9-br
