ARM GAS  C:\Users\mgronber\AppData\Local\Temp\ccTPx6pt.s 			page 1


   1              		.syntax unified
   2              		.cpu cortex-m3
   3              		.fpu softvfp
   4              		.eabi_attribute 20, 1
   5              		.eabi_attribute 21, 1
   6              		.eabi_attribute 23, 3
   7              		.eabi_attribute 24, 1
   8              		.eabi_attribute 25, 1
   9              		.eabi_attribute 26, 1
  10              		.eabi_attribute 30, 2
  11              		.eabi_attribute 34, 1
  12              		.eabi_attribute 18, 4
  13              		.thumb
  14              		.file	"MIDI2_UART_PM.c"
  15              		.text
  16              	.Ltext0:
  17              		.cfi_sections	.debug_frame
  18              		.section	.text.MIDI2_UART_SaveConfig,"ax",%progbits
  19              		.align	2
  20              		.global	MIDI2_UART_SaveConfig
  21              		.thumb
  22              		.thumb_func
  23              		.type	MIDI2_UART_SaveConfig, %function
  24              	MIDI2_UART_SaveConfig:
  25              	.LFB0:
  26              		.file 1 "Generated_Source\\PSoC5\\MIDI2_UART_PM.c"
   1:Generated_Source\PSoC5/MIDI2_UART_PM.c **** /*******************************************************************************
   2:Generated_Source\PSoC5/MIDI2_UART_PM.c **** * File Name: MIDI2_UART_PM.c
   3:Generated_Source\PSoC5/MIDI2_UART_PM.c **** * Version 2.30
   4:Generated_Source\PSoC5/MIDI2_UART_PM.c **** *
   5:Generated_Source\PSoC5/MIDI2_UART_PM.c **** * Description:
   6:Generated_Source\PSoC5/MIDI2_UART_PM.c **** *  This file provides Sleep/WakeUp APIs functionality.
   7:Generated_Source\PSoC5/MIDI2_UART_PM.c **** *
   8:Generated_Source\PSoC5/MIDI2_UART_PM.c **** * Note:
   9:Generated_Source\PSoC5/MIDI2_UART_PM.c **** *
  10:Generated_Source\PSoC5/MIDI2_UART_PM.c **** ********************************************************************************
  11:Generated_Source\PSoC5/MIDI2_UART_PM.c **** * Copyright 2008-2012, Cypress Semiconductor Corporation.  All rights reserved.
  12:Generated_Source\PSoC5/MIDI2_UART_PM.c **** * You may use this file only in accordance with the license, terms, conditions,
  13:Generated_Source\PSoC5/MIDI2_UART_PM.c **** * disclaimers, and limitations in the end user license agreement accompanying
  14:Generated_Source\PSoC5/MIDI2_UART_PM.c **** * the software package with which this file was provided.
  15:Generated_Source\PSoC5/MIDI2_UART_PM.c **** *******************************************************************************/
  16:Generated_Source\PSoC5/MIDI2_UART_PM.c **** 
  17:Generated_Source\PSoC5/MIDI2_UART_PM.c **** #include "MIDI2_UART.h"
  18:Generated_Source\PSoC5/MIDI2_UART_PM.c **** 
  19:Generated_Source\PSoC5/MIDI2_UART_PM.c **** 
  20:Generated_Source\PSoC5/MIDI2_UART_PM.c **** /***************************************
  21:Generated_Source\PSoC5/MIDI2_UART_PM.c **** * Local data allocation
  22:Generated_Source\PSoC5/MIDI2_UART_PM.c **** ***************************************/
  23:Generated_Source\PSoC5/MIDI2_UART_PM.c **** 
  24:Generated_Source\PSoC5/MIDI2_UART_PM.c **** static MIDI2_UART_BACKUP_STRUCT  MIDI2_UART_backup =
  25:Generated_Source\PSoC5/MIDI2_UART_PM.c **** {
  26:Generated_Source\PSoC5/MIDI2_UART_PM.c ****     /* enableState - disabled */
  27:Generated_Source\PSoC5/MIDI2_UART_PM.c ****     0u,
  28:Generated_Source\PSoC5/MIDI2_UART_PM.c **** };
  29:Generated_Source\PSoC5/MIDI2_UART_PM.c **** 
  30:Generated_Source\PSoC5/MIDI2_UART_PM.c **** 
  31:Generated_Source\PSoC5/MIDI2_UART_PM.c **** 
ARM GAS  C:\Users\mgronber\AppData\Local\Temp\ccTPx6pt.s 			page 2


  32:Generated_Source\PSoC5/MIDI2_UART_PM.c **** /*******************************************************************************
  33:Generated_Source\PSoC5/MIDI2_UART_PM.c **** * Function Name: MIDI2_UART_SaveConfig
  34:Generated_Source\PSoC5/MIDI2_UART_PM.c **** ********************************************************************************
  35:Generated_Source\PSoC5/MIDI2_UART_PM.c **** *
  36:Generated_Source\PSoC5/MIDI2_UART_PM.c **** * Summary:
  37:Generated_Source\PSoC5/MIDI2_UART_PM.c **** *  Saves the current user configuration.
  38:Generated_Source\PSoC5/MIDI2_UART_PM.c **** *
  39:Generated_Source\PSoC5/MIDI2_UART_PM.c **** * Parameters:
  40:Generated_Source\PSoC5/MIDI2_UART_PM.c **** *  None.
  41:Generated_Source\PSoC5/MIDI2_UART_PM.c **** *
  42:Generated_Source\PSoC5/MIDI2_UART_PM.c **** * Return:
  43:Generated_Source\PSoC5/MIDI2_UART_PM.c **** *  None.
  44:Generated_Source\PSoC5/MIDI2_UART_PM.c **** *
  45:Generated_Source\PSoC5/MIDI2_UART_PM.c **** * Global Variables:
  46:Generated_Source\PSoC5/MIDI2_UART_PM.c **** *  MIDI2_UART_backup - modified when non-retention registers are saved.
  47:Generated_Source\PSoC5/MIDI2_UART_PM.c **** *
  48:Generated_Source\PSoC5/MIDI2_UART_PM.c **** * Reentrant:
  49:Generated_Source\PSoC5/MIDI2_UART_PM.c **** *  No.
  50:Generated_Source\PSoC5/MIDI2_UART_PM.c **** *
  51:Generated_Source\PSoC5/MIDI2_UART_PM.c **** *******************************************************************************/
  52:Generated_Source\PSoC5/MIDI2_UART_PM.c **** void MIDI2_UART_SaveConfig(void)
  53:Generated_Source\PSoC5/MIDI2_UART_PM.c **** {
  27              		.loc 1 53 0
  28              		.cfi_startproc
  29              		@ args = 0, pretend = 0, frame = 0
  30              		@ frame_needed = 0, uses_anonymous_args = 0
  31              		@ link register save eliminated.
  32 0000 7047     		bx	lr
  33              		.cfi_endproc
  34              	.LFE0:
  35              		.size	MIDI2_UART_SaveConfig, .-MIDI2_UART_SaveConfig
  36 0002 00BF     		.section	.text.MIDI2_UART_RestoreConfig,"ax",%progbits
  37              		.align	2
  38              		.global	MIDI2_UART_RestoreConfig
  39              		.thumb
  40              		.thumb_func
  41              		.type	MIDI2_UART_RestoreConfig, %function
  42              	MIDI2_UART_RestoreConfig:
  43              	.LFB1:
  54:Generated_Source\PSoC5/MIDI2_UART_PM.c ****     #if (CY_UDB_V0)
  55:Generated_Source\PSoC5/MIDI2_UART_PM.c **** 
  56:Generated_Source\PSoC5/MIDI2_UART_PM.c ****         #if(MIDI2_UART_CONTROL_REG_REMOVED == 0u)
  57:Generated_Source\PSoC5/MIDI2_UART_PM.c ****             MIDI2_UART_backup.cr = MIDI2_UART_CONTROL_REG;
  58:Generated_Source\PSoC5/MIDI2_UART_PM.c ****         #endif /* End MIDI2_UART_CONTROL_REG_REMOVED */
  59:Generated_Source\PSoC5/MIDI2_UART_PM.c **** 
  60:Generated_Source\PSoC5/MIDI2_UART_PM.c ****         #if( (MIDI2_UART_RX_ENABLED) || (MIDI2_UART_HD_ENABLED) )
  61:Generated_Source\PSoC5/MIDI2_UART_PM.c ****             MIDI2_UART_backup.rx_period = MIDI2_UART_RXBITCTR_PERIOD_REG;
  62:Generated_Source\PSoC5/MIDI2_UART_PM.c ****             MIDI2_UART_backup.rx_mask = MIDI2_UART_RXSTATUS_MASK_REG;
  63:Generated_Source\PSoC5/MIDI2_UART_PM.c ****             #if (MIDI2_UART_RXHW_ADDRESS_ENABLED)
  64:Generated_Source\PSoC5/MIDI2_UART_PM.c ****                 MIDI2_UART_backup.rx_addr1 = MIDI2_UART_RXADDRESS1_REG;
  65:Generated_Source\PSoC5/MIDI2_UART_PM.c ****                 MIDI2_UART_backup.rx_addr2 = MIDI2_UART_RXADDRESS2_REG;
  66:Generated_Source\PSoC5/MIDI2_UART_PM.c ****             #endif /* End MIDI2_UART_RXHW_ADDRESS_ENABLED */
  67:Generated_Source\PSoC5/MIDI2_UART_PM.c ****         #endif /* End MIDI2_UART_RX_ENABLED | MIDI2_UART_HD_ENABLED*/
  68:Generated_Source\PSoC5/MIDI2_UART_PM.c **** 
  69:Generated_Source\PSoC5/MIDI2_UART_PM.c ****         #if(MIDI2_UART_TX_ENABLED)
  70:Generated_Source\PSoC5/MIDI2_UART_PM.c ****             #if(MIDI2_UART_TXCLKGEN_DP)
  71:Generated_Source\PSoC5/MIDI2_UART_PM.c ****                 MIDI2_UART_backup.tx_clk_ctr = MIDI2_UART_TXBITCLKGEN_CTR_REG;
ARM GAS  C:\Users\mgronber\AppData\Local\Temp\ccTPx6pt.s 			page 3


  72:Generated_Source\PSoC5/MIDI2_UART_PM.c ****                 MIDI2_UART_backup.tx_clk_compl = MIDI2_UART_TXBITCLKTX_COMPLETE_REG;
  73:Generated_Source\PSoC5/MIDI2_UART_PM.c ****             #else
  74:Generated_Source\PSoC5/MIDI2_UART_PM.c ****                 MIDI2_UART_backup.tx_period = MIDI2_UART_TXBITCTR_PERIOD_REG;
  75:Generated_Source\PSoC5/MIDI2_UART_PM.c ****             #endif /*End MIDI2_UART_TXCLKGEN_DP */
  76:Generated_Source\PSoC5/MIDI2_UART_PM.c ****             MIDI2_UART_backup.tx_mask = MIDI2_UART_TXSTATUS_MASK_REG;
  77:Generated_Source\PSoC5/MIDI2_UART_PM.c ****         #endif /*End MIDI2_UART_TX_ENABLED */
  78:Generated_Source\PSoC5/MIDI2_UART_PM.c **** 
  79:Generated_Source\PSoC5/MIDI2_UART_PM.c **** 
  80:Generated_Source\PSoC5/MIDI2_UART_PM.c ****     #else /* CY_UDB_V1 */
  81:Generated_Source\PSoC5/MIDI2_UART_PM.c **** 
  82:Generated_Source\PSoC5/MIDI2_UART_PM.c ****         #if(MIDI2_UART_CONTROL_REG_REMOVED == 0u)
  83:Generated_Source\PSoC5/MIDI2_UART_PM.c ****             MIDI2_UART_backup.cr = MIDI2_UART_CONTROL_REG;
  84:Generated_Source\PSoC5/MIDI2_UART_PM.c ****         #endif /* End MIDI2_UART_CONTROL_REG_REMOVED */
  85:Generated_Source\PSoC5/MIDI2_UART_PM.c **** 
  86:Generated_Source\PSoC5/MIDI2_UART_PM.c ****     #endif  /* End CY_UDB_V0 */
  87:Generated_Source\PSoC5/MIDI2_UART_PM.c **** }
  88:Generated_Source\PSoC5/MIDI2_UART_PM.c **** 
  89:Generated_Source\PSoC5/MIDI2_UART_PM.c **** 
  90:Generated_Source\PSoC5/MIDI2_UART_PM.c **** /*******************************************************************************
  91:Generated_Source\PSoC5/MIDI2_UART_PM.c **** * Function Name: MIDI2_UART_RestoreConfig
  92:Generated_Source\PSoC5/MIDI2_UART_PM.c **** ********************************************************************************
  93:Generated_Source\PSoC5/MIDI2_UART_PM.c **** *
  94:Generated_Source\PSoC5/MIDI2_UART_PM.c **** * Summary:
  95:Generated_Source\PSoC5/MIDI2_UART_PM.c **** *  Restores the current user configuration.
  96:Generated_Source\PSoC5/MIDI2_UART_PM.c **** *
  97:Generated_Source\PSoC5/MIDI2_UART_PM.c **** * Parameters:
  98:Generated_Source\PSoC5/MIDI2_UART_PM.c **** *  None.
  99:Generated_Source\PSoC5/MIDI2_UART_PM.c **** *
 100:Generated_Source\PSoC5/MIDI2_UART_PM.c **** * Return:
 101:Generated_Source\PSoC5/MIDI2_UART_PM.c **** *  None.
 102:Generated_Source\PSoC5/MIDI2_UART_PM.c **** *
 103:Generated_Source\PSoC5/MIDI2_UART_PM.c **** * Global Variables:
 104:Generated_Source\PSoC5/MIDI2_UART_PM.c **** *  MIDI2_UART_backup - used when non-retention registers are restored.
 105:Generated_Source\PSoC5/MIDI2_UART_PM.c **** *
 106:Generated_Source\PSoC5/MIDI2_UART_PM.c **** * Reentrant:
 107:Generated_Source\PSoC5/MIDI2_UART_PM.c **** *  No.
 108:Generated_Source\PSoC5/MIDI2_UART_PM.c **** *
 109:Generated_Source\PSoC5/MIDI2_UART_PM.c **** *******************************************************************************/
 110:Generated_Source\PSoC5/MIDI2_UART_PM.c **** void MIDI2_UART_RestoreConfig(void)
 111:Generated_Source\PSoC5/MIDI2_UART_PM.c **** {
  44              		.loc 1 111 0
  45              		.cfi_startproc
  46              		@ args = 0, pretend = 0, frame = 0
  47              		@ frame_needed = 0, uses_anonymous_args = 0
  48              		@ link register save eliminated.
  49 0000 7047     		bx	lr
  50              		.cfi_endproc
  51              	.LFE1:
  52              		.size	MIDI2_UART_RestoreConfig, .-MIDI2_UART_RestoreConfig
  53 0002 00BF     		.section	.text.MIDI2_UART_Sleep,"ax",%progbits
  54              		.align	2
  55              		.global	MIDI2_UART_Sleep
  56              		.thumb
  57              		.thumb_func
  58              		.type	MIDI2_UART_Sleep, %function
  59              	MIDI2_UART_Sleep:
  60              	.LFB2:
ARM GAS  C:\Users\mgronber\AppData\Local\Temp\ccTPx6pt.s 			page 4


 112:Generated_Source\PSoC5/MIDI2_UART_PM.c **** 
 113:Generated_Source\PSoC5/MIDI2_UART_PM.c ****     #if (CY_UDB_V0)
 114:Generated_Source\PSoC5/MIDI2_UART_PM.c **** 
 115:Generated_Source\PSoC5/MIDI2_UART_PM.c ****         #if(MIDI2_UART_CONTROL_REG_REMOVED == 0u)
 116:Generated_Source\PSoC5/MIDI2_UART_PM.c ****             MIDI2_UART_CONTROL_REG = MIDI2_UART_backup.cr;
 117:Generated_Source\PSoC5/MIDI2_UART_PM.c ****         #endif /* End MIDI2_UART_CONTROL_REG_REMOVED */
 118:Generated_Source\PSoC5/MIDI2_UART_PM.c **** 
 119:Generated_Source\PSoC5/MIDI2_UART_PM.c ****         #if( (MIDI2_UART_RX_ENABLED) || (MIDI2_UART_HD_ENABLED) )
 120:Generated_Source\PSoC5/MIDI2_UART_PM.c ****             MIDI2_UART_RXBITCTR_PERIOD_REG = MIDI2_UART_backup.rx_period;
 121:Generated_Source\PSoC5/MIDI2_UART_PM.c ****             MIDI2_UART_RXSTATUS_MASK_REG = MIDI2_UART_backup.rx_mask;
 122:Generated_Source\PSoC5/MIDI2_UART_PM.c ****             #if (MIDI2_UART_RXHW_ADDRESS_ENABLED)
 123:Generated_Source\PSoC5/MIDI2_UART_PM.c ****                 MIDI2_UART_RXADDRESS1_REG = MIDI2_UART_backup.rx_addr1;
 124:Generated_Source\PSoC5/MIDI2_UART_PM.c ****                 MIDI2_UART_RXADDRESS2_REG = MIDI2_UART_backup.rx_addr2;
 125:Generated_Source\PSoC5/MIDI2_UART_PM.c ****             #endif /* End MIDI2_UART_RXHW_ADDRESS_ENABLED */
 126:Generated_Source\PSoC5/MIDI2_UART_PM.c ****         #endif  /* End (MIDI2_UART_RX_ENABLED) || (MIDI2_UART_HD_ENABLED) */
 127:Generated_Source\PSoC5/MIDI2_UART_PM.c **** 
 128:Generated_Source\PSoC5/MIDI2_UART_PM.c ****         #if(MIDI2_UART_TX_ENABLED)
 129:Generated_Source\PSoC5/MIDI2_UART_PM.c ****             #if(MIDI2_UART_TXCLKGEN_DP)
 130:Generated_Source\PSoC5/MIDI2_UART_PM.c ****                 MIDI2_UART_TXBITCLKGEN_CTR_REG = MIDI2_UART_backup.tx_clk_ctr;
 131:Generated_Source\PSoC5/MIDI2_UART_PM.c ****                 MIDI2_UART_TXBITCLKTX_COMPLETE_REG = MIDI2_UART_backup.tx_clk_compl;
 132:Generated_Source\PSoC5/MIDI2_UART_PM.c ****             #else
 133:Generated_Source\PSoC5/MIDI2_UART_PM.c ****                 MIDI2_UART_TXBITCTR_PERIOD_REG = MIDI2_UART_backup.tx_period;
 134:Generated_Source\PSoC5/MIDI2_UART_PM.c ****             #endif /*End MIDI2_UART_TXCLKGEN_DP */
 135:Generated_Source\PSoC5/MIDI2_UART_PM.c ****             MIDI2_UART_TXSTATUS_MASK_REG = MIDI2_UART_backup.tx_mask;
 136:Generated_Source\PSoC5/MIDI2_UART_PM.c ****         #endif /*End MIDI2_UART_TX_ENABLED */
 137:Generated_Source\PSoC5/MIDI2_UART_PM.c **** 
 138:Generated_Source\PSoC5/MIDI2_UART_PM.c ****     #else /* CY_UDB_V1 */
 139:Generated_Source\PSoC5/MIDI2_UART_PM.c **** 
 140:Generated_Source\PSoC5/MIDI2_UART_PM.c ****         #if(MIDI2_UART_CONTROL_REG_REMOVED == 0u)
 141:Generated_Source\PSoC5/MIDI2_UART_PM.c ****             MIDI2_UART_CONTROL_REG = MIDI2_UART_backup.cr;
 142:Generated_Source\PSoC5/MIDI2_UART_PM.c ****         #endif /* End MIDI2_UART_CONTROL_REG_REMOVED */
 143:Generated_Source\PSoC5/MIDI2_UART_PM.c **** 
 144:Generated_Source\PSoC5/MIDI2_UART_PM.c ****     #endif  /* End CY_UDB_V0 */
 145:Generated_Source\PSoC5/MIDI2_UART_PM.c **** }
 146:Generated_Source\PSoC5/MIDI2_UART_PM.c **** 
 147:Generated_Source\PSoC5/MIDI2_UART_PM.c **** 
 148:Generated_Source\PSoC5/MIDI2_UART_PM.c **** /*******************************************************************************
 149:Generated_Source\PSoC5/MIDI2_UART_PM.c **** * Function Name: MIDI2_UART_Sleep
 150:Generated_Source\PSoC5/MIDI2_UART_PM.c **** ********************************************************************************
 151:Generated_Source\PSoC5/MIDI2_UART_PM.c **** *
 152:Generated_Source\PSoC5/MIDI2_UART_PM.c **** * Summary:
 153:Generated_Source\PSoC5/MIDI2_UART_PM.c **** *  Stops and saves the user configuration. Should be called
 154:Generated_Source\PSoC5/MIDI2_UART_PM.c **** *  just prior to entering sleep.
 155:Generated_Source\PSoC5/MIDI2_UART_PM.c **** *
 156:Generated_Source\PSoC5/MIDI2_UART_PM.c **** *
 157:Generated_Source\PSoC5/MIDI2_UART_PM.c **** * Parameters:
 158:Generated_Source\PSoC5/MIDI2_UART_PM.c **** *  None.
 159:Generated_Source\PSoC5/MIDI2_UART_PM.c **** *
 160:Generated_Source\PSoC5/MIDI2_UART_PM.c **** * Return:
 161:Generated_Source\PSoC5/MIDI2_UART_PM.c **** *  None.
 162:Generated_Source\PSoC5/MIDI2_UART_PM.c **** *
 163:Generated_Source\PSoC5/MIDI2_UART_PM.c **** * Global Variables:
 164:Generated_Source\PSoC5/MIDI2_UART_PM.c **** *  MIDI2_UART_backup - modified when non-retention registers are saved.
 165:Generated_Source\PSoC5/MIDI2_UART_PM.c **** *
 166:Generated_Source\PSoC5/MIDI2_UART_PM.c **** * Reentrant:
 167:Generated_Source\PSoC5/MIDI2_UART_PM.c **** *  No.
 168:Generated_Source\PSoC5/MIDI2_UART_PM.c **** *
ARM GAS  C:\Users\mgronber\AppData\Local\Temp\ccTPx6pt.s 			page 5


 169:Generated_Source\PSoC5/MIDI2_UART_PM.c **** *******************************************************************************/
 170:Generated_Source\PSoC5/MIDI2_UART_PM.c **** void MIDI2_UART_Sleep(void)
 171:Generated_Source\PSoC5/MIDI2_UART_PM.c **** {
  61              		.loc 1 171 0
  62              		.cfi_startproc
  63              		@ args = 0, pretend = 0, frame = 0
  64              		@ frame_needed = 0, uses_anonymous_args = 0
  65              		@ link register save eliminated.
 172:Generated_Source\PSoC5/MIDI2_UART_PM.c **** 
 173:Generated_Source\PSoC5/MIDI2_UART_PM.c ****     #if(MIDI2_UART_RX_ENABLED || MIDI2_UART_HD_ENABLED)
 174:Generated_Source\PSoC5/MIDI2_UART_PM.c ****         if((MIDI2_UART_RXSTATUS_ACTL_REG  & MIDI2_UART_INT_ENABLE) != 0u)
  66              		.loc 1 174 0
  67 0000 074B     		ldr	r3, .L8
  68 0002 1B78     		ldrb	r3, [r3]	@ zero_extendqisi2
  69 0004 03F01003 		and	r3, r3, #16
  70 0008 03F0FF02 		and	r2, r3, #255
  71 000c 1BB9     		cbnz	r3, .L7
 175:Generated_Source\PSoC5/MIDI2_UART_PM.c ****         {
 176:Generated_Source\PSoC5/MIDI2_UART_PM.c ****             MIDI2_UART_backup.enableState = 1u;
 177:Generated_Source\PSoC5/MIDI2_UART_PM.c ****         }
 178:Generated_Source\PSoC5/MIDI2_UART_PM.c ****         else
 179:Generated_Source\PSoC5/MIDI2_UART_PM.c ****         {
 180:Generated_Source\PSoC5/MIDI2_UART_PM.c ****             MIDI2_UART_backup.enableState = 0u;
  72              		.loc 1 180 0
  73 000e 054B     		ldr	r3, .L8+4
  74 0010 1A70     		strb	r2, [r3]
 181:Generated_Source\PSoC5/MIDI2_UART_PM.c ****         }
 182:Generated_Source\PSoC5/MIDI2_UART_PM.c ****     #else
 183:Generated_Source\PSoC5/MIDI2_UART_PM.c ****         if((MIDI2_UART_TXSTATUS_ACTL_REG  & MIDI2_UART_INT_ENABLE) !=0u)
 184:Generated_Source\PSoC5/MIDI2_UART_PM.c ****         {
 185:Generated_Source\PSoC5/MIDI2_UART_PM.c ****             MIDI2_UART_backup.enableState = 1u;
 186:Generated_Source\PSoC5/MIDI2_UART_PM.c ****         }
 187:Generated_Source\PSoC5/MIDI2_UART_PM.c ****         else
 188:Generated_Source\PSoC5/MIDI2_UART_PM.c ****         {
 189:Generated_Source\PSoC5/MIDI2_UART_PM.c ****             MIDI2_UART_backup.enableState = 0u;
 190:Generated_Source\PSoC5/MIDI2_UART_PM.c ****         }
 191:Generated_Source\PSoC5/MIDI2_UART_PM.c ****     #endif /* End MIDI2_UART_RX_ENABLED || MIDI2_UART_HD_ENABLED*/
 192:Generated_Source\PSoC5/MIDI2_UART_PM.c **** 
 193:Generated_Source\PSoC5/MIDI2_UART_PM.c ****     MIDI2_UART_Stop();
  75              		.loc 1 193 0
  76 0012 FFF7FEBF 		b	MIDI2_UART_Stop
  77              	.LVL0:
  78              	.L7:
 176:Generated_Source\PSoC5/MIDI2_UART_PM.c ****         }
  79              		.loc 1 176 0
  80 0016 034B     		ldr	r3, .L8+4
  81 0018 0122     		movs	r2, #1
  82 001a 1A70     		strb	r2, [r3]
  83              		.loc 1 193 0
  84 001c FFF7FEBF 		b	MIDI2_UART_Stop
  85              	.LVL1:
  86              	.L9:
  87              		.align	2
  88              	.L8:
  89 0020 9B640040 		.word	1073767579
  90 0024 00000000 		.word	.LANCHOR0
  91              		.cfi_endproc
ARM GAS  C:\Users\mgronber\AppData\Local\Temp\ccTPx6pt.s 			page 6


  92              	.LFE2:
  93              		.size	MIDI2_UART_Sleep, .-MIDI2_UART_Sleep
  94              		.section	.text.MIDI2_UART_Wakeup,"ax",%progbits
  95              		.align	2
  96              		.global	MIDI2_UART_Wakeup
  97              		.thumb
  98              		.thumb_func
  99              		.type	MIDI2_UART_Wakeup, %function
 100              	MIDI2_UART_Wakeup:
 101              	.LFB3:
 194:Generated_Source\PSoC5/MIDI2_UART_PM.c ****     MIDI2_UART_SaveConfig();
 195:Generated_Source\PSoC5/MIDI2_UART_PM.c **** }
 196:Generated_Source\PSoC5/MIDI2_UART_PM.c **** 
 197:Generated_Source\PSoC5/MIDI2_UART_PM.c **** 
 198:Generated_Source\PSoC5/MIDI2_UART_PM.c **** /*******************************************************************************
 199:Generated_Source\PSoC5/MIDI2_UART_PM.c **** * Function Name: MIDI2_UART_Wakeup
 200:Generated_Source\PSoC5/MIDI2_UART_PM.c **** ********************************************************************************
 201:Generated_Source\PSoC5/MIDI2_UART_PM.c **** *
 202:Generated_Source\PSoC5/MIDI2_UART_PM.c **** * Summary:
 203:Generated_Source\PSoC5/MIDI2_UART_PM.c **** *  Restores and enables the user configuration. Should be called
 204:Generated_Source\PSoC5/MIDI2_UART_PM.c **** *  just after awaking from sleep.
 205:Generated_Source\PSoC5/MIDI2_UART_PM.c **** *
 206:Generated_Source\PSoC5/MIDI2_UART_PM.c **** * Parameters:
 207:Generated_Source\PSoC5/MIDI2_UART_PM.c **** *  None.
 208:Generated_Source\PSoC5/MIDI2_UART_PM.c **** *
 209:Generated_Source\PSoC5/MIDI2_UART_PM.c **** * Return:
 210:Generated_Source\PSoC5/MIDI2_UART_PM.c **** *  None.
 211:Generated_Source\PSoC5/MIDI2_UART_PM.c **** *
 212:Generated_Source\PSoC5/MIDI2_UART_PM.c **** * Global Variables:
 213:Generated_Source\PSoC5/MIDI2_UART_PM.c **** *  MIDI2_UART_backup - used when non-retention registers are restored.
 214:Generated_Source\PSoC5/MIDI2_UART_PM.c **** *
 215:Generated_Source\PSoC5/MIDI2_UART_PM.c **** * Reentrant:
 216:Generated_Source\PSoC5/MIDI2_UART_PM.c **** *  No.
 217:Generated_Source\PSoC5/MIDI2_UART_PM.c **** *
 218:Generated_Source\PSoC5/MIDI2_UART_PM.c **** *******************************************************************************/
 219:Generated_Source\PSoC5/MIDI2_UART_PM.c **** void MIDI2_UART_Wakeup(void)
 220:Generated_Source\PSoC5/MIDI2_UART_PM.c **** {
 102              		.loc 1 220 0
 103              		.cfi_startproc
 104              		@ args = 0, pretend = 0, frame = 0
 105              		@ frame_needed = 0, uses_anonymous_args = 0
 106 0000 08B5     		push	{r3, lr}
 107              		.cfi_def_cfa_offset 8
 108              		.cfi_offset 3, -8
 109              		.cfi_offset 14, -4
 221:Generated_Source\PSoC5/MIDI2_UART_PM.c ****     MIDI2_UART_RestoreConfig();
 222:Generated_Source\PSoC5/MIDI2_UART_PM.c ****     #if( (MIDI2_UART_RX_ENABLED) || (MIDI2_UART_HD_ENABLED) )
 223:Generated_Source\PSoC5/MIDI2_UART_PM.c ****         MIDI2_UART_ClearRxBuffer();
 110              		.loc 1 223 0
 111 0002 FFF7FEFF 		bl	MIDI2_UART_ClearRxBuffer
 112              	.LVL2:
 224:Generated_Source\PSoC5/MIDI2_UART_PM.c ****     #endif /* End (MIDI2_UART_RX_ENABLED) || (MIDI2_UART_HD_ENABLED) */
 225:Generated_Source\PSoC5/MIDI2_UART_PM.c ****     #if(MIDI2_UART_TX_ENABLED || MIDI2_UART_HD_ENABLED)
 226:Generated_Source\PSoC5/MIDI2_UART_PM.c ****         MIDI2_UART_ClearTxBuffer();
 113              		.loc 1 226 0
 114 0006 FFF7FEFF 		bl	MIDI2_UART_ClearTxBuffer
 115              	.LVL3:
ARM GAS  C:\Users\mgronber\AppData\Local\Temp\ccTPx6pt.s 			page 7


 227:Generated_Source\PSoC5/MIDI2_UART_PM.c ****     #endif /* End MIDI2_UART_TX_ENABLED || MIDI2_UART_HD_ENABLED */
 228:Generated_Source\PSoC5/MIDI2_UART_PM.c **** 
 229:Generated_Source\PSoC5/MIDI2_UART_PM.c ****     if(MIDI2_UART_backup.enableState != 0u)
 116              		.loc 1 229 0
 117 000a 044B     		ldr	r3, .L14
 118 000c 1B78     		ldrb	r3, [r3]	@ zero_extendqisi2
 119 000e 03B9     		cbnz	r3, .L13
 120 0010 08BD     		pop	{r3, pc}
 121              	.L13:
 230:Generated_Source\PSoC5/MIDI2_UART_PM.c ****     {
 231:Generated_Source\PSoC5/MIDI2_UART_PM.c ****         MIDI2_UART_Enable();
 232:Generated_Source\PSoC5/MIDI2_UART_PM.c ****     }
 233:Generated_Source\PSoC5/MIDI2_UART_PM.c **** }
 122              		.loc 1 233 0
 123 0012 BDE80840 		pop	{r3, lr}
 124              		.cfi_restore 14
 125              		.cfi_restore 3
 126              		.cfi_def_cfa_offset 0
 231:Generated_Source\PSoC5/MIDI2_UART_PM.c ****     }
 127              		.loc 1 231 0
 128 0016 FFF7FEBF 		b	MIDI2_UART_Enable
 129              	.LVL4:
 130              	.L15:
 131 001a 00BF     		.align	2
 132              	.L14:
 133 001c 00000000 		.word	.LANCHOR0
 134              		.cfi_endproc
 135              	.LFE3:
 136              		.size	MIDI2_UART_Wakeup, .-MIDI2_UART_Wakeup
 137              		.bss
 138              		.align	2
 139              		.set	.LANCHOR0,. + 0
 140              		.type	MIDI2_UART_backup, %object
 141              		.size	MIDI2_UART_backup, 3
 142              	MIDI2_UART_backup:
 143 0000 000000   		.space	3
 144 0003 00       		.text
 145              	.Letext0:
 146              		.file 2 "Generated_Source\\PSoC5\\cytypes.h"
 147              		.file 3 "Generated_Source\\PSoC5\\MIDI2_UART.h"