ARM GAS  C:\Users\jmdevoto\AppData\Local\Temp\ccZJqqkc.s 			page 1


   1              		.syntax unified
   2              		.cpu cortex-m3
   3              		.fpu softvfp
   4              		.eabi_attribute 20, 1
   5              		.eabi_attribute 21, 1
   6              		.eabi_attribute 23, 3
   7              		.eabi_attribute 24, 1
   8              		.eabi_attribute 25, 1
   9              		.eabi_attribute 26, 1
  10              		.eabi_attribute 30, 2
  11              		.eabi_attribute 34, 1
  12              		.eabi_attribute 18, 4
  13              		.thumb
  14              		.file	"MIDI2_UART.c"
  15              		.text
  16              	.Ltext0:
  17              		.cfi_sections	.debug_frame
  18              		.section	.text.MIDI2_UART_Init,"ax",%progbits
  19              		.align	2
  20              		.global	MIDI2_UART_Init
  21              		.thumb
  22              		.thumb_func
  23              		.type	MIDI2_UART_Init, %function
  24              	MIDI2_UART_Init:
  25              	.LFB1:
  26              		.file 1 "Generated_Source\\PSoC5\\MIDI2_UART.c"
   1:Generated_Source\PSoC5/MIDI2_UART.c **** /*******************************************************************************
   2:Generated_Source\PSoC5/MIDI2_UART.c **** * File Name: MIDI2_UART.c
   3:Generated_Source\PSoC5/MIDI2_UART.c **** * Version 2.30
   4:Generated_Source\PSoC5/MIDI2_UART.c **** *
   5:Generated_Source\PSoC5/MIDI2_UART.c **** * Description:
   6:Generated_Source\PSoC5/MIDI2_UART.c **** *  This file provides all API functionality of the UART component
   7:Generated_Source\PSoC5/MIDI2_UART.c **** *
   8:Generated_Source\PSoC5/MIDI2_UART.c **** * Note:
   9:Generated_Source\PSoC5/MIDI2_UART.c **** *
  10:Generated_Source\PSoC5/MIDI2_UART.c **** ********************************************************************************
  11:Generated_Source\PSoC5/MIDI2_UART.c **** * Copyright 2008-2012, Cypress Semiconductor Corporation.  All rights reserved.
  12:Generated_Source\PSoC5/MIDI2_UART.c **** * You may use this file only in accordance with the license, terms, conditions,
  13:Generated_Source\PSoC5/MIDI2_UART.c **** * disclaimers, and limitations in the end user license agreement accompanying
  14:Generated_Source\PSoC5/MIDI2_UART.c **** * the software package with which this file was provided.
  15:Generated_Source\PSoC5/MIDI2_UART.c **** *******************************************************************************/
  16:Generated_Source\PSoC5/MIDI2_UART.c **** 
  17:Generated_Source\PSoC5/MIDI2_UART.c **** #include "MIDI2_UART.h"
  18:Generated_Source\PSoC5/MIDI2_UART.c **** #include "CyLib.h"
  19:Generated_Source\PSoC5/MIDI2_UART.c **** #if(MIDI2_UART_INTERNAL_CLOCK_USED)
  20:Generated_Source\PSoC5/MIDI2_UART.c ****     #include "MIDI2_UART_IntClock.h"
  21:Generated_Source\PSoC5/MIDI2_UART.c **** #endif /* End MIDI2_UART_INTERNAL_CLOCK_USED */
  22:Generated_Source\PSoC5/MIDI2_UART.c **** 
  23:Generated_Source\PSoC5/MIDI2_UART.c **** 
  24:Generated_Source\PSoC5/MIDI2_UART.c **** /***************************************
  25:Generated_Source\PSoC5/MIDI2_UART.c **** * Global data allocation
  26:Generated_Source\PSoC5/MIDI2_UART.c **** ***************************************/
  27:Generated_Source\PSoC5/MIDI2_UART.c **** 
  28:Generated_Source\PSoC5/MIDI2_UART.c **** uint8 MIDI2_UART_initVar = 0u;
  29:Generated_Source\PSoC5/MIDI2_UART.c **** #if( MIDI2_UART_TX_ENABLED && (MIDI2_UART_TXBUFFERSIZE > MIDI2_UART_FIFO_LENGTH))
  30:Generated_Source\PSoC5/MIDI2_UART.c ****     volatile uint8 MIDI2_UART_txBuffer[MIDI2_UART_TXBUFFERSIZE];
  31:Generated_Source\PSoC5/MIDI2_UART.c ****     volatile uint8 MIDI2_UART_txBufferRead = 0u;
ARM GAS  C:\Users\jmdevoto\AppData\Local\Temp\ccZJqqkc.s 			page 2


  32:Generated_Source\PSoC5/MIDI2_UART.c ****     uint8 MIDI2_UART_txBufferWrite = 0u;
  33:Generated_Source\PSoC5/MIDI2_UART.c **** #endif /* End MIDI2_UART_TX_ENABLED */
  34:Generated_Source\PSoC5/MIDI2_UART.c **** #if( ( MIDI2_UART_RX_ENABLED || MIDI2_UART_HD_ENABLED ) && \
  35:Generated_Source\PSoC5/MIDI2_UART.c ****      (MIDI2_UART_RXBUFFERSIZE > MIDI2_UART_FIFO_LENGTH) )
  36:Generated_Source\PSoC5/MIDI2_UART.c ****     volatile uint8 MIDI2_UART_rxBuffer[MIDI2_UART_RXBUFFERSIZE];
  37:Generated_Source\PSoC5/MIDI2_UART.c ****     volatile uint8 MIDI2_UART_rxBufferRead = 0u;
  38:Generated_Source\PSoC5/MIDI2_UART.c ****     volatile uint8 MIDI2_UART_rxBufferWrite = 0u;
  39:Generated_Source\PSoC5/MIDI2_UART.c ****     volatile uint8 MIDI2_UART_rxBufferLoopDetect = 0u;
  40:Generated_Source\PSoC5/MIDI2_UART.c ****     volatile uint8 MIDI2_UART_rxBufferOverflow = 0u;
  41:Generated_Source\PSoC5/MIDI2_UART.c ****     #if (MIDI2_UART_RXHW_ADDRESS_ENABLED)
  42:Generated_Source\PSoC5/MIDI2_UART.c ****         volatile uint8 MIDI2_UART_rxAddressMode = MIDI2_UART_RXADDRESSMODE;
  43:Generated_Source\PSoC5/MIDI2_UART.c ****         volatile uint8 MIDI2_UART_rxAddressDetected = 0u;
  44:Generated_Source\PSoC5/MIDI2_UART.c ****     #endif /* End EnableHWAddress */
  45:Generated_Source\PSoC5/MIDI2_UART.c **** #endif /* End MIDI2_UART_RX_ENABLED */
  46:Generated_Source\PSoC5/MIDI2_UART.c **** 
  47:Generated_Source\PSoC5/MIDI2_UART.c **** 
  48:Generated_Source\PSoC5/MIDI2_UART.c **** /*******************************************************************************
  49:Generated_Source\PSoC5/MIDI2_UART.c **** * Function Name: MIDI2_UART_Start
  50:Generated_Source\PSoC5/MIDI2_UART.c **** ********************************************************************************
  51:Generated_Source\PSoC5/MIDI2_UART.c **** *
  52:Generated_Source\PSoC5/MIDI2_UART.c **** * Summary:
  53:Generated_Source\PSoC5/MIDI2_UART.c **** *  Initialize and Enable the UART component.
  54:Generated_Source\PSoC5/MIDI2_UART.c **** *  Enable the clock input to enable operation.
  55:Generated_Source\PSoC5/MIDI2_UART.c **** *
  56:Generated_Source\PSoC5/MIDI2_UART.c **** * Parameters:
  57:Generated_Source\PSoC5/MIDI2_UART.c **** *  None.
  58:Generated_Source\PSoC5/MIDI2_UART.c **** *
  59:Generated_Source\PSoC5/MIDI2_UART.c **** * Return:
  60:Generated_Source\PSoC5/MIDI2_UART.c **** *  None.
  61:Generated_Source\PSoC5/MIDI2_UART.c **** *
  62:Generated_Source\PSoC5/MIDI2_UART.c **** * Global variables:
  63:Generated_Source\PSoC5/MIDI2_UART.c **** *  The MIDI2_UART_intiVar variable is used to indicate initial
  64:Generated_Source\PSoC5/MIDI2_UART.c **** *  configuration of this component. The variable is initialized to zero (0u)
  65:Generated_Source\PSoC5/MIDI2_UART.c **** *  and set to one (1u) the first time UART_Start() is called. This allows for
  66:Generated_Source\PSoC5/MIDI2_UART.c **** *  component initialization without re-initialization in all subsequent calls
  67:Generated_Source\PSoC5/MIDI2_UART.c **** *  to the MIDI2_UART_Start() routine.
  68:Generated_Source\PSoC5/MIDI2_UART.c **** *
  69:Generated_Source\PSoC5/MIDI2_UART.c **** * Reentrant:
  70:Generated_Source\PSoC5/MIDI2_UART.c **** *  No.
  71:Generated_Source\PSoC5/MIDI2_UART.c **** *
  72:Generated_Source\PSoC5/MIDI2_UART.c **** *******************************************************************************/
  73:Generated_Source\PSoC5/MIDI2_UART.c **** void MIDI2_UART_Start(void) 
  74:Generated_Source\PSoC5/MIDI2_UART.c **** {
  75:Generated_Source\PSoC5/MIDI2_UART.c ****     /* If not Initialized then initialize all required hardware and software */
  76:Generated_Source\PSoC5/MIDI2_UART.c ****     if(MIDI2_UART_initVar == 0u)
  77:Generated_Source\PSoC5/MIDI2_UART.c ****     {
  78:Generated_Source\PSoC5/MIDI2_UART.c ****         MIDI2_UART_Init();
  79:Generated_Source\PSoC5/MIDI2_UART.c ****         MIDI2_UART_initVar = 1u;
  80:Generated_Source\PSoC5/MIDI2_UART.c ****     }
  81:Generated_Source\PSoC5/MIDI2_UART.c ****     MIDI2_UART_Enable();
  82:Generated_Source\PSoC5/MIDI2_UART.c **** }
  83:Generated_Source\PSoC5/MIDI2_UART.c **** 
  84:Generated_Source\PSoC5/MIDI2_UART.c **** 
  85:Generated_Source\PSoC5/MIDI2_UART.c **** /*******************************************************************************
  86:Generated_Source\PSoC5/MIDI2_UART.c **** * Function Name: MIDI2_UART_Init
  87:Generated_Source\PSoC5/MIDI2_UART.c **** ********************************************************************************
  88:Generated_Source\PSoC5/MIDI2_UART.c **** *
ARM GAS  C:\Users\jmdevoto\AppData\Local\Temp\ccZJqqkc.s 			page 3


  89:Generated_Source\PSoC5/MIDI2_UART.c **** * Summary:
  90:Generated_Source\PSoC5/MIDI2_UART.c **** *  Initialize component's parameters to the parameters set by user in the
  91:Generated_Source\PSoC5/MIDI2_UART.c **** *  customizer of the component placed onto schematic. Usually called in
  92:Generated_Source\PSoC5/MIDI2_UART.c **** *  MIDI2_UART_Start().
  93:Generated_Source\PSoC5/MIDI2_UART.c **** *
  94:Generated_Source\PSoC5/MIDI2_UART.c **** * Parameters:
  95:Generated_Source\PSoC5/MIDI2_UART.c **** *  None.
  96:Generated_Source\PSoC5/MIDI2_UART.c **** *
  97:Generated_Source\PSoC5/MIDI2_UART.c **** * Return:
  98:Generated_Source\PSoC5/MIDI2_UART.c **** *  None.
  99:Generated_Source\PSoC5/MIDI2_UART.c **** *
 100:Generated_Source\PSoC5/MIDI2_UART.c **** *******************************************************************************/
 101:Generated_Source\PSoC5/MIDI2_UART.c **** void MIDI2_UART_Init(void) 
 102:Generated_Source\PSoC5/MIDI2_UART.c **** {
  27              		.loc 1 102 0
  28              		.cfi_startproc
  29              		@ args = 0, pretend = 0, frame = 0
  30              		@ frame_needed = 0, uses_anonymous_args = 0
  31 0000 38B5     		push	{r3, r4, r5, lr}
  32              		.cfi_def_cfa_offset 16
  33              		.cfi_offset 3, -16
  34              		.cfi_offset 4, -12
  35              		.cfi_offset 5, -8
  36              		.cfi_offset 14, -4
 103:Generated_Source\PSoC5/MIDI2_UART.c ****     #if(MIDI2_UART_RX_ENABLED || MIDI2_UART_HD_ENABLED)
 104:Generated_Source\PSoC5/MIDI2_UART.c **** 
 105:Generated_Source\PSoC5/MIDI2_UART.c ****         #if(MIDI2_UART_RX_INTERRUPT_ENABLED && (MIDI2_UART_RXBUFFERSIZE > MIDI2_UART_FIFO_LENGTH))
 106:Generated_Source\PSoC5/MIDI2_UART.c ****             /* Set the RX Interrupt. */
 107:Generated_Source\PSoC5/MIDI2_UART.c ****             (void)CyIntSetVector(MIDI2_UART_RX_VECT_NUM, &MIDI2_UART_RXISR);
  37              		.loc 1 107 0
  38 0002 1049     		ldr	r1, .L3
  39 0004 0520     		movs	r0, #5
  40 0006 FFF7FEFF 		bl	CyIntSetVector
  41              	.LVL0:
 108:Generated_Source\PSoC5/MIDI2_UART.c ****             CyIntSetPriority(MIDI2_UART_RX_VECT_NUM, MIDI2_UART_RX_PRIOR_NUM);
  42              		.loc 1 108 0
  43 000a 0520     		movs	r0, #5
  44 000c 0721     		movs	r1, #7
  45 000e FFF7FEFF 		bl	CyIntSetPriority
  46              	.LVL1:
 109:Generated_Source\PSoC5/MIDI2_UART.c ****         #endif /* End MIDI2_UART_RX_INTERRUPT_ENABLED */
 110:Generated_Source\PSoC5/MIDI2_UART.c **** 
 111:Generated_Source\PSoC5/MIDI2_UART.c ****         #if (MIDI2_UART_RXHW_ADDRESS_ENABLED)
 112:Generated_Source\PSoC5/MIDI2_UART.c ****             MIDI2_UART_SetRxAddressMode(MIDI2_UART_RXAddressMode);
 113:Generated_Source\PSoC5/MIDI2_UART.c ****             MIDI2_UART_SetRxAddress1(MIDI2_UART_RXHWADDRESS1);
 114:Generated_Source\PSoC5/MIDI2_UART.c ****             MIDI2_UART_SetRxAddress2(MIDI2_UART_RXHWADDRESS2);
 115:Generated_Source\PSoC5/MIDI2_UART.c ****         #endif /* End MIDI2_UART_RXHW_ADDRESS_ENABLED */
 116:Generated_Source\PSoC5/MIDI2_UART.c **** 
 117:Generated_Source\PSoC5/MIDI2_UART.c ****         /* Init Count7 period */
 118:Generated_Source\PSoC5/MIDI2_UART.c ****         MIDI2_UART_RXBITCTR_PERIOD_REG = MIDI2_UART_RXBITCTR_INIT;
 119:Generated_Source\PSoC5/MIDI2_UART.c ****         /* Configure the Initial RX interrupt mask */
 120:Generated_Source\PSoC5/MIDI2_UART.c ****         MIDI2_UART_RXSTATUS_MASK_REG  = MIDI2_UART_INIT_RX_INTERRUPTS_MASK;
  47              		.loc 1 120 0
  48 0012 0D4B     		ldr	r3, .L3+4
 118:Generated_Source\PSoC5/MIDI2_UART.c ****         /* Configure the Initial RX interrupt mask */
  49              		.loc 1 118 0
  50 0014 0D49     		ldr	r1, .L3+8
ARM GAS  C:\Users\jmdevoto\AppData\Local\Temp\ccZJqqkc.s 			page 4


  51              		.loc 1 120 0
  52 0016 2022     		movs	r2, #32
 118:Generated_Source\PSoC5/MIDI2_UART.c ****         /* Configure the Initial RX interrupt mask */
  53              		.loc 1 118 0
  54 0018 7120     		movs	r0, #113
  55 001a 0870     		strb	r0, [r1]
  56              		.loc 1 120 0
  57 001c 1A70     		strb	r2, [r3]
 121:Generated_Source\PSoC5/MIDI2_UART.c ****     #endif /* End MIDI2_UART_RX_ENABLED || MIDI2_UART_HD_ENABLED*/
 122:Generated_Source\PSoC5/MIDI2_UART.c **** 
 123:Generated_Source\PSoC5/MIDI2_UART.c ****     #if(MIDI2_UART_TX_ENABLED)
 124:Generated_Source\PSoC5/MIDI2_UART.c ****         #if(MIDI2_UART_TX_INTERRUPT_ENABLED && (MIDI2_UART_TXBUFFERSIZE > MIDI2_UART_FIFO_LENGTH))
 125:Generated_Source\PSoC5/MIDI2_UART.c ****             /* Set the TX Interrupt. */
 126:Generated_Source\PSoC5/MIDI2_UART.c ****             (void)CyIntSetVector(MIDI2_UART_TX_VECT_NUM, &MIDI2_UART_TXISR);
  58              		.loc 1 126 0
  59 001e 0C49     		ldr	r1, .L3+12
  60 0020 0620     		movs	r0, #6
  61 0022 FFF7FEFF 		bl	CyIntSetVector
  62              	.LVL2:
 127:Generated_Source\PSoC5/MIDI2_UART.c ****             CyIntSetPriority(MIDI2_UART_TX_VECT_NUM, MIDI2_UART_TX_PRIOR_NUM);
  63              		.loc 1 127 0
  64 0026 0620     		movs	r0, #6
  65 0028 0721     		movs	r1, #7
  66 002a FFF7FEFF 		bl	CyIntSetPriority
  67              	.LVL3:
 128:Generated_Source\PSoC5/MIDI2_UART.c ****         #endif /* End MIDI2_UART_TX_INTERRUPT_ENABLED */
 129:Generated_Source\PSoC5/MIDI2_UART.c **** 
 130:Generated_Source\PSoC5/MIDI2_UART.c ****         /* Write Counter Value for TX Bit Clk Generator*/
 131:Generated_Source\PSoC5/MIDI2_UART.c ****         #if(MIDI2_UART_TXCLKGEN_DP)
 132:Generated_Source\PSoC5/MIDI2_UART.c ****             MIDI2_UART_TXBITCLKGEN_CTR_REG = MIDI2_UART_BIT_CENTER;
  68              		.loc 1 132 0
  69 002e 094C     		ldr	r4, .L3+16
 133:Generated_Source\PSoC5/MIDI2_UART.c ****             MIDI2_UART_TXBITCLKTX_COMPLETE_REG = (MIDI2_UART_NUMBER_OF_DATA_BITS +
  70              		.loc 1 133 0
  71 0030 0949     		ldr	r1, .L3+20
 134:Generated_Source\PSoC5/MIDI2_UART.c ****                         MIDI2_UART_NUMBER_OF_START_BIT) * MIDI2_UART_OVER_SAMPLE_COUNT;
 135:Generated_Source\PSoC5/MIDI2_UART.c ****         #else
 136:Generated_Source\PSoC5/MIDI2_UART.c ****             MIDI2_UART_TXBITCTR_PERIOD_REG = ((MIDI2_UART_NUMBER_OF_DATA_BITS +
 137:Generated_Source\PSoC5/MIDI2_UART.c ****                         MIDI2_UART_NUMBER_OF_START_BIT) * MIDI2_UART_OVER_SAMPLE_8) - 1u;
 138:Generated_Source\PSoC5/MIDI2_UART.c ****         #endif /* End MIDI2_UART_TXCLKGEN_DP */
 139:Generated_Source\PSoC5/MIDI2_UART.c **** 
 140:Generated_Source\PSoC5/MIDI2_UART.c ****         /* Configure the Initial TX interrupt mask */
 141:Generated_Source\PSoC5/MIDI2_UART.c ****         #if(MIDI2_UART_TX_INTERRUPT_ENABLED && (MIDI2_UART_TXBUFFERSIZE > MIDI2_UART_FIFO_LENGTH))
 142:Generated_Source\PSoC5/MIDI2_UART.c ****             MIDI2_UART_TXSTATUS_MASK_REG = MIDI2_UART_TX_STS_FIFO_EMPTY;
  72              		.loc 1 142 0
  73 0032 0A4B     		ldr	r3, .L3+24
 132:Generated_Source\PSoC5/MIDI2_UART.c ****             MIDI2_UART_TXBITCLKTX_COMPLETE_REG = (MIDI2_UART_NUMBER_OF_DATA_BITS +
  74              		.loc 1 132 0
  75 0034 0725     		movs	r5, #7
 133:Generated_Source\PSoC5/MIDI2_UART.c ****             MIDI2_UART_TXBITCLKTX_COMPLETE_REG = (MIDI2_UART_NUMBER_OF_DATA_BITS +
  76              		.loc 1 133 0
  77 0036 4820     		movs	r0, #72
  78              		.loc 1 142 0
  79 0038 0222     		movs	r2, #2
 132:Generated_Source\PSoC5/MIDI2_UART.c ****             MIDI2_UART_TXBITCLKTX_COMPLETE_REG = (MIDI2_UART_NUMBER_OF_DATA_BITS +
  80              		.loc 1 132 0
  81 003a 2570     		strb	r5, [r4]
ARM GAS  C:\Users\jmdevoto\AppData\Local\Temp\ccZJqqkc.s 			page 5


 133:Generated_Source\PSoC5/MIDI2_UART.c ****             MIDI2_UART_TXBITCLKTX_COMPLETE_REG = (MIDI2_UART_NUMBER_OF_DATA_BITS +
  82              		.loc 1 133 0
  83 003c 0870     		strb	r0, [r1]
  84              		.loc 1 142 0
  85 003e 1A70     		strb	r2, [r3]
  86 0040 38BD     		pop	{r3, r4, r5, pc}
  87              	.L4:
  88 0042 00BF     		.align	2
  89              	.L3:
  90 0044 00000000 		.word	MIDI2_UART_RXISR
  91 0048 86640040 		.word	1073767558
  92 004c 85650040 		.word	1073767813
  93 0050 00000000 		.word	MIDI2_UART_TXISR
  94 0054 20640040 		.word	1073767456
  95 0058 30640040 		.word	1073767472
  96 005c 83640040 		.word	1073767555
  97              		.cfi_endproc
  98              	.LFE1:
  99              		.size	MIDI2_UART_Init, .-MIDI2_UART_Init
 100              		.section	.text.MIDI2_UART_Enable,"ax",%progbits
 101              		.align	2
 102              		.global	MIDI2_UART_Enable
 103              		.thumb
 104              		.thumb_func
 105              		.type	MIDI2_UART_Enable, %function
 106              	MIDI2_UART_Enable:
 107              	.LFB2:
 143:Generated_Source\PSoC5/MIDI2_UART.c ****         #else
 144:Generated_Source\PSoC5/MIDI2_UART.c ****             MIDI2_UART_TXSTATUS_MASK_REG = MIDI2_UART_INIT_TX_INTERRUPTS_MASK;
 145:Generated_Source\PSoC5/MIDI2_UART.c ****         #endif /*End MIDI2_UART_TX_INTERRUPT_ENABLED*/
 146:Generated_Source\PSoC5/MIDI2_UART.c **** 
 147:Generated_Source\PSoC5/MIDI2_UART.c ****     #endif /* End MIDI2_UART_TX_ENABLED */
 148:Generated_Source\PSoC5/MIDI2_UART.c **** 
 149:Generated_Source\PSoC5/MIDI2_UART.c ****     #if(MIDI2_UART_PARITY_TYPE_SW)  /* Write Parity to Control Register */
 150:Generated_Source\PSoC5/MIDI2_UART.c ****         MIDI2_UART_WriteControlRegister( \
 151:Generated_Source\PSoC5/MIDI2_UART.c ****             (MIDI2_UART_ReadControlRegister() & (uint8)~MIDI2_UART_CTRL_PARITY_TYPE_MASK) | \
 152:Generated_Source\PSoC5/MIDI2_UART.c ****             (uint8)(MIDI2_UART_PARITY_TYPE << MIDI2_UART_CTRL_PARITY_TYPE0_SHIFT) );
 153:Generated_Source\PSoC5/MIDI2_UART.c ****     #endif /* End MIDI2_UART_PARITY_TYPE_SW */
 154:Generated_Source\PSoC5/MIDI2_UART.c **** }
 155:Generated_Source\PSoC5/MIDI2_UART.c **** 
 156:Generated_Source\PSoC5/MIDI2_UART.c **** 
 157:Generated_Source\PSoC5/MIDI2_UART.c **** /*******************************************************************************
 158:Generated_Source\PSoC5/MIDI2_UART.c **** * Function Name: MIDI2_UART_Enable
 159:Generated_Source\PSoC5/MIDI2_UART.c **** ********************************************************************************
 160:Generated_Source\PSoC5/MIDI2_UART.c **** *
 161:Generated_Source\PSoC5/MIDI2_UART.c **** * Summary:
 162:Generated_Source\PSoC5/MIDI2_UART.c **** *  Enables the UART block operation
 163:Generated_Source\PSoC5/MIDI2_UART.c **** *
 164:Generated_Source\PSoC5/MIDI2_UART.c **** * Parameters:
 165:Generated_Source\PSoC5/MIDI2_UART.c **** *  None.
 166:Generated_Source\PSoC5/MIDI2_UART.c **** *
 167:Generated_Source\PSoC5/MIDI2_UART.c **** * Return:
 168:Generated_Source\PSoC5/MIDI2_UART.c **** *  None.
 169:Generated_Source\PSoC5/MIDI2_UART.c **** *
 170:Generated_Source\PSoC5/MIDI2_UART.c **** * Global Variables:
 171:Generated_Source\PSoC5/MIDI2_UART.c **** *  MIDI2_UART_rxAddressDetected - set to initial state (0).
 172:Generated_Source\PSoC5/MIDI2_UART.c **** *
ARM GAS  C:\Users\jmdevoto\AppData\Local\Temp\ccZJqqkc.s 			page 6


 173:Generated_Source\PSoC5/MIDI2_UART.c **** *******************************************************************************/
 174:Generated_Source\PSoC5/MIDI2_UART.c **** void MIDI2_UART_Enable(void) 
 175:Generated_Source\PSoC5/MIDI2_UART.c **** {
 108              		.loc 1 175 0
 109              		.cfi_startproc
 110              		@ args = 0, pretend = 0, frame = 0
 111              		@ frame_needed = 0, uses_anonymous_args = 0
 112 0000 38B5     		push	{r3, r4, r5, lr}
 113              		.cfi_def_cfa_offset 16
 114              		.cfi_offset 3, -16
 115              		.cfi_offset 4, -12
 116              		.cfi_offset 5, -8
 117              		.cfi_offset 14, -4
 176:Generated_Source\PSoC5/MIDI2_UART.c ****     uint8 enableInterrupts;
 177:Generated_Source\PSoC5/MIDI2_UART.c ****     enableInterrupts = CyEnterCriticalSection();
 118              		.loc 1 177 0
 119 0002 FFF7FEFF 		bl	CyEnterCriticalSection
 120              	.LVL4:
 178:Generated_Source\PSoC5/MIDI2_UART.c **** 
 179:Generated_Source\PSoC5/MIDI2_UART.c ****     #if(MIDI2_UART_RX_ENABLED || MIDI2_UART_HD_ENABLED)
 180:Generated_Source\PSoC5/MIDI2_UART.c ****         /*RX Counter (Count7) Enable */
 181:Generated_Source\PSoC5/MIDI2_UART.c ****         MIDI2_UART_RXBITCTR_CONTROL_REG |= MIDI2_UART_CNTR_ENABLE;
 121              		.loc 1 181 0
 122 0006 0C49     		ldr	r1, .L7
 182:Generated_Source\PSoC5/MIDI2_UART.c ****         /* Enable the RX Interrupt. */
 183:Generated_Source\PSoC5/MIDI2_UART.c ****         MIDI2_UART_RXSTATUS_ACTL_REG  |= MIDI2_UART_INT_ENABLE;
 123              		.loc 1 183 0
 124 0008 0C4C     		ldr	r4, .L7+4
 181:Generated_Source\PSoC5/MIDI2_UART.c ****         /* Enable the RX Interrupt. */
 125              		.loc 1 181 0
 126 000a 0B78     		ldrb	r3, [r1]	@ zero_extendqisi2
 184:Generated_Source\PSoC5/MIDI2_UART.c ****         #if(MIDI2_UART_RX_INTERRUPT_ENABLED && (MIDI2_UART_RXBUFFERSIZE > MIDI2_UART_FIFO_LENGTH))
 185:Generated_Source\PSoC5/MIDI2_UART.c ****             CyIntEnable(MIDI2_UART_RX_VECT_NUM);
 127              		.loc 1 185 0
 128 000c 0C4A     		ldr	r2, .L7+8
 181:Generated_Source\PSoC5/MIDI2_UART.c ****         /* Enable the RX Interrupt. */
 129              		.loc 1 181 0
 130 000e 43F02003 		orr	r3, r3, #32
 131 0012 0B70     		strb	r3, [r1]
 183:Generated_Source\PSoC5/MIDI2_UART.c ****         #if(MIDI2_UART_RX_INTERRUPT_ENABLED && (MIDI2_UART_RXBUFFERSIZE > MIDI2_UART_FIFO_LENGTH))
 132              		.loc 1 183 0
 133 0014 2378     		ldrb	r3, [r4]	@ zero_extendqisi2
 134              		.loc 1 185 0
 135 0016 2025     		movs	r5, #32
 183:Generated_Source\PSoC5/MIDI2_UART.c ****         #if(MIDI2_UART_RX_INTERRUPT_ENABLED && (MIDI2_UART_RXBUFFERSIZE > MIDI2_UART_FIFO_LENGTH))
 136              		.loc 1 183 0
 137 0018 43F01003 		orr	r3, r3, #16
 138 001c 2370     		strb	r3, [r4]
 186:Generated_Source\PSoC5/MIDI2_UART.c ****             #if (MIDI2_UART_RXHW_ADDRESS_ENABLED)
 187:Generated_Source\PSoC5/MIDI2_UART.c ****                 MIDI2_UART_rxAddressDetected = 0u;
 188:Generated_Source\PSoC5/MIDI2_UART.c ****             #endif /* End MIDI2_UART_RXHW_ADDRESS_ENABLED */
 189:Generated_Source\PSoC5/MIDI2_UART.c ****         #endif /* End MIDI2_UART_RX_INTERRUPT_ENABLED */
 190:Generated_Source\PSoC5/MIDI2_UART.c ****     #endif /* End MIDI2_UART_RX_ENABLED || MIDI2_UART_HD_ENABLED*/
 191:Generated_Source\PSoC5/MIDI2_UART.c **** 
 192:Generated_Source\PSoC5/MIDI2_UART.c ****     #if(MIDI2_UART_TX_ENABLED)
 193:Generated_Source\PSoC5/MIDI2_UART.c ****         /*TX Counter (DP/Count7) Enable */
 194:Generated_Source\PSoC5/MIDI2_UART.c ****         #if(!MIDI2_UART_TXCLKGEN_DP)
ARM GAS  C:\Users\jmdevoto\AppData\Local\Temp\ccZJqqkc.s 			page 7


 195:Generated_Source\PSoC5/MIDI2_UART.c ****             MIDI2_UART_TXBITCTR_CONTROL_REG |= MIDI2_UART_CNTR_ENABLE;
 196:Generated_Source\PSoC5/MIDI2_UART.c ****         #endif /* End MIDI2_UART_TXCLKGEN_DP */
 197:Generated_Source\PSoC5/MIDI2_UART.c ****         /* Enable the TX Interrupt. */
 198:Generated_Source\PSoC5/MIDI2_UART.c ****         MIDI2_UART_TXSTATUS_ACTL_REG |= MIDI2_UART_INT_ENABLE;
 139              		.loc 1 198 0
 140 001e A1F58171 		sub	r1, r1, #258
 185:Generated_Source\PSoC5/MIDI2_UART.c ****             #if (MIDI2_UART_RXHW_ADDRESS_ENABLED)
 141              		.loc 1 185 0
 142 0022 1560     		str	r5, [r2]
 143              		.loc 1 198 0
 144 0024 0B78     		ldrb	r3, [r1]	@ zero_extendqisi2
 199:Generated_Source\PSoC5/MIDI2_UART.c ****         #if(MIDI2_UART_TX_INTERRUPT_ENABLED && (MIDI2_UART_TXBUFFERSIZE > MIDI2_UART_FIFO_LENGTH))
 200:Generated_Source\PSoC5/MIDI2_UART.c ****             CyIntEnable(MIDI2_UART_TX_VECT_NUM);
 145              		.loc 1 200 0
 146 0026 4024     		movs	r4, #64
 198:Generated_Source\PSoC5/MIDI2_UART.c ****         #if(MIDI2_UART_TX_INTERRUPT_ENABLED && (MIDI2_UART_TXBUFFERSIZE > MIDI2_UART_FIFO_LENGTH))
 147              		.loc 1 198 0
 148 0028 43F01003 		orr	r3, r3, #16
 149 002c 0B70     		strb	r3, [r1]
 150              		.loc 1 200 0
 151 002e 1460     		str	r4, [r2]
 201:Generated_Source\PSoC5/MIDI2_UART.c ****         #endif /* End MIDI2_UART_TX_INTERRUPT_ENABLED*/
 202:Generated_Source\PSoC5/MIDI2_UART.c ****      #endif /* End MIDI2_UART_TX_ENABLED */
 203:Generated_Source\PSoC5/MIDI2_UART.c **** 
 204:Generated_Source\PSoC5/MIDI2_UART.c ****     #if(MIDI2_UART_INTERNAL_CLOCK_USED)
 205:Generated_Source\PSoC5/MIDI2_UART.c ****         /* Enable the clock. */
 206:Generated_Source\PSoC5/MIDI2_UART.c ****         MIDI2_UART_IntClock_Start();
 207:Generated_Source\PSoC5/MIDI2_UART.c ****     #endif /* End MIDI2_UART_INTERNAL_CLOCK_USED */
 208:Generated_Source\PSoC5/MIDI2_UART.c **** 
 209:Generated_Source\PSoC5/MIDI2_UART.c ****     CyExitCriticalSection(enableInterrupts);
 210:Generated_Source\PSoC5/MIDI2_UART.c **** }
 152              		.loc 1 210 0
 153 0030 BDE83840 		pop	{r3, r4, r5, lr}
 154              		.cfi_restore 14
 155              		.cfi_restore 5
 156              		.cfi_restore 4
 157              		.cfi_restore 3
 158              		.cfi_def_cfa_offset 0
 209:Generated_Source\PSoC5/MIDI2_UART.c **** }
 159              		.loc 1 209 0
 160 0034 FFF7FEBF 		b	CyExitCriticalSection
 161              	.LVL5:
 162              	.L8:
 163              		.align	2
 164              	.L7:
 165 0038 95650040 		.word	1073767829
 166 003c 96640040 		.word	1073767574
 167 0040 00E100E0 		.word	-536813312
 168              		.cfi_endproc
 169              	.LFE2:
 170              		.size	MIDI2_UART_Enable, .-MIDI2_UART_Enable
 171              		.section	.text.MIDI2_UART_Start,"ax",%progbits
 172              		.align	2
 173              		.global	MIDI2_UART_Start
 174              		.thumb
 175              		.thumb_func
 176              		.type	MIDI2_UART_Start, %function
ARM GAS  C:\Users\jmdevoto\AppData\Local\Temp\ccZJqqkc.s 			page 8


 177              	MIDI2_UART_Start:
 178              	.LFB0:
  74:Generated_Source\PSoC5/MIDI2_UART.c ****     /* If not Initialized then initialize all required hardware and software */
 179              		.loc 1 74 0
 180              		.cfi_startproc
 181              		@ args = 0, pretend = 0, frame = 0
 182              		@ frame_needed = 0, uses_anonymous_args = 0
 183 0000 10B5     		push	{r4, lr}
 184              		.cfi_def_cfa_offset 8
 185              		.cfi_offset 4, -8
 186              		.cfi_offset 14, -4
  76:Generated_Source\PSoC5/MIDI2_UART.c ****     {
 187              		.loc 1 76 0
 188 0002 054C     		ldr	r4, .L13
 189 0004 2378     		ldrb	r3, [r4]	@ zero_extendqisi2
 190 0006 1BB9     		cbnz	r3, .L10
  78:Generated_Source\PSoC5/MIDI2_UART.c ****         MIDI2_UART_initVar = 1u;
 191              		.loc 1 78 0
 192 0008 FFF7FEFF 		bl	MIDI2_UART_Init
 193              	.LVL6:
  79:Generated_Source\PSoC5/MIDI2_UART.c ****     }
 194              		.loc 1 79 0
 195 000c 0123     		movs	r3, #1
 196 000e 2370     		strb	r3, [r4]
 197              	.L10:
  82:Generated_Source\PSoC5/MIDI2_UART.c **** 
 198              		.loc 1 82 0
 199 0010 BDE81040 		pop	{r4, lr}
 200              		.cfi_restore 14
 201              		.cfi_restore 4
 202              		.cfi_def_cfa_offset 0
  81:Generated_Source\PSoC5/MIDI2_UART.c **** }
 203              		.loc 1 81 0
 204 0014 FFF7FEBF 		b	MIDI2_UART_Enable
 205              	.LVL7:
 206              	.L14:
 207              		.align	2
 208              	.L13:
 209 0018 00000000 		.word	.LANCHOR0
 210              		.cfi_endproc
 211              	.LFE0:
 212              		.size	MIDI2_UART_Start, .-MIDI2_UART_Start
 213              		.section	.text.MIDI2_UART_Stop,"ax",%progbits
 214              		.align	2
 215              		.global	MIDI2_UART_Stop
 216              		.thumb
 217              		.thumb_func
 218              		.type	MIDI2_UART_Stop, %function
 219              	MIDI2_UART_Stop:
 220              	.LFB3:
 211:Generated_Source\PSoC5/MIDI2_UART.c **** 
 212:Generated_Source\PSoC5/MIDI2_UART.c **** 
 213:Generated_Source\PSoC5/MIDI2_UART.c **** /*******************************************************************************
 214:Generated_Source\PSoC5/MIDI2_UART.c **** * Function Name: MIDI2_UART_Stop
 215:Generated_Source\PSoC5/MIDI2_UART.c **** ********************************************************************************
 216:Generated_Source\PSoC5/MIDI2_UART.c **** *
 217:Generated_Source\PSoC5/MIDI2_UART.c **** * Summary:
ARM GAS  C:\Users\jmdevoto\AppData\Local\Temp\ccZJqqkc.s 			page 9


 218:Generated_Source\PSoC5/MIDI2_UART.c **** *  Disable the UART component
 219:Generated_Source\PSoC5/MIDI2_UART.c **** *
 220:Generated_Source\PSoC5/MIDI2_UART.c **** * Parameters:
 221:Generated_Source\PSoC5/MIDI2_UART.c **** *  None.
 222:Generated_Source\PSoC5/MIDI2_UART.c **** *
 223:Generated_Source\PSoC5/MIDI2_UART.c **** * Return:
 224:Generated_Source\PSoC5/MIDI2_UART.c **** *  None.
 225:Generated_Source\PSoC5/MIDI2_UART.c **** *
 226:Generated_Source\PSoC5/MIDI2_UART.c **** *******************************************************************************/
 227:Generated_Source\PSoC5/MIDI2_UART.c **** void MIDI2_UART_Stop(void) 
 228:Generated_Source\PSoC5/MIDI2_UART.c **** {
 221              		.loc 1 228 0
 222              		.cfi_startproc
 223              		@ args = 0, pretend = 0, frame = 0
 224              		@ frame_needed = 0, uses_anonymous_args = 0
 225 0000 38B5     		push	{r3, r4, r5, lr}
 226              		.cfi_def_cfa_offset 16
 227              		.cfi_offset 3, -16
 228              		.cfi_offset 4, -12
 229              		.cfi_offset 5, -8
 230              		.cfi_offset 14, -4
 229:Generated_Source\PSoC5/MIDI2_UART.c ****     uint8 enableInterrupts;
 230:Generated_Source\PSoC5/MIDI2_UART.c ****     enableInterrupts = CyEnterCriticalSection();
 231              		.loc 1 230 0
 232 0002 FFF7FEFF 		bl	CyEnterCriticalSection
 233              	.LVL8:
 231:Generated_Source\PSoC5/MIDI2_UART.c **** 
 232:Generated_Source\PSoC5/MIDI2_UART.c ****     /* Write Bit Counter Disable */
 233:Generated_Source\PSoC5/MIDI2_UART.c ****     #if(MIDI2_UART_RX_ENABLED || MIDI2_UART_HD_ENABLED)
 234:Generated_Source\PSoC5/MIDI2_UART.c ****         MIDI2_UART_RXBITCTR_CONTROL_REG &= (uint8)~MIDI2_UART_CNTR_ENABLE;
 234              		.loc 1 234 0
 235 0006 0C49     		ldr	r1, .L17
 235:Generated_Source\PSoC5/MIDI2_UART.c ****     #endif /* End MIDI2_UART_RX_ENABLED */
 236:Generated_Source\PSoC5/MIDI2_UART.c **** 
 237:Generated_Source\PSoC5/MIDI2_UART.c ****     #if(MIDI2_UART_TX_ENABLED)
 238:Generated_Source\PSoC5/MIDI2_UART.c ****         #if(!MIDI2_UART_TXCLKGEN_DP)
 239:Generated_Source\PSoC5/MIDI2_UART.c ****             MIDI2_UART_TXBITCTR_CONTROL_REG &= (uint8)~MIDI2_UART_CNTR_ENABLE;
 240:Generated_Source\PSoC5/MIDI2_UART.c ****         #endif /* End MIDI2_UART_TXCLKGEN_DP */
 241:Generated_Source\PSoC5/MIDI2_UART.c ****     #endif /* MIDI2_UART_TX_ENABLED */
 242:Generated_Source\PSoC5/MIDI2_UART.c **** 
 243:Generated_Source\PSoC5/MIDI2_UART.c ****     #if(MIDI2_UART_INTERNAL_CLOCK_USED)
 244:Generated_Source\PSoC5/MIDI2_UART.c ****         /* Disable the clock. */
 245:Generated_Source\PSoC5/MIDI2_UART.c ****         MIDI2_UART_IntClock_Stop();
 246:Generated_Source\PSoC5/MIDI2_UART.c ****     #endif /* End MIDI2_UART_INTERNAL_CLOCK_USED */
 247:Generated_Source\PSoC5/MIDI2_UART.c **** 
 248:Generated_Source\PSoC5/MIDI2_UART.c ****     /* Disable internal interrupt component */
 249:Generated_Source\PSoC5/MIDI2_UART.c ****     #if(MIDI2_UART_RX_ENABLED || MIDI2_UART_HD_ENABLED)
 250:Generated_Source\PSoC5/MIDI2_UART.c ****         MIDI2_UART_RXSTATUS_ACTL_REG  &= (uint8)~MIDI2_UART_INT_ENABLE;
 236              		.loc 1 250 0
 237 0008 0C4C     		ldr	r4, .L17+4
 234:Generated_Source\PSoC5/MIDI2_UART.c ****     #endif /* End MIDI2_UART_RX_ENABLED */
 238              		.loc 1 234 0
 239 000a 0B78     		ldrb	r3, [r1]	@ zero_extendqisi2
 240              	.LBB36:
 241              	.LBB37:
 251:Generated_Source\PSoC5/MIDI2_UART.c ****         #if(MIDI2_UART_RX_INTERRUPT_ENABLED && (MIDI2_UART_RXBUFFERSIZE > MIDI2_UART_FIFO_LENGTH))
 252:Generated_Source\PSoC5/MIDI2_UART.c ****             MIDI2_UART_DisableRxInt();
ARM GAS  C:\Users\jmdevoto\AppData\Local\Temp\ccZJqqkc.s 			page 10


 253:Generated_Source\PSoC5/MIDI2_UART.c ****         #endif /* End MIDI2_UART_RX_INTERRUPT_ENABLED */
 254:Generated_Source\PSoC5/MIDI2_UART.c ****     #endif /* End MIDI2_UART_RX_ENABLED */
 255:Generated_Source\PSoC5/MIDI2_UART.c **** 
 256:Generated_Source\PSoC5/MIDI2_UART.c ****     #if(MIDI2_UART_TX_ENABLED)
 257:Generated_Source\PSoC5/MIDI2_UART.c ****         MIDI2_UART_TXSTATUS_ACTL_REG &= (uint8)~MIDI2_UART_INT_ENABLE;
 258:Generated_Source\PSoC5/MIDI2_UART.c ****         #if(MIDI2_UART_TX_INTERRUPT_ENABLED && (MIDI2_UART_TXBUFFERSIZE > MIDI2_UART_FIFO_LENGTH))
 259:Generated_Source\PSoC5/MIDI2_UART.c ****             MIDI2_UART_DisableTxInt();
 260:Generated_Source\PSoC5/MIDI2_UART.c ****         #endif /* End MIDI2_UART_TX_INTERRUPT_ENABLED */
 261:Generated_Source\PSoC5/MIDI2_UART.c ****     #endif /* End MIDI2_UART_TX_ENABLED */
 262:Generated_Source\PSoC5/MIDI2_UART.c **** 
 263:Generated_Source\PSoC5/MIDI2_UART.c ****     CyExitCriticalSection(enableInterrupts);
 264:Generated_Source\PSoC5/MIDI2_UART.c **** }
 265:Generated_Source\PSoC5/MIDI2_UART.c **** 
 266:Generated_Source\PSoC5/MIDI2_UART.c **** 
 267:Generated_Source\PSoC5/MIDI2_UART.c **** /*******************************************************************************
 268:Generated_Source\PSoC5/MIDI2_UART.c **** * Function Name: MIDI2_UART_ReadControlRegister
 269:Generated_Source\PSoC5/MIDI2_UART.c **** ********************************************************************************
 270:Generated_Source\PSoC5/MIDI2_UART.c **** *
 271:Generated_Source\PSoC5/MIDI2_UART.c **** * Summary:
 272:Generated_Source\PSoC5/MIDI2_UART.c **** *  Read the current state of the control register
 273:Generated_Source\PSoC5/MIDI2_UART.c **** *
 274:Generated_Source\PSoC5/MIDI2_UART.c **** * Parameters:
 275:Generated_Source\PSoC5/MIDI2_UART.c **** *  None.
 276:Generated_Source\PSoC5/MIDI2_UART.c **** *
 277:Generated_Source\PSoC5/MIDI2_UART.c **** * Return:
 278:Generated_Source\PSoC5/MIDI2_UART.c **** *  Current state of the control register.
 279:Generated_Source\PSoC5/MIDI2_UART.c **** *
 280:Generated_Source\PSoC5/MIDI2_UART.c **** *******************************************************************************/
 281:Generated_Source\PSoC5/MIDI2_UART.c **** uint8 MIDI2_UART_ReadControlRegister(void) 
 282:Generated_Source\PSoC5/MIDI2_UART.c **** {
 283:Generated_Source\PSoC5/MIDI2_UART.c ****     #if( MIDI2_UART_CONTROL_REG_REMOVED )
 284:Generated_Source\PSoC5/MIDI2_UART.c ****         return(0u);
 285:Generated_Source\PSoC5/MIDI2_UART.c ****     #else
 286:Generated_Source\PSoC5/MIDI2_UART.c ****         return(MIDI2_UART_CONTROL_REG);
 287:Generated_Source\PSoC5/MIDI2_UART.c ****     #endif /* End MIDI2_UART_CONTROL_REG_REMOVED */
 288:Generated_Source\PSoC5/MIDI2_UART.c **** }
 289:Generated_Source\PSoC5/MIDI2_UART.c **** 
 290:Generated_Source\PSoC5/MIDI2_UART.c **** 
 291:Generated_Source\PSoC5/MIDI2_UART.c **** /*******************************************************************************
 292:Generated_Source\PSoC5/MIDI2_UART.c **** * Function Name: MIDI2_UART_WriteControlRegister
 293:Generated_Source\PSoC5/MIDI2_UART.c **** ********************************************************************************
 294:Generated_Source\PSoC5/MIDI2_UART.c **** *
 295:Generated_Source\PSoC5/MIDI2_UART.c **** * Summary:
 296:Generated_Source\PSoC5/MIDI2_UART.c **** *  Writes an 8-bit value into the control register
 297:Generated_Source\PSoC5/MIDI2_UART.c **** *
 298:Generated_Source\PSoC5/MIDI2_UART.c **** * Parameters:
 299:Generated_Source\PSoC5/MIDI2_UART.c **** *  control:  control register value
 300:Generated_Source\PSoC5/MIDI2_UART.c **** *
 301:Generated_Source\PSoC5/MIDI2_UART.c **** * Return:
 302:Generated_Source\PSoC5/MIDI2_UART.c **** *  None.
 303:Generated_Source\PSoC5/MIDI2_UART.c **** *
 304:Generated_Source\PSoC5/MIDI2_UART.c **** *******************************************************************************/
 305:Generated_Source\PSoC5/MIDI2_UART.c **** void  MIDI2_UART_WriteControlRegister(uint8 control) 
 306:Generated_Source\PSoC5/MIDI2_UART.c **** {
 307:Generated_Source\PSoC5/MIDI2_UART.c ****     #if( MIDI2_UART_CONTROL_REG_REMOVED )
 308:Generated_Source\PSoC5/MIDI2_UART.c ****         if(control != 0u) { }      /* release compiler warning */
 309:Generated_Source\PSoC5/MIDI2_UART.c ****     #else
ARM GAS  C:\Users\jmdevoto\AppData\Local\Temp\ccZJqqkc.s 			page 11


 310:Generated_Source\PSoC5/MIDI2_UART.c ****        MIDI2_UART_CONTROL_REG = control;
 311:Generated_Source\PSoC5/MIDI2_UART.c ****     #endif /* End MIDI2_UART_CONTROL_REG_REMOVED */
 312:Generated_Source\PSoC5/MIDI2_UART.c **** }
 313:Generated_Source\PSoC5/MIDI2_UART.c **** 
 314:Generated_Source\PSoC5/MIDI2_UART.c **** 
 315:Generated_Source\PSoC5/MIDI2_UART.c **** #if(MIDI2_UART_RX_ENABLED || MIDI2_UART_HD_ENABLED)
 316:Generated_Source\PSoC5/MIDI2_UART.c **** 
 317:Generated_Source\PSoC5/MIDI2_UART.c ****     #if(MIDI2_UART_RX_INTERRUPT_ENABLED)
 318:Generated_Source\PSoC5/MIDI2_UART.c **** 
 319:Generated_Source\PSoC5/MIDI2_UART.c ****         /*******************************************************************************
 320:Generated_Source\PSoC5/MIDI2_UART.c ****         * Function Name: MIDI2_UART_EnableRxInt
 321:Generated_Source\PSoC5/MIDI2_UART.c ****         ********************************************************************************
 322:Generated_Source\PSoC5/MIDI2_UART.c ****         *
 323:Generated_Source\PSoC5/MIDI2_UART.c ****         * Summary:
 324:Generated_Source\PSoC5/MIDI2_UART.c ****         *  Enable RX interrupt generation
 325:Generated_Source\PSoC5/MIDI2_UART.c ****         *
 326:Generated_Source\PSoC5/MIDI2_UART.c ****         * Parameters:
 327:Generated_Source\PSoC5/MIDI2_UART.c ****         *  None.
 328:Generated_Source\PSoC5/MIDI2_UART.c ****         *
 329:Generated_Source\PSoC5/MIDI2_UART.c ****         * Return:
 330:Generated_Source\PSoC5/MIDI2_UART.c ****         *  None.
 331:Generated_Source\PSoC5/MIDI2_UART.c ****         *
 332:Generated_Source\PSoC5/MIDI2_UART.c ****         * Theory:
 333:Generated_Source\PSoC5/MIDI2_UART.c ****         *  Enable the interrupt output -or- the interrupt component itself
 334:Generated_Source\PSoC5/MIDI2_UART.c ****         *
 335:Generated_Source\PSoC5/MIDI2_UART.c ****         *******************************************************************************/
 336:Generated_Source\PSoC5/MIDI2_UART.c ****         void MIDI2_UART_EnableRxInt(void) 
 337:Generated_Source\PSoC5/MIDI2_UART.c ****         {
 338:Generated_Source\PSoC5/MIDI2_UART.c ****             CyIntEnable(MIDI2_UART_RX_VECT_NUM);
 339:Generated_Source\PSoC5/MIDI2_UART.c ****         }
 340:Generated_Source\PSoC5/MIDI2_UART.c **** 
 341:Generated_Source\PSoC5/MIDI2_UART.c **** 
 342:Generated_Source\PSoC5/MIDI2_UART.c ****         /*******************************************************************************
 343:Generated_Source\PSoC5/MIDI2_UART.c ****         * Function Name: MIDI2_UART_DisableRxInt
 344:Generated_Source\PSoC5/MIDI2_UART.c ****         ********************************************************************************
 345:Generated_Source\PSoC5/MIDI2_UART.c ****         *
 346:Generated_Source\PSoC5/MIDI2_UART.c ****         * Summary:
 347:Generated_Source\PSoC5/MIDI2_UART.c ****         *  Disable RX interrupt generation
 348:Generated_Source\PSoC5/MIDI2_UART.c ****         *
 349:Generated_Source\PSoC5/MIDI2_UART.c ****         * Parameters:
 350:Generated_Source\PSoC5/MIDI2_UART.c ****         *  None.
 351:Generated_Source\PSoC5/MIDI2_UART.c ****         *
 352:Generated_Source\PSoC5/MIDI2_UART.c ****         * Return:
 353:Generated_Source\PSoC5/MIDI2_UART.c ****         *  None.
 354:Generated_Source\PSoC5/MIDI2_UART.c ****         *
 355:Generated_Source\PSoC5/MIDI2_UART.c ****         * Theory:
 356:Generated_Source\PSoC5/MIDI2_UART.c ****         *  Disable the interrupt output -or- the interrupt component itself
 357:Generated_Source\PSoC5/MIDI2_UART.c ****         *
 358:Generated_Source\PSoC5/MIDI2_UART.c ****         *******************************************************************************/
 359:Generated_Source\PSoC5/MIDI2_UART.c ****         void MIDI2_UART_DisableRxInt(void) 
 360:Generated_Source\PSoC5/MIDI2_UART.c ****         {
 361:Generated_Source\PSoC5/MIDI2_UART.c ****             CyIntDisable(MIDI2_UART_RX_VECT_NUM);
 242              		.loc 1 361 0
 243 000c 0C4A     		ldr	r2, .L17+8
 244              	.LBE37:
 245              	.LBE36:
 234:Generated_Source\PSoC5/MIDI2_UART.c ****     #endif /* End MIDI2_UART_RX_ENABLED */
ARM GAS  C:\Users\jmdevoto\AppData\Local\Temp\ccZJqqkc.s 			page 12


 246              		.loc 1 234 0
 247 000e 03F0DF03 		and	r3, r3, #223
 248 0012 0B70     		strb	r3, [r1]
 250:Generated_Source\PSoC5/MIDI2_UART.c ****         #if(MIDI2_UART_RX_INTERRUPT_ENABLED && (MIDI2_UART_RXBUFFERSIZE > MIDI2_UART_FIFO_LENGTH))
 249              		.loc 1 250 0
 250 0014 2378     		ldrb	r3, [r4]	@ zero_extendqisi2
 251              	.LBB40:
 252              	.LBB38:
 253              		.loc 1 361 0
 254 0016 2025     		movs	r5, #32
 255              	.LBE38:
 256              	.LBE40:
 250:Generated_Source\PSoC5/MIDI2_UART.c ****         #if(MIDI2_UART_RX_INTERRUPT_ENABLED && (MIDI2_UART_RXBUFFERSIZE > MIDI2_UART_FIFO_LENGTH))
 257              		.loc 1 250 0
 258 0018 03F0EF03 		and	r3, r3, #239
 259 001c 2370     		strb	r3, [r4]
 257:Generated_Source\PSoC5/MIDI2_UART.c ****         #if(MIDI2_UART_TX_INTERRUPT_ENABLED && (MIDI2_UART_TXBUFFERSIZE > MIDI2_UART_FIFO_LENGTH))
 260              		.loc 1 257 0
 261 001e A1F58171 		sub	r1, r1, #258
 262              	.LBB41:
 263              	.LBB39:
 264              		.loc 1 361 0
 265 0022 1560     		str	r5, [r2]
 266              	.LBE39:
 267              	.LBE41:
 257:Generated_Source\PSoC5/MIDI2_UART.c ****         #if(MIDI2_UART_TX_INTERRUPT_ENABLED && (MIDI2_UART_TXBUFFERSIZE > MIDI2_UART_FIFO_LENGTH))
 268              		.loc 1 257 0
 269 0024 0B78     		ldrb	r3, [r1]	@ zero_extendqisi2
 270              	.LBB42:
 271              	.LBB43:
 362:Generated_Source\PSoC5/MIDI2_UART.c ****         }
 363:Generated_Source\PSoC5/MIDI2_UART.c **** 
 364:Generated_Source\PSoC5/MIDI2_UART.c ****     #endif /* MIDI2_UART_RX_INTERRUPT_ENABLED */
 365:Generated_Source\PSoC5/MIDI2_UART.c **** 
 366:Generated_Source\PSoC5/MIDI2_UART.c **** 
 367:Generated_Source\PSoC5/MIDI2_UART.c ****     /*******************************************************************************
 368:Generated_Source\PSoC5/MIDI2_UART.c ****     * Function Name: MIDI2_UART_SetRxInterruptMode
 369:Generated_Source\PSoC5/MIDI2_UART.c ****     ********************************************************************************
 370:Generated_Source\PSoC5/MIDI2_UART.c ****     *
 371:Generated_Source\PSoC5/MIDI2_UART.c ****     * Summary:
 372:Generated_Source\PSoC5/MIDI2_UART.c ****     *  Configure which status bits trigger an interrupt event
 373:Generated_Source\PSoC5/MIDI2_UART.c ****     *
 374:Generated_Source\PSoC5/MIDI2_UART.c ****     * Parameters:
 375:Generated_Source\PSoC5/MIDI2_UART.c ****     *  IntSrc:  An or'd combination of the desired status bit masks (defined in
 376:Generated_Source\PSoC5/MIDI2_UART.c ****     *           the header file)
 377:Generated_Source\PSoC5/MIDI2_UART.c ****     *
 378:Generated_Source\PSoC5/MIDI2_UART.c ****     * Return:
 379:Generated_Source\PSoC5/MIDI2_UART.c ****     *  None.
 380:Generated_Source\PSoC5/MIDI2_UART.c ****     *
 381:Generated_Source\PSoC5/MIDI2_UART.c ****     * Theory:
 382:Generated_Source\PSoC5/MIDI2_UART.c ****     *  Enables the output of specific status bits to the interrupt controller
 383:Generated_Source\PSoC5/MIDI2_UART.c ****     *
 384:Generated_Source\PSoC5/MIDI2_UART.c ****     *******************************************************************************/
 385:Generated_Source\PSoC5/MIDI2_UART.c ****     void MIDI2_UART_SetRxInterruptMode(uint8 intSrc) 
 386:Generated_Source\PSoC5/MIDI2_UART.c ****     {
 387:Generated_Source\PSoC5/MIDI2_UART.c ****         MIDI2_UART_RXSTATUS_MASK_REG  = intSrc;
 388:Generated_Source\PSoC5/MIDI2_UART.c ****     }
ARM GAS  C:\Users\jmdevoto\AppData\Local\Temp\ccZJqqkc.s 			page 13


 389:Generated_Source\PSoC5/MIDI2_UART.c **** 
 390:Generated_Source\PSoC5/MIDI2_UART.c **** 
 391:Generated_Source\PSoC5/MIDI2_UART.c ****     /*******************************************************************************
 392:Generated_Source\PSoC5/MIDI2_UART.c ****     * Function Name: MIDI2_UART_ReadRxData
 393:Generated_Source\PSoC5/MIDI2_UART.c ****     ********************************************************************************
 394:Generated_Source\PSoC5/MIDI2_UART.c ****     *
 395:Generated_Source\PSoC5/MIDI2_UART.c ****     * Summary:
 396:Generated_Source\PSoC5/MIDI2_UART.c ****     *  Returns data in RX Data register without checking status register to
 397:Generated_Source\PSoC5/MIDI2_UART.c ****     *  determine if data is valid
 398:Generated_Source\PSoC5/MIDI2_UART.c ****     *
 399:Generated_Source\PSoC5/MIDI2_UART.c ****     * Parameters:
 400:Generated_Source\PSoC5/MIDI2_UART.c ****     *  None.
 401:Generated_Source\PSoC5/MIDI2_UART.c ****     *
 402:Generated_Source\PSoC5/MIDI2_UART.c ****     * Return:
 403:Generated_Source\PSoC5/MIDI2_UART.c ****     *  Received data from RX register
 404:Generated_Source\PSoC5/MIDI2_UART.c ****     *
 405:Generated_Source\PSoC5/MIDI2_UART.c ****     * Global Variables:
 406:Generated_Source\PSoC5/MIDI2_UART.c ****     *  MIDI2_UART_rxBuffer - RAM buffer pointer for save received data.
 407:Generated_Source\PSoC5/MIDI2_UART.c ****     *  MIDI2_UART_rxBufferWrite - cyclic index for write to rxBuffer,
 408:Generated_Source\PSoC5/MIDI2_UART.c ****     *     checked to identify new data.
 409:Generated_Source\PSoC5/MIDI2_UART.c ****     *  MIDI2_UART_rxBufferRead - cyclic index for read from rxBuffer,
 410:Generated_Source\PSoC5/MIDI2_UART.c ****     *     incremented after each byte has been read from buffer.
 411:Generated_Source\PSoC5/MIDI2_UART.c ****     *  MIDI2_UART_rxBufferLoopDetect - creared if loop condition was detected
 412:Generated_Source\PSoC5/MIDI2_UART.c ****     *     in RX ISR.
 413:Generated_Source\PSoC5/MIDI2_UART.c ****     *
 414:Generated_Source\PSoC5/MIDI2_UART.c ****     * Reentrant:
 415:Generated_Source\PSoC5/MIDI2_UART.c ****     *  No.
 416:Generated_Source\PSoC5/MIDI2_UART.c ****     *
 417:Generated_Source\PSoC5/MIDI2_UART.c ****     *******************************************************************************/
 418:Generated_Source\PSoC5/MIDI2_UART.c ****     uint8 MIDI2_UART_ReadRxData(void) 
 419:Generated_Source\PSoC5/MIDI2_UART.c ****     {
 420:Generated_Source\PSoC5/MIDI2_UART.c ****         uint8 rxData;
 421:Generated_Source\PSoC5/MIDI2_UART.c **** 
 422:Generated_Source\PSoC5/MIDI2_UART.c ****         #if(MIDI2_UART_RXBUFFERSIZE > MIDI2_UART_FIFO_LENGTH)
 423:Generated_Source\PSoC5/MIDI2_UART.c ****             uint8 loc_rxBufferRead;
 424:Generated_Source\PSoC5/MIDI2_UART.c ****             uint8 loc_rxBufferWrite;
 425:Generated_Source\PSoC5/MIDI2_UART.c ****             /* Protect variables that could change on interrupt. */
 426:Generated_Source\PSoC5/MIDI2_UART.c ****             /* Disable Rx interrupt. */
 427:Generated_Source\PSoC5/MIDI2_UART.c ****             #if(MIDI2_UART_RX_INTERRUPT_ENABLED)
 428:Generated_Source\PSoC5/MIDI2_UART.c ****                 MIDI2_UART_DisableRxInt();
 429:Generated_Source\PSoC5/MIDI2_UART.c ****             #endif /* MIDI2_UART_RX_INTERRUPT_ENABLED */
 430:Generated_Source\PSoC5/MIDI2_UART.c ****             loc_rxBufferRead = MIDI2_UART_rxBufferRead;
 431:Generated_Source\PSoC5/MIDI2_UART.c ****             loc_rxBufferWrite = MIDI2_UART_rxBufferWrite;
 432:Generated_Source\PSoC5/MIDI2_UART.c **** 
 433:Generated_Source\PSoC5/MIDI2_UART.c ****             if( (MIDI2_UART_rxBufferLoopDetect != 0u) || (loc_rxBufferRead != loc_rxBufferWrite) )
 434:Generated_Source\PSoC5/MIDI2_UART.c ****             {
 435:Generated_Source\PSoC5/MIDI2_UART.c ****                 rxData = MIDI2_UART_rxBuffer[loc_rxBufferRead];
 436:Generated_Source\PSoC5/MIDI2_UART.c ****                 loc_rxBufferRead++;
 437:Generated_Source\PSoC5/MIDI2_UART.c **** 
 438:Generated_Source\PSoC5/MIDI2_UART.c ****                 if(loc_rxBufferRead >= MIDI2_UART_RXBUFFERSIZE)
 439:Generated_Source\PSoC5/MIDI2_UART.c ****                 {
 440:Generated_Source\PSoC5/MIDI2_UART.c ****                     loc_rxBufferRead = 0u;
 441:Generated_Source\PSoC5/MIDI2_UART.c ****                 }
 442:Generated_Source\PSoC5/MIDI2_UART.c ****                 /* Update the real pointer */
 443:Generated_Source\PSoC5/MIDI2_UART.c ****                 MIDI2_UART_rxBufferRead = loc_rxBufferRead;
 444:Generated_Source\PSoC5/MIDI2_UART.c **** 
 445:Generated_Source\PSoC5/MIDI2_UART.c ****                 if(MIDI2_UART_rxBufferLoopDetect != 0u )
ARM GAS  C:\Users\jmdevoto\AppData\Local\Temp\ccZJqqkc.s 			page 14


 446:Generated_Source\PSoC5/MIDI2_UART.c ****                 {
 447:Generated_Source\PSoC5/MIDI2_UART.c ****                     MIDI2_UART_rxBufferLoopDetect = 0u;
 448:Generated_Source\PSoC5/MIDI2_UART.c ****                     #if( (MIDI2_UART_RX_INTERRUPT_ENABLED) && (MIDI2_UART_FLOW_CONTROL != 0u) && \
 449:Generated_Source\PSoC5/MIDI2_UART.c ****                          (MIDI2_UART_RXBUFFERSIZE > MIDI2_UART_FIFO_LENGTH) )
 450:Generated_Source\PSoC5/MIDI2_UART.c ****                         /* When Hardware Flow Control selected - return RX mask */
 451:Generated_Source\PSoC5/MIDI2_UART.c ****                         #if( MIDI2_UART_HD_ENABLED )
 452:Generated_Source\PSoC5/MIDI2_UART.c ****                             if((MIDI2_UART_CONTROL_REG & MIDI2_UART_CTRL_HD_SEND) == 0u)
 453:Generated_Source\PSoC5/MIDI2_UART.c ****                             {   /* In Half duplex mode return RX mask only in RX
 454:Generated_Source\PSoC5/MIDI2_UART.c ****                                 *  configuration set, otherwise
 455:Generated_Source\PSoC5/MIDI2_UART.c ****                                 *  mask will be returned in LoadRxConfig() API.
 456:Generated_Source\PSoC5/MIDI2_UART.c ****                                 */
 457:Generated_Source\PSoC5/MIDI2_UART.c ****                                 MIDI2_UART_RXSTATUS_MASK_REG  |= MIDI2_UART_RX_STS_FIFO_NOTEMPTY;
 458:Generated_Source\PSoC5/MIDI2_UART.c ****                             }
 459:Generated_Source\PSoC5/MIDI2_UART.c ****                         #else
 460:Generated_Source\PSoC5/MIDI2_UART.c ****                             MIDI2_UART_RXSTATUS_MASK_REG  |= MIDI2_UART_RX_STS_FIFO_NOTEMPTY;
 461:Generated_Source\PSoC5/MIDI2_UART.c ****                         #endif /* end MIDI2_UART_HD_ENABLED */
 462:Generated_Source\PSoC5/MIDI2_UART.c ****                     #endif /* MIDI2_UART_RX_INTERRUPT_ENABLED and Hardware flow control*/
 463:Generated_Source\PSoC5/MIDI2_UART.c ****                 }
 464:Generated_Source\PSoC5/MIDI2_UART.c ****             }
 465:Generated_Source\PSoC5/MIDI2_UART.c ****             else
 466:Generated_Source\PSoC5/MIDI2_UART.c ****             {   /* Needs to check status for RX_STS_FIFO_NOTEMPTY bit*/
 467:Generated_Source\PSoC5/MIDI2_UART.c ****                 rxData = MIDI2_UART_RXDATA_REG;
 468:Generated_Source\PSoC5/MIDI2_UART.c ****             }
 469:Generated_Source\PSoC5/MIDI2_UART.c **** 
 470:Generated_Source\PSoC5/MIDI2_UART.c ****             /* Enable Rx interrupt. */
 471:Generated_Source\PSoC5/MIDI2_UART.c ****             #if(MIDI2_UART_RX_INTERRUPT_ENABLED)
 472:Generated_Source\PSoC5/MIDI2_UART.c ****                 MIDI2_UART_EnableRxInt();
 473:Generated_Source\PSoC5/MIDI2_UART.c ****             #endif /* End MIDI2_UART_RX_INTERRUPT_ENABLED */
 474:Generated_Source\PSoC5/MIDI2_UART.c **** 
 475:Generated_Source\PSoC5/MIDI2_UART.c ****         #else /* MIDI2_UART_RXBUFFERSIZE > MIDI2_UART_FIFO_LENGTH */
 476:Generated_Source\PSoC5/MIDI2_UART.c **** 
 477:Generated_Source\PSoC5/MIDI2_UART.c ****             /* Needs to check status for RX_STS_FIFO_NOTEMPTY bit*/
 478:Generated_Source\PSoC5/MIDI2_UART.c ****             rxData = MIDI2_UART_RXDATA_REG;
 479:Generated_Source\PSoC5/MIDI2_UART.c **** 
 480:Generated_Source\PSoC5/MIDI2_UART.c ****         #endif /* MIDI2_UART_RXBUFFERSIZE > MIDI2_UART_FIFO_LENGTH */
 481:Generated_Source\PSoC5/MIDI2_UART.c **** 
 482:Generated_Source\PSoC5/MIDI2_UART.c ****         return(rxData);
 483:Generated_Source\PSoC5/MIDI2_UART.c ****     }
 484:Generated_Source\PSoC5/MIDI2_UART.c **** 
 485:Generated_Source\PSoC5/MIDI2_UART.c **** 
 486:Generated_Source\PSoC5/MIDI2_UART.c ****     /*******************************************************************************
 487:Generated_Source\PSoC5/MIDI2_UART.c ****     * Function Name: MIDI2_UART_ReadRxStatus
 488:Generated_Source\PSoC5/MIDI2_UART.c ****     ********************************************************************************
 489:Generated_Source\PSoC5/MIDI2_UART.c ****     *
 490:Generated_Source\PSoC5/MIDI2_UART.c ****     * Summary:
 491:Generated_Source\PSoC5/MIDI2_UART.c ****     *  Read the current state of the status register
 492:Generated_Source\PSoC5/MIDI2_UART.c ****     *  And detect software buffer overflow.
 493:Generated_Source\PSoC5/MIDI2_UART.c ****     *
 494:Generated_Source\PSoC5/MIDI2_UART.c ****     * Parameters:
 495:Generated_Source\PSoC5/MIDI2_UART.c ****     *  None.
 496:Generated_Source\PSoC5/MIDI2_UART.c ****     *
 497:Generated_Source\PSoC5/MIDI2_UART.c ****     * Return:
 498:Generated_Source\PSoC5/MIDI2_UART.c ****     *  Current state of the status register.
 499:Generated_Source\PSoC5/MIDI2_UART.c ****     *
 500:Generated_Source\PSoC5/MIDI2_UART.c ****     * Global Variables:
 501:Generated_Source\PSoC5/MIDI2_UART.c ****     *  MIDI2_UART_rxBufferOverflow - used to indicate overload condition.
 502:Generated_Source\PSoC5/MIDI2_UART.c ****     *   It set to one in RX interrupt when there isn?t free space in
ARM GAS  C:\Users\jmdevoto\AppData\Local\Temp\ccZJqqkc.s 			page 15


 503:Generated_Source\PSoC5/MIDI2_UART.c ****     *   MIDI2_UART_rxBufferRead to write new data. This condition returned
 504:Generated_Source\PSoC5/MIDI2_UART.c ****     *   and cleared to zero by this API as an
 505:Generated_Source\PSoC5/MIDI2_UART.c ****     *   MIDI2_UART_RX_STS_SOFT_BUFF_OVER bit along with RX Status register
 506:Generated_Source\PSoC5/MIDI2_UART.c ****     *   bits.
 507:Generated_Source\PSoC5/MIDI2_UART.c ****     *
 508:Generated_Source\PSoC5/MIDI2_UART.c ****     *******************************************************************************/
 509:Generated_Source\PSoC5/MIDI2_UART.c ****     uint8 MIDI2_UART_ReadRxStatus(void) 
 510:Generated_Source\PSoC5/MIDI2_UART.c ****     {
 511:Generated_Source\PSoC5/MIDI2_UART.c ****         uint8 status;
 512:Generated_Source\PSoC5/MIDI2_UART.c **** 
 513:Generated_Source\PSoC5/MIDI2_UART.c ****         status = MIDI2_UART_RXSTATUS_REG & MIDI2_UART_RX_HW_MASK;
 514:Generated_Source\PSoC5/MIDI2_UART.c **** 
 515:Generated_Source\PSoC5/MIDI2_UART.c ****         #if(MIDI2_UART_RXBUFFERSIZE > MIDI2_UART_FIFO_LENGTH)
 516:Generated_Source\PSoC5/MIDI2_UART.c ****             if( MIDI2_UART_rxBufferOverflow != 0u )
 517:Generated_Source\PSoC5/MIDI2_UART.c ****             {
 518:Generated_Source\PSoC5/MIDI2_UART.c ****                 status |= MIDI2_UART_RX_STS_SOFT_BUFF_OVER;
 519:Generated_Source\PSoC5/MIDI2_UART.c ****                 MIDI2_UART_rxBufferOverflow = 0u;
 520:Generated_Source\PSoC5/MIDI2_UART.c ****             }
 521:Generated_Source\PSoC5/MIDI2_UART.c ****         #endif /* MIDI2_UART_RXBUFFERSIZE */
 522:Generated_Source\PSoC5/MIDI2_UART.c **** 
 523:Generated_Source\PSoC5/MIDI2_UART.c ****         return(status);
 524:Generated_Source\PSoC5/MIDI2_UART.c ****     }
 525:Generated_Source\PSoC5/MIDI2_UART.c **** 
 526:Generated_Source\PSoC5/MIDI2_UART.c **** 
 527:Generated_Source\PSoC5/MIDI2_UART.c ****     /*******************************************************************************
 528:Generated_Source\PSoC5/MIDI2_UART.c ****     * Function Name: MIDI2_UART_GetChar
 529:Generated_Source\PSoC5/MIDI2_UART.c ****     ********************************************************************************
 530:Generated_Source\PSoC5/MIDI2_UART.c ****     *
 531:Generated_Source\PSoC5/MIDI2_UART.c ****     * Summary:
 532:Generated_Source\PSoC5/MIDI2_UART.c ****     *  Reads UART RX buffer immediately, if data is not available or an error
 533:Generated_Source\PSoC5/MIDI2_UART.c ****     *  condition exists, zero is returned; otherwise, character is read and
 534:Generated_Source\PSoC5/MIDI2_UART.c ****     *  returned.
 535:Generated_Source\PSoC5/MIDI2_UART.c ****     *
 536:Generated_Source\PSoC5/MIDI2_UART.c ****     * Parameters:
 537:Generated_Source\PSoC5/MIDI2_UART.c ****     *  None.
 538:Generated_Source\PSoC5/MIDI2_UART.c ****     *
 539:Generated_Source\PSoC5/MIDI2_UART.c ****     * Return:
 540:Generated_Source\PSoC5/MIDI2_UART.c ****     *  Character read from UART RX buffer. ASCII characters from 1 to 255 are valid.
 541:Generated_Source\PSoC5/MIDI2_UART.c ****     *  A returned zero signifies an error condition or no data available.
 542:Generated_Source\PSoC5/MIDI2_UART.c ****     *
 543:Generated_Source\PSoC5/MIDI2_UART.c ****     * Global Variables:
 544:Generated_Source\PSoC5/MIDI2_UART.c ****     *  MIDI2_UART_rxBuffer - RAM buffer pointer for save received data.
 545:Generated_Source\PSoC5/MIDI2_UART.c ****     *  MIDI2_UART_rxBufferWrite - cyclic index for write to rxBuffer,
 546:Generated_Source\PSoC5/MIDI2_UART.c ****     *     checked to identify new data.
 547:Generated_Source\PSoC5/MIDI2_UART.c ****     *  MIDI2_UART_rxBufferRead - cyclic index for read from rxBuffer,
 548:Generated_Source\PSoC5/MIDI2_UART.c ****     *     incremented after each byte has been read from buffer.
 549:Generated_Source\PSoC5/MIDI2_UART.c ****     *  MIDI2_UART_rxBufferLoopDetect - creared if loop condition was detected
 550:Generated_Source\PSoC5/MIDI2_UART.c ****     *     in RX ISR.
 551:Generated_Source\PSoC5/MIDI2_UART.c ****     *
 552:Generated_Source\PSoC5/MIDI2_UART.c ****     * Reentrant:
 553:Generated_Source\PSoC5/MIDI2_UART.c ****     *  No.
 554:Generated_Source\PSoC5/MIDI2_UART.c ****     *
 555:Generated_Source\PSoC5/MIDI2_UART.c ****     *******************************************************************************/
 556:Generated_Source\PSoC5/MIDI2_UART.c ****     uint8 MIDI2_UART_GetChar(void) 
 557:Generated_Source\PSoC5/MIDI2_UART.c ****     {
 558:Generated_Source\PSoC5/MIDI2_UART.c ****         uint8 rxData = 0u;
 559:Generated_Source\PSoC5/MIDI2_UART.c ****         uint8 rxStatus;
ARM GAS  C:\Users\jmdevoto\AppData\Local\Temp\ccZJqqkc.s 			page 16


 560:Generated_Source\PSoC5/MIDI2_UART.c **** 
 561:Generated_Source\PSoC5/MIDI2_UART.c ****         #if(MIDI2_UART_RXBUFFERSIZE > MIDI2_UART_FIFO_LENGTH)
 562:Generated_Source\PSoC5/MIDI2_UART.c ****             uint8 loc_rxBufferRead;
 563:Generated_Source\PSoC5/MIDI2_UART.c ****             uint8 loc_rxBufferWrite;
 564:Generated_Source\PSoC5/MIDI2_UART.c ****             /* Protect variables that could change on interrupt. */
 565:Generated_Source\PSoC5/MIDI2_UART.c ****             /* Disable Rx interrupt. */
 566:Generated_Source\PSoC5/MIDI2_UART.c ****             #if(MIDI2_UART_RX_INTERRUPT_ENABLED)
 567:Generated_Source\PSoC5/MIDI2_UART.c ****                 MIDI2_UART_DisableRxInt();
 568:Generated_Source\PSoC5/MIDI2_UART.c ****             #endif /* MIDI2_UART_RX_INTERRUPT_ENABLED */
 569:Generated_Source\PSoC5/MIDI2_UART.c ****             loc_rxBufferRead = MIDI2_UART_rxBufferRead;
 570:Generated_Source\PSoC5/MIDI2_UART.c ****             loc_rxBufferWrite = MIDI2_UART_rxBufferWrite;
 571:Generated_Source\PSoC5/MIDI2_UART.c **** 
 572:Generated_Source\PSoC5/MIDI2_UART.c ****             if( (MIDI2_UART_rxBufferLoopDetect != 0u) || (loc_rxBufferRead != loc_rxBufferWrite) )
 573:Generated_Source\PSoC5/MIDI2_UART.c ****             {
 574:Generated_Source\PSoC5/MIDI2_UART.c ****                 rxData = MIDI2_UART_rxBuffer[loc_rxBufferRead];
 575:Generated_Source\PSoC5/MIDI2_UART.c ****                 loc_rxBufferRead++;
 576:Generated_Source\PSoC5/MIDI2_UART.c ****                 if(loc_rxBufferRead >= MIDI2_UART_RXBUFFERSIZE)
 577:Generated_Source\PSoC5/MIDI2_UART.c ****                 {
 578:Generated_Source\PSoC5/MIDI2_UART.c ****                     loc_rxBufferRead = 0u;
 579:Generated_Source\PSoC5/MIDI2_UART.c ****                 }
 580:Generated_Source\PSoC5/MIDI2_UART.c ****                 /* Update the real pointer */
 581:Generated_Source\PSoC5/MIDI2_UART.c ****                 MIDI2_UART_rxBufferRead = loc_rxBufferRead;
 582:Generated_Source\PSoC5/MIDI2_UART.c **** 
 583:Generated_Source\PSoC5/MIDI2_UART.c ****                 if(MIDI2_UART_rxBufferLoopDetect > 0u )
 584:Generated_Source\PSoC5/MIDI2_UART.c ****                 {
 585:Generated_Source\PSoC5/MIDI2_UART.c ****                     MIDI2_UART_rxBufferLoopDetect = 0u;
 586:Generated_Source\PSoC5/MIDI2_UART.c ****                     #if( (MIDI2_UART_RX_INTERRUPT_ENABLED) && (MIDI2_UART_FLOW_CONTROL != 0u) )
 587:Generated_Source\PSoC5/MIDI2_UART.c ****                         /* When Hardware Flow Control selected - return RX mask */
 588:Generated_Source\PSoC5/MIDI2_UART.c ****                         #if( MIDI2_UART_HD_ENABLED )
 589:Generated_Source\PSoC5/MIDI2_UART.c ****                             if((MIDI2_UART_CONTROL_REG & MIDI2_UART_CTRL_HD_SEND) == 0u)
 590:Generated_Source\PSoC5/MIDI2_UART.c ****                             {   /* In Half duplex mode return RX mask only if
 591:Generated_Source\PSoC5/MIDI2_UART.c ****                                 *  RX configuration set, otherwise
 592:Generated_Source\PSoC5/MIDI2_UART.c ****                                 *  mask will be returned in LoadRxConfig() API.
 593:Generated_Source\PSoC5/MIDI2_UART.c ****                                 */
 594:Generated_Source\PSoC5/MIDI2_UART.c ****                                 MIDI2_UART_RXSTATUS_MASK_REG  |= MIDI2_UART_RX_STS_FIFO_NOTEMPTY;
 595:Generated_Source\PSoC5/MIDI2_UART.c ****                             }
 596:Generated_Source\PSoC5/MIDI2_UART.c ****                         #else
 597:Generated_Source\PSoC5/MIDI2_UART.c ****                             MIDI2_UART_RXSTATUS_MASK_REG  |= MIDI2_UART_RX_STS_FIFO_NOTEMPTY;
 598:Generated_Source\PSoC5/MIDI2_UART.c ****                         #endif /* end MIDI2_UART_HD_ENABLED */
 599:Generated_Source\PSoC5/MIDI2_UART.c ****                     #endif /* MIDI2_UART_RX_INTERRUPT_ENABLED and Hardware flow control*/
 600:Generated_Source\PSoC5/MIDI2_UART.c ****                 }
 601:Generated_Source\PSoC5/MIDI2_UART.c **** 
 602:Generated_Source\PSoC5/MIDI2_UART.c ****             }
 603:Generated_Source\PSoC5/MIDI2_UART.c ****             else
 604:Generated_Source\PSoC5/MIDI2_UART.c ****             {   rxStatus = MIDI2_UART_RXSTATUS_REG;
 605:Generated_Source\PSoC5/MIDI2_UART.c ****                 if((rxStatus & MIDI2_UART_RX_STS_FIFO_NOTEMPTY) != 0u)
 606:Generated_Source\PSoC5/MIDI2_UART.c ****                 {   /* Read received data from FIFO*/
 607:Generated_Source\PSoC5/MIDI2_UART.c ****                     rxData = MIDI2_UART_RXDATA_REG;
 608:Generated_Source\PSoC5/MIDI2_UART.c ****                     /*Check status on error*/
 609:Generated_Source\PSoC5/MIDI2_UART.c ****                     if((rxStatus & (MIDI2_UART_RX_STS_BREAK | MIDI2_UART_RX_STS_PAR_ERROR |
 610:Generated_Source\PSoC5/MIDI2_UART.c ****                                    MIDI2_UART_RX_STS_STOP_ERROR | MIDI2_UART_RX_STS_OVERRUN)) != 0u
 611:Generated_Source\PSoC5/MIDI2_UART.c ****                     {
 612:Generated_Source\PSoC5/MIDI2_UART.c ****                         rxData = 0u;
 613:Generated_Source\PSoC5/MIDI2_UART.c ****                     }
 614:Generated_Source\PSoC5/MIDI2_UART.c ****                 }
 615:Generated_Source\PSoC5/MIDI2_UART.c ****             }
 616:Generated_Source\PSoC5/MIDI2_UART.c **** 
ARM GAS  C:\Users\jmdevoto\AppData\Local\Temp\ccZJqqkc.s 			page 17


 617:Generated_Source\PSoC5/MIDI2_UART.c ****             /* Enable Rx interrupt. */
 618:Generated_Source\PSoC5/MIDI2_UART.c ****             #if(MIDI2_UART_RX_INTERRUPT_ENABLED)
 619:Generated_Source\PSoC5/MIDI2_UART.c ****                 MIDI2_UART_EnableRxInt();
 620:Generated_Source\PSoC5/MIDI2_UART.c ****             #endif /* MIDI2_UART_RX_INTERRUPT_ENABLED */
 621:Generated_Source\PSoC5/MIDI2_UART.c **** 
 622:Generated_Source\PSoC5/MIDI2_UART.c ****         #else /* MIDI2_UART_RXBUFFERSIZE > MIDI2_UART_FIFO_LENGTH */
 623:Generated_Source\PSoC5/MIDI2_UART.c **** 
 624:Generated_Source\PSoC5/MIDI2_UART.c ****             rxStatus =MIDI2_UART_RXSTATUS_REG;
 625:Generated_Source\PSoC5/MIDI2_UART.c ****             if((rxStatus & MIDI2_UART_RX_STS_FIFO_NOTEMPTY) != 0u)
 626:Generated_Source\PSoC5/MIDI2_UART.c ****             {   /* Read received data from FIFO*/
 627:Generated_Source\PSoC5/MIDI2_UART.c ****                 rxData = MIDI2_UART_RXDATA_REG;
 628:Generated_Source\PSoC5/MIDI2_UART.c ****                 /*Check status on error*/
 629:Generated_Source\PSoC5/MIDI2_UART.c ****                 if((rxStatus & (MIDI2_UART_RX_STS_BREAK | MIDI2_UART_RX_STS_PAR_ERROR |
 630:Generated_Source\PSoC5/MIDI2_UART.c ****                                MIDI2_UART_RX_STS_STOP_ERROR | MIDI2_UART_RX_STS_OVERRUN)) != 0u)
 631:Generated_Source\PSoC5/MIDI2_UART.c ****                 {
 632:Generated_Source\PSoC5/MIDI2_UART.c ****                     rxData = 0u;
 633:Generated_Source\PSoC5/MIDI2_UART.c ****                 }
 634:Generated_Source\PSoC5/MIDI2_UART.c ****             }
 635:Generated_Source\PSoC5/MIDI2_UART.c ****         #endif /* MIDI2_UART_RXBUFFERSIZE > MIDI2_UART_FIFO_LENGTH */
 636:Generated_Source\PSoC5/MIDI2_UART.c **** 
 637:Generated_Source\PSoC5/MIDI2_UART.c ****         return(rxData);
 638:Generated_Source\PSoC5/MIDI2_UART.c ****     }
 639:Generated_Source\PSoC5/MIDI2_UART.c **** 
 640:Generated_Source\PSoC5/MIDI2_UART.c **** 
 641:Generated_Source\PSoC5/MIDI2_UART.c ****     /*******************************************************************************
 642:Generated_Source\PSoC5/MIDI2_UART.c ****     * Function Name: MIDI2_UART_GetByte
 643:Generated_Source\PSoC5/MIDI2_UART.c ****     ********************************************************************************
 644:Generated_Source\PSoC5/MIDI2_UART.c ****     *
 645:Generated_Source\PSoC5/MIDI2_UART.c ****     * Summary:
 646:Generated_Source\PSoC5/MIDI2_UART.c ****     *  Grab the next available byte of data from the recieve FIFO
 647:Generated_Source\PSoC5/MIDI2_UART.c ****     *
 648:Generated_Source\PSoC5/MIDI2_UART.c ****     * Parameters:
 649:Generated_Source\PSoC5/MIDI2_UART.c ****     *  None.
 650:Generated_Source\PSoC5/MIDI2_UART.c ****     *
 651:Generated_Source\PSoC5/MIDI2_UART.c ****     * Return:
 652:Generated_Source\PSoC5/MIDI2_UART.c ****     *  MSB contains Status Register and LSB contains UART RX data
 653:Generated_Source\PSoC5/MIDI2_UART.c ****     *
 654:Generated_Source\PSoC5/MIDI2_UART.c ****     * Reentrant:
 655:Generated_Source\PSoC5/MIDI2_UART.c ****     *  No.
 656:Generated_Source\PSoC5/MIDI2_UART.c ****     *
 657:Generated_Source\PSoC5/MIDI2_UART.c ****     *******************************************************************************/
 658:Generated_Source\PSoC5/MIDI2_UART.c ****     uint16 MIDI2_UART_GetByte(void) 
 659:Generated_Source\PSoC5/MIDI2_UART.c ****     {
 660:Generated_Source\PSoC5/MIDI2_UART.c ****         return ( ((uint16)MIDI2_UART_ReadRxStatus() << 8u) | MIDI2_UART_ReadRxData() );
 661:Generated_Source\PSoC5/MIDI2_UART.c ****     }
 662:Generated_Source\PSoC5/MIDI2_UART.c **** 
 663:Generated_Source\PSoC5/MIDI2_UART.c **** 
 664:Generated_Source\PSoC5/MIDI2_UART.c ****     /*******************************************************************************
 665:Generated_Source\PSoC5/MIDI2_UART.c ****     * Function Name: MIDI2_UART_GetRxBufferSize
 666:Generated_Source\PSoC5/MIDI2_UART.c ****     ********************************************************************************
 667:Generated_Source\PSoC5/MIDI2_UART.c ****     *
 668:Generated_Source\PSoC5/MIDI2_UART.c ****     * Summary:
 669:Generated_Source\PSoC5/MIDI2_UART.c ****     *  Determine the amount of bytes left in the RX buffer and return the count in
 670:Generated_Source\PSoC5/MIDI2_UART.c ****     *  bytes
 671:Generated_Source\PSoC5/MIDI2_UART.c ****     *
 672:Generated_Source\PSoC5/MIDI2_UART.c ****     * Parameters:
 673:Generated_Source\PSoC5/MIDI2_UART.c ****     *  None.
ARM GAS  C:\Users\jmdevoto\AppData\Local\Temp\ccZJqqkc.s 			page 18


 674:Generated_Source\PSoC5/MIDI2_UART.c ****     *
 675:Generated_Source\PSoC5/MIDI2_UART.c ****     * Return:
 676:Generated_Source\PSoC5/MIDI2_UART.c ****     *  uint8: Integer count of the number of bytes left
 677:Generated_Source\PSoC5/MIDI2_UART.c ****     *  in the RX buffer
 678:Generated_Source\PSoC5/MIDI2_UART.c ****     *
 679:Generated_Source\PSoC5/MIDI2_UART.c ****     * Global Variables:
 680:Generated_Source\PSoC5/MIDI2_UART.c ****     *  MIDI2_UART_rxBufferWrite - used to calculate left bytes.
 681:Generated_Source\PSoC5/MIDI2_UART.c ****     *  MIDI2_UART_rxBufferRead - used to calculate left bytes.
 682:Generated_Source\PSoC5/MIDI2_UART.c ****     *  MIDI2_UART_rxBufferLoopDetect - checked to decide left bytes amount.
 683:Generated_Source\PSoC5/MIDI2_UART.c ****     *
 684:Generated_Source\PSoC5/MIDI2_UART.c ****     * Reentrant:
 685:Generated_Source\PSoC5/MIDI2_UART.c ****     *  No.
 686:Generated_Source\PSoC5/MIDI2_UART.c ****     *
 687:Generated_Source\PSoC5/MIDI2_UART.c ****     * Theory:
 688:Generated_Source\PSoC5/MIDI2_UART.c ****     *  Allows the user to find out how full the RX Buffer is.
 689:Generated_Source\PSoC5/MIDI2_UART.c ****     *
 690:Generated_Source\PSoC5/MIDI2_UART.c ****     *******************************************************************************/
 691:Generated_Source\PSoC5/MIDI2_UART.c ****     uint8 MIDI2_UART_GetRxBufferSize(void)
 692:Generated_Source\PSoC5/MIDI2_UART.c ****                                                             
 693:Generated_Source\PSoC5/MIDI2_UART.c ****     {
 694:Generated_Source\PSoC5/MIDI2_UART.c ****         uint8 size;
 695:Generated_Source\PSoC5/MIDI2_UART.c **** 
 696:Generated_Source\PSoC5/MIDI2_UART.c ****         #if(MIDI2_UART_RXBUFFERSIZE > MIDI2_UART_FIFO_LENGTH)
 697:Generated_Source\PSoC5/MIDI2_UART.c **** 
 698:Generated_Source\PSoC5/MIDI2_UART.c ****             /* Disable Rx interrupt. */
 699:Generated_Source\PSoC5/MIDI2_UART.c ****             /* Protect variables that could change on interrupt. */
 700:Generated_Source\PSoC5/MIDI2_UART.c ****             #if(MIDI2_UART_RX_INTERRUPT_ENABLED)
 701:Generated_Source\PSoC5/MIDI2_UART.c ****                 MIDI2_UART_DisableRxInt();
 702:Generated_Source\PSoC5/MIDI2_UART.c ****             #endif /* MIDI2_UART_RX_INTERRUPT_ENABLED */
 703:Generated_Source\PSoC5/MIDI2_UART.c **** 
 704:Generated_Source\PSoC5/MIDI2_UART.c ****             if(MIDI2_UART_rxBufferRead == MIDI2_UART_rxBufferWrite)
 705:Generated_Source\PSoC5/MIDI2_UART.c ****             {
 706:Generated_Source\PSoC5/MIDI2_UART.c ****                 if(MIDI2_UART_rxBufferLoopDetect > 0u)
 707:Generated_Source\PSoC5/MIDI2_UART.c ****                 {
 708:Generated_Source\PSoC5/MIDI2_UART.c ****                     size = MIDI2_UART_RXBUFFERSIZE;
 709:Generated_Source\PSoC5/MIDI2_UART.c ****                 }
 710:Generated_Source\PSoC5/MIDI2_UART.c ****                 else
 711:Generated_Source\PSoC5/MIDI2_UART.c ****                 {
 712:Generated_Source\PSoC5/MIDI2_UART.c ****                     size = 0u;
 713:Generated_Source\PSoC5/MIDI2_UART.c ****                 }
 714:Generated_Source\PSoC5/MIDI2_UART.c ****             }
 715:Generated_Source\PSoC5/MIDI2_UART.c ****             else if(MIDI2_UART_rxBufferRead < MIDI2_UART_rxBufferWrite)
 716:Generated_Source\PSoC5/MIDI2_UART.c ****             {
 717:Generated_Source\PSoC5/MIDI2_UART.c ****                 size = (MIDI2_UART_rxBufferWrite - MIDI2_UART_rxBufferRead);
 718:Generated_Source\PSoC5/MIDI2_UART.c ****             }
 719:Generated_Source\PSoC5/MIDI2_UART.c ****             else
 720:Generated_Source\PSoC5/MIDI2_UART.c ****             {
 721:Generated_Source\PSoC5/MIDI2_UART.c ****                 size = (MIDI2_UART_RXBUFFERSIZE - MIDI2_UART_rxBufferRead) + MIDI2_UART_rxBufferWri
 722:Generated_Source\PSoC5/MIDI2_UART.c ****             }
 723:Generated_Source\PSoC5/MIDI2_UART.c **** 
 724:Generated_Source\PSoC5/MIDI2_UART.c ****             /* Enable Rx interrupt. */
 725:Generated_Source\PSoC5/MIDI2_UART.c ****             #if(MIDI2_UART_RX_INTERRUPT_ENABLED)
 726:Generated_Source\PSoC5/MIDI2_UART.c ****                 MIDI2_UART_EnableRxInt();
 727:Generated_Source\PSoC5/MIDI2_UART.c ****             #endif /* End MIDI2_UART_RX_INTERRUPT_ENABLED */
 728:Generated_Source\PSoC5/MIDI2_UART.c **** 
 729:Generated_Source\PSoC5/MIDI2_UART.c ****         #else /* MIDI2_UART_RXBUFFERSIZE > MIDI2_UART_FIFO_LENGTH */
 730:Generated_Source\PSoC5/MIDI2_UART.c **** 
ARM GAS  C:\Users\jmdevoto\AppData\Local\Temp\ccZJqqkc.s 			page 19


 731:Generated_Source\PSoC5/MIDI2_UART.c ****             /* We can only know if there is data in the fifo. */
 732:Generated_Source\PSoC5/MIDI2_UART.c ****             size = ((MIDI2_UART_RXSTATUS_REG & MIDI2_UART_RX_STS_FIFO_NOTEMPTY) != 0u) ? 1u : 0u;
 733:Generated_Source\PSoC5/MIDI2_UART.c **** 
 734:Generated_Source\PSoC5/MIDI2_UART.c ****         #endif /* End MIDI2_UART_RXBUFFERSIZE > MIDI2_UART_FIFO_LENGTH */
 735:Generated_Source\PSoC5/MIDI2_UART.c **** 
 736:Generated_Source\PSoC5/MIDI2_UART.c ****         return(size);
 737:Generated_Source\PSoC5/MIDI2_UART.c ****     }
 738:Generated_Source\PSoC5/MIDI2_UART.c **** 
 739:Generated_Source\PSoC5/MIDI2_UART.c **** 
 740:Generated_Source\PSoC5/MIDI2_UART.c ****     /*******************************************************************************
 741:Generated_Source\PSoC5/MIDI2_UART.c ****     * Function Name: MIDI2_UART_ClearRxBuffer
 742:Generated_Source\PSoC5/MIDI2_UART.c ****     ********************************************************************************
 743:Generated_Source\PSoC5/MIDI2_UART.c ****     *
 744:Generated_Source\PSoC5/MIDI2_UART.c ****     * Summary:
 745:Generated_Source\PSoC5/MIDI2_UART.c ****     *  Clears the RX RAM buffer by setting the read and write pointers both to zero.
 746:Generated_Source\PSoC5/MIDI2_UART.c ****     *  Clears hardware RX FIFO.
 747:Generated_Source\PSoC5/MIDI2_UART.c ****     *
 748:Generated_Source\PSoC5/MIDI2_UART.c ****     * Parameters:
 749:Generated_Source\PSoC5/MIDI2_UART.c ****     *  None.
 750:Generated_Source\PSoC5/MIDI2_UART.c ****     *
 751:Generated_Source\PSoC5/MIDI2_UART.c ****     * Return:
 752:Generated_Source\PSoC5/MIDI2_UART.c ****     *  None.
 753:Generated_Source\PSoC5/MIDI2_UART.c ****     *
 754:Generated_Source\PSoC5/MIDI2_UART.c ****     * Global Variables:
 755:Generated_Source\PSoC5/MIDI2_UART.c ****     *  MIDI2_UART_rxBufferWrite - cleared to zero.
 756:Generated_Source\PSoC5/MIDI2_UART.c ****     *  MIDI2_UART_rxBufferRead - cleared to zero.
 757:Generated_Source\PSoC5/MIDI2_UART.c ****     *  MIDI2_UART_rxBufferLoopDetect - cleared to zero.
 758:Generated_Source\PSoC5/MIDI2_UART.c ****     *  MIDI2_UART_rxBufferOverflow - cleared to zero.
 759:Generated_Source\PSoC5/MIDI2_UART.c ****     *
 760:Generated_Source\PSoC5/MIDI2_UART.c ****     * Reentrant:
 761:Generated_Source\PSoC5/MIDI2_UART.c ****     *  No.
 762:Generated_Source\PSoC5/MIDI2_UART.c ****     *
 763:Generated_Source\PSoC5/MIDI2_UART.c ****     * Theory:
 764:Generated_Source\PSoC5/MIDI2_UART.c ****     *  Setting the pointers to zero makes the system believe there is no data to
 765:Generated_Source\PSoC5/MIDI2_UART.c ****     *  read and writing will resume at address 0 overwriting any data that may
 766:Generated_Source\PSoC5/MIDI2_UART.c ****     *  have remained in the RAM.
 767:Generated_Source\PSoC5/MIDI2_UART.c ****     *
 768:Generated_Source\PSoC5/MIDI2_UART.c ****     * Side Effects:
 769:Generated_Source\PSoC5/MIDI2_UART.c ****     *  Any received data not read from the RAM or FIFO buffer will be lost.
 770:Generated_Source\PSoC5/MIDI2_UART.c ****     *******************************************************************************/
 771:Generated_Source\PSoC5/MIDI2_UART.c ****     void MIDI2_UART_ClearRxBuffer(void) 
 772:Generated_Source\PSoC5/MIDI2_UART.c ****     {
 773:Generated_Source\PSoC5/MIDI2_UART.c ****         uint8 enableInterrupts;
 774:Generated_Source\PSoC5/MIDI2_UART.c **** 
 775:Generated_Source\PSoC5/MIDI2_UART.c ****         /* clear the HW FIFO */
 776:Generated_Source\PSoC5/MIDI2_UART.c ****         /* Enter critical section */
 777:Generated_Source\PSoC5/MIDI2_UART.c ****         enableInterrupts = CyEnterCriticalSection();
 778:Generated_Source\PSoC5/MIDI2_UART.c ****         MIDI2_UART_RXDATA_AUX_CTL_REG |=  MIDI2_UART_RX_FIFO_CLR;
 779:Generated_Source\PSoC5/MIDI2_UART.c ****         MIDI2_UART_RXDATA_AUX_CTL_REG &= (uint8)~MIDI2_UART_RX_FIFO_CLR;
 780:Generated_Source\PSoC5/MIDI2_UART.c ****         /* Exit critical section */
 781:Generated_Source\PSoC5/MIDI2_UART.c ****         CyExitCriticalSection(enableInterrupts);
 782:Generated_Source\PSoC5/MIDI2_UART.c **** 
 783:Generated_Source\PSoC5/MIDI2_UART.c ****         #if(MIDI2_UART_RXBUFFERSIZE > MIDI2_UART_FIFO_LENGTH)
 784:Generated_Source\PSoC5/MIDI2_UART.c ****             /* Disable Rx interrupt. */
 785:Generated_Source\PSoC5/MIDI2_UART.c ****             /* Protect variables that could change on interrupt. */
 786:Generated_Source\PSoC5/MIDI2_UART.c ****             #if(MIDI2_UART_RX_INTERRUPT_ENABLED)
 787:Generated_Source\PSoC5/MIDI2_UART.c ****                 MIDI2_UART_DisableRxInt();
ARM GAS  C:\Users\jmdevoto\AppData\Local\Temp\ccZJqqkc.s 			page 20


 788:Generated_Source\PSoC5/MIDI2_UART.c ****             #endif /* End MIDI2_UART_RX_INTERRUPT_ENABLED */
 789:Generated_Source\PSoC5/MIDI2_UART.c **** 
 790:Generated_Source\PSoC5/MIDI2_UART.c ****             MIDI2_UART_rxBufferRead = 0u;
 791:Generated_Source\PSoC5/MIDI2_UART.c ****             MIDI2_UART_rxBufferWrite = 0u;
 792:Generated_Source\PSoC5/MIDI2_UART.c ****             MIDI2_UART_rxBufferLoopDetect = 0u;
 793:Generated_Source\PSoC5/MIDI2_UART.c ****             MIDI2_UART_rxBufferOverflow = 0u;
 794:Generated_Source\PSoC5/MIDI2_UART.c **** 
 795:Generated_Source\PSoC5/MIDI2_UART.c ****             /* Enable Rx interrupt. */
 796:Generated_Source\PSoC5/MIDI2_UART.c ****             #if(MIDI2_UART_RX_INTERRUPT_ENABLED)
 797:Generated_Source\PSoC5/MIDI2_UART.c ****                 MIDI2_UART_EnableRxInt();
 798:Generated_Source\PSoC5/MIDI2_UART.c ****             #endif /* End MIDI2_UART_RX_INTERRUPT_ENABLED */
 799:Generated_Source\PSoC5/MIDI2_UART.c ****         #endif /* End MIDI2_UART_RXBUFFERSIZE > MIDI2_UART_FIFO_LENGTH */
 800:Generated_Source\PSoC5/MIDI2_UART.c **** 
 801:Generated_Source\PSoC5/MIDI2_UART.c ****     }
 802:Generated_Source\PSoC5/MIDI2_UART.c **** 
 803:Generated_Source\PSoC5/MIDI2_UART.c **** 
 804:Generated_Source\PSoC5/MIDI2_UART.c ****     /*******************************************************************************
 805:Generated_Source\PSoC5/MIDI2_UART.c ****     * Function Name: MIDI2_UART_SetRxAddressMode
 806:Generated_Source\PSoC5/MIDI2_UART.c ****     ********************************************************************************
 807:Generated_Source\PSoC5/MIDI2_UART.c ****     *
 808:Generated_Source\PSoC5/MIDI2_UART.c ****     * Summary:
 809:Generated_Source\PSoC5/MIDI2_UART.c ****     *  Set the receive addressing mode
 810:Generated_Source\PSoC5/MIDI2_UART.c ****     *
 811:Generated_Source\PSoC5/MIDI2_UART.c ****     * Parameters:
 812:Generated_Source\PSoC5/MIDI2_UART.c ****     *  addressMode: Enumerated value indicating the mode of RX addressing
 813:Generated_Source\PSoC5/MIDI2_UART.c ****     *  MIDI2_UART__B_UART__AM_SW_BYTE_BYTE -  Software Byte-by-Byte address
 814:Generated_Source\PSoC5/MIDI2_UART.c ****     *                                               detection
 815:Generated_Source\PSoC5/MIDI2_UART.c ****     *  MIDI2_UART__B_UART__AM_SW_DETECT_TO_BUFFER - Software Detect to Buffer
 816:Generated_Source\PSoC5/MIDI2_UART.c ****     *                                               address detection
 817:Generated_Source\PSoC5/MIDI2_UART.c ****     *  MIDI2_UART__B_UART__AM_HW_BYTE_BY_BYTE - Hardware Byte-by-Byte address
 818:Generated_Source\PSoC5/MIDI2_UART.c ****     *                                               detection
 819:Generated_Source\PSoC5/MIDI2_UART.c ****     *  MIDI2_UART__B_UART__AM_HW_DETECT_TO_BUFFER - Hardware Detect to Buffer
 820:Generated_Source\PSoC5/MIDI2_UART.c ****     *                                               address detection
 821:Generated_Source\PSoC5/MIDI2_UART.c ****     *  MIDI2_UART__B_UART__AM_NONE - No address detection
 822:Generated_Source\PSoC5/MIDI2_UART.c ****     *
 823:Generated_Source\PSoC5/MIDI2_UART.c ****     * Return:
 824:Generated_Source\PSoC5/MIDI2_UART.c ****     *  None.
 825:Generated_Source\PSoC5/MIDI2_UART.c ****     *
 826:Generated_Source\PSoC5/MIDI2_UART.c ****     * Global Variables:
 827:Generated_Source\PSoC5/MIDI2_UART.c ****     *  MIDI2_UART_rxAddressMode - the parameter stored in this variable for
 828:Generated_Source\PSoC5/MIDI2_UART.c ****     *   the farther usage in RX ISR.
 829:Generated_Source\PSoC5/MIDI2_UART.c ****     *  MIDI2_UART_rxAddressDetected - set to initial state (0).
 830:Generated_Source\PSoC5/MIDI2_UART.c ****     *
 831:Generated_Source\PSoC5/MIDI2_UART.c ****     *******************************************************************************/
 832:Generated_Source\PSoC5/MIDI2_UART.c ****     void MIDI2_UART_SetRxAddressMode(uint8 addressMode)
 833:Generated_Source\PSoC5/MIDI2_UART.c ****                                                         
 834:Generated_Source\PSoC5/MIDI2_UART.c ****     {
 835:Generated_Source\PSoC5/MIDI2_UART.c ****         #if(MIDI2_UART_RXHW_ADDRESS_ENABLED)
 836:Generated_Source\PSoC5/MIDI2_UART.c ****             #if(MIDI2_UART_CONTROL_REG_REMOVED)
 837:Generated_Source\PSoC5/MIDI2_UART.c ****                 if(addressMode != 0u) { }     /* release compiler warning */
 838:Generated_Source\PSoC5/MIDI2_UART.c ****             #else /* MIDI2_UART_CONTROL_REG_REMOVED */
 839:Generated_Source\PSoC5/MIDI2_UART.c ****                 uint8 tmpCtrl;
 840:Generated_Source\PSoC5/MIDI2_UART.c ****                 tmpCtrl = MIDI2_UART_CONTROL_REG & (uint8)~MIDI2_UART_CTRL_RXADDR_MODE_MASK;
 841:Generated_Source\PSoC5/MIDI2_UART.c ****                 tmpCtrl |= (uint8)(addressMode << MIDI2_UART_CTRL_RXADDR_MODE0_SHIFT);
 842:Generated_Source\PSoC5/MIDI2_UART.c ****                 MIDI2_UART_CONTROL_REG = tmpCtrl;
 843:Generated_Source\PSoC5/MIDI2_UART.c ****                 #if(MIDI2_UART_RX_INTERRUPT_ENABLED && \
 844:Generated_Source\PSoC5/MIDI2_UART.c ****                    (MIDI2_UART_RXBUFFERSIZE > MIDI2_UART_FIFO_LENGTH) )
ARM GAS  C:\Users\jmdevoto\AppData\Local\Temp\ccZJqqkc.s 			page 21


 845:Generated_Source\PSoC5/MIDI2_UART.c ****                     MIDI2_UART_rxAddressMode = addressMode;
 846:Generated_Source\PSoC5/MIDI2_UART.c ****                     MIDI2_UART_rxAddressDetected = 0u;
 847:Generated_Source\PSoC5/MIDI2_UART.c ****                 #endif /* End MIDI2_UART_RXBUFFERSIZE > MIDI2_UART_FIFO_LENGTH*/
 848:Generated_Source\PSoC5/MIDI2_UART.c ****             #endif /* End MIDI2_UART_CONTROL_REG_REMOVED */
 849:Generated_Source\PSoC5/MIDI2_UART.c ****         #else /* MIDI2_UART_RXHW_ADDRESS_ENABLED */
 850:Generated_Source\PSoC5/MIDI2_UART.c ****             if(addressMode != 0u) { }     /* release compiler warning */
 851:Generated_Source\PSoC5/MIDI2_UART.c ****         #endif /* End MIDI2_UART_RXHW_ADDRESS_ENABLED */
 852:Generated_Source\PSoC5/MIDI2_UART.c ****     }
 853:Generated_Source\PSoC5/MIDI2_UART.c **** 
 854:Generated_Source\PSoC5/MIDI2_UART.c **** 
 855:Generated_Source\PSoC5/MIDI2_UART.c ****     /*******************************************************************************
 856:Generated_Source\PSoC5/MIDI2_UART.c ****     * Function Name: MIDI2_UART_SetRxAddress1
 857:Generated_Source\PSoC5/MIDI2_UART.c ****     ********************************************************************************
 858:Generated_Source\PSoC5/MIDI2_UART.c ****     *
 859:Generated_Source\PSoC5/MIDI2_UART.c ****     * Summary:
 860:Generated_Source\PSoC5/MIDI2_UART.c ****     *  Set the first hardware address compare value
 861:Generated_Source\PSoC5/MIDI2_UART.c ****     *
 862:Generated_Source\PSoC5/MIDI2_UART.c ****     * Parameters:
 863:Generated_Source\PSoC5/MIDI2_UART.c ****     *  address
 864:Generated_Source\PSoC5/MIDI2_UART.c ****     *
 865:Generated_Source\PSoC5/MIDI2_UART.c ****     * Return:
 866:Generated_Source\PSoC5/MIDI2_UART.c ****     *  None.
 867:Generated_Source\PSoC5/MIDI2_UART.c ****     *
 868:Generated_Source\PSoC5/MIDI2_UART.c ****     *******************************************************************************/
 869:Generated_Source\PSoC5/MIDI2_UART.c ****     void MIDI2_UART_SetRxAddress1(uint8 address) 
 870:Generated_Source\PSoC5/MIDI2_UART.c **** 
 871:Generated_Source\PSoC5/MIDI2_UART.c ****     {
 872:Generated_Source\PSoC5/MIDI2_UART.c ****         MIDI2_UART_RXADDRESS1_REG = address;
 873:Generated_Source\PSoC5/MIDI2_UART.c ****     }
 874:Generated_Source\PSoC5/MIDI2_UART.c **** 
 875:Generated_Source\PSoC5/MIDI2_UART.c **** 
 876:Generated_Source\PSoC5/MIDI2_UART.c ****     /*******************************************************************************
 877:Generated_Source\PSoC5/MIDI2_UART.c ****     * Function Name: MIDI2_UART_SetRxAddress2
 878:Generated_Source\PSoC5/MIDI2_UART.c ****     ********************************************************************************
 879:Generated_Source\PSoC5/MIDI2_UART.c ****     *
 880:Generated_Source\PSoC5/MIDI2_UART.c ****     * Summary:
 881:Generated_Source\PSoC5/MIDI2_UART.c ****     *  Set the second hardware address compare value
 882:Generated_Source\PSoC5/MIDI2_UART.c ****     *
 883:Generated_Source\PSoC5/MIDI2_UART.c ****     * Parameters:
 884:Generated_Source\PSoC5/MIDI2_UART.c ****     *  address
 885:Generated_Source\PSoC5/MIDI2_UART.c ****     *
 886:Generated_Source\PSoC5/MIDI2_UART.c ****     * Return:
 887:Generated_Source\PSoC5/MIDI2_UART.c ****     *  None.
 888:Generated_Source\PSoC5/MIDI2_UART.c ****     *
 889:Generated_Source\PSoC5/MIDI2_UART.c ****     *******************************************************************************/
 890:Generated_Source\PSoC5/MIDI2_UART.c ****     void MIDI2_UART_SetRxAddress2(uint8 address) 
 891:Generated_Source\PSoC5/MIDI2_UART.c ****     {
 892:Generated_Source\PSoC5/MIDI2_UART.c ****         MIDI2_UART_RXADDRESS2_REG = address;
 893:Generated_Source\PSoC5/MIDI2_UART.c ****     }
 894:Generated_Source\PSoC5/MIDI2_UART.c **** 
 895:Generated_Source\PSoC5/MIDI2_UART.c **** #endif  /* MIDI2_UART_RX_ENABLED || MIDI2_UART_HD_ENABLED*/
 896:Generated_Source\PSoC5/MIDI2_UART.c **** 
 897:Generated_Source\PSoC5/MIDI2_UART.c **** 
 898:Generated_Source\PSoC5/MIDI2_UART.c **** #if( (MIDI2_UART_TX_ENABLED) || (MIDI2_UART_HD_ENABLED) )
 899:Generated_Source\PSoC5/MIDI2_UART.c **** 
 900:Generated_Source\PSoC5/MIDI2_UART.c ****     #if(MIDI2_UART_TX_INTERRUPT_ENABLED)
 901:Generated_Source\PSoC5/MIDI2_UART.c **** 
ARM GAS  C:\Users\jmdevoto\AppData\Local\Temp\ccZJqqkc.s 			page 22


 902:Generated_Source\PSoC5/MIDI2_UART.c ****         /*******************************************************************************
 903:Generated_Source\PSoC5/MIDI2_UART.c ****         * Function Name: MIDI2_UART_EnableTxInt
 904:Generated_Source\PSoC5/MIDI2_UART.c ****         ********************************************************************************
 905:Generated_Source\PSoC5/MIDI2_UART.c ****         *
 906:Generated_Source\PSoC5/MIDI2_UART.c ****         * Summary:
 907:Generated_Source\PSoC5/MIDI2_UART.c ****         *  Enable TX interrupt generation
 908:Generated_Source\PSoC5/MIDI2_UART.c ****         *
 909:Generated_Source\PSoC5/MIDI2_UART.c ****         * Parameters:
 910:Generated_Source\PSoC5/MIDI2_UART.c ****         *  None.
 911:Generated_Source\PSoC5/MIDI2_UART.c ****         *
 912:Generated_Source\PSoC5/MIDI2_UART.c ****         * Return:
 913:Generated_Source\PSoC5/MIDI2_UART.c ****         *  None.
 914:Generated_Source\PSoC5/MIDI2_UART.c ****         *
 915:Generated_Source\PSoC5/MIDI2_UART.c ****         * Theory:
 916:Generated_Source\PSoC5/MIDI2_UART.c ****         *  Enable the interrupt output -or- the interrupt component itself
 917:Generated_Source\PSoC5/MIDI2_UART.c ****         *
 918:Generated_Source\PSoC5/MIDI2_UART.c ****         *******************************************************************************/
 919:Generated_Source\PSoC5/MIDI2_UART.c ****         void MIDI2_UART_EnableTxInt(void) 
 920:Generated_Source\PSoC5/MIDI2_UART.c ****         {
 921:Generated_Source\PSoC5/MIDI2_UART.c ****             CyIntEnable(MIDI2_UART_TX_VECT_NUM);
 922:Generated_Source\PSoC5/MIDI2_UART.c ****         }
 923:Generated_Source\PSoC5/MIDI2_UART.c **** 
 924:Generated_Source\PSoC5/MIDI2_UART.c **** 
 925:Generated_Source\PSoC5/MIDI2_UART.c ****         /*******************************************************************************
 926:Generated_Source\PSoC5/MIDI2_UART.c ****         * Function Name: MIDI2_UART_DisableTxInt
 927:Generated_Source\PSoC5/MIDI2_UART.c ****         ********************************************************************************
 928:Generated_Source\PSoC5/MIDI2_UART.c ****         *
 929:Generated_Source\PSoC5/MIDI2_UART.c ****         * Summary:
 930:Generated_Source\PSoC5/MIDI2_UART.c ****         *  Disable TX interrupt generation
 931:Generated_Source\PSoC5/MIDI2_UART.c ****         *
 932:Generated_Source\PSoC5/MIDI2_UART.c ****         * Parameters:
 933:Generated_Source\PSoC5/MIDI2_UART.c ****         *  None.
 934:Generated_Source\PSoC5/MIDI2_UART.c ****         *
 935:Generated_Source\PSoC5/MIDI2_UART.c ****         * Return:
 936:Generated_Source\PSoC5/MIDI2_UART.c ****         *  None.
 937:Generated_Source\PSoC5/MIDI2_UART.c ****         *
 938:Generated_Source\PSoC5/MIDI2_UART.c ****         * Theory:
 939:Generated_Source\PSoC5/MIDI2_UART.c ****         *  Disable the interrupt output -or- the interrupt component itself
 940:Generated_Source\PSoC5/MIDI2_UART.c ****         *
 941:Generated_Source\PSoC5/MIDI2_UART.c ****         *******************************************************************************/
 942:Generated_Source\PSoC5/MIDI2_UART.c ****         void MIDI2_UART_DisableTxInt(void) 
 943:Generated_Source\PSoC5/MIDI2_UART.c ****         {
 944:Generated_Source\PSoC5/MIDI2_UART.c ****             CyIntDisable(MIDI2_UART_TX_VECT_NUM);
 272              		.loc 1 944 0
 273 0026 4024     		movs	r4, #64
 274              	.LBE43:
 275              	.LBE42:
 257:Generated_Source\PSoC5/MIDI2_UART.c ****         #if(MIDI2_UART_TX_INTERRUPT_ENABLED && (MIDI2_UART_TXBUFFERSIZE > MIDI2_UART_FIFO_LENGTH))
 276              		.loc 1 257 0
 277 0028 03F0EF03 		and	r3, r3, #239
 278 002c 0B70     		strb	r3, [r1]
 279              	.LBB45:
 280              	.LBB44:
 281              		.loc 1 944 0
 282 002e 1460     		str	r4, [r2]
 283              	.LBE44:
 284              	.LBE45:
ARM GAS  C:\Users\jmdevoto\AppData\Local\Temp\ccZJqqkc.s 			page 23


 264:Generated_Source\PSoC5/MIDI2_UART.c **** 
 285              		.loc 1 264 0
 286 0030 BDE83840 		pop	{r3, r4, r5, lr}
 287              		.cfi_restore 14
 288              		.cfi_restore 5
 289              		.cfi_restore 4
 290              		.cfi_restore 3
 291              		.cfi_def_cfa_offset 0
 263:Generated_Source\PSoC5/MIDI2_UART.c **** }
 292              		.loc 1 263 0
 293 0034 FFF7FEBF 		b	CyExitCriticalSection
 294              	.LVL9:
 295              	.L18:
 296              		.align	2
 297              	.L17:
 298 0038 95650040 		.word	1073767829
 299 003c 96640040 		.word	1073767574
 300 0040 80E100E0 		.word	-536813184
 301              		.cfi_endproc
 302              	.LFE3:
 303              		.size	MIDI2_UART_Stop, .-MIDI2_UART_Stop
 304              		.section	.text.MIDI2_UART_ReadControlRegister,"ax",%progbits
 305              		.align	2
 306              		.global	MIDI2_UART_ReadControlRegister
 307              		.thumb
 308              		.thumb_func
 309              		.type	MIDI2_UART_ReadControlRegister, %function
 310              	MIDI2_UART_ReadControlRegister:
 311              	.LFB4:
 282:Generated_Source\PSoC5/MIDI2_UART.c ****     #if( MIDI2_UART_CONTROL_REG_REMOVED )
 312              		.loc 1 282 0
 313              		.cfi_startproc
 314              		@ args = 0, pretend = 0, frame = 0
 315              		@ frame_needed = 0, uses_anonymous_args = 0
 316              		@ link register save eliminated.
 288:Generated_Source\PSoC5/MIDI2_UART.c **** 
 317              		.loc 1 288 0
 318 0000 0020     		movs	r0, #0
 319 0002 7047     		bx	lr
 320              		.cfi_endproc
 321              	.LFE4:
 322              		.size	MIDI2_UART_ReadControlRegister, .-MIDI2_UART_ReadControlRegister
 323              		.section	.text.MIDI2_UART_WriteControlRegister,"ax",%progbits
 324              		.align	2
 325              		.global	MIDI2_UART_WriteControlRegister
 326              		.thumb
 327              		.thumb_func
 328              		.type	MIDI2_UART_WriteControlRegister, %function
 329              	MIDI2_UART_WriteControlRegister:
 330              	.LFB5:
 306:Generated_Source\PSoC5/MIDI2_UART.c ****     #if( MIDI2_UART_CONTROL_REG_REMOVED )
 331              		.loc 1 306 0
 332              		.cfi_startproc
 333              		@ args = 0, pretend = 0, frame = 0
 334              		@ frame_needed = 0, uses_anonymous_args = 0
 335              		@ link register save eliminated.
 336              	.LVL10:
ARM GAS  C:\Users\jmdevoto\AppData\Local\Temp\ccZJqqkc.s 			page 24


 337 0000 7047     		bx	lr
 338              		.cfi_endproc
 339              	.LFE5:
 340              		.size	MIDI2_UART_WriteControlRegister, .-MIDI2_UART_WriteControlRegister
 341 0002 00BF     		.section	.text.MIDI2_UART_EnableRxInt,"ax",%progbits
 342              		.align	2
 343              		.global	MIDI2_UART_EnableRxInt
 344              		.thumb
 345              		.thumb_func
 346              		.type	MIDI2_UART_EnableRxInt, %function
 347              	MIDI2_UART_EnableRxInt:
 348              	.LFB6:
 337:Generated_Source\PSoC5/MIDI2_UART.c ****             CyIntEnable(MIDI2_UART_RX_VECT_NUM);
 349              		.loc 1 337 0
 350              		.cfi_startproc
 351              		@ args = 0, pretend = 0, frame = 0
 352              		@ frame_needed = 0, uses_anonymous_args = 0
 353              		@ link register save eliminated.
 338:Generated_Source\PSoC5/MIDI2_UART.c ****         }
 354              		.loc 1 338 0
 355 0000 014B     		ldr	r3, .L22
 356 0002 2022     		movs	r2, #32
 357 0004 1A60     		str	r2, [r3]
 358 0006 7047     		bx	lr
 359              	.L23:
 360              		.align	2
 361              	.L22:
 362 0008 00E100E0 		.word	-536813312
 363              		.cfi_endproc
 364              	.LFE6:
 365              		.size	MIDI2_UART_EnableRxInt, .-MIDI2_UART_EnableRxInt
 366              		.section	.text.MIDI2_UART_DisableRxInt,"ax",%progbits
 367              		.align	2
 368              		.global	MIDI2_UART_DisableRxInt
 369              		.thumb
 370              		.thumb_func
 371              		.type	MIDI2_UART_DisableRxInt, %function
 372              	MIDI2_UART_DisableRxInt:
 373              	.LFB7:
 360:Generated_Source\PSoC5/MIDI2_UART.c ****             CyIntDisable(MIDI2_UART_RX_VECT_NUM);
 374              		.loc 1 360 0
 375              		.cfi_startproc
 376              		@ args = 0, pretend = 0, frame = 0
 377              		@ frame_needed = 0, uses_anonymous_args = 0
 378              		@ link register save eliminated.
 361:Generated_Source\PSoC5/MIDI2_UART.c ****         }
 379              		.loc 1 361 0
 380 0000 014B     		ldr	r3, .L25
 381 0002 2022     		movs	r2, #32
 382 0004 1A60     		str	r2, [r3]
 383 0006 7047     		bx	lr
 384              	.L26:
 385              		.align	2
 386              	.L25:
 387 0008 80E100E0 		.word	-536813184
 388              		.cfi_endproc
 389              	.LFE7:
ARM GAS  C:\Users\jmdevoto\AppData\Local\Temp\ccZJqqkc.s 			page 25


 390              		.size	MIDI2_UART_DisableRxInt, .-MIDI2_UART_DisableRxInt
 391              		.section	.text.MIDI2_UART_SetRxInterruptMode,"ax",%progbits
 392              		.align	2
 393              		.global	MIDI2_UART_SetRxInterruptMode
 394              		.thumb
 395              		.thumb_func
 396              		.type	MIDI2_UART_SetRxInterruptMode, %function
 397              	MIDI2_UART_SetRxInterruptMode:
 398              	.LFB8:
 386:Generated_Source\PSoC5/MIDI2_UART.c ****         MIDI2_UART_RXSTATUS_MASK_REG  = intSrc;
 399              		.loc 1 386 0
 400              		.cfi_startproc
 401              		@ args = 0, pretend = 0, frame = 0
 402              		@ frame_needed = 0, uses_anonymous_args = 0
 403              		@ link register save eliminated.
 404              	.LVL11:
 387:Generated_Source\PSoC5/MIDI2_UART.c ****     }
 405              		.loc 1 387 0
 406 0000 014B     		ldr	r3, .L28
 407 0002 1870     		strb	r0, [r3]
 408 0004 7047     		bx	lr
 409              	.L29:
 410 0006 00BF     		.align	2
 411              	.L28:
 412 0008 86640040 		.word	1073767558
 413              		.cfi_endproc
 414              	.LFE8:
 415              		.size	MIDI2_UART_SetRxInterruptMode, .-MIDI2_UART_SetRxInterruptMode
 416              		.section	.text.MIDI2_UART_ReadRxData,"ax",%progbits
 417              		.align	2
 418              		.global	MIDI2_UART_ReadRxData
 419              		.thumb
 420              		.thumb_func
 421              		.type	MIDI2_UART_ReadRxData, %function
 422              	MIDI2_UART_ReadRxData:
 423              	.LFB9:
 419:Generated_Source\PSoC5/MIDI2_UART.c ****         uint8 rxData;
 424              		.loc 1 419 0
 425              		.cfi_startproc
 426              		@ args = 0, pretend = 0, frame = 0
 427              		@ frame_needed = 0, uses_anonymous_args = 0
 428              		@ link register save eliminated.
 429 0000 10B4     		push	{r4}
 430              		.cfi_def_cfa_offset 4
 431              		.cfi_offset 4, -4
 432              	.LBB46:
 433              	.LBB47:
 361:Generated_Source\PSoC5/MIDI2_UART.c ****         }
 434              		.loc 1 361 0
 435 0002 124B     		ldr	r3, .L39
 436              	.LBE47:
 437              	.LBE46:
 430:Generated_Source\PSoC5/MIDI2_UART.c ****             loc_rxBufferWrite = MIDI2_UART_rxBufferWrite;
 438              		.loc 1 430 0
 439 0004 124A     		ldr	r2, .L39+4
 440              	.LBB49:
 441              	.LBB48:
ARM GAS  C:\Users\jmdevoto\AppData\Local\Temp\ccZJqqkc.s 			page 26


 361:Generated_Source\PSoC5/MIDI2_UART.c ****         }
 442              		.loc 1 361 0
 443 0006 2021     		movs	r1, #32
 444 0008 1960     		str	r1, [r3]
 445              	.LBE48:
 446              	.LBE49:
 430:Generated_Source\PSoC5/MIDI2_UART.c ****             loc_rxBufferWrite = MIDI2_UART_rxBufferWrite;
 447              		.loc 1 430 0
 448 000a 5178     		ldrb	r1, [r2, #1]	@ zero_extendqisi2
 431:Generated_Source\PSoC5/MIDI2_UART.c **** 
 449              		.loc 1 431 0
 450 000c 9378     		ldrb	r3, [r2, #2]	@ zero_extendqisi2
 433:Generated_Source\PSoC5/MIDI2_UART.c ****             {
 451              		.loc 1 433 0
 452 000e D078     		ldrb	r0, [r2, #3]	@ zero_extendqisi2
 430:Generated_Source\PSoC5/MIDI2_UART.c ****             loc_rxBufferWrite = MIDI2_UART_rxBufferWrite;
 453              		.loc 1 430 0
 454 0010 C9B2     		uxtb	r1, r1
 455              	.LVL12:
 431:Generated_Source\PSoC5/MIDI2_UART.c **** 
 456              		.loc 1 431 0
 457 0012 DBB2     		uxtb	r3, r3
 458              	.LVL13:
 433:Generated_Source\PSoC5/MIDI2_UART.c ****             {
 459              		.loc 1 433 0
 460 0014 08B9     		cbnz	r0, .L31
 433:Generated_Source\PSoC5/MIDI2_UART.c ****             {
 461              		.loc 1 433 0 is_stmt 0 discriminator 1
 462 0016 9942     		cmp	r1, r3
 463 0018 13D0     		beq	.L32
 464              	.L31:
 436:Generated_Source\PSoC5/MIDI2_UART.c **** 
 465              		.loc 1 436 0 is_stmt 1
 466 001a 4B1C     		adds	r3, r1, #1
 467              	.LVL14:
 468 001c DBB2     		uxtb	r3, r3
 440:Generated_Source\PSoC5/MIDI2_UART.c ****                 }
 469              		.loc 1 440 0
 470 001e FF2B     		cmp	r3, #255
 435:Generated_Source\PSoC5/MIDI2_UART.c ****                 loc_rxBufferRead++;
 471              		.loc 1 435 0
 472 0020 0C48     		ldr	r0, .L39+8
 440:Generated_Source\PSoC5/MIDI2_UART.c ****                 }
 473              		.loc 1 440 0
 474 0022 08BF     		it	eq
 475 0024 0023     		moveq	r3, #0
 435:Generated_Source\PSoC5/MIDI2_UART.c ****                 loc_rxBufferRead++;
 476              		.loc 1 435 0
 477 0026 405C     		ldrb	r0, [r0, r1]	@ zero_extendqisi2
 443:Generated_Source\PSoC5/MIDI2_UART.c **** 
 478              		.loc 1 443 0
 479 0028 5370     		strb	r3, [r2, #1]
 445:Generated_Source\PSoC5/MIDI2_UART.c ****                 {
 480              		.loc 1 445 0
 481 002a D378     		ldrb	r3, [r2, #3]	@ zero_extendqisi2
 443:Generated_Source\PSoC5/MIDI2_UART.c **** 
 482              		.loc 1 443 0
ARM GAS  C:\Users\jmdevoto\AppData\Local\Temp\ccZJqqkc.s 			page 27


 483 002c 084C     		ldr	r4, .L39+4
 435:Generated_Source\PSoC5/MIDI2_UART.c ****                 loc_rxBufferRead++;
 484              		.loc 1 435 0
 485 002e C0B2     		uxtb	r0, r0
 486              	.LVL15:
 445:Generated_Source\PSoC5/MIDI2_UART.c ****                 {
 487              		.loc 1 445 0
 488 0030 0BB1     		cbz	r3, .L34
 489              	.LVL16:
 447:Generated_Source\PSoC5/MIDI2_UART.c ****                     #if( (MIDI2_UART_RX_INTERRUPT_ENABLED) && (MIDI2_UART_FLOW_CONTROL != 0u) && \
 490              		.loc 1 447 0
 491 0032 0023     		movs	r3, #0
 492 0034 E370     		strb	r3, [r4, #3]
 493              	.LVL17:
 494              	.L34:
 495              	.LBB50:
 496              	.LBB51:
 338:Generated_Source\PSoC5/MIDI2_UART.c ****         }
 497              		.loc 1 338 0
 498 0036 084B     		ldr	r3, .L39+12
 499 0038 2022     		movs	r2, #32
 500 003a 1A60     		str	r2, [r3]
 501              	.LBE51:
 502              	.LBE50:
 483:Generated_Source\PSoC5/MIDI2_UART.c **** 
 503              		.loc 1 483 0
 504 003c 5DF8044B 		ldr	r4, [sp], #4
 505              		.cfi_remember_state
 506              		.cfi_restore 4
 507              		.cfi_def_cfa_offset 0
 508 0040 7047     		bx	lr
 509              	.LVL18:
 510              	.L32:
 511              		.cfi_restore_state
 467:Generated_Source\PSoC5/MIDI2_UART.c ****             }
 512              		.loc 1 467 0
 513 0042 064B     		ldr	r3, .L39+16
 514              	.LVL19:
 515 0044 1878     		ldrb	r0, [r3]	@ zero_extendqisi2
 516 0046 C0B2     		uxtb	r0, r0
 517              	.LVL20:
 518 0048 F5E7     		b	.L34
 519              	.L40:
 520 004a 00BF     		.align	2
 521              	.L39:
 522 004c 80E100E0 		.word	-536813184
 523 0050 00000000 		.word	.LANCHOR0
 524 0054 00000000 		.word	MIDI2_UART_rxBuffer
 525 0058 00E100E0 		.word	-536813312
 526 005c 45650040 		.word	1073767749
 527              		.cfi_endproc
 528              	.LFE9:
 529              		.size	MIDI2_UART_ReadRxData, .-MIDI2_UART_ReadRxData
 530              		.section	.text.MIDI2_UART_ReadRxStatus,"ax",%progbits
 531              		.align	2
 532              		.global	MIDI2_UART_ReadRxStatus
 533              		.thumb
ARM GAS  C:\Users\jmdevoto\AppData\Local\Temp\ccZJqqkc.s 			page 28


 534              		.thumb_func
 535              		.type	MIDI2_UART_ReadRxStatus, %function
 536              	MIDI2_UART_ReadRxStatus:
 537              	.LFB10:
 510:Generated_Source\PSoC5/MIDI2_UART.c ****         uint8 status;
 538              		.loc 1 510 0
 539              		.cfi_startproc
 540              		@ args = 0, pretend = 0, frame = 0
 541              		@ frame_needed = 0, uses_anonymous_args = 0
 542              		@ link register save eliminated.
 513:Generated_Source\PSoC5/MIDI2_UART.c **** 
 543              		.loc 1 513 0
 544 0000 054A     		ldr	r2, .L46
 516:Generated_Source\PSoC5/MIDI2_UART.c ****             {
 545              		.loc 1 516 0
 546 0002 064B     		ldr	r3, .L46+4
 513:Generated_Source\PSoC5/MIDI2_UART.c **** 
 547              		.loc 1 513 0
 548 0004 1078     		ldrb	r0, [r2]	@ zero_extendqisi2
 516:Generated_Source\PSoC5/MIDI2_UART.c ****             {
 549              		.loc 1 516 0
 550 0006 1A79     		ldrb	r2, [r3, #4]	@ zero_extendqisi2
 513:Generated_Source\PSoC5/MIDI2_UART.c **** 
 551              		.loc 1 513 0
 552 0008 00F07F00 		and	r0, r0, #127
 553              	.LVL21:
 516:Generated_Source\PSoC5/MIDI2_UART.c ****             {
 554              		.loc 1 516 0
 555 000c 1AB1     		cbz	r2, .L42
 519:Generated_Source\PSoC5/MIDI2_UART.c ****             }
 556              		.loc 1 519 0
 557 000e 0022     		movs	r2, #0
 518:Generated_Source\PSoC5/MIDI2_UART.c ****                 MIDI2_UART_rxBufferOverflow = 0u;
 558              		.loc 1 518 0
 559 0010 40F08000 		orr	r0, r0, #128
 560              	.LVL22:
 519:Generated_Source\PSoC5/MIDI2_UART.c ****             }
 561              		.loc 1 519 0
 562 0014 1A71     		strb	r2, [r3, #4]
 563              	.L42:
 524:Generated_Source\PSoC5/MIDI2_UART.c **** 
 564              		.loc 1 524 0
 565 0016 7047     		bx	lr
 566              	.L47:
 567              		.align	2
 568              	.L46:
 569 0018 66640040 		.word	1073767526
 570 001c 00000000 		.word	.LANCHOR0
 571              		.cfi_endproc
 572              	.LFE10:
 573              		.size	MIDI2_UART_ReadRxStatus, .-MIDI2_UART_ReadRxStatus
 574              		.section	.text.MIDI2_UART_GetChar,"ax",%progbits
 575              		.align	2
 576              		.global	MIDI2_UART_GetChar
 577              		.thumb
 578              		.thumb_func
 579              		.type	MIDI2_UART_GetChar, %function
ARM GAS  C:\Users\jmdevoto\AppData\Local\Temp\ccZJqqkc.s 			page 29


 580              	MIDI2_UART_GetChar:
 581              	.LFB11:
 557:Generated_Source\PSoC5/MIDI2_UART.c ****         uint8 rxData = 0u;
 582              		.loc 1 557 0
 583              		.cfi_startproc
 584              		@ args = 0, pretend = 0, frame = 0
 585              		@ frame_needed = 0, uses_anonymous_args = 0
 586              		@ link register save eliminated.
 587              	.LVL23:
 588 0000 10B4     		push	{r4}
 589              		.cfi_def_cfa_offset 4
 590              		.cfi_offset 4, -4
 591              	.LBB52:
 592              	.LBB53:
 361:Generated_Source\PSoC5/MIDI2_UART.c ****         }
 593              		.loc 1 361 0
 594 0002 184B     		ldr	r3, .L60
 595              	.LBE53:
 596              	.LBE52:
 569:Generated_Source\PSoC5/MIDI2_UART.c ****             loc_rxBufferWrite = MIDI2_UART_rxBufferWrite;
 597              		.loc 1 569 0
 598 0004 184A     		ldr	r2, .L60+4
 599              	.LBB55:
 600              	.LBB54:
 361:Generated_Source\PSoC5/MIDI2_UART.c ****         }
 601              		.loc 1 361 0
 602 0006 2021     		movs	r1, #32
 603 0008 1960     		str	r1, [r3]
 604              	.LBE54:
 605              	.LBE55:
 569:Generated_Source\PSoC5/MIDI2_UART.c ****             loc_rxBufferWrite = MIDI2_UART_rxBufferWrite;
 606              		.loc 1 569 0
 607 000a 5178     		ldrb	r1, [r2, #1]	@ zero_extendqisi2
 570:Generated_Source\PSoC5/MIDI2_UART.c **** 
 608              		.loc 1 570 0
 609 000c 9378     		ldrb	r3, [r2, #2]	@ zero_extendqisi2
 572:Generated_Source\PSoC5/MIDI2_UART.c ****             {
 610              		.loc 1 572 0
 611 000e D078     		ldrb	r0, [r2, #3]	@ zero_extendqisi2
 569:Generated_Source\PSoC5/MIDI2_UART.c ****             loc_rxBufferWrite = MIDI2_UART_rxBufferWrite;
 612              		.loc 1 569 0
 613 0010 C9B2     		uxtb	r1, r1
 614              	.LVL24:
 570:Generated_Source\PSoC5/MIDI2_UART.c **** 
 615              		.loc 1 570 0
 616 0012 DBB2     		uxtb	r3, r3
 617              	.LVL25:
 572:Generated_Source\PSoC5/MIDI2_UART.c ****             {
 618              		.loc 1 572 0
 619 0014 08B9     		cbnz	r0, .L49
 572:Generated_Source\PSoC5/MIDI2_UART.c ****             {
 620              		.loc 1 572 0 is_stmt 0 discriminator 1
 621 0016 9942     		cmp	r1, r3
 622 0018 13D0     		beq	.L50
 623              	.L49:
 575:Generated_Source\PSoC5/MIDI2_UART.c ****                 if(loc_rxBufferRead >= MIDI2_UART_RXBUFFERSIZE)
 624              		.loc 1 575 0 is_stmt 1
ARM GAS  C:\Users\jmdevoto\AppData\Local\Temp\ccZJqqkc.s 			page 30


 625 001a 4B1C     		adds	r3, r1, #1
 626              	.LVL26:
 627 001c DBB2     		uxtb	r3, r3
 578:Generated_Source\PSoC5/MIDI2_UART.c ****                 }
 628              		.loc 1 578 0
 629 001e FF2B     		cmp	r3, #255
 574:Generated_Source\PSoC5/MIDI2_UART.c ****                 loc_rxBufferRead++;
 630              		.loc 1 574 0
 631 0020 1248     		ldr	r0, .L60+8
 578:Generated_Source\PSoC5/MIDI2_UART.c ****                 }
 632              		.loc 1 578 0
 633 0022 08BF     		it	eq
 634 0024 0023     		moveq	r3, #0
 574:Generated_Source\PSoC5/MIDI2_UART.c ****                 loc_rxBufferRead++;
 635              		.loc 1 574 0
 636 0026 405C     		ldrb	r0, [r0, r1]	@ zero_extendqisi2
 581:Generated_Source\PSoC5/MIDI2_UART.c **** 
 637              		.loc 1 581 0
 638 0028 5370     		strb	r3, [r2, #1]
 583:Generated_Source\PSoC5/MIDI2_UART.c ****                 {
 639              		.loc 1 583 0
 640 002a D378     		ldrb	r3, [r2, #3]	@ zero_extendqisi2
 581:Generated_Source\PSoC5/MIDI2_UART.c **** 
 641              		.loc 1 581 0
 642 002c 0E4C     		ldr	r4, .L60+4
 574:Generated_Source\PSoC5/MIDI2_UART.c ****                 loc_rxBufferRead++;
 643              		.loc 1 574 0
 644 002e C0B2     		uxtb	r0, r0
 645              	.LVL27:
 583:Generated_Source\PSoC5/MIDI2_UART.c ****                 {
 646              		.loc 1 583 0
 647 0030 0BB1     		cbz	r3, .L52
 648              	.LVL28:
 585:Generated_Source\PSoC5/MIDI2_UART.c ****                     #if( (MIDI2_UART_RX_INTERRUPT_ENABLED) && (MIDI2_UART_FLOW_CONTROL != 0u) )
 649              		.loc 1 585 0
 650 0032 0023     		movs	r3, #0
 651 0034 E370     		strb	r3, [r4, #3]
 652              	.LVL29:
 653              	.L52:
 654              	.LBB56:
 655              	.LBB57:
 338:Generated_Source\PSoC5/MIDI2_UART.c ****         }
 656              		.loc 1 338 0
 657 0036 0E4B     		ldr	r3, .L60+12
 658 0038 2022     		movs	r2, #32
 659 003a 1A60     		str	r2, [r3]
 660              	.LBE57:
 661              	.LBE56:
 638:Generated_Source\PSoC5/MIDI2_UART.c **** 
 662              		.loc 1 638 0
 663 003c 5DF8044B 		ldr	r4, [sp], #4
 664              		.cfi_remember_state
 665              		.cfi_restore 4
 666              		.cfi_def_cfa_offset 0
 667 0040 7047     		bx	lr
 668              	.LVL30:
 669              	.L50:
ARM GAS  C:\Users\jmdevoto\AppData\Local\Temp\ccZJqqkc.s 			page 31


 670              		.cfi_restore_state
 604:Generated_Source\PSoC5/MIDI2_UART.c ****                 if((rxStatus & MIDI2_UART_RX_STS_FIFO_NOTEMPTY) != 0u)
 671              		.loc 1 604 0
 672 0042 0C4B     		ldr	r3, .L60+16
 673              	.LVL31:
 674 0044 1B78     		ldrb	r3, [r3]	@ zero_extendqisi2
 675 0046 DBB2     		uxtb	r3, r3
 676              	.LVL32:
 605:Generated_Source\PSoC5/MIDI2_UART.c ****                 {   /* Read received data from FIFO*/
 677              		.loc 1 605 0
 678 0048 03F02002 		and	r2, r3, #32
 679 004c 02F0FF00 		and	r0, r2, #255
 680 0050 002A     		cmp	r2, #0
 681 0052 F0D0     		beq	.L52
 607:Generated_Source\PSoC5/MIDI2_UART.c ****                     /*Check status on error*/
 682              		.loc 1 607 0
 683 0054 084A     		ldr	r2, .L60+20
 612:Generated_Source\PSoC5/MIDI2_UART.c ****                     }
 684              		.loc 1 612 0
 685 0056 13F01E0F 		tst	r3, #30
 607:Generated_Source\PSoC5/MIDI2_UART.c ****                     /*Check status on error*/
 686              		.loc 1 607 0
 687 005a 1078     		ldrb	r0, [r2]	@ zero_extendqisi2
 688              	.LVL33:
 612:Generated_Source\PSoC5/MIDI2_UART.c ****                     }
 689              		.loc 1 612 0
 690 005c 18BF     		it	ne
 691 005e 0020     		movne	r0, #0
 692              	.LVL34:
 693 0060 E9E7     		b	.L52
 694              	.L61:
 695 0062 00BF     		.align	2
 696              	.L60:
 697 0064 80E100E0 		.word	-536813184
 698 0068 00000000 		.word	.LANCHOR0
 699 006c 00000000 		.word	MIDI2_UART_rxBuffer
 700 0070 00E100E0 		.word	-536813312
 701 0074 66640040 		.word	1073767526
 702 0078 45650040 		.word	1073767749
 703              		.cfi_endproc
 704              	.LFE11:
 705              		.size	MIDI2_UART_GetChar, .-MIDI2_UART_GetChar
 706              		.section	.text.MIDI2_UART_GetByte,"ax",%progbits
 707              		.align	2
 708              		.global	MIDI2_UART_GetByte
 709              		.thumb
 710              		.thumb_func
 711              		.type	MIDI2_UART_GetByte, %function
 712              	MIDI2_UART_GetByte:
 713              	.LFB12:
 659:Generated_Source\PSoC5/MIDI2_UART.c ****         return ( ((uint16)MIDI2_UART_ReadRxStatus() << 8u) | MIDI2_UART_ReadRxData() );
 714              		.loc 1 659 0
 715              		.cfi_startproc
 716              		@ args = 0, pretend = 0, frame = 0
 717              		@ frame_needed = 0, uses_anonymous_args = 0
 718 0000 10B5     		push	{r4, lr}
 719              		.cfi_def_cfa_offset 8
ARM GAS  C:\Users\jmdevoto\AppData\Local\Temp\ccZJqqkc.s 			page 32


 720              		.cfi_offset 4, -8
 721              		.cfi_offset 14, -4
 722              	.LBB58:
 723              	.LBB59:
 513:Generated_Source\PSoC5/MIDI2_UART.c **** 
 724              		.loc 1 513 0
 725 0002 084A     		ldr	r2, .L68
 516:Generated_Source\PSoC5/MIDI2_UART.c ****             {
 726              		.loc 1 516 0
 727 0004 084B     		ldr	r3, .L68+4
 513:Generated_Source\PSoC5/MIDI2_UART.c **** 
 728              		.loc 1 513 0
 729 0006 1478     		ldrb	r4, [r2]	@ zero_extendqisi2
 516:Generated_Source\PSoC5/MIDI2_UART.c ****             {
 730              		.loc 1 516 0
 731 0008 1A79     		ldrb	r2, [r3, #4]	@ zero_extendqisi2
 513:Generated_Source\PSoC5/MIDI2_UART.c **** 
 732              		.loc 1 513 0
 733 000a 04F07F04 		and	r4, r4, #127
 734              	.LVL35:
 516:Generated_Source\PSoC5/MIDI2_UART.c ****             {
 735              		.loc 1 516 0
 736 000e 1AB1     		cbz	r2, .L63
 519:Generated_Source\PSoC5/MIDI2_UART.c ****             }
 737              		.loc 1 519 0
 738 0010 0022     		movs	r2, #0
 518:Generated_Source\PSoC5/MIDI2_UART.c ****                 MIDI2_UART_rxBufferOverflow = 0u;
 739              		.loc 1 518 0
 740 0012 44F08004 		orr	r4, r4, #128
 741              	.LVL36:
 519:Generated_Source\PSoC5/MIDI2_UART.c ****             }
 742              		.loc 1 519 0
 743 0016 1A71     		strb	r2, [r3, #4]
 744              	.L63:
 745              	.LBE59:
 746              	.LBE58:
 660:Generated_Source\PSoC5/MIDI2_UART.c ****     }
 747              		.loc 1 660 0
 748 0018 FFF7FEFF 		bl	MIDI2_UART_ReadRxData
 749              	.LVL37:
 750 001c 40EA0420 		orr	r0, r0, r4, lsl #8
 661:Generated_Source\PSoC5/MIDI2_UART.c **** 
 751              		.loc 1 661 0
 752 0020 80B2     		uxth	r0, r0
 753 0022 10BD     		pop	{r4, pc}
 754              	.LVL38:
 755              	.L69:
 756              		.align	2
 757              	.L68:
 758 0024 66640040 		.word	1073767526
 759 0028 00000000 		.word	.LANCHOR0
 760              		.cfi_endproc
 761              	.LFE12:
 762              		.size	MIDI2_UART_GetByte, .-MIDI2_UART_GetByte
 763              		.section	.text.MIDI2_UART_GetRxBufferSize,"ax",%progbits
 764              		.align	2
 765              		.global	MIDI2_UART_GetRxBufferSize
ARM GAS  C:\Users\jmdevoto\AppData\Local\Temp\ccZJqqkc.s 			page 33


 766              		.thumb
 767              		.thumb_func
 768              		.type	MIDI2_UART_GetRxBufferSize, %function
 769              	MIDI2_UART_GetRxBufferSize:
 770              	.LFB13:
 693:Generated_Source\PSoC5/MIDI2_UART.c ****         uint8 size;
 771              		.loc 1 693 0
 772              		.cfi_startproc
 773              		@ args = 0, pretend = 0, frame = 0
 774              		@ frame_needed = 0, uses_anonymous_args = 0
 775              		@ link register save eliminated.
 776              	.LBB60:
 777              	.LBB61:
 361:Generated_Source\PSoC5/MIDI2_UART.c ****         }
 778              		.loc 1 361 0
 779 0000 0F4B     		ldr	r3, .L76
 780 0002 2021     		movs	r1, #32
 781              	.LBE61:
 782              	.LBE60:
 704:Generated_Source\PSoC5/MIDI2_UART.c ****             {
 783              		.loc 1 704 0
 784 0004 0F4A     		ldr	r2, .L76+4
 785              	.LBB63:
 786              	.LBB62:
 361:Generated_Source\PSoC5/MIDI2_UART.c ****         }
 787              		.loc 1 361 0
 788 0006 1960     		str	r1, [r3]
 789              	.LBE62:
 790              	.LBE63:
 704:Generated_Source\PSoC5/MIDI2_UART.c ****             {
 791              		.loc 1 704 0
 792 0008 5178     		ldrb	r1, [r2, #1]	@ zero_extendqisi2
 793 000a 9378     		ldrb	r3, [r2, #2]	@ zero_extendqisi2
 794 000c 9942     		cmp	r1, r3
 795 000e 0DD0     		beq	.L75
 715:Generated_Source\PSoC5/MIDI2_UART.c ****             {
 796              		.loc 1 715 0
 797 0010 5178     		ldrb	r1, [r2, #1]	@ zero_extendqisi2
 798 0012 9378     		ldrb	r3, [r2, #2]	@ zero_extendqisi2
 799 0014 9942     		cmp	r1, r3
 717:Generated_Source\PSoC5/MIDI2_UART.c ****             }
 800              		.loc 1 717 0
 801 0016 9378     		ldrb	r3, [r2, #2]	@ zero_extendqisi2
 802 0018 5078     		ldrb	r0, [r2, #1]	@ zero_extendqisi2
 803 001a 28BF     		it	cs
 804 001c 03F1FF33 		addcs	r3, r3, #-1
 721:Generated_Source\PSoC5/MIDI2_UART.c ****             }
 805              		.loc 1 721 0
 806 0020 181A     		subs	r0, r3, r0
 807              	.LBB64:
 808              	.LBB65:
 338:Generated_Source\PSoC5/MIDI2_UART.c ****         }
 809              		.loc 1 338 0
 810 0022 094B     		ldr	r3, .L76+8
 811 0024 2022     		movs	r2, #32
 812              	.LBE65:
 813              	.LBE64:
ARM GAS  C:\Users\jmdevoto\AppData\Local\Temp\ccZJqqkc.s 			page 34


 721:Generated_Source\PSoC5/MIDI2_UART.c ****             }
 814              		.loc 1 721 0
 815 0026 C0B2     		uxtb	r0, r0
 816              	.LVL39:
 817              	.LBB69:
 818              	.LBB66:
 338:Generated_Source\PSoC5/MIDI2_UART.c ****         }
 819              		.loc 1 338 0
 820 0028 1A60     		str	r2, [r3]
 821              	.LBE66:
 822              	.LBE69:
 737:Generated_Source\PSoC5/MIDI2_UART.c **** 
 823              		.loc 1 737 0
 824 002a 7047     		bx	lr
 825              	.LVL40:
 826              	.L75:
 706:Generated_Source\PSoC5/MIDI2_UART.c ****                 {
 827              		.loc 1 706 0
 828 002c D078     		ldrb	r0, [r2, #3]	@ zero_extendqisi2
 829              	.LBB70:
 830              	.LBB67:
 338:Generated_Source\PSoC5/MIDI2_UART.c ****         }
 831              		.loc 1 338 0
 832 002e 064B     		ldr	r3, .L76+8
 833 0030 2022     		movs	r2, #32
 834              	.LBE67:
 835              	.LBE70:
 706:Generated_Source\PSoC5/MIDI2_UART.c ****                 {
 836              		.loc 1 706 0
 837 0032 0028     		cmp	r0, #0
 838 0034 14BF     		ite	ne
 839 0036 FF20     		movne	r0, #255
 840 0038 0020     		moveq	r0, #0
 841              	.LVL41:
 842              	.LBB71:
 843              	.LBB68:
 338:Generated_Source\PSoC5/MIDI2_UART.c ****         }
 844              		.loc 1 338 0
 845 003a 1A60     		str	r2, [r3]
 846              	.LBE68:
 847              	.LBE71:
 737:Generated_Source\PSoC5/MIDI2_UART.c **** 
 848              		.loc 1 737 0
 849 003c 7047     		bx	lr
 850              	.L77:
 851 003e 00BF     		.align	2
 852              	.L76:
 853 0040 80E100E0 		.word	-536813184
 854 0044 00000000 		.word	.LANCHOR0
 855 0048 00E100E0 		.word	-536813312
 856              		.cfi_endproc
 857              	.LFE13:
 858              		.size	MIDI2_UART_GetRxBufferSize, .-MIDI2_UART_GetRxBufferSize
 859              		.section	.text.MIDI2_UART_ClearRxBuffer,"ax",%progbits
 860              		.align	2
 861              		.global	MIDI2_UART_ClearRxBuffer
 862              		.thumb
ARM GAS  C:\Users\jmdevoto\AppData\Local\Temp\ccZJqqkc.s 			page 35


 863              		.thumb_func
 864              		.type	MIDI2_UART_ClearRxBuffer, %function
 865              	MIDI2_UART_ClearRxBuffer:
 866              	.LFB14:
 772:Generated_Source\PSoC5/MIDI2_UART.c ****         uint8 enableInterrupts;
 867              		.loc 1 772 0
 868              		.cfi_startproc
 869              		@ args = 0, pretend = 0, frame = 0
 870              		@ frame_needed = 0, uses_anonymous_args = 0
 871 0000 10B5     		push	{r4, lr}
 872              		.cfi_def_cfa_offset 8
 873              		.cfi_offset 4, -8
 874              		.cfi_offset 14, -4
 777:Generated_Source\PSoC5/MIDI2_UART.c ****         MIDI2_UART_RXDATA_AUX_CTL_REG |=  MIDI2_UART_RX_FIFO_CLR;
 875              		.loc 1 777 0
 876 0002 FFF7FEFF 		bl	CyEnterCriticalSection
 877              	.LVL42:
 778:Generated_Source\PSoC5/MIDI2_UART.c ****         MIDI2_UART_RXDATA_AUX_CTL_REG &= (uint8)~MIDI2_UART_RX_FIFO_CLR;
 878              		.loc 1 778 0
 879 0006 0B4B     		ldr	r3, .L80
 880              	.LBB72:
 881              	.LBB73:
 361:Generated_Source\PSoC5/MIDI2_UART.c ****         }
 882              		.loc 1 361 0
 883 0008 0B4C     		ldr	r4, .L80+4
 884              	.LBE73:
 885              	.LBE72:
 778:Generated_Source\PSoC5/MIDI2_UART.c ****         MIDI2_UART_RXDATA_AUX_CTL_REG &= (uint8)~MIDI2_UART_RX_FIFO_CLR;
 886              		.loc 1 778 0
 887 000a 1A78     		ldrb	r2, [r3]	@ zero_extendqisi2
 888 000c 42F00102 		orr	r2, r2, #1
 889 0010 1A70     		strb	r2, [r3]
 779:Generated_Source\PSoC5/MIDI2_UART.c ****         /* Exit critical section */
 890              		.loc 1 779 0
 891 0012 1A78     		ldrb	r2, [r3]	@ zero_extendqisi2
 892 0014 02F0FE02 		and	r2, r2, #254
 893 0018 1A70     		strb	r2, [r3]
 781:Generated_Source\PSoC5/MIDI2_UART.c **** 
 894              		.loc 1 781 0
 895 001a FFF7FEFF 		bl	CyExitCriticalSection
 896              	.LVL43:
 790:Generated_Source\PSoC5/MIDI2_UART.c ****             MIDI2_UART_rxBufferWrite = 0u;
 897              		.loc 1 790 0
 898 001e 074B     		ldr	r3, .L80+8
 899 0020 0022     		movs	r2, #0
 900              	.LBB76:
 901              	.LBB74:
 361:Generated_Source\PSoC5/MIDI2_UART.c ****         }
 902              		.loc 1 361 0
 903 0022 2021     		movs	r1, #32
 904              	.LBE74:
 905              	.LBE76:
 906              	.LBB77:
 907              	.LBB78:
 338:Generated_Source\PSoC5/MIDI2_UART.c ****         }
 908              		.loc 1 338 0
 909 0024 0648     		ldr	r0, .L80+12
ARM GAS  C:\Users\jmdevoto\AppData\Local\Temp\ccZJqqkc.s 			page 36


 910              	.LBE78:
 911              	.LBE77:
 912              	.LBB80:
 913              	.LBB75:
 361:Generated_Source\PSoC5/MIDI2_UART.c ****         }
 914              		.loc 1 361 0
 915 0026 2160     		str	r1, [r4]
 916              	.LBE75:
 917              	.LBE80:
 790:Generated_Source\PSoC5/MIDI2_UART.c ****             MIDI2_UART_rxBufferWrite = 0u;
 918              		.loc 1 790 0
 919 0028 5A70     		strb	r2, [r3, #1]
 791:Generated_Source\PSoC5/MIDI2_UART.c ****             MIDI2_UART_rxBufferLoopDetect = 0u;
 920              		.loc 1 791 0
 921 002a 9A70     		strb	r2, [r3, #2]
 792:Generated_Source\PSoC5/MIDI2_UART.c ****             MIDI2_UART_rxBufferOverflow = 0u;
 922              		.loc 1 792 0
 923 002c DA70     		strb	r2, [r3, #3]
 793:Generated_Source\PSoC5/MIDI2_UART.c **** 
 924              		.loc 1 793 0
 925 002e 1A71     		strb	r2, [r3, #4]
 926              	.LBB81:
 927              	.LBB79:
 338:Generated_Source\PSoC5/MIDI2_UART.c ****         }
 928              		.loc 1 338 0
 929 0030 0160     		str	r1, [r0]
 930 0032 10BD     		pop	{r4, pc}
 931              	.L81:
 932              		.align	2
 933              	.L80:
 934 0034 95650040 		.word	1073767829
 935 0038 80E100E0 		.word	-536813184
 936 003c 00000000 		.word	.LANCHOR0
 937 0040 00E100E0 		.word	-536813312
 938              	.LBE79:
 939              	.LBE81:
 940              		.cfi_endproc
 941              	.LFE14:
 942              		.size	MIDI2_UART_ClearRxBuffer, .-MIDI2_UART_ClearRxBuffer
 943              		.section	.text.MIDI2_UART_SetRxAddressMode,"ax",%progbits
 944              		.align	2
 945              		.global	MIDI2_UART_SetRxAddressMode
 946              		.thumb
 947              		.thumb_func
 948              		.type	MIDI2_UART_SetRxAddressMode, %function
 949              	MIDI2_UART_SetRxAddressMode:
 950              	.LFB15:
 834:Generated_Source\PSoC5/MIDI2_UART.c ****         #if(MIDI2_UART_RXHW_ADDRESS_ENABLED)
 951              		.loc 1 834 0
 952              		.cfi_startproc
 953              		@ args = 0, pretend = 0, frame = 0
 954              		@ frame_needed = 0, uses_anonymous_args = 0
 955              		@ link register save eliminated.
 956              	.LVL44:
 957 0000 7047     		bx	lr
 958              		.cfi_endproc
 959              	.LFE15:
ARM GAS  C:\Users\jmdevoto\AppData\Local\Temp\ccZJqqkc.s 			page 37


 960              		.size	MIDI2_UART_SetRxAddressMode, .-MIDI2_UART_SetRxAddressMode
 961 0002 00BF     		.section	.text.MIDI2_UART_SetRxAddress1,"ax",%progbits
 962              		.align	2
 963              		.global	MIDI2_UART_SetRxAddress1
 964              		.thumb
 965              		.thumb_func
 966              		.type	MIDI2_UART_SetRxAddress1, %function
 967              	MIDI2_UART_SetRxAddress1:
 968              	.LFB16:
 871:Generated_Source\PSoC5/MIDI2_UART.c ****         MIDI2_UART_RXADDRESS1_REG = address;
 969              		.loc 1 871 0
 970              		.cfi_startproc
 971              		@ args = 0, pretend = 0, frame = 0
 972              		@ frame_needed = 0, uses_anonymous_args = 0
 973              		@ link register save eliminated.
 974              	.LVL45:
 872:Generated_Source\PSoC5/MIDI2_UART.c ****     }
 975              		.loc 1 872 0
 976 0000 014B     		ldr	r3, .L84
 977 0002 1870     		strb	r0, [r3]
 978 0004 7047     		bx	lr
 979              	.L85:
 980 0006 00BF     		.align	2
 981              	.L84:
 982 0008 25650040 		.word	1073767717
 983              		.cfi_endproc
 984              	.LFE16:
 985              		.size	MIDI2_UART_SetRxAddress1, .-MIDI2_UART_SetRxAddress1
 986              		.section	.text.MIDI2_UART_SetRxAddress2,"ax",%progbits
 987              		.align	2
 988              		.global	MIDI2_UART_SetRxAddress2
 989              		.thumb
 990              		.thumb_func
 991              		.type	MIDI2_UART_SetRxAddress2, %function
 992              	MIDI2_UART_SetRxAddress2:
 993              	.LFB17:
 891:Generated_Source\PSoC5/MIDI2_UART.c ****         MIDI2_UART_RXADDRESS2_REG = address;
 994              		.loc 1 891 0
 995              		.cfi_startproc
 996              		@ args = 0, pretend = 0, frame = 0
 997              		@ frame_needed = 0, uses_anonymous_args = 0
 998              		@ link register save eliminated.
 999              	.LVL46:
 892:Generated_Source\PSoC5/MIDI2_UART.c ****     }
 1000              		.loc 1 892 0
 1001 0000 014B     		ldr	r3, .L87
 1002 0002 1870     		strb	r0, [r3]
 1003 0004 7047     		bx	lr
 1004              	.L88:
 1005 0006 00BF     		.align	2
 1006              	.L87:
 1007 0008 35650040 		.word	1073767733
 1008              		.cfi_endproc
 1009              	.LFE17:
 1010              		.size	MIDI2_UART_SetRxAddress2, .-MIDI2_UART_SetRxAddress2
 1011              		.section	.text.MIDI2_UART_EnableTxInt,"ax",%progbits
 1012              		.align	2
ARM GAS  C:\Users\jmdevoto\AppData\Local\Temp\ccZJqqkc.s 			page 38


 1013              		.global	MIDI2_UART_EnableTxInt
 1014              		.thumb
 1015              		.thumb_func
 1016              		.type	MIDI2_UART_EnableTxInt, %function
 1017              	MIDI2_UART_EnableTxInt:
 1018              	.LFB18:
 920:Generated_Source\PSoC5/MIDI2_UART.c ****             CyIntEnable(MIDI2_UART_TX_VECT_NUM);
 1019              		.loc 1 920 0
 1020              		.cfi_startproc
 1021              		@ args = 0, pretend = 0, frame = 0
 1022              		@ frame_needed = 0, uses_anonymous_args = 0
 1023              		@ link register save eliminated.
 921:Generated_Source\PSoC5/MIDI2_UART.c ****         }
 1024              		.loc 1 921 0
 1025 0000 014B     		ldr	r3, .L90
 1026 0002 4022     		movs	r2, #64
 1027 0004 1A60     		str	r2, [r3]
 1028 0006 7047     		bx	lr
 1029              	.L91:
 1030              		.align	2
 1031              	.L90:
 1032 0008 00E100E0 		.word	-536813312
 1033              		.cfi_endproc
 1034              	.LFE18:
 1035              		.size	MIDI2_UART_EnableTxInt, .-MIDI2_UART_EnableTxInt
 1036              		.section	.text.MIDI2_UART_DisableTxInt,"ax",%progbits
 1037              		.align	2
 1038              		.global	MIDI2_UART_DisableTxInt
 1039              		.thumb
 1040              		.thumb_func
 1041              		.type	MIDI2_UART_DisableTxInt, %function
 1042              	MIDI2_UART_DisableTxInt:
 1043              	.LFB19:
 943:Generated_Source\PSoC5/MIDI2_UART.c ****             CyIntDisable(MIDI2_UART_TX_VECT_NUM);
 1044              		.loc 1 943 0
 1045              		.cfi_startproc
 1046              		@ args = 0, pretend = 0, frame = 0
 1047              		@ frame_needed = 0, uses_anonymous_args = 0
 1048              		@ link register save eliminated.
 1049              		.loc 1 944 0
 1050 0000 014B     		ldr	r3, .L93
 1051 0002 4022     		movs	r2, #64
 1052 0004 1A60     		str	r2, [r3]
 1053 0006 7047     		bx	lr
 1054              	.L94:
 1055              		.align	2
 1056              	.L93:
 1057 0008 80E100E0 		.word	-536813184
 1058              		.cfi_endproc
 1059              	.LFE19:
 1060              		.size	MIDI2_UART_DisableTxInt, .-MIDI2_UART_DisableTxInt
 1061              		.section	.text.MIDI2_UART_SetTxInterruptMode,"ax",%progbits
 1062              		.align	2
 1063              		.global	MIDI2_UART_SetTxInterruptMode
 1064              		.thumb
 1065              		.thumb_func
 1066              		.type	MIDI2_UART_SetTxInterruptMode, %function
ARM GAS  C:\Users\jmdevoto\AppData\Local\Temp\ccZJqqkc.s 			page 39


 1067              	MIDI2_UART_SetTxInterruptMode:
 1068              	.LFB20:
 945:Generated_Source\PSoC5/MIDI2_UART.c ****         }
 946:Generated_Source\PSoC5/MIDI2_UART.c **** 
 947:Generated_Source\PSoC5/MIDI2_UART.c ****     #endif /* MIDI2_UART_TX_INTERRUPT_ENABLED */
 948:Generated_Source\PSoC5/MIDI2_UART.c **** 
 949:Generated_Source\PSoC5/MIDI2_UART.c **** 
 950:Generated_Source\PSoC5/MIDI2_UART.c ****     /*******************************************************************************
 951:Generated_Source\PSoC5/MIDI2_UART.c ****     * Function Name: MIDI2_UART_SetTxInterruptMode
 952:Generated_Source\PSoC5/MIDI2_UART.c ****     ********************************************************************************
 953:Generated_Source\PSoC5/MIDI2_UART.c ****     *
 954:Generated_Source\PSoC5/MIDI2_UART.c ****     * Summary:
 955:Generated_Source\PSoC5/MIDI2_UART.c ****     *  Configure which status bits trigger an interrupt event
 956:Generated_Source\PSoC5/MIDI2_UART.c ****     *
 957:Generated_Source\PSoC5/MIDI2_UART.c ****     * Parameters:
 958:Generated_Source\PSoC5/MIDI2_UART.c ****     *  intSrc: An or'd combination of the desired status bit masks (defined in
 959:Generated_Source\PSoC5/MIDI2_UART.c ****     *          the header file)
 960:Generated_Source\PSoC5/MIDI2_UART.c ****     *
 961:Generated_Source\PSoC5/MIDI2_UART.c ****     * Return:
 962:Generated_Source\PSoC5/MIDI2_UART.c ****     *  None.
 963:Generated_Source\PSoC5/MIDI2_UART.c ****     *
 964:Generated_Source\PSoC5/MIDI2_UART.c ****     * Theory:
 965:Generated_Source\PSoC5/MIDI2_UART.c ****     *  Enables the output of specific status bits to the interrupt controller
 966:Generated_Source\PSoC5/MIDI2_UART.c ****     *
 967:Generated_Source\PSoC5/MIDI2_UART.c ****     *******************************************************************************/
 968:Generated_Source\PSoC5/MIDI2_UART.c ****     void MIDI2_UART_SetTxInterruptMode(uint8 intSrc) 
 969:Generated_Source\PSoC5/MIDI2_UART.c ****     {
 1069              		.loc 1 969 0
 1070              		.cfi_startproc
 1071              		@ args = 0, pretend = 0, frame = 0
 1072              		@ frame_needed = 0, uses_anonymous_args = 0
 1073              		@ link register save eliminated.
 1074              	.LVL47:
 970:Generated_Source\PSoC5/MIDI2_UART.c ****         MIDI2_UART_TXSTATUS_MASK_REG = intSrc;
 1075              		.loc 1 970 0
 1076 0000 014B     		ldr	r3, .L96
 1077 0002 1870     		strb	r0, [r3]
 1078 0004 7047     		bx	lr
 1079              	.L97:
 1080 0006 00BF     		.align	2
 1081              	.L96:
 1082 0008 83640040 		.word	1073767555
 1083              		.cfi_endproc
 1084              	.LFE20:
 1085              		.size	MIDI2_UART_SetTxInterruptMode, .-MIDI2_UART_SetTxInterruptMode
 1086              		.section	.text.MIDI2_UART_WriteTxData,"ax",%progbits
 1087              		.align	2
 1088              		.global	MIDI2_UART_WriteTxData
 1089              		.thumb
 1090              		.thumb_func
 1091              		.type	MIDI2_UART_WriteTxData, %function
 1092              	MIDI2_UART_WriteTxData:
 1093              	.LFB21:
 971:Generated_Source\PSoC5/MIDI2_UART.c ****     }
 972:Generated_Source\PSoC5/MIDI2_UART.c **** 
 973:Generated_Source\PSoC5/MIDI2_UART.c **** 
 974:Generated_Source\PSoC5/MIDI2_UART.c ****     /*******************************************************************************
ARM GAS  C:\Users\jmdevoto\AppData\Local\Temp\ccZJqqkc.s 			page 40


 975:Generated_Source\PSoC5/MIDI2_UART.c ****     * Function Name: MIDI2_UART_WriteTxData
 976:Generated_Source\PSoC5/MIDI2_UART.c ****     ********************************************************************************
 977:Generated_Source\PSoC5/MIDI2_UART.c ****     *
 978:Generated_Source\PSoC5/MIDI2_UART.c ****     * Summary:
 979:Generated_Source\PSoC5/MIDI2_UART.c ****     *  Write a byte of data to the Transmit FIFO or TX buffer to be sent when the
 980:Generated_Source\PSoC5/MIDI2_UART.c ****     *  bus is available. WriteTxData sends a byte without checking for buffer room
 981:Generated_Source\PSoC5/MIDI2_UART.c ****     *  or status. It is up to the user to separately check status.
 982:Generated_Source\PSoC5/MIDI2_UART.c ****     *
 983:Generated_Source\PSoC5/MIDI2_UART.c ****     * Parameters:
 984:Generated_Source\PSoC5/MIDI2_UART.c ****     *  TXDataByte: byte of data to place in the transmit FIFO
 985:Generated_Source\PSoC5/MIDI2_UART.c ****     *
 986:Generated_Source\PSoC5/MIDI2_UART.c ****     * Return:
 987:Generated_Source\PSoC5/MIDI2_UART.c ****     * void
 988:Generated_Source\PSoC5/MIDI2_UART.c ****     *
 989:Generated_Source\PSoC5/MIDI2_UART.c ****     * Global Variables:
 990:Generated_Source\PSoC5/MIDI2_UART.c ****     *  MIDI2_UART_txBuffer - RAM buffer pointer for save data for transmission
 991:Generated_Source\PSoC5/MIDI2_UART.c ****     *  MIDI2_UART_txBufferWrite - cyclic index for write to txBuffer,
 992:Generated_Source\PSoC5/MIDI2_UART.c ****     *    incremented after each byte saved to buffer.
 993:Generated_Source\PSoC5/MIDI2_UART.c ****     *  MIDI2_UART_txBufferRead - cyclic index for read from txBuffer,
 994:Generated_Source\PSoC5/MIDI2_UART.c ****     *    checked to identify the condition to write to FIFO directly or to TX buffer
 995:Generated_Source\PSoC5/MIDI2_UART.c ****     *  MIDI2_UART_initVar - checked to identify that the component has been
 996:Generated_Source\PSoC5/MIDI2_UART.c ****     *    initialized.
 997:Generated_Source\PSoC5/MIDI2_UART.c ****     *
 998:Generated_Source\PSoC5/MIDI2_UART.c ****     * Reentrant:
 999:Generated_Source\PSoC5/MIDI2_UART.c ****     *  No.
1000:Generated_Source\PSoC5/MIDI2_UART.c ****     *
1001:Generated_Source\PSoC5/MIDI2_UART.c ****     *******************************************************************************/
1002:Generated_Source\PSoC5/MIDI2_UART.c ****     void MIDI2_UART_WriteTxData(uint8 txDataByte) 
1003:Generated_Source\PSoC5/MIDI2_UART.c ****     {
 1094              		.loc 1 1003 0
 1095              		.cfi_startproc
 1096              		@ args = 0, pretend = 0, frame = 0
 1097              		@ frame_needed = 0, uses_anonymous_args = 0
 1098              		@ link register save eliminated.
 1099              	.LVL48:
 1100 0000 10B4     		push	{r4}
 1101              		.cfi_def_cfa_offset 4
 1102              		.cfi_offset 4, -4
1004:Generated_Source\PSoC5/MIDI2_UART.c ****         /* If not Initialized then skip this function*/
1005:Generated_Source\PSoC5/MIDI2_UART.c ****         if(MIDI2_UART_initVar != 0u)
 1103              		.loc 1 1005 0
 1104 0002 104B     		ldr	r3, .L109
 1105 0004 1A78     		ldrb	r2, [r3]	@ zero_extendqisi2
 1106 0006 9AB1     		cbz	r2, .L98
 1107              	.LBB82:
 1108              	.LBB83:
 944:Generated_Source\PSoC5/MIDI2_UART.c ****         }
 1109              		.loc 1 944 0
 1110 0008 0F4A     		ldr	r2, .L109+4
 1111 000a 4021     		movs	r1, #64
 1112 000c 1160     		str	r1, [r2]
 1113              	.LBE83:
 1114              	.LBE82:
1006:Generated_Source\PSoC5/MIDI2_UART.c ****         {
1007:Generated_Source\PSoC5/MIDI2_UART.c ****             #if(MIDI2_UART_TXBUFFERSIZE > MIDI2_UART_FIFO_LENGTH)
1008:Generated_Source\PSoC5/MIDI2_UART.c **** 
1009:Generated_Source\PSoC5/MIDI2_UART.c ****                 /* Disable Tx interrupt. */
ARM GAS  C:\Users\jmdevoto\AppData\Local\Temp\ccZJqqkc.s 			page 41


1010:Generated_Source\PSoC5/MIDI2_UART.c ****                 /* Protect variables that could change on interrupt. */
1011:Generated_Source\PSoC5/MIDI2_UART.c ****                 #if(MIDI2_UART_TX_INTERRUPT_ENABLED)
1012:Generated_Source\PSoC5/MIDI2_UART.c ****                     MIDI2_UART_DisableTxInt();
1013:Generated_Source\PSoC5/MIDI2_UART.c ****                 #endif /* End MIDI2_UART_TX_INTERRUPT_ENABLED */
1014:Generated_Source\PSoC5/MIDI2_UART.c **** 
1015:Generated_Source\PSoC5/MIDI2_UART.c ****                 if( (MIDI2_UART_txBufferRead == MIDI2_UART_txBufferWrite) &&
 1115              		.loc 1 1015 0
 1116 000e 5979     		ldrb	r1, [r3, #5]	@ zero_extendqisi2
 1117 0010 9A79     		ldrb	r2, [r3, #6]	@ zero_extendqisi2
 1118 0012 9142     		cmp	r1, r2
 1119 0014 0FD0     		beq	.L108
 1120              	.L100:
1016:Generated_Source\PSoC5/MIDI2_UART.c ****                     ((MIDI2_UART_TXSTATUS_REG & MIDI2_UART_TX_STS_FIFO_FULL) == 0u) )
1017:Generated_Source\PSoC5/MIDI2_UART.c ****                 {
1018:Generated_Source\PSoC5/MIDI2_UART.c ****                     /* Add directly to the FIFO. */
1019:Generated_Source\PSoC5/MIDI2_UART.c ****                     MIDI2_UART_TXDATA_REG = txDataByte;
1020:Generated_Source\PSoC5/MIDI2_UART.c ****                 }
1021:Generated_Source\PSoC5/MIDI2_UART.c ****                 else
1022:Generated_Source\PSoC5/MIDI2_UART.c ****                 {
1023:Generated_Source\PSoC5/MIDI2_UART.c ****                     if(MIDI2_UART_txBufferWrite >= MIDI2_UART_TXBUFFERSIZE)
 1121              		.loc 1 1023 0
 1122 0016 FF2A     		cmp	r2, #255
 1123 0018 18BF     		it	ne
 1124 001a 511C     		addne	r1, r2, #1
1024:Generated_Source\PSoC5/MIDI2_UART.c ****                     {
1025:Generated_Source\PSoC5/MIDI2_UART.c ****                         MIDI2_UART_txBufferWrite = 0u;
1026:Generated_Source\PSoC5/MIDI2_UART.c ****                     }
1027:Generated_Source\PSoC5/MIDI2_UART.c **** 
1028:Generated_Source\PSoC5/MIDI2_UART.c ****                     MIDI2_UART_txBuffer[MIDI2_UART_txBufferWrite] = txDataByte;
 1125              		.loc 1 1028 0
 1126 001c 0B4C     		ldr	r4, .L109+8
 1127 001e 12BF     		itee	ne
 1128 0020 C9B2     		uxtbne	r1, r1
 1129 0022 0121     		moveq	r1, #1
 1130 0024 0022     		moveq	r2, #0
1029:Generated_Source\PSoC5/MIDI2_UART.c **** 
1030:Generated_Source\PSoC5/MIDI2_UART.c ****                     /* Add to the software buffer. */
1031:Generated_Source\PSoC5/MIDI2_UART.c ****                     MIDI2_UART_txBufferWrite++;
 1131              		.loc 1 1031 0
 1132 0026 9971     		strb	r1, [r3, #6]
1028:Generated_Source\PSoC5/MIDI2_UART.c **** 
 1133              		.loc 1 1028 0
 1134 0028 A054     		strb	r0, [r4, r2]
 1135              	.L101:
 1136              	.LBB84:
 1137              	.LBB85:
 921:Generated_Source\PSoC5/MIDI2_UART.c ****         }
 1138              		.loc 1 921 0
 1139 002a 094B     		ldr	r3, .L109+12
 1140 002c 4022     		movs	r2, #64
 1141 002e 1A60     		str	r2, [r3]
 1142              	.L98:
 1143              	.LBE85:
 1144              	.LBE84:
1032:Generated_Source\PSoC5/MIDI2_UART.c **** 
1033:Generated_Source\PSoC5/MIDI2_UART.c ****                 }
1034:Generated_Source\PSoC5/MIDI2_UART.c **** 
ARM GAS  C:\Users\jmdevoto\AppData\Local\Temp\ccZJqqkc.s 			page 42


1035:Generated_Source\PSoC5/MIDI2_UART.c ****                 /* Enable Tx interrupt. */
1036:Generated_Source\PSoC5/MIDI2_UART.c ****                 #if(MIDI2_UART_TX_INTERRUPT_ENABLED)
1037:Generated_Source\PSoC5/MIDI2_UART.c ****                     MIDI2_UART_EnableTxInt();
1038:Generated_Source\PSoC5/MIDI2_UART.c ****                 #endif /* End MIDI2_UART_TX_INTERRUPT_ENABLED */
1039:Generated_Source\PSoC5/MIDI2_UART.c **** 
1040:Generated_Source\PSoC5/MIDI2_UART.c ****             #else /* MIDI2_UART_TXBUFFERSIZE > MIDI2_UART_FIFO_LENGTH */
1041:Generated_Source\PSoC5/MIDI2_UART.c **** 
1042:Generated_Source\PSoC5/MIDI2_UART.c ****                 /* Add directly to the FIFO. */
1043:Generated_Source\PSoC5/MIDI2_UART.c ****                 MIDI2_UART_TXDATA_REG = txDataByte;
1044:Generated_Source\PSoC5/MIDI2_UART.c **** 
1045:Generated_Source\PSoC5/MIDI2_UART.c ****             #endif /* End MIDI2_UART_TXBUFFERSIZE > MIDI2_UART_FIFO_LENGTH */
1046:Generated_Source\PSoC5/MIDI2_UART.c ****         }
1047:Generated_Source\PSoC5/MIDI2_UART.c ****     }
 1145              		.loc 1 1047 0
 1146 0030 5DF8044B 		ldr	r4, [sp], #4
 1147              		.cfi_remember_state
 1148              		.cfi_restore 4
 1149              		.cfi_def_cfa_offset 0
 1150 0034 7047     		bx	lr
 1151              	.L108:
 1152              		.cfi_restore_state
1016:Generated_Source\PSoC5/MIDI2_UART.c ****                 {
 1153              		.loc 1 1016 0 discriminator 1
 1154 0036 0749     		ldr	r1, .L109+16
 1155 0038 0978     		ldrb	r1, [r1]	@ zero_extendqisi2
1015:Generated_Source\PSoC5/MIDI2_UART.c ****                     ((MIDI2_UART_TXSTATUS_REG & MIDI2_UART_TX_STS_FIFO_FULL) == 0u) )
 1156              		.loc 1 1015 0 discriminator 1
 1157 003a 4907     		lsls	r1, r1, #29
 1158 003c EBD4     		bmi	.L100
1019:Generated_Source\PSoC5/MIDI2_UART.c ****                 }
 1159              		.loc 1 1019 0
 1160 003e 064B     		ldr	r3, .L109+20
 1161 0040 1870     		strb	r0, [r3]
 1162 0042 F2E7     		b	.L101
 1163              	.L110:
 1164              		.align	2
 1165              	.L109:
 1166 0044 00000000 		.word	.LANCHOR0
 1167 0048 80E100E0 		.word	-536813184
 1168 004c 00000000 		.word	MIDI2_UART_txBuffer
 1169 0050 00E100E0 		.word	-536813312
 1170 0054 63640040 		.word	1073767523
 1171 0058 43640040 		.word	1073767491
 1172              		.cfi_endproc
 1173              	.LFE21:
 1174              		.size	MIDI2_UART_WriteTxData, .-MIDI2_UART_WriteTxData
 1175              		.section	.text.MIDI2_UART_ReadTxStatus,"ax",%progbits
 1176              		.align	2
 1177              		.global	MIDI2_UART_ReadTxStatus
 1178              		.thumb
 1179              		.thumb_func
 1180              		.type	MIDI2_UART_ReadTxStatus, %function
 1181              	MIDI2_UART_ReadTxStatus:
 1182              	.LFB22:
1048:Generated_Source\PSoC5/MIDI2_UART.c **** 
1049:Generated_Source\PSoC5/MIDI2_UART.c **** 
1050:Generated_Source\PSoC5/MIDI2_UART.c ****     /*******************************************************************************
ARM GAS  C:\Users\jmdevoto\AppData\Local\Temp\ccZJqqkc.s 			page 43


1051:Generated_Source\PSoC5/MIDI2_UART.c ****     * Function Name: MIDI2_UART_ReadTxStatus
1052:Generated_Source\PSoC5/MIDI2_UART.c ****     ********************************************************************************
1053:Generated_Source\PSoC5/MIDI2_UART.c ****     *
1054:Generated_Source\PSoC5/MIDI2_UART.c ****     * Summary:
1055:Generated_Source\PSoC5/MIDI2_UART.c ****     *  Read the status register for the component
1056:Generated_Source\PSoC5/MIDI2_UART.c ****     *
1057:Generated_Source\PSoC5/MIDI2_UART.c ****     * Parameters:
1058:Generated_Source\PSoC5/MIDI2_UART.c ****     *  None.
1059:Generated_Source\PSoC5/MIDI2_UART.c ****     *
1060:Generated_Source\PSoC5/MIDI2_UART.c ****     * Return:
1061:Generated_Source\PSoC5/MIDI2_UART.c ****     *  Contents of the status register
1062:Generated_Source\PSoC5/MIDI2_UART.c ****     *
1063:Generated_Source\PSoC5/MIDI2_UART.c ****     * Theory:
1064:Generated_Source\PSoC5/MIDI2_UART.c ****     *  This function reads the status register which is clear on read. It is up to
1065:Generated_Source\PSoC5/MIDI2_UART.c ****     *  the user to handle all bits in this return value accordingly, even if the bit
1066:Generated_Source\PSoC5/MIDI2_UART.c ****     *  was not enabled as an interrupt source the event happened and must be handled
1067:Generated_Source\PSoC5/MIDI2_UART.c ****     *  accordingly.
1068:Generated_Source\PSoC5/MIDI2_UART.c ****     *
1069:Generated_Source\PSoC5/MIDI2_UART.c ****     *******************************************************************************/
1070:Generated_Source\PSoC5/MIDI2_UART.c ****     uint8 MIDI2_UART_ReadTxStatus(void) 
1071:Generated_Source\PSoC5/MIDI2_UART.c ****     {
 1183              		.loc 1 1071 0
 1184              		.cfi_startproc
 1185              		@ args = 0, pretend = 0, frame = 0
 1186              		@ frame_needed = 0, uses_anonymous_args = 0
 1187              		@ link register save eliminated.
1072:Generated_Source\PSoC5/MIDI2_UART.c ****         return(MIDI2_UART_TXSTATUS_REG);
 1188              		.loc 1 1072 0
 1189 0000 014B     		ldr	r3, .L112
 1190 0002 1878     		ldrb	r0, [r3]	@ zero_extendqisi2
1073:Generated_Source\PSoC5/MIDI2_UART.c ****     }
 1191              		.loc 1 1073 0
 1192 0004 7047     		bx	lr
 1193              	.L113:
 1194 0006 00BF     		.align	2
 1195              	.L112:
 1196 0008 63640040 		.word	1073767523
 1197              		.cfi_endproc
 1198              	.LFE22:
 1199              		.size	MIDI2_UART_ReadTxStatus, .-MIDI2_UART_ReadTxStatus
 1200              		.section	.text.MIDI2_UART_PutChar,"ax",%progbits
 1201              		.align	2
 1202              		.global	MIDI2_UART_PutChar
 1203              		.thumb
 1204              		.thumb_func
 1205              		.type	MIDI2_UART_PutChar, %function
 1206              	MIDI2_UART_PutChar:
 1207              	.LFB23:
1074:Generated_Source\PSoC5/MIDI2_UART.c **** 
1075:Generated_Source\PSoC5/MIDI2_UART.c **** 
1076:Generated_Source\PSoC5/MIDI2_UART.c ****     /*******************************************************************************
1077:Generated_Source\PSoC5/MIDI2_UART.c ****     * Function Name: MIDI2_UART_PutChar
1078:Generated_Source\PSoC5/MIDI2_UART.c ****     ********************************************************************************
1079:Generated_Source\PSoC5/MIDI2_UART.c ****     *
1080:Generated_Source\PSoC5/MIDI2_UART.c ****     * Summary:
1081:Generated_Source\PSoC5/MIDI2_UART.c ****     *  Wait to send byte until TX register or buffer has room.
1082:Generated_Source\PSoC5/MIDI2_UART.c ****     *
ARM GAS  C:\Users\jmdevoto\AppData\Local\Temp\ccZJqqkc.s 			page 44


1083:Generated_Source\PSoC5/MIDI2_UART.c ****     * Parameters:
1084:Generated_Source\PSoC5/MIDI2_UART.c ****     *  txDataByte: The 8-bit data value to send across the UART.
1085:Generated_Source\PSoC5/MIDI2_UART.c ****     *
1086:Generated_Source\PSoC5/MIDI2_UART.c ****     * Return:
1087:Generated_Source\PSoC5/MIDI2_UART.c ****     *  None.
1088:Generated_Source\PSoC5/MIDI2_UART.c ****     *
1089:Generated_Source\PSoC5/MIDI2_UART.c ****     * Global Variables:
1090:Generated_Source\PSoC5/MIDI2_UART.c ****     *  MIDI2_UART_txBuffer - RAM buffer pointer for save data for transmission
1091:Generated_Source\PSoC5/MIDI2_UART.c ****     *  MIDI2_UART_txBufferWrite - cyclic index for write to txBuffer,
1092:Generated_Source\PSoC5/MIDI2_UART.c ****     *     checked to identify free space in txBuffer and incremented after each byte
1093:Generated_Source\PSoC5/MIDI2_UART.c ****     *     saved to buffer.
1094:Generated_Source\PSoC5/MIDI2_UART.c ****     *  MIDI2_UART_txBufferRead - cyclic index for read from txBuffer,
1095:Generated_Source\PSoC5/MIDI2_UART.c ****     *     checked to identify free space in txBuffer.
1096:Generated_Source\PSoC5/MIDI2_UART.c ****     *  MIDI2_UART_initVar - checked to identify that the component has been
1097:Generated_Source\PSoC5/MIDI2_UART.c ****     *     initialized.
1098:Generated_Source\PSoC5/MIDI2_UART.c ****     *
1099:Generated_Source\PSoC5/MIDI2_UART.c ****     * Reentrant:
1100:Generated_Source\PSoC5/MIDI2_UART.c ****     *  No.
1101:Generated_Source\PSoC5/MIDI2_UART.c ****     *
1102:Generated_Source\PSoC5/MIDI2_UART.c ****     * Theory:
1103:Generated_Source\PSoC5/MIDI2_UART.c ****     *  Allows the user to transmit any byte of data in a single transfer
1104:Generated_Source\PSoC5/MIDI2_UART.c ****     *
1105:Generated_Source\PSoC5/MIDI2_UART.c ****     *******************************************************************************/
1106:Generated_Source\PSoC5/MIDI2_UART.c ****     void MIDI2_UART_PutChar(uint8 txDataByte) 
1107:Generated_Source\PSoC5/MIDI2_UART.c ****     {
 1208              		.loc 1 1107 0
 1209              		.cfi_startproc
 1210              		@ args = 0, pretend = 0, frame = 0
 1211              		@ frame_needed = 0, uses_anonymous_args = 0
 1212              		@ link register save eliminated.
 1213              	.LVL49:
 1214 0000 30B4     		push	{r4, r5}
 1215              		.cfi_def_cfa_offset 8
 1216              		.cfi_offset 4, -8
 1217              		.cfi_offset 5, -4
 1218 0002 124D     		ldr	r5, .L125
 1219 0004 A979     		ldrb	r1, [r5, #6]	@ zero_extendqisi2
 1220              	.L117:
 1221              	.LVL50:
1108:Generated_Source\PSoC5/MIDI2_UART.c ****             #if(MIDI2_UART_TXBUFFERSIZE > MIDI2_UART_FIFO_LENGTH)
1109:Generated_Source\PSoC5/MIDI2_UART.c ****                 /* The temporary output pointer is used since it takes two instructions
1110:Generated_Source\PSoC5/MIDI2_UART.c ****                 *  to increment with a wrap, and we can't risk doing that with the real
1111:Generated_Source\PSoC5/MIDI2_UART.c ****                 *  pointer and getting an interrupt in between instructions.
1112:Generated_Source\PSoC5/MIDI2_UART.c ****                 */
1113:Generated_Source\PSoC5/MIDI2_UART.c ****                 uint8 loc_txBufferWrite;
1114:Generated_Source\PSoC5/MIDI2_UART.c ****                 uint8 loc_txBufferRead;
1115:Generated_Source\PSoC5/MIDI2_UART.c **** 
1116:Generated_Source\PSoC5/MIDI2_UART.c ****                 do{
1117:Generated_Source\PSoC5/MIDI2_UART.c ****                     /* Block if software buffer is full, so we don't overwrite. */
1118:Generated_Source\PSoC5/MIDI2_UART.c ****                     #if ((MIDI2_UART_TXBUFFERSIZE > MIDI2_UART_MAX_BYTE_VALUE) && (CY_PSOC3))
1119:Generated_Source\PSoC5/MIDI2_UART.c ****                         /* Disable TX interrupt to protect variables that could change on interrupt
1120:Generated_Source\PSoC5/MIDI2_UART.c ****                         CyIntDisable(MIDI2_UART_TX_VECT_NUM);
1121:Generated_Source\PSoC5/MIDI2_UART.c ****                     #endif /* End TXBUFFERSIZE > 255 */
1122:Generated_Source\PSoC5/MIDI2_UART.c ****                     loc_txBufferWrite = MIDI2_UART_txBufferWrite;
1123:Generated_Source\PSoC5/MIDI2_UART.c ****                     loc_txBufferRead = MIDI2_UART_txBufferRead;
 1222              		.loc 1 1123 0
 1223 0006 6B79     		ldrb	r3, [r5, #5]	@ zero_extendqisi2
ARM GAS  C:\Users\jmdevoto\AppData\Local\Temp\ccZJqqkc.s 			page 45


 1224 0008 DBB2     		uxtb	r3, r3
 1225              	.LVL51:
1124:Generated_Source\PSoC5/MIDI2_UART.c ****                     #if ((MIDI2_UART_TXBUFFERSIZE > MIDI2_UART_MAX_BYTE_VALUE) && (CY_PSOC3))
1125:Generated_Source\PSoC5/MIDI2_UART.c ****                         /* Enable interrupt to continue transmission */
1126:Generated_Source\PSoC5/MIDI2_UART.c ****                         CyIntEnable(MIDI2_UART_TX_VECT_NUM);
1127:Generated_Source\PSoC5/MIDI2_UART.c ****                     #endif /* End TXBUFFERSIZE > 255 */
1128:Generated_Source\PSoC5/MIDI2_UART.c ****                 }while( (loc_txBufferWrite < loc_txBufferRead) ? (loc_txBufferWrite == (loc_txBuffe
1129:Generated_Source\PSoC5/MIDI2_UART.c ****                                         ((loc_txBufferWrite - loc_txBufferRead) ==
 1226              		.loc 1 1129 0
 1227 000a CA1A     		subs	r2, r1, r3
1128:Generated_Source\PSoC5/MIDI2_UART.c ****                                         ((loc_txBufferWrite - loc_txBufferRead) ==
 1228              		.loc 1 1128 0
 1229 000c 8B42     		cmp	r3, r1
 1230 000e 03F1FF34 		add	r4, r3, #-1
 1231 0012 8CBF     		ite	hi
 1232 0014 0A1B     		subhi	r2, r1, r4
 1233 0016 FE3A     		subls	r2, #254
 1234 0018 B2FA82F2 		clz	r2, r2
 1235 001c 5209     		lsrs	r2, r2, #5
1130:Generated_Source\PSoC5/MIDI2_UART.c ****                                         (uint8)(MIDI2_UART_TXBUFFERSIZE - 1u)) );
 1236              		.loc 1 1130 0
 1237 001e 002A     		cmp	r2, #0
 1238 0020 F1D1     		bne	.L117
1131:Generated_Source\PSoC5/MIDI2_UART.c **** 
1132:Generated_Source\PSoC5/MIDI2_UART.c ****                 if( (loc_txBufferRead == loc_txBufferWrite) &&
 1239              		.loc 1 1132 0
 1240 0022 8B42     		cmp	r3, r1
 1241 0024 0AD0     		beq	.L124
 1242              	.LVL52:
 1243              	.L118:
1133:Generated_Source\PSoC5/MIDI2_UART.c ****                     ((MIDI2_UART_TXSTATUS_REG & MIDI2_UART_TX_STS_FIFO_FULL) == 0u) )
1134:Generated_Source\PSoC5/MIDI2_UART.c ****                 {
1135:Generated_Source\PSoC5/MIDI2_UART.c ****                     /* Add directly to the FIFO. */
1136:Generated_Source\PSoC5/MIDI2_UART.c ****                     MIDI2_UART_TXDATA_REG = txDataByte;
1137:Generated_Source\PSoC5/MIDI2_UART.c ****                 }
1138:Generated_Source\PSoC5/MIDI2_UART.c ****                 else
1139:Generated_Source\PSoC5/MIDI2_UART.c ****                 {
1140:Generated_Source\PSoC5/MIDI2_UART.c ****                     if(loc_txBufferWrite >= MIDI2_UART_TXBUFFERSIZE)
 1244              		.loc 1 1140 0
 1245 0026 FF29     		cmp	r1, #255
1141:Generated_Source\PSoC5/MIDI2_UART.c ****                     {
1142:Generated_Source\PSoC5/MIDI2_UART.c ****                         loc_txBufferWrite = 0u;
1143:Generated_Source\PSoC5/MIDI2_UART.c ****                     }
1144:Generated_Source\PSoC5/MIDI2_UART.c ****                     /* Add to the software buffer. */
1145:Generated_Source\PSoC5/MIDI2_UART.c ****                     MIDI2_UART_txBuffer[loc_txBufferWrite] = txDataByte;
 1246              		.loc 1 1145 0
 1247 0028 094A     		ldr	r2, .L125+4
 1248 002a 15BF     		itete	ne
 1249 002c 4B1C     		addne	r3, r1, #1
 1250 002e 0021     		moveq	r1, #0
 1251              	.LVL53:
 1252 0030 DBB2     		uxtbne	r3, r3
 1253 0032 0123     		moveq	r3, #1
 1254 0034 5054     		strb	r0, [r2, r1]
 1255              	.LVL54:
1146:Generated_Source\PSoC5/MIDI2_UART.c ****                     loc_txBufferWrite++;
1147:Generated_Source\PSoC5/MIDI2_UART.c **** 
ARM GAS  C:\Users\jmdevoto\AppData\Local\Temp\ccZJqqkc.s 			page 46


1148:Generated_Source\PSoC5/MIDI2_UART.c ****                     /* Finally, update the real output pointer */
1149:Generated_Source\PSoC5/MIDI2_UART.c ****                     #if ((MIDI2_UART_TXBUFFERSIZE > MIDI2_UART_MAX_BYTE_VALUE) && (CY_PSOC3))
1150:Generated_Source\PSoC5/MIDI2_UART.c ****                         CyIntDisable(MIDI2_UART_TX_VECT_NUM);
1151:Generated_Source\PSoC5/MIDI2_UART.c ****                     #endif /* End TXBUFFERSIZE > 255 */
1152:Generated_Source\PSoC5/MIDI2_UART.c ****                     MIDI2_UART_txBufferWrite = loc_txBufferWrite;
 1256              		.loc 1 1152 0
 1257 0036 AB71     		strb	r3, [r5, #6]
1153:Generated_Source\PSoC5/MIDI2_UART.c ****                     #if ((MIDI2_UART_TXBUFFERSIZE > MIDI2_UART_MAX_BYTE_VALUE) && (CY_PSOC3))
1154:Generated_Source\PSoC5/MIDI2_UART.c ****                         CyIntEnable(MIDI2_UART_TX_VECT_NUM);
1155:Generated_Source\PSoC5/MIDI2_UART.c ****                     #endif /* End TXBUFFERSIZE > 255 */
1156:Generated_Source\PSoC5/MIDI2_UART.c ****                 }
1157:Generated_Source\PSoC5/MIDI2_UART.c **** 
1158:Generated_Source\PSoC5/MIDI2_UART.c ****             #else /* MIDI2_UART_TXBUFFERSIZE > MIDI2_UART_FIFO_LENGTH */
1159:Generated_Source\PSoC5/MIDI2_UART.c **** 
1160:Generated_Source\PSoC5/MIDI2_UART.c ****                 while((MIDI2_UART_TXSTATUS_REG & MIDI2_UART_TX_STS_FIFO_FULL) != 0u)
1161:Generated_Source\PSoC5/MIDI2_UART.c ****                 {
1162:Generated_Source\PSoC5/MIDI2_UART.c ****                     ; /* Wait for room in the FIFO. */
1163:Generated_Source\PSoC5/MIDI2_UART.c ****                 }
1164:Generated_Source\PSoC5/MIDI2_UART.c **** 
1165:Generated_Source\PSoC5/MIDI2_UART.c ****                 /* Add directly to the FIFO. */
1166:Generated_Source\PSoC5/MIDI2_UART.c ****                 MIDI2_UART_TXDATA_REG = txDataByte;
1167:Generated_Source\PSoC5/MIDI2_UART.c **** 
1168:Generated_Source\PSoC5/MIDI2_UART.c ****             #endif /* End MIDI2_UART_TXBUFFERSIZE > MIDI2_UART_FIFO_LENGTH */
1169:Generated_Source\PSoC5/MIDI2_UART.c ****     }
 1258              		.loc 1 1169 0
 1259 0038 30BC     		pop	{r4, r5}
 1260              		.cfi_remember_state
 1261              		.cfi_restore 5
 1262              		.cfi_restore 4
 1263              		.cfi_def_cfa_offset 0
 1264              	.LVL55:
 1265 003a 7047     		bx	lr
 1266              	.LVL56:
 1267              	.L124:
 1268              		.cfi_restore_state
1133:Generated_Source\PSoC5/MIDI2_UART.c ****                 {
 1269              		.loc 1 1133 0 discriminator 1
 1270 003c 054B     		ldr	r3, .L125+8
 1271              	.LVL57:
 1272 003e 1B78     		ldrb	r3, [r3]	@ zero_extendqisi2
1132:Generated_Source\PSoC5/MIDI2_UART.c ****                     ((MIDI2_UART_TXSTATUS_REG & MIDI2_UART_TX_STS_FIFO_FULL) == 0u) )
 1273              		.loc 1 1132 0 discriminator 1
 1274 0040 5B07     		lsls	r3, r3, #29
 1275 0042 F0D4     		bmi	.L118
1136:Generated_Source\PSoC5/MIDI2_UART.c ****                 }
 1276              		.loc 1 1136 0
 1277 0044 044B     		ldr	r3, .L125+12
 1278 0046 1870     		strb	r0, [r3]
 1279              		.loc 1 1169 0
 1280 0048 30BC     		pop	{r4, r5}
 1281              		.cfi_restore 4
 1282              		.cfi_restore 5
 1283              		.cfi_def_cfa_offset 0
 1284              	.LVL58:
 1285 004a 7047     		bx	lr
 1286              	.L126:
 1287              		.align	2
ARM GAS  C:\Users\jmdevoto\AppData\Local\Temp\ccZJqqkc.s 			page 47


 1288              	.L125:
 1289 004c 00000000 		.word	.LANCHOR0
 1290 0050 00000000 		.word	MIDI2_UART_txBuffer
 1291 0054 63640040 		.word	1073767523
 1292 0058 43640040 		.word	1073767491
 1293              		.cfi_endproc
 1294              	.LFE23:
 1295              		.size	MIDI2_UART_PutChar, .-MIDI2_UART_PutChar
 1296              		.section	.text.MIDI2_UART_PutString,"ax",%progbits
 1297              		.align	2
 1298              		.global	MIDI2_UART_PutString
 1299              		.thumb
 1300              		.thumb_func
 1301              		.type	MIDI2_UART_PutString, %function
 1302              	MIDI2_UART_PutString:
 1303              	.LFB24:
1170:Generated_Source\PSoC5/MIDI2_UART.c **** 
1171:Generated_Source\PSoC5/MIDI2_UART.c **** 
1172:Generated_Source\PSoC5/MIDI2_UART.c ****     /*******************************************************************************
1173:Generated_Source\PSoC5/MIDI2_UART.c ****     * Function Name: MIDI2_UART_PutString
1174:Generated_Source\PSoC5/MIDI2_UART.c ****     ********************************************************************************
1175:Generated_Source\PSoC5/MIDI2_UART.c ****     *
1176:Generated_Source\PSoC5/MIDI2_UART.c ****     * Summary:
1177:Generated_Source\PSoC5/MIDI2_UART.c ****     *  Write a Sequence of bytes on the Transmit line. Data comes from RAM or ROM.
1178:Generated_Source\PSoC5/MIDI2_UART.c ****     *
1179:Generated_Source\PSoC5/MIDI2_UART.c ****     * Parameters:
1180:Generated_Source\PSoC5/MIDI2_UART.c ****     *  string: char pointer to character string of Data to Send.
1181:Generated_Source\PSoC5/MIDI2_UART.c ****     *
1182:Generated_Source\PSoC5/MIDI2_UART.c ****     * Return:
1183:Generated_Source\PSoC5/MIDI2_UART.c ****     *  None.
1184:Generated_Source\PSoC5/MIDI2_UART.c ****     *
1185:Generated_Source\PSoC5/MIDI2_UART.c ****     * Global Variables:
1186:Generated_Source\PSoC5/MIDI2_UART.c ****     *  MIDI2_UART_initVar - checked to identify that the component has been
1187:Generated_Source\PSoC5/MIDI2_UART.c ****     *     initialized.
1188:Generated_Source\PSoC5/MIDI2_UART.c ****     *
1189:Generated_Source\PSoC5/MIDI2_UART.c ****     * Reentrant:
1190:Generated_Source\PSoC5/MIDI2_UART.c ****     *  No.
1191:Generated_Source\PSoC5/MIDI2_UART.c ****     *
1192:Generated_Source\PSoC5/MIDI2_UART.c ****     * Theory:
1193:Generated_Source\PSoC5/MIDI2_UART.c ****     *  This function will block if there is not enough memory to place the whole
1194:Generated_Source\PSoC5/MIDI2_UART.c ****     *  string, it will block until the entire string has been written to the
1195:Generated_Source\PSoC5/MIDI2_UART.c ****     *  transmit buffer.
1196:Generated_Source\PSoC5/MIDI2_UART.c ****     *
1197:Generated_Source\PSoC5/MIDI2_UART.c ****     *******************************************************************************/
1198:Generated_Source\PSoC5/MIDI2_UART.c ****     void MIDI2_UART_PutString(const char8 string[]) 
1199:Generated_Source\PSoC5/MIDI2_UART.c ****     {
 1304              		.loc 1 1199 0
 1305              		.cfi_startproc
 1306              		@ args = 0, pretend = 0, frame = 0
 1307              		@ frame_needed = 0, uses_anonymous_args = 0
 1308              	.LVL59:
 1309 0000 38B5     		push	{r3, r4, r5, lr}
 1310              		.cfi_def_cfa_offset 16
 1311              		.cfi_offset 3, -16
 1312              		.cfi_offset 4, -12
 1313              		.cfi_offset 5, -8
 1314              		.cfi_offset 14, -4
ARM GAS  C:\Users\jmdevoto\AppData\Local\Temp\ccZJqqkc.s 			page 48


1200:Generated_Source\PSoC5/MIDI2_UART.c ****         uint16 buf_index = 0u;
1201:Generated_Source\PSoC5/MIDI2_UART.c ****         /* If not Initialized then skip this function*/
1202:Generated_Source\PSoC5/MIDI2_UART.c ****         if(MIDI2_UART_initVar != 0u)
 1315              		.loc 1 1202 0
 1316 0002 074B     		ldr	r3, .L136
 1317 0004 1B78     		ldrb	r3, [r3]	@ zero_extendqisi2
 1318 0006 53B1     		cbz	r3, .L127
 1319 0008 0546     		mov	r5, r0
1203:Generated_Source\PSoC5/MIDI2_UART.c ****         {
1204:Generated_Source\PSoC5/MIDI2_UART.c ****             /* This is a blocking function, it will not exit until all data is sent*/
1205:Generated_Source\PSoC5/MIDI2_UART.c ****             while(string[buf_index] != (char8)0)
 1320              		.loc 1 1205 0
 1321 000a 0078     		ldrb	r0, [r0]	@ zero_extendqisi2
 1322              	.LVL60:
 1323 000c 38B1     		cbz	r0, .L127
 1324 000e 0024     		movs	r4, #0
 1325              	.LVL61:
 1326              	.L130:
1206:Generated_Source\PSoC5/MIDI2_UART.c ****             {
1207:Generated_Source\PSoC5/MIDI2_UART.c ****                 MIDI2_UART_PutChar((uint8)string[buf_index]);
1208:Generated_Source\PSoC5/MIDI2_UART.c ****                 buf_index++;
 1327              		.loc 1 1208 0
 1328 0010 0134     		adds	r4, r4, #1
 1329              	.LVL62:
 1330 0012 A4B2     		uxth	r4, r4
1207:Generated_Source\PSoC5/MIDI2_UART.c ****                 buf_index++;
 1331              		.loc 1 1207 0
 1332 0014 FFF7FEFF 		bl	MIDI2_UART_PutChar
 1333              	.LVL63:
1205:Generated_Source\PSoC5/MIDI2_UART.c ****             {
 1334              		.loc 1 1205 0
 1335 0018 285D     		ldrb	r0, [r5, r4]	@ zero_extendqisi2
 1336 001a 0028     		cmp	r0, #0
 1337 001c F8D1     		bne	.L130
 1338              	.LVL64:
 1339              	.L127:
 1340 001e 38BD     		pop	{r3, r4, r5, pc}
 1341              	.L137:
 1342              		.align	2
 1343              	.L136:
 1344 0020 00000000 		.word	.LANCHOR0
 1345              		.cfi_endproc
 1346              	.LFE24:
 1347              		.size	MIDI2_UART_PutString, .-MIDI2_UART_PutString
 1348              		.section	.text.MIDI2_UART_PutArray,"ax",%progbits
 1349              		.align	2
 1350              		.global	MIDI2_UART_PutArray
 1351              		.thumb
 1352              		.thumb_func
 1353              		.type	MIDI2_UART_PutArray, %function
 1354              	MIDI2_UART_PutArray:
 1355              	.LFB25:
1209:Generated_Source\PSoC5/MIDI2_UART.c ****             }
1210:Generated_Source\PSoC5/MIDI2_UART.c ****         }
1211:Generated_Source\PSoC5/MIDI2_UART.c ****     }
1212:Generated_Source\PSoC5/MIDI2_UART.c **** 
1213:Generated_Source\PSoC5/MIDI2_UART.c **** 
ARM GAS  C:\Users\jmdevoto\AppData\Local\Temp\ccZJqqkc.s 			page 49


1214:Generated_Source\PSoC5/MIDI2_UART.c ****     /*******************************************************************************
1215:Generated_Source\PSoC5/MIDI2_UART.c ****     * Function Name: MIDI2_UART_PutArray
1216:Generated_Source\PSoC5/MIDI2_UART.c ****     ********************************************************************************
1217:Generated_Source\PSoC5/MIDI2_UART.c ****     *
1218:Generated_Source\PSoC5/MIDI2_UART.c ****     * Summary:
1219:Generated_Source\PSoC5/MIDI2_UART.c ****     *  Write a Sequence of bytes on the Transmit line. Data comes from RAM or ROM.
1220:Generated_Source\PSoC5/MIDI2_UART.c ****     *
1221:Generated_Source\PSoC5/MIDI2_UART.c ****     * Parameters:
1222:Generated_Source\PSoC5/MIDI2_UART.c ****     *  string: Address of the memory array residing in RAM or ROM.
1223:Generated_Source\PSoC5/MIDI2_UART.c ****     *  byteCount: Number of Bytes to be transmitted.
1224:Generated_Source\PSoC5/MIDI2_UART.c ****     *
1225:Generated_Source\PSoC5/MIDI2_UART.c ****     * Return:
1226:Generated_Source\PSoC5/MIDI2_UART.c ****     *  None.
1227:Generated_Source\PSoC5/MIDI2_UART.c ****     *
1228:Generated_Source\PSoC5/MIDI2_UART.c ****     * Global Variables:
1229:Generated_Source\PSoC5/MIDI2_UART.c ****     *  MIDI2_UART_initVar - checked to identify that the component has been
1230:Generated_Source\PSoC5/MIDI2_UART.c ****     *     initialized.
1231:Generated_Source\PSoC5/MIDI2_UART.c ****     *
1232:Generated_Source\PSoC5/MIDI2_UART.c ****     * Reentrant:
1233:Generated_Source\PSoC5/MIDI2_UART.c ****     *  No.
1234:Generated_Source\PSoC5/MIDI2_UART.c ****     *
1235:Generated_Source\PSoC5/MIDI2_UART.c ****     *******************************************************************************/
1236:Generated_Source\PSoC5/MIDI2_UART.c ****     void MIDI2_UART_PutArray(const uint8 string[], uint8 byteCount)
1237:Generated_Source\PSoC5/MIDI2_UART.c ****                                                                     
1238:Generated_Source\PSoC5/MIDI2_UART.c ****     {
 1356              		.loc 1 1238 0
 1357              		.cfi_startproc
 1358              		@ args = 0, pretend = 0, frame = 0
 1359              		@ frame_needed = 0, uses_anonymous_args = 0
 1360              	.LVL65:
1239:Generated_Source\PSoC5/MIDI2_UART.c ****         uint8 buf_index = 0u;
1240:Generated_Source\PSoC5/MIDI2_UART.c ****         /* If not Initialized then skip this function*/
1241:Generated_Source\PSoC5/MIDI2_UART.c ****         if(MIDI2_UART_initVar != 0u)
 1361              		.loc 1 1241 0
 1362 0000 084B     		ldr	r3, .L145
 1363 0002 1B78     		ldrb	r3, [r3]	@ zero_extendqisi2
 1364 0004 63B1     		cbz	r3, .L144
1238:Generated_Source\PSoC5/MIDI2_UART.c ****         uint8 buf_index = 0u;
 1365              		.loc 1 1238 0
 1366 0006 70B5     		push	{r4, r5, r6, lr}
 1367              		.cfi_def_cfa_offset 16
 1368              		.cfi_offset 4, -16
 1369              		.cfi_offset 5, -12
 1370              		.cfi_offset 6, -8
 1371              		.cfi_offset 14, -4
 1372 0008 0E46     		mov	r6, r1
 1373 000a 0546     		mov	r5, r0
 1374              		.loc 1 1241 0
 1375 000c 0446     		mov	r4, r0
 1376              	.LVL66:
 1377              	.L140:
1242:Generated_Source\PSoC5/MIDI2_UART.c ****         {
1243:Generated_Source\PSoC5/MIDI2_UART.c ****             do
1244:Generated_Source\PSoC5/MIDI2_UART.c ****             {
1245:Generated_Source\PSoC5/MIDI2_UART.c ****                 MIDI2_UART_PutChar(string[buf_index]);
 1378              		.loc 1 1245 0 discriminator 1
 1379 000e 14F8010B 		ldrb	r0, [r4], #1	@ zero_extendqisi2
ARM GAS  C:\Users\jmdevoto\AppData\Local\Temp\ccZJqqkc.s 			page 50


 1380              	.LVL67:
 1381 0012 FFF7FEFF 		bl	MIDI2_UART_PutChar
 1382              	.LVL68:
 1383 0016 631B     		subs	r3, r4, r5
1246:Generated_Source\PSoC5/MIDI2_UART.c ****                 buf_index++;
1247:Generated_Source\PSoC5/MIDI2_UART.c ****             }while(buf_index < byteCount);
 1384              		.loc 1 1247 0 discriminator 1
 1385 0018 DBB2     		uxtb	r3, r3
 1386 001a 9E42     		cmp	r6, r3
 1387 001c F7D8     		bhi	.L140
 1388 001e 70BD     		pop	{r4, r5, r6, pc}
 1389              	.LVL69:
 1390              	.L144:
 1391              		.cfi_def_cfa_offset 0
 1392              		.cfi_restore 4
 1393              		.cfi_restore 5
 1394              		.cfi_restore 6
 1395              		.cfi_restore 14
 1396 0020 7047     		bx	lr
 1397              	.L146:
 1398 0022 00BF     		.align	2
 1399              	.L145:
 1400 0024 00000000 		.word	.LANCHOR0
 1401              		.cfi_endproc
 1402              	.LFE25:
 1403              		.size	MIDI2_UART_PutArray, .-MIDI2_UART_PutArray
 1404              		.section	.text.MIDI2_UART_PutCRLF,"ax",%progbits
 1405              		.align	2
 1406              		.global	MIDI2_UART_PutCRLF
 1407              		.thumb
 1408              		.thumb_func
 1409              		.type	MIDI2_UART_PutCRLF, %function
 1410              	MIDI2_UART_PutCRLF:
 1411              	.LFB26:
1248:Generated_Source\PSoC5/MIDI2_UART.c ****         }
1249:Generated_Source\PSoC5/MIDI2_UART.c ****     }
1250:Generated_Source\PSoC5/MIDI2_UART.c **** 
1251:Generated_Source\PSoC5/MIDI2_UART.c **** 
1252:Generated_Source\PSoC5/MIDI2_UART.c ****     /*******************************************************************************
1253:Generated_Source\PSoC5/MIDI2_UART.c ****     * Function Name: MIDI2_UART_PutCRLF
1254:Generated_Source\PSoC5/MIDI2_UART.c ****     ********************************************************************************
1255:Generated_Source\PSoC5/MIDI2_UART.c ****     *
1256:Generated_Source\PSoC5/MIDI2_UART.c ****     * Summary:
1257:Generated_Source\PSoC5/MIDI2_UART.c ****     *  Write a character and then carriage return and line feed.
1258:Generated_Source\PSoC5/MIDI2_UART.c ****     *
1259:Generated_Source\PSoC5/MIDI2_UART.c ****     * Parameters:
1260:Generated_Source\PSoC5/MIDI2_UART.c ****     *  txDataByte: uint8 Character to send.
1261:Generated_Source\PSoC5/MIDI2_UART.c ****     *
1262:Generated_Source\PSoC5/MIDI2_UART.c ****     * Return:
1263:Generated_Source\PSoC5/MIDI2_UART.c ****     *  None.
1264:Generated_Source\PSoC5/MIDI2_UART.c ****     *
1265:Generated_Source\PSoC5/MIDI2_UART.c ****     * Global Variables:
1266:Generated_Source\PSoC5/MIDI2_UART.c ****     *  MIDI2_UART_initVar - checked to identify that the component has been
1267:Generated_Source\PSoC5/MIDI2_UART.c ****     *     initialized.
1268:Generated_Source\PSoC5/MIDI2_UART.c ****     *
1269:Generated_Source\PSoC5/MIDI2_UART.c ****     * Reentrant:
1270:Generated_Source\PSoC5/MIDI2_UART.c ****     *  No.
ARM GAS  C:\Users\jmdevoto\AppData\Local\Temp\ccZJqqkc.s 			page 51


1271:Generated_Source\PSoC5/MIDI2_UART.c ****     *
1272:Generated_Source\PSoC5/MIDI2_UART.c ****     *******************************************************************************/
1273:Generated_Source\PSoC5/MIDI2_UART.c ****     void MIDI2_UART_PutCRLF(uint8 txDataByte) 
1274:Generated_Source\PSoC5/MIDI2_UART.c ****     {
 1412              		.loc 1 1274 0
 1413              		.cfi_startproc
 1414              		@ args = 0, pretend = 0, frame = 0
 1415              		@ frame_needed = 0, uses_anonymous_args = 0
 1416              	.LVL70:
 1417 0000 08B5     		push	{r3, lr}
 1418              		.cfi_def_cfa_offset 8
 1419              		.cfi_offset 3, -8
 1420              		.cfi_offset 14, -4
1275:Generated_Source\PSoC5/MIDI2_UART.c ****         /* If not Initialized then skip this function*/
1276:Generated_Source\PSoC5/MIDI2_UART.c ****         if(MIDI2_UART_initVar != 0u)
 1421              		.loc 1 1276 0
 1422 0002 074B     		ldr	r3, .L151
 1423 0004 1B78     		ldrb	r3, [r3]	@ zero_extendqisi2
 1424 0006 03B9     		cbnz	r3, .L150
 1425 0008 08BD     		pop	{r3, pc}
 1426              	.L150:
1277:Generated_Source\PSoC5/MIDI2_UART.c ****         {
1278:Generated_Source\PSoC5/MIDI2_UART.c ****             MIDI2_UART_PutChar(txDataByte);
 1427              		.loc 1 1278 0
 1428 000a FFF7FEFF 		bl	MIDI2_UART_PutChar
 1429              	.LVL71:
1279:Generated_Source\PSoC5/MIDI2_UART.c ****             MIDI2_UART_PutChar(0x0Du);
 1430              		.loc 1 1279 0
 1431 000e 0D20     		movs	r0, #13
 1432 0010 FFF7FEFF 		bl	MIDI2_UART_PutChar
 1433              	.LVL72:
1280:Generated_Source\PSoC5/MIDI2_UART.c ****             MIDI2_UART_PutChar(0x0Au);
1281:Generated_Source\PSoC5/MIDI2_UART.c ****         }
1282:Generated_Source\PSoC5/MIDI2_UART.c ****     }
 1434              		.loc 1 1282 0
 1435 0014 BDE80840 		pop	{r3, lr}
 1436              		.cfi_restore 14
 1437              		.cfi_restore 3
 1438              		.cfi_def_cfa_offset 0
1280:Generated_Source\PSoC5/MIDI2_UART.c ****             MIDI2_UART_PutChar(0x0Au);
 1439              		.loc 1 1280 0
 1440 0018 0A20     		movs	r0, #10
 1441 001a FFF7FEBF 		b	MIDI2_UART_PutChar
 1442              	.LVL73:
 1443              	.L152:
 1444 001e 00BF     		.align	2
 1445              	.L151:
 1446 0020 00000000 		.word	.LANCHOR0
 1447              		.cfi_endproc
 1448              	.LFE26:
 1449              		.size	MIDI2_UART_PutCRLF, .-MIDI2_UART_PutCRLF
 1450              		.section	.text.MIDI2_UART_GetTxBufferSize,"ax",%progbits
 1451              		.align	2
 1452              		.global	MIDI2_UART_GetTxBufferSize
 1453              		.thumb
 1454              		.thumb_func
 1455              		.type	MIDI2_UART_GetTxBufferSize, %function
ARM GAS  C:\Users\jmdevoto\AppData\Local\Temp\ccZJqqkc.s 			page 52


 1456              	MIDI2_UART_GetTxBufferSize:
 1457              	.LFB27:
1283:Generated_Source\PSoC5/MIDI2_UART.c **** 
1284:Generated_Source\PSoC5/MIDI2_UART.c **** 
1285:Generated_Source\PSoC5/MIDI2_UART.c ****     /*******************************************************************************
1286:Generated_Source\PSoC5/MIDI2_UART.c ****     * Function Name: MIDI2_UART_GetTxBufferSize
1287:Generated_Source\PSoC5/MIDI2_UART.c ****     ********************************************************************************
1288:Generated_Source\PSoC5/MIDI2_UART.c ****     *
1289:Generated_Source\PSoC5/MIDI2_UART.c ****     * Summary:
1290:Generated_Source\PSoC5/MIDI2_UART.c ****     *  Determine the amount of space left in the TX buffer and return the count in
1291:Generated_Source\PSoC5/MIDI2_UART.c ****     *  bytes
1292:Generated_Source\PSoC5/MIDI2_UART.c ****     *
1293:Generated_Source\PSoC5/MIDI2_UART.c ****     * Parameters:
1294:Generated_Source\PSoC5/MIDI2_UART.c ****     *  None.
1295:Generated_Source\PSoC5/MIDI2_UART.c ****     *
1296:Generated_Source\PSoC5/MIDI2_UART.c ****     * Return:
1297:Generated_Source\PSoC5/MIDI2_UART.c ****     *  Integer count of the number of bytes left in the TX buffer
1298:Generated_Source\PSoC5/MIDI2_UART.c ****     *
1299:Generated_Source\PSoC5/MIDI2_UART.c ****     * Global Variables:
1300:Generated_Source\PSoC5/MIDI2_UART.c ****     *  MIDI2_UART_txBufferWrite - used to calculate left space.
1301:Generated_Source\PSoC5/MIDI2_UART.c ****     *  MIDI2_UART_txBufferRead - used to calculate left space.
1302:Generated_Source\PSoC5/MIDI2_UART.c ****     *
1303:Generated_Source\PSoC5/MIDI2_UART.c ****     * Reentrant:
1304:Generated_Source\PSoC5/MIDI2_UART.c ****     *  No.
1305:Generated_Source\PSoC5/MIDI2_UART.c ****     *
1306:Generated_Source\PSoC5/MIDI2_UART.c ****     * Theory:
1307:Generated_Source\PSoC5/MIDI2_UART.c ****     *  Allows the user to find out how full the TX Buffer is.
1308:Generated_Source\PSoC5/MIDI2_UART.c ****     *
1309:Generated_Source\PSoC5/MIDI2_UART.c ****     *******************************************************************************/
1310:Generated_Source\PSoC5/MIDI2_UART.c ****     uint8 MIDI2_UART_GetTxBufferSize(void)
1311:Generated_Source\PSoC5/MIDI2_UART.c ****                                                             
1312:Generated_Source\PSoC5/MIDI2_UART.c ****     {
 1458              		.loc 1 1312 0
 1459              		.cfi_startproc
 1460              		@ args = 0, pretend = 0, frame = 0
 1461              		@ frame_needed = 0, uses_anonymous_args = 0
 1462              		@ link register save eliminated.
 1463              	.LBB86:
 1464              	.LBB87:
 944:Generated_Source\PSoC5/MIDI2_UART.c ****         }
 1465              		.loc 1 944 0
 1466 0000 0C4B     		ldr	r3, .L158
 1467 0002 4021     		movs	r1, #64
 1468              	.LBE87:
 1469              	.LBE86:
1313:Generated_Source\PSoC5/MIDI2_UART.c ****         uint8 size;
1314:Generated_Source\PSoC5/MIDI2_UART.c **** 
1315:Generated_Source\PSoC5/MIDI2_UART.c ****         #if(MIDI2_UART_TXBUFFERSIZE > MIDI2_UART_FIFO_LENGTH)
1316:Generated_Source\PSoC5/MIDI2_UART.c **** 
1317:Generated_Source\PSoC5/MIDI2_UART.c ****             /* Disable Tx interrupt. */
1318:Generated_Source\PSoC5/MIDI2_UART.c ****             /* Protect variables that could change on interrupt. */
1319:Generated_Source\PSoC5/MIDI2_UART.c ****             #if(MIDI2_UART_TX_INTERRUPT_ENABLED)
1320:Generated_Source\PSoC5/MIDI2_UART.c ****                 MIDI2_UART_DisableTxInt();
1321:Generated_Source\PSoC5/MIDI2_UART.c ****             #endif /* End MIDI2_UART_TX_INTERRUPT_ENABLED */
1322:Generated_Source\PSoC5/MIDI2_UART.c **** 
1323:Generated_Source\PSoC5/MIDI2_UART.c ****             if(MIDI2_UART_txBufferRead == MIDI2_UART_txBufferWrite)
 1470              		.loc 1 1323 0
ARM GAS  C:\Users\jmdevoto\AppData\Local\Temp\ccZJqqkc.s 			page 53


 1471 0004 0C4A     		ldr	r2, .L158+4
 1472              	.LBB89:
 1473              	.LBB88:
 944:Generated_Source\PSoC5/MIDI2_UART.c ****         }
 1474              		.loc 1 944 0
 1475 0006 1960     		str	r1, [r3]
 1476              	.LBE88:
 1477              	.LBE89:
 1478              		.loc 1 1323 0
 1479 0008 5179     		ldrb	r1, [r2, #5]	@ zero_extendqisi2
 1480 000a 9379     		ldrb	r3, [r2, #6]	@ zero_extendqisi2
 1481 000c 9942     		cmp	r1, r3
 1482 000e 0BD0     		beq	.L156
1324:Generated_Source\PSoC5/MIDI2_UART.c ****             {
1325:Generated_Source\PSoC5/MIDI2_UART.c ****                 size = 0u;
1326:Generated_Source\PSoC5/MIDI2_UART.c ****             }
1327:Generated_Source\PSoC5/MIDI2_UART.c ****             else if(MIDI2_UART_txBufferRead < MIDI2_UART_txBufferWrite)
 1483              		.loc 1 1327 0
 1484 0010 5179     		ldrb	r1, [r2, #5]	@ zero_extendqisi2
1328:Generated_Source\PSoC5/MIDI2_UART.c ****             {
1329:Generated_Source\PSoC5/MIDI2_UART.c ****                 size = (MIDI2_UART_txBufferWrite - MIDI2_UART_txBufferRead);
 1485              		.loc 1 1329 0
 1486 0012 5079     		ldrb	r0, [r2, #5]	@ zero_extendqisi2
1327:Generated_Source\PSoC5/MIDI2_UART.c ****             {
 1487              		.loc 1 1327 0
 1488 0014 8B42     		cmp	r3, r1
 1489 0016 98BF     		it	ls
 1490 0018 03F1FF33 		addls	r3, r3, #-1
1330:Generated_Source\PSoC5/MIDI2_UART.c ****             }
1331:Generated_Source\PSoC5/MIDI2_UART.c ****             else
1332:Generated_Source\PSoC5/MIDI2_UART.c ****             {
1333:Generated_Source\PSoC5/MIDI2_UART.c ****                 size = (MIDI2_UART_TXBUFFERSIZE - MIDI2_UART_txBufferRead) + MIDI2_UART_txBufferWri
 1491              		.loc 1 1333 0
 1492 001c 181A     		subs	r0, r3, r0
 1493              	.LBB90:
 1494              	.LBB91:
 921:Generated_Source\PSoC5/MIDI2_UART.c ****         }
 1495              		.loc 1 921 0
 1496 001e 074B     		ldr	r3, .L158+8
 1497 0020 4022     		movs	r2, #64
 1498              	.LBE91:
 1499              	.LBE90:
 1500              		.loc 1 1333 0
 1501 0022 C0B2     		uxtb	r0, r0
 1502              	.LVL74:
 1503              	.LBB95:
 1504              	.LBB92:
 921:Generated_Source\PSoC5/MIDI2_UART.c ****         }
 1505              		.loc 1 921 0
 1506 0024 1A60     		str	r2, [r3]
 1507              	.LBE92:
 1508              	.LBE95:
1334:Generated_Source\PSoC5/MIDI2_UART.c ****             }
1335:Generated_Source\PSoC5/MIDI2_UART.c **** 
1336:Generated_Source\PSoC5/MIDI2_UART.c ****             /* Enable Tx interrupt. */
1337:Generated_Source\PSoC5/MIDI2_UART.c ****             #if(MIDI2_UART_TX_INTERRUPT_ENABLED)
1338:Generated_Source\PSoC5/MIDI2_UART.c ****                 MIDI2_UART_EnableTxInt();
ARM GAS  C:\Users\jmdevoto\AppData\Local\Temp\ccZJqqkc.s 			page 54


1339:Generated_Source\PSoC5/MIDI2_UART.c ****             #endif /* End MIDI2_UART_TX_INTERRUPT_ENABLED */
1340:Generated_Source\PSoC5/MIDI2_UART.c **** 
1341:Generated_Source\PSoC5/MIDI2_UART.c ****         #else /* MIDI2_UART_TXBUFFERSIZE > MIDI2_UART_FIFO_LENGTH */
1342:Generated_Source\PSoC5/MIDI2_UART.c **** 
1343:Generated_Source\PSoC5/MIDI2_UART.c ****             size = MIDI2_UART_TXSTATUS_REG;
1344:Generated_Source\PSoC5/MIDI2_UART.c **** 
1345:Generated_Source\PSoC5/MIDI2_UART.c ****             /* Is the fifo is full. */
1346:Generated_Source\PSoC5/MIDI2_UART.c ****             if((size & MIDI2_UART_TX_STS_FIFO_FULL) != 0u)
1347:Generated_Source\PSoC5/MIDI2_UART.c ****             {
1348:Generated_Source\PSoC5/MIDI2_UART.c ****                 size = MIDI2_UART_FIFO_LENGTH;
1349:Generated_Source\PSoC5/MIDI2_UART.c ****             }
1350:Generated_Source\PSoC5/MIDI2_UART.c ****             else if((size & MIDI2_UART_TX_STS_FIFO_EMPTY) != 0u)
1351:Generated_Source\PSoC5/MIDI2_UART.c ****             {
1352:Generated_Source\PSoC5/MIDI2_UART.c ****                 size = 0u;
1353:Generated_Source\PSoC5/MIDI2_UART.c ****             }
1354:Generated_Source\PSoC5/MIDI2_UART.c ****             else
1355:Generated_Source\PSoC5/MIDI2_UART.c ****             {
1356:Generated_Source\PSoC5/MIDI2_UART.c ****                 /* We only know there is data in the fifo. */
1357:Generated_Source\PSoC5/MIDI2_UART.c ****                 size = 1u;
1358:Generated_Source\PSoC5/MIDI2_UART.c ****             }
1359:Generated_Source\PSoC5/MIDI2_UART.c **** 
1360:Generated_Source\PSoC5/MIDI2_UART.c ****         #endif /* End MIDI2_UART_TXBUFFERSIZE > MIDI2_UART_FIFO_LENGTH */
1361:Generated_Source\PSoC5/MIDI2_UART.c **** 
1362:Generated_Source\PSoC5/MIDI2_UART.c ****         return(size);
1363:Generated_Source\PSoC5/MIDI2_UART.c ****     }
 1509              		.loc 1 1363 0
 1510 0026 7047     		bx	lr
 1511              	.LVL75:
 1512              	.L156:
 1513              	.LBB96:
 1514              	.LBB93:
 921:Generated_Source\PSoC5/MIDI2_UART.c ****         }
 1515              		.loc 1 921 0
 1516 0028 044B     		ldr	r3, .L158+8
 1517 002a 4022     		movs	r2, #64
 1518              	.LBE93:
 1519              	.LBE96:
1325:Generated_Source\PSoC5/MIDI2_UART.c ****             }
 1520              		.loc 1 1325 0
 1521 002c 0020     		movs	r0, #0
 1522              	.LVL76:
 1523              	.LBB97:
 1524              	.LBB94:
 921:Generated_Source\PSoC5/MIDI2_UART.c ****         }
 1525              		.loc 1 921 0
 1526 002e 1A60     		str	r2, [r3]
 1527              	.LBE94:
 1528              	.LBE97:
 1529              		.loc 1 1363 0
 1530 0030 7047     		bx	lr
 1531              	.L159:
 1532 0032 00BF     		.align	2
 1533              	.L158:
 1534 0034 80E100E0 		.word	-536813184
 1535 0038 00000000 		.word	.LANCHOR0
 1536 003c 00E100E0 		.word	-536813312
 1537              		.cfi_endproc
ARM GAS  C:\Users\jmdevoto\AppData\Local\Temp\ccZJqqkc.s 			page 55


 1538              	.LFE27:
 1539              		.size	MIDI2_UART_GetTxBufferSize, .-MIDI2_UART_GetTxBufferSize
 1540              		.section	.text.MIDI2_UART_ClearTxBuffer,"ax",%progbits
 1541              		.align	2
 1542              		.global	MIDI2_UART_ClearTxBuffer
 1543              		.thumb
 1544              		.thumb_func
 1545              		.type	MIDI2_UART_ClearTxBuffer, %function
 1546              	MIDI2_UART_ClearTxBuffer:
 1547              	.LFB28:
1364:Generated_Source\PSoC5/MIDI2_UART.c **** 
1365:Generated_Source\PSoC5/MIDI2_UART.c **** 
1366:Generated_Source\PSoC5/MIDI2_UART.c ****     /*******************************************************************************
1367:Generated_Source\PSoC5/MIDI2_UART.c ****     * Function Name: MIDI2_UART_ClearTxBuffer
1368:Generated_Source\PSoC5/MIDI2_UART.c ****     ********************************************************************************
1369:Generated_Source\PSoC5/MIDI2_UART.c ****     *
1370:Generated_Source\PSoC5/MIDI2_UART.c ****     * Summary:
1371:Generated_Source\PSoC5/MIDI2_UART.c ****     *  Clears the TX RAM buffer by setting the read and write pointers both to zero.
1372:Generated_Source\PSoC5/MIDI2_UART.c ****     *  Clears the hardware TX FIFO.  Any data present in the FIFO will not be sent.
1373:Generated_Source\PSoC5/MIDI2_UART.c ****     *
1374:Generated_Source\PSoC5/MIDI2_UART.c ****     * Parameters:
1375:Generated_Source\PSoC5/MIDI2_UART.c ****     *  None.
1376:Generated_Source\PSoC5/MIDI2_UART.c ****     *
1377:Generated_Source\PSoC5/MIDI2_UART.c ****     * Return:
1378:Generated_Source\PSoC5/MIDI2_UART.c ****     *  None.
1379:Generated_Source\PSoC5/MIDI2_UART.c ****     *
1380:Generated_Source\PSoC5/MIDI2_UART.c ****     * Global Variables:
1381:Generated_Source\PSoC5/MIDI2_UART.c ****     *  MIDI2_UART_txBufferWrite - cleared to zero.
1382:Generated_Source\PSoC5/MIDI2_UART.c ****     *  MIDI2_UART_txBufferRead - cleared to zero.
1383:Generated_Source\PSoC5/MIDI2_UART.c ****     *
1384:Generated_Source\PSoC5/MIDI2_UART.c ****     * Reentrant:
1385:Generated_Source\PSoC5/MIDI2_UART.c ****     *  No.
1386:Generated_Source\PSoC5/MIDI2_UART.c ****     *
1387:Generated_Source\PSoC5/MIDI2_UART.c ****     * Theory:
1388:Generated_Source\PSoC5/MIDI2_UART.c ****     *  Setting the pointers to zero makes the system believe there is no data to
1389:Generated_Source\PSoC5/MIDI2_UART.c ****     *  read and writing will resume at address 0 overwriting any data that may have
1390:Generated_Source\PSoC5/MIDI2_UART.c ****     *  remained in the RAM.
1391:Generated_Source\PSoC5/MIDI2_UART.c ****     *
1392:Generated_Source\PSoC5/MIDI2_UART.c ****     * Side Effects:
1393:Generated_Source\PSoC5/MIDI2_UART.c ****     *  Any received data not read from the RAM buffer will be lost when overwritten.
1394:Generated_Source\PSoC5/MIDI2_UART.c ****     *
1395:Generated_Source\PSoC5/MIDI2_UART.c ****     *******************************************************************************/
1396:Generated_Source\PSoC5/MIDI2_UART.c ****     void MIDI2_UART_ClearTxBuffer(void) 
1397:Generated_Source\PSoC5/MIDI2_UART.c ****     {
 1548              		.loc 1 1397 0
 1549              		.cfi_startproc
 1550              		@ args = 0, pretend = 0, frame = 0
 1551              		@ frame_needed = 0, uses_anonymous_args = 0
 1552 0000 10B5     		push	{r4, lr}
 1553              		.cfi_def_cfa_offset 8
 1554              		.cfi_offset 4, -8
 1555              		.cfi_offset 14, -4
1398:Generated_Source\PSoC5/MIDI2_UART.c ****         uint8 enableInterrupts;
1399:Generated_Source\PSoC5/MIDI2_UART.c **** 
1400:Generated_Source\PSoC5/MIDI2_UART.c ****         /* Enter critical section */
1401:Generated_Source\PSoC5/MIDI2_UART.c ****         enableInterrupts = CyEnterCriticalSection();
 1556              		.loc 1 1401 0
ARM GAS  C:\Users\jmdevoto\AppData\Local\Temp\ccZJqqkc.s 			page 56


 1557 0002 FFF7FEFF 		bl	CyEnterCriticalSection
 1558              	.LVL77:
1402:Generated_Source\PSoC5/MIDI2_UART.c ****         /* clear the HW FIFO */
1403:Generated_Source\PSoC5/MIDI2_UART.c ****         MIDI2_UART_TXDATA_AUX_CTL_REG |=  MIDI2_UART_TX_FIFO_CLR;
 1559              		.loc 1 1403 0
 1560 0006 0A4B     		ldr	r3, .L162
 1561              	.LBB98:
 1562              	.LBB99:
 944:Generated_Source\PSoC5/MIDI2_UART.c ****         }
 1563              		.loc 1 944 0
 1564 0008 0A4C     		ldr	r4, .L162+4
 1565              	.LBE99:
 1566              	.LBE98:
 1567              		.loc 1 1403 0
 1568 000a 1A78     		ldrb	r2, [r3]	@ zero_extendqisi2
 1569 000c 42F00102 		orr	r2, r2, #1
 1570 0010 1A70     		strb	r2, [r3]
1404:Generated_Source\PSoC5/MIDI2_UART.c ****         MIDI2_UART_TXDATA_AUX_CTL_REG &= (uint8)~MIDI2_UART_TX_FIFO_CLR;
 1571              		.loc 1 1404 0
 1572 0012 1A78     		ldrb	r2, [r3]	@ zero_extendqisi2
 1573 0014 02F0FE02 		and	r2, r2, #254
 1574 0018 1A70     		strb	r2, [r3]
1405:Generated_Source\PSoC5/MIDI2_UART.c ****         /* Exit critical section */
1406:Generated_Source\PSoC5/MIDI2_UART.c ****         CyExitCriticalSection(enableInterrupts);
 1575              		.loc 1 1406 0
 1576 001a FFF7FEFF 		bl	CyExitCriticalSection
 1577              	.LVL78:
1407:Generated_Source\PSoC5/MIDI2_UART.c **** 
1408:Generated_Source\PSoC5/MIDI2_UART.c ****         #if(MIDI2_UART_TXBUFFERSIZE > MIDI2_UART_FIFO_LENGTH)
1409:Generated_Source\PSoC5/MIDI2_UART.c **** 
1410:Generated_Source\PSoC5/MIDI2_UART.c ****             /* Disable Tx interrupt. */
1411:Generated_Source\PSoC5/MIDI2_UART.c ****             /* Protect variables that could change on interrupt. */
1412:Generated_Source\PSoC5/MIDI2_UART.c ****             #if(MIDI2_UART_TX_INTERRUPT_ENABLED)
1413:Generated_Source\PSoC5/MIDI2_UART.c ****                 MIDI2_UART_DisableTxInt();
1414:Generated_Source\PSoC5/MIDI2_UART.c ****             #endif /* End MIDI2_UART_TX_INTERRUPT_ENABLED */
1415:Generated_Source\PSoC5/MIDI2_UART.c **** 
1416:Generated_Source\PSoC5/MIDI2_UART.c ****             MIDI2_UART_txBufferRead = 0u;
 1578              		.loc 1 1416 0
 1579 001e 064A     		ldr	r2, .L162+8
 1580              	.LBB102:
 1581              	.LBB100:
 944:Generated_Source\PSoC5/MIDI2_UART.c ****         }
 1582              		.loc 1 944 0
 1583 0020 4023     		movs	r3, #64
 1584              	.LBE100:
 1585              	.LBE102:
 1586              		.loc 1 1416 0
 1587 0022 0021     		movs	r1, #0
 1588              	.LBB103:
 1589              	.LBB104:
 921:Generated_Source\PSoC5/MIDI2_UART.c ****         }
 1590              		.loc 1 921 0
 1591 0024 0548     		ldr	r0, .L162+12
 1592              	.LBE104:
 1593              	.LBE103:
 1594              	.LBB106:
 1595              	.LBB101:
ARM GAS  C:\Users\jmdevoto\AppData\Local\Temp\ccZJqqkc.s 			page 57


 944:Generated_Source\PSoC5/MIDI2_UART.c ****         }
 1596              		.loc 1 944 0
 1597 0026 2360     		str	r3, [r4]
 1598              	.LBE101:
 1599              	.LBE106:
1417:Generated_Source\PSoC5/MIDI2_UART.c ****             MIDI2_UART_txBufferWrite = 0u;
 1600              		.loc 1 1417 0
 1601 0028 9171     		strb	r1, [r2, #6]
1416:Generated_Source\PSoC5/MIDI2_UART.c ****             MIDI2_UART_txBufferWrite = 0u;
 1602              		.loc 1 1416 0
 1603 002a 5171     		strb	r1, [r2, #5]
 1604              	.LBB107:
 1605              	.LBB105:
 921:Generated_Source\PSoC5/MIDI2_UART.c ****         }
 1606              		.loc 1 921 0
 1607 002c 0360     		str	r3, [r0]
 1608 002e 10BD     		pop	{r4, pc}
 1609              	.L163:
 1610              		.align	2
 1611              	.L162:
 1612 0030 93640040 		.word	1073767571
 1613 0034 80E100E0 		.word	-536813184
 1614 0038 00000000 		.word	.LANCHOR0
 1615 003c 00E100E0 		.word	-536813312
 1616              	.LBE105:
 1617              	.LBE107:
 1618              		.cfi_endproc
 1619              	.LFE28:
 1620              		.size	MIDI2_UART_ClearTxBuffer, .-MIDI2_UART_ClearTxBuffer
 1621              		.section	.text.MIDI2_UART_SendBreak,"ax",%progbits
 1622              		.align	2
 1623              		.global	MIDI2_UART_SendBreak
 1624              		.thumb
 1625              		.thumb_func
 1626              		.type	MIDI2_UART_SendBreak, %function
 1627              	MIDI2_UART_SendBreak:
 1628              	.LFB29:
1418:Generated_Source\PSoC5/MIDI2_UART.c **** 
1419:Generated_Source\PSoC5/MIDI2_UART.c ****             /* Enable Tx interrupt. */
1420:Generated_Source\PSoC5/MIDI2_UART.c ****             #if(MIDI2_UART_TX_INTERRUPT_ENABLED)
1421:Generated_Source\PSoC5/MIDI2_UART.c ****                 MIDI2_UART_EnableTxInt();
1422:Generated_Source\PSoC5/MIDI2_UART.c ****             #endif /* End MIDI2_UART_TX_INTERRUPT_ENABLED */
1423:Generated_Source\PSoC5/MIDI2_UART.c **** 
1424:Generated_Source\PSoC5/MIDI2_UART.c ****         #endif /* End MIDI2_UART_TXBUFFERSIZE > MIDI2_UART_FIFO_LENGTH */
1425:Generated_Source\PSoC5/MIDI2_UART.c ****     }
1426:Generated_Source\PSoC5/MIDI2_UART.c **** 
1427:Generated_Source\PSoC5/MIDI2_UART.c **** 
1428:Generated_Source\PSoC5/MIDI2_UART.c ****     /*******************************************************************************
1429:Generated_Source\PSoC5/MIDI2_UART.c ****     * Function Name: MIDI2_UART_SendBreak
1430:Generated_Source\PSoC5/MIDI2_UART.c ****     ********************************************************************************
1431:Generated_Source\PSoC5/MIDI2_UART.c ****     *
1432:Generated_Source\PSoC5/MIDI2_UART.c ****     * Summary:
1433:Generated_Source\PSoC5/MIDI2_UART.c ****     *  Write a Break command to the UART
1434:Generated_Source\PSoC5/MIDI2_UART.c ****     *
1435:Generated_Source\PSoC5/MIDI2_UART.c ****     * Parameters:
1436:Generated_Source\PSoC5/MIDI2_UART.c ****     *  uint8 retMode:  Wait mode,
1437:Generated_Source\PSoC5/MIDI2_UART.c ****     *   0 - Initialize registers for Break, sends the Break signal and return
ARM GAS  C:\Users\jmdevoto\AppData\Local\Temp\ccZJqqkc.s 			page 58


1438:Generated_Source\PSoC5/MIDI2_UART.c ****     *       imediately.
1439:Generated_Source\PSoC5/MIDI2_UART.c ****     *   1 - Wait until Break sending is complete, reinitialize registers to normal
1440:Generated_Source\PSoC5/MIDI2_UART.c ****     *       transmission mode then return.
1441:Generated_Source\PSoC5/MIDI2_UART.c ****     *   2 - Reinitialize registers to normal transmission mode then return.
1442:Generated_Source\PSoC5/MIDI2_UART.c ****     *   3 - both steps: 0 and 1
1443:Generated_Source\PSoC5/MIDI2_UART.c ****     *       init registers for Break, send Break signal
1444:Generated_Source\PSoC5/MIDI2_UART.c ****     *       wait until Break sending is complete, reinit registers to normal
1445:Generated_Source\PSoC5/MIDI2_UART.c ****     *       transmission mode then return.
1446:Generated_Source\PSoC5/MIDI2_UART.c ****     *
1447:Generated_Source\PSoC5/MIDI2_UART.c ****     * Return:
1448:Generated_Source\PSoC5/MIDI2_UART.c ****     *  None.
1449:Generated_Source\PSoC5/MIDI2_UART.c ****     *
1450:Generated_Source\PSoC5/MIDI2_UART.c ****     * Global Variables:
1451:Generated_Source\PSoC5/MIDI2_UART.c ****     *  MIDI2_UART_initVar - checked to identify that the component has been
1452:Generated_Source\PSoC5/MIDI2_UART.c ****     *     initialized.
1453:Generated_Source\PSoC5/MIDI2_UART.c ****     *  tx_period - static variable, used for keeping TX period configuration.
1454:Generated_Source\PSoC5/MIDI2_UART.c ****     *
1455:Generated_Source\PSoC5/MIDI2_UART.c ****     * Reentrant:
1456:Generated_Source\PSoC5/MIDI2_UART.c ****     *  No.
1457:Generated_Source\PSoC5/MIDI2_UART.c ****     *
1458:Generated_Source\PSoC5/MIDI2_UART.c ****     * Theory:
1459:Generated_Source\PSoC5/MIDI2_UART.c ****     *  SendBreak function initializes registers to send 13-bit break signal. It is
1460:Generated_Source\PSoC5/MIDI2_UART.c ****     *  important to return the registers configuration to normal for continue 8-bit
1461:Generated_Source\PSoC5/MIDI2_UART.c ****     *  operation.
1462:Generated_Source\PSoC5/MIDI2_UART.c ****     *  Trere are 3 variants for this API usage:
1463:Generated_Source\PSoC5/MIDI2_UART.c ****     *  1) SendBreak(3) - function will send the Break signal and take care on the
1464:Generated_Source\PSoC5/MIDI2_UART.c ****     *     configuration returning. Funcition will block CPU untill transmition
1465:Generated_Source\PSoC5/MIDI2_UART.c ****     *     complete.
1466:Generated_Source\PSoC5/MIDI2_UART.c ****     *  2) User may want to use bloking time if UART configured to the low speed
1467:Generated_Source\PSoC5/MIDI2_UART.c ****     *     operation
1468:Generated_Source\PSoC5/MIDI2_UART.c ****     *     Emample for this case:
1469:Generated_Source\PSoC5/MIDI2_UART.c ****     *     SendBreak(0);     - init Break signal transmition
1470:Generated_Source\PSoC5/MIDI2_UART.c ****     *         Add your code here to use CPU time
1471:Generated_Source\PSoC5/MIDI2_UART.c ****     *     SendBreak(1);     - complete Break operation
1472:Generated_Source\PSoC5/MIDI2_UART.c ****     *  3) Same to 2) but user may want to init and use the interrupt for complete
1473:Generated_Source\PSoC5/MIDI2_UART.c ****     *     break operation.
1474:Generated_Source\PSoC5/MIDI2_UART.c ****     *     Example for this case:
1475:Generated_Source\PSoC5/MIDI2_UART.c ****     *     Init TX interrupt whith "TX - On TX Complete" parameter
1476:Generated_Source\PSoC5/MIDI2_UART.c ****     *     SendBreak(0);     - init Break signal transmition
1477:Generated_Source\PSoC5/MIDI2_UART.c ****     *         Add your code here to use CPU time
1478:Generated_Source\PSoC5/MIDI2_UART.c ****     *     When interrupt appear with UART_TX_STS_COMPLETE status:
1479:Generated_Source\PSoC5/MIDI2_UART.c ****     *     SendBreak(2);     - complete Break operation
1480:Generated_Source\PSoC5/MIDI2_UART.c ****     *
1481:Generated_Source\PSoC5/MIDI2_UART.c ****     * Side Effects:
1482:Generated_Source\PSoC5/MIDI2_UART.c ****     *   Uses static variable to keep registers configuration.
1483:Generated_Source\PSoC5/MIDI2_UART.c ****     *
1484:Generated_Source\PSoC5/MIDI2_UART.c ****     *******************************************************************************/
1485:Generated_Source\PSoC5/MIDI2_UART.c ****     void MIDI2_UART_SendBreak(uint8 retMode) 
1486:Generated_Source\PSoC5/MIDI2_UART.c ****     {
 1629              		.loc 1 1486 0
 1630              		.cfi_startproc
 1631              		@ args = 0, pretend = 0, frame = 0
 1632              		@ frame_needed = 0, uses_anonymous_args = 0
 1633              		@ link register save eliminated.
 1634              	.LVL79:
1487:Generated_Source\PSoC5/MIDI2_UART.c **** 
1488:Generated_Source\PSoC5/MIDI2_UART.c ****         /* If not Initialized then skip this function*/
ARM GAS  C:\Users\jmdevoto\AppData\Local\Temp\ccZJqqkc.s 			page 59


1489:Generated_Source\PSoC5/MIDI2_UART.c ****         if(MIDI2_UART_initVar != 0u)
 1635              		.loc 1 1489 0
 1636 0000 1249     		ldr	r1, .L190
 1637 0002 0B78     		ldrb	r3, [r1]	@ zero_extendqisi2
 1638 0004 C3B1     		cbz	r3, .L188
1486:Generated_Source\PSoC5/MIDI2_UART.c **** 
 1639              		.loc 1 1486 0
 1640 0006 F0B4     		push	{r4, r5, r6, r7}
 1641              		.cfi_def_cfa_offset 16
 1642              		.cfi_offset 4, -16
 1643              		.cfi_offset 5, -12
 1644              		.cfi_offset 6, -8
 1645              		.cfi_offset 7, -4
 1646              	.LBB108:
1490:Generated_Source\PSoC5/MIDI2_UART.c ****         {
1491:Generated_Source\PSoC5/MIDI2_UART.c ****             /*Set the Counter to 13-bits and transmit a 00 byte*/
1492:Generated_Source\PSoC5/MIDI2_UART.c ****             /*When that is done then reset the counter value back*/
1493:Generated_Source\PSoC5/MIDI2_UART.c ****             uint8 tmpStat;
1494:Generated_Source\PSoC5/MIDI2_UART.c **** 
1495:Generated_Source\PSoC5/MIDI2_UART.c ****             #if(MIDI2_UART_HD_ENABLED) /* Half Duplex mode*/
1496:Generated_Source\PSoC5/MIDI2_UART.c **** 
1497:Generated_Source\PSoC5/MIDI2_UART.c ****                 if( (retMode == MIDI2_UART_SEND_BREAK) ||
1498:Generated_Source\PSoC5/MIDI2_UART.c ****                     (retMode == MIDI2_UART_SEND_WAIT_REINIT ) )
1499:Generated_Source\PSoC5/MIDI2_UART.c ****                 {
1500:Generated_Source\PSoC5/MIDI2_UART.c ****                     /* CTRL_HD_SEND_BREAK - sends break bits in HD mode*/
1501:Generated_Source\PSoC5/MIDI2_UART.c ****                     MIDI2_UART_WriteControlRegister(MIDI2_UART_ReadControlRegister() |
1502:Generated_Source\PSoC5/MIDI2_UART.c ****                                                           MIDI2_UART_CTRL_HD_SEND_BREAK);
1503:Generated_Source\PSoC5/MIDI2_UART.c ****                     /* Send zeros*/
1504:Generated_Source\PSoC5/MIDI2_UART.c ****                     MIDI2_UART_TXDATA_REG = 0u;
1505:Generated_Source\PSoC5/MIDI2_UART.c **** 
1506:Generated_Source\PSoC5/MIDI2_UART.c ****                     do /*wait until transmit starts*/
1507:Generated_Source\PSoC5/MIDI2_UART.c ****                     {
1508:Generated_Source\PSoC5/MIDI2_UART.c ****                         tmpStat = MIDI2_UART_TXSTATUS_REG;
1509:Generated_Source\PSoC5/MIDI2_UART.c ****                     }while((tmpStat & MIDI2_UART_TX_STS_FIFO_EMPTY) != 0u);
1510:Generated_Source\PSoC5/MIDI2_UART.c ****                 }
1511:Generated_Source\PSoC5/MIDI2_UART.c **** 
1512:Generated_Source\PSoC5/MIDI2_UART.c ****                 if( (retMode == MIDI2_UART_WAIT_FOR_COMPLETE_REINIT) ||
1513:Generated_Source\PSoC5/MIDI2_UART.c ****                     (retMode == MIDI2_UART_SEND_WAIT_REINIT) )
1514:Generated_Source\PSoC5/MIDI2_UART.c ****                 {
1515:Generated_Source\PSoC5/MIDI2_UART.c ****                     do /*wait until transmit complete*/
1516:Generated_Source\PSoC5/MIDI2_UART.c ****                     {
1517:Generated_Source\PSoC5/MIDI2_UART.c ****                         tmpStat = MIDI2_UART_TXSTATUS_REG;
1518:Generated_Source\PSoC5/MIDI2_UART.c ****                     }while(((uint8)~tmpStat & MIDI2_UART_TX_STS_COMPLETE) != 0u);
1519:Generated_Source\PSoC5/MIDI2_UART.c ****                 }
1520:Generated_Source\PSoC5/MIDI2_UART.c **** 
1521:Generated_Source\PSoC5/MIDI2_UART.c ****                 if( (retMode == MIDI2_UART_WAIT_FOR_COMPLETE_REINIT) ||
1522:Generated_Source\PSoC5/MIDI2_UART.c ****                     (retMode == MIDI2_UART_REINIT) ||
1523:Generated_Source\PSoC5/MIDI2_UART.c ****                     (retMode == MIDI2_UART_SEND_WAIT_REINIT) )
1524:Generated_Source\PSoC5/MIDI2_UART.c ****                 {
1525:Generated_Source\PSoC5/MIDI2_UART.c ****                     MIDI2_UART_WriteControlRegister(MIDI2_UART_ReadControlRegister() &
1526:Generated_Source\PSoC5/MIDI2_UART.c ****                                                   (uint8)~MIDI2_UART_CTRL_HD_SEND_BREAK);
1527:Generated_Source\PSoC5/MIDI2_UART.c ****                 }
1528:Generated_Source\PSoC5/MIDI2_UART.c **** 
1529:Generated_Source\PSoC5/MIDI2_UART.c ****             #else /* MIDI2_UART_HD_ENABLED Full Duplex mode */
1530:Generated_Source\PSoC5/MIDI2_UART.c **** 
1531:Generated_Source\PSoC5/MIDI2_UART.c ****                 static uint8 tx_period;
1532:Generated_Source\PSoC5/MIDI2_UART.c **** 
ARM GAS  C:\Users\jmdevoto\AppData\Local\Temp\ccZJqqkc.s 			page 60


1533:Generated_Source\PSoC5/MIDI2_UART.c ****                 if( (retMode == MIDI2_UART_SEND_BREAK) ||
 1647              		.loc 1 1533 0
 1648 0008 B8B9     		cbnz	r0, .L189
 1649              	.L167:
1534:Generated_Source\PSoC5/MIDI2_UART.c ****                     (retMode == MIDI2_UART_SEND_WAIT_REINIT) )
1535:Generated_Source\PSoC5/MIDI2_UART.c ****                 {
1536:Generated_Source\PSoC5/MIDI2_UART.c ****                     /* CTRL_HD_SEND_BREAK - skip to send parity bit at Break signal in Full Duplex 
1537:Generated_Source\PSoC5/MIDI2_UART.c ****                     #if( (MIDI2_UART_PARITY_TYPE != MIDI2_UART__B_UART__NONE_REVB) || \
1538:Generated_Source\PSoC5/MIDI2_UART.c ****                                         (MIDI2_UART_PARITY_TYPE_SW != 0u) )
1539:Generated_Source\PSoC5/MIDI2_UART.c ****                         MIDI2_UART_WriteControlRegister(MIDI2_UART_ReadControlRegister() |
1540:Generated_Source\PSoC5/MIDI2_UART.c ****                                                               MIDI2_UART_CTRL_HD_SEND_BREAK);
1541:Generated_Source\PSoC5/MIDI2_UART.c ****                     #endif /* End MIDI2_UART_PARITY_TYPE != MIDI2_UART__B_UART__NONE_REVB  */
1542:Generated_Source\PSoC5/MIDI2_UART.c **** 
1543:Generated_Source\PSoC5/MIDI2_UART.c ****                     #if(MIDI2_UART_TXCLKGEN_DP)
1544:Generated_Source\PSoC5/MIDI2_UART.c ****                         tx_period = MIDI2_UART_TXBITCLKTX_COMPLETE_REG;
 1650              		.loc 1 1544 0
 1651 000a 114B     		ldr	r3, .L190+4
1545:Generated_Source\PSoC5/MIDI2_UART.c ****                         MIDI2_UART_TXBITCLKTX_COMPLETE_REG = MIDI2_UART_TXBITCTR_BREAKBITS;
1546:Generated_Source\PSoC5/MIDI2_UART.c ****                     #else
1547:Generated_Source\PSoC5/MIDI2_UART.c ****                         tx_period = MIDI2_UART_TXBITCTR_PERIOD_REG;
1548:Generated_Source\PSoC5/MIDI2_UART.c ****                         MIDI2_UART_TXBITCTR_PERIOD_REG = MIDI2_UART_TXBITCTR_BREAKBITS8X;
1549:Generated_Source\PSoC5/MIDI2_UART.c ****                     #endif /* End MIDI2_UART_TXCLKGEN_DP */
1550:Generated_Source\PSoC5/MIDI2_UART.c **** 
1551:Generated_Source\PSoC5/MIDI2_UART.c ****                     /* Send zeros*/
1552:Generated_Source\PSoC5/MIDI2_UART.c ****                     MIDI2_UART_TXDATA_REG = 0u;
 1652              		.loc 1 1552 0
 1653 000c 114C     		ldr	r4, .L190+8
1544:Generated_Source\PSoC5/MIDI2_UART.c ****                         MIDI2_UART_TXBITCLKTX_COMPLETE_REG = MIDI2_UART_TXBITCTR_BREAKBITS;
 1654              		.loc 1 1544 0
 1655 000e 1F78     		ldrb	r7, [r3]	@ zero_extendqisi2
1545:Generated_Source\PSoC5/MIDI2_UART.c ****                         MIDI2_UART_TXBITCLKTX_COMPLETE_REG = MIDI2_UART_TXBITCTR_BREAKBITS;
 1656              		.loc 1 1545 0
 1657 0010 6726     		movs	r6, #103
 1658              		.loc 1 1552 0
 1659 0012 0025     		movs	r5, #0
1553:Generated_Source\PSoC5/MIDI2_UART.c **** 
1554:Generated_Source\PSoC5/MIDI2_UART.c ****                     do /* wait until transmit starts */
1555:Generated_Source\PSoC5/MIDI2_UART.c ****                     {
1556:Generated_Source\PSoC5/MIDI2_UART.c ****                         tmpStat = MIDI2_UART_TXSTATUS_REG;
 1660              		.loc 1 1556 0
 1661 0014 104A     		ldr	r2, .L190+12
1544:Generated_Source\PSoC5/MIDI2_UART.c ****                         MIDI2_UART_TXBITCLKTX_COMPLETE_REG = MIDI2_UART_TXBITCTR_BREAKBITS;
 1662              		.loc 1 1544 0
 1663 0016 CF71     		strb	r7, [r1, #7]
1545:Generated_Source\PSoC5/MIDI2_UART.c ****                     #else
 1664              		.loc 1 1545 0
 1665 0018 1E70     		strb	r6, [r3]
1552:Generated_Source\PSoC5/MIDI2_UART.c **** 
 1666              		.loc 1 1552 0
 1667 001a 2570     		strb	r5, [r4]
 1668              	.L169:
 1669              		.loc 1 1556 0 discriminator 1
 1670 001c 1378     		ldrb	r3, [r2]	@ zero_extendqisi2
 1671              	.LVL80:
1557:Generated_Source\PSoC5/MIDI2_UART.c ****                     }while((tmpStat & MIDI2_UART_TX_STS_FIFO_EMPTY) != 0u);
 1672              		.loc 1 1557 0 discriminator 1
 1673 001e 9C07     		lsls	r4, r3, #30
ARM GAS  C:\Users\jmdevoto\AppData\Local\Temp\ccZJqqkc.s 			page 61


 1674 0020 FCD4     		bmi	.L169
1558:Generated_Source\PSoC5/MIDI2_UART.c ****                 }
1559:Generated_Source\PSoC5/MIDI2_UART.c **** 
1560:Generated_Source\PSoC5/MIDI2_UART.c ****                 if( (retMode == MIDI2_UART_WAIT_FOR_COMPLETE_REINIT) ||
 1675              		.loc 1 1560 0
 1676 0022 00F0FD03 		and	r3, r0, #253
 1677              	.LVL81:
 1678 0026 012B     		cmp	r3, #1
 1679 0028 0BD0     		beq	.L170
 1680              	.L174:
1561:Generated_Source\PSoC5/MIDI2_UART.c ****                     (retMode == MIDI2_UART_SEND_WAIT_REINIT) )
1562:Generated_Source\PSoC5/MIDI2_UART.c ****                 {
1563:Generated_Source\PSoC5/MIDI2_UART.c ****                     do /*wait until transmit complete*/
1564:Generated_Source\PSoC5/MIDI2_UART.c ****                     {
1565:Generated_Source\PSoC5/MIDI2_UART.c ****                         tmpStat = MIDI2_UART_TXSTATUS_REG;
1566:Generated_Source\PSoC5/MIDI2_UART.c ****                     }while(((uint8)~tmpStat & MIDI2_UART_TX_STS_COMPLETE) != 0u);
1567:Generated_Source\PSoC5/MIDI2_UART.c ****                 }
1568:Generated_Source\PSoC5/MIDI2_UART.c **** 
1569:Generated_Source\PSoC5/MIDI2_UART.c ****                 if( (retMode == MIDI2_UART_WAIT_FOR_COMPLETE_REINIT) ||
 1681              		.loc 1 1569 0
 1682 002a 0138     		subs	r0, r0, #1
 1683              	.LVL82:
 1684 002c 0228     		cmp	r0, #2
 1685 002e 02D8     		bhi	.L164
1570:Generated_Source\PSoC5/MIDI2_UART.c ****                     (retMode == MIDI2_UART_REINIT) ||
1571:Generated_Source\PSoC5/MIDI2_UART.c ****                     (retMode == MIDI2_UART_SEND_WAIT_REINIT) )
1572:Generated_Source\PSoC5/MIDI2_UART.c ****                 {
1573:Generated_Source\PSoC5/MIDI2_UART.c **** 
1574:Generated_Source\PSoC5/MIDI2_UART.c ****                     #if(MIDI2_UART_TXCLKGEN_DP)
1575:Generated_Source\PSoC5/MIDI2_UART.c ****                         MIDI2_UART_TXBITCLKTX_COMPLETE_REG = tx_period;
 1686              		.loc 1 1575 0
 1687 0030 CA79     		ldrb	r2, [r1, #7]	@ zero_extendqisi2
 1688 0032 074B     		ldr	r3, .L190+4
 1689 0034 1A70     		strb	r2, [r3]
 1690              	.L164:
 1691              	.LBE108:
1576:Generated_Source\PSoC5/MIDI2_UART.c ****                     #else
1577:Generated_Source\PSoC5/MIDI2_UART.c ****                         MIDI2_UART_TXBITCTR_PERIOD_REG = tx_period;
1578:Generated_Source\PSoC5/MIDI2_UART.c ****                     #endif /* End MIDI2_UART_TXCLKGEN_DP */
1579:Generated_Source\PSoC5/MIDI2_UART.c **** 
1580:Generated_Source\PSoC5/MIDI2_UART.c ****                     #if( (MIDI2_UART_PARITY_TYPE != MIDI2_UART__B_UART__NONE_REVB) || \
1581:Generated_Source\PSoC5/MIDI2_UART.c ****                          (MIDI2_UART_PARITY_TYPE_SW != 0u) )
1582:Generated_Source\PSoC5/MIDI2_UART.c ****                         MIDI2_UART_WriteControlRegister(MIDI2_UART_ReadControlRegister() &
1583:Generated_Source\PSoC5/MIDI2_UART.c ****                                                       (uint8)~MIDI2_UART_CTRL_HD_SEND_BREAK);
1584:Generated_Source\PSoC5/MIDI2_UART.c ****                     #endif /* End MIDI2_UART_PARITY_TYPE != NONE */
1585:Generated_Source\PSoC5/MIDI2_UART.c ****                 }
1586:Generated_Source\PSoC5/MIDI2_UART.c ****             #endif    /* End MIDI2_UART_HD_ENABLED */
1587:Generated_Source\PSoC5/MIDI2_UART.c ****         }
1588:Generated_Source\PSoC5/MIDI2_UART.c ****     }
 1692              		.loc 1 1588 0
 1693 0036 F0BC     		pop	{r4, r5, r6, r7}
 1694              		.cfi_restore 7
 1695              		.cfi_restore 6
 1696              		.cfi_restore 5
 1697              		.cfi_restore 4
 1698              		.cfi_def_cfa_offset 0
 1699              	.L188:
ARM GAS  C:\Users\jmdevoto\AppData\Local\Temp\ccZJqqkc.s 			page 62


 1700 0038 7047     		bx	lr
 1701              	.LVL83:
 1702              	.L189:
 1703              		.cfi_def_cfa_offset 16
 1704              		.cfi_offset 4, -16
 1705              		.cfi_offset 5, -12
 1706              		.cfi_offset 6, -8
 1707              		.cfi_offset 7, -4
 1708              	.LBB109:
1533:Generated_Source\PSoC5/MIDI2_UART.c ****                     (retMode == MIDI2_UART_SEND_WAIT_REINIT) )
 1709              		.loc 1 1533 0 discriminator 1
 1710 003a 0328     		cmp	r0, #3
 1711 003c E5D0     		beq	.L167
1560:Generated_Source\PSoC5/MIDI2_UART.c ****                     (retMode == MIDI2_UART_SEND_WAIT_REINIT) )
 1712              		.loc 1 1560 0
 1713 003e 0128     		cmp	r0, #1
 1714 0040 F3D1     		bne	.L174
 1715              	.L170:
1565:Generated_Source\PSoC5/MIDI2_UART.c ****                     }while(((uint8)~tmpStat & MIDI2_UART_TX_STS_COMPLETE) != 0u);
 1716              		.loc 1 1565 0
 1717 0042 054A     		ldr	r2, .L190+12
 1718              	.L173:
1565:Generated_Source\PSoC5/MIDI2_UART.c ****                     }while(((uint8)~tmpStat & MIDI2_UART_TX_STS_COMPLETE) != 0u);
 1719              		.loc 1 1565 0 is_stmt 0 discriminator 1
 1720 0044 1378     		ldrb	r3, [r2]	@ zero_extendqisi2
 1721              	.LVL84:
1566:Generated_Source\PSoC5/MIDI2_UART.c ****                 }
 1722              		.loc 1 1566 0 is_stmt 1 discriminator 1
 1723 0046 DB07     		lsls	r3, r3, #31
 1724              	.LVL85:
 1725 0048 FCD5     		bpl	.L173
 1726 004a EEE7     		b	.L174
 1727              	.L191:
 1728              		.align	2
 1729              	.L190:
 1730 004c 00000000 		.word	.LANCHOR0
 1731 0050 30640040 		.word	1073767472
 1732 0054 43640040 		.word	1073767491
 1733 0058 63640040 		.word	1073767523
 1734              	.LBE109:
 1735              		.cfi_endproc
 1736              	.LFE29:
 1737              		.size	MIDI2_UART_SendBreak, .-MIDI2_UART_SendBreak
 1738              		.section	.text.MIDI2_UART_SetTxAddressMode,"ax",%progbits
 1739              		.align	2
 1740              		.global	MIDI2_UART_SetTxAddressMode
 1741              		.thumb
 1742              		.thumb_func
 1743              		.type	MIDI2_UART_SetTxAddressMode, %function
 1744              	MIDI2_UART_SetTxAddressMode:
 1745              	.LFB30:
1589:Generated_Source\PSoC5/MIDI2_UART.c **** 
1590:Generated_Source\PSoC5/MIDI2_UART.c **** 
1591:Generated_Source\PSoC5/MIDI2_UART.c ****     /*******************************************************************************
1592:Generated_Source\PSoC5/MIDI2_UART.c ****     * Function Name: MIDI2_UART_SetTxAddressMode
1593:Generated_Source\PSoC5/MIDI2_UART.c ****     ********************************************************************************
1594:Generated_Source\PSoC5/MIDI2_UART.c ****     *
ARM GAS  C:\Users\jmdevoto\AppData\Local\Temp\ccZJqqkc.s 			page 63


1595:Generated_Source\PSoC5/MIDI2_UART.c ****     * Summary:
1596:Generated_Source\PSoC5/MIDI2_UART.c ****     *  Set the transmit addressing mode
1597:Generated_Source\PSoC5/MIDI2_UART.c ****     *
1598:Generated_Source\PSoC5/MIDI2_UART.c ****     * Parameters:
1599:Generated_Source\PSoC5/MIDI2_UART.c ****     *  addressMode: 0 -> Space
1600:Generated_Source\PSoC5/MIDI2_UART.c ****     *               1 -> Mark
1601:Generated_Source\PSoC5/MIDI2_UART.c ****     *
1602:Generated_Source\PSoC5/MIDI2_UART.c ****     * Return:
1603:Generated_Source\PSoC5/MIDI2_UART.c ****     *  None.
1604:Generated_Source\PSoC5/MIDI2_UART.c ****     *
1605:Generated_Source\PSoC5/MIDI2_UART.c ****     *******************************************************************************/
1606:Generated_Source\PSoC5/MIDI2_UART.c ****     void MIDI2_UART_SetTxAddressMode(uint8 addressMode) 
1607:Generated_Source\PSoC5/MIDI2_UART.c ****     {
 1746              		.loc 1 1607 0
 1747              		.cfi_startproc
 1748              		@ args = 0, pretend = 0, frame = 0
 1749              		@ frame_needed = 0, uses_anonymous_args = 0
 1750              		@ link register save eliminated.
 1751              	.LVL86:
 1752 0000 7047     		bx	lr
 1753              		.cfi_endproc
 1754              	.LFE30:
 1755              		.size	MIDI2_UART_SetTxAddressMode, .-MIDI2_UART_SetTxAddressMode
 1756              		.global	MIDI2_UART_rxBufferOverflow
 1757              		.global	MIDI2_UART_rxBufferLoopDetect
 1758              		.global	MIDI2_UART_rxBufferWrite
 1759              		.global	MIDI2_UART_rxBufferRead
 1760              		.comm	MIDI2_UART_rxBuffer,255,4
 1761              		.global	MIDI2_UART_txBufferWrite
 1762              		.global	MIDI2_UART_txBufferRead
 1763              		.comm	MIDI2_UART_txBuffer,255,4
 1764              		.global	MIDI2_UART_initVar
 1765              		.bss
 1766              		.set	.LANCHOR0,. + 0
 1767              		.type	MIDI2_UART_initVar, %object
 1768              		.size	MIDI2_UART_initVar, 1
 1769              	MIDI2_UART_initVar:
 1770 0000 00       		.space	1
 1771              		.type	MIDI2_UART_rxBufferRead, %object
 1772              		.size	MIDI2_UART_rxBufferRead, 1
 1773              	MIDI2_UART_rxBufferRead:
 1774 0001 00       		.space	1
 1775              		.type	MIDI2_UART_rxBufferWrite, %object
 1776              		.size	MIDI2_UART_rxBufferWrite, 1
 1777              	MIDI2_UART_rxBufferWrite:
 1778 0002 00       		.space	1
 1779              		.type	MIDI2_UART_rxBufferLoopDetect, %object
 1780              		.size	MIDI2_UART_rxBufferLoopDetect, 1
 1781              	MIDI2_UART_rxBufferLoopDetect:
 1782 0003 00       		.space	1
 1783              		.type	MIDI2_UART_rxBufferOverflow, %object
 1784              		.size	MIDI2_UART_rxBufferOverflow, 1
 1785              	MIDI2_UART_rxBufferOverflow:
 1786 0004 00       		.space	1
 1787              		.type	MIDI2_UART_txBufferRead, %object
 1788              		.size	MIDI2_UART_txBufferRead, 1
 1789              	MIDI2_UART_txBufferRead:
ARM GAS  C:\Users\jmdevoto\AppData\Local\Temp\ccZJqqkc.s 			page 64


 1790 0005 00       		.space	1
 1791              		.type	MIDI2_UART_txBufferWrite, %object
 1792              		.size	MIDI2_UART_txBufferWrite, 1
 1793              	MIDI2_UART_txBufferWrite:
 1794 0006 00       		.space	1
 1795              		.type	tx_period.4968, %object
 1796              		.size	tx_period.4968, 1
 1797              	tx_period.4968:
 1798 0007 00       		.space	1
 1799              		.text
 1800              	.Letext0:
 1801              		.file 2 "Generated_Source\\PSoC5\\cytypes.h"
 1802              		.file 3 "Generated_Source\\PSoC5\\CyLib.h"