ARM GAS  C:\Users\mgronber\AppData\Local\Temp\ccKdQ981.s 			page 1


   1              		.syntax unified
   2              		.cpu cortex-m3
   3              		.fpu softvfp
   4              		.eabi_attribute 20, 1
   5              		.eabi_attribute 21, 1
   6              		.eabi_attribute 23, 3
   7              		.eabi_attribute 24, 1
   8              		.eabi_attribute 25, 1
   9              		.eabi_attribute 26, 1
  10              		.eabi_attribute 30, 2
  11              		.eabi_attribute 34, 1
  12              		.eabi_attribute 18, 4
  13              		.thumb
  14              		.file	"pitch.c"
  15              		.text
  16              	.Ltext0:
  17              		.cfi_sections	.debug_frame
  18              		.section	.text.pitch_init,"ax",%progbits
  19              		.align	2
  20              		.global	pitch_init
  21              		.thumb
  22              		.thumb_func
  23              		.type	pitch_init, %function
  24              	pitch_init:
  25              	.LFB56:
  26              		.file 1 "pitch.c"
   1:pitch.c       **** #include "pitch.h"
   2:pitch.c       **** #include <project.h>
   3:pitch.c       **** 
   4:pitch.c       **** static float cos_table[FRAME_LEN];
   5:pitch.c       **** static float sin_table[FRAME_LEN];
   6:pitch.c       **** 
   7:pitch.c       **** void pitch_init()
   8:pitch.c       **** {
  27              		.loc 1 8 0
  28              		.cfi_startproc
  29              		@ args = 0, pretend = 0, frame = 0
  30              		@ frame_needed = 0, uses_anonymous_args = 0
  31              		@ link register save eliminated.
   9:pitch.c       ****     fft_init(cos_table, sin_table, FRAME_LEN);
  32              		.loc 1 9 0
  33 0000 0348     		ldr	r0, .L2
  34 0002 4FF48072 		mov	r2, #256
  35 0006 00F58061 		add	r1, r0, #1024
  36 000a FFF7FEBF 		b	fft_init
  37              	.LVL0:
  38              	.L3:
  39 000e 00BF     		.align	2
  40              	.L2:
  41 0010 00000000 		.word	.LANCHOR0
  42              		.cfi_endproc
  43              	.LFE56:
  44              		.size	pitch_init, .-pitch_init
  45              		.global	__aeabi_i2d
  46              		.global	__aeabi_dmul
  47              		.global	__aeabi_ddiv
  48              		.section	.text.pitch_zero_cross,"ax",%progbits
ARM GAS  C:\Users\mgronber\AppData\Local\Temp\ccKdQ981.s 			page 2


  49              		.align	2
  50              		.global	pitch_zero_cross
  51              		.thumb
  52              		.thumb_func
  53              		.type	pitch_zero_cross, %function
  54              	pitch_zero_cross:
  55              	.LFB57:
  10:pitch.c       **** }
  11:pitch.c       **** 
  12:pitch.c       **** double pitch_zero_cross(int16 samples[FRAME_LEN])
  13:pitch.c       **** {
  56              		.loc 1 13 0
  57              		.cfi_startproc
  58              		@ args = 0, pretend = 0, frame = 0
  59              		@ frame_needed = 0, uses_anonymous_args = 0
  60              	.LVL1:
  61 0000 0346     		mov	r3, r0
  62 0002 10B5     		push	{r4, lr}
  63              		.cfi_def_cfa_offset 8
  64              		.cfi_offset 4, -8
  65              		.cfi_offset 14, -4
  14:pitch.c       ****         int zc = 0;
  66              		.loc 1 14 0
  67 0004 0020     		movs	r0, #0
  68              	.LVL2:
  69 0006 03F5FF74 		add	r4, r3, #510
  70              	.LVL3:
  71              	.L6:
  15:pitch.c       ****         int i;
  16:pitch.c       ****         for (i = 0; i < FRAME_LEN - 1; i++) {
  17:pitch.c       ****                 if (samples[i] * samples[i + 1] < 0) {
  72              		.loc 1 17 0
  73 000a B3F90010 		ldrsh	r1, [r3]
  74 000e 33F9022F 		ldrsh	r2, [r3, #2]!
  75 0012 02FB01F2 		mul	r2, r2, r1
  76 0016 002A     		cmp	r2, #0
  18:pitch.c       ****                         zc++;
  77              		.loc 1 18 0
  78 0018 B8BF     		it	lt
  79 001a 0130     		addlt	r0, r0, #1
  80              	.LVL4:
  16:pitch.c       ****                 if (samples[i] * samples[i + 1] < 0) {
  81              		.loc 1 16 0
  82 001c A342     		cmp	r3, r4
  83 001e F4D1     		bne	.L6
  19:pitch.c       ****                 }
  20:pitch.c       ****         }
  21:pitch.c       **** 
  22:pitch.c       ****         return ((double)zc / 2) / ((double)FRAME_LEN / SAMPLE_RATE);
  84              		.loc 1 22 0
  85 0020 FFF7FEFF 		bl	__aeabi_i2d
  86              	.LVL5:
  87 0024 0022     		movs	r2, #0
  88 0026 064B     		ldr	r3, .L10+8
  89 0028 FFF7FEFF 		bl	__aeabi_dmul
  90              	.LVL6:
  91 002c 02A3     		adr	r3, .L10
ARM GAS  C:\Users\mgronber\AppData\Local\Temp\ccKdQ981.s 			page 3


  92 002e D3E90023 		ldrd	r2, [r3]
  93 0032 FFF7FEFF 		bl	__aeabi_ddiv
  94              	.LVL7:
  23:pitch.c       **** }
  95              		.loc 1 23 0
  96 0036 10BD     		pop	{r4, pc}
  97              	.LVL8:
  98              	.L11:
  99              		.align	3
 100              	.L10:
 101 0038 FCA9F1D2 		.word	-755914244
 102 003c 4D62A03F 		.word	1067475533
 103 0040 0000E03F 		.word	1071644672
 104              		.cfi_endproc
 105              	.LFE57:
 106              		.size	pitch_zero_cross, .-pitch_zero_cross
 107              		.global	__aeabi_i2f
 108              		.global	__aeabi_fmul
 109              		.global	__aeabi_fcmplt
 110              		.global	__aeabi_fdiv
 111 0044 AFF30080 		.section	.text.auto_correlate,"ax",%progbits
 112              		.align	2
 113              		.global	auto_correlate
 114              		.thumb
 115              		.thumb_func
 116              		.type	auto_correlate, %function
 117              	auto_correlate:
 118              	.LFB58:
  24:pitch.c       **** 
  25:pitch.c       **** float auto_correlate(int16 samples[FRAME_LEN]){
 119              		.loc 1 25 0
 120              		.cfi_startproc
 121              		@ args = 0, pretend = 0, frame = 0
 122              		@ frame_needed = 0, uses_anonymous_args = 0
 123              	.LVL9:
 124 0000 2DE9F047 		push	{r4, r5, r6, r7, r8, r9, r10, lr}
 125              		.cfi_def_cfa_offset 32
 126              		.cfi_offset 4, -32
 127              		.cfi_offset 5, -28
 128              		.cfi_offset 6, -24
 129              		.cfi_offset 7, -20
 130              		.cfi_offset 8, -16
 131              		.cfi_offset 9, -12
 132              		.cfi_offset 10, -8
 133              		.cfi_offset 14, -4
 134              		.loc 1 25 0
 135 0004 0746     		mov	r7, r0
  26:pitch.c       ****     float r;
  27:pitch.c       ****     float best_r = 0;
  28:pitch.c       ****     int16 best_lag = -1;
 136              		.loc 1 28 0
 137 0006 4FF6FF76 		movw	r6, #65535
 138              	.LBB2:
  29:pitch.c       ****     
  30:pitch.c       ****   
  31:pitch.c       ****     int16 lag;
  32:pitch.c       ****     for(lag = LAG_MIN; lag < LAG_MAX + 1; lag++){
ARM GAS  C:\Users\mgronber\AppData\Local\Temp\ccKdQ981.s 			page 4


  33:pitch.c       ****         int32 ac = 0;
  34:pitch.c       ****         
  35:pitch.c       ****         int16 i;
  36:pitch.c       ****         for(i = 0; i < FRAME_LEN - lag; i++){
  37:pitch.c       ****             ac = ac + samples[i] * samples[i + lag];              
  38:pitch.c       ****         }
  39:pitch.c       ****         
  40:pitch.c       ****         //double r;
  41:pitch.c       ****         r = (float)ac / (float)FRAME_LEN;
  42:pitch.c       ****         
  43:pitch.c       ****         if(r > best_r){
  44:pitch.c       ****             best_r = r;
 139              		.loc 1 44 0
 140 000a 4FF00609 		mov	r9, #6
 141 000e 4FF0FA08 		mov	r8, #250
 142              	.LBE2:
  27:pitch.c       ****     int16 best_lag = -1;
 143              		.loc 1 27 0
 144 0012 0024     		movs	r4, #0
 145              	.LVL10:
 146              	.L13:
 147              	.LBB3:
  36:pitch.c       ****             ac = ac + samples[i] * samples[i + lag];              
 148              		.loc 1 36 0
 149 0014 B8F1000F 		cmp	r8, #0
 150 0018 1FFA89F5 		uxth	r5, r9
 151              	.LVL11:
 152 001c D8BF     		it	le
 153 001e 4FF0000A 		movle	r10, #0
 154 0022 17DD     		ble	.L18
 155 0024 0022     		movs	r2, #0
 156 0026 1346     		mov	r3, r2
 157 0028 1046     		mov	r0, r2
 158 002a 1146     		mov	r1, r2
 159              	.LVL12:
 160              	.L14:
 161 002c 0133     		adds	r3, r3, #1
 162              	.LVL13:
  37:pitch.c       ****         }
 163              		.loc 1 37 0 discriminator 3
 164 002e 4A44     		add	r2, r2, r9
 165 0030 9BB2     		uxth	r3, r3
 166 0032 37F912E0 		ldrsh	lr, [r7, r2, lsl #1]
 167 0036 37F91120 		ldrsh	r2, [r7, r1, lsl #1]
  36:pitch.c       ****             ac = ac + samples[i] * samples[i + lag];              
 168              		.loc 1 36 0 discriminator 3
 169 003a 19B2     		sxth	r1, r3
 170 003c 4145     		cmp	r1, r8
  37:pitch.c       ****         }
 171              		.loc 1 37 0 discriminator 3
 172 003e 0EFB0200 		mla	r0, lr, r2, r0
 173              	.LVL14:
  36:pitch.c       ****             ac = ac + samples[i] * samples[i + lag];              
 174              		.loc 1 36 0 discriminator 3
 175 0042 0A46     		mov	r2, r1
 176 0044 F2DB     		blt	.L14
 177 0046 FFF7FEFF 		bl	__aeabi_i2f
ARM GAS  C:\Users\mgronber\AppData\Local\Temp\ccKdQ981.s 			page 5


 178              	.LVL15:
 179 004a 4FF06E51 		mov	r1, #998244352
 180 004e FFF7FEFF 		bl	__aeabi_fmul
 181              	.LVL16:
 182 0052 8246     		mov	r10, r0
 183              	.L18:
 184              	.LVL17:
  43:pitch.c       ****             best_r = r;
 185              		.loc 1 43 0
 186 0054 2046     		mov	r0, r4
 187 0056 5146     		mov	r1, r10
 188 0058 FFF7FEFF 		bl	__aeabi_fcmplt
 189              	.LVL18:
 190 005c 08B1     		cbz	r0, .L15
 191 005e 2E46     		mov	r6, r5
 192              		.loc 1 44 0
 193 0060 5446     		mov	r4, r10
 194              	.LVL19:
 195              	.L15:
 196 0062 08F1FF38 		add	r8, r8, #-1
 197              	.LBE3:
  32:pitch.c       ****         int32 ac = 0;
 198              		.loc 1 32 0 discriminator 2
 199 0066 B8F1370F 		cmp	r8, #55
 200 006a 09F10109 		add	r9, r9, #1
 201              	.LVL20:
 202 006e D1D1     		bne	.L13
  45:pitch.c       ****             best_lag = lag;
  46:pitch.c       ****         }  
  47:pitch.c       ****     }     
  48:pitch.c       ****     return (float)SAMPLE_RATE / best_lag;    
 203              		.loc 1 48 0
 204 0070 30B2     		sxth	r0, r6
 205 0072 FFF7FEFF 		bl	__aeabi_i2f
 206              	.LVL21:
 207 0076 0146     		mov	r1, r0
 208 0078 0248     		ldr	r0, .L24
 209 007a FFF7FEFF 		bl	__aeabi_fdiv
 210              	.LVL22:
  49:pitch.c       **** }
 211              		.loc 1 49 0
 212 007e BDE8F087 		pop	{r4, r5, r6, r7, r8, r9, r10, pc}
 213              	.LVL23:
 214              	.L25:
 215 0082 00BF     		.align	2
 216              	.L24:
 217 0084 0000FA45 		.word	1174011904
 218              		.cfi_endproc
 219              	.LFE58:
 220              		.size	auto_correlate, .-auto_correlate
 221              		.global	__aeabi_fadd
 222              		.global	__aeabi_fcmpgt
 223              		.section	.text.pitch_auto_fft,"ax",%progbits
 224              		.align	2
 225              		.global	pitch_auto_fft
 226              		.thumb
 227              		.thumb_func
ARM GAS  C:\Users\mgronber\AppData\Local\Temp\ccKdQ981.s 			page 6


 228              		.type	pitch_auto_fft, %function
 229              	pitch_auto_fft:
 230              	.LFB59:
  50:pitch.c       **** 
  51:pitch.c       **** float pitch_auto_fft(int16 samples[FRAME_LEN])
  52:pitch.c       **** {
 231              		.loc 1 52 0
 232              		.cfi_startproc
 233              		@ args = 0, pretend = 0, frame = 2048
 234              		@ frame_needed = 0, uses_anonymous_args = 0
 235              	.LVL24:
 236 0000 2DE9F043 		push	{r4, r5, r6, r7, r8, r9, lr}
 237              		.cfi_def_cfa_offset 28
 238              		.cfi_offset 4, -28
 239              		.cfi_offset 5, -24
 240              		.cfi_offset 6, -20
 241              		.cfi_offset 7, -16
 242              		.cfi_offset 8, -12
 243              		.cfi_offset 9, -8
 244              		.cfi_offset 14, -4
 245 0004 ADF60C0D 		subw	sp, sp, #2060
 246              		.cfi_def_cfa_offset 2088
 247              		.loc 1 52 0
 248 0008 0746     		mov	r7, r0
  53:pitch.c       ****     float f[FRAME_LEN];
  54:pitch.c       ****     float imag[FRAME_LEN] = {};
 249              		.loc 1 54 0
 250 000a 0021     		movs	r1, #0
 251 000c 0DF58160 		add	r0, sp, #1032
 252              	.LVL25:
 253 0010 4FF48062 		mov	r2, #1024
 254 0014 01AC     		add	r4, sp, #4
 255 0016 FFF7FEFF 		bl	memset
 256              	.LVL26:
 257 001a 2646     		mov	r6, r4
 258 001c BD1E     		subs	r5, r7, #2
 259 001e 07F5FF77 		add	r7, r7, #510
 260              	.LVL27:
 261              	.L27:
  55:pitch.c       ****     
  56:pitch.c       ****     int i;
  57:pitch.c       ****     for (i = 0; i < FRAME_LEN; i++) {
  58:pitch.c       ****         f[i] = (float)samples[i] / 100;
 262              		.loc 1 58 0 discriminator 3
 263 0022 35F9020F 		ldrsh	r0, [r5, #2]!
 264 0026 FFF7FEFF 		bl	__aeabi_i2f
 265              	.LVL28:
 266 002a 2949     		ldr	r1, .L37
 267 002c FFF7FEFF 		bl	__aeabi_fdiv
 268              	.LVL29:
  57:pitch.c       ****         f[i] = (float)samples[i] / 100;
 269              		.loc 1 57 0 discriminator 3
 270 0030 BD42     		cmp	r5, r7
 271              		.loc 1 58 0 discriminator 3
 272 0032 46F8040F 		str	r0, [r6, #4]!	@ float
  57:pitch.c       ****         f[i] = (float)samples[i] / 100;
 273              		.loc 1 57 0 discriminator 3
ARM GAS  C:\Users\mgronber\AppData\Local\Temp\ccKdQ981.s 			page 7


 274 0036 F4D1     		bne	.L27
  59:pitch.c       ****     }
  60:pitch.c       ****     
  61:pitch.c       ****     transform(f, imag, cos_table, sin_table, FRAME_LEN);
 275              		.loc 1 61 0
 276 0038 264A     		ldr	r2, .L37+4
 277 003a 4FF48071 		mov	r1, #256
 278 003e 0091     		str	r1, [sp]
 279 0040 02F58063 		add	r3, r2, #1024
 280 0044 02A8     		add	r0, sp, #8
 281 0046 0DF58161 		add	r1, sp, #1032
 282 004a 0DF20445 		addw	r5, sp, #1028
 283 004e FFF7FEFF 		bl	transform
 284              	.LVL30:
 285 0052 A946     		mov	r9, r5
  62:pitch.c       ****     
  63:pitch.c       ****     for (i = 0; i < FRAME_LEN; i++) {
  64:pitch.c       ****         // Multiply by conjugate
  65:pitch.c       ****         f[i] = f[i] * f[i] + imag[i] * imag[i];
  66:pitch.c       ****         imag[i] = 0;
 286              		.loc 1 66 0
 287 0054 4FF00008 		mov	r8, #0
 288              	.LVL31:
 289              	.L28:
  65:pitch.c       ****         imag[i] = 0;
 290              		.loc 1 65 0 discriminator 3
 291 0058 54F8040F 		ldr	r0, [r4, #4]!	@ float
 292 005c 55F8047F 		ldr	r7, [r5, #4]!	@ float
 293 0060 0146     		mov	r1, r0
 294 0062 FFF7FEFF 		bl	__aeabi_fmul
 295              	.LVL32:
 296 0066 3946     		mov	r1, r7
 297 0068 0646     		mov	r6, r0
 298 006a 3846     		mov	r0, r7
 299 006c FFF7FEFF 		bl	__aeabi_fmul
 300              	.LVL33:
 301 0070 0146     		mov	r1, r0
 302 0072 3046     		mov	r0, r6
 303 0074 FFF7FEFF 		bl	__aeabi_fadd
 304              	.LVL34:
  63:pitch.c       ****         // Multiply by conjugate
 305              		.loc 1 63 0 discriminator 3
 306 0078 4C45     		cmp	r4, r9
 307              		.loc 1 66 0 discriminator 3
 308 007a C5F80080 		str	r8, [r5]	@ float
  65:pitch.c       ****         imag[i] = 0;
 309              		.loc 1 65 0 discriminator 3
 310 007e 2060     		str	r0, [r4]	@ float
  63:pitch.c       ****         // Multiply by conjugate
 311              		.loc 1 63 0 discriminator 3
 312 0080 EAD1     		bne	.L28
  67:pitch.c       ****     }
  68:pitch.c       ****     
  69:pitch.c       ****     inverse_transform(f, imag, cos_table, sin_table, FRAME_LEN);
 313              		.loc 1 69 0
 314 0082 144A     		ldr	r2, .L37+4
 315 0084 4FF48074 		mov	r4, #256
ARM GAS  C:\Users\mgronber\AppData\Local\Temp\ccKdQ981.s 			page 8


 316 0088 0094     		str	r4, [sp]
 317 008a 02A8     		add	r0, sp, #8
 318 008c 0DF58161 		add	r1, sp, #1032
 319 0090 02F58063 		add	r3, r2, #1024
 320 0094 FFF7FEFF 		bl	inverse_transform
 321              	.LVL35:
  70:pitch.c       ****     
  71:pitch.c       ****     int best_lag = 0;
  72:pitch.c       ****     float max = 0;
 322              		.loc 1 72 0
 323 0098 0027     		movs	r7, #0
 324 009a 07AE     		add	r6, sp, #28
  73:pitch.c       ****     int lag;
  74:pitch.c       ****     for (lag = LAG_MIN; lag < LAG_MAX; lag++) {
 325              		.loc 1 74 0
 326 009c 0624     		movs	r4, #6
  71:pitch.c       ****     float max = 0;
 327              		.loc 1 71 0
 328 009e 4FF00008 		mov	r8, #0
 329              	.LVL36:
 330              	.L31:
  75:pitch.c       ****         if (f[lag] > max) {
 331              		.loc 1 75 0
 332 00a2 56F8045F 		ldr	r5, [r6, #4]!	@ float
 333 00a6 3946     		mov	r1, r7
 334 00a8 2846     		mov	r0, r5
 335 00aa FFF7FEFF 		bl	__aeabi_fcmpgt
 336              	.LVL37:
 337 00ae 08B1     		cbz	r0, .L29
  76:pitch.c       ****             max = f[lag];
 338              		.loc 1 76 0
 339 00b0 2F46     		mov	r7, r5
 340              	.LVL38:
  75:pitch.c       ****         if (f[lag] > max) {
 341              		.loc 1 75 0
 342 00b2 A046     		mov	r8, r4
 343              	.L29:
 344              	.LVL39:
  74:pitch.c       ****         if (f[lag] > max) {
 345              		.loc 1 74 0 discriminator 2
 346 00b4 0134     		adds	r4, r4, #1
 347              	.LVL40:
 348 00b6 C82C     		cmp	r4, #200
 349 00b8 F3D1     		bne	.L31
  77:pitch.c       ****             best_lag = lag;
  78:pitch.c       ****         }
  79:pitch.c       ****     }
  80:pitch.c       ****     
  81:pitch.c       ****     return (float)SAMPLE_RATE / best_lag;
 350              		.loc 1 81 0
 351 00ba 4046     		mov	r0, r8
 352 00bc FFF7FEFF 		bl	__aeabi_i2f
 353              	.LVL41:
 354 00c0 0146     		mov	r1, r0
 355 00c2 0548     		ldr	r0, .L37+8
 356 00c4 FFF7FEFF 		bl	__aeabi_fdiv
 357              	.LVL42:
ARM GAS  C:\Users\mgronber\AppData\Local\Temp\ccKdQ981.s 			page 9


  82:pitch.c       **** }
 358              		.loc 1 82 0
 359 00c8 0DF60C0D 		addw	sp, sp, #2060
 360              		.cfi_def_cfa_offset 28
 361              		@ sp needed
 362 00cc BDE8F083 		pop	{r4, r5, r6, r7, r8, r9, pc}
 363              	.LVL43:
 364              	.L38:
 365              		.align	2
 366              	.L37:
 367 00d0 0000C842 		.word	1120403456
 368 00d4 00000000 		.word	.LANCHOR0
 369 00d8 0000FA45 		.word	1174011904
 370              		.cfi_endproc
 371              	.LFE59:
 372              		.size	pitch_auto_fft, .-pitch_auto_fft
 373              		.section	.text.pitch_amdf,"ax",%progbits
 374              		.align	2
 375              		.global	pitch_amdf
 376              		.thumb
 377              		.thumb_func
 378              		.type	pitch_amdf, %function
 379              	pitch_amdf:
 380              	.LFB60:
  83:pitch.c       **** 
  84:pitch.c       **** float pitch_amdf(int16 samples[FRAME_LEN])
  85:pitch.c       **** {
 381              		.loc 1 85 0
 382              		.cfi_startproc
 383              		@ args = 0, pretend = 0, frame = 0
 384              		@ frame_needed = 0, uses_anonymous_args = 0
 385              	.LVL44:
 386 0000 2DE9F84F 		push	{r3, r4, r5, r6, r7, r8, r9, r10, fp, lr}
 387              		.cfi_def_cfa_offset 40
 388              		.cfi_offset 3, -40
 389              		.cfi_offset 4, -36
 390              		.cfi_offset 5, -32
 391              		.cfi_offset 6, -28
 392              		.cfi_offset 7, -24
 393              		.cfi_offset 8, -20
 394              		.cfi_offset 9, -16
 395              		.cfi_offset 10, -12
 396              		.cfi_offset 11, -8
 397              		.cfi_offset 14, -4
 398              		.loc 1 85 0
 399 0004 0746     		mov	r7, r0
  86:pitch.c       ****     float r;
  87:pitch.c       ****     float best_r = 1000;
 400              		.loc 1 87 0
 401 0006 204D     		ldr	r5, .L50
 402              	.LBB4:
  88:pitch.c       ****     int best_lag = -1;
  89:pitch.c       ****     
  90:pitch.c       ****     uint16 lag;
  91:pitch.c       ****     for (lag = LAG_MIN; lag < LAG_MAX + 1; lag++) {
  92:pitch.c       ****         int amdf = 0;
  93:pitch.c       ****         
ARM GAS  C:\Users\mgronber\AppData\Local\Temp\ccKdQ981.s 			page 10


  94:pitch.c       ****         int i;
  95:pitch.c       ****         for (i = 0; i < FRAME_LEN - lag; i++) {
  96:pitch.c       ****             amdf += abs(samples[i] - samples[i + lag]);
  97:pitch.c       ****         }
  98:pitch.c       ****         
  99:pitch.c       ****         r = (float)amdf / (float)FRAME_LEN;
 100:pitch.c       ****         
 101:pitch.c       ****         if (r < best_r) {
 102:pitch.c       ****             best_r = r;
 403              		.loc 1 102 0
 404 0008 4FF0FA0A 		mov	r10, #250
 405 000c 00F10C04 		add	r4, r0, #12
 406 0010 00F5FA79 		add	r9, r0, #500
 407              	.LBE4:
  88:pitch.c       ****     int best_lag = -1;
 408              		.loc 1 88 0
 409 0014 4FF0FF38 		mov	r8, #-1
 410              	.LVL45:
 411              	.L40:
 412              	.LBB5:
  95:pitch.c       ****             amdf += abs(samples[i] - samples[i + lag]);
 413              		.loc 1 95 0
 414 0018 BAF1000F 		cmp	r10, #0
 415 001c CAF58076 		rsb	r6, r10, #256
 416 0020 2EDD     		ble	.L46
 417 0022 3A46     		mov	r2, r7
 418 0024 2146     		mov	r1, r4
 419 0026 0020     		movs	r0, #0
 420              	.LVL46:
 421              	.L41:
  96:pitch.c       ****         }
 422              		.loc 1 96 0 discriminator 3
 423 0028 32F9023B 		ldrsh	r3, [r2], #2
 424 002c 31F902EB 		ldrsh	lr, [r1], #2
 425 0030 CEEB0303 		rsb	r3, lr, r3
 426 0034 002B     		cmp	r3, #0
 427 0036 B8BF     		it	lt
 428 0038 5B42     		rsblt	r3, r3, #0
  95:pitch.c       ****             amdf += abs(samples[i] - samples[i + lag]);
 429              		.loc 1 95 0 discriminator 3
 430 003a 9145     		cmp	r9, r2
  96:pitch.c       ****         }
 431              		.loc 1 96 0 discriminator 3
 432 003c 1844     		add	r0, r0, r3
 433              	.LVL47:
  95:pitch.c       ****             amdf += abs(samples[i] - samples[i + lag]);
 434              		.loc 1 95 0 discriminator 3
 435 003e F3D1     		bne	.L41
 436 0040 FFF7FEFF 		bl	__aeabi_i2f
 437              	.LVL48:
 438 0044 4FF06E51 		mov	r1, #998244352
 439 0048 FFF7FEFF 		bl	__aeabi_fmul
 440              	.LVL49:
 441 004c 8346     		mov	fp, r0
 442              	.L45:
 443              	.LVL50:
 101:pitch.c       ****             best_r = r;
ARM GAS  C:\Users\mgronber\AppData\Local\Temp\ccKdQ981.s 			page 11


 444              		.loc 1 101 0
 445 004e 2846     		mov	r0, r5
 446 0050 5946     		mov	r1, fp
 447 0052 FFF7FEFF 		bl	__aeabi_fcmpgt
 448              	.LVL51:
 449 0056 08B1     		cbz	r0, .L42
 103:pitch.c       ****             best_lag = lag;
 450              		.loc 1 103 0
 451 0058 B046     		mov	r8, r6
 102:pitch.c       ****             best_lag = lag;
 452              		.loc 1 102 0
 453 005a 5D46     		mov	r5, fp
 454              	.LVL52:
 455              	.L42:
 456 005c 0AF1FF3A 		add	r10, r10, #-1
 457              	.LVL53:
 458              	.LBE5:
  91:pitch.c       ****         int amdf = 0;
 459              		.loc 1 91 0 discriminator 2
 460 0060 BAF1370F 		cmp	r10, #55
 461 0064 04F10204 		add	r4, r4, #2
 462 0068 A9F10209 		sub	r9, r9, #2
 463 006c D4D1     		bne	.L40
 104:pitch.c       ****         }
 105:pitch.c       ****     }
 106:pitch.c       ****     
 107:pitch.c       ****     return (float)SAMPLE_RATE / (float)best_lag;
 464              		.loc 1 107 0
 465 006e 4046     		mov	r0, r8
 466 0070 FFF7FEFF 		bl	__aeabi_i2f
 467              	.LVL54:
 468 0074 0146     		mov	r1, r0
 469 0076 0548     		ldr	r0, .L50+4
 470 0078 FFF7FEFF 		bl	__aeabi_fdiv
 471              	.LVL55:
 108:pitch.c       **** }
 472              		.loc 1 108 0
 473 007c BDE8F88F 		pop	{r3, r4, r5, r6, r7, r8, r9, r10, fp, pc}
 474              	.LVL56:
 475              	.L46:
 476              	.LBB6:
  95:pitch.c       ****             amdf += abs(samples[i] - samples[i + lag]);
 477              		.loc 1 95 0
 478 0080 4FF0000B 		mov	fp, #0
 479 0084 E3E7     		b	.L45
 480              	.L51:
 481 0086 00BF     		.align	2
 482              	.L50:
 483 0088 00007A44 		.word	1148846080
 484 008c 0000FA45 		.word	1174011904
 485              	.LBE6:
 486              		.cfi_endproc
 487              	.LFE60:
 488              		.size	pitch_amdf, .-pitch_amdf
 489              		.bss
 490              		.align	2
 491              		.set	.LANCHOR0,. + 0
ARM GAS  C:\Users\mgronber\AppData\Local\Temp\ccKdQ981.s 			page 12


 492              		.type	cos_table, %object
 493              		.size	cos_table, 1024
 494              	cos_table:
 495 0000 00000000 		.space	1024
 495      00000000 
 495      00000000 
 495      00000000 
 495      00000000 
 496              		.type	sin_table, %object
 497              		.size	sin_table, 1024
 498              	sin_table:
 499 0400 00000000 		.space	1024
 499      00000000 
 499      00000000 
 499      00000000 
 499      00000000 
 500              		.text
 501              	.Letext0:
 502              		.file 2 "c:\\program files (x86)\\cypress\\psoc creator\\4.0\\psoc creator\\import\\gnu\\arm\\4.9.
 503              		.file 3 "c:\\program files (x86)\\cypress\\psoc creator\\4.0\\psoc creator\\import\\gnu\\arm\\4.9.
 504              		.file 4 "c:\\program files (x86)\\cypress\\psoc creator\\4.0\\psoc creator\\import\\gnu\\arm\\4.9.
 505              		.file 5 "Generated_Source\\PSoC5/cytypes.h"
 506              		.file 6 "fft.h"
 507              		.file 7 "Generated_Source\\PSoC5/core_cm3.h"