ARM GAS  C:\Users\mgronber\AppData\Local\Temp\ccbKks6H.s 			page 1


   1              		.syntax unified
   2              		.cpu cortex-m3
   3              		.fpu softvfp
   4              		.eabi_attribute 20, 1
   5              		.eabi_attribute 21, 1
   6              		.eabi_attribute 23, 3
   7              		.eabi_attribute 24, 1
   8              		.eabi_attribute 25, 1
   9              		.eabi_attribute 26, 1
  10              		.eabi_attribute 30, 2
  11              		.eabi_attribute 34, 1
  12              		.eabi_attribute 18, 4
  13              		.thumb
  14              		.file	"TIMER_SAMPLERATE.c"
  15              		.text
  16              	.Ltext0:
  17              		.cfi_sections	.debug_frame
  18              		.section	.text.TIMER_SAMPLERATE_Init,"ax",%progbits
  19              		.align	2
  20              		.global	TIMER_SAMPLERATE_Init
  21              		.thumb
  22              		.thumb_func
  23              		.type	TIMER_SAMPLERATE_Init, %function
  24              	TIMER_SAMPLERATE_Init:
  25              	.LFB0:
  26              		.file 1 "Generated_Source\\PSoC5\\TIMER_SAMPLERATE.c"
   1:Generated_Source\PSoC5/TIMER_SAMPLERATE.c **** /*******************************************************************************
   2:Generated_Source\PSoC5/TIMER_SAMPLERATE.c **** * File Name: TIMER_SAMPLERATE.c
   3:Generated_Source\PSoC5/TIMER_SAMPLERATE.c **** * Version 2.70
   4:Generated_Source\PSoC5/TIMER_SAMPLERATE.c **** *
   5:Generated_Source\PSoC5/TIMER_SAMPLERATE.c **** * Description:
   6:Generated_Source\PSoC5/TIMER_SAMPLERATE.c **** *  The Timer component consists of a 8, 16, 24 or 32-bit timer with
   7:Generated_Source\PSoC5/TIMER_SAMPLERATE.c **** *  a selectable period between 2 and 2^Width - 1.  The timer may free run
   8:Generated_Source\PSoC5/TIMER_SAMPLERATE.c **** *  or be used as a capture timer as well.  The capture can be initiated
   9:Generated_Source\PSoC5/TIMER_SAMPLERATE.c **** *  by a positive or negative edge signal as well as via software.
  10:Generated_Source\PSoC5/TIMER_SAMPLERATE.c **** *  A trigger input can be programmed to enable the timer on rising edge
  11:Generated_Source\PSoC5/TIMER_SAMPLERATE.c **** *  falling edge, either edge or continous run.
  12:Generated_Source\PSoC5/TIMER_SAMPLERATE.c **** *  Interrupts may be generated due to a terminal count condition
  13:Generated_Source\PSoC5/TIMER_SAMPLERATE.c **** *  or a capture event.
  14:Generated_Source\PSoC5/TIMER_SAMPLERATE.c **** *
  15:Generated_Source\PSoC5/TIMER_SAMPLERATE.c **** * Note:
  16:Generated_Source\PSoC5/TIMER_SAMPLERATE.c **** *
  17:Generated_Source\PSoC5/TIMER_SAMPLERATE.c **** ********************************************************************************
  18:Generated_Source\PSoC5/TIMER_SAMPLERATE.c **** * Copyright 2008-2014, Cypress Semiconductor Corporation.  All rights reserved.
  19:Generated_Source\PSoC5/TIMER_SAMPLERATE.c **** * You may use this file only in accordance with the license, terms, conditions,
  20:Generated_Source\PSoC5/TIMER_SAMPLERATE.c **** * disclaimers, and limitations in the end user license agreement accompanying
  21:Generated_Source\PSoC5/TIMER_SAMPLERATE.c **** * the software package with which this file was provided.
  22:Generated_Source\PSoC5/TIMER_SAMPLERATE.c **** ********************************************************************************/
  23:Generated_Source\PSoC5/TIMER_SAMPLERATE.c **** 
  24:Generated_Source\PSoC5/TIMER_SAMPLERATE.c **** #include "TIMER_SAMPLERATE.h"
  25:Generated_Source\PSoC5/TIMER_SAMPLERATE.c **** 
  26:Generated_Source\PSoC5/TIMER_SAMPLERATE.c **** uint8 TIMER_SAMPLERATE_initVar = 0u;
  27:Generated_Source\PSoC5/TIMER_SAMPLERATE.c **** 
  28:Generated_Source\PSoC5/TIMER_SAMPLERATE.c **** 
  29:Generated_Source\PSoC5/TIMER_SAMPLERATE.c **** /*******************************************************************************
  30:Generated_Source\PSoC5/TIMER_SAMPLERATE.c **** * Function Name: TIMER_SAMPLERATE_Init
  31:Generated_Source\PSoC5/TIMER_SAMPLERATE.c **** ********************************************************************************
ARM GAS  C:\Users\mgronber\AppData\Local\Temp\ccbKks6H.s 			page 2


  32:Generated_Source\PSoC5/TIMER_SAMPLERATE.c **** *
  33:Generated_Source\PSoC5/TIMER_SAMPLERATE.c **** * Summary:
  34:Generated_Source\PSoC5/TIMER_SAMPLERATE.c **** *  Initialize to the schematic state
  35:Generated_Source\PSoC5/TIMER_SAMPLERATE.c **** *
  36:Generated_Source\PSoC5/TIMER_SAMPLERATE.c **** * Parameters:
  37:Generated_Source\PSoC5/TIMER_SAMPLERATE.c **** *  void
  38:Generated_Source\PSoC5/TIMER_SAMPLERATE.c **** *
  39:Generated_Source\PSoC5/TIMER_SAMPLERATE.c **** * Return:
  40:Generated_Source\PSoC5/TIMER_SAMPLERATE.c **** *  void
  41:Generated_Source\PSoC5/TIMER_SAMPLERATE.c **** *
  42:Generated_Source\PSoC5/TIMER_SAMPLERATE.c **** *******************************************************************************/
  43:Generated_Source\PSoC5/TIMER_SAMPLERATE.c **** void TIMER_SAMPLERATE_Init(void) 
  44:Generated_Source\PSoC5/TIMER_SAMPLERATE.c **** {
  27              		.loc 1 44 0
  28              		.cfi_startproc
  29              		@ args = 0, pretend = 0, frame = 0
  30              		@ frame_needed = 0, uses_anonymous_args = 0
  31              	.LVL0:
  32 0000 08B5     		push	{r3, lr}
  33              		.cfi_def_cfa_offset 8
  34              		.cfi_offset 3, -8
  35              		.cfi_offset 14, -4
  36              	.LBB20:
  37              	.LBB21:
  45:Generated_Source\PSoC5/TIMER_SAMPLERATE.c ****     #if(!TIMER_SAMPLERATE_UsingFixedFunction)
  46:Generated_Source\PSoC5/TIMER_SAMPLERATE.c ****             /* Interrupt State Backup for Critical Region*/
  47:Generated_Source\PSoC5/TIMER_SAMPLERATE.c ****             uint8 TIMER_SAMPLERATE_interruptState;
  48:Generated_Source\PSoC5/TIMER_SAMPLERATE.c ****     #endif /* Interrupt state back up for Fixed Function only */
  49:Generated_Source\PSoC5/TIMER_SAMPLERATE.c **** 
  50:Generated_Source\PSoC5/TIMER_SAMPLERATE.c ****     #if (TIMER_SAMPLERATE_UsingFixedFunction)
  51:Generated_Source\PSoC5/TIMER_SAMPLERATE.c ****         /* Clear all bits but the enable bit (if it's already set) for Timer operation */
  52:Generated_Source\PSoC5/TIMER_SAMPLERATE.c ****         TIMER_SAMPLERATE_CONTROL &= TIMER_SAMPLERATE_CTRL_ENABLE;
  53:Generated_Source\PSoC5/TIMER_SAMPLERATE.c **** 
  54:Generated_Source\PSoC5/TIMER_SAMPLERATE.c ****         /* Clear the mode bits for continuous run mode */
  55:Generated_Source\PSoC5/TIMER_SAMPLERATE.c ****         #if (CY_PSOC5A)
  56:Generated_Source\PSoC5/TIMER_SAMPLERATE.c ****             TIMER_SAMPLERATE_CONTROL2 &= ((uint8)(~TIMER_SAMPLERATE_CTRL_MODE_MASK));
  57:Generated_Source\PSoC5/TIMER_SAMPLERATE.c ****         #endif /* Clear bits in CONTROL2 only in PSOC5A */
  58:Generated_Source\PSoC5/TIMER_SAMPLERATE.c **** 
  59:Generated_Source\PSoC5/TIMER_SAMPLERATE.c ****         #if (CY_PSOC3 || CY_PSOC5LP)
  60:Generated_Source\PSoC5/TIMER_SAMPLERATE.c ****             TIMER_SAMPLERATE_CONTROL3 &= ((uint8)(~TIMER_SAMPLERATE_CTRL_MODE_MASK));
  61:Generated_Source\PSoC5/TIMER_SAMPLERATE.c ****         #endif /* CONTROL3 register exists only in PSoC3 OR PSoC5LP */
  62:Generated_Source\PSoC5/TIMER_SAMPLERATE.c **** 
  63:Generated_Source\PSoC5/TIMER_SAMPLERATE.c ****         /* Check if One Shot mode is enabled i.e. RunMode !=0*/
  64:Generated_Source\PSoC5/TIMER_SAMPLERATE.c ****         #if (TIMER_SAMPLERATE_RunModeUsed != 0x0u)
  65:Generated_Source\PSoC5/TIMER_SAMPLERATE.c ****             /* Set 3rd bit of Control register to enable one shot mode */
  66:Generated_Source\PSoC5/TIMER_SAMPLERATE.c ****             TIMER_SAMPLERATE_CONTROL |= 0x04u;
  67:Generated_Source\PSoC5/TIMER_SAMPLERATE.c ****         #endif /* One Shot enabled only when RunModeUsed is not Continuous*/
  68:Generated_Source\PSoC5/TIMER_SAMPLERATE.c **** 
  69:Generated_Source\PSoC5/TIMER_SAMPLERATE.c ****         #if (TIMER_SAMPLERATE_RunModeUsed == 2)
  70:Generated_Source\PSoC5/TIMER_SAMPLERATE.c ****             #if (CY_PSOC5A)
  71:Generated_Source\PSoC5/TIMER_SAMPLERATE.c ****                 /* Set last 2 bits of control2 register if one shot(halt on
  72:Generated_Source\PSoC5/TIMER_SAMPLERATE.c ****                 interrupt) is enabled*/
  73:Generated_Source\PSoC5/TIMER_SAMPLERATE.c ****                 TIMER_SAMPLERATE_CONTROL2 |= 0x03u;
  74:Generated_Source\PSoC5/TIMER_SAMPLERATE.c ****             #endif /* Set One-Shot Halt on Interrupt bit in CONTROL2 for PSoC5A */
  75:Generated_Source\PSoC5/TIMER_SAMPLERATE.c **** 
  76:Generated_Source\PSoC5/TIMER_SAMPLERATE.c ****             #if (CY_PSOC3 || CY_PSOC5LP)
  77:Generated_Source\PSoC5/TIMER_SAMPLERATE.c ****                 /* Set last 2 bits of control3 register if one shot(halt on
ARM GAS  C:\Users\mgronber\AppData\Local\Temp\ccbKks6H.s 			page 3


  78:Generated_Source\PSoC5/TIMER_SAMPLERATE.c ****                 interrupt) is enabled*/
  79:Generated_Source\PSoC5/TIMER_SAMPLERATE.c ****                 TIMER_SAMPLERATE_CONTROL3 |= 0x03u;
  80:Generated_Source\PSoC5/TIMER_SAMPLERATE.c ****             #endif /* Set One-Shot Halt on Interrupt bit in CONTROL3 for PSoC3 or PSoC5LP */
  81:Generated_Source\PSoC5/TIMER_SAMPLERATE.c **** 
  82:Generated_Source\PSoC5/TIMER_SAMPLERATE.c ****         #endif /* Remove section if One Shot Halt on Interrupt is not enabled */
  83:Generated_Source\PSoC5/TIMER_SAMPLERATE.c **** 
  84:Generated_Source\PSoC5/TIMER_SAMPLERATE.c ****         #if (TIMER_SAMPLERATE_UsingHWEnable != 0)
  85:Generated_Source\PSoC5/TIMER_SAMPLERATE.c ****             #if (CY_PSOC5A)
  86:Generated_Source\PSoC5/TIMER_SAMPLERATE.c ****                 /* Set the default Run Mode of the Timer to Continuous */
  87:Generated_Source\PSoC5/TIMER_SAMPLERATE.c ****                 TIMER_SAMPLERATE_CONTROL2 |= TIMER_SAMPLERATE_CTRL_MODE_PULSEWIDTH;
  88:Generated_Source\PSoC5/TIMER_SAMPLERATE.c ****             #endif /* Set Continuous Run Mode in CONTROL2 for PSoC5A */
  89:Generated_Source\PSoC5/TIMER_SAMPLERATE.c **** 
  90:Generated_Source\PSoC5/TIMER_SAMPLERATE.c ****             #if (CY_PSOC3 || CY_PSOC5LP)
  91:Generated_Source\PSoC5/TIMER_SAMPLERATE.c ****                 /* Clear and Set ROD and COD bits of CFG2 register */
  92:Generated_Source\PSoC5/TIMER_SAMPLERATE.c ****                 TIMER_SAMPLERATE_CONTROL3 &= ((uint8)(~TIMER_SAMPLERATE_CTRL_RCOD_MASK));
  93:Generated_Source\PSoC5/TIMER_SAMPLERATE.c ****                 TIMER_SAMPLERATE_CONTROL3 |= TIMER_SAMPLERATE_CTRL_RCOD;
  94:Generated_Source\PSoC5/TIMER_SAMPLERATE.c **** 
  95:Generated_Source\PSoC5/TIMER_SAMPLERATE.c ****                 /* Clear and Enable the HW enable bit in CFG2 register */
  96:Generated_Source\PSoC5/TIMER_SAMPLERATE.c ****                 TIMER_SAMPLERATE_CONTROL3 &= ((uint8)(~TIMER_SAMPLERATE_CTRL_ENBL_MASK));
  97:Generated_Source\PSoC5/TIMER_SAMPLERATE.c ****                 TIMER_SAMPLERATE_CONTROL3 |= TIMER_SAMPLERATE_CTRL_ENBL;
  98:Generated_Source\PSoC5/TIMER_SAMPLERATE.c **** 
  99:Generated_Source\PSoC5/TIMER_SAMPLERATE.c ****                 /* Set the default Run Mode of the Timer to Continuous */
 100:Generated_Source\PSoC5/TIMER_SAMPLERATE.c ****                 TIMER_SAMPLERATE_CONTROL3 |= TIMER_SAMPLERATE_CTRL_MODE_CONTINUOUS;
 101:Generated_Source\PSoC5/TIMER_SAMPLERATE.c ****             #endif /* Set Continuous Run Mode in CONTROL3 for PSoC3ES3 or PSoC5A */
 102:Generated_Source\PSoC5/TIMER_SAMPLERATE.c **** 
 103:Generated_Source\PSoC5/TIMER_SAMPLERATE.c ****         #endif /* Configure Run Mode with hardware enable */
 104:Generated_Source\PSoC5/TIMER_SAMPLERATE.c **** 
 105:Generated_Source\PSoC5/TIMER_SAMPLERATE.c ****         /* Clear and Set SYNCTC and SYNCCMP bits of RT1 register */
 106:Generated_Source\PSoC5/TIMER_SAMPLERATE.c ****         TIMER_SAMPLERATE_RT1 &= ((uint8)(~TIMER_SAMPLERATE_RT1_MASK));
 107:Generated_Source\PSoC5/TIMER_SAMPLERATE.c ****         TIMER_SAMPLERATE_RT1 |= TIMER_SAMPLERATE_SYNC;
 108:Generated_Source\PSoC5/TIMER_SAMPLERATE.c **** 
 109:Generated_Source\PSoC5/TIMER_SAMPLERATE.c ****         /*Enable DSI Sync all all inputs of the Timer*/
 110:Generated_Source\PSoC5/TIMER_SAMPLERATE.c ****         TIMER_SAMPLERATE_RT1 &= ((uint8)(~TIMER_SAMPLERATE_SYNCDSI_MASK));
 111:Generated_Source\PSoC5/TIMER_SAMPLERATE.c ****         TIMER_SAMPLERATE_RT1 |= TIMER_SAMPLERATE_SYNCDSI_EN;
 112:Generated_Source\PSoC5/TIMER_SAMPLERATE.c **** 
 113:Generated_Source\PSoC5/TIMER_SAMPLERATE.c ****         /* Set the IRQ to use the status register interrupts */
 114:Generated_Source\PSoC5/TIMER_SAMPLERATE.c ****         TIMER_SAMPLERATE_CONTROL2 |= TIMER_SAMPLERATE_CTRL2_IRQ_SEL;
 115:Generated_Source\PSoC5/TIMER_SAMPLERATE.c ****     #endif /* Configuring registers of fixed function implementation */
 116:Generated_Source\PSoC5/TIMER_SAMPLERATE.c **** 
 117:Generated_Source\PSoC5/TIMER_SAMPLERATE.c ****     /* Set Initial values from Configuration */
 118:Generated_Source\PSoC5/TIMER_SAMPLERATE.c ****     TIMER_SAMPLERATE_WritePeriod(TIMER_SAMPLERATE_INIT_PERIOD);
 119:Generated_Source\PSoC5/TIMER_SAMPLERATE.c ****     TIMER_SAMPLERATE_WriteCounter(TIMER_SAMPLERATE_INIT_PERIOD);
 120:Generated_Source\PSoC5/TIMER_SAMPLERATE.c **** 
 121:Generated_Source\PSoC5/TIMER_SAMPLERATE.c ****     #if (TIMER_SAMPLERATE_UsingHWCaptureCounter)/* Capture counter is enabled */
 122:Generated_Source\PSoC5/TIMER_SAMPLERATE.c ****         TIMER_SAMPLERATE_CAPTURE_COUNT_CTRL |= TIMER_SAMPLERATE_CNTR_ENABLE;
 123:Generated_Source\PSoC5/TIMER_SAMPLERATE.c ****         TIMER_SAMPLERATE_SetCaptureCount(TIMER_SAMPLERATE_INIT_CAPTURE_COUNT);
 124:Generated_Source\PSoC5/TIMER_SAMPLERATE.c ****     #endif /* Configure capture counter value */
 125:Generated_Source\PSoC5/TIMER_SAMPLERATE.c **** 
 126:Generated_Source\PSoC5/TIMER_SAMPLERATE.c ****     #if (!TIMER_SAMPLERATE_UsingFixedFunction)
 127:Generated_Source\PSoC5/TIMER_SAMPLERATE.c ****         #if (TIMER_SAMPLERATE_SoftwareCaptureMode)
 128:Generated_Source\PSoC5/TIMER_SAMPLERATE.c ****             TIMER_SAMPLERATE_SetCaptureMode(TIMER_SAMPLERATE_INIT_CAPTURE_MODE);
 129:Generated_Source\PSoC5/TIMER_SAMPLERATE.c ****         #endif /* Set Capture Mode for UDB implementation if capture mode is software controlled */
 130:Generated_Source\PSoC5/TIMER_SAMPLERATE.c **** 
 131:Generated_Source\PSoC5/TIMER_SAMPLERATE.c ****         #if (TIMER_SAMPLERATE_SoftwareTriggerMode)
 132:Generated_Source\PSoC5/TIMER_SAMPLERATE.c ****             #if (!TIMER_SAMPLERATE_UDB_CONTROL_REG_REMOVED)
 133:Generated_Source\PSoC5/TIMER_SAMPLERATE.c ****                 if (0u == (TIMER_SAMPLERATE_CONTROL & TIMER_SAMPLERATE__B_TIMER__TM_SOFTWARE))
 134:Generated_Source\PSoC5/TIMER_SAMPLERATE.c ****                 {
ARM GAS  C:\Users\mgronber\AppData\Local\Temp\ccbKks6H.s 			page 4


 135:Generated_Source\PSoC5/TIMER_SAMPLERATE.c ****                     TIMER_SAMPLERATE_SetTriggerMode(TIMER_SAMPLERATE_INIT_TRIGGER_MODE);
 136:Generated_Source\PSoC5/TIMER_SAMPLERATE.c ****                 }
 137:Generated_Source\PSoC5/TIMER_SAMPLERATE.c ****             #endif /* (!TIMER_SAMPLERATE_UDB_CONTROL_REG_REMOVED) */
 138:Generated_Source\PSoC5/TIMER_SAMPLERATE.c ****         #endif /* Set trigger mode for UDB Implementation if trigger mode is software controlled */
 139:Generated_Source\PSoC5/TIMER_SAMPLERATE.c **** 
 140:Generated_Source\PSoC5/TIMER_SAMPLERATE.c ****         /* CyEnterCriticalRegion and CyExitCriticalRegion are used to mark following region critica
 141:Generated_Source\PSoC5/TIMER_SAMPLERATE.c ****         /* Enter Critical Region*/
 142:Generated_Source\PSoC5/TIMER_SAMPLERATE.c ****         TIMER_SAMPLERATE_interruptState = CyEnterCriticalSection();
 143:Generated_Source\PSoC5/TIMER_SAMPLERATE.c **** 
 144:Generated_Source\PSoC5/TIMER_SAMPLERATE.c ****         /* Use the interrupt output of the status register for IRQ output */
 145:Generated_Source\PSoC5/TIMER_SAMPLERATE.c ****         TIMER_SAMPLERATE_STATUS_AUX_CTRL |= TIMER_SAMPLERATE_STATUS_ACTL_INT_EN_MASK;
 146:Generated_Source\PSoC5/TIMER_SAMPLERATE.c **** 
 147:Generated_Source\PSoC5/TIMER_SAMPLERATE.c ****         /* Exit Critical Region*/
 148:Generated_Source\PSoC5/TIMER_SAMPLERATE.c ****         CyExitCriticalSection(TIMER_SAMPLERATE_interruptState);
 149:Generated_Source\PSoC5/TIMER_SAMPLERATE.c **** 
 150:Generated_Source\PSoC5/TIMER_SAMPLERATE.c ****         #if (TIMER_SAMPLERATE_EnableTriggerMode)
 151:Generated_Source\PSoC5/TIMER_SAMPLERATE.c ****             TIMER_SAMPLERATE_EnableTrigger();
 152:Generated_Source\PSoC5/TIMER_SAMPLERATE.c ****         #endif /* Set Trigger enable bit for UDB implementation in the control register*/
 153:Generated_Source\PSoC5/TIMER_SAMPLERATE.c **** 		
 154:Generated_Source\PSoC5/TIMER_SAMPLERATE.c **** 		
 155:Generated_Source\PSoC5/TIMER_SAMPLERATE.c ****         #if (TIMER_SAMPLERATE_InterruptOnCaptureCount && !TIMER_SAMPLERATE_UDB_CONTROL_REG_REMOVED)
 156:Generated_Source\PSoC5/TIMER_SAMPLERATE.c ****             TIMER_SAMPLERATE_SetInterruptCount(TIMER_SAMPLERATE_INIT_INT_CAPTURE_COUNT);
 157:Generated_Source\PSoC5/TIMER_SAMPLERATE.c ****         #endif /* Set interrupt count in UDB implementation if interrupt count feature is checked.*
 158:Generated_Source\PSoC5/TIMER_SAMPLERATE.c **** 
 159:Generated_Source\PSoC5/TIMER_SAMPLERATE.c ****         TIMER_SAMPLERATE_ClearFIFO();
 160:Generated_Source\PSoC5/TIMER_SAMPLERATE.c ****     #endif /* Configure additional features of UDB implementation */
 161:Generated_Source\PSoC5/TIMER_SAMPLERATE.c **** 
 162:Generated_Source\PSoC5/TIMER_SAMPLERATE.c ****     TIMER_SAMPLERATE_SetInterruptMode(TIMER_SAMPLERATE_INIT_INTERRUPT_MODE);
 163:Generated_Source\PSoC5/TIMER_SAMPLERATE.c **** }
 164:Generated_Source\PSoC5/TIMER_SAMPLERATE.c **** 
 165:Generated_Source\PSoC5/TIMER_SAMPLERATE.c **** 
 166:Generated_Source\PSoC5/TIMER_SAMPLERATE.c **** /*******************************************************************************
 167:Generated_Source\PSoC5/TIMER_SAMPLERATE.c **** * Function Name: TIMER_SAMPLERATE_Enable
 168:Generated_Source\PSoC5/TIMER_SAMPLERATE.c **** ********************************************************************************
 169:Generated_Source\PSoC5/TIMER_SAMPLERATE.c **** *
 170:Generated_Source\PSoC5/TIMER_SAMPLERATE.c **** * Summary:
 171:Generated_Source\PSoC5/TIMER_SAMPLERATE.c **** *  Enable the Timer
 172:Generated_Source\PSoC5/TIMER_SAMPLERATE.c **** *
 173:Generated_Source\PSoC5/TIMER_SAMPLERATE.c **** * Parameters:
 174:Generated_Source\PSoC5/TIMER_SAMPLERATE.c **** *  void
 175:Generated_Source\PSoC5/TIMER_SAMPLERATE.c **** *
 176:Generated_Source\PSoC5/TIMER_SAMPLERATE.c **** * Return:
 177:Generated_Source\PSoC5/TIMER_SAMPLERATE.c **** *  void
 178:Generated_Source\PSoC5/TIMER_SAMPLERATE.c **** *
 179:Generated_Source\PSoC5/TIMER_SAMPLERATE.c **** *******************************************************************************/
 180:Generated_Source\PSoC5/TIMER_SAMPLERATE.c **** void TIMER_SAMPLERATE_Enable(void) 
 181:Generated_Source\PSoC5/TIMER_SAMPLERATE.c **** {
 182:Generated_Source\PSoC5/TIMER_SAMPLERATE.c ****     /* Globally Enable the Fixed Function Block chosen */
 183:Generated_Source\PSoC5/TIMER_SAMPLERATE.c ****     #if (TIMER_SAMPLERATE_UsingFixedFunction)
 184:Generated_Source\PSoC5/TIMER_SAMPLERATE.c ****         TIMER_SAMPLERATE_GLOBAL_ENABLE |= TIMER_SAMPLERATE_BLOCK_EN_MASK;
 185:Generated_Source\PSoC5/TIMER_SAMPLERATE.c ****         TIMER_SAMPLERATE_GLOBAL_STBY_ENABLE |= TIMER_SAMPLERATE_BLOCK_STBY_EN_MASK;
 186:Generated_Source\PSoC5/TIMER_SAMPLERATE.c ****     #endif /* Set Enable bit for enabling Fixed function timer*/
 187:Generated_Source\PSoC5/TIMER_SAMPLERATE.c **** 
 188:Generated_Source\PSoC5/TIMER_SAMPLERATE.c ****     /* Remove assignment if control register is removed */
 189:Generated_Source\PSoC5/TIMER_SAMPLERATE.c ****     #if (!TIMER_SAMPLERATE_UDB_CONTROL_REG_REMOVED || TIMER_SAMPLERATE_UsingFixedFunction)
 190:Generated_Source\PSoC5/TIMER_SAMPLERATE.c ****         TIMER_SAMPLERATE_CONTROL |= TIMER_SAMPLERATE_CTRL_ENABLE;
 191:Generated_Source\PSoC5/TIMER_SAMPLERATE.c ****     #endif /* Remove assignment if control register is removed */
ARM GAS  C:\Users\mgronber\AppData\Local\Temp\ccbKks6H.s 			page 5


 192:Generated_Source\PSoC5/TIMER_SAMPLERATE.c **** }
 193:Generated_Source\PSoC5/TIMER_SAMPLERATE.c **** 
 194:Generated_Source\PSoC5/TIMER_SAMPLERATE.c **** 
 195:Generated_Source\PSoC5/TIMER_SAMPLERATE.c **** /*******************************************************************************
 196:Generated_Source\PSoC5/TIMER_SAMPLERATE.c **** * Function Name: TIMER_SAMPLERATE_Start
 197:Generated_Source\PSoC5/TIMER_SAMPLERATE.c **** ********************************************************************************
 198:Generated_Source\PSoC5/TIMER_SAMPLERATE.c **** *
 199:Generated_Source\PSoC5/TIMER_SAMPLERATE.c **** * Summary:
 200:Generated_Source\PSoC5/TIMER_SAMPLERATE.c **** *  The start function initializes the timer with the default values, the
 201:Generated_Source\PSoC5/TIMER_SAMPLERATE.c **** *  enables the timerto begin counting.  It does not enable interrupts,
 202:Generated_Source\PSoC5/TIMER_SAMPLERATE.c **** *  the EnableInt command should be called if interrupt generation is required.
 203:Generated_Source\PSoC5/TIMER_SAMPLERATE.c **** *
 204:Generated_Source\PSoC5/TIMER_SAMPLERATE.c **** * Parameters:
 205:Generated_Source\PSoC5/TIMER_SAMPLERATE.c **** *  void
 206:Generated_Source\PSoC5/TIMER_SAMPLERATE.c **** *
 207:Generated_Source\PSoC5/TIMER_SAMPLERATE.c **** * Return:
 208:Generated_Source\PSoC5/TIMER_SAMPLERATE.c **** *  void
 209:Generated_Source\PSoC5/TIMER_SAMPLERATE.c **** *
 210:Generated_Source\PSoC5/TIMER_SAMPLERATE.c **** * Global variables:
 211:Generated_Source\PSoC5/TIMER_SAMPLERATE.c **** *  TIMER_SAMPLERATE_initVar: Is modified when this function is called for the
 212:Generated_Source\PSoC5/TIMER_SAMPLERATE.c **** *   first time. Is used to ensure that initialization happens only once.
 213:Generated_Source\PSoC5/TIMER_SAMPLERATE.c **** *
 214:Generated_Source\PSoC5/TIMER_SAMPLERATE.c **** *******************************************************************************/
 215:Generated_Source\PSoC5/TIMER_SAMPLERATE.c **** void TIMER_SAMPLERATE_Start(void) 
 216:Generated_Source\PSoC5/TIMER_SAMPLERATE.c **** {
 217:Generated_Source\PSoC5/TIMER_SAMPLERATE.c ****     if(TIMER_SAMPLERATE_initVar == 0u)
 218:Generated_Source\PSoC5/TIMER_SAMPLERATE.c ****     {
 219:Generated_Source\PSoC5/TIMER_SAMPLERATE.c ****         TIMER_SAMPLERATE_Init();
 220:Generated_Source\PSoC5/TIMER_SAMPLERATE.c **** 
 221:Generated_Source\PSoC5/TIMER_SAMPLERATE.c ****         TIMER_SAMPLERATE_initVar = 1u;   /* Clear this bit for Initialization */
 222:Generated_Source\PSoC5/TIMER_SAMPLERATE.c ****     }
 223:Generated_Source\PSoC5/TIMER_SAMPLERATE.c **** 
 224:Generated_Source\PSoC5/TIMER_SAMPLERATE.c ****     /* Enable the Timer */
 225:Generated_Source\PSoC5/TIMER_SAMPLERATE.c ****     TIMER_SAMPLERATE_Enable();
 226:Generated_Source\PSoC5/TIMER_SAMPLERATE.c **** }
 227:Generated_Source\PSoC5/TIMER_SAMPLERATE.c **** 
 228:Generated_Source\PSoC5/TIMER_SAMPLERATE.c **** 
 229:Generated_Source\PSoC5/TIMER_SAMPLERATE.c **** /*******************************************************************************
 230:Generated_Source\PSoC5/TIMER_SAMPLERATE.c **** * Function Name: TIMER_SAMPLERATE_Stop
 231:Generated_Source\PSoC5/TIMER_SAMPLERATE.c **** ********************************************************************************
 232:Generated_Source\PSoC5/TIMER_SAMPLERATE.c **** *
 233:Generated_Source\PSoC5/TIMER_SAMPLERATE.c **** * Summary:
 234:Generated_Source\PSoC5/TIMER_SAMPLERATE.c **** *  The stop function halts the timer, but does not change any modes or disable
 235:Generated_Source\PSoC5/TIMER_SAMPLERATE.c **** *  interrupts.
 236:Generated_Source\PSoC5/TIMER_SAMPLERATE.c **** *
 237:Generated_Source\PSoC5/TIMER_SAMPLERATE.c **** * Parameters:
 238:Generated_Source\PSoC5/TIMER_SAMPLERATE.c **** *  void
 239:Generated_Source\PSoC5/TIMER_SAMPLERATE.c **** *
 240:Generated_Source\PSoC5/TIMER_SAMPLERATE.c **** * Return:
 241:Generated_Source\PSoC5/TIMER_SAMPLERATE.c **** *  void
 242:Generated_Source\PSoC5/TIMER_SAMPLERATE.c **** *
 243:Generated_Source\PSoC5/TIMER_SAMPLERATE.c **** * Side Effects: If the Enable mode is set to Hardware only then this function
 244:Generated_Source\PSoC5/TIMER_SAMPLERATE.c **** *               has no effect on the operation of the timer.
 245:Generated_Source\PSoC5/TIMER_SAMPLERATE.c **** *
 246:Generated_Source\PSoC5/TIMER_SAMPLERATE.c **** *******************************************************************************/
 247:Generated_Source\PSoC5/TIMER_SAMPLERATE.c **** void TIMER_SAMPLERATE_Stop(void) 
 248:Generated_Source\PSoC5/TIMER_SAMPLERATE.c **** {
ARM GAS  C:\Users\mgronber\AppData\Local\Temp\ccbKks6H.s 			page 6


 249:Generated_Source\PSoC5/TIMER_SAMPLERATE.c ****     /* Disable Timer */
 250:Generated_Source\PSoC5/TIMER_SAMPLERATE.c ****     #if(!TIMER_SAMPLERATE_UDB_CONTROL_REG_REMOVED || TIMER_SAMPLERATE_UsingFixedFunction)
 251:Generated_Source\PSoC5/TIMER_SAMPLERATE.c ****         TIMER_SAMPLERATE_CONTROL &= ((uint8)(~TIMER_SAMPLERATE_CTRL_ENABLE));
 252:Generated_Source\PSoC5/TIMER_SAMPLERATE.c ****     #endif /* Remove assignment if control register is removed */
 253:Generated_Source\PSoC5/TIMER_SAMPLERATE.c **** 
 254:Generated_Source\PSoC5/TIMER_SAMPLERATE.c ****     /* Globally disable the Fixed Function Block chosen */
 255:Generated_Source\PSoC5/TIMER_SAMPLERATE.c ****     #if (TIMER_SAMPLERATE_UsingFixedFunction)
 256:Generated_Source\PSoC5/TIMER_SAMPLERATE.c ****         TIMER_SAMPLERATE_GLOBAL_ENABLE &= ((uint8)(~TIMER_SAMPLERATE_BLOCK_EN_MASK));
 257:Generated_Source\PSoC5/TIMER_SAMPLERATE.c ****         TIMER_SAMPLERATE_GLOBAL_STBY_ENABLE &= ((uint8)(~TIMER_SAMPLERATE_BLOCK_STBY_EN_MASK));
 258:Generated_Source\PSoC5/TIMER_SAMPLERATE.c ****     #endif /* Disable global enable for the Timer Fixed function block to stop the Timer*/
 259:Generated_Source\PSoC5/TIMER_SAMPLERATE.c **** }
 260:Generated_Source\PSoC5/TIMER_SAMPLERATE.c **** 
 261:Generated_Source\PSoC5/TIMER_SAMPLERATE.c **** 
 262:Generated_Source\PSoC5/TIMER_SAMPLERATE.c **** /*******************************************************************************
 263:Generated_Source\PSoC5/TIMER_SAMPLERATE.c **** * Function Name: TIMER_SAMPLERATE_SetInterruptMode
 264:Generated_Source\PSoC5/TIMER_SAMPLERATE.c **** ********************************************************************************
 265:Generated_Source\PSoC5/TIMER_SAMPLERATE.c **** *
 266:Generated_Source\PSoC5/TIMER_SAMPLERATE.c **** * Summary:
 267:Generated_Source\PSoC5/TIMER_SAMPLERATE.c **** *  This function selects which of the interrupt inputs may cause an interrupt.
 268:Generated_Source\PSoC5/TIMER_SAMPLERATE.c **** *  The twosources are caputure and terminal.  One, both or neither may
 269:Generated_Source\PSoC5/TIMER_SAMPLERATE.c **** *  be selected.
 270:Generated_Source\PSoC5/TIMER_SAMPLERATE.c **** *
 271:Generated_Source\PSoC5/TIMER_SAMPLERATE.c **** * Parameters:
 272:Generated_Source\PSoC5/TIMER_SAMPLERATE.c **** *  interruptMode:   This parameter is used to enable interrups on either/or
 273:Generated_Source\PSoC5/TIMER_SAMPLERATE.c **** *                   terminal count or capture.
 274:Generated_Source\PSoC5/TIMER_SAMPLERATE.c **** *
 275:Generated_Source\PSoC5/TIMER_SAMPLERATE.c **** * Return:
 276:Generated_Source\PSoC5/TIMER_SAMPLERATE.c **** *  void
 277:Generated_Source\PSoC5/TIMER_SAMPLERATE.c **** *
 278:Generated_Source\PSoC5/TIMER_SAMPLERATE.c **** *******************************************************************************/
 279:Generated_Source\PSoC5/TIMER_SAMPLERATE.c **** void TIMER_SAMPLERATE_SetInterruptMode(uint8 interruptMode) 
 280:Generated_Source\PSoC5/TIMER_SAMPLERATE.c **** {
 281:Generated_Source\PSoC5/TIMER_SAMPLERATE.c ****     TIMER_SAMPLERATE_STATUS_MASK = interruptMode;
 282:Generated_Source\PSoC5/TIMER_SAMPLERATE.c **** }
 283:Generated_Source\PSoC5/TIMER_SAMPLERATE.c **** 
 284:Generated_Source\PSoC5/TIMER_SAMPLERATE.c **** 
 285:Generated_Source\PSoC5/TIMER_SAMPLERATE.c **** /*******************************************************************************
 286:Generated_Source\PSoC5/TIMER_SAMPLERATE.c **** * Function Name: TIMER_SAMPLERATE_SoftwareCapture
 287:Generated_Source\PSoC5/TIMER_SAMPLERATE.c **** ********************************************************************************
 288:Generated_Source\PSoC5/TIMER_SAMPLERATE.c **** *
 289:Generated_Source\PSoC5/TIMER_SAMPLERATE.c **** * Summary:
 290:Generated_Source\PSoC5/TIMER_SAMPLERATE.c **** *  This function forces a capture independent of the capture signal.
 291:Generated_Source\PSoC5/TIMER_SAMPLERATE.c **** *
 292:Generated_Source\PSoC5/TIMER_SAMPLERATE.c **** * Parameters:
 293:Generated_Source\PSoC5/TIMER_SAMPLERATE.c **** *  void
 294:Generated_Source\PSoC5/TIMER_SAMPLERATE.c **** *
 295:Generated_Source\PSoC5/TIMER_SAMPLERATE.c **** * Return:
 296:Generated_Source\PSoC5/TIMER_SAMPLERATE.c **** *  void
 297:Generated_Source\PSoC5/TIMER_SAMPLERATE.c **** *
 298:Generated_Source\PSoC5/TIMER_SAMPLERATE.c **** * Side Effects:
 299:Generated_Source\PSoC5/TIMER_SAMPLERATE.c **** *  An existing hardware capture could be overwritten.
 300:Generated_Source\PSoC5/TIMER_SAMPLERATE.c **** *
 301:Generated_Source\PSoC5/TIMER_SAMPLERATE.c **** *******************************************************************************/
 302:Generated_Source\PSoC5/TIMER_SAMPLERATE.c **** void TIMER_SAMPLERATE_SoftwareCapture(void) 
 303:Generated_Source\PSoC5/TIMER_SAMPLERATE.c **** {
 304:Generated_Source\PSoC5/TIMER_SAMPLERATE.c ****     /* Generate a software capture by reading the counter register */
 305:Generated_Source\PSoC5/TIMER_SAMPLERATE.c ****     #if(TIMER_SAMPLERATE_UsingFixedFunction)
ARM GAS  C:\Users\mgronber\AppData\Local\Temp\ccbKks6H.s 			page 7


 306:Generated_Source\PSoC5/TIMER_SAMPLERATE.c ****         (void)CY_GET_REG16(TIMER_SAMPLERATE_COUNTER_LSB_PTR);
 307:Generated_Source\PSoC5/TIMER_SAMPLERATE.c ****     #else
 308:Generated_Source\PSoC5/TIMER_SAMPLERATE.c ****         (void)CY_GET_REG8(TIMER_SAMPLERATE_COUNTER_LSB_PTR_8BIT);
 309:Generated_Source\PSoC5/TIMER_SAMPLERATE.c ****     #endif/* (TIMER_SAMPLERATE_UsingFixedFunction) */
 310:Generated_Source\PSoC5/TIMER_SAMPLERATE.c ****     /* Capture Data is now in the FIFO */
 311:Generated_Source\PSoC5/TIMER_SAMPLERATE.c **** }
 312:Generated_Source\PSoC5/TIMER_SAMPLERATE.c **** 
 313:Generated_Source\PSoC5/TIMER_SAMPLERATE.c **** 
 314:Generated_Source\PSoC5/TIMER_SAMPLERATE.c **** /*******************************************************************************
 315:Generated_Source\PSoC5/TIMER_SAMPLERATE.c **** * Function Name: TIMER_SAMPLERATE_ReadStatusRegister
 316:Generated_Source\PSoC5/TIMER_SAMPLERATE.c **** ********************************************************************************
 317:Generated_Source\PSoC5/TIMER_SAMPLERATE.c **** *
 318:Generated_Source\PSoC5/TIMER_SAMPLERATE.c **** * Summary:
 319:Generated_Source\PSoC5/TIMER_SAMPLERATE.c **** *  Reads the status register and returns it's state. This function should use
 320:Generated_Source\PSoC5/TIMER_SAMPLERATE.c **** *  defined types for the bit-field information as the bits in this register may
 321:Generated_Source\PSoC5/TIMER_SAMPLERATE.c **** *  be permuteable.
 322:Generated_Source\PSoC5/TIMER_SAMPLERATE.c **** *
 323:Generated_Source\PSoC5/TIMER_SAMPLERATE.c **** * Parameters:
 324:Generated_Source\PSoC5/TIMER_SAMPLERATE.c **** *  void
 325:Generated_Source\PSoC5/TIMER_SAMPLERATE.c **** *
 326:Generated_Source\PSoC5/TIMER_SAMPLERATE.c **** * Return:
 327:Generated_Source\PSoC5/TIMER_SAMPLERATE.c **** *  The contents of the status register
 328:Generated_Source\PSoC5/TIMER_SAMPLERATE.c **** *
 329:Generated_Source\PSoC5/TIMER_SAMPLERATE.c **** * Side Effects:
 330:Generated_Source\PSoC5/TIMER_SAMPLERATE.c **** *  Status register bits may be clear on read.
 331:Generated_Source\PSoC5/TIMER_SAMPLERATE.c **** *
 332:Generated_Source\PSoC5/TIMER_SAMPLERATE.c **** *******************************************************************************/
 333:Generated_Source\PSoC5/TIMER_SAMPLERATE.c **** uint8   TIMER_SAMPLERATE_ReadStatusRegister(void) 
 334:Generated_Source\PSoC5/TIMER_SAMPLERATE.c **** {
 335:Generated_Source\PSoC5/TIMER_SAMPLERATE.c ****     return (TIMER_SAMPLERATE_STATUS);
 336:Generated_Source\PSoC5/TIMER_SAMPLERATE.c **** }
 337:Generated_Source\PSoC5/TIMER_SAMPLERATE.c **** 
 338:Generated_Source\PSoC5/TIMER_SAMPLERATE.c **** 
 339:Generated_Source\PSoC5/TIMER_SAMPLERATE.c **** #if (!TIMER_SAMPLERATE_UDB_CONTROL_REG_REMOVED) /* Remove API if control register is unused */
 340:Generated_Source\PSoC5/TIMER_SAMPLERATE.c **** 
 341:Generated_Source\PSoC5/TIMER_SAMPLERATE.c **** 
 342:Generated_Source\PSoC5/TIMER_SAMPLERATE.c **** /*******************************************************************************
 343:Generated_Source\PSoC5/TIMER_SAMPLERATE.c **** * Function Name: TIMER_SAMPLERATE_ReadControlRegister
 344:Generated_Source\PSoC5/TIMER_SAMPLERATE.c **** ********************************************************************************
 345:Generated_Source\PSoC5/TIMER_SAMPLERATE.c **** *
 346:Generated_Source\PSoC5/TIMER_SAMPLERATE.c **** * Summary:
 347:Generated_Source\PSoC5/TIMER_SAMPLERATE.c **** *  Reads the control register and returns it's value.
 348:Generated_Source\PSoC5/TIMER_SAMPLERATE.c **** *
 349:Generated_Source\PSoC5/TIMER_SAMPLERATE.c **** * Parameters:
 350:Generated_Source\PSoC5/TIMER_SAMPLERATE.c **** *  void
 351:Generated_Source\PSoC5/TIMER_SAMPLERATE.c **** *
 352:Generated_Source\PSoC5/TIMER_SAMPLERATE.c **** * Return:
 353:Generated_Source\PSoC5/TIMER_SAMPLERATE.c **** *  The contents of the control register
 354:Generated_Source\PSoC5/TIMER_SAMPLERATE.c **** *
 355:Generated_Source\PSoC5/TIMER_SAMPLERATE.c **** *******************************************************************************/
 356:Generated_Source\PSoC5/TIMER_SAMPLERATE.c **** uint8 TIMER_SAMPLERATE_ReadControlRegister(void) 
 357:Generated_Source\PSoC5/TIMER_SAMPLERATE.c **** {
 358:Generated_Source\PSoC5/TIMER_SAMPLERATE.c ****     #if (!TIMER_SAMPLERATE_UDB_CONTROL_REG_REMOVED) 
 359:Generated_Source\PSoC5/TIMER_SAMPLERATE.c ****         return ((uint8)TIMER_SAMPLERATE_CONTROL);
 360:Generated_Source\PSoC5/TIMER_SAMPLERATE.c ****     #else
 361:Generated_Source\PSoC5/TIMER_SAMPLERATE.c ****         return (0);
 362:Generated_Source\PSoC5/TIMER_SAMPLERATE.c ****     #endif /* (!TIMER_SAMPLERATE_UDB_CONTROL_REG_REMOVED) */
ARM GAS  C:\Users\mgronber\AppData\Local\Temp\ccbKks6H.s 			page 8


 363:Generated_Source\PSoC5/TIMER_SAMPLERATE.c **** }
 364:Generated_Source\PSoC5/TIMER_SAMPLERATE.c **** 
 365:Generated_Source\PSoC5/TIMER_SAMPLERATE.c **** 
 366:Generated_Source\PSoC5/TIMER_SAMPLERATE.c **** /*******************************************************************************
 367:Generated_Source\PSoC5/TIMER_SAMPLERATE.c **** * Function Name: TIMER_SAMPLERATE_WriteControlRegister
 368:Generated_Source\PSoC5/TIMER_SAMPLERATE.c **** ********************************************************************************
 369:Generated_Source\PSoC5/TIMER_SAMPLERATE.c **** *
 370:Generated_Source\PSoC5/TIMER_SAMPLERATE.c **** * Summary:
 371:Generated_Source\PSoC5/TIMER_SAMPLERATE.c **** *  Sets the bit-field of the control register.
 372:Generated_Source\PSoC5/TIMER_SAMPLERATE.c **** *
 373:Generated_Source\PSoC5/TIMER_SAMPLERATE.c **** * Parameters:
 374:Generated_Source\PSoC5/TIMER_SAMPLERATE.c **** *  control: The contents of the control register
 375:Generated_Source\PSoC5/TIMER_SAMPLERATE.c **** *
 376:Generated_Source\PSoC5/TIMER_SAMPLERATE.c **** * Return:
 377:Generated_Source\PSoC5/TIMER_SAMPLERATE.c **** *
 378:Generated_Source\PSoC5/TIMER_SAMPLERATE.c **** *******************************************************************************/
 379:Generated_Source\PSoC5/TIMER_SAMPLERATE.c **** void TIMER_SAMPLERATE_WriteControlRegister(uint8 control) 
 380:Generated_Source\PSoC5/TIMER_SAMPLERATE.c **** {
 381:Generated_Source\PSoC5/TIMER_SAMPLERATE.c ****     #if (!TIMER_SAMPLERATE_UDB_CONTROL_REG_REMOVED) 
 382:Generated_Source\PSoC5/TIMER_SAMPLERATE.c ****         TIMER_SAMPLERATE_CONTROL = control;
 383:Generated_Source\PSoC5/TIMER_SAMPLERATE.c ****     #else
 384:Generated_Source\PSoC5/TIMER_SAMPLERATE.c ****         control = 0u;
 385:Generated_Source\PSoC5/TIMER_SAMPLERATE.c ****     #endif /* (!TIMER_SAMPLERATE_UDB_CONTROL_REG_REMOVED) */
 386:Generated_Source\PSoC5/TIMER_SAMPLERATE.c **** }
 387:Generated_Source\PSoC5/TIMER_SAMPLERATE.c **** 
 388:Generated_Source\PSoC5/TIMER_SAMPLERATE.c **** #endif /* Remove API if control register is unused */
 389:Generated_Source\PSoC5/TIMER_SAMPLERATE.c **** 
 390:Generated_Source\PSoC5/TIMER_SAMPLERATE.c **** 
 391:Generated_Source\PSoC5/TIMER_SAMPLERATE.c **** /*******************************************************************************
 392:Generated_Source\PSoC5/TIMER_SAMPLERATE.c **** * Function Name: TIMER_SAMPLERATE_ReadPeriod
 393:Generated_Source\PSoC5/TIMER_SAMPLERATE.c **** ********************************************************************************
 394:Generated_Source\PSoC5/TIMER_SAMPLERATE.c **** *
 395:Generated_Source\PSoC5/TIMER_SAMPLERATE.c **** * Summary:
 396:Generated_Source\PSoC5/TIMER_SAMPLERATE.c **** *  This function returns the current value of the Period.
 397:Generated_Source\PSoC5/TIMER_SAMPLERATE.c **** *
 398:Generated_Source\PSoC5/TIMER_SAMPLERATE.c **** * Parameters:
 399:Generated_Source\PSoC5/TIMER_SAMPLERATE.c **** *  void
 400:Generated_Source\PSoC5/TIMER_SAMPLERATE.c **** *
 401:Generated_Source\PSoC5/TIMER_SAMPLERATE.c **** * Return:
 402:Generated_Source\PSoC5/TIMER_SAMPLERATE.c **** *  The present value of the counter.
 403:Generated_Source\PSoC5/TIMER_SAMPLERATE.c **** *
 404:Generated_Source\PSoC5/TIMER_SAMPLERATE.c **** *******************************************************************************/
 405:Generated_Source\PSoC5/TIMER_SAMPLERATE.c **** uint32 TIMER_SAMPLERATE_ReadPeriod(void) 
 406:Generated_Source\PSoC5/TIMER_SAMPLERATE.c **** {
 407:Generated_Source\PSoC5/TIMER_SAMPLERATE.c ****    #if(TIMER_SAMPLERATE_UsingFixedFunction)
 408:Generated_Source\PSoC5/TIMER_SAMPLERATE.c ****        return ((uint32)CY_GET_REG16(TIMER_SAMPLERATE_PERIOD_LSB_PTR));
 409:Generated_Source\PSoC5/TIMER_SAMPLERATE.c ****    #else
 410:Generated_Source\PSoC5/TIMER_SAMPLERATE.c ****        return (CY_GET_REG24(TIMER_SAMPLERATE_PERIOD_LSB_PTR));
 411:Generated_Source\PSoC5/TIMER_SAMPLERATE.c ****    #endif /* (TIMER_SAMPLERATE_UsingFixedFunction) */
 412:Generated_Source\PSoC5/TIMER_SAMPLERATE.c **** }
 413:Generated_Source\PSoC5/TIMER_SAMPLERATE.c **** 
 414:Generated_Source\PSoC5/TIMER_SAMPLERATE.c **** 
 415:Generated_Source\PSoC5/TIMER_SAMPLERATE.c **** /*******************************************************************************
 416:Generated_Source\PSoC5/TIMER_SAMPLERATE.c **** * Function Name: TIMER_SAMPLERATE_WritePeriod
 417:Generated_Source\PSoC5/TIMER_SAMPLERATE.c **** ********************************************************************************
 418:Generated_Source\PSoC5/TIMER_SAMPLERATE.c **** *
 419:Generated_Source\PSoC5/TIMER_SAMPLERATE.c **** * Summary:
ARM GAS  C:\Users\mgronber\AppData\Local\Temp\ccbKks6H.s 			page 9


 420:Generated_Source\PSoC5/TIMER_SAMPLERATE.c **** *  This function is used to change the period of the counter.  The new period
 421:Generated_Source\PSoC5/TIMER_SAMPLERATE.c **** *  will be loaded the next time terminal count is detected.
 422:Generated_Source\PSoC5/TIMER_SAMPLERATE.c **** *
 423:Generated_Source\PSoC5/TIMER_SAMPLERATE.c **** * Parameters:
 424:Generated_Source\PSoC5/TIMER_SAMPLERATE.c **** *  period: This value may be between 1 and (2^Resolution)-1.  A value of 0 will
 425:Generated_Source\PSoC5/TIMER_SAMPLERATE.c **** *          result in the counter remaining at zero.
 426:Generated_Source\PSoC5/TIMER_SAMPLERATE.c **** *
 427:Generated_Source\PSoC5/TIMER_SAMPLERATE.c **** * Return:
 428:Generated_Source\PSoC5/TIMER_SAMPLERATE.c **** *  void
 429:Generated_Source\PSoC5/TIMER_SAMPLERATE.c **** *
 430:Generated_Source\PSoC5/TIMER_SAMPLERATE.c **** *******************************************************************************/
 431:Generated_Source\PSoC5/TIMER_SAMPLERATE.c **** void TIMER_SAMPLERATE_WritePeriod(uint32 period) 
 432:Generated_Source\PSoC5/TIMER_SAMPLERATE.c **** {
 433:Generated_Source\PSoC5/TIMER_SAMPLERATE.c ****     #if(TIMER_SAMPLERATE_UsingFixedFunction)
 434:Generated_Source\PSoC5/TIMER_SAMPLERATE.c ****         uint16 period_temp = (uint16)period;
 435:Generated_Source\PSoC5/TIMER_SAMPLERATE.c ****         CY_SET_REG16(TIMER_SAMPLERATE_PERIOD_LSB_PTR, period_temp);
 436:Generated_Source\PSoC5/TIMER_SAMPLERATE.c ****     #else
 437:Generated_Source\PSoC5/TIMER_SAMPLERATE.c ****         CY_SET_REG24(TIMER_SAMPLERATE_PERIOD_LSB_PTR, period);
  38              		.loc 1 437 0
  39 0002 1048     		ldr	r0, .L11
  40 0004 41F64B51 		movw	r1, #7499
  41 0008 FFF7FEFF 		bl	CySetReg24
  42              	.LVL1:
  43              	.LBE21:
  44              	.LBE20:
  45              	.LBB22:
  46              	.LBB23:
 438:Generated_Source\PSoC5/TIMER_SAMPLERATE.c ****     #endif /*Write Period value with appropriate resolution suffix depending on UDB or fixed functi
 439:Generated_Source\PSoC5/TIMER_SAMPLERATE.c **** }
 440:Generated_Source\PSoC5/TIMER_SAMPLERATE.c **** 
 441:Generated_Source\PSoC5/TIMER_SAMPLERATE.c **** 
 442:Generated_Source\PSoC5/TIMER_SAMPLERATE.c **** /*******************************************************************************
 443:Generated_Source\PSoC5/TIMER_SAMPLERATE.c **** * Function Name: TIMER_SAMPLERATE_ReadCapture
 444:Generated_Source\PSoC5/TIMER_SAMPLERATE.c **** ********************************************************************************
 445:Generated_Source\PSoC5/TIMER_SAMPLERATE.c **** *
 446:Generated_Source\PSoC5/TIMER_SAMPLERATE.c **** * Summary:
 447:Generated_Source\PSoC5/TIMER_SAMPLERATE.c **** *  This function returns the last value captured.
 448:Generated_Source\PSoC5/TIMER_SAMPLERATE.c **** *
 449:Generated_Source\PSoC5/TIMER_SAMPLERATE.c **** * Parameters:
 450:Generated_Source\PSoC5/TIMER_SAMPLERATE.c **** *  void
 451:Generated_Source\PSoC5/TIMER_SAMPLERATE.c **** *
 452:Generated_Source\PSoC5/TIMER_SAMPLERATE.c **** * Return:
 453:Generated_Source\PSoC5/TIMER_SAMPLERATE.c **** *  Present Capture value.
 454:Generated_Source\PSoC5/TIMER_SAMPLERATE.c **** *
 455:Generated_Source\PSoC5/TIMER_SAMPLERATE.c **** *******************************************************************************/
 456:Generated_Source\PSoC5/TIMER_SAMPLERATE.c **** uint32 TIMER_SAMPLERATE_ReadCapture(void) 
 457:Generated_Source\PSoC5/TIMER_SAMPLERATE.c **** {
 458:Generated_Source\PSoC5/TIMER_SAMPLERATE.c ****    #if(TIMER_SAMPLERATE_UsingFixedFunction)
 459:Generated_Source\PSoC5/TIMER_SAMPLERATE.c ****        return ((uint32)CY_GET_REG16(TIMER_SAMPLERATE_CAPTURE_LSB_PTR));
 460:Generated_Source\PSoC5/TIMER_SAMPLERATE.c ****    #else
 461:Generated_Source\PSoC5/TIMER_SAMPLERATE.c ****        return (CY_GET_REG24(TIMER_SAMPLERATE_CAPTURE_LSB_PTR));
 462:Generated_Source\PSoC5/TIMER_SAMPLERATE.c ****    #endif /* (TIMER_SAMPLERATE_UsingFixedFunction) */
 463:Generated_Source\PSoC5/TIMER_SAMPLERATE.c **** }
 464:Generated_Source\PSoC5/TIMER_SAMPLERATE.c **** 
 465:Generated_Source\PSoC5/TIMER_SAMPLERATE.c **** 
 466:Generated_Source\PSoC5/TIMER_SAMPLERATE.c **** /*******************************************************************************
 467:Generated_Source\PSoC5/TIMER_SAMPLERATE.c **** * Function Name: TIMER_SAMPLERATE_WriteCounter
ARM GAS  C:\Users\mgronber\AppData\Local\Temp\ccbKks6H.s 			page 10


 468:Generated_Source\PSoC5/TIMER_SAMPLERATE.c **** ********************************************************************************
 469:Generated_Source\PSoC5/TIMER_SAMPLERATE.c **** *
 470:Generated_Source\PSoC5/TIMER_SAMPLERATE.c **** * Summary:
 471:Generated_Source\PSoC5/TIMER_SAMPLERATE.c **** *  This funtion is used to set the counter to a specific value
 472:Generated_Source\PSoC5/TIMER_SAMPLERATE.c **** *
 473:Generated_Source\PSoC5/TIMER_SAMPLERATE.c **** * Parameters:
 474:Generated_Source\PSoC5/TIMER_SAMPLERATE.c **** *  counter:  New counter value.
 475:Generated_Source\PSoC5/TIMER_SAMPLERATE.c **** *
 476:Generated_Source\PSoC5/TIMER_SAMPLERATE.c **** * Return:
 477:Generated_Source\PSoC5/TIMER_SAMPLERATE.c **** *  void
 478:Generated_Source\PSoC5/TIMER_SAMPLERATE.c **** *
 479:Generated_Source\PSoC5/TIMER_SAMPLERATE.c **** *******************************************************************************/
 480:Generated_Source\PSoC5/TIMER_SAMPLERATE.c **** void TIMER_SAMPLERATE_WriteCounter(uint32 counter) 
 481:Generated_Source\PSoC5/TIMER_SAMPLERATE.c **** {
 482:Generated_Source\PSoC5/TIMER_SAMPLERATE.c ****    #if(TIMER_SAMPLERATE_UsingFixedFunction)
 483:Generated_Source\PSoC5/TIMER_SAMPLERATE.c ****         /* This functionality is removed until a FixedFunction HW update to
 484:Generated_Source\PSoC5/TIMER_SAMPLERATE.c ****          * allow this register to be written
 485:Generated_Source\PSoC5/TIMER_SAMPLERATE.c ****          */
 486:Generated_Source\PSoC5/TIMER_SAMPLERATE.c ****         CY_SET_REG16(TIMER_SAMPLERATE_COUNTER_LSB_PTR, (uint16)counter);
 487:Generated_Source\PSoC5/TIMER_SAMPLERATE.c ****         
 488:Generated_Source\PSoC5/TIMER_SAMPLERATE.c ****     #else
 489:Generated_Source\PSoC5/TIMER_SAMPLERATE.c ****         CY_SET_REG24(TIMER_SAMPLERATE_COUNTER_LSB_PTR, counter);
  47              		.loc 1 489 0
  48 000c 41F64B51 		movw	r1, #7499
  49 0010 0D48     		ldr	r0, .L11+4
  50 0012 FFF7FEFF 		bl	CySetReg24
  51              	.LVL2:
  52              	.LBE23:
  53              	.LBE22:
 142:Generated_Source\PSoC5/TIMER_SAMPLERATE.c **** 
  54              		.loc 1 142 0
  55 0016 FFF7FEFF 		bl	CyEnterCriticalSection
  56              	.LVL3:
 145:Generated_Source\PSoC5/TIMER_SAMPLERATE.c **** 
  57              		.loc 1 145 0
  58 001a 0C4A     		ldr	r2, .L11+8
  59 001c 1378     		ldrb	r3, [r2]	@ zero_extendqisi2
  60 001e 43F01003 		orr	r3, r3, #16
  61 0022 1370     		strb	r3, [r2]
 148:Generated_Source\PSoC5/TIMER_SAMPLERATE.c **** 
  62              		.loc 1 148 0
  63 0024 FFF7FEFF 		bl	CyExitCriticalSection
  64              	.LVL4:
  65              	.LBB24:
  66              	.LBB25:
  67              	.LBB26:
  68              	.LBB27:
 335:Generated_Source\PSoC5/TIMER_SAMPLERATE.c **** }
  69              		.loc 1 335 0
  70 0028 094A     		ldr	r2, .L11+12
  71 002a 1378     		ldrb	r3, [r2]	@ zero_extendqisi2
  72              	.LBE27:
  73              	.LBE26:
 490:Generated_Source\PSoC5/TIMER_SAMPLERATE.c ****     #endif /* Set Write Counter only for the UDB implementation (Write Counter not available in fix
 491:Generated_Source\PSoC5/TIMER_SAMPLERATE.c **** }
 492:Generated_Source\PSoC5/TIMER_SAMPLERATE.c **** 
 493:Generated_Source\PSoC5/TIMER_SAMPLERATE.c **** 
ARM GAS  C:\Users\mgronber\AppData\Local\Temp\ccbKks6H.s 			page 11


 494:Generated_Source\PSoC5/TIMER_SAMPLERATE.c **** /*******************************************************************************
 495:Generated_Source\PSoC5/TIMER_SAMPLERATE.c **** * Function Name: TIMER_SAMPLERATE_ReadCounter
 496:Generated_Source\PSoC5/TIMER_SAMPLERATE.c **** ********************************************************************************
 497:Generated_Source\PSoC5/TIMER_SAMPLERATE.c **** *
 498:Generated_Source\PSoC5/TIMER_SAMPLERATE.c **** * Summary:
 499:Generated_Source\PSoC5/TIMER_SAMPLERATE.c **** *  This function returns the current counter value.
 500:Generated_Source\PSoC5/TIMER_SAMPLERATE.c **** *
 501:Generated_Source\PSoC5/TIMER_SAMPLERATE.c **** * Parameters:
 502:Generated_Source\PSoC5/TIMER_SAMPLERATE.c **** *  void
 503:Generated_Source\PSoC5/TIMER_SAMPLERATE.c **** *
 504:Generated_Source\PSoC5/TIMER_SAMPLERATE.c **** * Return:
 505:Generated_Source\PSoC5/TIMER_SAMPLERATE.c **** *  Present compare value.
 506:Generated_Source\PSoC5/TIMER_SAMPLERATE.c **** *
 507:Generated_Source\PSoC5/TIMER_SAMPLERATE.c **** *******************************************************************************/
 508:Generated_Source\PSoC5/TIMER_SAMPLERATE.c **** uint32 TIMER_SAMPLERATE_ReadCounter(void) 
 509:Generated_Source\PSoC5/TIMER_SAMPLERATE.c **** {
 510:Generated_Source\PSoC5/TIMER_SAMPLERATE.c ****     /* Force capture by reading Accumulator */
 511:Generated_Source\PSoC5/TIMER_SAMPLERATE.c ****     /* Must first do a software capture to be able to read the counter */
 512:Generated_Source\PSoC5/TIMER_SAMPLERATE.c ****     /* It is up to the user code to make sure there isn't already captured data in the FIFO */
 513:Generated_Source\PSoC5/TIMER_SAMPLERATE.c ****     #if(TIMER_SAMPLERATE_UsingFixedFunction)
 514:Generated_Source\PSoC5/TIMER_SAMPLERATE.c ****         (void)CY_GET_REG16(TIMER_SAMPLERATE_COUNTER_LSB_PTR);
 515:Generated_Source\PSoC5/TIMER_SAMPLERATE.c ****     #else
 516:Generated_Source\PSoC5/TIMER_SAMPLERATE.c ****         (void)CY_GET_REG8(TIMER_SAMPLERATE_COUNTER_LSB_PTR_8BIT);
 517:Generated_Source\PSoC5/TIMER_SAMPLERATE.c ****     #endif/* (TIMER_SAMPLERATE_UsingFixedFunction) */
 518:Generated_Source\PSoC5/TIMER_SAMPLERATE.c **** 
 519:Generated_Source\PSoC5/TIMER_SAMPLERATE.c ****     /* Read the data from the FIFO (or capture register for Fixed Function)*/
 520:Generated_Source\PSoC5/TIMER_SAMPLERATE.c ****     #if(TIMER_SAMPLERATE_UsingFixedFunction)
 521:Generated_Source\PSoC5/TIMER_SAMPLERATE.c ****         return ((uint32)CY_GET_REG16(TIMER_SAMPLERATE_CAPTURE_LSB_PTR));
 522:Generated_Source\PSoC5/TIMER_SAMPLERATE.c ****     #else
 523:Generated_Source\PSoC5/TIMER_SAMPLERATE.c ****         return (CY_GET_REG24(TIMER_SAMPLERATE_CAPTURE_LSB_PTR));
 524:Generated_Source\PSoC5/TIMER_SAMPLERATE.c ****     #endif /* (TIMER_SAMPLERATE_UsingFixedFunction) */
 525:Generated_Source\PSoC5/TIMER_SAMPLERATE.c **** }
 526:Generated_Source\PSoC5/TIMER_SAMPLERATE.c **** 
 527:Generated_Source\PSoC5/TIMER_SAMPLERATE.c **** 
 528:Generated_Source\PSoC5/TIMER_SAMPLERATE.c **** #if(!TIMER_SAMPLERATE_UsingFixedFunction) /* UDB Specific Functions */
 529:Generated_Source\PSoC5/TIMER_SAMPLERATE.c **** 
 530:Generated_Source\PSoC5/TIMER_SAMPLERATE.c ****     
 531:Generated_Source\PSoC5/TIMER_SAMPLERATE.c **** /*******************************************************************************
 532:Generated_Source\PSoC5/TIMER_SAMPLERATE.c ****  * The functions below this point are only available using the UDB
 533:Generated_Source\PSoC5/TIMER_SAMPLERATE.c ****  * implementation.  If a feature is selected, then the API is enabled.
 534:Generated_Source\PSoC5/TIMER_SAMPLERATE.c ****  ******************************************************************************/
 535:Generated_Source\PSoC5/TIMER_SAMPLERATE.c **** 
 536:Generated_Source\PSoC5/TIMER_SAMPLERATE.c **** 
 537:Generated_Source\PSoC5/TIMER_SAMPLERATE.c **** #if (TIMER_SAMPLERATE_SoftwareCaptureMode)
 538:Generated_Source\PSoC5/TIMER_SAMPLERATE.c **** 
 539:Generated_Source\PSoC5/TIMER_SAMPLERATE.c **** 
 540:Generated_Source\PSoC5/TIMER_SAMPLERATE.c **** /*******************************************************************************
 541:Generated_Source\PSoC5/TIMER_SAMPLERATE.c **** * Function Name: TIMER_SAMPLERATE_SetCaptureMode
 542:Generated_Source\PSoC5/TIMER_SAMPLERATE.c **** ********************************************************************************
 543:Generated_Source\PSoC5/TIMER_SAMPLERATE.c **** *
 544:Generated_Source\PSoC5/TIMER_SAMPLERATE.c **** * Summary:
 545:Generated_Source\PSoC5/TIMER_SAMPLERATE.c **** *  This function sets the capture mode to either rising or falling edge.
 546:Generated_Source\PSoC5/TIMER_SAMPLERATE.c **** *
 547:Generated_Source\PSoC5/TIMER_SAMPLERATE.c **** * Parameters:
 548:Generated_Source\PSoC5/TIMER_SAMPLERATE.c **** *  captureMode: This parameter sets the capture mode of the UDB capture feature
 549:Generated_Source\PSoC5/TIMER_SAMPLERATE.c **** *  The parameter values are defined using the
 550:Generated_Source\PSoC5/TIMER_SAMPLERATE.c **** *  #define TIMER_SAMPLERATE__B_TIMER__CM_NONE 0
ARM GAS  C:\Users\mgronber\AppData\Local\Temp\ccbKks6H.s 			page 12


 551:Generated_Source\PSoC5/TIMER_SAMPLERATE.c **** #define TIMER_SAMPLERATE__B_TIMER__CM_RISINGEDGE 1
 552:Generated_Source\PSoC5/TIMER_SAMPLERATE.c **** #define TIMER_SAMPLERATE__B_TIMER__CM_FALLINGEDGE 2
 553:Generated_Source\PSoC5/TIMER_SAMPLERATE.c **** #define TIMER_SAMPLERATE__B_TIMER__CM_EITHEREDGE 3
 554:Generated_Source\PSoC5/TIMER_SAMPLERATE.c **** #define TIMER_SAMPLERATE__B_TIMER__CM_SOFTWARE 4
 555:Generated_Source\PSoC5/TIMER_SAMPLERATE.c ****  identifiers
 556:Generated_Source\PSoC5/TIMER_SAMPLERATE.c **** *  The following are the possible values of the parameter
 557:Generated_Source\PSoC5/TIMER_SAMPLERATE.c **** *  TIMER_SAMPLERATE__B_TIMER__CM_NONE        - Set Capture mode to None
 558:Generated_Source\PSoC5/TIMER_SAMPLERATE.c **** *  TIMER_SAMPLERATE__B_TIMER__CM_RISINGEDGE  - Rising edge of Capture input
 559:Generated_Source\PSoC5/TIMER_SAMPLERATE.c **** *  TIMER_SAMPLERATE__B_TIMER__CM_FALLINGEDGE - Falling edge of Capture input
 560:Generated_Source\PSoC5/TIMER_SAMPLERATE.c **** *  TIMER_SAMPLERATE__B_TIMER__CM_EITHEREDGE  - Either edge of Capture input
 561:Generated_Source\PSoC5/TIMER_SAMPLERATE.c **** *
 562:Generated_Source\PSoC5/TIMER_SAMPLERATE.c **** * Return:
 563:Generated_Source\PSoC5/TIMER_SAMPLERATE.c **** *  void
 564:Generated_Source\PSoC5/TIMER_SAMPLERATE.c **** *
 565:Generated_Source\PSoC5/TIMER_SAMPLERATE.c **** *******************************************************************************/
 566:Generated_Source\PSoC5/TIMER_SAMPLERATE.c **** void TIMER_SAMPLERATE_SetCaptureMode(uint8 captureMode) 
 567:Generated_Source\PSoC5/TIMER_SAMPLERATE.c **** {
 568:Generated_Source\PSoC5/TIMER_SAMPLERATE.c ****     /* This must only set to two bits of the control register associated */
 569:Generated_Source\PSoC5/TIMER_SAMPLERATE.c ****     captureMode = ((uint8)((uint8)captureMode << TIMER_SAMPLERATE_CTRL_CAP_MODE_SHIFT));
 570:Generated_Source\PSoC5/TIMER_SAMPLERATE.c ****     captureMode &= (TIMER_SAMPLERATE_CTRL_CAP_MODE_MASK);
 571:Generated_Source\PSoC5/TIMER_SAMPLERATE.c **** 
 572:Generated_Source\PSoC5/TIMER_SAMPLERATE.c ****     #if (!TIMER_SAMPLERATE_UDB_CONTROL_REG_REMOVED)
 573:Generated_Source\PSoC5/TIMER_SAMPLERATE.c ****         /* Clear the Current Setting */
 574:Generated_Source\PSoC5/TIMER_SAMPLERATE.c ****         TIMER_SAMPLERATE_CONTROL &= ((uint8)(~TIMER_SAMPLERATE_CTRL_CAP_MODE_MASK));
 575:Generated_Source\PSoC5/TIMER_SAMPLERATE.c **** 
 576:Generated_Source\PSoC5/TIMER_SAMPLERATE.c ****         /* Write The New Setting */
 577:Generated_Source\PSoC5/TIMER_SAMPLERATE.c ****         TIMER_SAMPLERATE_CONTROL |= captureMode;
 578:Generated_Source\PSoC5/TIMER_SAMPLERATE.c ****     #endif /* (!TIMER_SAMPLERATE_UDB_CONTROL_REG_REMOVED) */
 579:Generated_Source\PSoC5/TIMER_SAMPLERATE.c **** }
 580:Generated_Source\PSoC5/TIMER_SAMPLERATE.c **** #endif /* Remove API if Capture Mode is not Software Controlled */
 581:Generated_Source\PSoC5/TIMER_SAMPLERATE.c **** 
 582:Generated_Source\PSoC5/TIMER_SAMPLERATE.c **** 
 583:Generated_Source\PSoC5/TIMER_SAMPLERATE.c **** #if (TIMER_SAMPLERATE_SoftwareTriggerMode)
 584:Generated_Source\PSoC5/TIMER_SAMPLERATE.c **** 
 585:Generated_Source\PSoC5/TIMER_SAMPLERATE.c **** 
 586:Generated_Source\PSoC5/TIMER_SAMPLERATE.c **** /*******************************************************************************
 587:Generated_Source\PSoC5/TIMER_SAMPLERATE.c **** * Function Name: TIMER_SAMPLERATE_SetTriggerMode
 588:Generated_Source\PSoC5/TIMER_SAMPLERATE.c **** ********************************************************************************
 589:Generated_Source\PSoC5/TIMER_SAMPLERATE.c **** *
 590:Generated_Source\PSoC5/TIMER_SAMPLERATE.c **** * Summary:
 591:Generated_Source\PSoC5/TIMER_SAMPLERATE.c **** *  This function sets the trigger input mode
 592:Generated_Source\PSoC5/TIMER_SAMPLERATE.c **** *
 593:Generated_Source\PSoC5/TIMER_SAMPLERATE.c **** * Parameters:
 594:Generated_Source\PSoC5/TIMER_SAMPLERATE.c **** *  triggerMode: Pass one of the pre-defined Trigger Modes (except Software)
 595:Generated_Source\PSoC5/TIMER_SAMPLERATE.c ****     #define TIMER_SAMPLERATE__B_TIMER__TM_NONE 0x00u
 596:Generated_Source\PSoC5/TIMER_SAMPLERATE.c ****     #define TIMER_SAMPLERATE__B_TIMER__TM_RISINGEDGE 0x04u
 597:Generated_Source\PSoC5/TIMER_SAMPLERATE.c ****     #define TIMER_SAMPLERATE__B_TIMER__TM_FALLINGEDGE 0x08u
 598:Generated_Source\PSoC5/TIMER_SAMPLERATE.c ****     #define TIMER_SAMPLERATE__B_TIMER__TM_EITHEREDGE 0x0Cu
 599:Generated_Source\PSoC5/TIMER_SAMPLERATE.c ****     #define TIMER_SAMPLERATE__B_TIMER__TM_SOFTWARE 0x10u
 600:Generated_Source\PSoC5/TIMER_SAMPLERATE.c **** *
 601:Generated_Source\PSoC5/TIMER_SAMPLERATE.c **** * Return:
 602:Generated_Source\PSoC5/TIMER_SAMPLERATE.c **** *  void
 603:Generated_Source\PSoC5/TIMER_SAMPLERATE.c **** *
 604:Generated_Source\PSoC5/TIMER_SAMPLERATE.c **** *******************************************************************************/
 605:Generated_Source\PSoC5/TIMER_SAMPLERATE.c **** void TIMER_SAMPLERATE_SetTriggerMode(uint8 triggerMode) 
 606:Generated_Source\PSoC5/TIMER_SAMPLERATE.c **** {
 607:Generated_Source\PSoC5/TIMER_SAMPLERATE.c ****     /* This must only set to two bits of the control register associated */
ARM GAS  C:\Users\mgronber\AppData\Local\Temp\ccbKks6H.s 			page 13


 608:Generated_Source\PSoC5/TIMER_SAMPLERATE.c ****     triggerMode &= TIMER_SAMPLERATE_CTRL_TRIG_MODE_MASK;
 609:Generated_Source\PSoC5/TIMER_SAMPLERATE.c **** 
 610:Generated_Source\PSoC5/TIMER_SAMPLERATE.c ****     #if (!TIMER_SAMPLERATE_UDB_CONTROL_REG_REMOVED)   /* Remove assignment if control register is r
 611:Generated_Source\PSoC5/TIMER_SAMPLERATE.c ****     
 612:Generated_Source\PSoC5/TIMER_SAMPLERATE.c ****         /* Clear the Current Setting */
 613:Generated_Source\PSoC5/TIMER_SAMPLERATE.c ****         TIMER_SAMPLERATE_CONTROL &= ((uint8)(~TIMER_SAMPLERATE_CTRL_TRIG_MODE_MASK));
 614:Generated_Source\PSoC5/TIMER_SAMPLERATE.c **** 
 615:Generated_Source\PSoC5/TIMER_SAMPLERATE.c ****         /* Write The New Setting */
 616:Generated_Source\PSoC5/TIMER_SAMPLERATE.c ****         TIMER_SAMPLERATE_CONTROL |= (triggerMode | TIMER_SAMPLERATE__B_TIMER__TM_SOFTWARE);
 617:Generated_Source\PSoC5/TIMER_SAMPLERATE.c ****     #endif /* Remove code section if control register is not used */
 618:Generated_Source\PSoC5/TIMER_SAMPLERATE.c **** }
 619:Generated_Source\PSoC5/TIMER_SAMPLERATE.c **** #endif /* Remove API if Trigger Mode is not Software Controlled */
 620:Generated_Source\PSoC5/TIMER_SAMPLERATE.c **** 
 621:Generated_Source\PSoC5/TIMER_SAMPLERATE.c **** #if (TIMER_SAMPLERATE_EnableTriggerMode)
 622:Generated_Source\PSoC5/TIMER_SAMPLERATE.c **** 
 623:Generated_Source\PSoC5/TIMER_SAMPLERATE.c **** 
 624:Generated_Source\PSoC5/TIMER_SAMPLERATE.c **** /*******************************************************************************
 625:Generated_Source\PSoC5/TIMER_SAMPLERATE.c **** * Function Name: TIMER_SAMPLERATE_EnableTrigger
 626:Generated_Source\PSoC5/TIMER_SAMPLERATE.c **** ********************************************************************************
 627:Generated_Source\PSoC5/TIMER_SAMPLERATE.c **** *
 628:Generated_Source\PSoC5/TIMER_SAMPLERATE.c **** * Summary:
 629:Generated_Source\PSoC5/TIMER_SAMPLERATE.c **** *  Sets the control bit enabling Hardware Trigger mode
 630:Generated_Source\PSoC5/TIMER_SAMPLERATE.c **** *
 631:Generated_Source\PSoC5/TIMER_SAMPLERATE.c **** * Parameters:
 632:Generated_Source\PSoC5/TIMER_SAMPLERATE.c **** *  void
 633:Generated_Source\PSoC5/TIMER_SAMPLERATE.c **** *
 634:Generated_Source\PSoC5/TIMER_SAMPLERATE.c **** * Return:
 635:Generated_Source\PSoC5/TIMER_SAMPLERATE.c **** *  void
 636:Generated_Source\PSoC5/TIMER_SAMPLERATE.c **** *
 637:Generated_Source\PSoC5/TIMER_SAMPLERATE.c **** *******************************************************************************/
 638:Generated_Source\PSoC5/TIMER_SAMPLERATE.c **** void TIMER_SAMPLERATE_EnableTrigger(void) 
 639:Generated_Source\PSoC5/TIMER_SAMPLERATE.c **** {
 640:Generated_Source\PSoC5/TIMER_SAMPLERATE.c ****     #if (!TIMER_SAMPLERATE_UDB_CONTROL_REG_REMOVED)   /* Remove assignment if control register is r
 641:Generated_Source\PSoC5/TIMER_SAMPLERATE.c ****         TIMER_SAMPLERATE_CONTROL |= TIMER_SAMPLERATE_CTRL_TRIG_EN;
 642:Generated_Source\PSoC5/TIMER_SAMPLERATE.c ****     #endif /* Remove code section if control register is not used */
 643:Generated_Source\PSoC5/TIMER_SAMPLERATE.c **** }
 644:Generated_Source\PSoC5/TIMER_SAMPLERATE.c **** 
 645:Generated_Source\PSoC5/TIMER_SAMPLERATE.c **** 
 646:Generated_Source\PSoC5/TIMER_SAMPLERATE.c **** /*******************************************************************************
 647:Generated_Source\PSoC5/TIMER_SAMPLERATE.c **** * Function Name: TIMER_SAMPLERATE_DisableTrigger
 648:Generated_Source\PSoC5/TIMER_SAMPLERATE.c **** ********************************************************************************
 649:Generated_Source\PSoC5/TIMER_SAMPLERATE.c **** *
 650:Generated_Source\PSoC5/TIMER_SAMPLERATE.c **** * Summary:
 651:Generated_Source\PSoC5/TIMER_SAMPLERATE.c **** *  Clears the control bit enabling Hardware Trigger mode
 652:Generated_Source\PSoC5/TIMER_SAMPLERATE.c **** *
 653:Generated_Source\PSoC5/TIMER_SAMPLERATE.c **** * Parameters:
 654:Generated_Source\PSoC5/TIMER_SAMPLERATE.c **** *  void
 655:Generated_Source\PSoC5/TIMER_SAMPLERATE.c **** *
 656:Generated_Source\PSoC5/TIMER_SAMPLERATE.c **** * Return:
 657:Generated_Source\PSoC5/TIMER_SAMPLERATE.c **** *  void
 658:Generated_Source\PSoC5/TIMER_SAMPLERATE.c **** *
 659:Generated_Source\PSoC5/TIMER_SAMPLERATE.c **** *******************************************************************************/
 660:Generated_Source\PSoC5/TIMER_SAMPLERATE.c **** void TIMER_SAMPLERATE_DisableTrigger(void) 
 661:Generated_Source\PSoC5/TIMER_SAMPLERATE.c **** {
 662:Generated_Source\PSoC5/TIMER_SAMPLERATE.c ****     #if (!TIMER_SAMPLERATE_UDB_CONTROL_REG_REMOVED )   /* Remove assignment if control register is 
 663:Generated_Source\PSoC5/TIMER_SAMPLERATE.c ****         TIMER_SAMPLERATE_CONTROL &= ((uint8)(~TIMER_SAMPLERATE_CTRL_TRIG_EN));
 664:Generated_Source\PSoC5/TIMER_SAMPLERATE.c ****     #endif /* Remove code section if control register is not used */
ARM GAS  C:\Users\mgronber\AppData\Local\Temp\ccbKks6H.s 			page 14


 665:Generated_Source\PSoC5/TIMER_SAMPLERATE.c **** }
 666:Generated_Source\PSoC5/TIMER_SAMPLERATE.c **** #endif /* Remove API is Trigger Mode is set to None */
 667:Generated_Source\PSoC5/TIMER_SAMPLERATE.c **** 
 668:Generated_Source\PSoC5/TIMER_SAMPLERATE.c **** #if(TIMER_SAMPLERATE_InterruptOnCaptureCount)
 669:Generated_Source\PSoC5/TIMER_SAMPLERATE.c **** 
 670:Generated_Source\PSoC5/TIMER_SAMPLERATE.c **** 
 671:Generated_Source\PSoC5/TIMER_SAMPLERATE.c **** /*******************************************************************************
 672:Generated_Source\PSoC5/TIMER_SAMPLERATE.c **** * Function Name: TIMER_SAMPLERATE_SetInterruptCount
 673:Generated_Source\PSoC5/TIMER_SAMPLERATE.c **** ********************************************************************************
 674:Generated_Source\PSoC5/TIMER_SAMPLERATE.c **** *
 675:Generated_Source\PSoC5/TIMER_SAMPLERATE.c **** * Summary:
 676:Generated_Source\PSoC5/TIMER_SAMPLERATE.c **** *  This function sets the capture count before an interrupt is triggered.
 677:Generated_Source\PSoC5/TIMER_SAMPLERATE.c **** *
 678:Generated_Source\PSoC5/TIMER_SAMPLERATE.c **** * Parameters:
 679:Generated_Source\PSoC5/TIMER_SAMPLERATE.c **** *  interruptCount:  A value between 0 and 3 is valid.  If the value is 0, then
 680:Generated_Source\PSoC5/TIMER_SAMPLERATE.c **** *                   an interrupt will occur each time a capture occurs.
 681:Generated_Source\PSoC5/TIMER_SAMPLERATE.c **** *                   A value of 1 to 3 will cause the interrupt
 682:Generated_Source\PSoC5/TIMER_SAMPLERATE.c **** *                   to delay by the same number of captures.
 683:Generated_Source\PSoC5/TIMER_SAMPLERATE.c **** *
 684:Generated_Source\PSoC5/TIMER_SAMPLERATE.c **** * Return:
 685:Generated_Source\PSoC5/TIMER_SAMPLERATE.c **** *  void
 686:Generated_Source\PSoC5/TIMER_SAMPLERATE.c **** *
 687:Generated_Source\PSoC5/TIMER_SAMPLERATE.c **** *******************************************************************************/
 688:Generated_Source\PSoC5/TIMER_SAMPLERATE.c **** void TIMER_SAMPLERATE_SetInterruptCount(uint8 interruptCount) 
 689:Generated_Source\PSoC5/TIMER_SAMPLERATE.c **** {
 690:Generated_Source\PSoC5/TIMER_SAMPLERATE.c ****     /* This must only set to two bits of the control register associated */
 691:Generated_Source\PSoC5/TIMER_SAMPLERATE.c ****     interruptCount &= TIMER_SAMPLERATE_CTRL_INTCNT_MASK;
 692:Generated_Source\PSoC5/TIMER_SAMPLERATE.c **** 
 693:Generated_Source\PSoC5/TIMER_SAMPLERATE.c ****     #if (!TIMER_SAMPLERATE_UDB_CONTROL_REG_REMOVED)
 694:Generated_Source\PSoC5/TIMER_SAMPLERATE.c ****         /* Clear the Current Setting */
 695:Generated_Source\PSoC5/TIMER_SAMPLERATE.c ****         TIMER_SAMPLERATE_CONTROL &= ((uint8)(~TIMER_SAMPLERATE_CTRL_INTCNT_MASK));
 696:Generated_Source\PSoC5/TIMER_SAMPLERATE.c ****         /* Write The New Setting */
 697:Generated_Source\PSoC5/TIMER_SAMPLERATE.c ****         TIMER_SAMPLERATE_CONTROL |= interruptCount;
 698:Generated_Source\PSoC5/TIMER_SAMPLERATE.c ****     #endif /* (!TIMER_SAMPLERATE_UDB_CONTROL_REG_REMOVED) */
 699:Generated_Source\PSoC5/TIMER_SAMPLERATE.c **** }
 700:Generated_Source\PSoC5/TIMER_SAMPLERATE.c **** #endif /* TIMER_SAMPLERATE_InterruptOnCaptureCount */
 701:Generated_Source\PSoC5/TIMER_SAMPLERATE.c **** 
 702:Generated_Source\PSoC5/TIMER_SAMPLERATE.c **** 
 703:Generated_Source\PSoC5/TIMER_SAMPLERATE.c **** #if (TIMER_SAMPLERATE_UsingHWCaptureCounter)
 704:Generated_Source\PSoC5/TIMER_SAMPLERATE.c **** 
 705:Generated_Source\PSoC5/TIMER_SAMPLERATE.c **** 
 706:Generated_Source\PSoC5/TIMER_SAMPLERATE.c **** /*******************************************************************************
 707:Generated_Source\PSoC5/TIMER_SAMPLERATE.c **** * Function Name: TIMER_SAMPLERATE_SetCaptureCount
 708:Generated_Source\PSoC5/TIMER_SAMPLERATE.c **** ********************************************************************************
 709:Generated_Source\PSoC5/TIMER_SAMPLERATE.c **** *
 710:Generated_Source\PSoC5/TIMER_SAMPLERATE.c **** * Summary:
 711:Generated_Source\PSoC5/TIMER_SAMPLERATE.c **** *  This function sets the capture count
 712:Generated_Source\PSoC5/TIMER_SAMPLERATE.c **** *
 713:Generated_Source\PSoC5/TIMER_SAMPLERATE.c **** * Parameters:
 714:Generated_Source\PSoC5/TIMER_SAMPLERATE.c **** *  captureCount: A value between 2 and 127 inclusive is valid.  A value of 1
 715:Generated_Source\PSoC5/TIMER_SAMPLERATE.c **** *                to 127 will cause the interrupt to delay by the same number of
 716:Generated_Source\PSoC5/TIMER_SAMPLERATE.c **** *                captures.
 717:Generated_Source\PSoC5/TIMER_SAMPLERATE.c **** *
 718:Generated_Source\PSoC5/TIMER_SAMPLERATE.c **** * Return:
 719:Generated_Source\PSoC5/TIMER_SAMPLERATE.c **** *  void
 720:Generated_Source\PSoC5/TIMER_SAMPLERATE.c **** *
 721:Generated_Source\PSoC5/TIMER_SAMPLERATE.c **** *******************************************************************************/
ARM GAS  C:\Users\mgronber\AppData\Local\Temp\ccbKks6H.s 			page 15


 722:Generated_Source\PSoC5/TIMER_SAMPLERATE.c **** void TIMER_SAMPLERATE_SetCaptureCount(uint8 captureCount) 
 723:Generated_Source\PSoC5/TIMER_SAMPLERATE.c **** {
 724:Generated_Source\PSoC5/TIMER_SAMPLERATE.c ****     TIMER_SAMPLERATE_CAP_COUNT = captureCount;
 725:Generated_Source\PSoC5/TIMER_SAMPLERATE.c **** }
 726:Generated_Source\PSoC5/TIMER_SAMPLERATE.c **** 
 727:Generated_Source\PSoC5/TIMER_SAMPLERATE.c **** 
 728:Generated_Source\PSoC5/TIMER_SAMPLERATE.c **** /*******************************************************************************
 729:Generated_Source\PSoC5/TIMER_SAMPLERATE.c **** * Function Name: TIMER_SAMPLERATE_ReadCaptureCount
 730:Generated_Source\PSoC5/TIMER_SAMPLERATE.c **** ********************************************************************************
 731:Generated_Source\PSoC5/TIMER_SAMPLERATE.c **** *
 732:Generated_Source\PSoC5/TIMER_SAMPLERATE.c **** * Summary:
 733:Generated_Source\PSoC5/TIMER_SAMPLERATE.c **** *  This function reads the capture count setting
 734:Generated_Source\PSoC5/TIMER_SAMPLERATE.c **** *
 735:Generated_Source\PSoC5/TIMER_SAMPLERATE.c **** * Parameters:
 736:Generated_Source\PSoC5/TIMER_SAMPLERATE.c **** *  void
 737:Generated_Source\PSoC5/TIMER_SAMPLERATE.c **** *
 738:Generated_Source\PSoC5/TIMER_SAMPLERATE.c **** * Return:
 739:Generated_Source\PSoC5/TIMER_SAMPLERATE.c **** *  Returns the Capture Count Setting
 740:Generated_Source\PSoC5/TIMER_SAMPLERATE.c **** *
 741:Generated_Source\PSoC5/TIMER_SAMPLERATE.c **** *******************************************************************************/
 742:Generated_Source\PSoC5/TIMER_SAMPLERATE.c **** uint8 TIMER_SAMPLERATE_ReadCaptureCount(void) 
 743:Generated_Source\PSoC5/TIMER_SAMPLERATE.c **** {
 744:Generated_Source\PSoC5/TIMER_SAMPLERATE.c ****     return ((uint8)TIMER_SAMPLERATE_CAP_COUNT);
 745:Generated_Source\PSoC5/TIMER_SAMPLERATE.c **** }
 746:Generated_Source\PSoC5/TIMER_SAMPLERATE.c **** #endif /* TIMER_SAMPLERATE_UsingHWCaptureCounter */
 747:Generated_Source\PSoC5/TIMER_SAMPLERATE.c **** 
 748:Generated_Source\PSoC5/TIMER_SAMPLERATE.c **** 
 749:Generated_Source\PSoC5/TIMER_SAMPLERATE.c **** /*******************************************************************************
 750:Generated_Source\PSoC5/TIMER_SAMPLERATE.c **** * Function Name: TIMER_SAMPLERATE_ClearFIFO
 751:Generated_Source\PSoC5/TIMER_SAMPLERATE.c **** ********************************************************************************
 752:Generated_Source\PSoC5/TIMER_SAMPLERATE.c **** *
 753:Generated_Source\PSoC5/TIMER_SAMPLERATE.c **** * Summary:
 754:Generated_Source\PSoC5/TIMER_SAMPLERATE.c **** *  This function clears all capture data from the capture FIFO
 755:Generated_Source\PSoC5/TIMER_SAMPLERATE.c **** *
 756:Generated_Source\PSoC5/TIMER_SAMPLERATE.c **** * Parameters:
 757:Generated_Source\PSoC5/TIMER_SAMPLERATE.c **** *  void
 758:Generated_Source\PSoC5/TIMER_SAMPLERATE.c **** *
 759:Generated_Source\PSoC5/TIMER_SAMPLERATE.c **** * Return:
 760:Generated_Source\PSoC5/TIMER_SAMPLERATE.c **** *  void
 761:Generated_Source\PSoC5/TIMER_SAMPLERATE.c **** *
 762:Generated_Source\PSoC5/TIMER_SAMPLERATE.c **** *******************************************************************************/
 763:Generated_Source\PSoC5/TIMER_SAMPLERATE.c **** void TIMER_SAMPLERATE_ClearFIFO(void) 
 764:Generated_Source\PSoC5/TIMER_SAMPLERATE.c **** {
 765:Generated_Source\PSoC5/TIMER_SAMPLERATE.c ****     while(0u != (TIMER_SAMPLERATE_ReadStatusRegister() & TIMER_SAMPLERATE_STATUS_FIFONEMP))
  74              		.loc 1 765 0
  75 002c 1907     		lsls	r1, r3, #28
  76 002e 04D5     		bpl	.L2
  77              	.LBB29:
  78              	.LBB30:
 461:Generated_Source\PSoC5/TIMER_SAMPLERATE.c ****    #endif /* (TIMER_SAMPLERATE_UsingFixedFunction) */
  79              		.loc 1 461 0
  80 0030 0849     		ldr	r1, .L11+16
  81              	.L6:
  82 0032 0B68     		ldr	r3, [r1]
  83              	.LBE30:
  84              	.LBE29:
  85              	.LBB31:
ARM GAS  C:\Users\mgronber\AppData\Local\Temp\ccbKks6H.s 			page 16


  86              	.LBB28:
 335:Generated_Source\PSoC5/TIMER_SAMPLERATE.c **** }
  87              		.loc 1 335 0
  88 0034 1378     		ldrb	r3, [r2]	@ zero_extendqisi2
  89              	.LBE28:
  90              	.LBE31:
  91              		.loc 1 765 0
  92 0036 1B07     		lsls	r3, r3, #28
  93 0038 FBD4     		bmi	.L6
  94              	.L2:
  95              	.LVL5:
  96              	.LBE25:
  97              	.LBE24:
  98              	.LBB32:
  99              	.LBB33:
 281:Generated_Source\PSoC5/TIMER_SAMPLERATE.c **** }
 100              		.loc 1 281 0
 101 003a 074B     		ldr	r3, .L11+20
 102 003c 0122     		movs	r2, #1
 103 003e 1A70     		strb	r2, [r3]
 104 0040 08BD     		pop	{r3, pc}
 105              	.L12:
 106 0042 00BF     		.align	2
 107              	.L11:
 108 0044 24650040 		.word	1073767716
 109 0048 04650040 		.word	1073767684
 110 004c 95650040 		.word	1073767829
 111 0050 65650040 		.word	1073767781
 112 0054 44650040 		.word	1073767748
 113 0058 85650040 		.word	1073767813
 114              	.LBE33:
 115              	.LBE32:
 116              		.cfi_endproc
 117              	.LFE0:
 118              		.size	TIMER_SAMPLERATE_Init, .-TIMER_SAMPLERATE_Init
 119              		.section	.text.TIMER_SAMPLERATE_Enable,"ax",%progbits
 120              		.align	2
 121              		.global	TIMER_SAMPLERATE_Enable
 122              		.thumb
 123              		.thumb_func
 124              		.type	TIMER_SAMPLERATE_Enable, %function
 125              	TIMER_SAMPLERATE_Enable:
 126              	.LFB1:
 181:Generated_Source\PSoC5/TIMER_SAMPLERATE.c ****     /* Globally Enable the Fixed Function Block chosen */
 127              		.loc 1 181 0
 128              		.cfi_startproc
 129              		@ args = 0, pretend = 0, frame = 0
 130              		@ frame_needed = 0, uses_anonymous_args = 0
 131              		@ link register save eliminated.
 190:Generated_Source\PSoC5/TIMER_SAMPLERATE.c ****     #endif /* Remove assignment if control register is removed */
 132              		.loc 1 190 0
 133 0000 024A     		ldr	r2, .L14
 134 0002 1378     		ldrb	r3, [r2]	@ zero_extendqisi2
 135 0004 43F08003 		orr	r3, r3, #128
 136 0008 1370     		strb	r3, [r2]
 137 000a 7047     		bx	lr
 138              	.L15:
ARM GAS  C:\Users\mgronber\AppData\Local\Temp\ccbKks6H.s 			page 17


 139              		.align	2
 140              	.L14:
 141 000c 74650040 		.word	1073767796
 142              		.cfi_endproc
 143              	.LFE1:
 144              		.size	TIMER_SAMPLERATE_Enable, .-TIMER_SAMPLERATE_Enable
 145              		.section	.text.TIMER_SAMPLERATE_Start,"ax",%progbits
 146              		.align	2
 147              		.global	TIMER_SAMPLERATE_Start
 148              		.thumb
 149              		.thumb_func
 150              		.type	TIMER_SAMPLERATE_Start, %function
 151              	TIMER_SAMPLERATE_Start:
 152              	.LFB2:
 216:Generated_Source\PSoC5/TIMER_SAMPLERATE.c ****     if(TIMER_SAMPLERATE_initVar == 0u)
 153              		.loc 1 216 0
 154              		.cfi_startproc
 155              		@ args = 0, pretend = 0, frame = 0
 156              		@ frame_needed = 0, uses_anonymous_args = 0
 157 0000 10B5     		push	{r4, lr}
 158              		.cfi_def_cfa_offset 8
 159              		.cfi_offset 4, -8
 160              		.cfi_offset 14, -4
 217:Generated_Source\PSoC5/TIMER_SAMPLERATE.c ****     {
 161              		.loc 1 217 0
 162 0002 064C     		ldr	r4, .L19
 163 0004 2378     		ldrb	r3, [r4]	@ zero_extendqisi2
 164 0006 1BB9     		cbnz	r3, .L17
 219:Generated_Source\PSoC5/TIMER_SAMPLERATE.c **** 
 165              		.loc 1 219 0
 166 0008 FFF7FEFF 		bl	TIMER_SAMPLERATE_Init
 167              	.LVL6:
 221:Generated_Source\PSoC5/TIMER_SAMPLERATE.c ****     }
 168              		.loc 1 221 0
 169 000c 0123     		movs	r3, #1
 170 000e 2370     		strb	r3, [r4]
 171              	.L17:
 172              	.LBB34:
 173              	.LBB35:
 190:Generated_Source\PSoC5/TIMER_SAMPLERATE.c ****     #endif /* Remove assignment if control register is removed */
 174              		.loc 1 190 0
 175 0010 034A     		ldr	r2, .L19+4
 176 0012 1378     		ldrb	r3, [r2]	@ zero_extendqisi2
 177 0014 43F08003 		orr	r3, r3, #128
 178 0018 1370     		strb	r3, [r2]
 179 001a 10BD     		pop	{r4, pc}
 180              	.L20:
 181              		.align	2
 182              	.L19:
 183 001c 00000000 		.word	.LANCHOR0
 184 0020 74650040 		.word	1073767796
 185              	.LBE35:
 186              	.LBE34:
 187              		.cfi_endproc
 188              	.LFE2:
 189              		.size	TIMER_SAMPLERATE_Start, .-TIMER_SAMPLERATE_Start
 190              		.section	.text.TIMER_SAMPLERATE_Stop,"ax",%progbits
ARM GAS  C:\Users\mgronber\AppData\Local\Temp\ccbKks6H.s 			page 18


 191              		.align	2
 192              		.global	TIMER_SAMPLERATE_Stop
 193              		.thumb
 194              		.thumb_func
 195              		.type	TIMER_SAMPLERATE_Stop, %function
 196              	TIMER_SAMPLERATE_Stop:
 197              	.LFB3:
 248:Generated_Source\PSoC5/TIMER_SAMPLERATE.c ****     /* Disable Timer */
 198              		.loc 1 248 0
 199              		.cfi_startproc
 200              		@ args = 0, pretend = 0, frame = 0
 201              		@ frame_needed = 0, uses_anonymous_args = 0
 202              		@ link register save eliminated.
 251:Generated_Source\PSoC5/TIMER_SAMPLERATE.c ****     #endif /* Remove assignment if control register is removed */
 203              		.loc 1 251 0
 204 0000 024A     		ldr	r2, .L22
 205 0002 1378     		ldrb	r3, [r2]	@ zero_extendqisi2
 206 0004 03F07F03 		and	r3, r3, #127
 207 0008 1370     		strb	r3, [r2]
 208 000a 7047     		bx	lr
 209              	.L23:
 210              		.align	2
 211              	.L22:
 212 000c 74650040 		.word	1073767796
 213              		.cfi_endproc
 214              	.LFE3:
 215              		.size	TIMER_SAMPLERATE_Stop, .-TIMER_SAMPLERATE_Stop
 216              		.section	.text.TIMER_SAMPLERATE_SetInterruptMode,"ax",%progbits
 217              		.align	2
 218              		.global	TIMER_SAMPLERATE_SetInterruptMode
 219              		.thumb
 220              		.thumb_func
 221              		.type	TIMER_SAMPLERATE_SetInterruptMode, %function
 222              	TIMER_SAMPLERATE_SetInterruptMode:
 223              	.LFB4:
 280:Generated_Source\PSoC5/TIMER_SAMPLERATE.c ****     TIMER_SAMPLERATE_STATUS_MASK = interruptMode;
 224              		.loc 1 280 0
 225              		.cfi_startproc
 226              		@ args = 0, pretend = 0, frame = 0
 227              		@ frame_needed = 0, uses_anonymous_args = 0
 228              		@ link register save eliminated.
 229              	.LVL7:
 281:Generated_Source\PSoC5/TIMER_SAMPLERATE.c **** }
 230              		.loc 1 281 0
 231 0000 014B     		ldr	r3, .L25
 232 0002 1870     		strb	r0, [r3]
 233 0004 7047     		bx	lr
 234              	.L26:
 235 0006 00BF     		.align	2
 236              	.L25:
 237 0008 85650040 		.word	1073767813
 238              		.cfi_endproc
 239              	.LFE4:
 240              		.size	TIMER_SAMPLERATE_SetInterruptMode, .-TIMER_SAMPLERATE_SetInterruptMode
 241              		.section	.text.TIMER_SAMPLERATE_SoftwareCapture,"ax",%progbits
 242              		.align	2
 243              		.global	TIMER_SAMPLERATE_SoftwareCapture
ARM GAS  C:\Users\mgronber\AppData\Local\Temp\ccbKks6H.s 			page 19


 244              		.thumb
 245              		.thumb_func
 246              		.type	TIMER_SAMPLERATE_SoftwareCapture, %function
 247              	TIMER_SAMPLERATE_SoftwareCapture:
 248              	.LFB5:
 303:Generated_Source\PSoC5/TIMER_SAMPLERATE.c ****     /* Generate a software capture by reading the counter register */
 249              		.loc 1 303 0
 250              		.cfi_startproc
 251              		@ args = 0, pretend = 0, frame = 0
 252              		@ frame_needed = 0, uses_anonymous_args = 0
 253              		@ link register save eliminated.
 308:Generated_Source\PSoC5/TIMER_SAMPLERATE.c ****     #endif/* (TIMER_SAMPLERATE_UsingFixedFunction) */
 254              		.loc 1 308 0
 255 0000 014B     		ldr	r3, .L28
 256 0002 1B78     		ldrb	r3, [r3]	@ zero_extendqisi2
 257 0004 7047     		bx	lr
 258              	.L29:
 259 0006 00BF     		.align	2
 260              	.L28:
 261 0008 04650040 		.word	1073767684
 262              		.cfi_endproc
 263              	.LFE5:
 264              		.size	TIMER_SAMPLERATE_SoftwareCapture, .-TIMER_SAMPLERATE_SoftwareCapture
 265              		.section	.text.TIMER_SAMPLERATE_ReadStatusRegister,"ax",%progbits
 266              		.align	2
 267              		.global	TIMER_SAMPLERATE_ReadStatusRegister
 268              		.thumb
 269              		.thumb_func
 270              		.type	TIMER_SAMPLERATE_ReadStatusRegister, %function
 271              	TIMER_SAMPLERATE_ReadStatusRegister:
 272              	.LFB6:
 334:Generated_Source\PSoC5/TIMER_SAMPLERATE.c ****     return (TIMER_SAMPLERATE_STATUS);
 273              		.loc 1 334 0
 274              		.cfi_startproc
 275              		@ args = 0, pretend = 0, frame = 0
 276              		@ frame_needed = 0, uses_anonymous_args = 0
 277              		@ link register save eliminated.
 335:Generated_Source\PSoC5/TIMER_SAMPLERATE.c **** }
 278              		.loc 1 335 0
 279 0000 014B     		ldr	r3, .L31
 280 0002 1878     		ldrb	r0, [r3]	@ zero_extendqisi2
 336:Generated_Source\PSoC5/TIMER_SAMPLERATE.c **** 
 281              		.loc 1 336 0
 282 0004 7047     		bx	lr
 283              	.L32:
 284 0006 00BF     		.align	2
 285              	.L31:
 286 0008 65650040 		.word	1073767781
 287              		.cfi_endproc
 288              	.LFE6:
 289              		.size	TIMER_SAMPLERATE_ReadStatusRegister, .-TIMER_SAMPLERATE_ReadStatusRegister
 290              		.section	.text.TIMER_SAMPLERATE_ReadControlRegister,"ax",%progbits
 291              		.align	2
 292              		.global	TIMER_SAMPLERATE_ReadControlRegister
 293              		.thumb
 294              		.thumb_func
 295              		.type	TIMER_SAMPLERATE_ReadControlRegister, %function
ARM GAS  C:\Users\mgronber\AppData\Local\Temp\ccbKks6H.s 			page 20


 296              	TIMER_SAMPLERATE_ReadControlRegister:
 297              	.LFB7:
 357:Generated_Source\PSoC5/TIMER_SAMPLERATE.c ****     #if (!TIMER_SAMPLERATE_UDB_CONTROL_REG_REMOVED) 
 298              		.loc 1 357 0
 299              		.cfi_startproc
 300              		@ args = 0, pretend = 0, frame = 0
 301              		@ frame_needed = 0, uses_anonymous_args = 0
 302              		@ link register save eliminated.
 359:Generated_Source\PSoC5/TIMER_SAMPLERATE.c ****     #else
 303              		.loc 1 359 0
 304 0000 014B     		ldr	r3, .L34
 305 0002 1878     		ldrb	r0, [r3]	@ zero_extendqisi2
 363:Generated_Source\PSoC5/TIMER_SAMPLERATE.c **** 
 306              		.loc 1 363 0
 307 0004 7047     		bx	lr
 308              	.L35:
 309 0006 00BF     		.align	2
 310              	.L34:
 311 0008 74650040 		.word	1073767796
 312              		.cfi_endproc
 313              	.LFE7:
 314              		.size	TIMER_SAMPLERATE_ReadControlRegister, .-TIMER_SAMPLERATE_ReadControlRegister
 315              		.section	.text.TIMER_SAMPLERATE_WriteControlRegister,"ax",%progbits
 316              		.align	2
 317              		.global	TIMER_SAMPLERATE_WriteControlRegister
 318              		.thumb
 319              		.thumb_func
 320              		.type	TIMER_SAMPLERATE_WriteControlRegister, %function
 321              	TIMER_SAMPLERATE_WriteControlRegister:
 322              	.LFB8:
 380:Generated_Source\PSoC5/TIMER_SAMPLERATE.c ****     #if (!TIMER_SAMPLERATE_UDB_CONTROL_REG_REMOVED) 
 323              		.loc 1 380 0
 324              		.cfi_startproc
 325              		@ args = 0, pretend = 0, frame = 0
 326              		@ frame_needed = 0, uses_anonymous_args = 0
 327              		@ link register save eliminated.
 328              	.LVL8:
 382:Generated_Source\PSoC5/TIMER_SAMPLERATE.c ****     #else
 329              		.loc 1 382 0
 330 0000 014B     		ldr	r3, .L37
 331 0002 1870     		strb	r0, [r3]
 332 0004 7047     		bx	lr
 333              	.L38:
 334 0006 00BF     		.align	2
 335              	.L37:
 336 0008 74650040 		.word	1073767796
 337              		.cfi_endproc
 338              	.LFE8:
 339              		.size	TIMER_SAMPLERATE_WriteControlRegister, .-TIMER_SAMPLERATE_WriteControlRegister
 340              		.section	.text.TIMER_SAMPLERATE_ReadPeriod,"ax",%progbits
 341              		.align	2
 342              		.global	TIMER_SAMPLERATE_ReadPeriod
 343              		.thumb
 344              		.thumb_func
 345              		.type	TIMER_SAMPLERATE_ReadPeriod, %function
 346              	TIMER_SAMPLERATE_ReadPeriod:
 347              	.LFB9:
ARM GAS  C:\Users\mgronber\AppData\Local\Temp\ccbKks6H.s 			page 21


 406:Generated_Source\PSoC5/TIMER_SAMPLERATE.c ****    #if(TIMER_SAMPLERATE_UsingFixedFunction)
 348              		.loc 1 406 0
 349              		.cfi_startproc
 350              		@ args = 0, pretend = 0, frame = 0
 351              		@ frame_needed = 0, uses_anonymous_args = 0
 352              		@ link register save eliminated.
 410:Generated_Source\PSoC5/TIMER_SAMPLERATE.c ****    #endif /* (TIMER_SAMPLERATE_UsingFixedFunction) */
 353              		.loc 1 410 0
 354 0000 024B     		ldr	r3, .L40
 355 0002 1868     		ldr	r0, [r3]
 412:Generated_Source\PSoC5/TIMER_SAMPLERATE.c **** 
 356              		.loc 1 412 0
 357 0004 20F07F40 		bic	r0, r0, #-16777216
 358 0008 7047     		bx	lr
 359              	.L41:
 360 000a 00BF     		.align	2
 361              	.L40:
 362 000c 24650040 		.word	1073767716
 363              		.cfi_endproc
 364              	.LFE9:
 365              		.size	TIMER_SAMPLERATE_ReadPeriod, .-TIMER_SAMPLERATE_ReadPeriod
 366              		.section	.text.TIMER_SAMPLERATE_WritePeriod,"ax",%progbits
 367              		.align	2
 368              		.global	TIMER_SAMPLERATE_WritePeriod
 369              		.thumb
 370              		.thumb_func
 371              		.type	TIMER_SAMPLERATE_WritePeriod, %function
 372              	TIMER_SAMPLERATE_WritePeriod:
 373              	.LFB10:
 432:Generated_Source\PSoC5/TIMER_SAMPLERATE.c ****     #if(TIMER_SAMPLERATE_UsingFixedFunction)
 374              		.loc 1 432 0
 375              		.cfi_startproc
 376              		@ args = 0, pretend = 0, frame = 0
 377              		@ frame_needed = 0, uses_anonymous_args = 0
 378              		@ link register save eliminated.
 379              	.LVL9:
 432:Generated_Source\PSoC5/TIMER_SAMPLERATE.c ****     #if(TIMER_SAMPLERATE_UsingFixedFunction)
 380              		.loc 1 432 0
 381 0000 0146     		mov	r1, r0
 437:Generated_Source\PSoC5/TIMER_SAMPLERATE.c ****     #endif /*Write Period value with appropriate resolution suffix depending on UDB or fixed functi
 382              		.loc 1 437 0
 383 0002 0148     		ldr	r0, .L43
 384              	.LVL10:
 385 0004 FFF7FEBF 		b	CySetReg24
 386              	.LVL11:
 387              	.L44:
 388              		.align	2
 389              	.L43:
 390 0008 24650040 		.word	1073767716
 391              		.cfi_endproc
 392              	.LFE10:
 393              		.size	TIMER_SAMPLERATE_WritePeriod, .-TIMER_SAMPLERATE_WritePeriod
 394              		.section	.text.TIMER_SAMPLERATE_ReadCapture,"ax",%progbits
 395              		.align	2
 396              		.global	TIMER_SAMPLERATE_ReadCapture
 397              		.thumb
 398              		.thumb_func
ARM GAS  C:\Users\mgronber\AppData\Local\Temp\ccbKks6H.s 			page 22


 399              		.type	TIMER_SAMPLERATE_ReadCapture, %function
 400              	TIMER_SAMPLERATE_ReadCapture:
 401              	.LFB11:
 457:Generated_Source\PSoC5/TIMER_SAMPLERATE.c ****    #if(TIMER_SAMPLERATE_UsingFixedFunction)
 402              		.loc 1 457 0
 403              		.cfi_startproc
 404              		@ args = 0, pretend = 0, frame = 0
 405              		@ frame_needed = 0, uses_anonymous_args = 0
 406              		@ link register save eliminated.
 461:Generated_Source\PSoC5/TIMER_SAMPLERATE.c ****    #endif /* (TIMER_SAMPLERATE_UsingFixedFunction) */
 407              		.loc 1 461 0
 408 0000 024B     		ldr	r3, .L46
 409 0002 1868     		ldr	r0, [r3]
 463:Generated_Source\PSoC5/TIMER_SAMPLERATE.c **** 
 410              		.loc 1 463 0
 411 0004 20F07F40 		bic	r0, r0, #-16777216
 412 0008 7047     		bx	lr
 413              	.L47:
 414 000a 00BF     		.align	2
 415              	.L46:
 416 000c 44650040 		.word	1073767748
 417              		.cfi_endproc
 418              	.LFE11:
 419              		.size	TIMER_SAMPLERATE_ReadCapture, .-TIMER_SAMPLERATE_ReadCapture
 420              		.section	.text.TIMER_SAMPLERATE_WriteCounter,"ax",%progbits
 421              		.align	2
 422              		.global	TIMER_SAMPLERATE_WriteCounter
 423              		.thumb
 424              		.thumb_func
 425              		.type	TIMER_SAMPLERATE_WriteCounter, %function
 426              	TIMER_SAMPLERATE_WriteCounter:
 427              	.LFB12:
 481:Generated_Source\PSoC5/TIMER_SAMPLERATE.c ****    #if(TIMER_SAMPLERATE_UsingFixedFunction)
 428              		.loc 1 481 0
 429              		.cfi_startproc
 430              		@ args = 0, pretend = 0, frame = 0
 431              		@ frame_needed = 0, uses_anonymous_args = 0
 432              		@ link register save eliminated.
 433              	.LVL12:
 481:Generated_Source\PSoC5/TIMER_SAMPLERATE.c ****    #if(TIMER_SAMPLERATE_UsingFixedFunction)
 434              		.loc 1 481 0
 435 0000 0146     		mov	r1, r0
 489:Generated_Source\PSoC5/TIMER_SAMPLERATE.c ****     #endif /* Set Write Counter only for the UDB implementation (Write Counter not available in fix
 436              		.loc 1 489 0
 437 0002 0148     		ldr	r0, .L49
 438              	.LVL13:
 439 0004 FFF7FEBF 		b	CySetReg24
 440              	.LVL14:
 441              	.L50:
 442              		.align	2
 443              	.L49:
 444 0008 04650040 		.word	1073767684
 445              		.cfi_endproc
 446              	.LFE12:
 447              		.size	TIMER_SAMPLERATE_WriteCounter, .-TIMER_SAMPLERATE_WriteCounter
 448              		.section	.text.TIMER_SAMPLERATE_ReadCounter,"ax",%progbits
 449              		.align	2
ARM GAS  C:\Users\mgronber\AppData\Local\Temp\ccbKks6H.s 			page 23


 450              		.global	TIMER_SAMPLERATE_ReadCounter
 451              		.thumb
 452              		.thumb_func
 453              		.type	TIMER_SAMPLERATE_ReadCounter, %function
 454              	TIMER_SAMPLERATE_ReadCounter:
 455              	.LFB13:
 509:Generated_Source\PSoC5/TIMER_SAMPLERATE.c ****     /* Force capture by reading Accumulator */
 456              		.loc 1 509 0
 457              		.cfi_startproc
 458              		@ args = 0, pretend = 0, frame = 0
 459              		@ frame_needed = 0, uses_anonymous_args = 0
 460              		@ link register save eliminated.
 523:Generated_Source\PSoC5/TIMER_SAMPLERATE.c ****     #endif /* (TIMER_SAMPLERATE_UsingFixedFunction) */
 461              		.loc 1 523 0
 462 0000 034B     		ldr	r3, .L52
 516:Generated_Source\PSoC5/TIMER_SAMPLERATE.c ****     #endif/* (TIMER_SAMPLERATE_UsingFixedFunction) */
 463              		.loc 1 516 0
 464 0002 044A     		ldr	r2, .L52+4
 465 0004 1278     		ldrb	r2, [r2]	@ zero_extendqisi2
 523:Generated_Source\PSoC5/TIMER_SAMPLERATE.c ****     #endif /* (TIMER_SAMPLERATE_UsingFixedFunction) */
 466              		.loc 1 523 0
 467 0006 1868     		ldr	r0, [r3]
 525:Generated_Source\PSoC5/TIMER_SAMPLERATE.c **** 
 468              		.loc 1 525 0
 469 0008 20F07F40 		bic	r0, r0, #-16777216
 470 000c 7047     		bx	lr
 471              	.L53:
 472 000e 00BF     		.align	2
 473              	.L52:
 474 0010 44650040 		.word	1073767748
 475 0014 04650040 		.word	1073767684
 476              		.cfi_endproc
 477              	.LFE13:
 478              		.size	TIMER_SAMPLERATE_ReadCounter, .-TIMER_SAMPLERATE_ReadCounter
 479              		.section	.text.TIMER_SAMPLERATE_ClearFIFO,"ax",%progbits
 480              		.align	2
 481              		.global	TIMER_SAMPLERATE_ClearFIFO
 482              		.thumb
 483              		.thumb_func
 484              		.type	TIMER_SAMPLERATE_ClearFIFO, %function
 485              	TIMER_SAMPLERATE_ClearFIFO:
 486              	.LFB14:
 764:Generated_Source\PSoC5/TIMER_SAMPLERATE.c ****     while(0u != (TIMER_SAMPLERATE_ReadStatusRegister() & TIMER_SAMPLERATE_STATUS_FIFONEMP))
 487              		.loc 1 764 0
 488              		.cfi_startproc
 489              		@ args = 0, pretend = 0, frame = 0
 490              		@ frame_needed = 0, uses_anonymous_args = 0
 491              		@ link register save eliminated.
 492              	.LBB36:
 493              	.LBB37:
 335:Generated_Source\PSoC5/TIMER_SAMPLERATE.c **** }
 494              		.loc 1 335 0
 495 0000 044A     		ldr	r2, .L62
 496 0002 1378     		ldrb	r3, [r2]	@ zero_extendqisi2
 497              	.LBE37:
 498              	.LBE36:
 499              		.loc 1 765 0
ARM GAS  C:\Users\mgronber\AppData\Local\Temp\ccbKks6H.s 			page 24


 500 0004 1907     		lsls	r1, r3, #28
 501 0006 04D5     		bpl	.L54
 502              	.LBB39:
 503              	.LBB40:
 461:Generated_Source\PSoC5/TIMER_SAMPLERATE.c ****    #endif /* (TIMER_SAMPLERATE_UsingFixedFunction) */
 504              		.loc 1 461 0
 505 0008 0349     		ldr	r1, .L62+4
 506              	.L59:
 507 000a 0B68     		ldr	r3, [r1]
 508              	.LBE40:
 509              	.LBE39:
 510              	.LBB41:
 511              	.LBB38:
 335:Generated_Source\PSoC5/TIMER_SAMPLERATE.c **** }
 512              		.loc 1 335 0
 513 000c 1378     		ldrb	r3, [r2]	@ zero_extendqisi2
 514              	.LBE38:
 515              	.LBE41:
 516              		.loc 1 765 0
 517 000e 1B07     		lsls	r3, r3, #28
 518 0010 FBD4     		bmi	.L59
 519              	.L54:
 520 0012 7047     		bx	lr
 521              	.L63:
 522              		.align	2
 523              	.L62:
 524 0014 65650040 		.word	1073767781
 525 0018 44650040 		.word	1073767748
 526              		.cfi_endproc
 527              	.LFE14:
 528              		.size	TIMER_SAMPLERATE_ClearFIFO, .-TIMER_SAMPLERATE_ClearFIFO
 529              		.global	TIMER_SAMPLERATE_initVar
 530              		.bss
 531              		.set	.LANCHOR0,. + 0
 532              		.type	TIMER_SAMPLERATE_initVar, %object
 533              		.size	TIMER_SAMPLERATE_initVar, 1
 534              	TIMER_SAMPLERATE_initVar:
 535 0000 00       		.space	1
 536              		.text
 537              	.Letext0:
 538              		.file 2 "Generated_Source\\PSoC5\\cytypes.h"
 539              		.file 3 "Generated_Source\\PSoC5\\CyLib.h"