ARM GAS  C:\Users\anjmarqu\AppData\Local\Temp\cc8MLc5o.s 			page 1


   1              		.syntax unified
   2              		.cpu cortex-m3
   3              		.fpu softvfp
   4              		.eabi_attribute 20, 1
   5              		.eabi_attribute 21, 1
   6              		.eabi_attribute 23, 3
   7              		.eabi_attribute 24, 1
   8              		.eabi_attribute 25, 1
   9              		.eabi_attribute 26, 1
  10              		.eabi_attribute 30, 2
  11              		.eabi_attribute 34, 1
  12              		.eabi_attribute 18, 4
  13              		.thumb
  14              		.file	"UART_MIDITX_PM.c"
  15              		.text
  16              	.Ltext0:
  17              		.cfi_sections	.debug_frame
  18              		.section	.text.UART_MIDITX_SaveConfig,"ax",%progbits
  19              		.align	2
  20              		.global	UART_MIDITX_SaveConfig
  21              		.thumb
  22              		.thumb_func
  23              		.type	UART_MIDITX_SaveConfig, %function
  24              	UART_MIDITX_SaveConfig:
  25              	.LFB0:
  26              		.file 1 "Generated_Source\\PSoC5\\UART_MIDITX_PM.c"
   1:Generated_Source\PSoC5/UART_MIDITX_PM.c **** /*******************************************************************************
   2:Generated_Source\PSoC5/UART_MIDITX_PM.c **** * File Name: UART_MIDITX_PM.c
   3:Generated_Source\PSoC5/UART_MIDITX_PM.c **** * Version 2.50
   4:Generated_Source\PSoC5/UART_MIDITX_PM.c **** *
   5:Generated_Source\PSoC5/UART_MIDITX_PM.c **** * Description:
   6:Generated_Source\PSoC5/UART_MIDITX_PM.c **** *  This file provides Sleep/WakeUp APIs functionality.
   7:Generated_Source\PSoC5/UART_MIDITX_PM.c **** *
   8:Generated_Source\PSoC5/UART_MIDITX_PM.c **** * Note:
   9:Generated_Source\PSoC5/UART_MIDITX_PM.c **** *
  10:Generated_Source\PSoC5/UART_MIDITX_PM.c **** ********************************************************************************
  11:Generated_Source\PSoC5/UART_MIDITX_PM.c **** * Copyright 2008-2015, Cypress Semiconductor Corporation.  All rights reserved.
  12:Generated_Source\PSoC5/UART_MIDITX_PM.c **** * You may use this file only in accordance with the license, terms, conditions,
  13:Generated_Source\PSoC5/UART_MIDITX_PM.c **** * disclaimers, and limitations in the end user license agreement accompanying
  14:Generated_Source\PSoC5/UART_MIDITX_PM.c **** * the software package with which this file was provided.
  15:Generated_Source\PSoC5/UART_MIDITX_PM.c **** *******************************************************************************/
  16:Generated_Source\PSoC5/UART_MIDITX_PM.c **** 
  17:Generated_Source\PSoC5/UART_MIDITX_PM.c **** #include "UART_MIDITX.h"
  18:Generated_Source\PSoC5/UART_MIDITX_PM.c **** 
  19:Generated_Source\PSoC5/UART_MIDITX_PM.c **** 
  20:Generated_Source\PSoC5/UART_MIDITX_PM.c **** /***************************************
  21:Generated_Source\PSoC5/UART_MIDITX_PM.c **** * Local data allocation
  22:Generated_Source\PSoC5/UART_MIDITX_PM.c **** ***************************************/
  23:Generated_Source\PSoC5/UART_MIDITX_PM.c **** 
  24:Generated_Source\PSoC5/UART_MIDITX_PM.c **** static UART_MIDITX_BACKUP_STRUCT  UART_MIDITX_backup =
  25:Generated_Source\PSoC5/UART_MIDITX_PM.c **** {
  26:Generated_Source\PSoC5/UART_MIDITX_PM.c ****     /* enableState - disabled */
  27:Generated_Source\PSoC5/UART_MIDITX_PM.c ****     0u,
  28:Generated_Source\PSoC5/UART_MIDITX_PM.c **** };
  29:Generated_Source\PSoC5/UART_MIDITX_PM.c **** 
  30:Generated_Source\PSoC5/UART_MIDITX_PM.c **** 
  31:Generated_Source\PSoC5/UART_MIDITX_PM.c **** 
ARM GAS  C:\Users\anjmarqu\AppData\Local\Temp\cc8MLc5o.s 			page 2


  32:Generated_Source\PSoC5/UART_MIDITX_PM.c **** /*******************************************************************************
  33:Generated_Source\PSoC5/UART_MIDITX_PM.c **** * Function Name: UART_MIDITX_SaveConfig
  34:Generated_Source\PSoC5/UART_MIDITX_PM.c **** ********************************************************************************
  35:Generated_Source\PSoC5/UART_MIDITX_PM.c **** *
  36:Generated_Source\PSoC5/UART_MIDITX_PM.c **** * Summary:
  37:Generated_Source\PSoC5/UART_MIDITX_PM.c **** *  This function saves the component nonretention control register.
  38:Generated_Source\PSoC5/UART_MIDITX_PM.c **** *  Does not save the FIFO which is a set of nonretention registers.
  39:Generated_Source\PSoC5/UART_MIDITX_PM.c **** *  This function is called by the UART_MIDITX_Sleep() function.
  40:Generated_Source\PSoC5/UART_MIDITX_PM.c **** *
  41:Generated_Source\PSoC5/UART_MIDITX_PM.c **** * Parameters:
  42:Generated_Source\PSoC5/UART_MIDITX_PM.c **** *  None.
  43:Generated_Source\PSoC5/UART_MIDITX_PM.c **** *
  44:Generated_Source\PSoC5/UART_MIDITX_PM.c **** * Return:
  45:Generated_Source\PSoC5/UART_MIDITX_PM.c **** *  None.
  46:Generated_Source\PSoC5/UART_MIDITX_PM.c **** *
  47:Generated_Source\PSoC5/UART_MIDITX_PM.c **** * Global Variables:
  48:Generated_Source\PSoC5/UART_MIDITX_PM.c **** *  UART_MIDITX_backup - modified when non-retention registers are saved.
  49:Generated_Source\PSoC5/UART_MIDITX_PM.c **** *
  50:Generated_Source\PSoC5/UART_MIDITX_PM.c **** * Reentrant:
  51:Generated_Source\PSoC5/UART_MIDITX_PM.c **** *  No.
  52:Generated_Source\PSoC5/UART_MIDITX_PM.c **** *
  53:Generated_Source\PSoC5/UART_MIDITX_PM.c **** *******************************************************************************/
  54:Generated_Source\PSoC5/UART_MIDITX_PM.c **** void UART_MIDITX_SaveConfig(void)
  55:Generated_Source\PSoC5/UART_MIDITX_PM.c **** {
  27              		.loc 1 55 0
  28              		.cfi_startproc
  29              		@ args = 0, pretend = 0, frame = 0
  30              		@ frame_needed = 0, uses_anonymous_args = 0
  31              		@ link register save eliminated.
  32 0000 7047     		bx	lr
  33              		.cfi_endproc
  34              	.LFE0:
  35              		.size	UART_MIDITX_SaveConfig, .-UART_MIDITX_SaveConfig
  36 0002 00BF     		.section	.text.UART_MIDITX_RestoreConfig,"ax",%progbits
  37              		.align	2
  38              		.global	UART_MIDITX_RestoreConfig
  39              		.thumb
  40              		.thumb_func
  41              		.type	UART_MIDITX_RestoreConfig, %function
  42              	UART_MIDITX_RestoreConfig:
  43              	.LFB1:
  56:Generated_Source\PSoC5/UART_MIDITX_PM.c ****     #if(UART_MIDITX_CONTROL_REG_REMOVED == 0u)
  57:Generated_Source\PSoC5/UART_MIDITX_PM.c ****         UART_MIDITX_backup.cr = UART_MIDITX_CONTROL_REG;
  58:Generated_Source\PSoC5/UART_MIDITX_PM.c ****     #endif /* End UART_MIDITX_CONTROL_REG_REMOVED */
  59:Generated_Source\PSoC5/UART_MIDITX_PM.c **** }
  60:Generated_Source\PSoC5/UART_MIDITX_PM.c **** 
  61:Generated_Source\PSoC5/UART_MIDITX_PM.c **** 
  62:Generated_Source\PSoC5/UART_MIDITX_PM.c **** /*******************************************************************************
  63:Generated_Source\PSoC5/UART_MIDITX_PM.c **** * Function Name: UART_MIDITX_RestoreConfig
  64:Generated_Source\PSoC5/UART_MIDITX_PM.c **** ********************************************************************************
  65:Generated_Source\PSoC5/UART_MIDITX_PM.c **** *
  66:Generated_Source\PSoC5/UART_MIDITX_PM.c **** * Summary:
  67:Generated_Source\PSoC5/UART_MIDITX_PM.c **** *  Restores the nonretention control register except FIFO.
  68:Generated_Source\PSoC5/UART_MIDITX_PM.c **** *  Does not restore the FIFO which is a set of nonretention registers.
  69:Generated_Source\PSoC5/UART_MIDITX_PM.c **** *
  70:Generated_Source\PSoC5/UART_MIDITX_PM.c **** * Parameters:
  71:Generated_Source\PSoC5/UART_MIDITX_PM.c **** *  None.
ARM GAS  C:\Users\anjmarqu\AppData\Local\Temp\cc8MLc5o.s 			page 3


  72:Generated_Source\PSoC5/UART_MIDITX_PM.c **** *
  73:Generated_Source\PSoC5/UART_MIDITX_PM.c **** * Return:
  74:Generated_Source\PSoC5/UART_MIDITX_PM.c **** *  None.
  75:Generated_Source\PSoC5/UART_MIDITX_PM.c **** *
  76:Generated_Source\PSoC5/UART_MIDITX_PM.c **** * Global Variables:
  77:Generated_Source\PSoC5/UART_MIDITX_PM.c **** *  UART_MIDITX_backup - used when non-retention registers are restored.
  78:Generated_Source\PSoC5/UART_MIDITX_PM.c **** *
  79:Generated_Source\PSoC5/UART_MIDITX_PM.c **** * Reentrant:
  80:Generated_Source\PSoC5/UART_MIDITX_PM.c **** *  No.
  81:Generated_Source\PSoC5/UART_MIDITX_PM.c **** *
  82:Generated_Source\PSoC5/UART_MIDITX_PM.c **** * Notes:
  83:Generated_Source\PSoC5/UART_MIDITX_PM.c **** *  If this function is called without calling UART_MIDITX_SaveConfig() 
  84:Generated_Source\PSoC5/UART_MIDITX_PM.c **** *  first, the data loaded may be incorrect.
  85:Generated_Source\PSoC5/UART_MIDITX_PM.c **** *
  86:Generated_Source\PSoC5/UART_MIDITX_PM.c **** *******************************************************************************/
  87:Generated_Source\PSoC5/UART_MIDITX_PM.c **** void UART_MIDITX_RestoreConfig(void)
  88:Generated_Source\PSoC5/UART_MIDITX_PM.c **** {
  44              		.loc 1 88 0
  45              		.cfi_startproc
  46              		@ args = 0, pretend = 0, frame = 0
  47              		@ frame_needed = 0, uses_anonymous_args = 0
  48              		@ link register save eliminated.
  49 0000 7047     		bx	lr
  50              		.cfi_endproc
  51              	.LFE1:
  52              		.size	UART_MIDITX_RestoreConfig, .-UART_MIDITX_RestoreConfig
  53 0002 00BF     		.section	.text.UART_MIDITX_Sleep,"ax",%progbits
  54              		.align	2
  55              		.global	UART_MIDITX_Sleep
  56              		.thumb
  57              		.thumb_func
  58              		.type	UART_MIDITX_Sleep, %function
  59              	UART_MIDITX_Sleep:
  60              	.LFB2:
  89:Generated_Source\PSoC5/UART_MIDITX_PM.c ****     #if(UART_MIDITX_CONTROL_REG_REMOVED == 0u)
  90:Generated_Source\PSoC5/UART_MIDITX_PM.c ****         UART_MIDITX_CONTROL_REG = UART_MIDITX_backup.cr;
  91:Generated_Source\PSoC5/UART_MIDITX_PM.c ****     #endif /* End UART_MIDITX_CONTROL_REG_REMOVED */
  92:Generated_Source\PSoC5/UART_MIDITX_PM.c **** }
  93:Generated_Source\PSoC5/UART_MIDITX_PM.c **** 
  94:Generated_Source\PSoC5/UART_MIDITX_PM.c **** 
  95:Generated_Source\PSoC5/UART_MIDITX_PM.c **** /*******************************************************************************
  96:Generated_Source\PSoC5/UART_MIDITX_PM.c **** * Function Name: UART_MIDITX_Sleep
  97:Generated_Source\PSoC5/UART_MIDITX_PM.c **** ********************************************************************************
  98:Generated_Source\PSoC5/UART_MIDITX_PM.c **** *
  99:Generated_Source\PSoC5/UART_MIDITX_PM.c **** * Summary:
 100:Generated_Source\PSoC5/UART_MIDITX_PM.c **** *  This is the preferred API to prepare the component for sleep. 
 101:Generated_Source\PSoC5/UART_MIDITX_PM.c **** *  The UART_MIDITX_Sleep() API saves the current component state. Then it
 102:Generated_Source\PSoC5/UART_MIDITX_PM.c **** *  calls the UART_MIDITX_Stop() function and calls 
 103:Generated_Source\PSoC5/UART_MIDITX_PM.c **** *  UART_MIDITX_SaveConfig() to save the hardware configuration.
 104:Generated_Source\PSoC5/UART_MIDITX_PM.c **** *  Call the UART_MIDITX_Sleep() function before calling the CyPmSleep() 
 105:Generated_Source\PSoC5/UART_MIDITX_PM.c **** *  or the CyPmHibernate() function. 
 106:Generated_Source\PSoC5/UART_MIDITX_PM.c **** *
 107:Generated_Source\PSoC5/UART_MIDITX_PM.c **** * Parameters:
 108:Generated_Source\PSoC5/UART_MIDITX_PM.c **** *  None.
 109:Generated_Source\PSoC5/UART_MIDITX_PM.c **** *
 110:Generated_Source\PSoC5/UART_MIDITX_PM.c **** * Return:
 111:Generated_Source\PSoC5/UART_MIDITX_PM.c **** *  None.
ARM GAS  C:\Users\anjmarqu\AppData\Local\Temp\cc8MLc5o.s 			page 4


 112:Generated_Source\PSoC5/UART_MIDITX_PM.c **** *
 113:Generated_Source\PSoC5/UART_MIDITX_PM.c **** * Global Variables:
 114:Generated_Source\PSoC5/UART_MIDITX_PM.c **** *  UART_MIDITX_backup - modified when non-retention registers are saved.
 115:Generated_Source\PSoC5/UART_MIDITX_PM.c **** *
 116:Generated_Source\PSoC5/UART_MIDITX_PM.c **** * Reentrant:
 117:Generated_Source\PSoC5/UART_MIDITX_PM.c **** *  No.
 118:Generated_Source\PSoC5/UART_MIDITX_PM.c **** *
 119:Generated_Source\PSoC5/UART_MIDITX_PM.c **** *******************************************************************************/
 120:Generated_Source\PSoC5/UART_MIDITX_PM.c **** void UART_MIDITX_Sleep(void)
 121:Generated_Source\PSoC5/UART_MIDITX_PM.c **** {
  61              		.loc 1 121 0
  62              		.cfi_startproc
  63              		@ args = 0, pretend = 0, frame = 0
  64              		@ frame_needed = 0, uses_anonymous_args = 0
  65              		@ link register save eliminated.
 122:Generated_Source\PSoC5/UART_MIDITX_PM.c ****     #if(UART_MIDITX_RX_ENABLED || UART_MIDITX_HD_ENABLED)
 123:Generated_Source\PSoC5/UART_MIDITX_PM.c ****         if((UART_MIDITX_RXSTATUS_ACTL_REG  & UART_MIDITX_INT_ENABLE) != 0u)
 124:Generated_Source\PSoC5/UART_MIDITX_PM.c ****         {
 125:Generated_Source\PSoC5/UART_MIDITX_PM.c ****             UART_MIDITX_backup.enableState = 1u;
 126:Generated_Source\PSoC5/UART_MIDITX_PM.c ****         }
 127:Generated_Source\PSoC5/UART_MIDITX_PM.c ****         else
 128:Generated_Source\PSoC5/UART_MIDITX_PM.c ****         {
 129:Generated_Source\PSoC5/UART_MIDITX_PM.c ****             UART_MIDITX_backup.enableState = 0u;
 130:Generated_Source\PSoC5/UART_MIDITX_PM.c ****         }
 131:Generated_Source\PSoC5/UART_MIDITX_PM.c ****     #else
 132:Generated_Source\PSoC5/UART_MIDITX_PM.c ****         if((UART_MIDITX_TXSTATUS_ACTL_REG  & UART_MIDITX_INT_ENABLE) !=0u)
  66              		.loc 1 132 0
  67 0000 074B     		ldr	r3, .L8
  68 0002 1B78     		ldrb	r3, [r3]	@ zero_extendqisi2
  69 0004 03F01003 		and	r3, r3, #16
  70 0008 03F0FF02 		and	r2, r3, #255
  71 000c 1BB9     		cbnz	r3, .L7
 133:Generated_Source\PSoC5/UART_MIDITX_PM.c ****         {
 134:Generated_Source\PSoC5/UART_MIDITX_PM.c ****             UART_MIDITX_backup.enableState = 1u;
 135:Generated_Source\PSoC5/UART_MIDITX_PM.c ****         }
 136:Generated_Source\PSoC5/UART_MIDITX_PM.c ****         else
 137:Generated_Source\PSoC5/UART_MIDITX_PM.c ****         {
 138:Generated_Source\PSoC5/UART_MIDITX_PM.c ****             UART_MIDITX_backup.enableState = 0u;
  72              		.loc 1 138 0
  73 000e 054B     		ldr	r3, .L8+4
  74 0010 1A70     		strb	r2, [r3]
 139:Generated_Source\PSoC5/UART_MIDITX_PM.c ****         }
 140:Generated_Source\PSoC5/UART_MIDITX_PM.c ****     #endif /* End UART_MIDITX_RX_ENABLED || UART_MIDITX_HD_ENABLED*/
 141:Generated_Source\PSoC5/UART_MIDITX_PM.c **** 
 142:Generated_Source\PSoC5/UART_MIDITX_PM.c ****     UART_MIDITX_Stop();
  75              		.loc 1 142 0
  76 0012 FFF7FEBF 		b	UART_MIDITX_Stop
  77              	.LVL0:
  78              	.L7:
 134:Generated_Source\PSoC5/UART_MIDITX_PM.c ****         }
  79              		.loc 1 134 0
  80 0016 034B     		ldr	r3, .L8+4
  81 0018 0122     		movs	r2, #1
  82 001a 1A70     		strb	r2, [r3]
  83              		.loc 1 142 0
  84 001c FFF7FEBF 		b	UART_MIDITX_Stop
  85              	.LVL1:
ARM GAS  C:\Users\anjmarqu\AppData\Local\Temp\cc8MLc5o.s 			page 5


  86              	.L9:
  87              		.align	2
  88              	.L8:
  89 0020 9B640040 		.word	1073767579
  90 0024 00000000 		.word	.LANCHOR0
  91              		.cfi_endproc
  92              	.LFE2:
  93              		.size	UART_MIDITX_Sleep, .-UART_MIDITX_Sleep
  94              		.section	.text.UART_MIDITX_Wakeup,"ax",%progbits
  95              		.align	2
  96              		.global	UART_MIDITX_Wakeup
  97              		.thumb
  98              		.thumb_func
  99              		.type	UART_MIDITX_Wakeup, %function
 100              	UART_MIDITX_Wakeup:
 101              	.LFB3:
 143:Generated_Source\PSoC5/UART_MIDITX_PM.c ****     UART_MIDITX_SaveConfig();
 144:Generated_Source\PSoC5/UART_MIDITX_PM.c **** }
 145:Generated_Source\PSoC5/UART_MIDITX_PM.c **** 
 146:Generated_Source\PSoC5/UART_MIDITX_PM.c **** 
 147:Generated_Source\PSoC5/UART_MIDITX_PM.c **** /*******************************************************************************
 148:Generated_Source\PSoC5/UART_MIDITX_PM.c **** * Function Name: UART_MIDITX_Wakeup
 149:Generated_Source\PSoC5/UART_MIDITX_PM.c **** ********************************************************************************
 150:Generated_Source\PSoC5/UART_MIDITX_PM.c **** *
 151:Generated_Source\PSoC5/UART_MIDITX_PM.c **** * Summary:
 152:Generated_Source\PSoC5/UART_MIDITX_PM.c **** *  This is the preferred API to restore the component to the state when 
 153:Generated_Source\PSoC5/UART_MIDITX_PM.c **** *  UART_MIDITX_Sleep() was called. The UART_MIDITX_Wakeup() function
 154:Generated_Source\PSoC5/UART_MIDITX_PM.c **** *  calls the UART_MIDITX_RestoreConfig() function to restore the 
 155:Generated_Source\PSoC5/UART_MIDITX_PM.c **** *  configuration. If the component was enabled before the 
 156:Generated_Source\PSoC5/UART_MIDITX_PM.c **** *  UART_MIDITX_Sleep() function was called, the UART_MIDITX_Wakeup()
 157:Generated_Source\PSoC5/UART_MIDITX_PM.c **** *  function will also re-enable the component.
 158:Generated_Source\PSoC5/UART_MIDITX_PM.c **** *
 159:Generated_Source\PSoC5/UART_MIDITX_PM.c **** * Parameters:
 160:Generated_Source\PSoC5/UART_MIDITX_PM.c **** *  None.
 161:Generated_Source\PSoC5/UART_MIDITX_PM.c **** *
 162:Generated_Source\PSoC5/UART_MIDITX_PM.c **** * Return:
 163:Generated_Source\PSoC5/UART_MIDITX_PM.c **** *  None.
 164:Generated_Source\PSoC5/UART_MIDITX_PM.c **** *
 165:Generated_Source\PSoC5/UART_MIDITX_PM.c **** * Global Variables:
 166:Generated_Source\PSoC5/UART_MIDITX_PM.c **** *  UART_MIDITX_backup - used when non-retention registers are restored.
 167:Generated_Source\PSoC5/UART_MIDITX_PM.c **** *
 168:Generated_Source\PSoC5/UART_MIDITX_PM.c **** * Reentrant:
 169:Generated_Source\PSoC5/UART_MIDITX_PM.c **** *  No.
 170:Generated_Source\PSoC5/UART_MIDITX_PM.c **** *
 171:Generated_Source\PSoC5/UART_MIDITX_PM.c **** *******************************************************************************/
 172:Generated_Source\PSoC5/UART_MIDITX_PM.c **** void UART_MIDITX_Wakeup(void)
 173:Generated_Source\PSoC5/UART_MIDITX_PM.c **** {
 102              		.loc 1 173 0
 103              		.cfi_startproc
 104              		@ args = 0, pretend = 0, frame = 0
 105              		@ frame_needed = 0, uses_anonymous_args = 0
 106 0000 08B5     		push	{r3, lr}
 107              		.cfi_def_cfa_offset 8
 108              		.cfi_offset 3, -8
 109              		.cfi_offset 14, -4
 174:Generated_Source\PSoC5/UART_MIDITX_PM.c ****     UART_MIDITX_RestoreConfig();
 175:Generated_Source\PSoC5/UART_MIDITX_PM.c ****     #if( (UART_MIDITX_RX_ENABLED) || (UART_MIDITX_HD_ENABLED) )
ARM GAS  C:\Users\anjmarqu\AppData\Local\Temp\cc8MLc5o.s 			page 6


 176:Generated_Source\PSoC5/UART_MIDITX_PM.c ****         UART_MIDITX_ClearRxBuffer();
 177:Generated_Source\PSoC5/UART_MIDITX_PM.c ****     #endif /* End (UART_MIDITX_RX_ENABLED) || (UART_MIDITX_HD_ENABLED) */
 178:Generated_Source\PSoC5/UART_MIDITX_PM.c ****     #if(UART_MIDITX_TX_ENABLED || UART_MIDITX_HD_ENABLED)
 179:Generated_Source\PSoC5/UART_MIDITX_PM.c ****         UART_MIDITX_ClearTxBuffer();
 110              		.loc 1 179 0
 111 0002 FFF7FEFF 		bl	UART_MIDITX_ClearTxBuffer
 112              	.LVL2:
 180:Generated_Source\PSoC5/UART_MIDITX_PM.c ****     #endif /* End UART_MIDITX_TX_ENABLED || UART_MIDITX_HD_ENABLED */
 181:Generated_Source\PSoC5/UART_MIDITX_PM.c **** 
 182:Generated_Source\PSoC5/UART_MIDITX_PM.c ****     if(UART_MIDITX_backup.enableState != 0u)
 113              		.loc 1 182 0
 114 0006 044B     		ldr	r3, .L14
 115 0008 1B78     		ldrb	r3, [r3]	@ zero_extendqisi2
 116 000a 03B9     		cbnz	r3, .L13
 117 000c 08BD     		pop	{r3, pc}
 118              	.L13:
 183:Generated_Source\PSoC5/UART_MIDITX_PM.c ****     {
 184:Generated_Source\PSoC5/UART_MIDITX_PM.c ****         UART_MIDITX_Enable();
 185:Generated_Source\PSoC5/UART_MIDITX_PM.c ****     }
 186:Generated_Source\PSoC5/UART_MIDITX_PM.c **** }
 119              		.loc 1 186 0
 120 000e BDE80840 		pop	{r3, lr}
 121              		.cfi_restore 14
 122              		.cfi_restore 3
 123              		.cfi_def_cfa_offset 0
 184:Generated_Source\PSoC5/UART_MIDITX_PM.c ****     }
 124              		.loc 1 184 0
 125 0012 FFF7FEBF 		b	UART_MIDITX_Enable
 126              	.LVL3:
 127              	.L15:
 128 0016 00BF     		.align	2
 129              	.L14:
 130 0018 00000000 		.word	.LANCHOR0
 131              		.cfi_endproc
 132              	.LFE3:
 133              		.size	UART_MIDITX_Wakeup, .-UART_MIDITX_Wakeup
 134              		.bss
 135              		.align	2
 136              		.set	.LANCHOR0,. + 0
 137              		.type	UART_MIDITX_backup, %object
 138              		.size	UART_MIDITX_backup, 1
 139              	UART_MIDITX_backup:
 140 0000 00       		.space	1
 141 0001 000000   		.text
 142              	.Letext0:
 143              		.file 2 "Generated_Source\\PSoC5\\cytypes.h"
 144              		.file 3 "Generated_Source\\PSoC5\\UART_MIDITX.h"