ARM GAS  C:\Users\mgronber\AppData\Local\Temp\ccz9CDgj.s 			page 1


   1              		.syntax unified
   2              		.cpu cortex-m3
   3              		.fpu softvfp
   4              		.eabi_attribute 20, 1
   5              		.eabi_attribute 21, 1
   6              		.eabi_attribute 23, 3
   7              		.eabi_attribute 24, 1
   8              		.eabi_attribute 25, 1
   9              		.eabi_attribute 26, 1
  10              		.eabi_attribute 30, 2
  11              		.eabi_attribute 34, 1
  12              		.eabi_attribute 18, 4
  13              		.thumb
  14              		.file	"UI_ADC_PM.c"
  15              		.text
  16              	.Ltext0:
  17              		.cfi_sections	.debug_frame
  18              		.section	.text.UI_ADC_Sleep,"ax",%progbits
  19              		.align	2
  20              		.global	UI_ADC_Sleep
  21              		.thumb
  22              		.thumb_func
  23              		.type	UI_ADC_Sleep, %function
  24              	UI_ADC_Sleep:
  25              	.LFB0:
  26              		.file 1 "Generated_Source\\PSoC5\\UI_ADC_PM.c"
   1:Generated_Source\PSoC5/UI_ADC_PM.c **** /*******************************************************************************
   2:Generated_Source\PSoC5/UI_ADC_PM.c **** * File Name: UI_ADC_PM.c
   3:Generated_Source\PSoC5/UI_ADC_PM.c **** * Version 2.0
   4:Generated_Source\PSoC5/UI_ADC_PM.c **** *
   5:Generated_Source\PSoC5/UI_ADC_PM.c **** * Description:
   6:Generated_Source\PSoC5/UI_ADC_PM.c **** *  This file contains the setup, control and status commands to support
   7:Generated_Source\PSoC5/UI_ADC_PM.c **** *  component operations in low power mode.
   8:Generated_Source\PSoC5/UI_ADC_PM.c **** *
   9:Generated_Source\PSoC5/UI_ADC_PM.c **** * Note:
  10:Generated_Source\PSoC5/UI_ADC_PM.c **** *
  11:Generated_Source\PSoC5/UI_ADC_PM.c **** ********************************************************************************
  12:Generated_Source\PSoC5/UI_ADC_PM.c **** * Copyright 2012-2015, Cypress Semiconductor Corporation.  All rights reserved.
  13:Generated_Source\PSoC5/UI_ADC_PM.c **** * You may use this file only in accordance with the license, terms, conditions,
  14:Generated_Source\PSoC5/UI_ADC_PM.c **** * disclaimers, and limitations in the end user license agreement accompanying
  15:Generated_Source\PSoC5/UI_ADC_PM.c **** * the software package with which this file was provided.
  16:Generated_Source\PSoC5/UI_ADC_PM.c **** *******************************************************************************/
  17:Generated_Source\PSoC5/UI_ADC_PM.c **** 
  18:Generated_Source\PSoC5/UI_ADC_PM.c **** #include "UI_ADC.h"
  19:Generated_Source\PSoC5/UI_ADC_PM.c **** #include "UI_ADC_SAR.h"
  20:Generated_Source\PSoC5/UI_ADC_PM.c **** #if(UI_ADC_CLOCK_SOURCE == UI_ADC_CLOCK_INTERNAL)
  21:Generated_Source\PSoC5/UI_ADC_PM.c ****     #include "UI_ADC_IntClock.h"
  22:Generated_Source\PSoC5/UI_ADC_PM.c **** #endif   /* UI_ADC_CLOCK_SOURCE == UI_ADC_CLOCK_INTERNAL */
  23:Generated_Source\PSoC5/UI_ADC_PM.c **** 
  24:Generated_Source\PSoC5/UI_ADC_PM.c **** 
  25:Generated_Source\PSoC5/UI_ADC_PM.c **** /*******************************************************************************
  26:Generated_Source\PSoC5/UI_ADC_PM.c **** * Function Name: UI_ADC_Sleep
  27:Generated_Source\PSoC5/UI_ADC_PM.c **** ********************************************************************************
  28:Generated_Source\PSoC5/UI_ADC_PM.c **** *
  29:Generated_Source\PSoC5/UI_ADC_PM.c **** * Summary:
  30:Generated_Source\PSoC5/UI_ADC_PM.c **** *  Stops the ADC operation and saves the configuration registers and component
  31:Generated_Source\PSoC5/UI_ADC_PM.c **** *  enable state. Should be called just prior to entering sleep
ARM GAS  C:\Users\mgronber\AppData\Local\Temp\ccz9CDgj.s 			page 2


  32:Generated_Source\PSoC5/UI_ADC_PM.c **** *
  33:Generated_Source\PSoC5/UI_ADC_PM.c **** * Parameters:
  34:Generated_Source\PSoC5/UI_ADC_PM.c **** *  None.
  35:Generated_Source\PSoC5/UI_ADC_PM.c **** *
  36:Generated_Source\PSoC5/UI_ADC_PM.c **** * Return:
  37:Generated_Source\PSoC5/UI_ADC_PM.c **** *  None.
  38:Generated_Source\PSoC5/UI_ADC_PM.c **** *
  39:Generated_Source\PSoC5/UI_ADC_PM.c **** * Side Effects:
  40:Generated_Source\PSoC5/UI_ADC_PM.c **** *  None.
  41:Generated_Source\PSoC5/UI_ADC_PM.c **** *
  42:Generated_Source\PSoC5/UI_ADC_PM.c **** * Reentrant:
  43:Generated_Source\PSoC5/UI_ADC_PM.c **** *  No.
  44:Generated_Source\PSoC5/UI_ADC_PM.c **** *
  45:Generated_Source\PSoC5/UI_ADC_PM.c **** *******************************************************************************/
  46:Generated_Source\PSoC5/UI_ADC_PM.c **** void UI_ADC_Sleep(void)
  47:Generated_Source\PSoC5/UI_ADC_PM.c **** {
  27              		.loc 1 47 0
  28              		.cfi_startproc
  29              		@ args = 0, pretend = 0, frame = 0
  30              		@ frame_needed = 0, uses_anonymous_args = 0
  31 0000 08B5     		push	{r3, lr}
  32              		.cfi_def_cfa_offset 8
  33              		.cfi_offset 3, -8
  34              		.cfi_offset 14, -4
  48:Generated_Source\PSoC5/UI_ADC_PM.c ****     UI_ADC_SAR_Stop();
  35              		.loc 1 48 0
  36 0002 FFF7FEFF 		bl	UI_ADC_SAR_Stop
  37              	.LVL0:
  49:Generated_Source\PSoC5/UI_ADC_PM.c ****     UI_ADC_SAR_Sleep();
  38              		.loc 1 49 0
  39 0006 FFF7FEFF 		bl	UI_ADC_SAR_Sleep
  40              	.LVL1:
  50:Generated_Source\PSoC5/UI_ADC_PM.c ****     UI_ADC_Disable();
  41              		.loc 1 50 0
  42 000a FFF7FEFF 		bl	UI_ADC_Disable
  43              	.LVL2:
  51:Generated_Source\PSoC5/UI_ADC_PM.c **** 
  52:Generated_Source\PSoC5/UI_ADC_PM.c ****     #if(UI_ADC_CLOCK_SOURCE == UI_ADC_CLOCK_INTERNAL)
  53:Generated_Source\PSoC5/UI_ADC_PM.c ****         UI_ADC_IntClock_Stop();
  54:Generated_Source\PSoC5/UI_ADC_PM.c ****     #endif   /* UI_ADC_CLOCK_SOURCE == UI_ADC_CLOCK_INTERNAL */
  55:Generated_Source\PSoC5/UI_ADC_PM.c **** }
  44              		.loc 1 55 0
  45 000e BDE80840 		pop	{r3, lr}
  46              		.cfi_restore 14
  47              		.cfi_restore 3
  48              		.cfi_def_cfa_offset 0
  53:Generated_Source\PSoC5/UI_ADC_PM.c ****     #endif   /* UI_ADC_CLOCK_SOURCE == UI_ADC_CLOCK_INTERNAL */
  49              		.loc 1 53 0
  50 0012 FFF7FEBF 		b	UI_ADC_IntClock_Stop
  51              	.LVL3:
  52              		.cfi_endproc
  53              	.LFE0:
  54              		.size	UI_ADC_Sleep, .-UI_ADC_Sleep
  55 0016 00BF     		.section	.text.UI_ADC_Wakeup,"ax",%progbits
  56              		.align	2
  57              		.global	UI_ADC_Wakeup
  58              		.thumb
ARM GAS  C:\Users\mgronber\AppData\Local\Temp\ccz9CDgj.s 			page 3


  59              		.thumb_func
  60              		.type	UI_ADC_Wakeup, %function
  61              	UI_ADC_Wakeup:
  62              	.LFB1:
  56:Generated_Source\PSoC5/UI_ADC_PM.c **** 
  57:Generated_Source\PSoC5/UI_ADC_PM.c **** 
  58:Generated_Source\PSoC5/UI_ADC_PM.c **** /*******************************************************************************
  59:Generated_Source\PSoC5/UI_ADC_PM.c **** * Function Name: UI_ADC_Wakeup
  60:Generated_Source\PSoC5/UI_ADC_PM.c **** ********************************************************************************
  61:Generated_Source\PSoC5/UI_ADC_PM.c **** *
  62:Generated_Source\PSoC5/UI_ADC_PM.c **** * Summary:
  63:Generated_Source\PSoC5/UI_ADC_PM.c **** *  Restores the component enable state and configuration registers. This should
  64:Generated_Source\PSoC5/UI_ADC_PM.c **** *  be called just after awaking from sleep mode
  65:Generated_Source\PSoC5/UI_ADC_PM.c **** *
  66:Generated_Source\PSoC5/UI_ADC_PM.c **** * Parameters:
  67:Generated_Source\PSoC5/UI_ADC_PM.c **** *  None.
  68:Generated_Source\PSoC5/UI_ADC_PM.c **** *
  69:Generated_Source\PSoC5/UI_ADC_PM.c **** * Return:
  70:Generated_Source\PSoC5/UI_ADC_PM.c **** *  None.
  71:Generated_Source\PSoC5/UI_ADC_PM.c **** *
  72:Generated_Source\PSoC5/UI_ADC_PM.c **** * Side Effects:
  73:Generated_Source\PSoC5/UI_ADC_PM.c **** *  None.
  74:Generated_Source\PSoC5/UI_ADC_PM.c **** *
  75:Generated_Source\PSoC5/UI_ADC_PM.c **** * Reentrant:
  76:Generated_Source\PSoC5/UI_ADC_PM.c **** *  No.
  77:Generated_Source\PSoC5/UI_ADC_PM.c **** *
  78:Generated_Source\PSoC5/UI_ADC_PM.c **** *******************************************************************************/
  79:Generated_Source\PSoC5/UI_ADC_PM.c **** void UI_ADC_Wakeup(void)
  80:Generated_Source\PSoC5/UI_ADC_PM.c **** {
  63              		.loc 1 80 0
  64              		.cfi_startproc
  65              		@ args = 0, pretend = 0, frame = 0
  66              		@ frame_needed = 0, uses_anonymous_args = 0
  67 0000 08B5     		push	{r3, lr}
  68              		.cfi_def_cfa_offset 8
  69              		.cfi_offset 3, -8
  70              		.cfi_offset 14, -4
  81:Generated_Source\PSoC5/UI_ADC_PM.c ****     UI_ADC_SAR_Wakeup();
  71              		.loc 1 81 0
  72 0002 FFF7FEFF 		bl	UI_ADC_SAR_Wakeup
  73              	.LVL4:
  82:Generated_Source\PSoC5/UI_ADC_PM.c ****     UI_ADC_SAR_Enable();
  74              		.loc 1 82 0
  75 0006 FFF7FEFF 		bl	UI_ADC_SAR_Enable
  76              	.LVL5:
  83:Generated_Source\PSoC5/UI_ADC_PM.c **** 
  84:Generated_Source\PSoC5/UI_ADC_PM.c ****     #if(UI_ADC_CLOCK_SOURCE == UI_ADC_CLOCK_INTERNAL)
  85:Generated_Source\PSoC5/UI_ADC_PM.c ****         UI_ADC_IntClock_Start();
  77              		.loc 1 85 0
  78 000a FFF7FEFF 		bl	UI_ADC_IntClock_Start
  79              	.LVL6:
  86:Generated_Source\PSoC5/UI_ADC_PM.c ****     #endif   /* UI_ADC_CLOCK_SOURCE == UI_ADC_CLOCK_INTERNAL */
  87:Generated_Source\PSoC5/UI_ADC_PM.c **** 
  88:Generated_Source\PSoC5/UI_ADC_PM.c ****     /* The block is ready to use 10 us after the SAR enable signal is set high. */
  89:Generated_Source\PSoC5/UI_ADC_PM.c ****     CyDelayUs(10u);
  80              		.loc 1 89 0
  81 000e 0A20     		movs	r0, #10
ARM GAS  C:\Users\mgronber\AppData\Local\Temp\ccz9CDgj.s 			page 4


  82 0010 FFF7FEFF 		bl	CyDelayUs
  83              	.LVL7:
  90:Generated_Source\PSoC5/UI_ADC_PM.c ****     
  91:Generated_Source\PSoC5/UI_ADC_PM.c ****     UI_ADC_Enable();
  84              		.loc 1 91 0
  85 0014 FFF7FEFF 		bl	UI_ADC_Enable
  86              	.LVL8:
  92:Generated_Source\PSoC5/UI_ADC_PM.c **** 
  93:Generated_Source\PSoC5/UI_ADC_PM.c ****     #if(UI_ADC_SAMPLE_MODE == UI_ADC_SAMPLE_MODE_FREE_RUNNING)
  94:Generated_Source\PSoC5/UI_ADC_PM.c ****         UI_ADC_SAR_StartConvert();
  87              		.loc 1 94 0
  88 0018 FFF7FEFF 		bl	UI_ADC_SAR_StartConvert
  89              	.LVL9:
  95:Generated_Source\PSoC5/UI_ADC_PM.c ****     #endif /* (UI_ADC_SAMPLE_MODE == UI_ADC_SAMPLE_MODE_FREE_RUNNING) */
  96:Generated_Source\PSoC5/UI_ADC_PM.c **** 
  97:Generated_Source\PSoC5/UI_ADC_PM.c ****     (void) CY_GET_REG8(UI_ADC_STATUS_PTR);
  90              		.loc 1 97 0
  91 001c 014B     		ldr	r3, .L5
  92 001e 1B78     		ldrb	r3, [r3]	@ zero_extendqisi2
  93 0020 08BD     		pop	{r3, pc}
  94              	.L6:
  95 0022 00BF     		.align	2
  96              	.L5:
  97 0024 69640040 		.word	1073767529
  98              		.cfi_endproc
  99              	.LFE1:
 100              		.size	UI_ADC_Wakeup, .-UI_ADC_Wakeup
 101              		.section	.text.UI_ADC_SaveConfig,"ax",%progbits
 102              		.align	2
 103              		.global	UI_ADC_SaveConfig
 104              		.thumb
 105              		.thumb_func
 106              		.type	UI_ADC_SaveConfig, %function
 107              	UI_ADC_SaveConfig:
 108              	.LFB2:
  98:Generated_Source\PSoC5/UI_ADC_PM.c **** }
  99:Generated_Source\PSoC5/UI_ADC_PM.c **** 
 100:Generated_Source\PSoC5/UI_ADC_PM.c **** 
 101:Generated_Source\PSoC5/UI_ADC_PM.c **** /*******************************************************************************
 102:Generated_Source\PSoC5/UI_ADC_PM.c **** * Function Name: UI_ADC_SaveConfig
 103:Generated_Source\PSoC5/UI_ADC_PM.c **** ********************************************************************************
 104:Generated_Source\PSoC5/UI_ADC_PM.c **** *
 105:Generated_Source\PSoC5/UI_ADC_PM.c **** * Summary:
 106:Generated_Source\PSoC5/UI_ADC_PM.c **** *  Save the current configuration of ADC non-retention registers
 107:Generated_Source\PSoC5/UI_ADC_PM.c **** *
 108:Generated_Source\PSoC5/UI_ADC_PM.c **** * Parameters:
 109:Generated_Source\PSoC5/UI_ADC_PM.c **** *  None.
 110:Generated_Source\PSoC5/UI_ADC_PM.c **** *
 111:Generated_Source\PSoC5/UI_ADC_PM.c **** * Return:
 112:Generated_Source\PSoC5/UI_ADC_PM.c **** *  None.
 113:Generated_Source\PSoC5/UI_ADC_PM.c **** *
 114:Generated_Source\PSoC5/UI_ADC_PM.c **** * Side Effects:
 115:Generated_Source\PSoC5/UI_ADC_PM.c **** *  None.
 116:Generated_Source\PSoC5/UI_ADC_PM.c **** *
 117:Generated_Source\PSoC5/UI_ADC_PM.c **** * Reentrant:
 118:Generated_Source\PSoC5/UI_ADC_PM.c **** *  No.
 119:Generated_Source\PSoC5/UI_ADC_PM.c **** *
ARM GAS  C:\Users\mgronber\AppData\Local\Temp\ccz9CDgj.s 			page 5


 120:Generated_Source\PSoC5/UI_ADC_PM.c **** *******************************************************************************/
 121:Generated_Source\PSoC5/UI_ADC_PM.c **** void UI_ADC_SaveConfig(void)
 122:Generated_Source\PSoC5/UI_ADC_PM.c **** {
 109              		.loc 1 122 0
 110              		.cfi_startproc
 111              		@ args = 0, pretend = 0, frame = 0
 112              		@ frame_needed = 0, uses_anonymous_args = 0
 113              		@ link register save eliminated.
 114 0000 7047     		bx	lr
 115              		.cfi_endproc
 116              	.LFE2:
 117              		.size	UI_ADC_SaveConfig, .-UI_ADC_SaveConfig
 118 0002 00BF     		.section	.text.UI_ADC_RestoreConfig,"ax",%progbits
 119              		.align	2
 120              		.global	UI_ADC_RestoreConfig
 121              		.thumb
 122              		.thumb_func
 123              		.type	UI_ADC_RestoreConfig, %function
 124              	UI_ADC_RestoreConfig:
 125              	.LFB3:
 123:Generated_Source\PSoC5/UI_ADC_PM.c **** 
 124:Generated_Source\PSoC5/UI_ADC_PM.c **** }
 125:Generated_Source\PSoC5/UI_ADC_PM.c **** 
 126:Generated_Source\PSoC5/UI_ADC_PM.c **** 
 127:Generated_Source\PSoC5/UI_ADC_PM.c **** /*******************************************************************************
 128:Generated_Source\PSoC5/UI_ADC_PM.c **** * Function Name: UI_ADC_RestoreConfig
 129:Generated_Source\PSoC5/UI_ADC_PM.c **** ********************************************************************************
 130:Generated_Source\PSoC5/UI_ADC_PM.c **** *
 131:Generated_Source\PSoC5/UI_ADC_PM.c **** * Summary:
 132:Generated_Source\PSoC5/UI_ADC_PM.c **** *  Restores the configuration of ADC non-retention registers
 133:Generated_Source\PSoC5/UI_ADC_PM.c **** *
 134:Generated_Source\PSoC5/UI_ADC_PM.c **** * Parameters:
 135:Generated_Source\PSoC5/UI_ADC_PM.c **** *  None.
 136:Generated_Source\PSoC5/UI_ADC_PM.c **** *
 137:Generated_Source\PSoC5/UI_ADC_PM.c **** * Return:
 138:Generated_Source\PSoC5/UI_ADC_PM.c **** *  None.
 139:Generated_Source\PSoC5/UI_ADC_PM.c **** *
 140:Generated_Source\PSoC5/UI_ADC_PM.c **** * Side Effects:
 141:Generated_Source\PSoC5/UI_ADC_PM.c **** *  None.
 142:Generated_Source\PSoC5/UI_ADC_PM.c **** *
 143:Generated_Source\PSoC5/UI_ADC_PM.c **** * Reentrant:
 144:Generated_Source\PSoC5/UI_ADC_PM.c **** *  No.
 145:Generated_Source\PSoC5/UI_ADC_PM.c **** *
 146:Generated_Source\PSoC5/UI_ADC_PM.c **** *******************************************************************************/
 147:Generated_Source\PSoC5/UI_ADC_PM.c **** void UI_ADC_RestoreConfig(void)
 148:Generated_Source\PSoC5/UI_ADC_PM.c **** {
 126              		.loc 1 148 0
 127              		.cfi_startproc
 128              		@ args = 0, pretend = 0, frame = 0
 129              		@ frame_needed = 0, uses_anonymous_args = 0
 130              		@ link register save eliminated.
 131 0000 7047     		bx	lr
 132              		.cfi_endproc
 133              	.LFE3:
 134              		.size	UI_ADC_RestoreConfig, .-UI_ADC_RestoreConfig
 135 0002 00BF     		.text
 136              	.Letext0:
ARM GAS  C:\Users\mgronber\AppData\Local\Temp\ccz9CDgj.s 			page 6


 137              		.file 2 "Generated_Source\\PSoC5\\cytypes.h"
 138              		.file 3 "Generated_Source\\PSoC5\\UI_ADC_SAR.h"
 139              		.file 4 "Generated_Source\\PSoC5\\UI_ADC.h"
 140              		.file 5 "Generated_Source\\PSoC5\\UI_ADC_IntClock.h"
 141              		.file 6 "Generated_Source\\PSoC5\\CyLib.h"