ARM GAS  C:\Users\jwvance\AppData\Local\Temp\ccPkDmAP.s 			page 1


   1              		.syntax unified
   2              		.cpu cortex-m3
   3              		.fpu softvfp
   4              		.eabi_attribute 20, 1
   5              		.eabi_attribute 21, 1
   6              		.eabi_attribute 23, 3
   7              		.eabi_attribute 24, 1
   8              		.eabi_attribute 25, 1
   9              		.eabi_attribute 26, 1
  10              		.eabi_attribute 30, 2
  11              		.eabi_attribute 34, 1
  12              		.eabi_attribute 18, 4
  13              		.thumb
  14              		.file	"UI_ADC.c"
  15              		.text
  16              	.Ltext0:
  17              		.cfi_sections	.debug_frame
  18              		.section	.text.UI_ADC_Disable,"ax",%progbits
  19              		.align	2
  20              		.global	UI_ADC_Disable
  21              		.thumb
  22              		.thumb_func
  23              		.type	UI_ADC_Disable, %function
  24              	UI_ADC_Disable:
  25              	.LFB0:
  26              		.file 1 "Generated_Source\\PSoC5\\UI_ADC.c"
   1:Generated_Source\PSoC5/UI_ADC.c **** /*******************************************************************************
   2:Generated_Source\PSoC5/UI_ADC.c **** * File Name: UI_ADC.c
   3:Generated_Source\PSoC5/UI_ADC.c **** * Version 2.0
   4:Generated_Source\PSoC5/UI_ADC.c **** *
   5:Generated_Source\PSoC5/UI_ADC.c **** * Description:
   6:Generated_Source\PSoC5/UI_ADC.c **** *  This file provides the API functionality of the ADC SAR Sequencer Component
   7:Generated_Source\PSoC5/UI_ADC.c **** *
   8:Generated_Source\PSoC5/UI_ADC.c **** * Note:
   9:Generated_Source\PSoC5/UI_ADC.c **** *  None
  10:Generated_Source\PSoC5/UI_ADC.c **** *
  11:Generated_Source\PSoC5/UI_ADC.c **** ********************************************************************************
  12:Generated_Source\PSoC5/UI_ADC.c **** * Copyright 2012-2015, Cypress Semiconductor Corporation.  All rights reserved.
  13:Generated_Source\PSoC5/UI_ADC.c **** * You may use this file only in accordance with the license, terms, conditions,
  14:Generated_Source\PSoC5/UI_ADC.c **** * disclaimers, and limitations in the end user license agreement accompanying
  15:Generated_Source\PSoC5/UI_ADC.c **** * the software package with which this file was provided.
  16:Generated_Source\PSoC5/UI_ADC.c **** *******************************************************************************/
  17:Generated_Source\PSoC5/UI_ADC.c **** 
  18:Generated_Source\PSoC5/UI_ADC.c **** #include "UI_ADC.h"
  19:Generated_Source\PSoC5/UI_ADC.c **** #if(UI_ADC_IRQ_REMOVE == 0u)
  20:Generated_Source\PSoC5/UI_ADC.c ****     #include "UI_ADC_IRQ.h"
  21:Generated_Source\PSoC5/UI_ADC.c **** #endif   /* End UI_ADC_IRQ_REMOVE */
  22:Generated_Source\PSoC5/UI_ADC.c **** 
  23:Generated_Source\PSoC5/UI_ADC.c **** int16  UI_ADC_finalArray[UI_ADC_NUMBER_OF_CHANNELS];
  24:Generated_Source\PSoC5/UI_ADC.c **** uint32 UI_ADC_initVar = 0u;
  25:Generated_Source\PSoC5/UI_ADC.c **** static uint8 UI_ADC_tempChan;
  26:Generated_Source\PSoC5/UI_ADC.c **** static uint8 UI_ADC_finalChan;
  27:Generated_Source\PSoC5/UI_ADC.c **** static uint8 UI_ADC_tempTD = CY_DMA_INVALID_TD;
  28:Generated_Source\PSoC5/UI_ADC.c **** static uint8 UI_ADC_finalTD = CY_DMA_INVALID_TD;
  29:Generated_Source\PSoC5/UI_ADC.c **** 
  30:Generated_Source\PSoC5/UI_ADC.c **** 
  31:Generated_Source\PSoC5/UI_ADC.c **** /****************************************************************************
ARM GAS  C:\Users\jwvance\AppData\Local\Temp\ccPkDmAP.s 			page 2


  32:Generated_Source\PSoC5/UI_ADC.c **** * Function Name: UI_ADC_Disable()
  33:Generated_Source\PSoC5/UI_ADC.c **** *****************************************************************************
  34:Generated_Source\PSoC5/UI_ADC.c **** *
  35:Generated_Source\PSoC5/UI_ADC.c **** * Summary:
  36:Generated_Source\PSoC5/UI_ADC.c **** *  Disables the component without disabling the ADC SAR.
  37:Generated_Source\PSoC5/UI_ADC.c **** *
  38:Generated_Source\PSoC5/UI_ADC.c **** * Parameters:
  39:Generated_Source\PSoC5/UI_ADC.c **** *  None.
  40:Generated_Source\PSoC5/UI_ADC.c **** *
  41:Generated_Source\PSoC5/UI_ADC.c **** * Return:
  42:Generated_Source\PSoC5/UI_ADC.c **** *  None.
  43:Generated_Source\PSoC5/UI_ADC.c **** *
  44:Generated_Source\PSoC5/UI_ADC.c **** * Side Effects:
  45:Generated_Source\PSoC5/UI_ADC.c **** *  None.
  46:Generated_Source\PSoC5/UI_ADC.c **** *
  47:Generated_Source\PSoC5/UI_ADC.c **** * Reentrant:
  48:Generated_Source\PSoC5/UI_ADC.c **** *  No.
  49:Generated_Source\PSoC5/UI_ADC.c **** *
  50:Generated_Source\PSoC5/UI_ADC.c **** ****************************************************************************/
  51:Generated_Source\PSoC5/UI_ADC.c **** void UI_ADC_Disable(void)
  52:Generated_Source\PSoC5/UI_ADC.c **** {
  27              		.loc 1 52 0
  28              		.cfi_startproc
  29              		@ args = 0, pretend = 0, frame = 0
  30              		@ frame_needed = 0, uses_anonymous_args = 0
  31 0000 70B5     		push	{r4, r5, r6, lr}
  32              		.cfi_def_cfa_offset 16
  33              		.cfi_offset 4, -16
  34              		.cfi_offset 5, -12
  35              		.cfi_offset 6, -8
  36              		.cfi_offset 14, -4
  53:Generated_Source\PSoC5/UI_ADC.c ****     UI_ADC_CONTROL_REG &= ((uint8)(~UI_ADC_BASE_COMPONENT_ENABLE));
  37              		.loc 1 53 0
  38 0002 0B4A     		ldr	r2, .L3
  54:Generated_Source\PSoC5/UI_ADC.c **** 
  55:Generated_Source\PSoC5/UI_ADC.c ****     (void) CyDmaChDisable(UI_ADC_tempChan);
  39              		.loc 1 55 0
  40 0004 0B4E     		ldr	r6, .L3+4
  53:Generated_Source\PSoC5/UI_ADC.c ****     UI_ADC_CONTROL_REG &= ((uint8)(~UI_ADC_BASE_COMPONENT_ENABLE));
  41              		.loc 1 53 0
  42 0006 1378     		ldrb	r3, [r2]	@ zero_extendqisi2
  56:Generated_Source\PSoC5/UI_ADC.c ****     CyDmaTdFree(UI_ADC_tempTD);
  43              		.loc 1 56 0
  44 0008 0B4C     		ldr	r4, .L3+8
  53:Generated_Source\PSoC5/UI_ADC.c ****     UI_ADC_CONTROL_REG &= ((uint8)(~UI_ADC_BASE_COMPONENT_ENABLE));
  45              		.loc 1 53 0
  46 000a 03F0FE03 		and	r3, r3, #254
  47 000e 1370     		strb	r3, [r2]
  55:Generated_Source\PSoC5/UI_ADC.c ****     CyDmaTdFree(UI_ADC_tempTD);
  48              		.loc 1 55 0
  49 0010 3078     		ldrb	r0, [r6]	@ zero_extendqisi2
  50 0012 FFF7FEFF 		bl	CyDmaChDisable
  51              	.LVL0:
  52              		.loc 1 56 0
  53 0016 2078     		ldrb	r0, [r4]	@ zero_extendqisi2
  54 0018 FFF7FEFF 		bl	CyDmaTdFree
  55              	.LVL1:
ARM GAS  C:\Users\jwvance\AppData\Local\Temp\ccPkDmAP.s 			page 3


  57:Generated_Source\PSoC5/UI_ADC.c ****     UI_ADC_tempTD = CY_DMA_INVALID_TD;
  56              		.loc 1 57 0
  57 001c FF25     		movs	r5, #255
  58:Generated_Source\PSoC5/UI_ADC.c **** 
  59:Generated_Source\PSoC5/UI_ADC.c ****     (void) CyDmaChDisable(UI_ADC_finalChan);
  58              		.loc 1 59 0
  59 001e 7078     		ldrb	r0, [r6, #1]	@ zero_extendqisi2
  57:Generated_Source\PSoC5/UI_ADC.c ****     UI_ADC_tempTD = CY_DMA_INVALID_TD;
  60              		.loc 1 57 0
  61 0020 2570     		strb	r5, [r4]
  62              		.loc 1 59 0
  63 0022 FFF7FEFF 		bl	CyDmaChDisable
  64              	.LVL2:
  60:Generated_Source\PSoC5/UI_ADC.c ****     CyDmaTdFree(UI_ADC_finalTD);
  65              		.loc 1 60 0
  66 0026 6078     		ldrb	r0, [r4, #1]	@ zero_extendqisi2
  67 0028 FFF7FEFF 		bl	CyDmaTdFree
  68              	.LVL3:
  61:Generated_Source\PSoC5/UI_ADC.c ****     UI_ADC_finalTD = CY_DMA_INVALID_TD;
  69              		.loc 1 61 0
  70 002c 6570     		strb	r5, [r4, #1]
  71 002e 70BD     		pop	{r4, r5, r6, pc}
  72              	.L4:
  73              		.align	2
  74              	.L3:
  75 0030 79640040 		.word	1073767545
  76 0034 00000000 		.word	.LANCHOR0
  77 0038 00000000 		.word	.LANCHOR1
  78              		.cfi_endproc
  79              	.LFE0:
  80              		.size	UI_ADC_Disable, .-UI_ADC_Disable
  81              		.section	.text.UI_ADC_Init,"ax",%progbits
  82              		.align	2
  83              		.global	UI_ADC_Init
  84              		.thumb
  85              		.thumb_func
  86              		.type	UI_ADC_Init, %function
  87              	UI_ADC_Init:
  88              	.LFB1:
  62:Generated_Source\PSoC5/UI_ADC.c **** }
  63:Generated_Source\PSoC5/UI_ADC.c **** 
  64:Generated_Source\PSoC5/UI_ADC.c **** 
  65:Generated_Source\PSoC5/UI_ADC.c **** /*******************************************************************************
  66:Generated_Source\PSoC5/UI_ADC.c **** * Function Name: UI_ADC_Init
  67:Generated_Source\PSoC5/UI_ADC.c **** ********************************************************************************
  68:Generated_Source\PSoC5/UI_ADC.c **** *
  69:Generated_Source\PSoC5/UI_ADC.c **** * Summary:
  70:Generated_Source\PSoC5/UI_ADC.c **** *  Inits channels for DMA transfer. Provides loading period to the AMUX address
  71:Generated_Source\PSoC5/UI_ADC.c **** *  selection counter
  72:Generated_Source\PSoC5/UI_ADC.c **** *
  73:Generated_Source\PSoC5/UI_ADC.c **** * Parameters:
  74:Generated_Source\PSoC5/UI_ADC.c **** *  None.
  75:Generated_Source\PSoC5/UI_ADC.c **** *
  76:Generated_Source\PSoC5/UI_ADC.c **** * Return:
  77:Generated_Source\PSoC5/UI_ADC.c **** *  None.
  78:Generated_Source\PSoC5/UI_ADC.c **** *
  79:Generated_Source\PSoC5/UI_ADC.c **** * Reentrant:
ARM GAS  C:\Users\jwvance\AppData\Local\Temp\ccPkDmAP.s 			page 4


  80:Generated_Source\PSoC5/UI_ADC.c **** *  No.
  81:Generated_Source\PSoC5/UI_ADC.c **** *
  82:Generated_Source\PSoC5/UI_ADC.c **** *******************************************************************************/
  83:Generated_Source\PSoC5/UI_ADC.c **** void UI_ADC_Init(void)
  84:Generated_Source\PSoC5/UI_ADC.c **** {
  89              		.loc 1 84 0
  90              		.cfi_startproc
  91              		@ args = 0, pretend = 0, frame = 0
  92              		@ frame_needed = 0, uses_anonymous_args = 0
  93 0000 10B5     		push	{r4, lr}
  94              		.cfi_def_cfa_offset 8
  95              		.cfi_offset 4, -8
  96              		.cfi_offset 14, -4
  85:Generated_Source\PSoC5/UI_ADC.c ****     /* Init DMA, 2 bytes bursts, each burst requires a request */
  86:Generated_Source\PSoC5/UI_ADC.c ****     UI_ADC_tempChan = UI_ADC_TempBuf_DmaInitialize(UI_ADC_TEMP_BYTES_PER_BURST,
  97              		.loc 1 86 0
  98 0002 0121     		movs	r1, #1
  99 0004 4FF48042 		mov	r2, #16384
 100 0008 41F6FF73 		movw	r3, #8191
 101 000c 0220     		movs	r0, #2
 102 000e FFF7FEFF 		bl	UI_ADC_TempBuf_DmaInitialize
 103              	.LVL4:
  87:Generated_Source\PSoC5/UI_ADC.c ****         UI_ADC_REQUEST_PER_BURST, (uint16)(HI16(CYDEV_PERIPH_BASE)), (uint16)(HI16(CYDEV_SRAM_BASE)
  88:Generated_Source\PSoC5/UI_ADC.c **** 
  89:Generated_Source\PSoC5/UI_ADC.c ****     /* Init DMA, (UI_ADC_NUMBER_OF_CHANNELS << 1u) bytes bursts, each burst requires a request */
  90:Generated_Source\PSoC5/UI_ADC.c ****     UI_ADC_finalChan = UI_ADC_FinalBuf_DmaInitialize((uint8)UI_ADC_FINAL_BYTES_PER_BURST,
 104              		.loc 1 90 0
 105 0012 41F6FF72 		movw	r2, #8191
  86:Generated_Source\PSoC5/UI_ADC.c ****         UI_ADC_REQUEST_PER_BURST, (uint16)(HI16(CYDEV_PERIPH_BASE)), (uint16)(HI16(CYDEV_SRAM_BASE)
 106              		.loc 1 86 0
 107 0016 084C     		ldr	r4, .L7
 108              		.loc 1 90 0
 109 0018 1346     		mov	r3, r2
  86:Generated_Source\PSoC5/UI_ADC.c ****         UI_ADC_REQUEST_PER_BURST, (uint16)(HI16(CYDEV_PERIPH_BASE)), (uint16)(HI16(CYDEV_SRAM_BASE)
 110              		.loc 1 86 0
 111 001a 2070     		strb	r0, [r4]
 112              		.loc 1 90 0
 113 001c 0121     		movs	r1, #1
 114 001e 0820     		movs	r0, #8
 115 0020 FFF7FEFF 		bl	UI_ADC_FinalBuf_DmaInitialize
 116              	.LVL5:
 117 0024 6070     		strb	r0, [r4, #1]
  91:Generated_Source\PSoC5/UI_ADC.c ****         UI_ADC_REQUEST_PER_BURST, (uint16)(HI16(CYDEV_SRAM_BASE)), (uint16)(HI16(CYDEV_SRAM_BASE)))
  92:Generated_Source\PSoC5/UI_ADC.c **** 
  93:Generated_Source\PSoC5/UI_ADC.c ****     #if(UI_ADC_IRQ_REMOVE == 0u)
  94:Generated_Source\PSoC5/UI_ADC.c ****         /* Set the ISR to point to the UI_ADC_IRQ Interrupt. */
  95:Generated_Source\PSoC5/UI_ADC.c ****         UI_ADC_IRQ_SetVector(&UI_ADC_ISR);
 118              		.loc 1 95 0
 119 0026 0548     		ldr	r0, .L7+4
 120 0028 FFF7FEFF 		bl	UI_ADC_IRQ_SetVector
 121              	.LVL6:
  96:Generated_Source\PSoC5/UI_ADC.c ****         /* Set the priority. */
  97:Generated_Source\PSoC5/UI_ADC.c ****         UI_ADC_IRQ_SetPriority((uint8)UI_ADC_INTC_NUMBER);
  98:Generated_Source\PSoC5/UI_ADC.c ****     #endif   /* End UI_ADC_IRQ_REMOVE */
  99:Generated_Source\PSoC5/UI_ADC.c **** 
 100:Generated_Source\PSoC5/UI_ADC.c **** }
 122              		.loc 1 100 0
ARM GAS  C:\Users\jwvance\AppData\Local\Temp\ccPkDmAP.s 			page 5


 123 002c BDE81040 		pop	{r4, lr}
 124              		.cfi_restore 14
 125              		.cfi_restore 4
 126              		.cfi_def_cfa_offset 0
  97:Generated_Source\PSoC5/UI_ADC.c ****     #endif   /* End UI_ADC_IRQ_REMOVE */
 127              		.loc 1 97 0
 128 0030 0720     		movs	r0, #7
 129 0032 FFF7FEBF 		b	UI_ADC_IRQ_SetPriority
 130              	.LVL7:
 131              	.L8:
 132 0036 00BF     		.align	2
 133              	.L7:
 134 0038 00000000 		.word	.LANCHOR0
 135 003c 00000000 		.word	UI_ADC_ISR
 136              		.cfi_endproc
 137              	.LFE1:
 138              		.size	UI_ADC_Init, .-UI_ADC_Init
 139              		.section	.text.UI_ADC_Enable,"ax",%progbits
 140              		.align	2
 141              		.global	UI_ADC_Enable
 142              		.thumb
 143              		.thumb_func
 144              		.type	UI_ADC_Enable, %function
 145              	UI_ADC_Enable:
 146              	.LFB2:
 101:Generated_Source\PSoC5/UI_ADC.c **** 
 102:Generated_Source\PSoC5/UI_ADC.c **** 
 103:Generated_Source\PSoC5/UI_ADC.c **** /*******************************************************************************
 104:Generated_Source\PSoC5/UI_ADC.c **** * Function Name: UI_ADC_Enable
 105:Generated_Source\PSoC5/UI_ADC.c **** ********************************************************************************
 106:Generated_Source\PSoC5/UI_ADC.c **** *
 107:Generated_Source\PSoC5/UI_ADC.c **** * Summary:
 108:Generated_Source\PSoC5/UI_ADC.c **** *  Enables DMA channels, address selection counter and FSM of Base component
 109:Generated_Source\PSoC5/UI_ADC.c **** *
 110:Generated_Source\PSoC5/UI_ADC.c **** * Parameters:
 111:Generated_Source\PSoC5/UI_ADC.c **** *  None.
 112:Generated_Source\PSoC5/UI_ADC.c **** *
 113:Generated_Source\PSoC5/UI_ADC.c **** * Return:
 114:Generated_Source\PSoC5/UI_ADC.c **** *  None.
 115:Generated_Source\PSoC5/UI_ADC.c **** *
 116:Generated_Source\PSoC5/UI_ADC.c **** * Side Effects:
 117:Generated_Source\PSoC5/UI_ADC.c **** *  None.
 118:Generated_Source\PSoC5/UI_ADC.c **** *
 119:Generated_Source\PSoC5/UI_ADC.c **** * Reentrant:
 120:Generated_Source\PSoC5/UI_ADC.c **** *  No.
 121:Generated_Source\PSoC5/UI_ADC.c **** *
 122:Generated_Source\PSoC5/UI_ADC.c **** *******************************************************************************/
 123:Generated_Source\PSoC5/UI_ADC.c **** void UI_ADC_Enable(void)
 124:Generated_Source\PSoC5/UI_ADC.c **** {
 147              		.loc 1 124 0
 148              		.cfi_startproc
 149              		@ args = 0, pretend = 0, frame = 0
 150              		@ frame_needed = 0, uses_anonymous_args = 0
 151 0000 F8B5     		push	{r3, r4, r5, r6, r7, lr}
 152              		.cfi_def_cfa_offset 24
 153              		.cfi_offset 3, -24
 154              		.cfi_offset 4, -20
ARM GAS  C:\Users\jwvance\AppData\Local\Temp\ccPkDmAP.s 			page 6


 155              		.cfi_offset 5, -16
 156              		.cfi_offset 6, -12
 157              		.cfi_offset 7, -8
 158              		.cfi_offset 14, -4
 125:Generated_Source\PSoC5/UI_ADC.c ****     uint8 enableInterrupts;
 126:Generated_Source\PSoC5/UI_ADC.c **** 
 127:Generated_Source\PSoC5/UI_ADC.c ****     static int16 UI_ADC_tempArray[UI_ADC_NUMBER_OF_CHANNELS];
 128:Generated_Source\PSoC5/UI_ADC.c ****     
 129:Generated_Source\PSoC5/UI_ADC.c ****     (void)CyDmaClearPendingDrq(UI_ADC_tempChan);
 159              		.loc 1 129 0
 160 0002 2A4D     		ldr	r5, .L16
 130:Generated_Source\PSoC5/UI_ADC.c ****     (void)CyDmaClearPendingDrq(UI_ADC_finalChan);
 131:Generated_Source\PSoC5/UI_ADC.c ****     
 132:Generated_Source\PSoC5/UI_ADC.c ****     
 133:Generated_Source\PSoC5/UI_ADC.c ****     /* Provides initialization procedure for the TempBuf DMA
 134:Generated_Source\PSoC5/UI_ADC.c ****     * Configure this Td as follows:
 135:Generated_Source\PSoC5/UI_ADC.c ****     *  - The TD is looping on itself
 136:Generated_Source\PSoC5/UI_ADC.c ****     *  - Increment the destination address, but not the source address
 137:Generated_Source\PSoC5/UI_ADC.c ****     */
 138:Generated_Source\PSoC5/UI_ADC.c **** 
 139:Generated_Source\PSoC5/UI_ADC.c ****     if (UI_ADC_tempTD == DMA_INVALID_TD)
 161              		.loc 1 139 0
 162 0004 2A4C     		ldr	r4, .L16+4
 129:Generated_Source\PSoC5/UI_ADC.c ****     (void)CyDmaClearPendingDrq(UI_ADC_finalChan);
 163              		.loc 1 129 0
 164 0006 2878     		ldrb	r0, [r5]	@ zero_extendqisi2
 165 0008 FFF7FEFF 		bl	CyDmaClearPendingDrq
 166              	.LVL8:
 130:Generated_Source\PSoC5/UI_ADC.c ****     (void)CyDmaClearPendingDrq(UI_ADC_finalChan);
 167              		.loc 1 130 0
 168 000c 6878     		ldrb	r0, [r5, #1]	@ zero_extendqisi2
 169 000e FFF7FEFF 		bl	CyDmaClearPendingDrq
 170              	.LVL9:
 171              		.loc 1 139 0
 172 0012 2078     		ldrb	r0, [r4]	@ zero_extendqisi2
 173 0014 FF28     		cmp	r0, #255
 174 0016 45D0     		beq	.L14
 175              	.L10:
 140:Generated_Source\PSoC5/UI_ADC.c ****     {
 141:Generated_Source\PSoC5/UI_ADC.c ****         UI_ADC_tempTD = CyDmaTdAllocate();
 142:Generated_Source\PSoC5/UI_ADC.c ****     }
 143:Generated_Source\PSoC5/UI_ADC.c **** 
 144:Generated_Source\PSoC5/UI_ADC.c ****     (void) CyDmaTdSetConfiguration(UI_ADC_tempTD, UI_ADC_TEMP_TRANSFER_COUNT,
 145:Generated_Source\PSoC5/UI_ADC.c ****         UI_ADC_tempTD, ((uint8)UI_ADC_TempBuf__TD_TERMOUT_EN | (uint8)TD_INC_DST_ADR));
 146:Generated_Source\PSoC5/UI_ADC.c **** 
 147:Generated_Source\PSoC5/UI_ADC.c ****     /* From the SAR to the TempArray */
 148:Generated_Source\PSoC5/UI_ADC.c ****     (void) CyDmaTdSetAddress(UI_ADC_tempTD, (uint16)(LO16((uint32)UI_ADC_SAR_DATA_ADDR_0)),
 176              		.loc 1 148 0
 177 0018 264E     		ldr	r6, .L16+8
 144:Generated_Source\PSoC5/UI_ADC.c ****         UI_ADC_tempTD, ((uint8)UI_ADC_TempBuf__TD_TERMOUT_EN | (uint8)TD_INC_DST_ADR));
 178              		.loc 1 144 0
 179 001a 0623     		movs	r3, #6
 180 001c 0246     		mov	r2, r0
 181 001e 0821     		movs	r1, #8
 182              		.loc 1 148 0
 183 0020 B6B2     		uxth	r6, r6
 144:Generated_Source\PSoC5/UI_ADC.c ****         UI_ADC_tempTD, ((uint8)UI_ADC_TempBuf__TD_TERMOUT_EN | (uint8)TD_INC_DST_ADR));
ARM GAS  C:\Users\jwvance\AppData\Local\Temp\ccPkDmAP.s 			page 7


 184              		.loc 1 144 0
 185 0022 FFF7FEFF 		bl	CyDmaTdSetConfiguration
 186              	.LVL10:
 187              		.loc 1 148 0
 188 0026 3246     		mov	r2, r6
 189 0028 45F6A031 		movw	r1, #23456
 190 002c 2078     		ldrb	r0, [r4]	@ zero_extendqisi2
 191 002e FFF7FEFF 		bl	CyDmaTdSetAddress
 192              	.LVL11:
 149:Generated_Source\PSoC5/UI_ADC.c ****         (uint16)(LO16((uint32)UI_ADC_tempArray)));
 150:Generated_Source\PSoC5/UI_ADC.c **** 
 151:Generated_Source\PSoC5/UI_ADC.c ****     /* Associate the TD with the channel */
 152:Generated_Source\PSoC5/UI_ADC.c ****     (void) CyDmaChSetInitialTd(UI_ADC_tempChan, UI_ADC_tempTD);
 193              		.loc 1 152 0
 194 0032 2878     		ldrb	r0, [r5]	@ zero_extendqisi2
 195 0034 2178     		ldrb	r1, [r4]	@ zero_extendqisi2
 196 0036 FFF7FEFF 		bl	CyDmaChSetInitialTd
 197              	.LVL12:
 153:Generated_Source\PSoC5/UI_ADC.c **** 
 154:Generated_Source\PSoC5/UI_ADC.c **** 
 155:Generated_Source\PSoC5/UI_ADC.c ****     /* Provides initialization procedure for the FinalBuf DMA
 156:Generated_Source\PSoC5/UI_ADC.c ****     * Configure this Td as follows:
 157:Generated_Source\PSoC5/UI_ADC.c ****     *  - The TD is looping on itself
 158:Generated_Source\PSoC5/UI_ADC.c ****     *  - Increment the source and destination address
 159:Generated_Source\PSoC5/UI_ADC.c ****     */
 160:Generated_Source\PSoC5/UI_ADC.c **** 
 161:Generated_Source\PSoC5/UI_ADC.c ****     if (UI_ADC_finalTD == DMA_INVALID_TD)
 198              		.loc 1 161 0
 199 003a 6078     		ldrb	r0, [r4, #1]	@ zero_extendqisi2
 148:Generated_Source\PSoC5/UI_ADC.c ****         (uint16)(LO16((uint32)UI_ADC_tempArray)));
 200              		.loc 1 148 0
 201 003c 1C4F     		ldr	r7, .L16+4
 202              		.loc 1 161 0
 203 003e FF28     		cmp	r0, #255
 204 0040 2CD0     		beq	.L15
 205              	.L11:
 162:Generated_Source\PSoC5/UI_ADC.c ****     {
 163:Generated_Source\PSoC5/UI_ADC.c ****         UI_ADC_finalTD = CyDmaTdAllocate();
 164:Generated_Source\PSoC5/UI_ADC.c ****     }
 165:Generated_Source\PSoC5/UI_ADC.c ****     
 166:Generated_Source\PSoC5/UI_ADC.c ****     (void) CyDmaTdSetConfiguration(UI_ADC_finalTD, (UI_ADC_FINAL_BYTES_PER_BURST),
 206              		.loc 1 166 0
 207 0042 0723     		movs	r3, #7
 208 0044 0246     		mov	r2, r0
 209 0046 0821     		movs	r1, #8
 210 0048 FFF7FEFF 		bl	CyDmaTdSetConfiguration
 211              	.LVL13:
 167:Generated_Source\PSoC5/UI_ADC.c ****         UI_ADC_finalTD, ((uint8)(UI_ADC_FinalBuf__TD_TERMOUT_EN) | (uint8)TD_INC_SRC_ADR |
 168:Generated_Source\PSoC5/UI_ADC.c ****             (uint8)TD_INC_DST_ADR));
 169:Generated_Source\PSoC5/UI_ADC.c **** 
 170:Generated_Source\PSoC5/UI_ADC.c ****     /* From the the TempArray to Final Array */
 171:Generated_Source\PSoC5/UI_ADC.c ****     (void) CyDmaTdSetAddress(UI_ADC_finalTD, (uint16)(LO16((uint32)UI_ADC_tempArray)),
 212              		.loc 1 171 0
 213 004c 1A4A     		ldr	r2, .L16+12
 214 004e 3146     		mov	r1, r6
 215 0050 92B2     		uxth	r2, r2
 216 0052 6078     		ldrb	r0, [r4, #1]	@ zero_extendqisi2
ARM GAS  C:\Users\jwvance\AppData\Local\Temp\ccPkDmAP.s 			page 8


 217 0054 FFF7FEFF 		bl	CyDmaTdSetAddress
 218              	.LVL14:
 172:Generated_Source\PSoC5/UI_ADC.c ****         (uint16)(LO16((uint32)UI_ADC_finalArray)));
 173:Generated_Source\PSoC5/UI_ADC.c **** 
 174:Generated_Source\PSoC5/UI_ADC.c ****     /* Associate the TD with the channel */
 175:Generated_Source\PSoC5/UI_ADC.c ****     (void) CyDmaChSetInitialTd(UI_ADC_finalChan, UI_ADC_finalTD);
 219              		.loc 1 175 0
 220 0058 6178     		ldrb	r1, [r4, #1]	@ zero_extendqisi2
 221 005a 6878     		ldrb	r0, [r5, #1]	@ zero_extendqisi2
 222 005c FFF7FEFF 		bl	CyDmaChSetInitialTd
 223              	.LVL15:
 176:Generated_Source\PSoC5/UI_ADC.c ****     
 177:Generated_Source\PSoC5/UI_ADC.c ****     (void) CyDmaChEnable(UI_ADC_tempChan, 1u);
 224              		.loc 1 177 0
 225 0060 0121     		movs	r1, #1
 226 0062 2878     		ldrb	r0, [r5]	@ zero_extendqisi2
 227 0064 FFF7FEFF 		bl	CyDmaChEnable
 228              	.LVL16:
 178:Generated_Source\PSoC5/UI_ADC.c ****     (void) CyDmaChEnable(UI_ADC_finalChan, 1u);
 229              		.loc 1 178 0
 230 0068 0121     		movs	r1, #1
 231 006a 6878     		ldrb	r0, [r5, #1]	@ zero_extendqisi2
 232 006c FFF7FEFF 		bl	CyDmaChEnable
 233              	.LVL17:
 179:Generated_Source\PSoC5/UI_ADC.c **** 
 180:Generated_Source\PSoC5/UI_ADC.c ****     /* Enable Counter and give Enable pulse to set an address of the last channel */
 181:Generated_Source\PSoC5/UI_ADC.c ****     enableInterrupts = CyEnterCriticalSection();
 234              		.loc 1 181 0
 235 0070 FFF7FEFF 		bl	CyEnterCriticalSection
 236              	.LVL18:
 182:Generated_Source\PSoC5/UI_ADC.c ****     UI_ADC_CYCLE_COUNTER_AUX_CONTROL_REG |= ((uint8)(UI_ADC_CYCLE_COUNTER_ENABLE));
 237              		.loc 1 182 0
 238 0074 114A     		ldr	r2, .L16+16
 239 0076 1378     		ldrb	r3, [r2]	@ zero_extendqisi2
 240 0078 43F02003 		orr	r3, r3, #32
 241 007c 1370     		strb	r3, [r2]
 183:Generated_Source\PSoC5/UI_ADC.c ****     CyExitCriticalSection(enableInterrupts);
 242              		.loc 1 183 0
 243 007e FFF7FEFF 		bl	CyExitCriticalSection
 244              	.LVL19:
 184:Generated_Source\PSoC5/UI_ADC.c **** 
 185:Generated_Source\PSoC5/UI_ADC.c ****     /* Enable FSM of the Base Component */
 186:Generated_Source\PSoC5/UI_ADC.c ****     UI_ADC_CONTROL_REG |= ((uint8)(UI_ADC_BASE_COMPONENT_ENABLE));
 245              		.loc 1 186 0
 246 0082 0F4B     		ldr	r3, .L16+20
 187:Generated_Source\PSoC5/UI_ADC.c ****     UI_ADC_CONTROL_REG |= ((uint8)(UI_ADC_LOAD_COUNTER_PERIOD));
 188:Generated_Source\PSoC5/UI_ADC.c **** 
 189:Generated_Source\PSoC5/UI_ADC.c ****     #if(UI_ADC_IRQ_REMOVE == 0u)
 190:Generated_Source\PSoC5/UI_ADC.c ****         /* Clear a pending interrupt */
 191:Generated_Source\PSoC5/UI_ADC.c ****         CyIntClearPending(UI_ADC_INTC_NUMBER);
 247              		.loc 1 191 0
 248 0084 0F49     		ldr	r1, .L16+24
 186:Generated_Source\PSoC5/UI_ADC.c ****     UI_ADC_CONTROL_REG |= ((uint8)(UI_ADC_LOAD_COUNTER_PERIOD));
 249              		.loc 1 186 0
 250 0086 1A78     		ldrb	r2, [r3]	@ zero_extendqisi2
 251              		.loc 1 191 0
 252 0088 8020     		movs	r0, #128
ARM GAS  C:\Users\jwvance\AppData\Local\Temp\ccPkDmAP.s 			page 9


 186:Generated_Source\PSoC5/UI_ADC.c ****     UI_ADC_CONTROL_REG |= ((uint8)(UI_ADC_LOAD_COUNTER_PERIOD));
 253              		.loc 1 186 0
 254 008a 42F00102 		orr	r2, r2, #1
 255 008e 1A70     		strb	r2, [r3]
 187:Generated_Source\PSoC5/UI_ADC.c ****     UI_ADC_CONTROL_REG |= ((uint8)(UI_ADC_LOAD_COUNTER_PERIOD));
 256              		.loc 1 187 0
 257 0090 1A78     		ldrb	r2, [r3]	@ zero_extendqisi2
 258 0092 42F00202 		orr	r2, r2, #2
 259 0096 1A70     		strb	r2, [r3]
 260              		.loc 1 191 0
 261 0098 0860     		str	r0, [r1]
 262 009a F8BD     		pop	{r3, r4, r5, r6, r7, pc}
 263              	.L15:
 163:Generated_Source\PSoC5/UI_ADC.c ****     }
 264              		.loc 1 163 0
 265 009c FFF7FEFF 		bl	CyDmaTdAllocate
 266              	.LVL20:
 267 00a0 7870     		strb	r0, [r7, #1]
 268 00a2 CEE7     		b	.L11
 269              	.L14:
 141:Generated_Source\PSoC5/UI_ADC.c ****     }
 270              		.loc 1 141 0
 271 00a4 FFF7FEFF 		bl	CyDmaTdAllocate
 272              	.LVL21:
 273 00a8 2070     		strb	r0, [r4]
 274 00aa B5E7     		b	.L10
 275              	.L17:
 276              		.align	2
 277              	.L16:
 278 00ac 00000000 		.word	.LANCHOR0
 279 00b0 00000000 		.word	.LANCHOR1
 280 00b4 04000000 		.word	.LANCHOR0+4
 281 00b8 00000000 		.word	UI_ADC_finalArray
 282 00bc 99650040 		.word	1073767833
 283 00c0 79640040 		.word	1073767545
 284 00c4 80E200E0 		.word	-536812928
 285              		.cfi_endproc
 286              	.LFE2:
 287              		.size	UI_ADC_Enable, .-UI_ADC_Enable
 288              		.section	.text.UI_ADC_Start,"ax",%progbits
 289              		.align	2
 290              		.global	UI_ADC_Start
 291              		.thumb
 292              		.thumb_func
 293              		.type	UI_ADC_Start, %function
 294              	UI_ADC_Start:
 295              	.LFB3:
 192:Generated_Source\PSoC5/UI_ADC.c ****     #endif   /* End UI_ADC_IRQ_REMOVE */
 193:Generated_Source\PSoC5/UI_ADC.c **** }
 194:Generated_Source\PSoC5/UI_ADC.c **** 
 195:Generated_Source\PSoC5/UI_ADC.c **** 
 196:Generated_Source\PSoC5/UI_ADC.c **** /*******************************************************************************
 197:Generated_Source\PSoC5/UI_ADC.c **** * Function Name: UI_ADC_Start
 198:Generated_Source\PSoC5/UI_ADC.c **** ********************************************************************************
 199:Generated_Source\PSoC5/UI_ADC.c **** *
 200:Generated_Source\PSoC5/UI_ADC.c **** * Summary:
 201:Generated_Source\PSoC5/UI_ADC.c **** *  Starts component
ARM GAS  C:\Users\jwvance\AppData\Local\Temp\ccPkDmAP.s 			page 10


 202:Generated_Source\PSoC5/UI_ADC.c **** *
 203:Generated_Source\PSoC5/UI_ADC.c **** * Parameters:
 204:Generated_Source\PSoC5/UI_ADC.c **** *  None.
 205:Generated_Source\PSoC5/UI_ADC.c **** *
 206:Generated_Source\PSoC5/UI_ADC.c **** * Return:
 207:Generated_Source\PSoC5/UI_ADC.c **** *  None.
 208:Generated_Source\PSoC5/UI_ADC.c **** *
 209:Generated_Source\PSoC5/UI_ADC.c **** * Side Effects:
 210:Generated_Source\PSoC5/UI_ADC.c **** *  If the initVar variable is already set, this function only calls the 
 211:Generated_Source\PSoC5/UI_ADC.c **** *  UI_ADC_Enable() function
 212:Generated_Source\PSoC5/UI_ADC.c **** *
 213:Generated_Source\PSoC5/UI_ADC.c **** * Reentrant:
 214:Generated_Source\PSoC5/UI_ADC.c **** *  No.
 215:Generated_Source\PSoC5/UI_ADC.c **** *
 216:Generated_Source\PSoC5/UI_ADC.c **** *******************************************************************************/
 217:Generated_Source\PSoC5/UI_ADC.c **** void UI_ADC_Start(void)
 218:Generated_Source\PSoC5/UI_ADC.c **** {
 296              		.loc 1 218 0
 297              		.cfi_startproc
 298              		@ args = 0, pretend = 0, frame = 0
 299              		@ frame_needed = 0, uses_anonymous_args = 0
 300 0000 10B5     		push	{r4, lr}
 301              		.cfi_def_cfa_offset 8
 302              		.cfi_offset 4, -8
 303              		.cfi_offset 14, -4
 219:Generated_Source\PSoC5/UI_ADC.c ****     if(UI_ADC_initVar == 0u)
 304              		.loc 1 219 0
 305 0002 074C     		ldr	r4, .L21
 306 0004 E368     		ldr	r3, [r4, #12]
 307 0006 1BB9     		cbnz	r3, .L19
 220:Generated_Source\PSoC5/UI_ADC.c ****     {
 221:Generated_Source\PSoC5/UI_ADC.c ****         UI_ADC_Init();
 308              		.loc 1 221 0
 309 0008 FFF7FEFF 		bl	UI_ADC_Init
 310              	.LVL22:
 222:Generated_Source\PSoC5/UI_ADC.c ****         UI_ADC_initVar = 1u;
 311              		.loc 1 222 0
 312 000c 0123     		movs	r3, #1
 313 000e E360     		str	r3, [r4, #12]
 314              	.L19:
 223:Generated_Source\PSoC5/UI_ADC.c ****     }
 224:Generated_Source\PSoC5/UI_ADC.c **** 
 225:Generated_Source\PSoC5/UI_ADC.c ****     UI_ADC_Enable();
 315              		.loc 1 225 0
 316 0010 FFF7FEFF 		bl	UI_ADC_Enable
 317              	.LVL23:
 226:Generated_Source\PSoC5/UI_ADC.c ****     UI_ADC_SAR_Start();
 318              		.loc 1 226 0
 319 0014 FFF7FEFF 		bl	UI_ADC_SAR_Start
 320              	.LVL24:
 227:Generated_Source\PSoC5/UI_ADC.c ****     (void) CY_GET_REG8(UI_ADC_STATUS_PTR);
 321              		.loc 1 227 0
 322 0018 024B     		ldr	r3, .L21+4
 323 001a 1B78     		ldrb	r3, [r3]	@ zero_extendqisi2
 324 001c 10BD     		pop	{r4, pc}
 325              	.L22:
 326 001e 00BF     		.align	2
ARM GAS  C:\Users\jwvance\AppData\Local\Temp\ccPkDmAP.s 			page 11


 327              	.L21:
 328 0020 00000000 		.word	.LANCHOR0
 329 0024 6E640040 		.word	1073767534
 330              		.cfi_endproc
 331              	.LFE3:
 332              		.size	UI_ADC_Start, .-UI_ADC_Start
 333              		.section	.text.UI_ADC_Stop,"ax",%progbits
 334              		.align	2
 335              		.global	UI_ADC_Stop
 336              		.thumb
 337              		.thumb_func
 338              		.type	UI_ADC_Stop, %function
 339              	UI_ADC_Stop:
 340              	.LFB4:
 228:Generated_Source\PSoC5/UI_ADC.c **** 
 229:Generated_Source\PSoC5/UI_ADC.c **** }
 230:Generated_Source\PSoC5/UI_ADC.c **** 
 231:Generated_Source\PSoC5/UI_ADC.c **** 
 232:Generated_Source\PSoC5/UI_ADC.c **** /*******************************************************************************
 233:Generated_Source\PSoC5/UI_ADC.c **** * Function Name: UI_ADC_Stop
 234:Generated_Source\PSoC5/UI_ADC.c **** ********************************************************************************
 235:Generated_Source\PSoC5/UI_ADC.c **** *
 236:Generated_Source\PSoC5/UI_ADC.c **** * Summary:
 237:Generated_Source\PSoC5/UI_ADC.c **** *  Stops component.
 238:Generated_Source\PSoC5/UI_ADC.c **** *
 239:Generated_Source\PSoC5/UI_ADC.c **** * Parameters:
 240:Generated_Source\PSoC5/UI_ADC.c **** *  None.
 241:Generated_Source\PSoC5/UI_ADC.c **** *
 242:Generated_Source\PSoC5/UI_ADC.c **** * Return:
 243:Generated_Source\PSoC5/UI_ADC.c **** *  None.
 244:Generated_Source\PSoC5/UI_ADC.c **** *
 245:Generated_Source\PSoC5/UI_ADC.c **** * Side Effects:
 246:Generated_Source\PSoC5/UI_ADC.c **** *  None.
 247:Generated_Source\PSoC5/UI_ADC.c **** *
 248:Generated_Source\PSoC5/UI_ADC.c **** * Reentrant:
 249:Generated_Source\PSoC5/UI_ADC.c **** *  No.
 250:Generated_Source\PSoC5/UI_ADC.c **** *
 251:Generated_Source\PSoC5/UI_ADC.c **** *******************************************************************************/
 252:Generated_Source\PSoC5/UI_ADC.c **** void UI_ADC_Stop(void)
 253:Generated_Source\PSoC5/UI_ADC.c **** {
 341              		.loc 1 253 0
 342              		.cfi_startproc
 343              		@ args = 0, pretend = 0, frame = 0
 344              		@ frame_needed = 0, uses_anonymous_args = 0
 345 0000 08B5     		push	{r3, lr}
 346              		.cfi_def_cfa_offset 8
 347              		.cfi_offset 3, -8
 348              		.cfi_offset 14, -4
 254:Generated_Source\PSoC5/UI_ADC.c ****     UI_ADC_SAR_Stop();
 349              		.loc 1 254 0
 350 0002 FFF7FEFF 		bl	UI_ADC_SAR_Stop
 351              	.LVL25:
 255:Generated_Source\PSoC5/UI_ADC.c ****     UI_ADC_Disable();
 256:Generated_Source\PSoC5/UI_ADC.c **** }
 352              		.loc 1 256 0
 353 0006 BDE80840 		pop	{r3, lr}
 354              		.cfi_restore 14
ARM GAS  C:\Users\jwvance\AppData\Local\Temp\ccPkDmAP.s 			page 12


 355              		.cfi_restore 3
 356              		.cfi_def_cfa_offset 0
 255:Generated_Source\PSoC5/UI_ADC.c ****     UI_ADC_Disable();
 357              		.loc 1 255 0
 358 000a FFF7FEBF 		b	UI_ADC_Disable
 359              	.LVL26:
 360              		.cfi_endproc
 361              	.LFE4:
 362              		.size	UI_ADC_Stop, .-UI_ADC_Stop
 363 000e 00BF     		.section	.text.UI_ADC_StartConvert,"ax",%progbits
 364              		.align	2
 365              		.global	UI_ADC_StartConvert
 366              		.thumb
 367              		.thumb_func
 368              		.type	UI_ADC_StartConvert, %function
 369              	UI_ADC_StartConvert:
 370              	.LFB5:
 257:Generated_Source\PSoC5/UI_ADC.c **** 
 258:Generated_Source\PSoC5/UI_ADC.c **** #if(UI_ADC_SAMPLE_MODE != UI_ADC_SAMPLE_MODE_HW_TRIGGERED)
 259:Generated_Source\PSoC5/UI_ADC.c **** 
 260:Generated_Source\PSoC5/UI_ADC.c ****     /*******************************************************************************
 261:Generated_Source\PSoC5/UI_ADC.c ****     * Function Name: UI_ADC_StartConvert
 262:Generated_Source\PSoC5/UI_ADC.c ****     ********************************************************************************
 263:Generated_Source\PSoC5/UI_ADC.c ****     *
 264:Generated_Source\PSoC5/UI_ADC.c ****     * Summary:
 265:Generated_Source\PSoC5/UI_ADC.c ****     *  When the Sample Mode parameter is set to 'Free Running', the component will
 266:Generated_Source\PSoC5/UI_ADC.c ****     * operate in a continuous mode. The channels will be scanned continuously until
 267:Generated_Source\PSoC5/UI_ADC.c ****     * _StopConvert()or  _Stop() is called
 268:Generated_Source\PSoC5/UI_ADC.c ****     *
 269:Generated_Source\PSoC5/UI_ADC.c ****     * Parameters:
 270:Generated_Source\PSoC5/UI_ADC.c ****     *  None.
 271:Generated_Source\PSoC5/UI_ADC.c ****     *
 272:Generated_Source\PSoC5/UI_ADC.c ****     * Return:
 273:Generated_Source\PSoC5/UI_ADC.c ****     *  None.
 274:Generated_Source\PSoC5/UI_ADC.c ****     *
 275:Generated_Source\PSoC5/UI_ADC.c ****     * Side Effects:
 276:Generated_Source\PSoC5/UI_ADC.c ****     *  Calling UI_ADC_StartConvert() disables the external SOC pin.
 277:Generated_Source\PSoC5/UI_ADC.c ****     *
 278:Generated_Source\PSoC5/UI_ADC.c ****     * Reentrant:
 279:Generated_Source\PSoC5/UI_ADC.c ****     *  No.
 280:Generated_Source\PSoC5/UI_ADC.c ****     *
 281:Generated_Source\PSoC5/UI_ADC.c ****     *******************************************************************************/
 282:Generated_Source\PSoC5/UI_ADC.c ****     void UI_ADC_StartConvert(void)
 283:Generated_Source\PSoC5/UI_ADC.c ****     {
 371              		.loc 1 283 0
 372              		.cfi_startproc
 373              		@ args = 0, pretend = 0, frame = 0
 374              		@ frame_needed = 0, uses_anonymous_args = 0
 375              		@ link register save eliminated.
 284:Generated_Source\PSoC5/UI_ADC.c ****         #if(UI_ADC_SAMPLE_MODE != UI_ADC_SAMPLE_MODE_FREE_RUNNING)
 285:Generated_Source\PSoC5/UI_ADC.c **** 
 286:Generated_Source\PSoC5/UI_ADC.c ****             UI_ADC_CONTROL_REG |= ((uint8)(UI_ADC_SOFTWARE_SOC_PULSE));
 287:Generated_Source\PSoC5/UI_ADC.c **** 
 288:Generated_Source\PSoC5/UI_ADC.c ****         #else
 289:Generated_Source\PSoC5/UI_ADC.c **** 
 290:Generated_Source\PSoC5/UI_ADC.c ****             UI_ADC_SAR_StartConvert();
 376              		.loc 1 290 0
ARM GAS  C:\Users\jwvance\AppData\Local\Temp\ccPkDmAP.s 			page 13


 377 0000 FFF7FEBF 		b	UI_ADC_SAR_StartConvert
 378              	.LVL27:
 379              		.cfi_endproc
 380              	.LFE5:
 381              		.size	UI_ADC_StartConvert, .-UI_ADC_StartConvert
 382              		.section	.text.UI_ADC_StopConvert,"ax",%progbits
 383              		.align	2
 384              		.global	UI_ADC_StopConvert
 385              		.thumb
 386              		.thumb_func
 387              		.type	UI_ADC_StopConvert, %function
 388              	UI_ADC_StopConvert:
 389              	.LFB6:
 291:Generated_Source\PSoC5/UI_ADC.c **** 
 292:Generated_Source\PSoC5/UI_ADC.c ****         #endif /*
 293:Generated_Source\PSoC5/UI_ADC.c ****                  #if(UI_ADC_SAMPLE_MODE !=
 294:Generated_Source\PSoC5/UI_ADC.c ****                  UI_ADC_SAMPLE_MODE_FREE_RUNNING)
 295:Generated_Source\PSoC5/UI_ADC.c ****                */
 296:Generated_Source\PSoC5/UI_ADC.c ****     }
 297:Generated_Source\PSoC5/UI_ADC.c **** 
 298:Generated_Source\PSoC5/UI_ADC.c **** 
 299:Generated_Source\PSoC5/UI_ADC.c ****     /*******************************************************************************
 300:Generated_Source\PSoC5/UI_ADC.c ****     * Function Name: UI_ADC_StopConvert
 301:Generated_Source\PSoC5/UI_ADC.c ****     ********************************************************************************
 302:Generated_Source\PSoC5/UI_ADC.c ****     *
 303:Generated_Source\PSoC5/UI_ADC.c ****     * Summary:
 304:Generated_Source\PSoC5/UI_ADC.c ****     *  Forces the component to stop all conversions
 305:Generated_Source\PSoC5/UI_ADC.c ****     *
 306:Generated_Source\PSoC5/UI_ADC.c ****     * Parameters:
 307:Generated_Source\PSoC5/UI_ADC.c ****     *  None.
 308:Generated_Source\PSoC5/UI_ADC.c ****     *
 309:Generated_Source\PSoC5/UI_ADC.c ****     * Return:
 310:Generated_Source\PSoC5/UI_ADC.c ****     *  None.
 311:Generated_Source\PSoC5/UI_ADC.c ****     *
 312:Generated_Source\PSoC5/UI_ADC.c ****     * Side Effects:
 313:Generated_Source\PSoC5/UI_ADC.c ****     *  In free-running and software trigger mode, this function sets a software 
 314:Generated_Source\PSoC5/UI_ADC.c ****     *  version of the SOC to low level and switches the SOC source to hardware SOC 
 315:Generated_Source\PSoC5/UI_ADC.c ****     *  input (Hardware trigger).
 316:Generated_Source\PSoC5/UI_ADC.c ****     *
 317:Generated_Source\PSoC5/UI_ADC.c ****     * Reentrant:
 318:Generated_Source\PSoC5/UI_ADC.c ****     *  No.
 319:Generated_Source\PSoC5/UI_ADC.c ****     *
 320:Generated_Source\PSoC5/UI_ADC.c ****     *******************************************************************************/
 321:Generated_Source\PSoC5/UI_ADC.c ****     void UI_ADC_StopConvert(void)
 322:Generated_Source\PSoC5/UI_ADC.c ****     {
 390              		.loc 1 322 0
 391              		.cfi_startproc
 392              		@ args = 0, pretend = 0, frame = 0
 393              		@ frame_needed = 0, uses_anonymous_args = 0
 394              		@ link register save eliminated.
 323:Generated_Source\PSoC5/UI_ADC.c ****         UI_ADC_SAR_StopConvert();
 395              		.loc 1 323 0
 396 0000 FFF7FEBF 		b	UI_ADC_SAR_StopConvert
 397              	.LVL28:
 398              		.cfi_endproc
 399              	.LFE6:
 400              		.size	UI_ADC_StopConvert, .-UI_ADC_StopConvert
ARM GAS  C:\Users\jwvance\AppData\Local\Temp\ccPkDmAP.s 			page 14


 401              		.section	.text.UI_ADC_IsEndConversion,"ax",%progbits
 402              		.align	2
 403              		.global	UI_ADC_IsEndConversion
 404              		.thumb
 405              		.thumb_func
 406              		.type	UI_ADC_IsEndConversion, %function
 407              	UI_ADC_IsEndConversion:
 408              	.LFB7:
 324:Generated_Source\PSoC5/UI_ADC.c ****     }
 325:Generated_Source\PSoC5/UI_ADC.c **** 
 326:Generated_Source\PSoC5/UI_ADC.c **** #endif /* UI_ADC_SAMPLE_MODE != UI_ADC_SAMPLE_MODE_HW_TRIGGERED */
 327:Generated_Source\PSoC5/UI_ADC.c **** 
 328:Generated_Source\PSoC5/UI_ADC.c **** 
 329:Generated_Source\PSoC5/UI_ADC.c **** /*******************************************************************************
 330:Generated_Source\PSoC5/UI_ADC.c **** * Function Name: UI_ADC_IsEndConversion
 331:Generated_Source\PSoC5/UI_ADC.c **** ********************************************************************************
 332:Generated_Source\PSoC5/UI_ADC.c **** *
 333:Generated_Source\PSoC5/UI_ADC.c **** * Summary:
 334:Generated_Source\PSoC5/UI_ADC.c **** *  Checks for ADC end of conversion for the case one channel and end of scan
 335:Generated_Source\PSoC5/UI_ADC.c **** *  for the case of multiple channels
 336:Generated_Source\PSoC5/UI_ADC.c **** *
 337:Generated_Source\PSoC5/UI_ADC.c **** * Parameters:
 338:Generated_Source\PSoC5/UI_ADC.c **** *  retMode: Check conversion return mode
 339:Generated_Source\PSoC5/UI_ADC.c **** *   Values:
 340:Generated_Source\PSoC5/UI_ADC.c **** *         - UI_ADC_RETURN_STATUS      - Immediately returns the 
 341:Generated_Source\PSoC5/UI_ADC.c **** *                                                 status
 342:Generated_Source\PSoC5/UI_ADC.c **** *         - UI_ADC_WAIT_FOR_RESULT    - Does not return a result 
 343:Generated_Source\PSoC5/UI_ADC.c **** *                                                 until the conversion 
 344:Generated_Source\PSoC5/UI_ADC.c **** *                                                 is complete
 345:Generated_Source\PSoC5/UI_ADC.c **** *
 346:Generated_Source\PSoC5/UI_ADC.c **** * Return:
 347:Generated_Source\PSoC5/UI_ADC.c **** *  If a nonzero value is returned, the last conversion is complete. If the 
 348:Generated_Source\PSoC5/UI_ADC.c **** *  returned value is zero, the ADC_SAR_Seq is still calculating the last result
 349:Generated_Source\PSoC5/UI_ADC.c **** *
 350:Generated_Source\PSoC5/UI_ADC.c **** * Side Effects:
 351:Generated_Source\PSoC5/UI_ADC.c **** *  This function reads the end of conversion status, which is cleared on read
 352:Generated_Source\PSoC5/UI_ADC.c **** *
 353:Generated_Source\PSoC5/UI_ADC.c **** * Reentrant:
 354:Generated_Source\PSoC5/UI_ADC.c **** *  No.
 355:Generated_Source\PSoC5/UI_ADC.c **** *
 356:Generated_Source\PSoC5/UI_ADC.c **** *******************************************************************************/
 357:Generated_Source\PSoC5/UI_ADC.c **** uint32 UI_ADC_IsEndConversion(uint8 retMode)
 358:Generated_Source\PSoC5/UI_ADC.c **** {
 409              		.loc 1 358 0
 410              		.cfi_startproc
 411              		@ args = 0, pretend = 0, frame = 0
 412              		@ frame_needed = 0, uses_anonymous_args = 0
 413              		@ link register save eliminated.
 414              	.LVL29:
 359:Generated_Source\PSoC5/UI_ADC.c ****     uint8 status;
 360:Generated_Source\PSoC5/UI_ADC.c **** 
 361:Generated_Source\PSoC5/UI_ADC.c ****     do
 362:Generated_Source\PSoC5/UI_ADC.c ****     {
 363:Generated_Source\PSoC5/UI_ADC.c ****       status = UI_ADC_STATUS_REG;
 415              		.loc 1 363 0
 416 0000 0449     		ldr	r1, .L34
 417 0002 00E0     		b	.L30
ARM GAS  C:\Users\jwvance\AppData\Local\Temp\ccPkDmAP.s 			page 15


 418              	.LVL30:
 419              	.L33:
 364:Generated_Source\PSoC5/UI_ADC.c ****     } while ((status == 0u) && (retMode == UI_ADC_WAIT_FOR_RESULT));
 420              		.loc 1 364 0 discriminator 1
 421 0004 20B9     		cbnz	r0, .L29
 422              	.LVL31:
 423              	.L30:
 363:Generated_Source\PSoC5/UI_ADC.c ****     } while ((status == 0u) && (retMode == UI_ADC_WAIT_FOR_RESULT));
 424              		.loc 1 363 0 discriminator 2
 425 0006 0B78     		ldrb	r3, [r1]	@ zero_extendqisi2
 426              	.LVL32:
 427              		.loc 1 364 0 discriminator 2
 428 0008 03F0FF02 		and	r2, r3, #255
 429 000c 002B     		cmp	r3, #0
 430 000e F9D0     		beq	.L33
 431              	.L29:
 365:Generated_Source\PSoC5/UI_ADC.c **** 
 366:Generated_Source\PSoC5/UI_ADC.c ****     return((uint32)status);
 367:Generated_Source\PSoC5/UI_ADC.c **** }
 432              		.loc 1 367 0
 433 0010 1046     		mov	r0, r2
 434              	.LVL33:
 435 0012 7047     		bx	lr
 436              	.L35:
 437              		.align	2
 438              	.L34:
 439 0014 6E640040 		.word	1073767534
 440              		.cfi_endproc
 441              	.LFE7:
 442              		.size	UI_ADC_IsEndConversion, .-UI_ADC_IsEndConversion
 443              		.section	.text.UI_ADC_GetResult16,"ax",%progbits
 444              		.align	2
 445              		.global	UI_ADC_GetResult16
 446              		.thumb
 447              		.thumb_func
 448              		.type	UI_ADC_GetResult16, %function
 449              	UI_ADC_GetResult16:
 450              	.LFB8:
 368:Generated_Source\PSoC5/UI_ADC.c **** 
 369:Generated_Source\PSoC5/UI_ADC.c **** 
 370:Generated_Source\PSoC5/UI_ADC.c **** /*******************************************************************************
 371:Generated_Source\PSoC5/UI_ADC.c **** * Function Name: UI_ADC_GetResult16
 372:Generated_Source\PSoC5/UI_ADC.c **** ********************************************************************************
 373:Generated_Source\PSoC5/UI_ADC.c **** *
 374:Generated_Source\PSoC5/UI_ADC.c **** * Summary:
 375:Generated_Source\PSoC5/UI_ADC.c **** *  Returns the ADC result for channel chan
 376:Generated_Source\PSoC5/UI_ADC.c **** *
 377:Generated_Source\PSoC5/UI_ADC.c **** * Parameters:
 378:Generated_Source\PSoC5/UI_ADC.c **** *  chan: The ADC channel in which to return the result. The first channel is 0 
 379:Generated_Source\PSoC5/UI_ADC.c **** *        and the last channel is the total number of channels - 1
 380:Generated_Source\PSoC5/UI_ADC.c **** *
 381:Generated_Source\PSoC5/UI_ADC.c **** * Return:
 382:Generated_Source\PSoC5/UI_ADC.c **** *  Returns converted data as a signed 16-bit integer
 383:Generated_Source\PSoC5/UI_ADC.c **** *
 384:Generated_Source\PSoC5/UI_ADC.c **** * Side Effects:
 385:Generated_Source\PSoC5/UI_ADC.c **** *  Converts the ADC counts to the 2's complement form
 386:Generated_Source\PSoC5/UI_ADC.c **** *
ARM GAS  C:\Users\jwvance\AppData\Local\Temp\ccPkDmAP.s 			page 16


 387:Generated_Source\PSoC5/UI_ADC.c **** * Reentrant:
 388:Generated_Source\PSoC5/UI_ADC.c **** *  No.
 389:Generated_Source\PSoC5/UI_ADC.c **** *
 390:Generated_Source\PSoC5/UI_ADC.c **** *******************************************************************************/
 391:Generated_Source\PSoC5/UI_ADC.c **** int16 UI_ADC_GetResult16(uint16 chan)
 392:Generated_Source\PSoC5/UI_ADC.c **** {
 451              		.loc 1 392 0
 452              		.cfi_startproc
 453              		@ args = 0, pretend = 0, frame = 0
 454              		@ frame_needed = 0, uses_anonymous_args = 0
 455              		@ link register save eliminated.
 456              	.LVL34:
 393:Generated_Source\PSoC5/UI_ADC.c ****     return (UI_ADC_finalArray[UI_ADC_GET_RESULT_INDEX_OFFSET - chan] - UI_ADC_SAR_shift);
 457              		.loc 1 393 0
 458 0000 044A     		ldr	r2, .L37
 459 0002 054B     		ldr	r3, .L37+4
 460 0004 C0F10300 		rsb	r0, r0, #3
 461              	.LVL35:
 462 0008 33F81030 		ldrh	r3, [r3, r0, lsl #1]
 463 000c 1088     		ldrh	r0, [r2]
 464 000e 181A     		subs	r0, r3, r0
 394:Generated_Source\PSoC5/UI_ADC.c **** }
 465              		.loc 1 394 0
 466 0010 00B2     		sxth	r0, r0
 467 0012 7047     		bx	lr
 468              	.L38:
 469              		.align	2
 470              	.L37:
 471 0014 00000000 		.word	UI_ADC_SAR_shift
 472 0018 00000000 		.word	UI_ADC_finalArray
 473              		.cfi_endproc
 474              	.LFE8:
 475              		.size	UI_ADC_GetResult16, .-UI_ADC_GetResult16
 476              		.section	.text.UI_ADC_GetAdcResult,"ax",%progbits
 477              		.align	2
 478              		.global	UI_ADC_GetAdcResult
 479              		.thumb
 480              		.thumb_func
 481              		.type	UI_ADC_GetAdcResult, %function
 482              	UI_ADC_GetAdcResult:
 483              	.LFB9:
 395:Generated_Source\PSoC5/UI_ADC.c **** 
 396:Generated_Source\PSoC5/UI_ADC.c **** 
 397:Generated_Source\PSoC5/UI_ADC.c **** /*******************************************************************************
 398:Generated_Source\PSoC5/UI_ADC.c **** * Function Name: UI_ADC_GetAdcResult
 399:Generated_Source\PSoC5/UI_ADC.c **** ********************************************************************************
 400:Generated_Source\PSoC5/UI_ADC.c **** *
 401:Generated_Source\PSoC5/UI_ADC.c **** * Summary:
 402:Generated_Source\PSoC5/UI_ADC.c **** *  Gets the data available in the SAR DATA register, not the results buffer
 403:Generated_Source\PSoC5/UI_ADC.c **** *
 404:Generated_Source\PSoC5/UI_ADC.c **** * Parameters:
 405:Generated_Source\PSoC5/UI_ADC.c **** *  None.
 406:Generated_Source\PSoC5/UI_ADC.c **** *
 407:Generated_Source\PSoC5/UI_ADC.c **** * Return:
 408:Generated_Source\PSoC5/UI_ADC.c **** *  The last ADC conversion result
 409:Generated_Source\PSoC5/UI_ADC.c **** *
 410:Generated_Source\PSoC5/UI_ADC.c **** * Side Effects:
ARM GAS  C:\Users\jwvance\AppData\Local\Temp\ccPkDmAP.s 			page 17


 411:Generated_Source\PSoC5/UI_ADC.c **** *  Converts the ADC counts to the 2's complement form
 412:Generated_Source\PSoC5/UI_ADC.c **** *
 413:Generated_Source\PSoC5/UI_ADC.c **** * Reentrant:
 414:Generated_Source\PSoC5/UI_ADC.c **** *  No.
 415:Generated_Source\PSoC5/UI_ADC.c **** *
 416:Generated_Source\PSoC5/UI_ADC.c **** *******************************************************************************/
 417:Generated_Source\PSoC5/UI_ADC.c **** int16 UI_ADC_GetAdcResult(void)
 418:Generated_Source\PSoC5/UI_ADC.c **** {
 484              		.loc 1 418 0
 485              		.cfi_startproc
 486              		@ args = 0, pretend = 0, frame = 0
 487              		@ frame_needed = 0, uses_anonymous_args = 0
 488              		@ link register save eliminated.
 419:Generated_Source\PSoC5/UI_ADC.c ****     return (UI_ADC_SAR_GetResult16());
 489              		.loc 1 419 0
 490 0000 FFF7FEBF 		b	UI_ADC_SAR_GetResult16
 491              	.LVL36:
 492              		.cfi_endproc
 493              	.LFE9:
 494              		.size	UI_ADC_GetAdcResult, .-UI_ADC_GetAdcResult
 495              		.section	.text.UI_ADC_SetOffset,"ax",%progbits
 496              		.align	2
 497              		.global	UI_ADC_SetOffset
 498              		.thumb
 499              		.thumb_func
 500              		.type	UI_ADC_SetOffset, %function
 501              	UI_ADC_SetOffset:
 502              	.LFB10:
 420:Generated_Source\PSoC5/UI_ADC.c **** }
 421:Generated_Source\PSoC5/UI_ADC.c **** 
 422:Generated_Source\PSoC5/UI_ADC.c **** 
 423:Generated_Source\PSoC5/UI_ADC.c **** /*******************************************************************************
 424:Generated_Source\PSoC5/UI_ADC.c **** * Function Name: UI_ADC_SetOffset
 425:Generated_Source\PSoC5/UI_ADC.c **** ********************************************************************************
 426:Generated_Source\PSoC5/UI_ADC.c **** *
 427:Generated_Source\PSoC5/UI_ADC.c **** * Summary:
 428:Generated_Source\PSoC5/UI_ADC.c **** *  Sets the ADC offset which is used by the functions _CountsTo_uVolts(),
 429:Generated_Source\PSoC5/UI_ADC.c **** *  _CountsTo_mVolts() and _CountsTo_Volts() to substract the offset from the
 430:Generated_Source\PSoC5/UI_ADC.c **** *  given reading before calculating the voltage conversion
 431:Generated_Source\PSoC5/UI_ADC.c **** *
 432:Generated_Source\PSoC5/UI_ADC.c **** * Parameters:
 433:Generated_Source\PSoC5/UI_ADC.c **** *  offset: This value is measured when the inputs are shorted or connected to
 434:Generated_Source\PSoC5/UI_ADC.c **** *  the same input voltage
 435:Generated_Source\PSoC5/UI_ADC.c **** *
 436:Generated_Source\PSoC5/UI_ADC.c **** * Return:
 437:Generated_Source\PSoC5/UI_ADC.c **** *  None.
 438:Generated_Source\PSoC5/UI_ADC.c **** *
 439:Generated_Source\PSoC5/UI_ADC.c **** * Side Effects:
 440:Generated_Source\PSoC5/UI_ADC.c **** *  Affects UI_ADC_CountsTo_Volts(), 
 441:Generated_Source\PSoC5/UI_ADC.c **** *  UI_ADC_CountsTo_mVolts(), and UI_ADC_CountsTo_uVolts() 
 442:Generated_Source\PSoC5/UI_ADC.c **** *  by subtracting the given offset.
 443:Generated_Source\PSoC5/UI_ADC.c **** *
 444:Generated_Source\PSoC5/UI_ADC.c **** * Reentrant:
 445:Generated_Source\PSoC5/UI_ADC.c **** *  No.
 446:Generated_Source\PSoC5/UI_ADC.c **** *
 447:Generated_Source\PSoC5/UI_ADC.c **** *******************************************************************************/
 448:Generated_Source\PSoC5/UI_ADC.c **** void UI_ADC_SetOffset(int32 offset)
ARM GAS  C:\Users\jwvance\AppData\Local\Temp\ccPkDmAP.s 			page 18


 449:Generated_Source\PSoC5/UI_ADC.c **** {
 503              		.loc 1 449 0
 504              		.cfi_startproc
 505              		@ args = 0, pretend = 0, frame = 0
 506              		@ frame_needed = 0, uses_anonymous_args = 0
 507              		@ link register save eliminated.
 508              	.LVL37:
 450:Generated_Source\PSoC5/UI_ADC.c ****     UI_ADC_SAR_SetOffset((int16)offset);
 509              		.loc 1 450 0
 510 0000 00B2     		sxth	r0, r0
 511              	.LVL38:
 512 0002 FFF7FEBF 		b	UI_ADC_SAR_SetOffset
 513              	.LVL39:
 514              		.cfi_endproc
 515              	.LFE10:
 516              		.size	UI_ADC_SetOffset, .-UI_ADC_SetOffset
 517 0006 00BF     		.section	.text.UI_ADC_SetResolution,"ax",%progbits
 518              		.align	2
 519              		.global	UI_ADC_SetResolution
 520              		.thumb
 521              		.thumb_func
 522              		.type	UI_ADC_SetResolution, %function
 523              	UI_ADC_SetResolution:
 524              	.LFB11:
 451:Generated_Source\PSoC5/UI_ADC.c **** }
 452:Generated_Source\PSoC5/UI_ADC.c **** 
 453:Generated_Source\PSoC5/UI_ADC.c **** 
 454:Generated_Source\PSoC5/UI_ADC.c **** /*******************************************************************************
 455:Generated_Source\PSoC5/UI_ADC.c **** * Function Name: UI_ADC_SetResolution
 456:Generated_Source\PSoC5/UI_ADC.c **** ********************************************************************************
 457:Generated_Source\PSoC5/UI_ADC.c **** *
 458:Generated_Source\PSoC5/UI_ADC.c **** * Summary:
 459:Generated_Source\PSoC5/UI_ADC.c **** *  Sets the Relution of the SAR.
 460:Generated_Source\PSoC5/UI_ADC.c **** *  This function does not affect the actual conversion with PSoC5 ES1 silicon.
 461:Generated_Source\PSoC5/UI_ADC.c **** *
 462:Generated_Source\PSoC5/UI_ADC.c **** * Parameters:
 463:Generated_Source\PSoC5/UI_ADC.c **** *  resolution:
 464:Generated_Source\PSoC5/UI_ADC.c **** *  12 ->    RES12
 465:Generated_Source\PSoC5/UI_ADC.c **** *  10 ->    RES10
 466:Generated_Source\PSoC5/UI_ADC.c **** *  8  ->    RES8
 467:Generated_Source\PSoC5/UI_ADC.c **** *
 468:Generated_Source\PSoC5/UI_ADC.c **** * Return:
 469:Generated_Source\PSoC5/UI_ADC.c **** *  None.
 470:Generated_Source\PSoC5/UI_ADC.c **** *
 471:Generated_Source\PSoC5/UI_ADC.c **** * Side Effects:
 472:Generated_Source\PSoC5/UI_ADC.c **** *  The ADC_SAR_Seq resolution cannot be changed during a conversion cycle. The
 473:Generated_Source\PSoC5/UI_ADC.c **** *  recommended best practice is to stop conversions with
 474:Generated_Source\PSoC5/UI_ADC.c **** *  UI_ADC_StopConvert(), change the resolution, then restart the
 475:Generated_Source\PSoC5/UI_ADC.c **** *  conversions with UI_ADC_StartConvert().
 476:Generated_Source\PSoC5/UI_ADC.c **** *  If you decide not to stop conversions before calling this API, you
 477:Generated_Source\PSoC5/UI_ADC.c **** *  should use UI_ADC_IsEndConversion() to wait until conversion is 
 478:Generated_Source\PSoC5/UI_ADC.c **** *  complete  before changing the resolution.
 479:Generated_Source\PSoC5/UI_ADC.c **** *  If you call ADC_SetResolution() during a conversion, the resolution will
 480:Generated_Source\PSoC5/UI_ADC.c **** *  not be changed until the current conversion is complete. Data will not be
 481:Generated_Source\PSoC5/UI_ADC.c **** *  available in the new resolution for another 6 + "New Resolution(in bits)"
 482:Generated_Source\PSoC5/UI_ADC.c **** *  clock cycles.
 483:Generated_Source\PSoC5/UI_ADC.c **** *  You may need add a delay of this number of clock cycles after
ARM GAS  C:\Users\jwvance\AppData\Local\Temp\ccPkDmAP.s 			page 19


 484:Generated_Source\PSoC5/UI_ADC.c **** *  UI_ADC_SetResolution() is called before data is valid again.
 485:Generated_Source\PSoC5/UI_ADC.c **** *  Affects UI_ADC_CountsTo_Volts(), UI_ADC_CountsTo_mVolts(), 
 486:Generated_Source\PSoC5/UI_ADC.c **** *  and UI_ADC_CountsTo_uVolts() by calculating the correct conversion 
 487:Generated_Source\PSoC5/UI_ADC.c **** *  between ADC counts and the applied input voltage. Calculation depends on 
 488:Generated_Source\PSoC5/UI_ADC.c **** *  resolution, input range, and voltage reference.
 489:Generated_Source\PSoC5/UI_ADC.c **** *
 490:Generated_Source\PSoC5/UI_ADC.c **** *******************************************************************************/
 491:Generated_Source\PSoC5/UI_ADC.c **** void UI_ADC_SetResolution(uint8 resolution)
 492:Generated_Source\PSoC5/UI_ADC.c **** {
 525              		.loc 1 492 0
 526              		.cfi_startproc
 527              		@ args = 0, pretend = 0, frame = 0
 528              		@ frame_needed = 0, uses_anonymous_args = 0
 529              		@ link register save eliminated.
 530              	.LVL40:
 493:Generated_Source\PSoC5/UI_ADC.c ****     UI_ADC_SAR_SetResolution(resolution);
 531              		.loc 1 493 0
 532 0000 FFF7FEBF 		b	UI_ADC_SAR_SetResolution
 533              	.LVL41:
 534              		.cfi_endproc
 535              	.LFE11:
 536              		.size	UI_ADC_SetResolution, .-UI_ADC_SetResolution
 537              		.section	.text.UI_ADC_SetGain,"ax",%progbits
 538              		.align	2
 539              		.global	UI_ADC_SetGain
 540              		.thumb
 541              		.thumb_func
 542              		.type	UI_ADC_SetGain, %function
 543              	UI_ADC_SetGain:
 544              	.LFB12:
 494:Generated_Source\PSoC5/UI_ADC.c **** }
 495:Generated_Source\PSoC5/UI_ADC.c **** 
 496:Generated_Source\PSoC5/UI_ADC.c **** 
 497:Generated_Source\PSoC5/UI_ADC.c **** /*******************************************************************************
 498:Generated_Source\PSoC5/UI_ADC.c **** * Function Name: UI_ADC_SetGain
 499:Generated_Source\PSoC5/UI_ADC.c **** ********************************************************************************
 500:Generated_Source\PSoC5/UI_ADC.c **** *
 501:Generated_Source\PSoC5/UI_ADC.c **** * Summary:
 502:Generated_Source\PSoC5/UI_ADC.c **** *  Sets the ADC gain in counts per volt for the voltage conversion
 503:Generated_Source\PSoC5/UI_ADC.c **** *
 504:Generated_Source\PSoC5/UI_ADC.c **** * Parameters:
 505:Generated_Source\PSoC5/UI_ADC.c **** *  adcGain: counts per volt
 506:Generated_Source\PSoC5/UI_ADC.c **** *
 507:Generated_Source\PSoC5/UI_ADC.c **** * Return:
 508:Generated_Source\PSoC5/UI_ADC.c **** *  None.
 509:Generated_Source\PSoC5/UI_ADC.c **** *
 510:Generated_Source\PSoC5/UI_ADC.c **** * Side Effects:
 511:Generated_Source\PSoC5/UI_ADC.c **** *  None.
 512:Generated_Source\PSoC5/UI_ADC.c **** *
 513:Generated_Source\PSoC5/UI_ADC.c **** * Reentrant:
 514:Generated_Source\PSoC5/UI_ADC.c **** *  No.
 515:Generated_Source\PSoC5/UI_ADC.c **** *
 516:Generated_Source\PSoC5/UI_ADC.c **** *******************************************************************************/
 517:Generated_Source\PSoC5/UI_ADC.c **** void UI_ADC_SetGain(int32 adcGain)
 518:Generated_Source\PSoC5/UI_ADC.c **** {
 545              		.loc 1 518 0
 546              		.cfi_startproc
ARM GAS  C:\Users\jwvance\AppData\Local\Temp\ccPkDmAP.s 			page 20


 547              		@ args = 0, pretend = 0, frame = 0
 548              		@ frame_needed = 0, uses_anonymous_args = 0
 549              		@ link register save eliminated.
 550              	.LVL42:
 519:Generated_Source\PSoC5/UI_ADC.c ****     UI_ADC_SAR_SetGain((int16)adcGain);
 551              		.loc 1 519 0
 552 0000 00B2     		sxth	r0, r0
 553              	.LVL43:
 554 0002 FFF7FEBF 		b	UI_ADC_SAR_SetGain
 555              	.LVL44:
 556              		.cfi_endproc
 557              	.LFE12:
 558              		.size	UI_ADC_SetGain, .-UI_ADC_SetGain
 559 0006 00BF     		.section	.text.UI_ADC_SetScaledGain,"ax",%progbits
 560              		.align	2
 561              		.global	UI_ADC_SetScaledGain
 562              		.thumb
 563              		.thumb_func
 564              		.type	UI_ADC_SetScaledGain, %function
 565              	UI_ADC_SetScaledGain:
 566              	.LFB13:
 520:Generated_Source\PSoC5/UI_ADC.c **** }
 521:Generated_Source\PSoC5/UI_ADC.c **** 
 522:Generated_Source\PSoC5/UI_ADC.c **** 
 523:Generated_Source\PSoC5/UI_ADC.c **** /*******************************************************************************
 524:Generated_Source\PSoC5/UI_ADC.c **** * Function Name: UI_ADC_SetScaledGain
 525:Generated_Source\PSoC5/UI_ADC.c **** ********************************************************************************
 526:Generated_Source\PSoC5/UI_ADC.c **** *
 527:Generated_Source\PSoC5/UI_ADC.c **** * Summary:
 528:Generated_Source\PSoC5/UI_ADC.c **** *  Sets the ADC gain in counts per 10 volts for the voltage conversion functions
 529:Generated_Source\PSoC5/UI_ADC.c **** *  that follow. This value is set by default by the reference and input range
 530:Generated_Source\PSoC5/UI_ADC.c **** *  settings. It should only be used to further calibrate the ADC with a known
 531:Generated_Source\PSoC5/UI_ADC.c **** *  input or if the ADC is using an external reference.
 532:Generated_Source\PSoC5/UI_ADC.c **** *
 533:Generated_Source\PSoC5/UI_ADC.c **** * Parameters:
 534:Generated_Source\PSoC5/UI_ADC.c **** *  int32  adcGain  counts per 10 volt
 535:Generated_Source\PSoC5/UI_ADC.c **** *
 536:Generated_Source\PSoC5/UI_ADC.c **** * Return:
 537:Generated_Source\PSoC5/UI_ADC.c **** *  None.
 538:Generated_Source\PSoC5/UI_ADC.c **** *
 539:Generated_Source\PSoC5/UI_ADC.c **** * Side Effects:
 540:Generated_Source\PSoC5/UI_ADC.c **** *  Affects UI_ADC_CountsTo_Volts(), UI_ADC_CountsTo_mVolts(),
 541:Generated_Source\PSoC5/UI_ADC.c **** *  UI_ADC_CountsTo_uVolts() by supplying the correct conversion 
 542:Generated_Source\PSoC5/UI_ADC.c **** *  between ADC counts and the applied input voltage
 543:Generated_Source\PSoC5/UI_ADC.c **** *
 544:Generated_Source\PSoC5/UI_ADC.c **** * Reentrant:
 545:Generated_Source\PSoC5/UI_ADC.c **** *  No.
 546:Generated_Source\PSoC5/UI_ADC.c **** *
 547:Generated_Source\PSoC5/UI_ADC.c **** *******************************************************************************/
 548:Generated_Source\PSoC5/UI_ADC.c **** void UI_ADC_SetScaledGain(int32 adcGain)
 549:Generated_Source\PSoC5/UI_ADC.c **** {
 567              		.loc 1 549 0
 568              		.cfi_startproc
 569              		@ args = 0, pretend = 0, frame = 0
 570              		@ frame_needed = 0, uses_anonymous_args = 0
 571              		@ link register save eliminated.
 572              	.LVL45:
ARM GAS  C:\Users\jwvance\AppData\Local\Temp\ccPkDmAP.s 			page 21


 550:Generated_Source\PSoC5/UI_ADC.c ****     UI_ADC_SAR_SetScaledGain(adcGain);
 573              		.loc 1 550 0
 574 0000 FFF7FEBF 		b	UI_ADC_SAR_SetScaledGain
 575              	.LVL46:
 576              		.cfi_endproc
 577              	.LFE13:
 578              		.size	UI_ADC_SetScaledGain, .-UI_ADC_SetScaledGain
 579              		.section	.text.UI_ADC_CountsTo_mVolts,"ax",%progbits
 580              		.align	2
 581              		.global	UI_ADC_CountsTo_mVolts
 582              		.thumb
 583              		.thumb_func
 584              		.type	UI_ADC_CountsTo_mVolts, %function
 585              	UI_ADC_CountsTo_mVolts:
 586              	.LFB14:
 551:Generated_Source\PSoC5/UI_ADC.c **** }
 552:Generated_Source\PSoC5/UI_ADC.c **** 
 553:Generated_Source\PSoC5/UI_ADC.c **** 
 554:Generated_Source\PSoC5/UI_ADC.c **** /*******************************************************************************
 555:Generated_Source\PSoC5/UI_ADC.c **** * Function Name: UI_ADC_CountsTo_mVolts
 556:Generated_Source\PSoC5/UI_ADC.c **** ********************************************************************************
 557:Generated_Source\PSoC5/UI_ADC.c **** *
 558:Generated_Source\PSoC5/UI_ADC.c **** * Summary:
 559:Generated_Source\PSoC5/UI_ADC.c **** *  Converts the ADC output to mVolts as a 32-bit integer
 560:Generated_Source\PSoC5/UI_ADC.c **** *
 561:Generated_Source\PSoC5/UI_ADC.c **** * Parameters:
 562:Generated_Source\PSoC5/UI_ADC.c **** *  adcCounts: Result from the ADC_SAR_Seq conversion
 563:Generated_Source\PSoC5/UI_ADC.c **** *
 564:Generated_Source\PSoC5/UI_ADC.c **** * Return:
 565:Generated_Source\PSoC5/UI_ADC.c **** *  Result in mV
 566:Generated_Source\PSoC5/UI_ADC.c **** *
 567:Generated_Source\PSoC5/UI_ADC.c **** * Side Effects:
 568:Generated_Source\PSoC5/UI_ADC.c **** *  None.
 569:Generated_Source\PSoC5/UI_ADC.c **** *
 570:Generated_Source\PSoC5/UI_ADC.c **** * Reentrant:
 571:Generated_Source\PSoC5/UI_ADC.c **** *  No.
 572:Generated_Source\PSoC5/UI_ADC.c **** *
 573:Generated_Source\PSoC5/UI_ADC.c **** *******************************************************************************/
 574:Generated_Source\PSoC5/UI_ADC.c **** int32 UI_ADC_CountsTo_mVolts(int16 adcCounts)
 575:Generated_Source\PSoC5/UI_ADC.c **** {
 587              		.loc 1 575 0
 588              		.cfi_startproc
 589              		@ args = 0, pretend = 0, frame = 0
 590              		@ frame_needed = 0, uses_anonymous_args = 0
 591              	.LVL47:
 592 0000 08B5     		push	{r3, lr}
 593              		.cfi_def_cfa_offset 8
 594              		.cfi_offset 3, -8
 595              		.cfi_offset 14, -4
 576:Generated_Source\PSoC5/UI_ADC.c ****     return ((int32) UI_ADC_SAR_CountsTo_mVolts(adcCounts));
 596              		.loc 1 576 0
 597 0002 FFF7FEFF 		bl	UI_ADC_SAR_CountsTo_mVolts
 598              	.LVL48:
 577:Generated_Source\PSoC5/UI_ADC.c **** }
 599              		.loc 1 577 0
 600 0006 08BD     		pop	{r3, pc}
 601              		.cfi_endproc
ARM GAS  C:\Users\jwvance\AppData\Local\Temp\ccPkDmAP.s 			page 22


 602              	.LFE14:
 603              		.size	UI_ADC_CountsTo_mVolts, .-UI_ADC_CountsTo_mVolts
 604              		.section	.text.UI_ADC_CountsTo_uVolts,"ax",%progbits
 605              		.align	2
 606              		.global	UI_ADC_CountsTo_uVolts
 607              		.thumb
 608              		.thumb_func
 609              		.type	UI_ADC_CountsTo_uVolts, %function
 610              	UI_ADC_CountsTo_uVolts:
 611              	.LFB15:
 578:Generated_Source\PSoC5/UI_ADC.c **** 
 579:Generated_Source\PSoC5/UI_ADC.c **** 
 580:Generated_Source\PSoC5/UI_ADC.c **** /*******************************************************************************
 581:Generated_Source\PSoC5/UI_ADC.c **** * Function Name: UI_ADC_CountsTo_uVolts
 582:Generated_Source\PSoC5/UI_ADC.c **** ********************************************************************************
 583:Generated_Source\PSoC5/UI_ADC.c **** *
 584:Generated_Source\PSoC5/UI_ADC.c **** * Summary:
 585:Generated_Source\PSoC5/UI_ADC.c **** *  Converts the ADC output to uVolts as a 32-bit integer
 586:Generated_Source\PSoC5/UI_ADC.c **** *
 587:Generated_Source\PSoC5/UI_ADC.c **** * Parameters:
 588:Generated_Source\PSoC5/UI_ADC.c **** *  adcCounts: Result from the ADC conversion
 589:Generated_Source\PSoC5/UI_ADC.c **** *
 590:Generated_Source\PSoC5/UI_ADC.c **** * Return:
 591:Generated_Source\PSoC5/UI_ADC.c **** *  Result in uV
 592:Generated_Source\PSoC5/UI_ADC.c **** *
 593:Generated_Source\PSoC5/UI_ADC.c **** * Side Effects:
 594:Generated_Source\PSoC5/UI_ADC.c **** *  None.
 595:Generated_Source\PSoC5/UI_ADC.c **** *
 596:Generated_Source\PSoC5/UI_ADC.c **** * Reentrant:
 597:Generated_Source\PSoC5/UI_ADC.c **** *  No.
 598:Generated_Source\PSoC5/UI_ADC.c **** *
 599:Generated_Source\PSoC5/UI_ADC.c **** *******************************************************************************/
 600:Generated_Source\PSoC5/UI_ADC.c **** int32 UI_ADC_CountsTo_uVolts(int16 adcCounts)
 601:Generated_Source\PSoC5/UI_ADC.c **** {
 612              		.loc 1 601 0
 613              		.cfi_startproc
 614              		@ args = 0, pretend = 0, frame = 0
 615              		@ frame_needed = 0, uses_anonymous_args = 0
 616              		@ link register save eliminated.
 617              	.LVL49:
 602:Generated_Source\PSoC5/UI_ADC.c ****     return (UI_ADC_SAR_CountsTo_uVolts(adcCounts));
 618              		.loc 1 602 0
 619 0000 FFF7FEBF 		b	UI_ADC_SAR_CountsTo_uVolts
 620              	.LVL50:
 621              		.cfi_endproc
 622              	.LFE15:
 623              		.size	UI_ADC_CountsTo_uVolts, .-UI_ADC_CountsTo_uVolts
 624              		.section	.text.UI_ADC_CountsTo_Volts,"ax",%progbits
 625              		.align	2
 626              		.global	UI_ADC_CountsTo_Volts
 627              		.thumb
 628              		.thumb_func
 629              		.type	UI_ADC_CountsTo_Volts, %function
 630              	UI_ADC_CountsTo_Volts:
 631              	.LFB16:
 603:Generated_Source\PSoC5/UI_ADC.c **** }
 604:Generated_Source\PSoC5/UI_ADC.c **** 
ARM GAS  C:\Users\jwvance\AppData\Local\Temp\ccPkDmAP.s 			page 23


 605:Generated_Source\PSoC5/UI_ADC.c **** 
 606:Generated_Source\PSoC5/UI_ADC.c **** /*******************************************************************************
 607:Generated_Source\PSoC5/UI_ADC.c **** * Function Name: UI_ADC_CountsTo_Volts
 608:Generated_Source\PSoC5/UI_ADC.c **** ********************************************************************************
 609:Generated_Source\PSoC5/UI_ADC.c **** *
 610:Generated_Source\PSoC5/UI_ADC.c **** * Summary:
 611:Generated_Source\PSoC5/UI_ADC.c **** *  Converts the ADC output to Volts as a floating point number
 612:Generated_Source\PSoC5/UI_ADC.c **** *
 613:Generated_Source\PSoC5/UI_ADC.c **** * Parameters:
 614:Generated_Source\PSoC5/UI_ADC.c **** *  adcCounts: Result from the ADC_SAR_Seq conversion
 615:Generated_Source\PSoC5/UI_ADC.c **** *
 616:Generated_Source\PSoC5/UI_ADC.c **** * Return:
 617:Generated_Source\PSoC5/UI_ADC.c **** *  Result in volts
 618:Generated_Source\PSoC5/UI_ADC.c **** *
 619:Generated_Source\PSoC5/UI_ADC.c **** * Side Effects:
 620:Generated_Source\PSoC5/UI_ADC.c **** *  None.
 621:Generated_Source\PSoC5/UI_ADC.c **** *
 622:Generated_Source\PSoC5/UI_ADC.c **** * Reentrant:
 623:Generated_Source\PSoC5/UI_ADC.c **** *  No.
 624:Generated_Source\PSoC5/UI_ADC.c **** *
 625:Generated_Source\PSoC5/UI_ADC.c **** *******************************************************************************/
 626:Generated_Source\PSoC5/UI_ADC.c **** float32 UI_ADC_CountsTo_Volts(int16 adcCounts)
 627:Generated_Source\PSoC5/UI_ADC.c **** {
 632              		.loc 1 627 0
 633              		.cfi_startproc
 634              		@ args = 0, pretend = 0, frame = 0
 635              		@ frame_needed = 0, uses_anonymous_args = 0
 636              		@ link register save eliminated.
 637              	.LVL51:
 628:Generated_Source\PSoC5/UI_ADC.c ****     return (UI_ADC_SAR_CountsTo_Volts(adcCounts));
 638              		.loc 1 628 0
 639 0000 FFF7FEBF 		b	UI_ADC_SAR_CountsTo_Volts
 640              	.LVL52:
 641              		.cfi_endproc
 642              	.LFE16:
 643              		.size	UI_ADC_CountsTo_Volts, .-UI_ADC_CountsTo_Volts
 644              		.global	UI_ADC_initVar
 645              		.comm	UI_ADC_finalArray,8,4
 646              		.data
 647              		.set	.LANCHOR1,. + 0
 648              		.type	UI_ADC_tempTD, %object
 649              		.size	UI_ADC_tempTD, 1
 650              	UI_ADC_tempTD:
 651 0000 FF       		.byte	-1
 652              		.type	UI_ADC_finalTD, %object
 653              		.size	UI_ADC_finalTD, 1
 654              	UI_ADC_finalTD:
 655 0001 FF       		.byte	-1
 656              		.bss
 657              		.align	2
 658              		.set	.LANCHOR0,. + 0
 659              		.type	UI_ADC_tempChan, %object
 660              		.size	UI_ADC_tempChan, 1
 661              	UI_ADC_tempChan:
 662 0000 00       		.space	1
 663              		.type	UI_ADC_finalChan, %object
 664              		.size	UI_ADC_finalChan, 1
ARM GAS  C:\Users\jwvance\AppData\Local\Temp\ccPkDmAP.s 			page 24


 665              	UI_ADC_finalChan:
 666 0001 00       		.space	1
 667 0002 0000     		.space	2
 668              		.type	UI_ADC_tempArray.5002, %object
 669              		.size	UI_ADC_tempArray.5002, 8
 670              	UI_ADC_tempArray.5002:
 671 0004 00000000 		.space	8
 671      00000000 
 672              		.type	UI_ADC_initVar, %object
 673              		.size	UI_ADC_initVar, 4
 674              	UI_ADC_initVar:
 675 000c 00000000 		.space	4
 676              		.text
 677              	.Letext0:
 678              		.file 2 "Generated_Source\\PSoC5\\cytypes.h"
 679              		.file 3 "Generated_Source\\PSoC5\\UI_ADC_SAR.h"
 680              		.file 4 "Generated_Source\\PSoC5/CYDMAC.H"
 681              		.file 5 "Generated_Source\\PSoC5\\UI_ADC_TempBuf_dma.h"
 682              		.file 6 "Generated_Source\\PSoC5\\UI_ADC_FinalBuf_dma.h"
 683              		.file 7 "Generated_Source\\PSoC5\\UI_ADC_IRQ.h"
 684              		.file 8 "Generated_Source\\PSoC5\\CyLib.h"