ARM GAS  C:\Users\mgronber\AppData\Local\Temp\ccohOFIJ.s 			page 1


   1              		.syntax unified
   2              		.cpu cortex-m3
   3              		.fpu softvfp
   4              		.eabi_attribute 20, 1
   5              		.eabi_attribute 21, 1
   6              		.eabi_attribute 23, 3
   7              		.eabi_attribute 24, 1
   8              		.eabi_attribute 25, 1
   9              		.eabi_attribute 26, 1
  10              		.eabi_attribute 30, 2
  11              		.eabi_attribute 34, 1
  12              		.eabi_attribute 18, 4
  13              		.thumb
  14              		.file	"USB_std.c"
  15              		.text
  16              	.Ltext0:
  17              		.cfi_sections	.debug_frame
  18              		.section	.text.USB_ConfigAltChanged.part.0,"ax",%progbits
  19              		.align	2
  20              		.thumb
  21              		.thumb_func
  22              		.type	USB_ConfigAltChanged.part.0, %function
  23              	USB_ConfigAltChanged.part.0:
  24              	.LFB12:
  25              		.file 1 "Generated_Source\\PSoC5\\USB_std.c"
   1:Generated_Source\PSoC5/USB_std.c **** /*******************************************************************************
   2:Generated_Source\PSoC5/USB_std.c **** * File Name: USB_std.c
   3:Generated_Source\PSoC5/USB_std.c **** * Version 2.70
   4:Generated_Source\PSoC5/USB_std.c **** *
   5:Generated_Source\PSoC5/USB_std.c **** * Description:
   6:Generated_Source\PSoC5/USB_std.c **** *  USB Standard request handler.
   7:Generated_Source\PSoC5/USB_std.c **** *
   8:Generated_Source\PSoC5/USB_std.c **** * Note:
   9:Generated_Source\PSoC5/USB_std.c **** *
  10:Generated_Source\PSoC5/USB_std.c **** ********************************************************************************
  11:Generated_Source\PSoC5/USB_std.c **** * Copyright 2008-2013, Cypress Semiconductor Corporation.  All rights reserved.
  12:Generated_Source\PSoC5/USB_std.c **** * You may use this file only in accordance with the license, terms, conditions,
  13:Generated_Source\PSoC5/USB_std.c **** * disclaimers, and limitations in the end user license agreement accompanying
  14:Generated_Source\PSoC5/USB_std.c **** * the software package with which this file was provided.
  15:Generated_Source\PSoC5/USB_std.c **** *******************************************************************************/
  16:Generated_Source\PSoC5/USB_std.c **** 
  17:Generated_Source\PSoC5/USB_std.c **** #include "USB.h"
  18:Generated_Source\PSoC5/USB_std.c **** #include "USB_cdc.h"
  19:Generated_Source\PSoC5/USB_std.c **** #include "USB_pvt.h"
  20:Generated_Source\PSoC5/USB_std.c **** #if defined(USB_ENABLE_MIDI_STREAMING)
  21:Generated_Source\PSoC5/USB_std.c ****     #include "USB_midi.h"
  22:Generated_Source\PSoC5/USB_std.c **** #endif /*  USB_ENABLE_MIDI_STREAMING*/
  23:Generated_Source\PSoC5/USB_std.c **** 
  24:Generated_Source\PSoC5/USB_std.c **** 
  25:Generated_Source\PSoC5/USB_std.c **** /***************************************
  26:Generated_Source\PSoC5/USB_std.c **** *   Static data allocation
  27:Generated_Source\PSoC5/USB_std.c **** ***************************************/
  28:Generated_Source\PSoC5/USB_std.c **** 
  29:Generated_Source\PSoC5/USB_std.c **** #if defined(USB_ENABLE_FWSN_STRING)
  30:Generated_Source\PSoC5/USB_std.c ****     static volatile uint8 *USB_fwSerialNumberStringDescriptor;
  31:Generated_Source\PSoC5/USB_std.c ****     static volatile uint8 USB_snStringConfirm = USB_FALSE;
  32:Generated_Source\PSoC5/USB_std.c **** #endif  /* USB_ENABLE_FWSN_STRING */
ARM GAS  C:\Users\mgronber\AppData\Local\Temp\ccohOFIJ.s 			page 2


  33:Generated_Source\PSoC5/USB_std.c **** 
  34:Generated_Source\PSoC5/USB_std.c **** #if defined(USB_ENABLE_FWSN_STRING)
  35:Generated_Source\PSoC5/USB_std.c **** 
  36:Generated_Source\PSoC5/USB_std.c ****     /*******************************************************************************
  37:Generated_Source\PSoC5/USB_std.c ****     * Function Name: USB_SerialNumString
  38:Generated_Source\PSoC5/USB_std.c ****     ********************************************************************************
  39:Generated_Source\PSoC5/USB_std.c ****     *
  40:Generated_Source\PSoC5/USB_std.c ****     * Summary:
  41:Generated_Source\PSoC5/USB_std.c ****     *  Application firmware may supply the source of the USB device descriptors
  42:Generated_Source\PSoC5/USB_std.c ****     *  serial number string during runtime.
  43:Generated_Source\PSoC5/USB_std.c ****     *
  44:Generated_Source\PSoC5/USB_std.c ****     * Parameters:
  45:Generated_Source\PSoC5/USB_std.c ****     *  snString:  pointer to string.
  46:Generated_Source\PSoC5/USB_std.c ****     *
  47:Generated_Source\PSoC5/USB_std.c ****     * Return:
  48:Generated_Source\PSoC5/USB_std.c ****     *  None.
  49:Generated_Source\PSoC5/USB_std.c ****     *
  50:Generated_Source\PSoC5/USB_std.c ****     * Reentrant:
  51:Generated_Source\PSoC5/USB_std.c ****     *  No.
  52:Generated_Source\PSoC5/USB_std.c ****     *
  53:Generated_Source\PSoC5/USB_std.c ****     *******************************************************************************/
  54:Generated_Source\PSoC5/USB_std.c ****     void  USB_SerialNumString(uint8 snString[]) 
  55:Generated_Source\PSoC5/USB_std.c ****     {
  56:Generated_Source\PSoC5/USB_std.c ****         USB_snStringConfirm = USB_FALSE;
  57:Generated_Source\PSoC5/USB_std.c ****         if(snString != NULL)
  58:Generated_Source\PSoC5/USB_std.c ****         {
  59:Generated_Source\PSoC5/USB_std.c ****             /* Check descriptor validation */
  60:Generated_Source\PSoC5/USB_std.c ****             if( (snString[0u] > 1u ) && (snString[1u] == USB_DESCR_STRING) )
  61:Generated_Source\PSoC5/USB_std.c ****             {
  62:Generated_Source\PSoC5/USB_std.c ****                 USB_fwSerialNumberStringDescriptor = snString;
  63:Generated_Source\PSoC5/USB_std.c ****                 USB_snStringConfirm = USB_TRUE;
  64:Generated_Source\PSoC5/USB_std.c ****             }
  65:Generated_Source\PSoC5/USB_std.c ****         }
  66:Generated_Source\PSoC5/USB_std.c ****     }
  67:Generated_Source\PSoC5/USB_std.c **** 
  68:Generated_Source\PSoC5/USB_std.c **** #endif  /* USB_ENABLE_FWSN_STRING */
  69:Generated_Source\PSoC5/USB_std.c **** 
  70:Generated_Source\PSoC5/USB_std.c **** 
  71:Generated_Source\PSoC5/USB_std.c **** /*******************************************************************************
  72:Generated_Source\PSoC5/USB_std.c **** * Function Name: USB_HandleStandardRqst
  73:Generated_Source\PSoC5/USB_std.c **** ********************************************************************************
  74:Generated_Source\PSoC5/USB_std.c **** *
  75:Generated_Source\PSoC5/USB_std.c **** * Summary:
  76:Generated_Source\PSoC5/USB_std.c **** *  This Routine dispatches standard requests
  77:Generated_Source\PSoC5/USB_std.c **** *
  78:Generated_Source\PSoC5/USB_std.c **** * Parameters:
  79:Generated_Source\PSoC5/USB_std.c **** *  None.
  80:Generated_Source\PSoC5/USB_std.c **** *
  81:Generated_Source\PSoC5/USB_std.c **** * Return:
  82:Generated_Source\PSoC5/USB_std.c **** *  TRUE if request handled.
  83:Generated_Source\PSoC5/USB_std.c **** *
  84:Generated_Source\PSoC5/USB_std.c **** * Reentrant:
  85:Generated_Source\PSoC5/USB_std.c **** *  No.
  86:Generated_Source\PSoC5/USB_std.c **** *
  87:Generated_Source\PSoC5/USB_std.c **** *******************************************************************************/
  88:Generated_Source\PSoC5/USB_std.c **** uint8 USB_HandleStandardRqst(void) 
  89:Generated_Source\PSoC5/USB_std.c **** {
ARM GAS  C:\Users\mgronber\AppData\Local\Temp\ccohOFIJ.s 			page 3


  90:Generated_Source\PSoC5/USB_std.c ****     uint8 requestHandled = USB_FALSE;
  91:Generated_Source\PSoC5/USB_std.c ****     uint8 interfaceNumber;
  92:Generated_Source\PSoC5/USB_std.c ****     uint8 configurationN;
  93:Generated_Source\PSoC5/USB_std.c ****     #if defined(USB_ENABLE_STRINGS)
  94:Generated_Source\PSoC5/USB_std.c ****         volatile uint8 *pStr = 0u;
  95:Generated_Source\PSoC5/USB_std.c ****         #if defined(USB_ENABLE_DESCRIPTOR_STRINGS)
  96:Generated_Source\PSoC5/USB_std.c ****             uint8 nStr;
  97:Generated_Source\PSoC5/USB_std.c ****             uint8 descrLength;
  98:Generated_Source\PSoC5/USB_std.c ****         #endif /* USB_ENABLE_DESCRIPTOR_STRINGS */
  99:Generated_Source\PSoC5/USB_std.c ****     #endif /* USB_ENABLE_STRINGS */
 100:Generated_Source\PSoC5/USB_std.c ****     static volatile uint8 USB_tBuffer[USB_STATUS_LENGTH_MAX];
 101:Generated_Source\PSoC5/USB_std.c ****     const T_USB_LUT CYCODE *pTmp;
 102:Generated_Source\PSoC5/USB_std.c ****     USB_currentTD.count = 0u;
 103:Generated_Source\PSoC5/USB_std.c **** 
 104:Generated_Source\PSoC5/USB_std.c ****     if ((CY_GET_REG8(USB_bmRequestType) & USB_RQST_DIR_MASK) == USB_RQST_DIR_D2H)
 105:Generated_Source\PSoC5/USB_std.c ****     {
 106:Generated_Source\PSoC5/USB_std.c ****         /* Control Read */
 107:Generated_Source\PSoC5/USB_std.c ****         switch (CY_GET_REG8(USB_bRequest))
 108:Generated_Source\PSoC5/USB_std.c ****         {
 109:Generated_Source\PSoC5/USB_std.c ****             case USB_GET_DESCRIPTOR:
 110:Generated_Source\PSoC5/USB_std.c ****                 if (CY_GET_REG8(USB_wValueHi) == USB_DESCR_DEVICE)
 111:Generated_Source\PSoC5/USB_std.c ****                 {
 112:Generated_Source\PSoC5/USB_std.c ****                     pTmp = USB_GetDeviceTablePtr();
 113:Generated_Source\PSoC5/USB_std.c ****                     USB_currentTD.pData = (volatile uint8 *)pTmp->p_list;
 114:Generated_Source\PSoC5/USB_std.c ****                     USB_currentTD.count = USB_DEVICE_DESCR_LENGTH;
 115:Generated_Source\PSoC5/USB_std.c ****                     requestHandled  = USB_InitControlRead();
 116:Generated_Source\PSoC5/USB_std.c ****                 }
 117:Generated_Source\PSoC5/USB_std.c ****                 else if (CY_GET_REG8(USB_wValueHi) == USB_DESCR_CONFIG)
 118:Generated_Source\PSoC5/USB_std.c ****                 {
 119:Generated_Source\PSoC5/USB_std.c ****                     pTmp = USB_GetConfigTablePtr(CY_GET_REG8(USB_wValueLo));
 120:Generated_Source\PSoC5/USB_std.c ****                     if( pTmp != NULL )  /* Verify that requested descriptor exists */
 121:Generated_Source\PSoC5/USB_std.c ****                     {
 122:Generated_Source\PSoC5/USB_std.c ****                         USB_currentTD.pData = (volatile uint8 *)pTmp->p_list;
 123:Generated_Source\PSoC5/USB_std.c ****                         USB_currentTD.count = ((uint16)(USB_currentTD.pData)[ \
 124:Generated_Source\PSoC5/USB_std.c ****                                           USB_CONFIG_DESCR_TOTAL_LENGTH_HI] << 8u) | \
 125:Generated_Source\PSoC5/USB_std.c ****                                          (USB_currentTD.pData)[USB_CONFIG_DESCR_TOTAL_LENGTH_LOW];
 126:Generated_Source\PSoC5/USB_std.c ****                         requestHandled  = USB_InitControlRead();
 127:Generated_Source\PSoC5/USB_std.c ****                     }
 128:Generated_Source\PSoC5/USB_std.c ****                 }
 129:Generated_Source\PSoC5/USB_std.c ****                 #if defined(USB_ENABLE_STRINGS)
 130:Generated_Source\PSoC5/USB_std.c ****                 else if (CY_GET_REG8(USB_wValueHi) == USB_DESCR_STRING)
 131:Generated_Source\PSoC5/USB_std.c ****                 {
 132:Generated_Source\PSoC5/USB_std.c ****                     /* Descriptor Strings*/
 133:Generated_Source\PSoC5/USB_std.c ****                     #if defined(USB_ENABLE_DESCRIPTOR_STRINGS)
 134:Generated_Source\PSoC5/USB_std.c ****                         nStr = 0u;
 135:Generated_Source\PSoC5/USB_std.c ****                         pStr = (volatile uint8 *)&USB_STRING_DESCRIPTORS[0u];
 136:Generated_Source\PSoC5/USB_std.c ****                         while ( (CY_GET_REG8(USB_wValueLo) > nStr) && (*pStr != 0u) )
 137:Generated_Source\PSoC5/USB_std.c ****                         {
 138:Generated_Source\PSoC5/USB_std.c ****                             /* Read descriptor length from 1st byte */
 139:Generated_Source\PSoC5/USB_std.c ****                             descrLength = *pStr;
 140:Generated_Source\PSoC5/USB_std.c ****                             /* Move to next string descriptor */
 141:Generated_Source\PSoC5/USB_std.c ****                             pStr = &pStr[descrLength];
 142:Generated_Source\PSoC5/USB_std.c ****                             nStr++;
 143:Generated_Source\PSoC5/USB_std.c ****                         }
 144:Generated_Source\PSoC5/USB_std.c ****                     #endif /*  USB_ENABLE_DESCRIPTOR_STRINGS */
 145:Generated_Source\PSoC5/USB_std.c ****                     /* Microsoft OS String*/
 146:Generated_Source\PSoC5/USB_std.c ****                     #if defined(USB_ENABLE_MSOS_STRING)
ARM GAS  C:\Users\mgronber\AppData\Local\Temp\ccohOFIJ.s 			page 4


 147:Generated_Source\PSoC5/USB_std.c ****                         if( CY_GET_REG8(USB_wValueLo) == USB_STRING_MSOS )
 148:Generated_Source\PSoC5/USB_std.c ****                         {
 149:Generated_Source\PSoC5/USB_std.c ****                             pStr = (volatile uint8 *)&USB_MSOS_DESCRIPTOR[0u];
 150:Generated_Source\PSoC5/USB_std.c ****                         }
 151:Generated_Source\PSoC5/USB_std.c ****                     #endif /*  USB_ENABLE_MSOS_STRING*/
 152:Generated_Source\PSoC5/USB_std.c ****                     /* SN string */
 153:Generated_Source\PSoC5/USB_std.c ****                     #if defined(USB_ENABLE_SN_STRING)
 154:Generated_Source\PSoC5/USB_std.c ****                         if( (CY_GET_REG8(USB_wValueLo) != 0u) &&
 155:Generated_Source\PSoC5/USB_std.c ****                             (CY_GET_REG8(USB_wValueLo) ==
 156:Generated_Source\PSoC5/USB_std.c ****                             USB_DEVICE0_DESCR[USB_DEVICE_DESCR_SN_SHIFT]) )
 157:Generated_Source\PSoC5/USB_std.c ****                         {
 158:Generated_Source\PSoC5/USB_std.c ****                             
 159:Generated_Source\PSoC5/USB_std.c ****                             #if defined(USB_ENABLE_IDSN_STRING)
 160:Generated_Source\PSoC5/USB_std.c ****                                 /* Read DIE ID and generate string descriptor in RAM */
 161:Generated_Source\PSoC5/USB_std.c ****                                 USB_ReadDieID(USB_idSerialNumberStringDescriptor);
 162:Generated_Source\PSoC5/USB_std.c ****                                 pStr = USB_idSerialNumberStringDescriptor;
 163:Generated_Source\PSoC5/USB_std.c ****                             #elif defined(USB_ENABLE_FWSN_STRING)
 164:Generated_Source\PSoC5/USB_std.c ****                                 if(USB_snStringConfirm != USB_FALSE)
 165:Generated_Source\PSoC5/USB_std.c ****                                 {
 166:Generated_Source\PSoC5/USB_std.c ****                                     pStr = USB_fwSerialNumberStringDescriptor;
 167:Generated_Source\PSoC5/USB_std.c ****                                 }
 168:Generated_Source\PSoC5/USB_std.c ****                                 else
 169:Generated_Source\PSoC5/USB_std.c ****                                 {
 170:Generated_Source\PSoC5/USB_std.c ****                                     pStr = (volatile uint8 *)&USB_SN_STRING_DESCRIPTOR[0u];
 171:Generated_Source\PSoC5/USB_std.c ****                                 }
 172:Generated_Source\PSoC5/USB_std.c ****                             #else
 173:Generated_Source\PSoC5/USB_std.c ****                                 pStr = (volatile uint8 *)&USB_SN_STRING_DESCRIPTOR[0u];
 174:Generated_Source\PSoC5/USB_std.c ****                             #endif  /* defined(USB_ENABLE_IDSN_STRING) */
 175:Generated_Source\PSoC5/USB_std.c ****                         }
 176:Generated_Source\PSoC5/USB_std.c ****                     #endif    /*  USB_ENABLE_SN_STRING */
 177:Generated_Source\PSoC5/USB_std.c ****                     if (*pStr != 0u)
 178:Generated_Source\PSoC5/USB_std.c ****                     {
 179:Generated_Source\PSoC5/USB_std.c ****                         USB_currentTD.count = *pStr;
 180:Generated_Source\PSoC5/USB_std.c ****                         USB_currentTD.pData = pStr;
 181:Generated_Source\PSoC5/USB_std.c ****                         requestHandled  = USB_InitControlRead();
 182:Generated_Source\PSoC5/USB_std.c ****                     }
 183:Generated_Source\PSoC5/USB_std.c ****                 }
 184:Generated_Source\PSoC5/USB_std.c ****                 #endif /*  USB_ENABLE_STRINGS */
 185:Generated_Source\PSoC5/USB_std.c ****                 else
 186:Generated_Source\PSoC5/USB_std.c ****                 {
 187:Generated_Source\PSoC5/USB_std.c ****                     requestHandled = USB_DispatchClassRqst();
 188:Generated_Source\PSoC5/USB_std.c ****                 }
 189:Generated_Source\PSoC5/USB_std.c ****                 break;
 190:Generated_Source\PSoC5/USB_std.c ****             case USB_GET_STATUS:
 191:Generated_Source\PSoC5/USB_std.c ****                 switch ((CY_GET_REG8(USB_bmRequestType) & USB_RQST_RCPT_MASK))
 192:Generated_Source\PSoC5/USB_std.c ****                 {
 193:Generated_Source\PSoC5/USB_std.c ****                     case USB_RQST_RCPT_EP:
 194:Generated_Source\PSoC5/USB_std.c ****                         USB_currentTD.count = USB_EP_STATUS_LENGTH;
 195:Generated_Source\PSoC5/USB_std.c ****                         USB_tBuffer[0u] = USB_EP[ \
 196:Generated_Source\PSoC5/USB_std.c ****                                         CY_GET_REG8(USB_wIndexLo) & USB_DIR_UNUSED].hwEpState;
 197:Generated_Source\PSoC5/USB_std.c ****                         USB_tBuffer[1u] = 0u;
 198:Generated_Source\PSoC5/USB_std.c ****                         USB_currentTD.pData = &USB_tBuffer[0u];
 199:Generated_Source\PSoC5/USB_std.c ****                         requestHandled  = USB_InitControlRead();
 200:Generated_Source\PSoC5/USB_std.c ****                         break;
 201:Generated_Source\PSoC5/USB_std.c ****                     case USB_RQST_RCPT_DEV:
 202:Generated_Source\PSoC5/USB_std.c ****                         USB_currentTD.count = USB_DEVICE_STATUS_LENGTH;
 203:Generated_Source\PSoC5/USB_std.c ****                         USB_tBuffer[0u] = USB_deviceStatus;
ARM GAS  C:\Users\mgronber\AppData\Local\Temp\ccohOFIJ.s 			page 5


 204:Generated_Source\PSoC5/USB_std.c ****                         USB_tBuffer[1u] = 0u;
 205:Generated_Source\PSoC5/USB_std.c ****                         USB_currentTD.pData = &USB_tBuffer[0u];
 206:Generated_Source\PSoC5/USB_std.c ****                         requestHandled  = USB_InitControlRead();
 207:Generated_Source\PSoC5/USB_std.c ****                         break;
 208:Generated_Source\PSoC5/USB_std.c ****                     default:    /* requestHandled is initialized as FALSE by default */
 209:Generated_Source\PSoC5/USB_std.c ****                         break;
 210:Generated_Source\PSoC5/USB_std.c ****                 }
 211:Generated_Source\PSoC5/USB_std.c ****                 break;
 212:Generated_Source\PSoC5/USB_std.c ****             case USB_GET_CONFIGURATION:
 213:Generated_Source\PSoC5/USB_std.c ****                 USB_currentTD.count = 1u;
 214:Generated_Source\PSoC5/USB_std.c ****                 USB_currentTD.pData = (volatile uint8 *)&USB_configuration;
 215:Generated_Source\PSoC5/USB_std.c ****                 requestHandled  = USB_InitControlRead();
 216:Generated_Source\PSoC5/USB_std.c ****                 break;
 217:Generated_Source\PSoC5/USB_std.c ****             case USB_GET_INTERFACE:
 218:Generated_Source\PSoC5/USB_std.c ****                 USB_currentTD.count = 1u;
 219:Generated_Source\PSoC5/USB_std.c ****                 USB_currentTD.pData = (volatile uint8 *)&USB_interfaceSetting[ \
 220:Generated_Source\PSoC5/USB_std.c ****                                                                             CY_GET_REG8(USB_wIndexL
 221:Generated_Source\PSoC5/USB_std.c ****                 requestHandled  = USB_InitControlRead();
 222:Generated_Source\PSoC5/USB_std.c ****                 break;
 223:Generated_Source\PSoC5/USB_std.c ****             default: /* requestHandled is initialized as FALSE by default */
 224:Generated_Source\PSoC5/USB_std.c ****                 break;
 225:Generated_Source\PSoC5/USB_std.c ****         }
 226:Generated_Source\PSoC5/USB_std.c ****     }
 227:Generated_Source\PSoC5/USB_std.c ****     else {
 228:Generated_Source\PSoC5/USB_std.c ****         /* Control Write */
 229:Generated_Source\PSoC5/USB_std.c ****         switch (CY_GET_REG8(USB_bRequest))
 230:Generated_Source\PSoC5/USB_std.c ****         {
 231:Generated_Source\PSoC5/USB_std.c ****             case USB_SET_ADDRESS:
 232:Generated_Source\PSoC5/USB_std.c ****                 USB_deviceAddress = CY_GET_REG8(USB_wValueLo);
 233:Generated_Source\PSoC5/USB_std.c ****                 requestHandled = USB_InitNoDataControlTransfer();
 234:Generated_Source\PSoC5/USB_std.c ****                 break;
 235:Generated_Source\PSoC5/USB_std.c ****             case USB_SET_CONFIGURATION:
 236:Generated_Source\PSoC5/USB_std.c ****                 configurationN = CY_GET_REG8(USB_wValueLo);
 237:Generated_Source\PSoC5/USB_std.c ****                 if(configurationN > 0)
 238:Generated_Source\PSoC5/USB_std.c ****                 {   /* Verify that configuration descriptor exists */
 239:Generated_Source\PSoC5/USB_std.c ****                     pTmp = USB_GetConfigTablePtr(configurationN - 1u);
 240:Generated_Source\PSoC5/USB_std.c ****                 }
 241:Generated_Source\PSoC5/USB_std.c ****                 /* Responds with a Request Error when configuration number is invalid */
 242:Generated_Source\PSoC5/USB_std.c ****                 if (((configurationN > 0) && (pTmp != NULL)) || (configurationN == 0u))
 243:Generated_Source\PSoC5/USB_std.c ****                 {
 244:Generated_Source\PSoC5/USB_std.c ****                     /* Set new configuration if it has been changed */
 245:Generated_Source\PSoC5/USB_std.c ****                     if(configurationN != USB_configuration)        
 246:Generated_Source\PSoC5/USB_std.c ****                     {
 247:Generated_Source\PSoC5/USB_std.c ****                         USB_configuration = configurationN;
 248:Generated_Source\PSoC5/USB_std.c ****                         USB_configurationChanged = USB_TRUE;
 249:Generated_Source\PSoC5/USB_std.c ****                         USB_Config(USB_TRUE);
 250:Generated_Source\PSoC5/USB_std.c ****                     }
 251:Generated_Source\PSoC5/USB_std.c ****                     requestHandled = USB_InitNoDataControlTransfer();
 252:Generated_Source\PSoC5/USB_std.c ****                 }
 253:Generated_Source\PSoC5/USB_std.c ****                 break;
 254:Generated_Source\PSoC5/USB_std.c ****             case USB_SET_INTERFACE:
 255:Generated_Source\PSoC5/USB_std.c ****                 if (USB_ValidateAlternateSetting() != 0u)
 256:Generated_Source\PSoC5/USB_std.c ****                 {
 257:Generated_Source\PSoC5/USB_std.c ****                     interfaceNumber = CY_GET_REG8(USB_wIndexLo);
 258:Generated_Source\PSoC5/USB_std.c ****                     USB_interfaceNumber = interfaceNumber;
 259:Generated_Source\PSoC5/USB_std.c ****                     USB_configurationChanged = USB_TRUE;
 260:Generated_Source\PSoC5/USB_std.c ****                     #if ((USB_EP_MA == USB__MA_DYNAMIC) && \
ARM GAS  C:\Users\mgronber\AppData\Local\Temp\ccohOFIJ.s 			page 6


 261:Generated_Source\PSoC5/USB_std.c ****                          (USB_EP_MM == USB__EP_MANUAL) )
 262:Generated_Source\PSoC5/USB_std.c ****                         USB_Config(USB_FALSE);
 263:Generated_Source\PSoC5/USB_std.c ****                     #else
 264:Generated_Source\PSoC5/USB_std.c ****                         USB_ConfigAltChanged();
 265:Generated_Source\PSoC5/USB_std.c ****                     #endif /*  (USB_EP_MA == USB__MA_DYNAMIC) */
 266:Generated_Source\PSoC5/USB_std.c ****                     /* Update handled Alt setting changes status */
 267:Generated_Source\PSoC5/USB_std.c ****                     USB_interfaceSetting_last[interfaceNumber] =
 268:Generated_Source\PSoC5/USB_std.c ****                          USB_interfaceSetting[interfaceNumber];
 269:Generated_Source\PSoC5/USB_std.c ****                     requestHandled = USB_InitNoDataControlTransfer();
 270:Generated_Source\PSoC5/USB_std.c ****                 }
 271:Generated_Source\PSoC5/USB_std.c ****                 break;
 272:Generated_Source\PSoC5/USB_std.c ****             case USB_CLEAR_FEATURE:
 273:Generated_Source\PSoC5/USB_std.c ****                 switch (CY_GET_REG8(USB_bmRequestType) & USB_RQST_RCPT_MASK)
 274:Generated_Source\PSoC5/USB_std.c ****                 {
 275:Generated_Source\PSoC5/USB_std.c ****                     case USB_RQST_RCPT_EP:
 276:Generated_Source\PSoC5/USB_std.c ****                         if (CY_GET_REG8(USB_wValueLo) == USB_ENDPOINT_HALT)
 277:Generated_Source\PSoC5/USB_std.c ****                         {
 278:Generated_Source\PSoC5/USB_std.c ****                             requestHandled = USB_ClearEndpointHalt();
 279:Generated_Source\PSoC5/USB_std.c ****                         }
 280:Generated_Source\PSoC5/USB_std.c ****                         break;
 281:Generated_Source\PSoC5/USB_std.c ****                     case USB_RQST_RCPT_DEV:
 282:Generated_Source\PSoC5/USB_std.c ****                         /* Clear device REMOTE_WAKEUP */
 283:Generated_Source\PSoC5/USB_std.c ****                         if (CY_GET_REG8(USB_wValueLo) == USB_DEVICE_REMOTE_WAKEUP)
 284:Generated_Source\PSoC5/USB_std.c ****                         {
 285:Generated_Source\PSoC5/USB_std.c ****                             USB_deviceStatus &= (uint8)~USB_DEVICE_STATUS_REMOTE_WAKEUP;
 286:Generated_Source\PSoC5/USB_std.c ****                             requestHandled = USB_InitNoDataControlTransfer();
 287:Generated_Source\PSoC5/USB_std.c ****                         }
 288:Generated_Source\PSoC5/USB_std.c ****                         break;
 289:Generated_Source\PSoC5/USB_std.c ****                     case USB_RQST_RCPT_IFC:
 290:Generated_Source\PSoC5/USB_std.c ****                         /* Validate interfaceNumber */
 291:Generated_Source\PSoC5/USB_std.c ****                         if (CY_GET_REG8(USB_wIndexLo) < USB_MAX_INTERFACES_NUMBER)
 292:Generated_Source\PSoC5/USB_std.c ****                         {
 293:Generated_Source\PSoC5/USB_std.c ****                             USB_interfaceStatus[CY_GET_REG8(USB_wIndexLo)] &=
 294:Generated_Source\PSoC5/USB_std.c ****                                                                 (uint8)~(CY_GET_REG8(USB_wValueLo))
 295:Generated_Source\PSoC5/USB_std.c ****                             requestHandled = USB_InitNoDataControlTransfer();
 296:Generated_Source\PSoC5/USB_std.c ****                         }
 297:Generated_Source\PSoC5/USB_std.c ****                         break;
 298:Generated_Source\PSoC5/USB_std.c ****                     default:    /* requestHandled is initialized as FALSE by default */
 299:Generated_Source\PSoC5/USB_std.c ****                         break;
 300:Generated_Source\PSoC5/USB_std.c ****                 }
 301:Generated_Source\PSoC5/USB_std.c ****                 break;
 302:Generated_Source\PSoC5/USB_std.c ****             case USB_SET_FEATURE:
 303:Generated_Source\PSoC5/USB_std.c ****                 switch (CY_GET_REG8(USB_bmRequestType) & USB_RQST_RCPT_MASK)
 304:Generated_Source\PSoC5/USB_std.c ****                 {
 305:Generated_Source\PSoC5/USB_std.c ****                     case USB_RQST_RCPT_EP:
 306:Generated_Source\PSoC5/USB_std.c ****                         if (CY_GET_REG8(USB_wValueLo) == USB_ENDPOINT_HALT)
 307:Generated_Source\PSoC5/USB_std.c ****                         {
 308:Generated_Source\PSoC5/USB_std.c ****                             requestHandled = USB_SetEndpointHalt();
 309:Generated_Source\PSoC5/USB_std.c ****                         }
 310:Generated_Source\PSoC5/USB_std.c ****                         break;
 311:Generated_Source\PSoC5/USB_std.c ****                     case USB_RQST_RCPT_DEV:
 312:Generated_Source\PSoC5/USB_std.c ****                         /* Set device REMOTE_WAKEUP */
 313:Generated_Source\PSoC5/USB_std.c ****                         if (CY_GET_REG8(USB_wValueLo) == USB_DEVICE_REMOTE_WAKEUP)
 314:Generated_Source\PSoC5/USB_std.c ****                         {
 315:Generated_Source\PSoC5/USB_std.c ****                             USB_deviceStatus |= USB_DEVICE_STATUS_REMOTE_WAKEUP;
 316:Generated_Source\PSoC5/USB_std.c ****                             requestHandled = USB_InitNoDataControlTransfer();
 317:Generated_Source\PSoC5/USB_std.c ****                         }
ARM GAS  C:\Users\mgronber\AppData\Local\Temp\ccohOFIJ.s 			page 7


 318:Generated_Source\PSoC5/USB_std.c ****                         break;
 319:Generated_Source\PSoC5/USB_std.c ****                     case USB_RQST_RCPT_IFC:
 320:Generated_Source\PSoC5/USB_std.c ****                         /* Validate interfaceNumber */
 321:Generated_Source\PSoC5/USB_std.c ****                         if (CY_GET_REG8(USB_wIndexLo) < USB_MAX_INTERFACES_NUMBER)
 322:Generated_Source\PSoC5/USB_std.c ****                         {
 323:Generated_Source\PSoC5/USB_std.c ****                             USB_interfaceStatus[CY_GET_REG8(USB_wIndexLo)] &=
 324:Generated_Source\PSoC5/USB_std.c ****                                                                 (uint8)~(CY_GET_REG8(USB_wValueLo))
 325:Generated_Source\PSoC5/USB_std.c ****                             requestHandled = USB_InitNoDataControlTransfer();
 326:Generated_Source\PSoC5/USB_std.c ****                         }
 327:Generated_Source\PSoC5/USB_std.c ****                         break;
 328:Generated_Source\PSoC5/USB_std.c ****                     default:    /* requestHandled is initialized as FALSE by default */
 329:Generated_Source\PSoC5/USB_std.c ****                         break;
 330:Generated_Source\PSoC5/USB_std.c ****                 }
 331:Generated_Source\PSoC5/USB_std.c ****                 break;
 332:Generated_Source\PSoC5/USB_std.c ****             default:    /* requestHandled is initialized as FALSE by default */
 333:Generated_Source\PSoC5/USB_std.c ****                 break;
 334:Generated_Source\PSoC5/USB_std.c ****         }
 335:Generated_Source\PSoC5/USB_std.c ****     }
 336:Generated_Source\PSoC5/USB_std.c ****     return(requestHandled);
 337:Generated_Source\PSoC5/USB_std.c **** }
 338:Generated_Source\PSoC5/USB_std.c **** 
 339:Generated_Source\PSoC5/USB_std.c **** 
 340:Generated_Source\PSoC5/USB_std.c **** #if defined(USB_ENABLE_IDSN_STRING)
 341:Generated_Source\PSoC5/USB_std.c **** 
 342:Generated_Source\PSoC5/USB_std.c ****     /***************************************************************************
 343:Generated_Source\PSoC5/USB_std.c ****     * Function Name: USB_ReadDieID
 344:Generated_Source\PSoC5/USB_std.c ****     ****************************************************************************
 345:Generated_Source\PSoC5/USB_std.c ****     *
 346:Generated_Source\PSoC5/USB_std.c ****     * Summary:
 347:Generated_Source\PSoC5/USB_std.c ****     *  This routine read Die ID and generate Serial Number string descriptor.
 348:Generated_Source\PSoC5/USB_std.c ****     *
 349:Generated_Source\PSoC5/USB_std.c ****     * Parameters:
 350:Generated_Source\PSoC5/USB_std.c ****     *  descr:  pointer on string descriptor.
 351:Generated_Source\PSoC5/USB_std.c ****     *
 352:Generated_Source\PSoC5/USB_std.c ****     * Return:
 353:Generated_Source\PSoC5/USB_std.c ****     *  None.
 354:Generated_Source\PSoC5/USB_std.c ****     *
 355:Generated_Source\PSoC5/USB_std.c ****     * Reentrant:
 356:Generated_Source\PSoC5/USB_std.c ****     *  No.
 357:Generated_Source\PSoC5/USB_std.c ****     *
 358:Generated_Source\PSoC5/USB_std.c ****     ***************************************************************************/
 359:Generated_Source\PSoC5/USB_std.c ****     void USB_ReadDieID(uint8 descr[]) 
 360:Generated_Source\PSoC5/USB_std.c ****     {
 361:Generated_Source\PSoC5/USB_std.c ****         uint8 i;
 362:Generated_Source\PSoC5/USB_std.c ****         uint8 j = 0u;
 363:Generated_Source\PSoC5/USB_std.c ****         uint8 value;
 364:Generated_Source\PSoC5/USB_std.c ****         const char8 CYCODE hex[16u] = "0123456789ABCDEF";
 365:Generated_Source\PSoC5/USB_std.c **** 
 366:Generated_Source\PSoC5/USB_std.c ****         /* Check descriptor validation */
 367:Generated_Source\PSoC5/USB_std.c ****         if( descr != NULL)
 368:Generated_Source\PSoC5/USB_std.c ****         {
 369:Generated_Source\PSoC5/USB_std.c ****             descr[0u] = USB_IDSN_DESCR_LENGTH;
 370:Generated_Source\PSoC5/USB_std.c ****             descr[1u] = USB_DESCR_STRING;
 371:Generated_Source\PSoC5/USB_std.c **** 
 372:Generated_Source\PSoC5/USB_std.c ****             /* fill descriptor */
 373:Generated_Source\PSoC5/USB_std.c ****             for(i = 2u; i < USB_IDSN_DESCR_LENGTH; i += 4u)
 374:Generated_Source\PSoC5/USB_std.c ****             {
ARM GAS  C:\Users\mgronber\AppData\Local\Temp\ccohOFIJ.s 			page 8


 375:Generated_Source\PSoC5/USB_std.c ****                 value = CY_GET_XTND_REG8((void CYFAR *)(USB_DIE_ID + j));
 376:Generated_Source\PSoC5/USB_std.c ****                 j++;
 377:Generated_Source\PSoC5/USB_std.c ****                 descr[i] = (uint8)hex[value >> 4u];
 378:Generated_Source\PSoC5/USB_std.c ****                 descr[i + 2u] = (uint8)hex[value & 0x0Fu];
 379:Generated_Source\PSoC5/USB_std.c ****             }
 380:Generated_Source\PSoC5/USB_std.c ****         }
 381:Generated_Source\PSoC5/USB_std.c ****     }
 382:Generated_Source\PSoC5/USB_std.c **** 
 383:Generated_Source\PSoC5/USB_std.c **** #endif /*  USB_ENABLE_IDSN_STRING */
 384:Generated_Source\PSoC5/USB_std.c **** 
 385:Generated_Source\PSoC5/USB_std.c **** 
 386:Generated_Source\PSoC5/USB_std.c **** /*******************************************************************************
 387:Generated_Source\PSoC5/USB_std.c **** * Function Name: USB_ConfigReg
 388:Generated_Source\PSoC5/USB_std.c **** ********************************************************************************
 389:Generated_Source\PSoC5/USB_std.c **** *
 390:Generated_Source\PSoC5/USB_std.c **** * Summary:
 391:Generated_Source\PSoC5/USB_std.c **** *  This routine configures hardware registers from the variables.
 392:Generated_Source\PSoC5/USB_std.c **** *  It is called from USB_Config() function and from RestoreConfig
 393:Generated_Source\PSoC5/USB_std.c **** *  after Wakeup.
 394:Generated_Source\PSoC5/USB_std.c **** *
 395:Generated_Source\PSoC5/USB_std.c **** * Parameters:
 396:Generated_Source\PSoC5/USB_std.c **** *  None.
 397:Generated_Source\PSoC5/USB_std.c **** *
 398:Generated_Source\PSoC5/USB_std.c **** * Return:
 399:Generated_Source\PSoC5/USB_std.c **** *  None.
 400:Generated_Source\PSoC5/USB_std.c **** *
 401:Generated_Source\PSoC5/USB_std.c **** *******************************************************************************/
 402:Generated_Source\PSoC5/USB_std.c **** void USB_ConfigReg(void) 
 403:Generated_Source\PSoC5/USB_std.c **** {
 404:Generated_Source\PSoC5/USB_std.c ****     uint8 ep;
 405:Generated_Source\PSoC5/USB_std.c ****     uint8 i;
 406:Generated_Source\PSoC5/USB_std.c ****     #if(USB_EP_MM == USB__EP_DMAAUTO)
 407:Generated_Source\PSoC5/USB_std.c ****         uint8 epType = 0u;
 408:Generated_Source\PSoC5/USB_std.c ****     #endif /*  USB_EP_MM == USB__EP_DMAAUTO */
 409:Generated_Source\PSoC5/USB_std.c **** 
 410:Generated_Source\PSoC5/USB_std.c ****     /* Set the endpoint buffer addresses */
 411:Generated_Source\PSoC5/USB_std.c ****     ep = USB_EP1;
 412:Generated_Source\PSoC5/USB_std.c ****     for (i = 0u; i < 0x80u; i+= 0x10u)
 413:Generated_Source\PSoC5/USB_std.c ****     {
 414:Generated_Source\PSoC5/USB_std.c ****         CY_SET_REG8((reg8 *)(USB_ARB_EP1_CFG_IND + i), USB_ARB_EPX_CFG_DEFAULT);
 415:Generated_Source\PSoC5/USB_std.c ****         #if(USB_EP_MM != USB__EP_MANUAL)
 416:Generated_Source\PSoC5/USB_std.c ****             /* Enable all Arbiter EP Interrupts : err, buf under, buf over, dma gnt(mode2 only), in
 417:Generated_Source\PSoC5/USB_std.c ****             CY_SET_REG8((reg8 *)(USB_ARB_EP1_INT_EN_IND + i), USB_ARB_EPX_INT_MASK);
 418:Generated_Source\PSoC5/USB_std.c ****         #endif   /*  USB_EP_MM != USB__EP_MANUAL */
 419:Generated_Source\PSoC5/USB_std.c **** 
 420:Generated_Source\PSoC5/USB_std.c ****         if(USB_EP[ep].epMode != USB_MODE_DISABLE)
 421:Generated_Source\PSoC5/USB_std.c ****         {
 422:Generated_Source\PSoC5/USB_std.c ****             if((USB_EP[ep].addr & USB_DIR_IN) != 0u )
 423:Generated_Source\PSoC5/USB_std.c ****             {
 424:Generated_Source\PSoC5/USB_std.c ****                 CY_SET_REG8((reg8 *)(USB_SIE_EP1_CR0_IND + i), USB_MODE_NAK_IN);
 425:Generated_Source\PSoC5/USB_std.c ****             }
 426:Generated_Source\PSoC5/USB_std.c ****             else
 427:Generated_Source\PSoC5/USB_std.c ****             {
 428:Generated_Source\PSoC5/USB_std.c ****                 CY_SET_REG8((reg8 *)(USB_SIE_EP1_CR0_IND + i), USB_MODE_NAK_OUT);
 429:Generated_Source\PSoC5/USB_std.c ****                 /* Prepare EP type mask for automatic memory allocation */
 430:Generated_Source\PSoC5/USB_std.c ****                 #if(USB_EP_MM == USB__EP_DMAAUTO)
 431:Generated_Source\PSoC5/USB_std.c ****                     epType |= (uint8)(0x01u << (ep - USB_EP1));
ARM GAS  C:\Users\mgronber\AppData\Local\Temp\ccohOFIJ.s 			page 9


 432:Generated_Source\PSoC5/USB_std.c ****                 #endif /*  USB_EP_MM == USB__EP_DMAAUTO */
 433:Generated_Source\PSoC5/USB_std.c ****             }
 434:Generated_Source\PSoC5/USB_std.c ****         }
 435:Generated_Source\PSoC5/USB_std.c ****         else
 436:Generated_Source\PSoC5/USB_std.c ****         {
 437:Generated_Source\PSoC5/USB_std.c ****             CY_SET_REG8((reg8 *)(USB_SIE_EP1_CR0_IND + i), USB_MODE_STALL_DATA_EP);
 438:Generated_Source\PSoC5/USB_std.c ****         }
 439:Generated_Source\PSoC5/USB_std.c **** 
 440:Generated_Source\PSoC5/USB_std.c ****         #if(USB_EP_MM != USB__EP_DMAAUTO)
 441:Generated_Source\PSoC5/USB_std.c ****             CY_SET_REG8((reg8 *)(USB_SIE_EP1_CNT0_IND + i),   USB_EP[ep].bufferSize >> 8u);
 442:Generated_Source\PSoC5/USB_std.c ****             CY_SET_REG8((reg8 *)(USB_SIE_EP1_CNT1_IND + i),   USB_EP[ep].bufferSize & 0xFFu);
 443:Generated_Source\PSoC5/USB_std.c **** 
 444:Generated_Source\PSoC5/USB_std.c ****             CY_SET_REG8((reg8 *)(USB_ARB_RW1_RA_IND + i),     USB_EP[ep].buffOffset & 0xFFu);
 445:Generated_Source\PSoC5/USB_std.c ****             CY_SET_REG8((reg8 *)(USB_ARB_RW1_RA_MSB_IND + i), USB_EP[ep].buffOffset >> 8u);
 446:Generated_Source\PSoC5/USB_std.c ****             CY_SET_REG8((reg8 *)(USB_ARB_RW1_WA_IND + i),     USB_EP[ep].buffOffset & 0xFFu);
 447:Generated_Source\PSoC5/USB_std.c ****             CY_SET_REG8((reg8 *)(USB_ARB_RW1_WA_MSB_IND + i), USB_EP[ep].buffOffset >> 8u);
 448:Generated_Source\PSoC5/USB_std.c ****         #endif /*  USB_EP_MM != USB__EP_DMAAUTO */
 449:Generated_Source\PSoC5/USB_std.c **** 
 450:Generated_Source\PSoC5/USB_std.c ****         ep++;
 451:Generated_Source\PSoC5/USB_std.c ****     }
 452:Generated_Source\PSoC5/USB_std.c **** 
 453:Generated_Source\PSoC5/USB_std.c ****     #if(USB_EP_MM == USB__EP_DMAAUTO)
 454:Generated_Source\PSoC5/USB_std.c ****          /* BUF_SIZE depend on DMA_THRESS value: 55-32 bytes  44-16 bytes 33-8 bytes 22-4 bytes 11-
 455:Generated_Source\PSoC5/USB_std.c ****         USB_BUF_SIZE_REG = USB_DMA_BUF_SIZE;
 456:Generated_Source\PSoC5/USB_std.c ****         USB_DMA_THRES_REG = USB_DMA_BYTES_PER_BURST;   /* DMA burst threshold */
 457:Generated_Source\PSoC5/USB_std.c ****         USB_DMA_THRES_MSB_REG = 0u;
 458:Generated_Source\PSoC5/USB_std.c ****         USB_EP_ACTIVE_REG = USB_ARB_INT_MASK;
 459:Generated_Source\PSoC5/USB_std.c ****         USB_EP_TYPE_REG = epType;
 460:Generated_Source\PSoC5/USB_std.c ****         /* Cfg_cmp bit set to 1 once configuration is complete. */
 461:Generated_Source\PSoC5/USB_std.c ****         USB_ARB_CFG_REG = USB_ARB_CFG_AUTO_DMA | USB_ARB_CFG_AUTO_MEM |
 462:Generated_Source\PSoC5/USB_std.c ****                                        USB_ARB_CFG_CFG_CPM;
 463:Generated_Source\PSoC5/USB_std.c ****         /* Cfg_cmp bit set to 0 during configuration of PFSUSB Registers. */
 464:Generated_Source\PSoC5/USB_std.c ****         USB_ARB_CFG_REG = USB_ARB_CFG_AUTO_DMA | USB_ARB_CFG_AUTO_MEM;
 465:Generated_Source\PSoC5/USB_std.c ****     #endif /*  USB_EP_MM == USB__EP_DMAAUTO */
 466:Generated_Source\PSoC5/USB_std.c **** 
 467:Generated_Source\PSoC5/USB_std.c ****     CY_SET_REG8(USB_SIE_EP_INT_EN_PTR, 0xFFu);
 468:Generated_Source\PSoC5/USB_std.c **** }
 469:Generated_Source\PSoC5/USB_std.c **** 
 470:Generated_Source\PSoC5/USB_std.c **** 
 471:Generated_Source\PSoC5/USB_std.c **** /*******************************************************************************
 472:Generated_Source\PSoC5/USB_std.c **** * Function Name: USB_Config
 473:Generated_Source\PSoC5/USB_std.c **** ********************************************************************************
 474:Generated_Source\PSoC5/USB_std.c **** *
 475:Generated_Source\PSoC5/USB_std.c **** * Summary:
 476:Generated_Source\PSoC5/USB_std.c **** *  This routine configures endpoints for the entire configuration by scanning
 477:Generated_Source\PSoC5/USB_std.c **** *  the configuration descriptor.
 478:Generated_Source\PSoC5/USB_std.c **** *
 479:Generated_Source\PSoC5/USB_std.c **** * Parameters:
 480:Generated_Source\PSoC5/USB_std.c **** *  clearAltSetting: It configures the bAlternateSetting 0 for each interface.
 481:Generated_Source\PSoC5/USB_std.c **** *
 482:Generated_Source\PSoC5/USB_std.c **** * Return:
 483:Generated_Source\PSoC5/USB_std.c **** *  None.
 484:Generated_Source\PSoC5/USB_std.c **** *
 485:Generated_Source\PSoC5/USB_std.c **** * USB_interfaceClass - Initialized class array for each interface.
 486:Generated_Source\PSoC5/USB_std.c **** *   It is used for handling Class specific requests depend on interface class.
 487:Generated_Source\PSoC5/USB_std.c **** *   Different classes in multiple Alternate settings does not supported.
 488:Generated_Source\PSoC5/USB_std.c **** *
ARM GAS  C:\Users\mgronber\AppData\Local\Temp\ccohOFIJ.s 			page 10


 489:Generated_Source\PSoC5/USB_std.c **** * Reentrant:
 490:Generated_Source\PSoC5/USB_std.c **** *  No.
 491:Generated_Source\PSoC5/USB_std.c **** *
 492:Generated_Source\PSoC5/USB_std.c **** *******************************************************************************/
 493:Generated_Source\PSoC5/USB_std.c **** void USB_Config(uint8 clearAltSetting) 
 494:Generated_Source\PSoC5/USB_std.c **** {
 495:Generated_Source\PSoC5/USB_std.c ****     uint8 ep;
 496:Generated_Source\PSoC5/USB_std.c ****     uint8 cur_ep;
 497:Generated_Source\PSoC5/USB_std.c ****     uint8 i;
 498:Generated_Source\PSoC5/USB_std.c ****     uint8 epType;
 499:Generated_Source\PSoC5/USB_std.c ****     const uint8 *pDescr;
 500:Generated_Source\PSoC5/USB_std.c ****     #if(USB_EP_MM != USB__EP_DMAAUTO)
 501:Generated_Source\PSoC5/USB_std.c ****         uint16 buffCount = 0u;
 502:Generated_Source\PSoC5/USB_std.c ****     #endif /*  USB_EP_MM != USB__EP_DMAAUTO */
 503:Generated_Source\PSoC5/USB_std.c **** 
 504:Generated_Source\PSoC5/USB_std.c ****     const T_USB_LUT CYCODE *pTmp;
 505:Generated_Source\PSoC5/USB_std.c ****     const T_USB_EP_SETTINGS_BLOCK CYCODE *pEP;
 506:Generated_Source\PSoC5/USB_std.c **** 
 507:Generated_Source\PSoC5/USB_std.c ****     /* Clear all of the endpoints */
 508:Generated_Source\PSoC5/USB_std.c ****     for (ep = 0u; ep < USB_MAX_EP; ep++)
 509:Generated_Source\PSoC5/USB_std.c ****     {
 510:Generated_Source\PSoC5/USB_std.c ****         USB_EP[ep].attrib = 0u;
 511:Generated_Source\PSoC5/USB_std.c ****         USB_EP[ep].hwEpState = 0u;
 512:Generated_Source\PSoC5/USB_std.c ****         USB_EP[ep].apiEpState = USB_NO_EVENT_PENDING;
 513:Generated_Source\PSoC5/USB_std.c ****         USB_EP[ep].epToggle = 0u;
 514:Generated_Source\PSoC5/USB_std.c ****         USB_EP[ep].epMode = USB_MODE_DISABLE;
 515:Generated_Source\PSoC5/USB_std.c ****         USB_EP[ep].bufferSize = 0u;
 516:Generated_Source\PSoC5/USB_std.c ****         USB_EP[ep].interface = 0u;
 517:Generated_Source\PSoC5/USB_std.c **** 
 518:Generated_Source\PSoC5/USB_std.c ****     }
 519:Generated_Source\PSoC5/USB_std.c **** 
 520:Generated_Source\PSoC5/USB_std.c ****     /* Clear Alternate settings for all interfaces */
 521:Generated_Source\PSoC5/USB_std.c ****     if(clearAltSetting != 0u)
 522:Generated_Source\PSoC5/USB_std.c ****     {
 523:Generated_Source\PSoC5/USB_std.c ****         for (i = 0u; i < USB_MAX_INTERFACES_NUMBER; i++)
 524:Generated_Source\PSoC5/USB_std.c ****         {
 525:Generated_Source\PSoC5/USB_std.c ****             USB_interfaceSetting[i] = 0x00u;
 526:Generated_Source\PSoC5/USB_std.c ****             USB_interfaceSetting_last[i] = 0x00u;
 527:Generated_Source\PSoC5/USB_std.c ****         }
 528:Generated_Source\PSoC5/USB_std.c ****     }
 529:Generated_Source\PSoC5/USB_std.c **** 
 530:Generated_Source\PSoC5/USB_std.c ****     /* Init Endpoints and Device Status if configured */
 531:Generated_Source\PSoC5/USB_std.c ****     if(USB_configuration > 0u)
 532:Generated_Source\PSoC5/USB_std.c ****     {
 533:Generated_Source\PSoC5/USB_std.c ****         pTmp = USB_GetConfigTablePtr(USB_configuration - 1u);
 534:Generated_Source\PSoC5/USB_std.c ****         /* Set Power status for current configuration */
 535:Generated_Source\PSoC5/USB_std.c ****         pDescr = (const uint8 *)pTmp->p_list;
 536:Generated_Source\PSoC5/USB_std.c ****         if((pDescr[USB_CONFIG_DESCR_ATTRIB] & USB_CONFIG_DESCR_ATTRIB_SELF_POWERED) != 0u)
 537:Generated_Source\PSoC5/USB_std.c ****         {
 538:Generated_Source\PSoC5/USB_std.c ****             USB_deviceStatus |=  USB_DEVICE_STATUS_SELF_POWERED;
 539:Generated_Source\PSoC5/USB_std.c ****         }
 540:Generated_Source\PSoC5/USB_std.c ****         else
 541:Generated_Source\PSoC5/USB_std.c ****         {
 542:Generated_Source\PSoC5/USB_std.c ****             USB_deviceStatus &=  (uint8)~USB_DEVICE_STATUS_SELF_POWERED;
 543:Generated_Source\PSoC5/USB_std.c ****         }
 544:Generated_Source\PSoC5/USB_std.c ****         /* Move to next element */
 545:Generated_Source\PSoC5/USB_std.c ****         pTmp = &pTmp[1u];
ARM GAS  C:\Users\mgronber\AppData\Local\Temp\ccohOFIJ.s 			page 11


 546:Generated_Source\PSoC5/USB_std.c ****         ep = pTmp->c;  /* For this table, c is the number of endpoints configurations  */
 547:Generated_Source\PSoC5/USB_std.c **** 
 548:Generated_Source\PSoC5/USB_std.c ****         #if ((USB_EP_MA == USB__MA_DYNAMIC) && \
 549:Generated_Source\PSoC5/USB_std.c ****              (USB_EP_MM == USB__EP_MANUAL) )
 550:Generated_Source\PSoC5/USB_std.c ****             /* Configure for dynamic EP memory allocation */
 551:Generated_Source\PSoC5/USB_std.c ****             /* p_list points the endpoint setting table. */
 552:Generated_Source\PSoC5/USB_std.c ****             pEP = (T_USB_EP_SETTINGS_BLOCK *) pTmp->p_list;
 553:Generated_Source\PSoC5/USB_std.c ****             for (i = 0u; i < ep; i++)
 554:Generated_Source\PSoC5/USB_std.c ****             {
 555:Generated_Source\PSoC5/USB_std.c ****                 /* Compare current Alternate setting with EP Alt */
 556:Generated_Source\PSoC5/USB_std.c ****                 if(USB_interfaceSetting[pEP->interface] == pEP->altSetting)
 557:Generated_Source\PSoC5/USB_std.c ****                 {
 558:Generated_Source\PSoC5/USB_std.c ****                     cur_ep = pEP->addr & USB_DIR_UNUSED;
 559:Generated_Source\PSoC5/USB_std.c ****                     epType = pEP->attributes & USB_EP_TYPE_MASK;
 560:Generated_Source\PSoC5/USB_std.c ****                     if (pEP->addr & USB_DIR_IN)
 561:Generated_Source\PSoC5/USB_std.c ****                     {
 562:Generated_Source\PSoC5/USB_std.c ****                         /* IN Endpoint */
 563:Generated_Source\PSoC5/USB_std.c ****                         USB_EP[cur_ep].apiEpState = USB_EVENT_PENDING;
 564:Generated_Source\PSoC5/USB_std.c ****                         USB_EP[cur_ep].epMode = (epType == USB_EP_TYPE_ISOC) ?
 565:Generated_Source\PSoC5/USB_std.c ****                                                         USB_MODE_ISO_IN : USB_MODE_ACK_IN;
 566:Generated_Source\PSoC5/USB_std.c ****                         #if defined(USB_ENABLE_CDC_CLASS)
 567:Generated_Source\PSoC5/USB_std.c ****                             if(((pEP->bMisc == USB_CLASS_CDC_DATA) ||
 568:Generated_Source\PSoC5/USB_std.c ****                                 (pEP->bMisc == USB_CLASS_CDC)) &&
 569:Generated_Source\PSoC5/USB_std.c ****                                 (epType != USB_EP_TYPE_INT))
 570:Generated_Source\PSoC5/USB_std.c ****                             {
 571:Generated_Source\PSoC5/USB_std.c ****                                 USB_cdc_data_in_ep = cur_ep;
 572:Generated_Source\PSoC5/USB_std.c ****                             }
 573:Generated_Source\PSoC5/USB_std.c ****                         #endif  /*  USB_ENABLE_CDC_CLASS*/
 574:Generated_Source\PSoC5/USB_std.c ****                         #if ( defined(USB_ENABLE_MIDI_STREAMING) && \
 575:Generated_Source\PSoC5/USB_std.c ****                                              (USB_MIDI_IN_BUFF_SIZE > 0) )
 576:Generated_Source\PSoC5/USB_std.c ****                             if((pEP->bMisc == USB_CLASS_AUDIO) &&
 577:Generated_Source\PSoC5/USB_std.c ****                                (epType == USB_EP_TYPE_BULK))
 578:Generated_Source\PSoC5/USB_std.c ****                             {
 579:Generated_Source\PSoC5/USB_std.c ****                                 USB_midi_in_ep = cur_ep;
 580:Generated_Source\PSoC5/USB_std.c ****                             }
 581:Generated_Source\PSoC5/USB_std.c ****                         #endif  /*  USB_ENABLE_MIDI_STREAMING*/
 582:Generated_Source\PSoC5/USB_std.c ****                     }
 583:Generated_Source\PSoC5/USB_std.c ****                     else
 584:Generated_Source\PSoC5/USB_std.c ****                     {
 585:Generated_Source\PSoC5/USB_std.c ****                         /* OUT Endpoint */
 586:Generated_Source\PSoC5/USB_std.c ****                         USB_EP[cur_ep].apiEpState = USB_NO_EVENT_PENDING;
 587:Generated_Source\PSoC5/USB_std.c ****                         USB_EP[cur_ep].epMode = (epType == USB_EP_TYPE_ISOC) ?
 588:Generated_Source\PSoC5/USB_std.c ****                                                     USB_MODE_ISO_OUT : USB_MODE_ACK_OUT;
 589:Generated_Source\PSoC5/USB_std.c ****                         #if defined(USB_ENABLE_CDC_CLASS)
 590:Generated_Source\PSoC5/USB_std.c ****                             if(((pEP->bMisc == USB_CLASS_CDC_DATA) ||
 591:Generated_Source\PSoC5/USB_std.c ****                                 (pEP->bMisc == USB_CLASS_CDC)) &&
 592:Generated_Source\PSoC5/USB_std.c ****                                 (epType != USB_EP_TYPE_INT))
 593:Generated_Source\PSoC5/USB_std.c ****                             {
 594:Generated_Source\PSoC5/USB_std.c ****                                 USB_cdc_data_out_ep = cur_ep;
 595:Generated_Source\PSoC5/USB_std.c ****                             }
 596:Generated_Source\PSoC5/USB_std.c ****                         #endif  /*  USB_ENABLE_CDC_CLASS*/
 597:Generated_Source\PSoC5/USB_std.c ****                         #if ( defined(USB_ENABLE_MIDI_STREAMING) && \
 598:Generated_Source\PSoC5/USB_std.c ****                                      (USB_MIDI_OUT_BUFF_SIZE > 0) )
 599:Generated_Source\PSoC5/USB_std.c ****                             if((pEP->bMisc == USB_CLASS_AUDIO) &&
 600:Generated_Source\PSoC5/USB_std.c ****                                (epType == USB_EP_TYPE_BULK))
 601:Generated_Source\PSoC5/USB_std.c ****                             {
 602:Generated_Source\PSoC5/USB_std.c ****                                 USB_midi_out_ep = cur_ep;
ARM GAS  C:\Users\mgronber\AppData\Local\Temp\ccohOFIJ.s 			page 12


 603:Generated_Source\PSoC5/USB_std.c ****                             }
 604:Generated_Source\PSoC5/USB_std.c ****                         #endif  /*  USB_ENABLE_MIDI_STREAMING*/
 605:Generated_Source\PSoC5/USB_std.c ****                     }
 606:Generated_Source\PSoC5/USB_std.c ****                     USB_EP[cur_ep].bufferSize = pEP->bufferSize;
 607:Generated_Source\PSoC5/USB_std.c ****                     USB_EP[cur_ep].addr = pEP->addr;
 608:Generated_Source\PSoC5/USB_std.c ****                     USB_EP[cur_ep].attrib = pEP->attributes;
 609:Generated_Source\PSoC5/USB_std.c ****                 }
 610:Generated_Source\PSoC5/USB_std.c ****                 pEP = &pEP[1u];
 611:Generated_Source\PSoC5/USB_std.c ****             }
 612:Generated_Source\PSoC5/USB_std.c ****         #else /* Configure for static EP memory allocation  */
 613:Generated_Source\PSoC5/USB_std.c ****             for (i = USB_EP1; i < USB_MAX_EP; i++)
 614:Generated_Source\PSoC5/USB_std.c ****             {
 615:Generated_Source\PSoC5/USB_std.c ****                 /* p_list points the endpoint setting table. */
 616:Generated_Source\PSoC5/USB_std.c ****                 pEP = (const T_USB_EP_SETTINGS_BLOCK CYCODE *) pTmp->p_list;
 617:Generated_Source\PSoC5/USB_std.c ****                 /* Find max length for each EP and select it (length could be different in differen
 618:Generated_Source\PSoC5/USB_std.c ****                 /* but other settings should be correct with regards to Interface alt Setting */
 619:Generated_Source\PSoC5/USB_std.c ****                 for (cur_ep = 0u; cur_ep < ep; cur_ep++)
 620:Generated_Source\PSoC5/USB_std.c ****                 {
 621:Generated_Source\PSoC5/USB_std.c ****                     /* EP count is equal to EP # in table and we found larger EP length than have b
 622:Generated_Source\PSoC5/USB_std.c ****                     if(i == (pEP->addr & USB_DIR_UNUSED))
 623:Generated_Source\PSoC5/USB_std.c ****                     {
 624:Generated_Source\PSoC5/USB_std.c ****                         if(USB_EP[i].bufferSize < pEP->bufferSize)
 625:Generated_Source\PSoC5/USB_std.c ****                         {
 626:Generated_Source\PSoC5/USB_std.c ****                             USB_EP[i].bufferSize = pEP->bufferSize;
 627:Generated_Source\PSoC5/USB_std.c ****                         }
 628:Generated_Source\PSoC5/USB_std.c ****                         /* Compare current Alternate setting with EP Alt*/
 629:Generated_Source\PSoC5/USB_std.c ****                         if(USB_interfaceSetting[pEP->interface] == pEP->altSetting)
 630:Generated_Source\PSoC5/USB_std.c ****                         {
 631:Generated_Source\PSoC5/USB_std.c ****                             epType = pEP->attributes & USB_EP_TYPE_MASK;
 632:Generated_Source\PSoC5/USB_std.c ****                             if ((pEP->addr & USB_DIR_IN) != 0u)
 633:Generated_Source\PSoC5/USB_std.c ****                             {
 634:Generated_Source\PSoC5/USB_std.c ****                                 /* IN Endpoint */
 635:Generated_Source\PSoC5/USB_std.c ****                                 USB_EP[i].apiEpState = USB_EVENT_PENDING;
 636:Generated_Source\PSoC5/USB_std.c ****                                 USB_EP[i].epMode = (epType == USB_EP_TYPE_ISOC) ?
 637:Generated_Source\PSoC5/USB_std.c ****                                                         USB_MODE_ISO_IN : USB_MODE_ACK_IN;
 638:Generated_Source\PSoC5/USB_std.c ****                                 /* Find and initialize CDC IN endpoint number */
 639:Generated_Source\PSoC5/USB_std.c ****                                 #if defined(USB_ENABLE_CDC_CLASS)
 640:Generated_Source\PSoC5/USB_std.c ****                                     if(((pEP->bMisc == USB_CLASS_CDC_DATA) ||
 641:Generated_Source\PSoC5/USB_std.c ****                                         (pEP->bMisc == USB_CLASS_CDC)) &&
 642:Generated_Source\PSoC5/USB_std.c ****                                         (epType != USB_EP_TYPE_INT))
 643:Generated_Source\PSoC5/USB_std.c ****                                     {
 644:Generated_Source\PSoC5/USB_std.c ****                                         USB_cdc_data_in_ep = i;
 645:Generated_Source\PSoC5/USB_std.c ****                                     }
 646:Generated_Source\PSoC5/USB_std.c ****                                 #endif  /*  USB_ENABLE_CDC_CLASS*/
 647:Generated_Source\PSoC5/USB_std.c ****                                 #if ( defined(USB_ENABLE_MIDI_STREAMING) && \
 648:Generated_Source\PSoC5/USB_std.c ****                                              (USB_MIDI_IN_BUFF_SIZE > 0) )
 649:Generated_Source\PSoC5/USB_std.c ****                                     if((pEP->bMisc == USB_CLASS_AUDIO) &&
 650:Generated_Source\PSoC5/USB_std.c ****                                        (epType == USB_EP_TYPE_BULK))
 651:Generated_Source\PSoC5/USB_std.c ****                                     {
 652:Generated_Source\PSoC5/USB_std.c ****                                         USB_midi_in_ep = i;
 653:Generated_Source\PSoC5/USB_std.c ****                                     }
 654:Generated_Source\PSoC5/USB_std.c ****                                 #endif  /*  USB_ENABLE_MIDI_STREAMING*/
 655:Generated_Source\PSoC5/USB_std.c ****                             }
 656:Generated_Source\PSoC5/USB_std.c ****                             else
 657:Generated_Source\PSoC5/USB_std.c ****                             {
 658:Generated_Source\PSoC5/USB_std.c ****                                 /* OUT Endpoint */
 659:Generated_Source\PSoC5/USB_std.c ****                                 USB_EP[i].apiEpState = USB_NO_EVENT_PENDING;
ARM GAS  C:\Users\mgronber\AppData\Local\Temp\ccohOFIJ.s 			page 13


 660:Generated_Source\PSoC5/USB_std.c ****                                 USB_EP[i].epMode = (epType == USB_EP_TYPE_ISOC) ?
 661:Generated_Source\PSoC5/USB_std.c ****                                                     USB_MODE_ISO_OUT : USB_MODE_ACK_OUT;
 662:Generated_Source\PSoC5/USB_std.c ****                                 /* Find and initialize CDC IN endpoint number */
 663:Generated_Source\PSoC5/USB_std.c ****                                 #if defined(USB_ENABLE_CDC_CLASS)
 664:Generated_Source\PSoC5/USB_std.c ****                                     if(((pEP->bMisc == USB_CLASS_CDC_DATA) ||
 665:Generated_Source\PSoC5/USB_std.c ****                                         (pEP->bMisc == USB_CLASS_CDC)) &&
 666:Generated_Source\PSoC5/USB_std.c ****                                         (epType != USB_EP_TYPE_INT))
 667:Generated_Source\PSoC5/USB_std.c ****                                     {
 668:Generated_Source\PSoC5/USB_std.c ****                                         USB_cdc_data_out_ep = i;
 669:Generated_Source\PSoC5/USB_std.c ****                                     }
 670:Generated_Source\PSoC5/USB_std.c ****                                 #endif  /*  USB_ENABLE_CDC_CLASS*/
 671:Generated_Source\PSoC5/USB_std.c ****                                 #if ( defined(USB_ENABLE_MIDI_STREAMING) && \
 672:Generated_Source\PSoC5/USB_std.c ****                                              (USB_MIDI_OUT_BUFF_SIZE > 0) )
 673:Generated_Source\PSoC5/USB_std.c ****                                     if((pEP->bMisc == USB_CLASS_AUDIO) &&
 674:Generated_Source\PSoC5/USB_std.c ****                                        (epType == USB_EP_TYPE_BULK))
 675:Generated_Source\PSoC5/USB_std.c ****                                     {
 676:Generated_Source\PSoC5/USB_std.c ****                                         USB_midi_out_ep = i;
 677:Generated_Source\PSoC5/USB_std.c ****                                     }
 678:Generated_Source\PSoC5/USB_std.c ****                                 #endif  /*  USB_ENABLE_MIDI_STREAMING*/
 679:Generated_Source\PSoC5/USB_std.c ****                             }
 680:Generated_Source\PSoC5/USB_std.c ****                             USB_EP[i].addr = pEP->addr;
 681:Generated_Source\PSoC5/USB_std.c ****                             USB_EP[i].attrib = pEP->attributes;
 682:Generated_Source\PSoC5/USB_std.c **** 
 683:Generated_Source\PSoC5/USB_std.c ****                             #if(USB_EP_MM == USB__EP_DMAAUTO)
 684:Generated_Source\PSoC5/USB_std.c ****                                 break;      /* use first EP setting in Auto memory managment */
 685:Generated_Source\PSoC5/USB_std.c ****                             #endif /*  USB_EP_MM == USB__EP_DMAAUTO */
 686:Generated_Source\PSoC5/USB_std.c ****                         }
 687:Generated_Source\PSoC5/USB_std.c ****                     }
 688:Generated_Source\PSoC5/USB_std.c ****                     pEP = &pEP[1u];
 689:Generated_Source\PSoC5/USB_std.c ****                 }
 690:Generated_Source\PSoC5/USB_std.c ****             }
 691:Generated_Source\PSoC5/USB_std.c ****         #endif /*  (USB_EP_MA == USB__MA_DYNAMIC) */
 692:Generated_Source\PSoC5/USB_std.c **** 
 693:Generated_Source\PSoC5/USB_std.c ****         /* Init class array for each interface and interface number for each EP.
 694:Generated_Source\PSoC5/USB_std.c ****         *  It is used for handling Class specific requests directed to either an
 695:Generated_Source\PSoC5/USB_std.c ****         *  interface or the endpoint.
 696:Generated_Source\PSoC5/USB_std.c ****         */
 697:Generated_Source\PSoC5/USB_std.c ****         /* p_list points the endpoint setting table. */
 698:Generated_Source\PSoC5/USB_std.c ****         pEP = (const T_USB_EP_SETTINGS_BLOCK CYCODE *) pTmp->p_list;
 699:Generated_Source\PSoC5/USB_std.c ****         for (i = 0u; i < ep; i++)
 700:Generated_Source\PSoC5/USB_std.c ****         {
 701:Generated_Source\PSoC5/USB_std.c ****             /* Configure interface number for each EP*/
 702:Generated_Source\PSoC5/USB_std.c ****             USB_EP[pEP->addr & USB_DIR_UNUSED].interface = pEP->interface;
 703:Generated_Source\PSoC5/USB_std.c ****             pEP = &pEP[1u];
 704:Generated_Source\PSoC5/USB_std.c ****         }
 705:Generated_Source\PSoC5/USB_std.c ****         /* Init pointer on interface class table*/
 706:Generated_Source\PSoC5/USB_std.c ****         USB_interfaceClass = USB_GetInterfaceClassTablePtr();
 707:Generated_Source\PSoC5/USB_std.c ****         /* Set the endpoint buffer addresses */
 708:Generated_Source\PSoC5/USB_std.c **** 
 709:Generated_Source\PSoC5/USB_std.c ****         #if(USB_EP_MM != USB__EP_DMAAUTO)
 710:Generated_Source\PSoC5/USB_std.c ****             for (ep = USB_EP1; ep < USB_MAX_EP; ep++)
 711:Generated_Source\PSoC5/USB_std.c ****             {
 712:Generated_Source\PSoC5/USB_std.c ****                 USB_EP[ep].buffOffset = buffCount;
 713:Generated_Source\PSoC5/USB_std.c ****                  buffCount += USB_EP[ep].bufferSize;
 714:Generated_Source\PSoC5/USB_std.c ****             }
 715:Generated_Source\PSoC5/USB_std.c ****         #endif /*  USB_EP_MM != USB__EP_DMAAUTO */
 716:Generated_Source\PSoC5/USB_std.c **** 
ARM GAS  C:\Users\mgronber\AppData\Local\Temp\ccohOFIJ.s 			page 14


 717:Generated_Source\PSoC5/USB_std.c ****         /* Configure hardware registers */
 718:Generated_Source\PSoC5/USB_std.c ****         USB_ConfigReg();
 719:Generated_Source\PSoC5/USB_std.c ****     } /* USB_configuration > 0 */
 720:Generated_Source\PSoC5/USB_std.c **** }
 721:Generated_Source\PSoC5/USB_std.c **** 
 722:Generated_Source\PSoC5/USB_std.c **** 
 723:Generated_Source\PSoC5/USB_std.c **** /*******************************************************************************
 724:Generated_Source\PSoC5/USB_std.c **** * Function Name: USB_ConfigAltChanged
 725:Generated_Source\PSoC5/USB_std.c **** ********************************************************************************
 726:Generated_Source\PSoC5/USB_std.c **** *
 727:Generated_Source\PSoC5/USB_std.c **** * Summary:
 728:Generated_Source\PSoC5/USB_std.c **** *  This routine update configuration for the required endpoints only.
 729:Generated_Source\PSoC5/USB_std.c **** *  It is called after SET_INTERFACE request when Static memory allocation used.
 730:Generated_Source\PSoC5/USB_std.c **** *
 731:Generated_Source\PSoC5/USB_std.c **** * Parameters:
 732:Generated_Source\PSoC5/USB_std.c **** *  None.
 733:Generated_Source\PSoC5/USB_std.c **** *
 734:Generated_Source\PSoC5/USB_std.c **** * Return:
 735:Generated_Source\PSoC5/USB_std.c **** *  None.
 736:Generated_Source\PSoC5/USB_std.c **** *
 737:Generated_Source\PSoC5/USB_std.c **** * Reentrant:
 738:Generated_Source\PSoC5/USB_std.c **** *  No.
 739:Generated_Source\PSoC5/USB_std.c **** *
 740:Generated_Source\PSoC5/USB_std.c **** *******************************************************************************/
 741:Generated_Source\PSoC5/USB_std.c **** void USB_ConfigAltChanged(void) 
  26              		.loc 1 741 0
  27              		.cfi_startproc
  28              		@ args = 0, pretend = 0, frame = 8
  29              		@ frame_needed = 0, uses_anonymous_args = 0
 742:Generated_Source\PSoC5/USB_std.c **** {
 743:Generated_Source\PSoC5/USB_std.c ****     uint8 ep;
 744:Generated_Source\PSoC5/USB_std.c ****     uint8 cur_ep;
 745:Generated_Source\PSoC5/USB_std.c ****     uint8 i;
 746:Generated_Source\PSoC5/USB_std.c ****     uint8 epType;
 747:Generated_Source\PSoC5/USB_std.c ****     uint8 ri;
 748:Generated_Source\PSoC5/USB_std.c **** 
 749:Generated_Source\PSoC5/USB_std.c ****     const T_USB_LUT CYCODE *pTmp;
 750:Generated_Source\PSoC5/USB_std.c ****     const T_USB_EP_SETTINGS_BLOCK CYCODE *pEP;
 751:Generated_Source\PSoC5/USB_std.c **** 
 752:Generated_Source\PSoC5/USB_std.c **** 
 753:Generated_Source\PSoC5/USB_std.c ****     /* Init Endpoints and Device Status if configured */
 754:Generated_Source\PSoC5/USB_std.c ****     if(USB_configuration > 0u)
 755:Generated_Source\PSoC5/USB_std.c ****     {
 756:Generated_Source\PSoC5/USB_std.c ****         pTmp = USB_GetConfigTablePtr(USB_configuration - 1u);
  30              		.loc 1 756 0
  31 0000 604B     		ldr	r3, .L20
  32              	.LBB22:
  33              	.LBB23:
 757:Generated_Source\PSoC5/USB_std.c ****         pTmp = &pTmp[1u];
 758:Generated_Source\PSoC5/USB_std.c ****         ep = pTmp->c;  /* For this table, c is the number of endpoints configurations  */
 759:Generated_Source\PSoC5/USB_std.c **** 
 760:Generated_Source\PSoC5/USB_std.c ****         /* Do not touch EP which doesn't need reconfiguration */
 761:Generated_Source\PSoC5/USB_std.c ****         /* When Alt setting changed, the only required endpoints need to be reconfigured */
 762:Generated_Source\PSoC5/USB_std.c ****         /* p_list points the endpoint setting table. */
 763:Generated_Source\PSoC5/USB_std.c ****         pEP = (const T_USB_EP_SETTINGS_BLOCK CYCODE *) pTmp->p_list;
 764:Generated_Source\PSoC5/USB_std.c ****         for (i = 0u; i < ep; i++)
 765:Generated_Source\PSoC5/USB_std.c ****         {
ARM GAS  C:\Users\mgronber\AppData\Local\Temp\ccohOFIJ.s 			page 15


 766:Generated_Source\PSoC5/USB_std.c ****             /*If Alt setting changed and new is same with EP Alt */
 767:Generated_Source\PSoC5/USB_std.c ****             if((USB_interfaceSetting[pEP->interface] !=
 768:Generated_Source\PSoC5/USB_std.c ****                 USB_interfaceSetting_last[pEP->interface] ) &&
 769:Generated_Source\PSoC5/USB_std.c ****                (USB_interfaceSetting[pEP->interface] == pEP->altSetting) &&
 770:Generated_Source\PSoC5/USB_std.c ****                (pEP->interface == CY_GET_REG8(USB_wIndexLo)))
 771:Generated_Source\PSoC5/USB_std.c ****             {
 772:Generated_Source\PSoC5/USB_std.c ****                 cur_ep = pEP->addr & USB_DIR_UNUSED;
 773:Generated_Source\PSoC5/USB_std.c ****                 ri = ((cur_ep - USB_EP1) << USB_EPX_CNTX_ADDR_SHIFT);
 774:Generated_Source\PSoC5/USB_std.c ****                 epType = pEP->attributes & USB_EP_TYPE_MASK;
 775:Generated_Source\PSoC5/USB_std.c ****                 if ((pEP->addr & USB_DIR_IN) != 0u)
 776:Generated_Source\PSoC5/USB_std.c ****                 {
 777:Generated_Source\PSoC5/USB_std.c ****                     /* IN Endpoint */
 778:Generated_Source\PSoC5/USB_std.c ****                     USB_EP[cur_ep].apiEpState = USB_EVENT_PENDING;
 779:Generated_Source\PSoC5/USB_std.c ****                     USB_EP[cur_ep].epMode = (epType == USB_EP_TYPE_ISOC) ?
 780:Generated_Source\PSoC5/USB_std.c ****                                                 USB_MODE_ISO_IN : USB_MODE_ACK_IN;
 781:Generated_Source\PSoC5/USB_std.c ****                 }
 782:Generated_Source\PSoC5/USB_std.c ****                 else
 783:Generated_Source\PSoC5/USB_std.c ****                 {
 784:Generated_Source\PSoC5/USB_std.c ****                     /* OUT Endpoint */
 785:Generated_Source\PSoC5/USB_std.c ****                     USB_EP[cur_ep].apiEpState = USB_NO_EVENT_PENDING;
 786:Generated_Source\PSoC5/USB_std.c ****                     USB_EP[cur_ep].epMode = (epType == USB_EP_TYPE_ISOC) ?
 787:Generated_Source\PSoC5/USB_std.c ****                                                 USB_MODE_ISO_OUT : USB_MODE_ACK_OUT;
 788:Generated_Source\PSoC5/USB_std.c ****                 }
 789:Generated_Source\PSoC5/USB_std.c ****                  /* Change the SIE mode for the selected EP to NAK ALL */
 790:Generated_Source\PSoC5/USB_std.c ****                  CY_SET_REG8((reg8 *)(USB_SIE_EP1_CR0_IND + ri), USB_MODE_NAK_IN_OUT);
 791:Generated_Source\PSoC5/USB_std.c ****                 USB_EP[cur_ep].bufferSize = pEP->bufferSize;
 792:Generated_Source\PSoC5/USB_std.c ****                 USB_EP[cur_ep].addr = pEP->addr;
 793:Generated_Source\PSoC5/USB_std.c ****                 USB_EP[cur_ep].attrib = pEP->attributes;
 794:Generated_Source\PSoC5/USB_std.c **** 
 795:Generated_Source\PSoC5/USB_std.c ****                 /* Clear the data toggle */
 796:Generated_Source\PSoC5/USB_std.c ****                 USB_EP[cur_ep].epToggle = 0u;
 797:Generated_Source\PSoC5/USB_std.c **** 
 798:Generated_Source\PSoC5/USB_std.c ****                 /* Dynamic reconfiguration for mode 3 transfer */
 799:Generated_Source\PSoC5/USB_std.c ****             #if(USB_EP_MM == USB__EP_DMAAUTO)
 800:Generated_Source\PSoC5/USB_std.c ****                 /* In_data_rdy for selected EP should be set to 0 */
 801:Generated_Source\PSoC5/USB_std.c ****                 * (reg8 *)(USB_ARB_EP1_CFG_IND + ri) &= (uint8)~USB_ARB_EPX_CFG_IN_DATA_RDY;
 802:Generated_Source\PSoC5/USB_std.c **** 
 803:Generated_Source\PSoC5/USB_std.c ****                 /* write the EP number for which reconfiguration is required */
 804:Generated_Source\PSoC5/USB_std.c ****                 USB_DYN_RECONFIG_REG = (cur_ep - USB_EP1) <<
 805:Generated_Source\PSoC5/USB_std.c ****                                                     USB_DYN_RECONFIG_EP_SHIFT;
 806:Generated_Source\PSoC5/USB_std.c ****                 /* Set the dyn_config_en bit in dynamic reconfiguration register */
 807:Generated_Source\PSoC5/USB_std.c ****                 USB_DYN_RECONFIG_REG |= USB_DYN_RECONFIG_ENABLE;
 808:Generated_Source\PSoC5/USB_std.c ****                 /* wait for the dyn_config_rdy bit to set by the block,
 809:Generated_Source\PSoC5/USB_std.c ****                 *  this bit will be set to 1 when block is ready for reconfiguration.
 810:Generated_Source\PSoC5/USB_std.c ****                 */
 811:Generated_Source\PSoC5/USB_std.c ****                 while((USB_DYN_RECONFIG_REG & USB_DYN_RECONFIG_RDY_STS) == 0u)
 812:Generated_Source\PSoC5/USB_std.c ****                 {
 813:Generated_Source\PSoC5/USB_std.c ****                     ;
 814:Generated_Source\PSoC5/USB_std.c ****                 }
 815:Generated_Source\PSoC5/USB_std.c ****                 /* Once dyn_config_rdy bit is set, FW can change the EP configuration. */
 816:Generated_Source\PSoC5/USB_std.c ****                 /* Change EP Type with new direction */
 817:Generated_Source\PSoC5/USB_std.c ****                 if((pEP->addr & USB_DIR_IN) == 0u)
 818:Generated_Source\PSoC5/USB_std.c ****                 {
 819:Generated_Source\PSoC5/USB_std.c ****                     USB_EP_TYPE_REG |= (uint8)(0x01u << (cur_ep - USB_EP1));
 820:Generated_Source\PSoC5/USB_std.c ****                 }
 821:Generated_Source\PSoC5/USB_std.c ****                 else
 822:Generated_Source\PSoC5/USB_std.c ****                 {
ARM GAS  C:\Users\mgronber\AppData\Local\Temp\ccohOFIJ.s 			page 16


 823:Generated_Source\PSoC5/USB_std.c ****                     USB_EP_TYPE_REG &= (uint8)~(uint8)(0x01u << (cur_ep - USB_EP1));
 824:Generated_Source\PSoC5/USB_std.c ****                 }
 825:Generated_Source\PSoC5/USB_std.c ****                 /* dynamic reconfiguration enable bit cleared, pointers and control/status
 826:Generated_Source\PSoC5/USB_std.c ****                 *  signals for the selected EP is cleared/re-initialized on negative edge
 827:Generated_Source\PSoC5/USB_std.c ****                 *  of dynamic reconfiguration enable bit).
 828:Generated_Source\PSoC5/USB_std.c ****                 */
 829:Generated_Source\PSoC5/USB_std.c ****                 USB_DYN_RECONFIG_REG &= (uint8)~USB_DYN_RECONFIG_ENABLE;
 830:Generated_Source\PSoC5/USB_std.c ****                 /* The main loop has to re-enable DMA and OUT endpoint*/
 831:Generated_Source\PSoC5/USB_std.c ****             #else
 832:Generated_Source\PSoC5/USB_std.c ****                 CY_SET_REG8((reg8 *)(USB_SIE_EP1_CNT0_IND + ri),
 833:Generated_Source\PSoC5/USB_std.c ****                                                                 USB_EP[cur_ep].bufferSize >> 8u);
 834:Generated_Source\PSoC5/USB_std.c ****                 CY_SET_REG8((reg8 *)(USB_SIE_EP1_CNT1_IND + ri),
 835:Generated_Source\PSoC5/USB_std.c ****                                                                 USB_EP[cur_ep].bufferSize & 0xFFu);
 836:Generated_Source\PSoC5/USB_std.c ****                 CY_SET_REG8((reg8 *)(USB_ARB_RW1_RA_IND + ri),
 837:Generated_Source\PSoC5/USB_std.c ****                                                                 USB_EP[cur_ep].buffOffset & 0xFFu);
 838:Generated_Source\PSoC5/USB_std.c ****                 CY_SET_REG8((reg8 *)(USB_ARB_RW1_RA_MSB_IND + ri),
 839:Generated_Source\PSoC5/USB_std.c ****                                                                 USB_EP[cur_ep].buffOffset >> 8u);
 840:Generated_Source\PSoC5/USB_std.c ****                 CY_SET_REG8((reg8 *)(USB_ARB_RW1_WA_IND + ri),
 841:Generated_Source\PSoC5/USB_std.c ****                                                                 USB_EP[cur_ep].buffOffset & 0xFFu);
 842:Generated_Source\PSoC5/USB_std.c ****                 CY_SET_REG8((reg8 *)(USB_ARB_RW1_WA_MSB_IND + ri),
 843:Generated_Source\PSoC5/USB_std.c ****                                                                 USB_EP[cur_ep].buffOffset >> 8u);
 844:Generated_Source\PSoC5/USB_std.c ****             #endif /*  USB_EP_MM == USB__EP_DMAAUTO */
 845:Generated_Source\PSoC5/USB_std.c ****             }
 846:Generated_Source\PSoC5/USB_std.c ****             /* Get next EP element */
 847:Generated_Source\PSoC5/USB_std.c ****             pEP = &pEP[1u];
 848:Generated_Source\PSoC5/USB_std.c ****         }
 849:Generated_Source\PSoC5/USB_std.c ****     }   /* USB_configuration > 0 */
 850:Generated_Source\PSoC5/USB_std.c **** }
 851:Generated_Source\PSoC5/USB_std.c **** 
 852:Generated_Source\PSoC5/USB_std.c **** 
 853:Generated_Source\PSoC5/USB_std.c **** /*******************************************************************************
 854:Generated_Source\PSoC5/USB_std.c **** * Function Name: USB_GetConfigTablePtr
 855:Generated_Source\PSoC5/USB_std.c **** ********************************************************************************
 856:Generated_Source\PSoC5/USB_std.c **** *
 857:Generated_Source\PSoC5/USB_std.c **** * Summary:
 858:Generated_Source\PSoC5/USB_std.c **** *  This routine returns a pointer a configuration table entry
 859:Generated_Source\PSoC5/USB_std.c **** *
 860:Generated_Source\PSoC5/USB_std.c **** * Parameters:
 861:Generated_Source\PSoC5/USB_std.c **** *  confIndex:  Configuration Index
 862:Generated_Source\PSoC5/USB_std.c **** *
 863:Generated_Source\PSoC5/USB_std.c **** * Return:
 864:Generated_Source\PSoC5/USB_std.c **** *  Device Descriptor pointer or NULL when descriptor isn't exists.
 865:Generated_Source\PSoC5/USB_std.c **** *
 866:Generated_Source\PSoC5/USB_std.c **** *******************************************************************************/
 867:Generated_Source\PSoC5/USB_std.c **** const T_USB_LUT CYCODE *USB_GetConfigTablePtr(uint8 confIndex)
 868:Generated_Source\PSoC5/USB_std.c ****                                                         
 869:Generated_Source\PSoC5/USB_std.c **** {
 870:Generated_Source\PSoC5/USB_std.c ****     /* Device Table */
 871:Generated_Source\PSoC5/USB_std.c ****     const T_USB_LUT CYCODE *pTmp;
 872:Generated_Source\PSoC5/USB_std.c **** 
 873:Generated_Source\PSoC5/USB_std.c ****     pTmp = (const T_USB_LUT CYCODE *) USB_TABLE[USB_device].p_list;
  34              		.loc 1 873 0
  35 0002 6149     		ldr	r1, .L20+4
  36              	.LBE23:
  37              	.LBE22:
 756:Generated_Source\PSoC5/USB_std.c ****         pTmp = &pTmp[1u];
  38              		.loc 1 756 0
ARM GAS  C:\Users\mgronber\AppData\Local\Temp\ccohOFIJ.s 			page 17


  39 0004 1B78     		ldrb	r3, [r3]	@ zero_extendqisi2
  40              	.LBB27:
  41              	.LBB24:
  42              		.loc 1 873 0
  43 0006 614A     		ldr	r2, .L20+8
  44 0008 0978     		ldrb	r1, [r1]	@ zero_extendqisi2
  45              	.LBE24:
  46              	.LBE27:
 756:Generated_Source\PSoC5/USB_std.c ****         pTmp = &pTmp[1u];
  47              		.loc 1 756 0
  48 000a 013B     		subs	r3, r3, #1
  49              	.LBB28:
  50              	.LBB25:
  51              		.loc 1 873 0
  52 000c 02EBC102 		add	r2, r2, r1, lsl #3
  53 0010 5268     		ldr	r2, [r2, #4]
  54              	.LBE25:
  55              	.LBE28:
 756:Generated_Source\PSoC5/USB_std.c ****         pTmp = &pTmp[1u];
  56              		.loc 1 756 0
  57 0012 DBB2     		uxtb	r3, r3
  58              	.LVL0:
  59              	.LBB29:
  60              	.LBB26:
 874:Generated_Source\PSoC5/USB_std.c **** 
 875:Generated_Source\PSoC5/USB_std.c ****     /* The first entry points to the Device Descriptor,
 876:Generated_Source\PSoC5/USB_std.c ****     *  the rest configuration entries.
 877:Generated_Source\PSoC5/USB_std.c ****     *  Set pointer to the first Configuration Descriptor
 878:Generated_Source\PSoC5/USB_std.c ****     */
 879:Generated_Source\PSoC5/USB_std.c ****     pTmp = &pTmp[1u];
 880:Generated_Source\PSoC5/USB_std.c ****     /* For this table, c is the number of configuration descriptors  */
 881:Generated_Source\PSoC5/USB_std.c ****     if(confIndex >= pTmp->c)   /* Verify that required configuration descriptor exists */
  61              		.loc 1 881 0
  62 0014 117A     		ldrb	r1, [r2, #8]	@ zero_extendqisi2
  63 0016 9942     		cmp	r1, r3
  64 0018 40F29B80 		bls	.L2
 882:Generated_Source\PSoC5/USB_std.c ****     {
 883:Generated_Source\PSoC5/USB_std.c ****         pTmp = (const T_USB_LUT CYCODE *) NULL;
 884:Generated_Source\PSoC5/USB_std.c ****     }
 885:Generated_Source\PSoC5/USB_std.c ****     else
 886:Generated_Source\PSoC5/USB_std.c ****     {
 887:Generated_Source\PSoC5/USB_std.c ****         pTmp = (const T_USB_LUT CYCODE *) pTmp[confIndex].p_list;
  65              		.loc 1 887 0
  66 001c 02EBC303 		add	r3, r2, r3, lsl #3
  67              	.LVL1:
  68 0020 DB68     		ldr	r3, [r3, #12]
  69              	.LVL2:
  70              	.LBE26:
  71              	.LBE29:
 758:Generated_Source\PSoC5/USB_std.c **** 
  72              		.loc 1 758 0
  73 0022 1A7A     		ldrb	r2, [r3, #8]	@ zero_extendqisi2
  74              	.LVL3:
 763:Generated_Source\PSoC5/USB_std.c ****         for (i = 0u; i < ep; i++)
  75              		.loc 1 763 0
  76 0024 DB68     		ldr	r3, [r3, #12]
  77              	.LVL4:
ARM GAS  C:\Users\mgronber\AppData\Local\Temp\ccohOFIJ.s 			page 18


 764:Generated_Source\PSoC5/USB_std.c ****         {
  78              		.loc 1 764 0
  79 0026 002A     		cmp	r2, #0
  80 0028 00F0AA80 		beq	.L15
 741:Generated_Source\PSoC5/USB_std.c **** {
  81              		.loc 1 741 0
  82 002c 2DE9F04F 		push	{r4, r5, r6, r7, r8, r9, r10, fp, lr}
  83              		.cfi_def_cfa_offset 36
  84              		.cfi_offset 4, -36
  85              		.cfi_offset 5, -32
  86              		.cfi_offset 6, -28
  87              		.cfi_offset 7, -24
  88              		.cfi_offset 8, -20
  89              		.cfi_offset 9, -16
  90              		.cfi_offset 10, -12
  91              		.cfi_offset 11, -8
  92              		.cfi_offset 14, -4
  93 0030 013A     		subs	r2, r2, #1
  94              	.LVL5:
  95 0032 5749     		ldr	r1, .L20+12
  96 0034 D2B2     		uxtb	r2, r2
  97              	.LVL6:
  98 0036 0232     		adds	r2, r2, #2
  99 0038 03EBC202 		add	r2, r3, r2, lsl #3
 100 003c 83B0     		sub	sp, sp, #12
 101              		.cfi_def_cfa_offset 48
 767:Generated_Source\PSoC5/USB_std.c ****                 USB_interfaceSetting_last[pEP->interface] ) &&
 102              		.loc 1 767 0
 103 003e 0C46     		mov	r4, r1
 104 0040 5448     		ldr	r0, .L20+16
 770:Generated_Source\PSoC5/USB_std.c ****             {
 105              		.loc 1 770 0
 106 0042 DFF86CE1 		ldr	lr, .L20+44
 107 0046 0833     		adds	r3, r3, #8
 108              	.LVL7:
 790:Generated_Source\PSoC5/USB_std.c ****                 USB_EP[cur_ep].bufferSize = pEP->bufferSize;
 109              		.loc 1 790 0
 110 0048 4FF0010A 		mov	r10, #1
 796:Generated_Source\PSoC5/USB_std.c **** 
 111              		.loc 1 796 0
 112 004c 4FF00009 		mov	r9, #0
 113 0050 02E0     		b	.L9
 114              	.LVL8:
 115              	.L4:
 116 0052 0833     		adds	r3, r3, #8
 117              	.LVL9:
 764:Generated_Source\PSoC5/USB_std.c ****         {
 118              		.loc 1 764 0
 119 0054 9342     		cmp	r3, r2
 120 0056 79D0     		beq	.L18
 121              	.LVL10:
 122              	.L9:
 767:Generated_Source\PSoC5/USB_std.c ****                 USB_interfaceSetting_last[pEP->interface] ) &&
 123              		.loc 1 767 0
 124 0058 13F8085C 		ldrb	r5, [r3, #-8]	@ zero_extendqisi2
 125 005c 4F5D     		ldrb	r7, [r1, r5]	@ zero_extendqisi2
 768:Generated_Source\PSoC5/USB_std.c ****                (USB_interfaceSetting[pEP->interface] == pEP->altSetting) &&
ARM GAS  C:\Users\mgronber\AppData\Local\Temp\ccohOFIJ.s 			page 19


 126              		.loc 1 768 0
 127 005e 465D     		ldrb	r6, [r0, r5]	@ zero_extendqisi2
 767:Generated_Source\PSoC5/USB_std.c ****                 USB_interfaceSetting_last[pEP->interface] ) &&
 128              		.loc 1 767 0
 129 0060 B742     		cmp	r7, r6
 130 0062 F6D0     		beq	.L4
 769:Generated_Source\PSoC5/USB_std.c ****                (pEP->interface == CY_GET_REG8(USB_wIndexLo)))
 131              		.loc 1 769 0
 132 0064 665D     		ldrb	r6, [r4, r5]	@ zero_extendqisi2
 768:Generated_Source\PSoC5/USB_std.c ****                (USB_interfaceSetting[pEP->interface] == pEP->altSetting) &&
 133              		.loc 1 768 0
 134 0066 13F8077C 		ldrb	r7, [r3, #-7]	@ zero_extendqisi2
 135 006a B742     		cmp	r7, r6
 136 006c F1D1     		bne	.L4
 770:Generated_Source\PSoC5/USB_std.c ****             {
 137              		.loc 1 770 0
 138 006e 9EF80060 		ldrb	r6, [lr]	@ zero_extendqisi2
 769:Generated_Source\PSoC5/USB_std.c ****                (pEP->interface == CY_GET_REG8(USB_wIndexLo)))
 139              		.loc 1 769 0
 140 0072 B542     		cmp	r5, r6
 141 0074 EDD1     		bne	.L4
 772:Generated_Source\PSoC5/USB_std.c ****                 ri = ((cur_ep - USB_EP1) << USB_EPX_CNTX_ADDR_SHIFT);
 142              		.loc 1 772 0
 143 0076 13F806CC 		ldrb	ip, [r3, #-6]	@ zero_extendqisi2
 774:Generated_Source\PSoC5/USB_std.c ****                 if ((pEP->addr & USB_DIR_IN) != 0u)
 144              		.loc 1 774 0
 145 007a 13F8056C 		ldrb	r6, [r3, #-5]	@ zero_extendqisi2
 772:Generated_Source\PSoC5/USB_std.c ****                 ri = ((cur_ep - USB_EP1) << USB_EPX_CNTX_ADDR_SHIFT);
 146              		.loc 1 772 0
 147 007e 0CF07F07 		and	r7, ip, #127
 148              	.LVL11:
 773:Generated_Source\PSoC5/USB_std.c ****                 epType = pEP->attributes & USB_EP_TYPE_MASK;
 149              		.loc 1 773 0
 150 0082 7D1E     		subs	r5, r7, #1
 151 0084 2D01     		lsls	r5, r5, #4
 775:Generated_Source\PSoC5/USB_std.c ****                 {
 152              		.loc 1 775 0
 153 0086 1CF0800F 		tst	ip, #128
 773:Generated_Source\PSoC5/USB_std.c ****                 epType = pEP->attributes & USB_EP_TYPE_MASK;
 154              		.loc 1 773 0
 155 008a EDB2     		uxtb	r5, r5
 156              	.LVL12:
 774:Generated_Source\PSoC5/USB_std.c ****                 if ((pEP->addr & USB_DIR_IN) != 0u)
 157              		.loc 1 774 0
 158 008c 06F00306 		and	r6, r6, #3
 159              	.LVL13:
 775:Generated_Source\PSoC5/USB_std.c ****                 {
 160              		.loc 1 775 0
 161 0090 62D1     		bne	.L19
 786:Generated_Source\PSoC5/USB_std.c ****                                                 USB_MODE_ISO_OUT : USB_MODE_ACK_OUT;
 162              		.loc 1 786 0
 163 0092 012E     		cmp	r6, #1
 785:Generated_Source\PSoC5/USB_std.c ****                     USB_EP[cur_ep].epMode = (epType == USB_EP_TYPE_ISOC) ?
 164              		.loc 1 785 0
 165 0094 4FEA4706 		lsl	r6, r7, #1
 166              	.LVL14:
 167 0098 06EB070C 		add	ip, r6, r7
ARM GAS  C:\Users\mgronber\AppData\Local\Temp\ccohOFIJ.s 			page 20


 168 009c 0196     		str	r6, [sp, #4]
 169 009e 3E4E     		ldr	r6, .L20+20
 786:Generated_Source\PSoC5/USB_std.c ****                                                 USB_MODE_ISO_OUT : USB_MODE_ACK_OUT;
 170              		.loc 1 786 0
 171 00a0 08BF     		it	eq
 172 00a2 4FF0050B 		moveq	fp, #5
 785:Generated_Source\PSoC5/USB_std.c ****                     USB_EP[cur_ep].epMode = (epType == USB_EP_TYPE_ISOC) ?
 173              		.loc 1 785 0
 174 00a6 B046     		mov	r8, r6
 175 00a8 06EB8C0C 		add	ip, r6, ip, lsl #2
 786:Generated_Source\PSoC5/USB_std.c ****                                                 USB_MODE_ISO_OUT : USB_MODE_ACK_OUT;
 176              		.loc 1 786 0
 177 00ac 18BF     		it	ne
 178 00ae 4FF0090B 		movne	fp, #9
 785:Generated_Source\PSoC5/USB_std.c ****                     USB_EP[cur_ep].epMode = (epType == USB_EP_TYPE_ISOC) ?
 179              		.loc 1 785 0
 180 00b2 8CF80190 		strb	r9, [ip, #1]
 181              	.LVL15:
 786:Generated_Source\PSoC5/USB_std.c ****                                                 USB_MODE_ISO_OUT : USB_MODE_ACK_OUT;
 182              		.loc 1 786 0
 183 00b6 8CF805B0 		strb	fp, [ip, #5]
 184              	.L7:
 790:Generated_Source\PSoC5/USB_std.c ****                 USB_EP[cur_ep].bufferSize = pEP->bufferSize;
 185              		.loc 1 790 0
 186 00ba DFF8F8C0 		ldr	ip, .L20+48
 791:Generated_Source\PSoC5/USB_std.c ****                 USB_EP[cur_ep].addr = pEP->addr;
 187              		.loc 1 791 0
 188 00be 019E     		ldr	r6, [sp, #4]
 790:Generated_Source\PSoC5/USB_std.c ****                 USB_EP[cur_ep].bufferSize = pEP->bufferSize;
 189              		.loc 1 790 0
 190 00c0 AC44     		add	ip, ip, r5
 191 00c2 8CF800A0 		strb	r10, [ip]
 791:Generated_Source\PSoC5/USB_std.c ****                 USB_EP[cur_ep].addr = pEP->addr;
 192              		.loc 1 791 0
 193 00c6 33F804CC 		ldrh	ip, [r3, #-4]
 194 00ca 3744     		add	r7, r7, r6
 195              	.LVL16:
 196 00cc 08EB8706 		add	r6, r8, r7, lsl #2
 197 00d0 A6F808C0 		strh	ip, [r6, #8]	@ movhi
 792:Generated_Source\PSoC5/USB_std.c ****                 USB_EP[cur_ep].attrib = pEP->attributes;
 198              		.loc 1 792 0
 199 00d4 13F806BC 		ldrb	fp, [r3, #-6]	@ zero_extendqisi2
 832:Generated_Source\PSoC5/USB_std.c ****                                                                 USB_EP[cur_ep].bufferSize >> 8u);
 200              		.loc 1 832 0
 201 00d8 DFF8DCC0 		ldr	ip, .L20+52
 792:Generated_Source\PSoC5/USB_std.c ****                 USB_EP[cur_ep].attrib = pEP->attributes;
 202              		.loc 1 792 0
 203 00dc 86F804B0 		strb	fp, [r6, #4]
 793:Generated_Source\PSoC5/USB_std.c **** 
 204              		.loc 1 793 0
 205 00e0 13F805BC 		ldrb	fp, [r3, #-5]	@ zero_extendqisi2
 832:Generated_Source\PSoC5/USB_std.c ****                                                                 USB_EP[cur_ep].bufferSize >> 8u);
 206              		.loc 1 832 0
 207 00e4 AC44     		add	ip, ip, r5
 793:Generated_Source\PSoC5/USB_std.c **** 
 208              		.loc 1 793 0
 209 00e6 08F827B0 		strb	fp, [r8, r7, lsl #2]
ARM GAS  C:\Users\mgronber\AppData\Local\Temp\ccohOFIJ.s 			page 21


 796:Generated_Source\PSoC5/USB_std.c **** 
 210              		.loc 1 796 0
 211 00ea 86F80390 		strb	r9, [r6, #3]
 832:Generated_Source\PSoC5/USB_std.c ****                                                                 USB_EP[cur_ep].bufferSize >> 8u);
 212              		.loc 1 832 0
 213 00ee B6F80880 		ldrh	r8, [r6, #8]
 834:Generated_Source\PSoC5/USB_std.c ****                                                                 USB_EP[cur_ep].bufferSize & 0xFFu);
 214              		.loc 1 834 0
 215 00f2 2A4F     		ldr	r7, .L20+24
 832:Generated_Source\PSoC5/USB_std.c ****                                                                 USB_EP[cur_ep].bufferSize >> 8u);
 216              		.loc 1 832 0
 217 00f4 C8F30728 		ubfx	r8, r8, #8, #8
 218 00f8 8CF80080 		strb	r8, [ip]
 834:Generated_Source\PSoC5/USB_std.c ****                                                                 USB_EP[cur_ep].bufferSize & 0xFFu);
 219              		.loc 1 834 0
 220 00fc B6F808C0 		ldrh	ip, [r6, #8]
 221 0100 2F44     		add	r7, r7, r5
 222 0102 5FFA8CFC 		uxtb	ip, ip
 223 0106 87F800C0 		strb	ip, [r7]
 836:Generated_Source\PSoC5/USB_std.c ****                                                                 USB_EP[cur_ep].buffOffset & 0xFFu);
 224              		.loc 1 836 0
 225 010a B6F806C0 		ldrh	ip, [r6, #6]
 226 010e 244F     		ldr	r7, .L20+28
 227 0110 5FFA8CFC 		uxtb	ip, ip
 228 0114 2F44     		add	r7, r7, r5
 229 0116 87F800C0 		strb	ip, [r7]
 838:Generated_Source\PSoC5/USB_std.c ****                                                                 USB_EP[cur_ep].buffOffset >> 8u);
 230              		.loc 1 838 0
 231 011a B6F806C0 		ldrh	ip, [r6, #6]
 232 011e 214F     		ldr	r7, .L20+32
 233 0120 CCF3072C 		ubfx	ip, ip, #8, #8
 234 0124 2F44     		add	r7, r7, r5
 235 0126 87F800C0 		strb	ip, [r7]
 840:Generated_Source\PSoC5/USB_std.c ****                                                                 USB_EP[cur_ep].buffOffset & 0xFFu);
 236              		.loc 1 840 0
 237 012a B6F806C0 		ldrh	ip, [r6, #6]
 238 012e 1E4F     		ldr	r7, .L20+36
 239 0130 5FFA8CFC 		uxtb	ip, ip
 240 0134 2F44     		add	r7, r7, r5
 241 0136 87F800C0 		strb	ip, [r7]
 842:Generated_Source\PSoC5/USB_std.c ****                                                                 USB_EP[cur_ep].buffOffset >> 8u);
 242              		.loc 1 842 0
 243 013a F788     		ldrh	r7, [r6, #6]
 244 013c 1B4E     		ldr	r6, .L20+40
 245 013e 0833     		adds	r3, r3, #8
 246              	.LVL17:
 247 0140 C7F30727 		ubfx	r7, r7, #8, #8
 248 0144 2E44     		add	r6, r6, r5
 764:Generated_Source\PSoC5/USB_std.c ****         {
 249              		.loc 1 764 0
 250 0146 9342     		cmp	r3, r2
 842:Generated_Source\PSoC5/USB_std.c ****                                                                 USB_EP[cur_ep].buffOffset >> 8u);
 251              		.loc 1 842 0
 252 0148 3770     		strb	r7, [r6]
 253              	.LVL18:
 764:Generated_Source\PSoC5/USB_std.c ****         {
 254              		.loc 1 764 0
ARM GAS  C:\Users\mgronber\AppData\Local\Temp\ccohOFIJ.s 			page 22


 255 014a 85D1     		bne	.L9
 256              	.LVL19:
 257              	.L18:
 850:Generated_Source\PSoC5/USB_std.c **** 
 258              		.loc 1 850 0
 259 014c 03B0     		add	sp, sp, #12
 260              		.cfi_def_cfa_offset 36
 261              		@ sp needed
 262 014e BDE8F08F 		pop	{r4, r5, r6, r7, r8, r9, r10, fp, pc}
 263              	.LVL20:
 264              	.L2:
 265              		.cfi_def_cfa_offset 0
 266              		.cfi_restore 4
 267              		.cfi_restore 5
 268              		.cfi_restore 6
 269              		.cfi_restore 7
 270              		.cfi_restore 8
 271              		.cfi_restore 9
 272              		.cfi_restore 10
 273              		.cfi_restore 11
 274              		.cfi_restore 14
 758:Generated_Source\PSoC5/USB_std.c **** 
 275              		.loc 1 758 0
 276 0152 0023     		movs	r3, #0
 277              	.LVL21:
 278 0154 1B7A     		ldrb	r3, [r3, #8]	@ zero_extendqisi2
 279 0156 FFDE     		.inst	0xdeff
 280              	.LVL22:
 281              	.L19:
 282              		.cfi_def_cfa_offset 48
 283              		.cfi_offset 4, -36
 284              		.cfi_offset 5, -32
 285              		.cfi_offset 6, -28
 286              		.cfi_offset 7, -24
 287              		.cfi_offset 8, -20
 288              		.cfi_offset 9, -16
 289              		.cfi_offset 10, -12
 290              		.cfi_offset 11, -8
 291              		.cfi_offset 14, -4
 779:Generated_Source\PSoC5/USB_std.c ****                                                 USB_MODE_ISO_IN : USB_MODE_ACK_IN;
 292              		.loc 1 779 0
 293 0158 012E     		cmp	r6, #1
 778:Generated_Source\PSoC5/USB_std.c ****                     USB_EP[cur_ep].epMode = (epType == USB_EP_TYPE_ISOC) ?
 294              		.loc 1 778 0
 295 015a 4FEA4706 		lsl	r6, r7, #1
 296              	.LVL23:
 297 015e 06EB070C 		add	ip, r6, r7
 298 0162 0196     		str	r6, [sp, #4]
 299 0164 0C4E     		ldr	r6, .L20+20
 779:Generated_Source\PSoC5/USB_std.c ****                                                 USB_MODE_ISO_IN : USB_MODE_ACK_IN;
 300              		.loc 1 779 0
 301 0166 0CBF     		ite	eq
 302 0168 4FF00708 		moveq	r8, #7
 303 016c 4FF00D08 		movne	r8, #13
 778:Generated_Source\PSoC5/USB_std.c ****                     USB_EP[cur_ep].epMode = (epType == USB_EP_TYPE_ISOC) ?
 304              		.loc 1 778 0
 305 0170 06EB8C0C 		add	ip, r6, ip, lsl #2
ARM GAS  C:\Users\mgronber\AppData\Local\Temp\ccohOFIJ.s 			page 23


 306 0174 8CF801A0 		strb	r10, [ip, #1]
 307              	.LVL24:
 779:Generated_Source\PSoC5/USB_std.c ****                                                 USB_MODE_ISO_IN : USB_MODE_ACK_IN;
 308              		.loc 1 779 0
 309 0178 8CF80580 		strb	r8, [ip, #5]
 778:Generated_Source\PSoC5/USB_std.c ****                     USB_EP[cur_ep].epMode = (epType == USB_EP_TYPE_ISOC) ?
 310              		.loc 1 778 0
 311 017c B046     		mov	r8, r6
 312 017e 9CE7     		b	.L7
 313              	.LVL25:
 314              	.L15:
 315              		.cfi_def_cfa_offset 0
 316              		.cfi_restore 4
 317              		.cfi_restore 5
 318              		.cfi_restore 6
 319              		.cfi_restore 7
 320              		.cfi_restore 8
 321              		.cfi_restore 9
 322              		.cfi_restore 10
 323              		.cfi_restore 11
 324              		.cfi_restore 14
 325 0180 7047     		bx	lr
 326              	.L21:
 327 0182 00BF     		.align	2
 328              	.L20:
 329 0184 00000000 		.word	USB_configuration
 330 0188 00000000 		.word	USB_device
 331 018c 00000000 		.word	USB_TABLE
 332 0190 00000000 		.word	USB_interfaceSetting
 333 0194 00000000 		.word	USB_interfaceSetting_last
 334 0198 00000000 		.word	USB_EP
 335 019c 0D600040 		.word	1073766413
 336 01a0 86600040 		.word	1073766534
 337 01a4 87600040 		.word	1073766535
 338 01a8 84600040 		.word	1073766532
 339 01ac 85600040 		.word	1073766533
 340 01b0 04600040 		.word	1073766404
 341 01b4 0E600040 		.word	1073766414
 342 01b8 0C600040 		.word	1073766412
 343              		.cfi_endproc
 344              	.LFE12:
 345              		.size	USB_ConfigAltChanged.part.0, .-USB_ConfigAltChanged.part.0
 346              		.section	.text.USB_ReadDieID,"ax",%progbits
 347              		.align	2
 348              		.global	USB_ReadDieID
 349              		.thumb
 350              		.thumb_func
 351              		.type	USB_ReadDieID, %function
 352              	USB_ReadDieID:
 353              	.LFB1:
 360:Generated_Source\PSoC5/USB_std.c ****         uint8 i;
 354              		.loc 1 360 0
 355              		.cfi_startproc
 356              		@ args = 0, pretend = 0, frame = 16
 357              		@ frame_needed = 0, uses_anonymous_args = 0
 358              		@ link register save eliminated.
 359              	.LVL26:
ARM GAS  C:\Users\mgronber\AppData\Local\Temp\ccohOFIJ.s 			page 24


 360 0000 30B4     		push	{r4, r5}
 361              		.cfi_def_cfa_offset 8
 362              		.cfi_offset 4, -8
 363              		.cfi_offset 5, -4
 364 0002 0546     		mov	r5, r0
 365 0004 84B0     		sub	sp, sp, #16
 366              		.cfi_def_cfa_offset 24
 364:Generated_Source\PSoC5/USB_std.c **** 
 367              		.loc 1 364 0
 368 0006 114B     		ldr	r3, .L28
 369 0008 04AC     		add	r4, sp, #16
 370 000a 0FCB     		ldmia	r3, {r0, r1, r2, r3}
 371              	.LVL27:
 372 000c 04E90F00 		stmdb	r4, {r0, r1, r2, r3}
 367:Generated_Source\PSoC5/USB_std.c ****         {
 373              		.loc 1 367 0
 374 0010 CDB1     		cbz	r5, .L22
 375 0012 2A46     		mov	r2, r5
 369:Generated_Source\PSoC5/USB_std.c ****             descr[1u] = USB_DESCR_STRING;
 376              		.loc 1 369 0
 377 0014 2221     		movs	r1, #34
 370:Generated_Source\PSoC5/USB_std.c **** 
 378              		.loc 1 370 0
 379 0016 0323     		movs	r3, #3
 380 0018 0D48     		ldr	r0, .L28+4
 381 001a 05F12004 		add	r4, r5, #32
 369:Generated_Source\PSoC5/USB_std.c ****             descr[1u] = USB_DESCR_STRING;
 382              		.loc 1 369 0
 383 001e 2970     		strb	r1, [r5]
 370:Generated_Source\PSoC5/USB_std.c **** 
 384              		.loc 1 370 0
 385 0020 6B70     		strb	r3, [r5, #1]
 386              	.LVL28:
 387              	.L24:
 375:Generated_Source\PSoC5/USB_std.c ****                 j++;
 388              		.loc 1 375 0 discriminator 3
 389 0022 10F8013B 		ldrb	r3, [r0], #1	@ zero_extendqisi2
 390              	.LVL29:
 378:Generated_Source\PSoC5/USB_std.c ****             }
 391              		.loc 1 378 0 discriminator 3
 392 0026 04AD     		add	r5, sp, #16
 375:Generated_Source\PSoC5/USB_std.c ****                 j++;
 393              		.loc 1 375 0 discriminator 3
 394 0028 DBB2     		uxtb	r3, r3
 395              	.LVL30:
 378:Generated_Source\PSoC5/USB_std.c ****             }
 396              		.loc 1 378 0 discriminator 3
 397 002a 03F00F01 		and	r1, r3, #15
 398 002e 2944     		add	r1, r1, r5
 377:Generated_Source\PSoC5/USB_std.c ****                 descr[i + 2u] = (uint8)hex[value & 0x0Fu];
 399              		.loc 1 377 0 discriminator 3
 400 0030 05EB1313 		add	r3, r5, r3, lsr #4
 401              	.LVL31:
 378:Generated_Source\PSoC5/USB_std.c ****             }
 402              		.loc 1 378 0 discriminator 3
 403 0034 11F8101C 		ldrb	r1, [r1, #-16]	@ zero_extendqisi2
 377:Generated_Source\PSoC5/USB_std.c ****                 descr[i + 2u] = (uint8)hex[value & 0x0Fu];
ARM GAS  C:\Users\mgronber\AppData\Local\Temp\ccohOFIJ.s 			page 25


 404              		.loc 1 377 0 discriminator 3
 405 0038 13F8103C 		ldrb	r3, [r3, #-16]	@ zero_extendqisi2
 406 003c 9370     		strb	r3, [r2, #2]
 378:Generated_Source\PSoC5/USB_std.c ****             }
 407              		.loc 1 378 0 discriminator 3
 408 003e 02F8041F 		strb	r1, [r2, #4]!
 409              	.LVL32:
 373:Generated_Source\PSoC5/USB_std.c ****             {
 410              		.loc 1 373 0 discriminator 3
 411 0042 A242     		cmp	r2, r4
 412 0044 EDD1     		bne	.L24
 413              	.LVL33:
 414              	.L22:
 381:Generated_Source\PSoC5/USB_std.c **** 
 415              		.loc 1 381 0
 416 0046 04B0     		add	sp, sp, #16
 417              		.cfi_def_cfa_offset 8
 418              		@ sp needed
 419 0048 30BC     		pop	{r4, r5}
 420              		.cfi_restore 5
 421              		.cfi_restore 4
 422              		.cfi_def_cfa_offset 0
 423 004a 7047     		bx	lr
 424              	.L29:
 425              		.align	2
 426              	.L28:
 427 004c 00000000 		.word	.LANCHOR0
 428 0050 00010049 		.word	1224737024
 429              		.cfi_endproc
 430              	.LFE1:
 431              		.size	USB_ReadDieID, .-USB_ReadDieID
 432              		.section	.text.USB_ConfigReg,"ax",%progbits
 433              		.align	2
 434              		.global	USB_ConfigReg
 435              		.thumb
 436              		.thumb_func
 437              		.type	USB_ConfigReg, %function
 438              	USB_ConfigReg:
 439              	.LFB2:
 403:Generated_Source\PSoC5/USB_std.c ****     uint8 ep;
 440              		.loc 1 403 0
 441              		.cfi_startproc
 442              		@ args = 0, pretend = 0, frame = 0
 443              		@ frame_needed = 0, uses_anonymous_args = 0
 444              	.LVL34:
 445 0000 F0B5     		push	{r4, r5, r6, r7, lr}
 446              		.cfi_def_cfa_offset 20
 447              		.cfi_offset 4, -20
 448              		.cfi_offset 5, -16
 449              		.cfi_offset 6, -12
 450              		.cfi_offset 7, -8
 451              		.cfi_offset 14, -4
 403:Generated_Source\PSoC5/USB_std.c ****     uint8 ep;
 452              		.loc 1 403 0
 453 0002 214A     		ldr	r2, .L39
 454 0004 214C     		ldr	r4, .L39+4
 412:Generated_Source\PSoC5/USB_std.c ****     {
ARM GAS  C:\Users\mgronber\AppData\Local\Temp\ccohOFIJ.s 			page 26


 455              		.loc 1 412 0
 456 0006 224E     		ldr	r6, .L39+8
 403:Generated_Source\PSoC5/USB_std.c ****     uint8 ep;
 457              		.loc 1 403 0
 458 0008 0121     		movs	r1, #1
 414:Generated_Source\PSoC5/USB_std.c ****         #if(USB_EP_MM != USB__EP_MANUAL)
 459              		.loc 1 414 0
 460 000a 0C25     		movs	r5, #12
 437:Generated_Source\PSoC5/USB_std.c ****         }
 461              		.loc 1 437 0
 462 000c 8027     		movs	r7, #128
 428:Generated_Source\PSoC5/USB_std.c ****                 /* Prepare EP type mask for automatic memory allocation */
 463              		.loc 1 428 0
 464 000e 4FF0080E 		mov	lr, #8
 465 0012 27E0     		b	.L34
 466              	.LVL35:
 467              	.L38:
 422:Generated_Source\PSoC5/USB_std.c ****             {
 468              		.loc 1 422 0
 469 0014 0079     		ldrb	r0, [r0, #4]	@ zero_extendqisi2
 470 0016 0006     		lsls	r0, r0, #24
 424:Generated_Source\PSoC5/USB_std.c ****             }
 471              		.loc 1 424 0
 472 0018 4CBF     		ite	mi
 473 001a 1570     		strbmi	r5, [r2]
 428:Generated_Source\PSoC5/USB_std.c ****                 /* Prepare EP type mask for automatic memory allocation */
 474              		.loc 1 428 0
 475 001c 82F800E0 		strbpl	lr, [r2]
 476              	.L33:
 441:Generated_Source\PSoC5/USB_std.c ****             CY_SET_REG8((reg8 *)(USB_SIE_EP1_CNT1_IND + i),   USB_EP[ep].bufferSize & 0xFFu);
 477              		.loc 1 441 0 discriminator 2
 478 0020 0B44     		add	r3, r3, r1
 479 0022 04EB8303 		add	r3, r4, r3, lsl #2
 480 0026 1889     		ldrh	r0, [r3, #8]
 481 0028 1032     		adds	r2, r2, #16
 482              	.LVL36:
 483 002a C0F30720 		ubfx	r0, r0, #8, #8
 484 002e 02F8120C 		strb	r0, [r2, #-18]
 442:Generated_Source\PSoC5/USB_std.c **** 
 485              		.loc 1 442 0 discriminator 2
 486 0032 1889     		ldrh	r0, [r3, #8]
 487 0034 0131     		adds	r1, r1, #1
 488              	.LVL37:
 489 0036 C0B2     		uxtb	r0, r0
 490 0038 02F8110C 		strb	r0, [r2, #-17]
 444:Generated_Source\PSoC5/USB_std.c ****             CY_SET_REG8((reg8 *)(USB_ARB_RW1_RA_MSB_IND + i), USB_EP[ep].buffOffset >> 8u);
 491              		.loc 1 444 0 discriminator 2
 492 003c D888     		ldrh	r0, [r3, #6]
 493 003e C0B2     		uxtb	r0, r0
 494 0040 82F86800 		strb	r0, [r2, #104]
 445:Generated_Source\PSoC5/USB_std.c ****             CY_SET_REG8((reg8 *)(USB_ARB_RW1_WA_IND + i),     USB_EP[ep].buffOffset & 0xFFu);
 495              		.loc 1 445 0 discriminator 2
 496 0044 D888     		ldrh	r0, [r3, #6]
 497 0046 C0F30720 		ubfx	r0, r0, #8, #8
 498 004a 82F86900 		strb	r0, [r2, #105]
 446:Generated_Source\PSoC5/USB_std.c ****             CY_SET_REG8((reg8 *)(USB_ARB_RW1_WA_MSB_IND + i), USB_EP[ep].buffOffset >> 8u);
 499              		.loc 1 446 0 discriminator 2
ARM GAS  C:\Users\mgronber\AppData\Local\Temp\ccohOFIJ.s 			page 27


 500 004e D888     		ldrh	r0, [r3, #6]
 501 0050 C0B2     		uxtb	r0, r0
 502 0052 82F86600 		strb	r0, [r2, #102]
 447:Generated_Source\PSoC5/USB_std.c ****         #endif /*  USB_EP_MM != USB__EP_DMAAUTO */
 503              		.loc 1 447 0 discriminator 2
 504 0056 DB88     		ldrh	r3, [r3, #6]
 505 0058 C3F30723 		ubfx	r3, r3, #8, #8
 506 005c 82F86730 		strb	r3, [r2, #103]
 412:Generated_Source\PSoC5/USB_std.c ****     {
 507              		.loc 1 412 0 discriminator 2
 508 0060 B242     		cmp	r2, r6
 509 0062 0CD0     		beq	.L37
 510              	.L34:
 511              	.LVL38:
 420:Generated_Source\PSoC5/USB_std.c ****         {
 512              		.loc 1 420 0
 513 0064 4B00     		lsls	r3, r1, #1
 514 0066 5818     		adds	r0, r3, r1
 414:Generated_Source\PSoC5/USB_std.c ****         #if(USB_EP_MM != USB__EP_MANUAL)
 515              		.loc 1 414 0
 516 0068 82F87250 		strb	r5, [r2, #114]
 420:Generated_Source\PSoC5/USB_std.c ****         {
 517              		.loc 1 420 0
 518 006c 04EB8000 		add	r0, r4, r0, lsl #2
 519 0070 90F805C0 		ldrb	ip, [r0, #5]	@ zero_extendqisi2
 520 0074 BCF1000F 		cmp	ip, #0
 521 0078 CCD1     		bne	.L38
 437:Generated_Source\PSoC5/USB_std.c ****         }
 522              		.loc 1 437 0
 523 007a 1770     		strb	r7, [r2]
 524 007c D0E7     		b	.L33
 525              	.LVL39:
 526              	.L37:
 467:Generated_Source\PSoC5/USB_std.c **** }
 527              		.loc 1 467 0
 528 007e 054B     		ldr	r3, .L39+12
 529 0080 FF22     		movs	r2, #255
 530 0082 1A70     		strb	r2, [r3]
 531 0084 F0BD     		pop	{r4, r5, r6, r7, pc}
 532              	.L40:
 533 0086 00BF     		.align	2
 534              	.L39:
 535 0088 0E600040 		.word	1073766414
 536 008c 00000000 		.word	USB_EP
 537 0090 8E600040 		.word	1073766542
 538 0094 0A600040 		.word	1073766410
 539              		.cfi_endproc
 540              	.LFE2:
 541              		.size	USB_ConfigReg, .-USB_ConfigReg
 542              		.section	.text.USB_ConfigAltChanged,"ax",%progbits
 543              		.align	2
 544              		.global	USB_ConfigAltChanged
 545              		.thumb
 546              		.thumb_func
 547              		.type	USB_ConfigAltChanged, %function
 548              	USB_ConfigAltChanged:
 549              	.LFB4:
ARM GAS  C:\Users\mgronber\AppData\Local\Temp\ccohOFIJ.s 			page 28


 742:Generated_Source\PSoC5/USB_std.c ****     uint8 ep;
 550              		.loc 1 742 0
 551              		.cfi_startproc
 552              		@ args = 0, pretend = 0, frame = 0
 553              		@ frame_needed = 0, uses_anonymous_args = 0
 554              		@ link register save eliminated.
 754:Generated_Source\PSoC5/USB_std.c ****     {
 555              		.loc 1 754 0
 556 0000 024B     		ldr	r3, .L43
 557 0002 1B78     		ldrb	r3, [r3]	@ zero_extendqisi2
 558 0004 0BB1     		cbz	r3, .L41
 559 0006 FFF7FEBF 		b	USB_ConfigAltChanged.part.0
 560              	.LVL40:
 561              	.L41:
 562 000a 7047     		bx	lr
 563              	.L44:
 564              		.align	2
 565              	.L43:
 566 000c 00000000 		.word	USB_configuration
 567              		.cfi_endproc
 568              	.LFE4:
 569              		.size	USB_ConfigAltChanged, .-USB_ConfigAltChanged
 570              		.section	.text.USB_GetConfigTablePtr,"ax",%progbits
 571              		.align	2
 572              		.global	USB_GetConfigTablePtr
 573              		.thumb
 574              		.thumb_func
 575              		.type	USB_GetConfigTablePtr, %function
 576              	USB_GetConfigTablePtr:
 577              	.LFB5:
 869:Generated_Source\PSoC5/USB_std.c ****     /* Device Table */
 578              		.loc 1 869 0
 579              		.cfi_startproc
 580              		@ args = 0, pretend = 0, frame = 0
 581              		@ frame_needed = 0, uses_anonymous_args = 0
 582              		@ link register save eliminated.
 583              	.LVL41:
 873:Generated_Source\PSoC5/USB_std.c **** 
 584              		.loc 1 873 0
 585 0000 064B     		ldr	r3, .L48
 586 0002 074A     		ldr	r2, .L48+4
 587 0004 1B78     		ldrb	r3, [r3]	@ zero_extendqisi2
 588 0006 02EBC302 		add	r2, r2, r3, lsl #3
 589 000a 5368     		ldr	r3, [r2, #4]
 590              	.LVL42:
 881:Generated_Source\PSoC5/USB_std.c ****     {
 591              		.loc 1 881 0
 592 000c 1A7A     		ldrb	r2, [r3, #8]	@ zero_extendqisi2
 593 000e 8242     		cmp	r2, r0
 594 0010 86BF     		itte	hi
 595 0012 03EBC003 		addhi	r3, r3, r0, lsl #3
 596              	.LVL43:
 597              		.loc 1 887 0
 598 0016 D868     		ldrhi	r0, [r3, #12]
 599              	.LVL44:
 883:Generated_Source\PSoC5/USB_std.c ****     }
 600              		.loc 1 883 0
ARM GAS  C:\Users\mgronber\AppData\Local\Temp\ccohOFIJ.s 			page 29


 601 0018 0020     		movls	r0, #0
 602              	.LVL45:
 888:Generated_Source\PSoC5/USB_std.c ****     }
 889:Generated_Source\PSoC5/USB_std.c ****     
 890:Generated_Source\PSoC5/USB_std.c ****     return( pTmp );
 891:Generated_Source\PSoC5/USB_std.c **** }
 603              		.loc 1 891 0
 604 001a 7047     		bx	lr
 605              	.L49:
 606              		.align	2
 607              	.L48:
 608 001c 00000000 		.word	USB_device
 609 0020 00000000 		.word	USB_TABLE
 610              		.cfi_endproc
 611              	.LFE5:
 612              		.size	USB_GetConfigTablePtr, .-USB_GetConfigTablePtr
 613              		.section	.text.USB_GetDeviceTablePtr,"ax",%progbits
 614              		.align	2
 615              		.global	USB_GetDeviceTablePtr
 616              		.thumb
 617              		.thumb_func
 618              		.type	USB_GetDeviceTablePtr, %function
 619              	USB_GetDeviceTablePtr:
 620              	.LFB6:
 892:Generated_Source\PSoC5/USB_std.c **** 
 893:Generated_Source\PSoC5/USB_std.c **** 
 894:Generated_Source\PSoC5/USB_std.c **** /*******************************************************************************
 895:Generated_Source\PSoC5/USB_std.c **** * Function Name: USB_GetDeviceTablePtr
 896:Generated_Source\PSoC5/USB_std.c **** ********************************************************************************
 897:Generated_Source\PSoC5/USB_std.c **** *
 898:Generated_Source\PSoC5/USB_std.c **** * Summary:
 899:Generated_Source\PSoC5/USB_std.c **** *  This routine returns a pointer to the Device table
 900:Generated_Source\PSoC5/USB_std.c **** *
 901:Generated_Source\PSoC5/USB_std.c **** * Parameters:
 902:Generated_Source\PSoC5/USB_std.c **** *  None.
 903:Generated_Source\PSoC5/USB_std.c **** *
 904:Generated_Source\PSoC5/USB_std.c **** * Return:
 905:Generated_Source\PSoC5/USB_std.c **** *  Device Table pointer
 906:Generated_Source\PSoC5/USB_std.c **** *
 907:Generated_Source\PSoC5/USB_std.c **** *******************************************************************************/
 908:Generated_Source\PSoC5/USB_std.c **** const T_USB_LUT CYCODE *USB_GetDeviceTablePtr(void)
 909:Generated_Source\PSoC5/USB_std.c ****                                                             
 910:Generated_Source\PSoC5/USB_std.c **** {
 621              		.loc 1 910 0
 622              		.cfi_startproc
 623              		@ args = 0, pretend = 0, frame = 0
 624              		@ frame_needed = 0, uses_anonymous_args = 0
 625              		@ link register save eliminated.
 911:Generated_Source\PSoC5/USB_std.c ****     /* Device Table */
 912:Generated_Source\PSoC5/USB_std.c ****     return( (const T_USB_LUT CYCODE *) USB_TABLE[USB_device].p_list );
 626              		.loc 1 912 0
 627 0000 034A     		ldr	r2, .L51
 628 0002 044B     		ldr	r3, .L51+4
 629 0004 1278     		ldrb	r2, [r2]	@ zero_extendqisi2
 630 0006 03EBC203 		add	r3, r3, r2, lsl #3
 913:Generated_Source\PSoC5/USB_std.c **** }
 631              		.loc 1 913 0
ARM GAS  C:\Users\mgronber\AppData\Local\Temp\ccohOFIJ.s 			page 30


 632 000a 5868     		ldr	r0, [r3, #4]
 633 000c 7047     		bx	lr
 634              	.L52:
 635 000e 00BF     		.align	2
 636              	.L51:
 637 0010 00000000 		.word	USB_device
 638 0014 00000000 		.word	USB_TABLE
 639              		.cfi_endproc
 640              	.LFE6:
 641              		.size	USB_GetDeviceTablePtr, .-USB_GetDeviceTablePtr
 642              		.section	.text.USB_GetInterfaceClassTablePtr,"ax",%progbits
 643              		.align	2
 644              		.global	USB_GetInterfaceClassTablePtr
 645              		.thumb
 646              		.thumb_func
 647              		.type	USB_GetInterfaceClassTablePtr, %function
 648              	USB_GetInterfaceClassTablePtr:
 649              	.LFB7:
 914:Generated_Source\PSoC5/USB_std.c **** 
 915:Generated_Source\PSoC5/USB_std.c **** 
 916:Generated_Source\PSoC5/USB_std.c **** /*******************************************************************************
 917:Generated_Source\PSoC5/USB_std.c **** * Function Name: USB_GetInterfaceClassTablePtr
 918:Generated_Source\PSoC5/USB_std.c **** ********************************************************************************
 919:Generated_Source\PSoC5/USB_std.c **** *
 920:Generated_Source\PSoC5/USB_std.c **** * Summary:
 921:Generated_Source\PSoC5/USB_std.c **** *  This routine returns Interface Class table pointer, which contains
 922:Generated_Source\PSoC5/USB_std.c **** *  the relation between interface number and interface class.
 923:Generated_Source\PSoC5/USB_std.c **** *
 924:Generated_Source\PSoC5/USB_std.c **** * Parameters:
 925:Generated_Source\PSoC5/USB_std.c **** *  None.
 926:Generated_Source\PSoC5/USB_std.c **** *
 927:Generated_Source\PSoC5/USB_std.c **** * Return:
 928:Generated_Source\PSoC5/USB_std.c **** *  Interface Class table pointer.
 929:Generated_Source\PSoC5/USB_std.c **** *
 930:Generated_Source\PSoC5/USB_std.c **** *******************************************************************************/
 931:Generated_Source\PSoC5/USB_std.c **** const uint8 CYCODE *USB_GetInterfaceClassTablePtr(void)
 932:Generated_Source\PSoC5/USB_std.c ****                                                         
 933:Generated_Source\PSoC5/USB_std.c **** {
 650              		.loc 1 933 0
 651              		.cfi_startproc
 652              		@ args = 0, pretend = 0, frame = 0
 653              		@ frame_needed = 0, uses_anonymous_args = 0
 654              		@ link register save eliminated.
 934:Generated_Source\PSoC5/USB_std.c ****     const T_USB_LUT CYCODE *pTmp;
 935:Generated_Source\PSoC5/USB_std.c ****     const uint8 CYCODE *pInterfaceClass;
 936:Generated_Source\PSoC5/USB_std.c ****     uint8 currentInterfacesNum;
 937:Generated_Source\PSoC5/USB_std.c **** 
 938:Generated_Source\PSoC5/USB_std.c ****     pTmp = USB_GetConfigTablePtr(USB_configuration - 1u);
 655              		.loc 1 938 0
 656 0000 0D4B     		ldr	r3, .L57
 657              	.LBB30:
 658              	.LBB31:
 873:Generated_Source\PSoC5/USB_std.c **** 
 659              		.loc 1 873 0
 660 0002 0E49     		ldr	r1, .L57+4
 661              	.LBE31:
 662              	.LBE30:
ARM GAS  C:\Users\mgronber\AppData\Local\Temp\ccohOFIJ.s 			page 31


 663              		.loc 1 938 0
 664 0004 1B78     		ldrb	r3, [r3]	@ zero_extendqisi2
 665              	.LBB35:
 666              	.LBB32:
 873:Generated_Source\PSoC5/USB_std.c **** 
 667              		.loc 1 873 0
 668 0006 0E4A     		ldr	r2, .L57+8
 669 0008 0978     		ldrb	r1, [r1]	@ zero_extendqisi2
 670              	.LBE32:
 671              	.LBE35:
 672              		.loc 1 938 0
 673 000a 013B     		subs	r3, r3, #1
 674              	.LBB36:
 675              	.LBB33:
 873:Generated_Source\PSoC5/USB_std.c **** 
 676              		.loc 1 873 0
 677 000c 02EBC102 		add	r2, r2, r1, lsl #3
 678 0010 5268     		ldr	r2, [r2, #4]
 679              	.LBE33:
 680              	.LBE36:
 681              		.loc 1 938 0
 682 0012 DBB2     		uxtb	r3, r3
 683              	.LVL46:
 684              	.LBB37:
 685              	.LBB34:
 881:Generated_Source\PSoC5/USB_std.c ****     {
 686              		.loc 1 881 0
 687 0014 117A     		ldrb	r1, [r2, #8]	@ zero_extendqisi2
 688 0016 9942     		cmp	r1, r3
 689 0018 09D9     		bls	.L55
 887:Generated_Source\PSoC5/USB_std.c ****     }
 690              		.loc 1 887 0
 691 001a 02EBC303 		add	r3, r2, r3, lsl #3
 692              	.LVL47:
 693 001e DB68     		ldr	r3, [r3, #12]
 694              	.LVL48:
 695              	.LBE34:
 696              	.LBE37:
 939:Generated_Source\PSoC5/USB_std.c ****     if( pTmp != NULL )
 697              		.loc 1 939 0
 698 0020 3BB1     		cbz	r3, .L56
 699              	.LVL49:
 940:Generated_Source\PSoC5/USB_std.c ****     {
 941:Generated_Source\PSoC5/USB_std.c ****         currentInterfacesNum  = ((const uint8 *) pTmp->p_list)[USB_CONFIG_DESCR_NUM_INTERFACES];
 700              		.loc 1 941 0
 701 0022 5A68     		ldr	r2, [r3, #4]
 942:Generated_Source\PSoC5/USB_std.c ****         /* Third entry in the LUT starts the Interface Table pointers */
 943:Generated_Source\PSoC5/USB_std.c ****         /* The INTERFACE_CLASS table is located after all interfaces */
 944:Generated_Source\PSoC5/USB_std.c ****         pTmp = &pTmp[currentInterfacesNum + 2u];
 702              		.loc 1 944 0
 703 0024 1279     		ldrb	r2, [r2, #4]	@ zero_extendqisi2
 704              	.LVL50:
 945:Generated_Source\PSoC5/USB_std.c ****         pInterfaceClass = (const uint8 CYCODE *) pTmp->p_list;
 705              		.loc 1 945 0
 706 0026 03EBC203 		add	r3, r3, r2, lsl #3
 707              	.LVL51:
 708 002a 5869     		ldr	r0, [r3, #20]
ARM GAS  C:\Users\mgronber\AppData\Local\Temp\ccohOFIJ.s 			page 32


 709              	.LVL52:
 710 002c 7047     		bx	lr
 711              	.LVL53:
 712              	.L55:
 946:Generated_Source\PSoC5/USB_std.c ****     }
 947:Generated_Source\PSoC5/USB_std.c ****     else
 948:Generated_Source\PSoC5/USB_std.c ****     {
 949:Generated_Source\PSoC5/USB_std.c ****         pInterfaceClass = (const uint8 CYCODE *) NULL;
 713              		.loc 1 949 0
 714 002e 0020     		movs	r0, #0
 715 0030 7047     		bx	lr
 716              	.LVL54:
 717              	.L56:
 718 0032 1846     		mov	r0, r3
 719              	.LVL55:
 950:Generated_Source\PSoC5/USB_std.c ****     }
 951:Generated_Source\PSoC5/USB_std.c ****     
 952:Generated_Source\PSoC5/USB_std.c ****     return( pInterfaceClass );
 953:Generated_Source\PSoC5/USB_std.c **** }
 720              		.loc 1 953 0
 721 0034 7047     		bx	lr
 722              	.L58:
 723 0036 00BF     		.align	2
 724              	.L57:
 725 0038 00000000 		.word	USB_configuration
 726 003c 00000000 		.word	USB_device
 727 0040 00000000 		.word	USB_TABLE
 728              		.cfi_endproc
 729              	.LFE7:
 730              		.size	USB_GetInterfaceClassTablePtr, .-USB_GetInterfaceClassTablePtr
 731              		.section	.text.USB_Config,"ax",%progbits
 732              		.align	2
 733              		.global	USB_Config
 734              		.thumb
 735              		.thumb_func
 736              		.type	USB_Config, %function
 737              	USB_Config:
 738              	.LFB3:
 494:Generated_Source\PSoC5/USB_std.c ****     uint8 ep;
 739              		.loc 1 494 0
 740              		.cfi_startproc
 741              		@ args = 0, pretend = 0, frame = 0
 742              		@ frame_needed = 0, uses_anonymous_args = 0
 743              	.LVL56:
 744 0000 0021     		movs	r1, #0
 745 0002 2DE9F84F 		push	{r3, r4, r5, r6, r7, r8, r9, r10, fp, lr}
 746              		.cfi_def_cfa_offset 40
 747              		.cfi_offset 3, -40
 748              		.cfi_offset 4, -36
 749              		.cfi_offset 5, -32
 750              		.cfi_offset 6, -28
 751              		.cfi_offset 7, -24
 752              		.cfi_offset 8, -20
 753              		.cfi_offset 9, -16
 754              		.cfi_offset 10, -12
 755              		.cfi_offset 11, -8
 756              		.cfi_offset 14, -4
ARM GAS  C:\Users\mgronber\AppData\Local\Temp\ccohOFIJ.s 			page 33


 510:Generated_Source\PSoC5/USB_std.c ****         USB_EP[ep].hwEpState = 0u;
 757              		.loc 1 510 0
 758 0006 0B46     		mov	r3, r1
 759 0008 6C4F     		ldr	r7, .L98
 760              	.LVL57:
 761              	.L60:
 510:Generated_Source\PSoC5/USB_std.c ****         USB_EP[ep].hwEpState = 0u;
 762              		.loc 1 510 0 is_stmt 0 discriminator 3
 763 000a 01EB4104 		add	r4, r1, r1, lsl #1
 764 000e 0131     		adds	r1, r1, #1
 765              	.LVL58:
 766 0010 07EB8402 		add	r2, r7, r4, lsl #2
 508:Generated_Source\PSoC5/USB_std.c ****     {
 767              		.loc 1 508 0 is_stmt 1 discriminator 3
 768 0014 0929     		cmp	r1, #9
 510:Generated_Source\PSoC5/USB_std.c ****         USB_EP[ep].hwEpState = 0u;
 769              		.loc 1 510 0 discriminator 3
 770 0016 07F82430 		strb	r3, [r7, r4, lsl #2]
 511:Generated_Source\PSoC5/USB_std.c ****         USB_EP[ep].apiEpState = USB_NO_EVENT_PENDING;
 771              		.loc 1 511 0 discriminator 3
 772 001a 9370     		strb	r3, [r2, #2]
 510:Generated_Source\PSoC5/USB_std.c ****         USB_EP[ep].hwEpState = 0u;
 773              		.loc 1 510 0 discriminator 3
 774 001c 4FF00004 		mov	r4, #0
 512:Generated_Source\PSoC5/USB_std.c ****         USB_EP[ep].epToggle = 0u;
 775              		.loc 1 512 0 discriminator 3
 776 0020 5370     		strb	r3, [r2, #1]
 513:Generated_Source\PSoC5/USB_std.c ****         USB_EP[ep].epMode = USB_MODE_DISABLE;
 777              		.loc 1 513 0 discriminator 3
 778 0022 D370     		strb	r3, [r2, #3]
 514:Generated_Source\PSoC5/USB_std.c ****         USB_EP[ep].bufferSize = 0u;
 779              		.loc 1 514 0 discriminator 3
 780 0024 5371     		strb	r3, [r2, #5]
 515:Generated_Source\PSoC5/USB_std.c ****         USB_EP[ep].interface = 0u;
 781              		.loc 1 515 0 discriminator 3
 782 0026 1381     		strh	r3, [r2, #8]	@ movhi
 516:Generated_Source\PSoC5/USB_std.c **** 
 783              		.loc 1 516 0 discriminator 3
 784 0028 9372     		strb	r3, [r2, #10]
 508:Generated_Source\PSoC5/USB_std.c ****     {
 785              		.loc 1 508 0 discriminator 3
 786 002a EED1     		bne	.L60
 521:Generated_Source\PSoC5/USB_std.c ****     {
 787              		.loc 1 521 0
 788 002c 28B1     		cbz	r0, .L61
 789              	.LVL59:
 525:Generated_Source\PSoC5/USB_std.c ****             USB_interfaceSetting_last[i] = 0x00u;
 790              		.loc 1 525 0 discriminator 1
 791 002e 644A     		ldr	r2, .L98+4
 526:Generated_Source\PSoC5/USB_std.c ****         }
 792              		.loc 1 526 0 discriminator 1
 793 0030 644B     		ldr	r3, .L98+8
 525:Generated_Source\PSoC5/USB_std.c ****             USB_interfaceSetting_last[i] = 0x00u;
 794              		.loc 1 525 0 discriminator 1
 795 0032 1470     		strb	r4, [r2]
 526:Generated_Source\PSoC5/USB_std.c ****         }
 796              		.loc 1 526 0 discriminator 1
ARM GAS  C:\Users\mgronber\AppData\Local\Temp\ccohOFIJ.s 			page 34


 797 0034 1C70     		strb	r4, [r3]
 798              	.LVL60:
 525:Generated_Source\PSoC5/USB_std.c ****             USB_interfaceSetting_last[i] = 0x00u;
 799              		.loc 1 525 0 discriminator 1
 800 0036 5470     		strb	r4, [r2, #1]
 526:Generated_Source\PSoC5/USB_std.c ****         }
 801              		.loc 1 526 0 discriminator 1
 802 0038 5C70     		strb	r4, [r3, #1]
 803              	.LVL61:
 804              	.L61:
 531:Generated_Source\PSoC5/USB_std.c ****     {
 805              		.loc 1 531 0
 806 003a 634B     		ldr	r3, .L98+12
 807 003c 1A78     		ldrb	r2, [r3]	@ zero_extendqisi2
 808 003e 002A     		cmp	r2, #0
 809 0040 00F0B680 		beq	.L59
 810              	.LVL62:
 811              	.LBB42:
 812              	.LBB43:
 813              	.LBB44:
 814              	.LBB45:
 873:Generated_Source\PSoC5/USB_std.c **** 
 815              		.loc 1 873 0
 816 0044 6149     		ldr	r1, .L98+16
 817              	.LBE45:
 818              	.LBE44:
 533:Generated_Source\PSoC5/USB_std.c ****         /* Set Power status for current configuration */
 819              		.loc 1 533 0
 820 0046 1B78     		ldrb	r3, [r3]	@ zero_extendqisi2
 821              	.LBB49:
 822              	.LBB46:
 873:Generated_Source\PSoC5/USB_std.c **** 
 823              		.loc 1 873 0
 824 0048 614A     		ldr	r2, .L98+20
 825 004a 0978     		ldrb	r1, [r1]	@ zero_extendqisi2
 826              	.LBE46:
 827              	.LBE49:
 533:Generated_Source\PSoC5/USB_std.c ****         /* Set Power status for current configuration */
 828              		.loc 1 533 0
 829 004c 013B     		subs	r3, r3, #1
 830              	.LBB50:
 831              	.LBB47:
 873:Generated_Source\PSoC5/USB_std.c **** 
 832              		.loc 1 873 0
 833 004e 02EBC102 		add	r2, r2, r1, lsl #3
 834 0052 5268     		ldr	r2, [r2, #4]
 835              	.LBE47:
 836              	.LBE50:
 533:Generated_Source\PSoC5/USB_std.c ****         /* Set Power status for current configuration */
 837              		.loc 1 533 0
 838 0054 DBB2     		uxtb	r3, r3
 839              	.LVL63:
 840              	.LBB51:
 841              	.LBB48:
 881:Generated_Source\PSoC5/USB_std.c ****     {
 842              		.loc 1 881 0
 843 0056 117A     		ldrb	r1, [r2, #8]	@ zero_extendqisi2
ARM GAS  C:\Users\mgronber\AppData\Local\Temp\ccohOFIJ.s 			page 35


 844 0058 9942     		cmp	r1, r3
 845 005a 40F28F80 		bls	.L63
 887:Generated_Source\PSoC5/USB_std.c ****     }
 846              		.loc 1 887 0
 847 005e 02EBC303 		add	r3, r2, r3, lsl #3
 848              	.LVL64:
 849 0062 D3F80C90 		ldr	r9, [r3, #12]
 850              	.LVL65:
 851              	.LBE48:
 852              	.LBE51:
 538:Generated_Source\PSoC5/USB_std.c ****         }
 853              		.loc 1 538 0
 854 0066 5B4A     		ldr	r2, .L98+24
 536:Generated_Source\PSoC5/USB_std.c ****         {
 855              		.loc 1 536 0
 856 0068 D9F80430 		ldr	r3, [r9, #4]
 546:Generated_Source\PSoC5/USB_std.c **** 
 857              		.loc 1 546 0
 858 006c 99F80880 		ldrb	r8, [r9, #8]	@ zero_extendqisi2
 536:Generated_Source\PSoC5/USB_std.c ****         {
 859              		.loc 1 536 0
 860 0070 DB79     		ldrb	r3, [r3, #7]	@ zero_extendqisi2
 861 0072 08F1FF3E 		add	lr, r8, #-1
 862 0076 13F0400F 		tst	r3, #64
 538:Generated_Source\PSoC5/USB_std.c ****         }
 863              		.loc 1 538 0
 864 007a 1378     		ldrb	r3, [r2]	@ zero_extendqisi2
 865 007c 5FFA8EFE 		uxtb	lr, lr
 866 0080 14BF     		ite	ne
 867 0082 43F00103 		orrne	r3, r3, #1
 542:Generated_Source\PSoC5/USB_std.c ****         }
 868              		.loc 1 542 0
 869 0086 03F0FE03 		andeq	r3, r3, #254
 870 008a 0EF1020E 		add	lr, lr, #2
 871 008e D9F80C10 		ldr	r1, [r9, #12]
 629:Generated_Source\PSoC5/USB_std.c ****                         {
 872              		.loc 1 629 0
 873 0092 DFF82CC1 		ldr	ip, .L98+4
 542:Generated_Source\PSoC5/USB_std.c ****         }
 874              		.loc 1 542 0
 875 0096 1370     		strb	r3, [r2]
 876              	.LVL66:
 877 0098 4FEACE0E 		lsl	lr, lr, #3
 546:Generated_Source\PSoC5/USB_std.c **** 
 878              		.loc 1 546 0
 879 009c 0120     		movs	r0, #1
 880              	.LVL67:
 659:Generated_Source\PSoC5/USB_std.c ****                                 USB_EP[i].epMode = (epType == USB_EP_TYPE_ISOC) ?
 881              		.loc 1 659 0
 882 009e 4FF0000B 		mov	fp, #0
 883              	.LVL68:
 884              	.L78:
 885 00a2 C6B2     		uxtb	r6, r0
 886              	.LVL69:
 619:Generated_Source\PSoC5/USB_std.c ****                 {
 887              		.loc 1 619 0
 888 00a4 B8F1000F 		cmp	r8, #0
ARM GAS  C:\Users\mgronber\AppData\Local\Temp\ccohOFIJ.s 			page 36


 889 00a8 3CD0     		beq	.L66
 624:Generated_Source\PSoC5/USB_std.c ****                         {
 890              		.loc 1 624 0
 891 00aa 00EB4005 		add	r5, r0, r0, lsl #1
 892 00ae 07EB8505 		add	r5, r7, r5, lsl #2
 893 00b2 01F10803 		add	r3, r1, #8
 894 00b6 01EB0E04 		add	r4, r1, lr
 895 00ba 02E0     		b	.L77
 896              	.LVL70:
 897              	.L68:
 898 00bc 0833     		adds	r3, r3, #8
 899              	.LVL71:
 619:Generated_Source\PSoC5/USB_std.c ****                 {
 900              		.loc 1 619 0
 901 00be A342     		cmp	r3, r4
 902 00c0 2ED0     		beq	.L95
 903              	.LVL72:
 904              	.L77:
 622:Generated_Source\PSoC5/USB_std.c ****                     {
 905              		.loc 1 622 0
 906 00c2 13F8062C 		ldrb	r2, [r3, #-6]	@ zero_extendqisi2
 907 00c6 02F07F01 		and	r1, r2, #127
 908 00ca 8142     		cmp	r1, r0
 909 00cc F6D1     		bne	.L68
 624:Generated_Source\PSoC5/USB_std.c ****                         {
 910              		.loc 1 624 0
 911 00ce 2989     		ldrh	r1, [r5, #8]
 912 00d0 33F804AC 		ldrh	r10, [r3, #-4]
 913 00d4 89B2     		uxth	r1, r1
 914 00d6 5145     		cmp	r1, r10
 626:Generated_Source\PSoC5/USB_std.c ****                         }
 915              		.loc 1 626 0
 916 00d8 38BF     		it	cc
 917 00da A5F808A0 		strhcc	r10, [r5, #8]	@ movhi
 629:Generated_Source\PSoC5/USB_std.c ****                         {
 918              		.loc 1 629 0
 919 00de 13F8081C 		ldrb	r1, [r3, #-8]	@ zero_extendqisi2
 920 00e2 13F807AC 		ldrb	r10, [r3, #-7]	@ zero_extendqisi2
 921 00e6 1CF80110 		ldrb	r1, [ip, r1]	@ zero_extendqisi2
 922 00ea 8A45     		cmp	r10, r1
 923 00ec E6D1     		bne	.L68
 631:Generated_Source\PSoC5/USB_std.c ****                             if ((pEP->addr & USB_DIR_IN) != 0u)
 924              		.loc 1 631 0
 925 00ee 13F8051C 		ldrb	r1, [r3, #-5]	@ zero_extendqisi2
 632:Generated_Source\PSoC5/USB_std.c ****                             {
 926              		.loc 1 632 0
 927 00f2 1206     		lsls	r2, r2, #24
 631:Generated_Source\PSoC5/USB_std.c ****                             if ((pEP->addr & USB_DIR_IN) != 0u)
 928              		.loc 1 631 0
 929 00f4 01F00301 		and	r1, r1, #3
 930              	.LVL73:
 632:Generated_Source\PSoC5/USB_std.c ****                             {
 931              		.loc 1 632 0
 932 00f8 43D4     		bmi	.L96
 660:Generated_Source\PSoC5/USB_std.c ****                                                     USB_MODE_ISO_OUT : USB_MODE_ACK_OUT;
 933              		.loc 1 660 0
 934 00fa 0129     		cmp	r1, #1
ARM GAS  C:\Users\mgronber\AppData\Local\Temp\ccohOFIJ.s 			page 37


 659:Generated_Source\PSoC5/USB_std.c ****                                 USB_EP[i].epMode = (epType == USB_EP_TYPE_ISOC) ?
 935              		.loc 1 659 0
 936 00fc 85F801B0 		strb	fp, [r5, #1]
 660:Generated_Source\PSoC5/USB_std.c ****                                                     USB_MODE_ISO_OUT : USB_MODE_ACK_OUT;
 937              		.loc 1 660 0
 938 0100 4ED0     		beq	.L76
 939 0102 0922     		movs	r2, #9
 940 0104 6A71     		strb	r2, [r5, #5]
 673:Generated_Source\PSoC5/USB_std.c ****                                        (epType == USB_EP_TYPE_BULK))
 941              		.loc 1 673 0
 942 0106 13F8022C 		ldrb	r2, [r3, #-2]	@ zero_extendqisi2
 943 010a 012A     		cmp	r2, #1
 944 010c 4BD0     		beq	.L97
 945              	.L74:
 680:Generated_Source\PSoC5/USB_std.c ****                             USB_EP[i].attrib = pEP->attributes;
 946              		.loc 1 680 0
 947 010e 13F8062C 		ldrb	r2, [r3, #-6]	@ zero_extendqisi2
 948 0112 0833     		adds	r3, r3, #8
 949              	.LVL74:
 950 0114 2A71     		strb	r2, [r5, #4]
 681:Generated_Source\PSoC5/USB_std.c **** 
 951              		.loc 1 681 0
 952 0116 13F80D2C 		ldrb	r2, [r3, #-13]	@ zero_extendqisi2
 619:Generated_Source\PSoC5/USB_std.c ****                 {
 953              		.loc 1 619 0
 954 011a A342     		cmp	r3, r4
 681:Generated_Source\PSoC5/USB_std.c **** 
 955              		.loc 1 681 0
 956 011c 2A70     		strb	r2, [r5]
 957              	.LVL75:
 619:Generated_Source\PSoC5/USB_std.c ****                 {
 958              		.loc 1 619 0
 959 011e D0D1     		bne	.L77
 960              	.LVL76:
 961              	.L95:
 962 0120 D9F80C10 		ldr	r1, [r9, #12]
 963              	.L66:
 964              	.LVL77:
 965 0124 0130     		adds	r0, r0, #1
 966              	.LVL78:
 613:Generated_Source\PSoC5/USB_std.c ****             {
 967              		.loc 1 613 0
 968 0126 0928     		cmp	r0, #9
 969 0128 BBD1     		bne	.L78
 970              	.LVL79:
 699:Generated_Source\PSoC5/USB_std.c ****         {
 971              		.loc 1 699 0
 972 012a B8F1000F 		cmp	r8, #0
 973 012e 10D0     		beq	.L82
 974 0130 8E44     		add	lr, lr, r1
 975 0132 01F10802 		add	r2, r1, #8
 976              	.LVL80:
 977              	.L81:
 702:Generated_Source\PSoC5/USB_std.c ****             pEP = &pEP[1u];
 978              		.loc 1 702 0
 979 0136 12F8063C 		ldrb	r3, [r2, #-6]	@ zero_extendqisi2
 980 013a 12F8081C 		ldrb	r1, [r2, #-8]	@ zero_extendqisi2
ARM GAS  C:\Users\mgronber\AppData\Local\Temp\ccohOFIJ.s 			page 38


 981 013e 03F07F03 		and	r3, r3, #127
 982 0142 03EB4303 		add	r3, r3, r3, lsl #1
 983 0146 0832     		adds	r2, r2, #8
 984              	.LVL81:
 985 0148 07EB8303 		add	r3, r7, r3, lsl #2
 699:Generated_Source\PSoC5/USB_std.c ****         {
 986              		.loc 1 699 0
 987 014c 7245     		cmp	r2, lr
 702:Generated_Source\PSoC5/USB_std.c ****             pEP = &pEP[1u];
 988              		.loc 1 702 0
 989 014e 9972     		strb	r1, [r3, #10]
 990              	.LVL82:
 699:Generated_Source\PSoC5/USB_std.c ****         {
 991              		.loc 1 699 0
 992 0150 F1D1     		bne	.L81
 993              	.L82:
 706:Generated_Source\PSoC5/USB_std.c ****         /* Set the endpoint buffer addresses */
 994              		.loc 1 706 0
 995 0152 FFF7FEFF 		bl	USB_GetInterfaceClassTablePtr
 996              	.LVL83:
 997 0156 204B     		ldr	r3, .L98+28
 998 0158 0121     		movs	r1, #1
 999 015a 1860     		str	r0, [r3]
 1000              	.LVL84:
 501:Generated_Source\PSoC5/USB_std.c ****     #endif /*  USB_EP_MM != USB__EP_DMAAUTO */
 1001              		.loc 1 501 0
 1002 015c 0023     		movs	r3, #0
 1003              	.LVL85:
 1004              	.L80:
 712:Generated_Source\PSoC5/USB_std.c ****                  buffCount += USB_EP[ep].bufferSize;
 1005              		.loc 1 712 0
 1006 015e 01EB4102 		add	r2, r1, r1, lsl #1
 1007 0162 07EB8202 		add	r2, r7, r2, lsl #2
 1008 0166 D380     		strh	r3, [r2, #6]	@ movhi
 713:Generated_Source\PSoC5/USB_std.c ****             }
 1009              		.loc 1 713 0
 1010 0168 1289     		ldrh	r2, [r2, #8]
 1011 016a 0131     		adds	r1, r1, #1
 1012              	.LVL86:
 1013 016c 1344     		add	r3, r3, r2
 1014              	.LVL87:
 710:Generated_Source\PSoC5/USB_std.c ****             {
 1015              		.loc 1 710 0
 1016 016e 0929     		cmp	r1, #9
 713:Generated_Source\PSoC5/USB_std.c ****             }
 1017              		.loc 1 713 0
 1018 0170 9BB2     		uxth	r3, r3
 1019              	.LVL88:
 710:Generated_Source\PSoC5/USB_std.c ****             {
 1020              		.loc 1 710 0
 1021 0172 F4D1     		bne	.L80
 1022              	.LBE43:
 1023              	.LBE42:
 720:Generated_Source\PSoC5/USB_std.c **** 
 1024              		.loc 1 720 0
 1025 0174 BDE8F84F 		pop	{r3, r4, r5, r6, r7, r8, r9, r10, fp, lr}
 1026              		.cfi_remember_state
ARM GAS  C:\Users\mgronber\AppData\Local\Temp\ccohOFIJ.s 			page 39


 1027              		.cfi_restore 14
 1028              		.cfi_restore 11
 1029              		.cfi_restore 10
 1030              		.cfi_restore 9
 1031              		.cfi_restore 8
 1032              		.cfi_restore 7
 1033              		.cfi_restore 6
 1034              		.cfi_restore 5
 1035              		.cfi_restore 4
 1036              		.cfi_restore 3
 1037              		.cfi_def_cfa_offset 0
 1038              	.LVL89:
 1039              	.LBB53:
 1040              	.LBB52:
 718:Generated_Source\PSoC5/USB_std.c ****     } /* USB_configuration > 0 */
 1041              		.loc 1 718 0
 1042 0178 FFF7FEBF 		b	USB_ConfigReg
 1043              	.LVL90:
 1044              	.L63:
 1045              		.cfi_restore_state
 535:Generated_Source\PSoC5/USB_std.c ****         if((pDescr[USB_CONFIG_DESCR_ATTRIB] & USB_CONFIG_DESCR_ATTRIB_SELF_POWERED) != 0u)
 1046              		.loc 1 535 0
 1047 017c 0023     		movs	r3, #0
 1048              	.LVL91:
 1049 017e 5B68     		ldr	r3, [r3, #4]
 1050 0180 FFDE     		.inst	0xdeff
 1051              	.LVL92:
 1052              	.L96:
 635:Generated_Source\PSoC5/USB_std.c ****                                 USB_EP[i].epMode = (epType == USB_EP_TYPE_ISOC) ?
 1053              		.loc 1 635 0
 1054 0182 0122     		movs	r2, #1
 636:Generated_Source\PSoC5/USB_std.c ****                                                         USB_MODE_ISO_IN : USB_MODE_ACK_IN;
 1055              		.loc 1 636 0
 1056 0184 9142     		cmp	r1, r2
 635:Generated_Source\PSoC5/USB_std.c ****                                 USB_EP[i].epMode = (epType == USB_EP_TYPE_ISOC) ?
 1057              		.loc 1 635 0
 1058 0186 6A70     		strb	r2, [r5, #1]
 636:Generated_Source\PSoC5/USB_std.c ****                                                         USB_MODE_ISO_IN : USB_MODE_ACK_IN;
 1059              		.loc 1 636 0
 1060 0188 14D0     		beq	.L72
 1061 018a 0D22     		movs	r2, #13
 1062 018c 6A71     		strb	r2, [r5, #5]
 649:Generated_Source\PSoC5/USB_std.c ****                                        (epType == USB_EP_TYPE_BULK))
 1063              		.loc 1 649 0
 1064 018e 13F8022C 		ldrb	r2, [r3, #-2]	@ zero_extendqisi2
 1065 0192 012A     		cmp	r2, #1
 1066 0194 BBD1     		bne	.L74
 1067 0196 0229     		cmp	r1, #2
 1068 0198 B9D1     		bne	.L74
 652:Generated_Source\PSoC5/USB_std.c ****                                     }
 1069              		.loc 1 652 0
 1070 019a 104A     		ldr	r2, .L98+32
 1071 019c 1670     		strb	r6, [r2]
 1072 019e B6E7     		b	.L74
 1073              	.L76:
 660:Generated_Source\PSoC5/USB_std.c ****                                                     USB_MODE_ISO_OUT : USB_MODE_ACK_OUT;
 1074              		.loc 1 660 0
ARM GAS  C:\Users\mgronber\AppData\Local\Temp\ccohOFIJ.s 			page 40


 1075 01a0 0522     		movs	r2, #5
 1076 01a2 6A71     		strb	r2, [r5, #5]
 1077 01a4 B3E7     		b	.L74
 1078              	.L97:
 673:Generated_Source\PSoC5/USB_std.c ****                                        (epType == USB_EP_TYPE_BULK))
 1079              		.loc 1 673 0
 1080 01a6 0229     		cmp	r1, #2
 676:Generated_Source\PSoC5/USB_std.c ****                                     }
 1081              		.loc 1 676 0
 1082 01a8 04BF     		itt	eq
 1083 01aa 0D4A     		ldreq	r2, .L98+36
 1084 01ac 1670     		strbeq	r6, [r2]
 1085 01ae AEE7     		b	.L74
 1086              	.LVL93:
 1087              	.L59:
 1088 01b0 BDE8F88F 		pop	{r3, r4, r5, r6, r7, r8, r9, r10, fp, pc}
 1089              	.LVL94:
 1090              	.L72:
 636:Generated_Source\PSoC5/USB_std.c ****                                                         USB_MODE_ISO_IN : USB_MODE_ACK_IN;
 1091              		.loc 1 636 0
 1092 01b4 0722     		movs	r2, #7
 1093 01b6 6A71     		strb	r2, [r5, #5]
 1094 01b8 A9E7     		b	.L74
 1095              	.L99:
 1096 01ba 00BF     		.align	2
 1097              	.L98:
 1098 01bc 00000000 		.word	USB_EP
 1099 01c0 00000000 		.word	USB_interfaceSetting
 1100 01c4 00000000 		.word	USB_interfaceSetting_last
 1101 01c8 00000000 		.word	USB_configuration
 1102 01cc 00000000 		.word	USB_device
 1103 01d0 00000000 		.word	USB_TABLE
 1104 01d4 00000000 		.word	USB_deviceStatus
 1105 01d8 00000000 		.word	USB_interfaceClass
 1106 01dc 00000000 		.word	USB_midi_in_ep
 1107 01e0 00000000 		.word	USB_midi_out_ep
 1108              	.LBE52:
 1109              	.LBE53:
 1110              		.cfi_endproc
 1111              	.LFE3:
 1112              		.size	USB_Config, .-USB_Config
 1113              		.section	.text.USB_TerminateEP,"ax",%progbits
 1114              		.align	2
 1115              		.global	USB_TerminateEP
 1116              		.thumb
 1117              		.thumb_func
 1118              		.type	USB_TerminateEP, %function
 1119              	USB_TerminateEP:
 1120              	.LFB8:
 954:Generated_Source\PSoC5/USB_std.c **** 
 955:Generated_Source\PSoC5/USB_std.c **** 
 956:Generated_Source\PSoC5/USB_std.c **** /*******************************************************************************
 957:Generated_Source\PSoC5/USB_std.c **** * Function Name: USB_TerminateEP
 958:Generated_Source\PSoC5/USB_std.c **** ********************************************************************************
 959:Generated_Source\PSoC5/USB_std.c **** *
 960:Generated_Source\PSoC5/USB_std.c **** * Summary:
 961:Generated_Source\PSoC5/USB_std.c **** *  This function terminates the specified USBFS endpoint.
ARM GAS  C:\Users\mgronber\AppData\Local\Temp\ccohOFIJ.s 			page 41


 962:Generated_Source\PSoC5/USB_std.c **** *  This function should be used before endpoint reconfiguration.
 963:Generated_Source\PSoC5/USB_std.c **** *
 964:Generated_Source\PSoC5/USB_std.c **** * Parameters:
 965:Generated_Source\PSoC5/USB_std.c **** *  Endpoint number.
 966:Generated_Source\PSoC5/USB_std.c **** *
 967:Generated_Source\PSoC5/USB_std.c **** * Return:
 968:Generated_Source\PSoC5/USB_std.c **** *  None.
 969:Generated_Source\PSoC5/USB_std.c **** *
 970:Generated_Source\PSoC5/USB_std.c **** * Reentrant:
 971:Generated_Source\PSoC5/USB_std.c **** *  No.
 972:Generated_Source\PSoC5/USB_std.c **** *
 973:Generated_Source\PSoC5/USB_std.c **** *******************************************************************************/
 974:Generated_Source\PSoC5/USB_std.c **** void USB_TerminateEP(uint8 ep) 
 975:Generated_Source\PSoC5/USB_std.c **** {
 1121              		.loc 1 975 0
 1122              		.cfi_startproc
 1123              		@ args = 0, pretend = 0, frame = 0
 1124              		@ frame_needed = 0, uses_anonymous_args = 0
 1125              		@ link register save eliminated.
 976:Generated_Source\PSoC5/USB_std.c ****     uint8 ri;
 977:Generated_Source\PSoC5/USB_std.c **** 
 978:Generated_Source\PSoC5/USB_std.c ****     ep &= USB_DIR_UNUSED;
 1126              		.loc 1 978 0
 1127 0000 00F07F00 		and	r0, r0, #127
 979:Generated_Source\PSoC5/USB_std.c ****     ri = ((ep - USB_EP1) << USB_EPX_CNTX_ADDR_SHIFT);
 1128              		.loc 1 979 0
 1129 0004 431E     		subs	r3, r0, #1
 1130 0006 DBB2     		uxtb	r3, r3
 980:Generated_Source\PSoC5/USB_std.c **** 
 981:Generated_Source\PSoC5/USB_std.c ****     if ((ep > USB_EP0) && (ep < USB_MAX_EP))
 1131              		.loc 1 981 0
 1132 0008 072B     		cmp	r3, #7
 1133 000a 19D8     		bhi	.L105
 975:Generated_Source\PSoC5/USB_std.c ****     uint8 ri;
 1134              		.loc 1 975 0
 1135 000c 10B4     		push	{r4}
 1136              		.cfi_def_cfa_offset 4
 1137              		.cfi_offset 4, -4
 982:Generated_Source\PSoC5/USB_std.c ****     {
 983:Generated_Source\PSoC5/USB_std.c ****         /* Set the endpoint Halt */
 984:Generated_Source\PSoC5/USB_std.c ****         USB_EP[ep].hwEpState |= (USB_ENDPOINT_STATUS_HALT);
 1138              		.loc 1 984 0
 1139 000e 0D4A     		ldr	r2, .L106
 1140 0010 00EB4000 		add	r0, r0, r0, lsl #1
 1141 0014 02EB8000 		add	r0, r2, r0, lsl #2
 1142 0018 8278     		ldrb	r2, [r0, #2]	@ zero_extendqisi2
 985:Generated_Source\PSoC5/USB_std.c **** 
 986:Generated_Source\PSoC5/USB_std.c ****         /* Clear the data toggle */
 987:Generated_Source\PSoC5/USB_std.c ****         USB_EP[ep].epToggle = 0u;
 988:Generated_Source\PSoC5/USB_std.c ****         USB_EP[ep].apiEpState = USB_NO_EVENT_ALLOWED;
 1143              		.loc 1 988 0
 1144 001a 0221     		movs	r1, #2
 987:Generated_Source\PSoC5/USB_std.c ****         USB_EP[ep].apiEpState = USB_NO_EVENT_ALLOWED;
 1145              		.loc 1 987 0
 1146 001c 0024     		movs	r4, #0
 984:Generated_Source\PSoC5/USB_std.c **** 
 1147              		.loc 1 984 0
ARM GAS  C:\Users\mgronber\AppData\Local\Temp\ccohOFIJ.s 			page 42


 1148 001e 42F00102 		orr	r2, r2, #1
 1149 0022 8270     		strb	r2, [r0, #2]
 987:Generated_Source\PSoC5/USB_std.c ****         USB_EP[ep].apiEpState = USB_NO_EVENT_ALLOWED;
 1150              		.loc 1 987 0
 1151 0024 C470     		strb	r4, [r0, #3]
 1152              		.loc 1 988 0
 1153 0026 4170     		strb	r1, [r0, #1]
 989:Generated_Source\PSoC5/USB_std.c **** 
 990:Generated_Source\PSoC5/USB_std.c ****         if ((USB_EP[ep].addr & USB_DIR_IN) != 0u)
 1154              		.loc 1 990 0
 1155 0028 0279     		ldrb	r2, [r0, #4]	@ zero_extendqisi2
 979:Generated_Source\PSoC5/USB_std.c **** 
 1156              		.loc 1 979 0
 1157 002a 1B01     		lsls	r3, r3, #4
 1158              		.loc 1 990 0
 1159 002c 12F0800F 		tst	r2, #128
 991:Generated_Source\PSoC5/USB_std.c ****         {
 992:Generated_Source\PSoC5/USB_std.c ****             /* IN Endpoint */
 993:Generated_Source\PSoC5/USB_std.c ****             CY_SET_REG8((reg8 *)(USB_SIE_EP1_CR0_IND + ri), USB_MODE_NAK_IN);
 1160              		.loc 1 993 0
 1161 0030 054A     		ldr	r2, .L106+4
 979:Generated_Source\PSoC5/USB_std.c **** 
 1162              		.loc 1 979 0
 1163 0032 DBB2     		uxtb	r3, r3
 1164              		.loc 1 993 0
 1165 0034 14BF     		ite	ne
 1166 0036 0C21     		movne	r1, #12
 994:Generated_Source\PSoC5/USB_std.c ****         }
 995:Generated_Source\PSoC5/USB_std.c ****         else
 996:Generated_Source\PSoC5/USB_std.c ****         {
 997:Generated_Source\PSoC5/USB_std.c ****             /* OUT Endpoint */
 998:Generated_Source\PSoC5/USB_std.c ****             CY_SET_REG8((reg8 *)(USB_SIE_EP1_CR0_IND + ri), USB_MODE_NAK_OUT);
 1167              		.loc 1 998 0
 1168 0038 0821     		moveq	r1, #8
 1169 003a 9954     		strb	r1, [r3, r2]
 999:Generated_Source\PSoC5/USB_std.c ****         }
1000:Generated_Source\PSoC5/USB_std.c ****     }
1001:Generated_Source\PSoC5/USB_std.c **** }
 1170              		.loc 1 1001 0
 1171 003c 5DF8044B 		ldr	r4, [sp], #4
 1172              		.cfi_restore 4
 1173              		.cfi_def_cfa_offset 0
 1174              	.L105:
 1175 0040 7047     		bx	lr
 1176              	.L107:
 1177 0042 00BF     		.align	2
 1178              	.L106:
 1179 0044 00000000 		.word	USB_EP
 1180 0048 0E600040 		.word	1073766414
 1181              		.cfi_endproc
 1182              	.LFE8:
 1183              		.size	USB_TerminateEP, .-USB_TerminateEP
 1184              		.section	.text.USB_SetEndpointHalt,"ax",%progbits
 1185              		.align	2
 1186              		.global	USB_SetEndpointHalt
 1187              		.thumb
 1188              		.thumb_func
ARM GAS  C:\Users\mgronber\AppData\Local\Temp\ccohOFIJ.s 			page 43


 1189              		.type	USB_SetEndpointHalt, %function
 1190              	USB_SetEndpointHalt:
 1191              	.LFB9:
1002:Generated_Source\PSoC5/USB_std.c **** 
1003:Generated_Source\PSoC5/USB_std.c **** 
1004:Generated_Source\PSoC5/USB_std.c **** /*******************************************************************************
1005:Generated_Source\PSoC5/USB_std.c **** * Function Name: USB_SetEndpointHalt
1006:Generated_Source\PSoC5/USB_std.c **** ********************************************************************************
1007:Generated_Source\PSoC5/USB_std.c **** *
1008:Generated_Source\PSoC5/USB_std.c **** * Summary:
1009:Generated_Source\PSoC5/USB_std.c **** *  This routine handles set endpoint halt.
1010:Generated_Source\PSoC5/USB_std.c **** *
1011:Generated_Source\PSoC5/USB_std.c **** * Parameters:
1012:Generated_Source\PSoC5/USB_std.c **** *  None.
1013:Generated_Source\PSoC5/USB_std.c **** *
1014:Generated_Source\PSoC5/USB_std.c **** * Return:
1015:Generated_Source\PSoC5/USB_std.c **** *  requestHandled.
1016:Generated_Source\PSoC5/USB_std.c **** *
1017:Generated_Source\PSoC5/USB_std.c **** * Reentrant:
1018:Generated_Source\PSoC5/USB_std.c **** *  No.
1019:Generated_Source\PSoC5/USB_std.c **** *
1020:Generated_Source\PSoC5/USB_std.c **** *******************************************************************************/
1021:Generated_Source\PSoC5/USB_std.c **** uint8 USB_SetEndpointHalt(void) 
1022:Generated_Source\PSoC5/USB_std.c **** {
 1192              		.loc 1 1022 0
 1193              		.cfi_startproc
 1194              		@ args = 0, pretend = 0, frame = 0
 1195              		@ frame_needed = 0, uses_anonymous_args = 0
 1196              		@ link register save eliminated.
 1197              	.LVL95:
1023:Generated_Source\PSoC5/USB_std.c ****     uint8 ep;
1024:Generated_Source\PSoC5/USB_std.c ****     uint8 ri;
1025:Generated_Source\PSoC5/USB_std.c ****     uint8 requestHandled = USB_FALSE;
1026:Generated_Source\PSoC5/USB_std.c **** 
1027:Generated_Source\PSoC5/USB_std.c ****     /* Set endpoint halt */
1028:Generated_Source\PSoC5/USB_std.c ****     ep = CY_GET_REG8(USB_wIndexLo) & USB_DIR_UNUSED;
 1198              		.loc 1 1028 0
 1199 0000 124B     		ldr	r3, .L112
 1200 0002 1A78     		ldrb	r2, [r3]	@ zero_extendqisi2
 1201 0004 02F07F02 		and	r2, r2, #127
 1202              	.LVL96:
1029:Generated_Source\PSoC5/USB_std.c ****     ri = ((ep - USB_EP1) << USB_EPX_CNTX_ADDR_SHIFT);
 1203              		.loc 1 1029 0
 1204 0008 531E     		subs	r3, r2, #1
 1205 000a DBB2     		uxtb	r3, r3
 1206              	.LVL97:
1030:Generated_Source\PSoC5/USB_std.c **** 
1031:Generated_Source\PSoC5/USB_std.c ****     if ((ep > USB_EP0) && (ep < USB_MAX_EP))
 1207              		.loc 1 1031 0
 1208 000c 072B     		cmp	r3, #7
 1209 000e 1AD8     		bhi	.L109
1032:Generated_Source\PSoC5/USB_std.c ****     {
1033:Generated_Source\PSoC5/USB_std.c ****         /* Set the endpoint Halt */
1034:Generated_Source\PSoC5/USB_std.c ****         USB_EP[ep].hwEpState |= (USB_ENDPOINT_STATUS_HALT);
 1210              		.loc 1 1034 0
 1211 0010 0F49     		ldr	r1, .L112+4
 1212 0012 02EB4202 		add	r2, r2, r2, lsl #1
ARM GAS  C:\Users\mgronber\AppData\Local\Temp\ccohOFIJ.s 			page 44


 1213              	.LVL98:
 1214 0016 01EB8202 		add	r2, r1, r2, lsl #2
 1215 001a 9178     		ldrb	r1, [r2, #2]	@ zero_extendqisi2
1035:Generated_Source\PSoC5/USB_std.c **** 
1036:Generated_Source\PSoC5/USB_std.c ****         /* Clear the data toggle */
1037:Generated_Source\PSoC5/USB_std.c ****         USB_EP[ep].epToggle = 0u;
 1216              		.loc 1 1037 0
 1217 001c 0020     		movs	r0, #0
1034:Generated_Source\PSoC5/USB_std.c **** 
 1218              		.loc 1 1034 0
 1219 001e 41F00101 		orr	r1, r1, #1
 1220 0022 9170     		strb	r1, [r2, #2]
 1221              		.loc 1 1037 0
 1222 0024 D070     		strb	r0, [r2, #3]
1038:Generated_Source\PSoC5/USB_std.c ****         USB_EP[ep].apiEpState |= USB_NO_EVENT_ALLOWED;
 1223              		.loc 1 1038 0
 1224 0026 5178     		ldrb	r1, [r2, #1]	@ zero_extendqisi2
1029:Generated_Source\PSoC5/USB_std.c **** 
 1225              		.loc 1 1029 0
 1226 0028 1B01     		lsls	r3, r3, #4
 1227              	.LVL99:
 1228              		.loc 1 1038 0
 1229 002a 41F00201 		orr	r1, r1, #2
 1230 002e 5170     		strb	r1, [r2, #1]
1039:Generated_Source\PSoC5/USB_std.c **** 
1040:Generated_Source\PSoC5/USB_std.c ****         if ((USB_EP[ep].addr & USB_DIR_IN) != 0u)
 1231              		.loc 1 1040 0
 1232 0030 1279     		ldrb	r2, [r2, #4]	@ zero_extendqisi2
1029:Generated_Source\PSoC5/USB_std.c **** 
 1233              		.loc 1 1029 0
 1234 0032 DBB2     		uxtb	r3, r3
 1235              		.loc 1 1040 0
 1236 0034 12F0800F 		tst	r2, #128
1041:Generated_Source\PSoC5/USB_std.c ****         {
1042:Generated_Source\PSoC5/USB_std.c ****             /* IN Endpoint */
1043:Generated_Source\PSoC5/USB_std.c ****             CY_SET_REG8((reg8 *)(USB_SIE_EP1_CR0_IND + ri), USB_MODE_STALL_DATA_EP |
 1237              		.loc 1 1043 0
 1238 0038 064A     		ldr	r2, .L112+8
 1239 003a 14BF     		ite	ne
 1240 003c 8D21     		movne	r1, #141
1044:Generated_Source\PSoC5/USB_std.c ****                                                                USB_MODE_ACK_IN);
1045:Generated_Source\PSoC5/USB_std.c ****         }
1046:Generated_Source\PSoC5/USB_std.c ****         else
1047:Generated_Source\PSoC5/USB_std.c ****         {
1048:Generated_Source\PSoC5/USB_std.c ****             /* OUT Endpoint */
1049:Generated_Source\PSoC5/USB_std.c ****             CY_SET_REG8((reg8 *)(USB_SIE_EP1_CR0_IND + ri), USB_MODE_STALL_DATA_EP |
 1241              		.loc 1 1049 0
 1242 003e 8921     		moveq	r1, #137
 1243 0040 9954     		strb	r1, [r3, r2]
1050:Generated_Source\PSoC5/USB_std.c ****                                                                USB_MODE_ACK_OUT);
1051:Generated_Source\PSoC5/USB_std.c ****         }
1052:Generated_Source\PSoC5/USB_std.c ****         requestHandled = USB_InitNoDataControlTransfer();
 1244              		.loc 1 1052 0
 1245 0042 FFF7FEBF 		b	USB_InitNoDataControlTransfer
 1246              	.LVL100:
 1247              	.L109:
1053:Generated_Source\PSoC5/USB_std.c ****     }
ARM GAS  C:\Users\mgronber\AppData\Local\Temp\ccohOFIJ.s 			page 45


1054:Generated_Source\PSoC5/USB_std.c **** 
1055:Generated_Source\PSoC5/USB_std.c ****     return(requestHandled);
1056:Generated_Source\PSoC5/USB_std.c **** }
 1248              		.loc 1 1056 0
 1249 0046 0020     		movs	r0, #0
 1250 0048 7047     		bx	lr
 1251              	.L113:
 1252 004a 00BF     		.align	2
 1253              	.L112:
 1254 004c 04600040 		.word	1073766404
 1255 0050 00000000 		.word	USB_EP
 1256 0054 0E600040 		.word	1073766414
 1257              		.cfi_endproc
 1258              	.LFE9:
 1259              		.size	USB_SetEndpointHalt, .-USB_SetEndpointHalt
 1260              		.section	.text.USB_ClearEndpointHalt,"ax",%progbits
 1261              		.align	2
 1262              		.global	USB_ClearEndpointHalt
 1263              		.thumb
 1264              		.thumb_func
 1265              		.type	USB_ClearEndpointHalt, %function
 1266              	USB_ClearEndpointHalt:
 1267              	.LFB10:
1057:Generated_Source\PSoC5/USB_std.c **** 
1058:Generated_Source\PSoC5/USB_std.c **** 
1059:Generated_Source\PSoC5/USB_std.c **** /*******************************************************************************
1060:Generated_Source\PSoC5/USB_std.c **** * Function Name: USB_ClearEndpointHalt
1061:Generated_Source\PSoC5/USB_std.c **** ********************************************************************************
1062:Generated_Source\PSoC5/USB_std.c **** *
1063:Generated_Source\PSoC5/USB_std.c **** * Summary:
1064:Generated_Source\PSoC5/USB_std.c **** *  This routine handles clear endpoint halt.
1065:Generated_Source\PSoC5/USB_std.c **** *
1066:Generated_Source\PSoC5/USB_std.c **** * Parameters:
1067:Generated_Source\PSoC5/USB_std.c **** *  None.
1068:Generated_Source\PSoC5/USB_std.c **** *
1069:Generated_Source\PSoC5/USB_std.c **** * Return:
1070:Generated_Source\PSoC5/USB_std.c **** *  requestHandled.
1071:Generated_Source\PSoC5/USB_std.c **** *
1072:Generated_Source\PSoC5/USB_std.c **** * Reentrant:
1073:Generated_Source\PSoC5/USB_std.c **** *  No.
1074:Generated_Source\PSoC5/USB_std.c **** *
1075:Generated_Source\PSoC5/USB_std.c **** *******************************************************************************/
1076:Generated_Source\PSoC5/USB_std.c **** uint8 USB_ClearEndpointHalt(void) 
1077:Generated_Source\PSoC5/USB_std.c **** {
 1268              		.loc 1 1077 0
 1269              		.cfi_startproc
 1270              		@ args = 0, pretend = 0, frame = 0
 1271              		@ frame_needed = 0, uses_anonymous_args = 0
 1272              		@ link register save eliminated.
 1273              	.LVL101:
1078:Generated_Source\PSoC5/USB_std.c ****     uint8 ep;
1079:Generated_Source\PSoC5/USB_std.c ****     uint8 ri;
1080:Generated_Source\PSoC5/USB_std.c ****     uint8 requestHandled = USB_FALSE;
1081:Generated_Source\PSoC5/USB_std.c **** 
1082:Generated_Source\PSoC5/USB_std.c ****     /* Clear endpoint halt */
1083:Generated_Source\PSoC5/USB_std.c ****     ep = CY_GET_REG8(USB_wIndexLo) & USB_DIR_UNUSED;
 1274              		.loc 1 1083 0
ARM GAS  C:\Users\mgronber\AppData\Local\Temp\ccohOFIJ.s 			page 46


 1275 0000 1C4B     		ldr	r3, .L122
 1276 0002 1B78     		ldrb	r3, [r3]	@ zero_extendqisi2
 1277 0004 03F07F03 		and	r3, r3, #127
 1278              	.LVL102:
1084:Generated_Source\PSoC5/USB_std.c ****     ri = ((ep - USB_EP1) << USB_EPX_CNTX_ADDR_SHIFT);
 1279              		.loc 1 1084 0
 1280 0008 591E     		subs	r1, r3, #1
 1281 000a C9B2     		uxtb	r1, r1
 1282              	.LVL103:
1085:Generated_Source\PSoC5/USB_std.c **** 
1086:Generated_Source\PSoC5/USB_std.c ****     if ((ep > USB_EP0) && (ep < USB_MAX_EP))
 1283              		.loc 1 1086 0
 1284 000c 0729     		cmp	r1, #7
 1285 000e 24D8     		bhi	.L115
1077:Generated_Source\PSoC5/USB_std.c ****     uint8 ep;
 1286              		.loc 1 1077 0
 1287 0010 10B4     		push	{r4}
 1288              		.cfi_def_cfa_offset 4
 1289              		.cfi_offset 4, -4
1087:Generated_Source\PSoC5/USB_std.c ****     {
1088:Generated_Source\PSoC5/USB_std.c ****         /* Clear the endpoint Halt */
1089:Generated_Source\PSoC5/USB_std.c ****         USB_EP[ep].hwEpState &= (uint8)~(USB_ENDPOINT_STATUS_HALT);
 1290              		.loc 1 1089 0
 1291 0012 194A     		ldr	r2, .L122+4
 1292 0014 03EB4303 		add	r3, r3, r3, lsl #1
 1293              	.LVL104:
 1294 0018 02EB8303 		add	r3, r2, r3, lsl #2
 1295 001c 9A78     		ldrb	r2, [r3, #2]	@ zero_extendqisi2
1090:Generated_Source\PSoC5/USB_std.c **** 
1091:Generated_Source\PSoC5/USB_std.c ****         /* Clear the data toggle */
1092:Generated_Source\PSoC5/USB_std.c ****         USB_EP[ep].epToggle = 0u;
1093:Generated_Source\PSoC5/USB_std.c ****         /* Clear toggle bit for already armed packet */
1094:Generated_Source\PSoC5/USB_std.c ****         CY_SET_REG8((reg8 *)(USB_SIE_EP1_CNT0_IND + ri), CY_GET_REG8(
 1296              		.loc 1 1094 0
 1297 001e 1748     		ldr	r0, .L122+8
1089:Generated_Source\PSoC5/USB_std.c **** 
 1298              		.loc 1 1089 0
 1299 0020 02F0FE02 		and	r2, r2, #254
1084:Generated_Source\PSoC5/USB_std.c **** 
 1300              		.loc 1 1084 0
 1301 0024 0901     		lsls	r1, r1, #4
 1302              	.LVL105:
1092:Generated_Source\PSoC5/USB_std.c ****         /* Clear toggle bit for already armed packet */
 1303              		.loc 1 1092 0
 1304 0026 0024     		movs	r4, #0
1089:Generated_Source\PSoC5/USB_std.c **** 
 1305              		.loc 1 1089 0
 1306 0028 9A70     		strb	r2, [r3, #2]
 1307              		.loc 1 1094 0
 1308 002a C9B2     		uxtb	r1, r1
1092:Generated_Source\PSoC5/USB_std.c ****         /* Clear toggle bit for already armed packet */
 1309              		.loc 1 1092 0
 1310 002c DC70     		strb	r4, [r3, #3]
 1311              		.loc 1 1094 0
 1312 002e 0A5C     		ldrb	r2, [r1, r0]	@ zero_extendqisi2
 1313 0030 02F07F02 		and	r2, r2, #127
 1314 0034 0A54     		strb	r2, [r1, r0]
ARM GAS  C:\Users\mgronber\AppData\Local\Temp\ccohOFIJ.s 			page 47


1095:Generated_Source\PSoC5/USB_std.c ****                     (reg8 *)(USB_SIE_EP1_CNT0_IND + ri)) & (uint8)~USB_EPX_CNT_DATA_TOGGLE);
1096:Generated_Source\PSoC5/USB_std.c ****         /* Return API State as it was defined before */
1097:Generated_Source\PSoC5/USB_std.c ****         USB_EP[ep].apiEpState &= (uint8)~USB_NO_EVENT_ALLOWED;
 1315              		.loc 1 1097 0
 1316 0036 5A78     		ldrb	r2, [r3, #1]	@ zero_extendqisi2
 1317 0038 02F0FD02 		and	r2, r2, #253
 1318 003c 5A70     		strb	r2, [r3, #1]
1098:Generated_Source\PSoC5/USB_std.c **** 
1099:Generated_Source\PSoC5/USB_std.c ****         if ((USB_EP[ep].addr & USB_DIR_IN) != 0u)
 1319              		.loc 1 1099 0
 1320 003e 1A79     		ldrb	r2, [r3, #4]	@ zero_extendqisi2
1100:Generated_Source\PSoC5/USB_std.c ****         {
1101:Generated_Source\PSoC5/USB_std.c ****             /* IN Endpoint */
1102:Generated_Source\PSoC5/USB_std.c ****             if(USB_EP[ep].apiEpState == USB_IN_BUFFER_EMPTY)
 1321              		.loc 1 1102 0
 1322 0040 5B78     		ldrb	r3, [r3, #1]	@ zero_extendqisi2
1099:Generated_Source\PSoC5/USB_std.c ****         {
 1323              		.loc 1 1099 0
 1324 0042 1206     		lsls	r2, r2, #24
 1325 0044 0BD4     		bmi	.L121
1103:Generated_Source\PSoC5/USB_std.c ****             {       /* Wait for next packet from application */
1104:Generated_Source\PSoC5/USB_std.c ****                 CY_SET_REG8((reg8 *)(USB_SIE_EP1_CR0_IND + ri), USB_MODE_NAK_IN);
1105:Generated_Source\PSoC5/USB_std.c ****             }
1106:Generated_Source\PSoC5/USB_std.c ****             else    /* Continue armed transfer */
1107:Generated_Source\PSoC5/USB_std.c ****             {
1108:Generated_Source\PSoC5/USB_std.c ****                 CY_SET_REG8((reg8 *)(USB_SIE_EP1_CR0_IND + ri), USB_MODE_ACK_IN);
1109:Generated_Source\PSoC5/USB_std.c ****             }
1110:Generated_Source\PSoC5/USB_std.c ****         }
1111:Generated_Source\PSoC5/USB_std.c ****         else
1112:Generated_Source\PSoC5/USB_std.c ****         {
1113:Generated_Source\PSoC5/USB_std.c ****             /* OUT Endpoint */
1114:Generated_Source\PSoC5/USB_std.c ****             if(USB_EP[ep].apiEpState == USB_OUT_BUFFER_FULL)
 1326              		.loc 1 1114 0
 1327 0046 012B     		cmp	r3, #1
1115:Generated_Source\PSoC5/USB_std.c ****             {       /* Allow application to read full buffer */
1116:Generated_Source\PSoC5/USB_std.c ****                 CY_SET_REG8((reg8 *)(USB_SIE_EP1_CR0_IND + ri), USB_MODE_NAK_OUT);
 1328              		.loc 1 1116 0
 1329 0048 0D4B     		ldr	r3, .L122+12
 1330 004a 0CBF     		ite	eq
 1331 004c 0822     		moveq	r2, #8
1117:Generated_Source\PSoC5/USB_std.c ****             }
1118:Generated_Source\PSoC5/USB_std.c ****             else    /* Mark endpoint as empty, so it will be reloaded */
1119:Generated_Source\PSoC5/USB_std.c ****             {
1120:Generated_Source\PSoC5/USB_std.c ****                 CY_SET_REG8((reg8 *)(USB_SIE_EP1_CR0_IND + ri), USB_MODE_ACK_OUT);
 1332              		.loc 1 1120 0
 1333 004e 0922     		movne	r2, #9
 1334 0050 CA54     		strb	r2, [r1, r3]
1121:Generated_Source\PSoC5/USB_std.c ****             }
1122:Generated_Source\PSoC5/USB_std.c ****         }
1123:Generated_Source\PSoC5/USB_std.c ****         requestHandled = USB_InitNoDataControlTransfer();
1124:Generated_Source\PSoC5/USB_std.c ****     }
1125:Generated_Source\PSoC5/USB_std.c **** 
1126:Generated_Source\PSoC5/USB_std.c ****     return(requestHandled);
1127:Generated_Source\PSoC5/USB_std.c **** }
 1335              		.loc 1 1127 0
 1336 0052 5DF8044B 		ldr	r4, [sp], #4
 1337              		.cfi_restore 4
ARM GAS  C:\Users\mgronber\AppData\Local\Temp\ccohOFIJ.s 			page 48


 1338              		.cfi_def_cfa_offset 0
1123:Generated_Source\PSoC5/USB_std.c ****     }
 1339              		.loc 1 1123 0
 1340 0056 FFF7FEBF 		b	USB_InitNoDataControlTransfer
 1341              	.LVL106:
 1342              	.L115:
 1343              		.loc 1 1127 0
 1344 005a 0020     		movs	r0, #0
 1345 005c 7047     		bx	lr
 1346              	.LVL107:
 1347              	.L121:
 1348              		.cfi_def_cfa_offset 4
 1349              		.cfi_offset 4, -4
1102:Generated_Source\PSoC5/USB_std.c ****             {       /* Wait for next packet from application */
 1350              		.loc 1 1102 0
 1351 005e 012B     		cmp	r3, #1
1104:Generated_Source\PSoC5/USB_std.c ****             }
 1352              		.loc 1 1104 0
 1353 0060 074B     		ldr	r3, .L122+12
 1354 0062 0CBF     		ite	eq
 1355 0064 0C22     		moveq	r2, #12
1108:Generated_Source\PSoC5/USB_std.c ****             }
 1356              		.loc 1 1108 0
 1357 0066 0D22     		movne	r2, #13
 1358 0068 CA54     		strb	r2, [r1, r3]
 1359              		.loc 1 1127 0
 1360 006a 5DF8044B 		ldr	r4, [sp], #4
 1361              		.cfi_restore 4
 1362              		.cfi_def_cfa_offset 0
1123:Generated_Source\PSoC5/USB_std.c ****     }
 1363              		.loc 1 1123 0
 1364 006e FFF7FEBF 		b	USB_InitNoDataControlTransfer
 1365              	.LVL108:
 1366              	.L123:
 1367 0072 00BF     		.align	2
 1368              	.L122:
 1369 0074 04600040 		.word	1073766404
 1370 0078 00000000 		.word	USB_EP
 1371 007c 0C600040 		.word	1073766412
 1372 0080 0E600040 		.word	1073766414
 1373              		.cfi_endproc
 1374              	.LFE10:
 1375              		.size	USB_ClearEndpointHalt, .-USB_ClearEndpointHalt
 1376              		.section	.text.USB_ValidateAlternateSetting,"ax",%progbits
 1377              		.align	2
 1378              		.global	USB_ValidateAlternateSetting
 1379              		.thumb
 1380              		.thumb_func
 1381              		.type	USB_ValidateAlternateSetting, %function
 1382              	USB_ValidateAlternateSetting:
 1383              	.LFB11:
1128:Generated_Source\PSoC5/USB_std.c **** 
1129:Generated_Source\PSoC5/USB_std.c **** 
1130:Generated_Source\PSoC5/USB_std.c **** /*******************************************************************************
1131:Generated_Source\PSoC5/USB_std.c **** * Function Name: USB_ValidateAlternateSetting
1132:Generated_Source\PSoC5/USB_std.c **** ********************************************************************************
1133:Generated_Source\PSoC5/USB_std.c **** *
ARM GAS  C:\Users\mgronber\AppData\Local\Temp\ccohOFIJ.s 			page 49


1134:Generated_Source\PSoC5/USB_std.c **** * Summary:
1135:Generated_Source\PSoC5/USB_std.c **** *  Validates (and records) a SET INTERFACE request.
1136:Generated_Source\PSoC5/USB_std.c **** *
1137:Generated_Source\PSoC5/USB_std.c **** * Parameters:
1138:Generated_Source\PSoC5/USB_std.c **** *  None.
1139:Generated_Source\PSoC5/USB_std.c **** *
1140:Generated_Source\PSoC5/USB_std.c **** * Return:
1141:Generated_Source\PSoC5/USB_std.c **** *  requestHandled.
1142:Generated_Source\PSoC5/USB_std.c **** *
1143:Generated_Source\PSoC5/USB_std.c **** * Reentrant:
1144:Generated_Source\PSoC5/USB_std.c **** *  No.
1145:Generated_Source\PSoC5/USB_std.c **** *
1146:Generated_Source\PSoC5/USB_std.c **** *******************************************************************************/
1147:Generated_Source\PSoC5/USB_std.c **** uint8 USB_ValidateAlternateSetting(void) 
1148:Generated_Source\PSoC5/USB_std.c **** {
 1384              		.loc 1 1148 0
 1385              		.cfi_startproc
 1386              		@ args = 0, pretend = 0, frame = 0
 1387              		@ frame_needed = 0, uses_anonymous_args = 0
 1388              		@ link register save eliminated.
 1389              	.LVL109:
1149:Generated_Source\PSoC5/USB_std.c ****     uint8 requestHandled = USB_TRUE;
1150:Generated_Source\PSoC5/USB_std.c ****     uint8 interfaceNum;
1151:Generated_Source\PSoC5/USB_std.c ****     const T_USB_LUT CYCODE *pTmp;
1152:Generated_Source\PSoC5/USB_std.c ****     uint8 currentInterfacesNum;
1153:Generated_Source\PSoC5/USB_std.c **** 
1154:Generated_Source\PSoC5/USB_std.c ****     interfaceNum = CY_GET_REG8(USB_wIndexLo);
 1390              		.loc 1 1154 0
 1391 0000 154A     		ldr	r2, .L133
1155:Generated_Source\PSoC5/USB_std.c ****     /* Validate interface setting, stall if invalid. */
1156:Generated_Source\PSoC5/USB_std.c ****     pTmp = USB_GetConfigTablePtr(USB_configuration - 1u);
 1392              		.loc 1 1156 0
 1393 0002 164B     		ldr	r3, .L133+4
 1394              	.LBB54:
 1395              	.LBB55:
 873:Generated_Source\PSoC5/USB_std.c **** 
 1396              		.loc 1 873 0
 1397 0004 1648     		ldr	r0, .L133+8
 1398              	.LBE55:
 1399              	.LBE54:
1154:Generated_Source\PSoC5/USB_std.c ****     /* Validate interface setting, stall if invalid. */
 1400              		.loc 1 1154 0
 1401 0006 1278     		ldrb	r2, [r2]	@ zero_extendqisi2
 1402              	.LBB61:
 1403              	.LBB56:
 873:Generated_Source\PSoC5/USB_std.c **** 
 1404              		.loc 1 873 0
 1405 0008 1649     		ldr	r1, .L133+12
 1406              	.LBE56:
 1407              	.LBE61:
 1408              		.loc 1 1156 0
 1409 000a 1B78     		ldrb	r3, [r3]	@ zero_extendqisi2
 1410              	.LBB62:
 1411              	.LBB57:
 873:Generated_Source\PSoC5/USB_std.c **** 
 1412              		.loc 1 873 0
 1413 000c 0078     		ldrb	r0, [r0]	@ zero_extendqisi2
ARM GAS  C:\Users\mgronber\AppData\Local\Temp\ccohOFIJ.s 			page 50


 1414              	.LBE57:
 1415              	.LBE62:
 1416              		.loc 1 1156 0
 1417 000e 013B     		subs	r3, r3, #1
 1418              	.LBB63:
 1419              	.LBB58:
 873:Generated_Source\PSoC5/USB_std.c **** 
 1420              		.loc 1 873 0
 1421 0010 01EBC001 		add	r1, r1, r0, lsl #3
 1422 0014 4968     		ldr	r1, [r1, #4]
 1423              	.LBE58:
 1424              	.LBE63:
 1425              		.loc 1 1156 0
 1426 0016 DBB2     		uxtb	r3, r3
 1427              	.LBB64:
 1428              	.LBB59:
 881:Generated_Source\PSoC5/USB_std.c ****     {
 1429              		.loc 1 881 0
 1430 0018 087A     		ldrb	r0, [r1, #8]	@ zero_extendqisi2
 1431              	.LBE59:
 1432              	.LBE64:
1154:Generated_Source\PSoC5/USB_std.c ****     /* Validate interface setting, stall if invalid. */
 1433              		.loc 1 1154 0
 1434 001a D2B2     		uxtb	r2, r2
 1435              	.LVL110:
 1436              	.LBB65:
 1437              	.LBB60:
 881:Generated_Source\PSoC5/USB_std.c ****     {
 1438              		.loc 1 881 0
 1439 001c 9842     		cmp	r0, r3
 1440 001e 0AD9     		bls	.L125
 1441              	.LVL111:
 887:Generated_Source\PSoC5/USB_std.c ****     }
 1442              		.loc 1 887 0
 1443 0020 01EBC303 		add	r3, r1, r3, lsl #3
 1444              	.LVL112:
 1445              	.LBE60:
 1446              	.LBE65:
1157:Generated_Source\PSoC5/USB_std.c ****     currentInterfacesNum  = ((const uint8 *) pTmp->p_list)[USB_CONFIG_DESCR_NUM_INTERFACES];
 1447              		.loc 1 1157 0
 1448 0024 DB68     		ldr	r3, [r3, #12]
 1449 0026 5B68     		ldr	r3, [r3, #4]
1158:Generated_Source\PSoC5/USB_std.c **** 
1159:Generated_Source\PSoC5/USB_std.c ****     if((interfaceNum >= currentInterfacesNum) || (interfaceNum >= USB_MAX_INTERFACES_NUMBER))
 1450              		.loc 1 1159 0
 1451 0028 1B79     		ldrb	r3, [r3, #4]	@ zero_extendqisi2
 1452 002a 9342     		cmp	r3, r2
 1453 002c 01D9     		bls	.L128
 1454              		.loc 1 1159 0 is_stmt 0 discriminator 1
 1455 002e 012A     		cmp	r2, #1
 1456 0030 04D9     		bls	.L132
 1457              	.L128:
1160:Generated_Source\PSoC5/USB_std.c ****     {   /* Wrong interface number */
1161:Generated_Source\PSoC5/USB_std.c ****         requestHandled = USB_FALSE;
 1458              		.loc 1 1161 0 is_stmt 1
 1459 0032 0020     		movs	r0, #0
 1460              	.LVL113:
ARM GAS  C:\Users\mgronber\AppData\Local\Temp\ccohOFIJ.s 			page 51


 1461 0034 7047     		bx	lr
 1462              	.LVL114:
 1463              	.L125:
1157:Generated_Source\PSoC5/USB_std.c **** 
 1464              		.loc 1 1157 0
 1465 0036 0023     		movs	r3, #0
 1466              	.LVL115:
 1467 0038 5B68     		ldr	r3, [r3, #4]
 1468 003a FFDE     		.inst	0xdeff
 1469              	.LVL116:
 1470              	.L132:
1148:Generated_Source\PSoC5/USB_std.c ****     uint8 requestHandled = USB_TRUE;
 1471              		.loc 1 1148 0
 1472 003c 10B4     		push	{r4}
 1473              		.cfi_def_cfa_offset 4
 1474              		.cfi_offset 4, -4
1162:Generated_Source\PSoC5/USB_std.c ****     }
1163:Generated_Source\PSoC5/USB_std.c ****     else
1164:Generated_Source\PSoC5/USB_std.c ****     {
1165:Generated_Source\PSoC5/USB_std.c ****         /* Save current Alt setting to find out the difference in Config() function */
1166:Generated_Source\PSoC5/USB_std.c ****         USB_interfaceSetting_last[interfaceNum] = USB_interfaceSetting[interfaceNum];
 1475              		.loc 1 1166 0
 1476 003e 0A49     		ldr	r1, .L133+16
 1477 0040 0A4C     		ldr	r4, .L133+20
 1478 0042 8B5C     		ldrb	r3, [r1, r2]	@ zero_extendqisi2
1167:Generated_Source\PSoC5/USB_std.c ****         USB_interfaceSetting[interfaceNum] = CY_GET_REG8(USB_wValueLo);
 1479              		.loc 1 1167 0
 1480 0044 0A48     		ldr	r0, .L133+24
1166:Generated_Source\PSoC5/USB_std.c ****         USB_interfaceSetting[interfaceNum] = CY_GET_REG8(USB_wValueLo);
 1481              		.loc 1 1166 0
 1482 0046 DBB2     		uxtb	r3, r3
 1483 0048 A354     		strb	r3, [r4, r2]
 1484              		.loc 1 1167 0
 1485 004a 0378     		ldrb	r3, [r0]	@ zero_extendqisi2
1149:Generated_Source\PSoC5/USB_std.c ****     uint8 interfaceNum;
 1486              		.loc 1 1149 0
 1487 004c 0120     		movs	r0, #1
 1488              		.loc 1 1167 0
 1489 004e DBB2     		uxtb	r3, r3
 1490 0050 8B54     		strb	r3, [r1, r2]
1168:Generated_Source\PSoC5/USB_std.c ****     }
1169:Generated_Source\PSoC5/USB_std.c **** 
1170:Generated_Source\PSoC5/USB_std.c ****     return (requestHandled);
1171:Generated_Source\PSoC5/USB_std.c **** }
 1491              		.loc 1 1171 0
 1492 0052 5DF8044B 		ldr	r4, [sp], #4
 1493              		.cfi_restore 4
 1494              		.cfi_def_cfa_offset 0
 1495 0056 7047     		bx	lr
 1496              	.L134:
 1497              		.align	2
 1498              	.L133:
 1499 0058 04600040 		.word	1073766404
 1500 005c 00000000 		.word	USB_configuration
 1501 0060 00000000 		.word	USB_device
 1502 0064 00000000 		.word	USB_TABLE
 1503 0068 00000000 		.word	USB_interfaceSetting
ARM GAS  C:\Users\mgronber\AppData\Local\Temp\ccohOFIJ.s 			page 52


 1504 006c 00000000 		.word	USB_interfaceSetting_last
 1505 0070 02600040 		.word	1073766402
 1506              		.cfi_endproc
 1507              	.LFE11:
 1508              		.size	USB_ValidateAlternateSetting, .-USB_ValidateAlternateSetting
 1509              		.section	.text.USB_HandleStandardRqst,"ax",%progbits
 1510              		.align	2
 1511              		.global	USB_HandleStandardRqst
 1512              		.thumb
 1513              		.thumb_func
 1514              		.type	USB_HandleStandardRqst, %function
 1515              	USB_HandleStandardRqst:
 1516              	.LFB0:
  89:Generated_Source\PSoC5/USB_std.c ****     uint8 requestHandled = USB_FALSE;
 1517              		.loc 1 89 0
 1518              		.cfi_startproc
 1519              		@ args = 0, pretend = 0, frame = 0
 1520              		@ frame_needed = 0, uses_anonymous_args = 0
 1521              	.LVL117:
 1522 0000 38B5     		push	{r3, r4, r5, lr}
 1523              		.cfi_def_cfa_offset 16
 1524              		.cfi_offset 3, -16
 1525              		.cfi_offset 4, -12
 1526              		.cfi_offset 5, -8
 1527              		.cfi_offset 14, -4
 102:Generated_Source\PSoC5/USB_std.c **** 
 1528              		.loc 1 102 0
 1529 0002 A24C     		ldr	r4, .L209
 1530 0004 0022     		movs	r2, #0
 104:Generated_Source\PSoC5/USB_std.c ****     {
 1531              		.loc 1 104 0
 1532 0006 A24B     		ldr	r3, .L209+4
 102:Generated_Source\PSoC5/USB_std.c **** 
 1533              		.loc 1 102 0
 1534 0008 2280     		strh	r2, [r4]	@ movhi
 104:Generated_Source\PSoC5/USB_std.c ****     {
 1535              		.loc 1 104 0
 1536 000a 1B78     		ldrb	r3, [r3]	@ zero_extendqisi2
 1537 000c 13F0800F 		tst	r3, #128
 107:Generated_Source\PSoC5/USB_std.c ****         {
 1538              		.loc 1 107 0
 1539 0010 A04B     		ldr	r3, .L209+8
 1540 0012 1B78     		ldrb	r3, [r3]	@ zero_extendqisi2
 104:Generated_Source\PSoC5/USB_std.c ****     {
 1541              		.loc 1 104 0
 1542 0014 11D1     		bne	.L202
 229:Generated_Source\PSoC5/USB_std.c ****         {
 1543              		.loc 1 229 0
 1544 0016 013B     		subs	r3, r3, #1
 1545 0018 0A2B     		cmp	r3, #10
 1546 001a 0CD8     		bhi	.L137
 1547 001c DFE803F0 		tbb	[pc, r3]
 1548              	.L155:
 1549 0020 42       		.byte	(.L154-.L155)/2
 1550 0021 0B       		.byte	(.L137-.L155)/2
 1551 0022 60       		.byte	(.L156-.L155)/2
 1552 0023 0B       		.byte	(.L137-.L155)/2
ARM GAS  C:\Users\mgronber\AppData\Local\Temp\ccohOFIJ.s 			page 53


 1553 0024 57       		.byte	(.L157-.L155)/2
 1554 0025 0B       		.byte	(.L137-.L155)/2
 1555 0026 0B       		.byte	(.L137-.L155)/2
 1556 0027 0B       		.byte	(.L137-.L155)/2
 1557 0028 75       		.byte	(.L158-.L155)/2
 1558 0029 0B       		.byte	(.L137-.L155)/2
 1559 002a 28       		.byte	(.L159-.L155)/2
 1560 002b 00       		.p2align 1
 1561              	.L166:
 321:Generated_Source\PSoC5/USB_std.c ****                         {
 1562              		.loc 1 321 0
 1563 002c 9A4B     		ldr	r3, .L209+12
 1564 002e 1A78     		ldrb	r2, [r3]	@ zero_extendqisi2
 1565 0030 012A     		cmp	r2, #1
 1566 0032 40F20481 		bls	.L203
 1567              	.LVL118:
 1568              	.L137:
 337:Generated_Source\PSoC5/USB_std.c **** 
 1569              		.loc 1 337 0
 1570 0036 0020     		movs	r0, #0
 1571 0038 38BD     		pop	{r3, r4, r5, pc}
 1572              	.LVL119:
 1573              	.L202:
 107:Generated_Source\PSoC5/USB_std.c ****         {
 1574              		.loc 1 107 0
 1575 003a 0A2B     		cmp	r3, #10
 1576 003c FBD8     		bhi	.L137
 1577 003e 01A2     		adr	r2, .L139
 1578 0040 52F823F0 		ldr	pc, [r2, r3, lsl #2]
 1579              		.p2align 2
 1580              	.L139:
 1581 0044 D5010000 		.word	.L138+1
 1582 0048 37000000 		.word	.L137+1
 1583 004c 37000000 		.word	.L137+1
 1584 0050 37000000 		.word	.L137+1
 1585 0054 37000000 		.word	.L137+1
 1586 0058 37000000 		.word	.L137+1
 1587 005c 69010000 		.word	.L140+1
 1588 0060 37000000 		.word	.L137+1
 1589 0064 0F020000 		.word	.L141+1
 1590 0068 37000000 		.word	.L137+1
 1591 006c 53010000 		.word	.L142+1
 1592              		.p2align 1
 1593              	.L159:
 255:Generated_Source\PSoC5/USB_std.c ****                 {
 1594              		.loc 1 255 0
 1595 0070 FFF7FEFF 		bl	USB_ValidateAlternateSetting
 1596              	.LVL120:
 1597 0074 0028     		cmp	r0, #0
 1598 0076 DED0     		beq	.L137
 257:Generated_Source\PSoC5/USB_std.c ****                     USB_interfaceNumber = interfaceNumber;
 1599              		.loc 1 257 0
 1600 0078 874B     		ldr	r3, .L209+12
 258:Generated_Source\PSoC5/USB_std.c ****                     USB_configurationChanged = USB_TRUE;
 1601              		.loc 1 258 0
 1602 007a 8848     		ldr	r0, .L209+16
 257:Generated_Source\PSoC5/USB_std.c ****                     USB_interfaceNumber = interfaceNumber;
ARM GAS  C:\Users\mgronber\AppData\Local\Temp\ccohOFIJ.s 			page 54


 1603              		.loc 1 257 0
 1604 007c 1C78     		ldrb	r4, [r3]	@ zero_extendqisi2
 259:Generated_Source\PSoC5/USB_std.c ****                     #if ((USB_EP_MA == USB__MA_DYNAMIC) && \
 1605              		.loc 1 259 0
 1606 007e 884A     		ldr	r2, .L209+20
 257:Generated_Source\PSoC5/USB_std.c ****                     USB_interfaceNumber = interfaceNumber;
 1607              		.loc 1 257 0
 1608 0080 E4B2     		uxtb	r4, r4
 1609              	.LVL121:
 259:Generated_Source\PSoC5/USB_std.c ****                     #if ((USB_EP_MA == USB__MA_DYNAMIC) && \
 1610              		.loc 1 259 0
 1611 0082 0121     		movs	r1, #1
 1612              	.LBB66:
 1613              	.LBB67:
 754:Generated_Source\PSoC5/USB_std.c ****     {
 1614              		.loc 1 754 0
 1615 0084 874B     		ldr	r3, .L209+24
 1616              	.LBE67:
 1617              	.LBE66:
 258:Generated_Source\PSoC5/USB_std.c ****                     USB_configurationChanged = USB_TRUE;
 1618              		.loc 1 258 0
 1619 0086 0470     		strb	r4, [r0]
 259:Generated_Source\PSoC5/USB_std.c ****                     #if ((USB_EP_MA == USB__MA_DYNAMIC) && \
 1620              		.loc 1 259 0
 1621 0088 1170     		strb	r1, [r2]
 1622              	.LBB70:
 1623              	.LBB68:
 754:Generated_Source\PSoC5/USB_std.c ****     {
 1624              		.loc 1 754 0
 1625 008a 1B78     		ldrb	r3, [r3]	@ zero_extendqisi2
 1626 008c 002B     		cmp	r3, #0
 1627 008e 40F0C680 		bne	.L204
 1628              	.L162:
 1629              	.LBE68:
 1630              	.LBE70:
 268:Generated_Source\PSoC5/USB_std.c ****                     requestHandled = USB_InitNoDataControlTransfer();
 1631              		.loc 1 268 0
 1632 0092 854B     		ldr	r3, .L209+28
 267:Generated_Source\PSoC5/USB_std.c ****                          USB_interfaceSetting[interfaceNumber];
 1633              		.loc 1 267 0
 1634 0094 854A     		ldr	r2, .L209+32
 268:Generated_Source\PSoC5/USB_std.c ****                     requestHandled = USB_InitNoDataControlTransfer();
 1635              		.loc 1 268 0
 1636 0096 1B5D     		ldrb	r3, [r3, r4]	@ zero_extendqisi2
 1637 0098 DBB2     		uxtb	r3, r3
 267:Generated_Source\PSoC5/USB_std.c ****                          USB_interfaceSetting[interfaceNumber];
 1638              		.loc 1 267 0
 1639 009a 1355     		strb	r3, [r2, r4]
 337:Generated_Source\PSoC5/USB_std.c **** 
 1640              		.loc 1 337 0
 1641 009c BDE83840 		pop	{r3, r4, r5, lr}
 1642              		.cfi_remember_state
 1643              		.cfi_restore 14
 1644              		.cfi_restore 5
 1645              		.cfi_restore 4
 1646              		.cfi_restore 3
 1647              		.cfi_def_cfa_offset 0
ARM GAS  C:\Users\mgronber\AppData\Local\Temp\ccohOFIJ.s 			page 55


 1648              	.LVL122:
 269:Generated_Source\PSoC5/USB_std.c ****                 }
 1649              		.loc 1 269 0
 1650 00a0 FFF7FEBF 		b	USB_InitNoDataControlTransfer
 1651              	.LVL123:
 1652              	.L154:
 1653              		.cfi_restore_state
 273:Generated_Source\PSoC5/USB_std.c ****                 {
 1654              		.loc 1 273 0
 1655 00a4 7A4B     		ldr	r3, .L209+4
 1656 00a6 1B78     		ldrb	r3, [r3]	@ zero_extendqisi2
 1657 00a8 03F00303 		and	r3, r3, #3
 1658 00ac 012B     		cmp	r3, #1
 1659 00ae BDD0     		beq	.L166
 1660 00b0 C0F01681 		bcc	.L164
 1661 00b4 022B     		cmp	r3, #2
 1662 00b6 BED1     		bne	.L137
 276:Generated_Source\PSoC5/USB_std.c ****                         {
 1663              		.loc 1 276 0
 1664 00b8 03F18043 		add	r3, r3, #1073741824
 1665 00bc 03F5C043 		add	r3, r3, #24576
 1666 00c0 1B78     		ldrb	r3, [r3]	@ zero_extendqisi2
 1667 00c2 002B     		cmp	r3, #0
 1668 00c4 B7D1     		bne	.L137
 337:Generated_Source\PSoC5/USB_std.c **** 
 1669              		.loc 1 337 0
 1670 00c6 BDE83840 		pop	{r3, r4, r5, lr}
 1671              		.cfi_remember_state
 1672              		.cfi_restore 14
 1673              		.cfi_restore 5
 1674              		.cfi_restore 4
 1675              		.cfi_restore 3
 1676              		.cfi_def_cfa_offset 0
 278:Generated_Source\PSoC5/USB_std.c ****                         }
 1677              		.loc 1 278 0
 1678 00ca FFF7FEBF 		b	USB_ClearEndpointHalt
 1679              	.LVL124:
 1680              	.L157:
 1681              		.cfi_restore_state
 232:Generated_Source\PSoC5/USB_std.c ****                 requestHandled = USB_InitNoDataControlTransfer();
 1682              		.loc 1 232 0
 1683 00ce 784B     		ldr	r3, .L209+36
 1684 00d0 784A     		ldr	r2, .L209+40
 1685 00d2 1B78     		ldrb	r3, [r3]	@ zero_extendqisi2
 1686 00d4 DBB2     		uxtb	r3, r3
 1687 00d6 1370     		strb	r3, [r2]
 337:Generated_Source\PSoC5/USB_std.c **** 
 1688              		.loc 1 337 0
 1689 00d8 BDE83840 		pop	{r3, r4, r5, lr}
 1690              		.cfi_remember_state
 1691              		.cfi_restore 14
 1692              		.cfi_restore 5
 1693              		.cfi_restore 4
 1694              		.cfi_restore 3
 1695              		.cfi_def_cfa_offset 0
 233:Generated_Source\PSoC5/USB_std.c ****                 break;
 1696              		.loc 1 233 0
ARM GAS  C:\Users\mgronber\AppData\Local\Temp\ccohOFIJ.s 			page 56


 1697 00dc FFF7FEBF 		b	USB_InitNoDataControlTransfer
 1698              	.LVL125:
 1699              	.L156:
 1700              		.cfi_restore_state
 303:Generated_Source\PSoC5/USB_std.c ****                 {
 1701              		.loc 1 303 0
 1702 00e0 6B4B     		ldr	r3, .L209+4
 1703 00e2 1B78     		ldrb	r3, [r3]	@ zero_extendqisi2
 1704 00e4 03F00303 		and	r3, r3, #3
 1705 00e8 012B     		cmp	r3, #1
 1706 00ea 9FD0     		beq	.L166
 1707 00ec C0F0BF80 		bcc	.L167
 1708 00f0 022B     		cmp	r3, #2
 1709 00f2 A0D1     		bne	.L137
 306:Generated_Source\PSoC5/USB_std.c ****                         {
 1710              		.loc 1 306 0
 1711 00f4 03F18043 		add	r3, r3, #1073741824
 1712 00f8 03F5C043 		add	r3, r3, #24576
 1713 00fc 1B78     		ldrb	r3, [r3]	@ zero_extendqisi2
 1714 00fe 002B     		cmp	r3, #0
 1715 0100 99D1     		bne	.L137
 337:Generated_Source\PSoC5/USB_std.c **** 
 1716              		.loc 1 337 0
 1717 0102 BDE83840 		pop	{r3, r4, r5, lr}
 1718              		.cfi_remember_state
 1719              		.cfi_restore 14
 1720              		.cfi_restore 5
 1721              		.cfi_restore 4
 1722              		.cfi_restore 3
 1723              		.cfi_def_cfa_offset 0
 308:Generated_Source\PSoC5/USB_std.c ****                         }
 1724              		.loc 1 308 0
 1725 0106 FFF7FEBF 		b	USB_SetEndpointHalt
 1726              	.LVL126:
 1727              	.L158:
 1728              		.cfi_restore_state
 236:Generated_Source\PSoC5/USB_std.c ****                 if(configurationN > 0)
 1729              		.loc 1 236 0
 1730 010a 694B     		ldr	r3, .L209+36
 1731 010c 1B78     		ldrb	r3, [r3]	@ zero_extendqisi2
 1732              	.LVL127:
 237:Generated_Source\PSoC5/USB_std.c ****                 {   /* Verify that configuration descriptor exists */
 1733              		.loc 1 237 0
 1734 010e 03F0FF02 		and	r2, r3, #255
 1735 0112 7BB1     		cbz	r3, .L160
 1736              	.LBB71:
 1737              	.LBB72:
 873:Generated_Source\PSoC5/USB_std.c **** 
 1738              		.loc 1 873 0
 1739 0114 684B     		ldr	r3, .L209+44
 1740              	.LVL128:
 1741 0116 6949     		ldr	r1, .L209+48
 1742 0118 1878     		ldrb	r0, [r3]	@ zero_extendqisi2
 1743              	.LBE72:
 1744              	.LBE71:
 239:Generated_Source\PSoC5/USB_std.c ****                 }
 1745              		.loc 1 239 0
ARM GAS  C:\Users\mgronber\AppData\Local\Temp\ccohOFIJ.s 			page 57


 1746 011a 531E     		subs	r3, r2, #1
 1747              	.LBB75:
 1748              	.LBB73:
 873:Generated_Source\PSoC5/USB_std.c **** 
 1749              		.loc 1 873 0
 1750 011c 01EBC001 		add	r1, r1, r0, lsl #3
 1751 0120 4968     		ldr	r1, [r1, #4]
 1752              	.LBE73:
 1753              	.LBE75:
 239:Generated_Source\PSoC5/USB_std.c ****                 }
 1754              		.loc 1 239 0
 1755 0122 DBB2     		uxtb	r3, r3
 1756              	.LVL129:
 1757              	.LBB76:
 1758              	.LBB74:
 881:Generated_Source\PSoC5/USB_std.c ****     {
 1759              		.loc 1 881 0
 1760 0124 087A     		ldrb	r0, [r1, #8]	@ zero_extendqisi2
 1761 0126 9842     		cmp	r0, r3
 1762 0128 85D9     		bls	.L137
 1763              	.LVL130:
 887:Generated_Source\PSoC5/USB_std.c ****     }
 1764              		.loc 1 887 0
 1765 012a 01EBC303 		add	r3, r1, r3, lsl #3
 1766              	.LVL131:
 1767              	.LBE74:
 1768              	.LBE76:
 242:Generated_Source\PSoC5/USB_std.c ****                 {
 1769              		.loc 1 242 0
 1770 012e DB68     		ldr	r3, [r3, #12]
 1771 0130 002B     		cmp	r3, #0
 1772 0132 80D0     		beq	.L137
 1773              	.LVL132:
 1774              	.L160:
 245:Generated_Source\PSoC5/USB_std.c ****                     {
 1775              		.loc 1 245 0
 1776 0134 5B4B     		ldr	r3, .L209+24
 1777 0136 1978     		ldrb	r1, [r3]	@ zero_extendqisi2
 1778 0138 8A42     		cmp	r2, r1
 1779 013a 06D0     		beq	.L199
 248:Generated_Source\PSoC5/USB_std.c ****                         USB_Config(USB_TRUE);
 1780              		.loc 1 248 0
 1781 013c 0121     		movs	r1, #1
 1782 013e 584C     		ldr	r4, .L209+20
 249:Generated_Source\PSoC5/USB_std.c ****                     }
 1783              		.loc 1 249 0
 1784 0140 0846     		mov	r0, r1
 247:Generated_Source\PSoC5/USB_std.c ****                         USB_configurationChanged = USB_TRUE;
 1785              		.loc 1 247 0
 1786 0142 1A70     		strb	r2, [r3]
 248:Generated_Source\PSoC5/USB_std.c ****                         USB_Config(USB_TRUE);
 1787              		.loc 1 248 0
 1788 0144 2170     		strb	r1, [r4]
 249:Generated_Source\PSoC5/USB_std.c ****                     }
 1789              		.loc 1 249 0
 1790 0146 FFF7FEFF 		bl	USB_Config
 1791              	.LVL133:
ARM GAS  C:\Users\mgronber\AppData\Local\Temp\ccohOFIJ.s 			page 58


 1792              	.L199:
 337:Generated_Source\PSoC5/USB_std.c **** 
 1793              		.loc 1 337 0
 1794 014a BDE83840 		pop	{r3, r4, r5, lr}
 1795              		.cfi_remember_state
 1796              		.cfi_restore 14
 1797              		.cfi_restore 5
 1798              		.cfi_restore 4
 1799              		.cfi_restore 3
 1800              		.cfi_def_cfa_offset 0
 325:Generated_Source\PSoC5/USB_std.c ****                         }
 1801              		.loc 1 325 0
 1802 014e FFF7FEBF 		b	USB_InitNoDataControlTransfer
 1803              	.LVL134:
 1804              	.L142:
 1805              		.cfi_restore_state
 218:Generated_Source\PSoC5/USB_std.c ****                 USB_currentTD.pData = (volatile uint8 *)&USB_interfaceSetting[ \
 1806              		.loc 1 218 0
 1807 0152 0122     		movs	r2, #1
 220:Generated_Source\PSoC5/USB_std.c ****                 requestHandled  = USB_InitControlRead();
 1808              		.loc 1 220 0
 1809 0154 504B     		ldr	r3, .L209+12
 218:Generated_Source\PSoC5/USB_std.c ****                 USB_currentTD.pData = (volatile uint8 *)&USB_interfaceSetting[ \
 1810              		.loc 1 218 0
 1811 0156 2280     		strh	r2, [r4]	@ movhi
 220:Generated_Source\PSoC5/USB_std.c ****                 requestHandled  = USB_InitControlRead();
 1812              		.loc 1 220 0
 1813 0158 1B78     		ldrb	r3, [r3]	@ zero_extendqisi2
 219:Generated_Source\PSoC5/USB_std.c ****                                                                             CY_GET_REG8(USB_wIndexL
 1814              		.loc 1 219 0
 1815 015a 534A     		ldr	r2, .L209+28
 1816 015c 1344     		add	r3, r3, r2
 1817 015e 6360     		str	r3, [r4, #4]
 337:Generated_Source\PSoC5/USB_std.c **** 
 1818              		.loc 1 337 0
 1819 0160 BDE83840 		pop	{r3, r4, r5, lr}
 1820              		.cfi_remember_state
 1821              		.cfi_restore 14
 1822              		.cfi_restore 5
 1823              		.cfi_restore 4
 1824              		.cfi_restore 3
 1825              		.cfi_def_cfa_offset 0
 221:Generated_Source\PSoC5/USB_std.c ****                 break;
 1826              		.loc 1 221 0
 1827 0164 FFF7FEBF 		b	USB_InitControlRead
 1828              	.LVL135:
 1829              	.L140:
 1830              		.cfi_restore_state
 110:Generated_Source\PSoC5/USB_std.c ****                 {
 1831              		.loc 1 110 0
 1832 0168 554B     		ldr	r3, .L209+52
 1833 016a 1A78     		ldrb	r2, [r3]	@ zero_extendqisi2
 1834 016c 012A     		cmp	r2, #1
 1835 016e 70D0     		beq	.L205
 117:Generated_Source\PSoC5/USB_std.c ****                 {
 1836              		.loc 1 117 0
 1837 0170 1A78     		ldrb	r2, [r3]	@ zero_extendqisi2
ARM GAS  C:\Users\mgronber\AppData\Local\Temp\ccohOFIJ.s 			page 59


 1838 0172 022A     		cmp	r2, #2
 1839 0174 00F0C680 		beq	.L206
 130:Generated_Source\PSoC5/USB_std.c ****                 {
 1840              		.loc 1 130 0
 1841 0178 1B78     		ldrb	r3, [r3]	@ zero_extendqisi2
 1842 017a 032B     		cmp	r3, #3
 1843 017c 40F0BE80 		bne	.L147
 1844              	.LVL136:
 136:Generated_Source\PSoC5/USB_std.c ****                         {
 1845              		.loc 1 136 0
 1846 0180 4B4D     		ldr	r5, .L209+36
 1847 0182 504A     		ldr	r2, .L209+56
 1848 0184 2B78     		ldrb	r3, [r5]	@ zero_extendqisi2
 1849 0186 63B1     		cbz	r3, .L148
 1850 0188 1378     		ldrb	r3, [r2]	@ zero_extendqisi2
 1851 018a 53B1     		cbz	r3, .L148
 1852 018c 0023     		movs	r3, #0
 1853 018e 01E0     		b	.L149
 1854              	.LVL137:
 1855              	.L207:
 136:Generated_Source\PSoC5/USB_std.c ****                         {
 1856              		.loc 1 136 0 is_stmt 0 discriminator 1
 1857 0190 1178     		ldrb	r1, [r2]	@ zero_extendqisi2
 1858 0192 31B1     		cbz	r1, .L148
 1859              	.LVL138:
 1860              	.L149:
 139:Generated_Source\PSoC5/USB_std.c ****                             /* Move to next string descriptor */
 1861              		.loc 1 139 0 is_stmt 1
 1862 0194 1078     		ldrb	r0, [r2]	@ zero_extendqisi2
 1863              	.LVL139:
 142:Generated_Source\PSoC5/USB_std.c ****                         }
 1864              		.loc 1 142 0
 1865 0196 0133     		adds	r3, r3, #1
 1866              	.LVL140:
 136:Generated_Source\PSoC5/USB_std.c ****                         {
 1867              		.loc 1 136 0
 1868 0198 2978     		ldrb	r1, [r5]	@ zero_extendqisi2
 142:Generated_Source\PSoC5/USB_std.c ****                         }
 1869              		.loc 1 142 0
 1870 019a DBB2     		uxtb	r3, r3
 136:Generated_Source\PSoC5/USB_std.c ****                         {
 1871              		.loc 1 136 0
 1872 019c 9942     		cmp	r1, r3
 141:Generated_Source\PSoC5/USB_std.c ****                             nStr++;
 1873              		.loc 1 141 0
 1874 019e 0244     		add	r2, r2, r0
 1875              	.LVL141:
 136:Generated_Source\PSoC5/USB_std.c ****                         {
 1876              		.loc 1 136 0
 1877 01a0 F6D8     		bhi	.L207
 1878              	.LVL142:
 1879              	.L148:
 147:Generated_Source\PSoC5/USB_std.c ****                         {
 1880              		.loc 1 147 0
 1881 01a2 434B     		ldr	r3, .L209+36
 149:Generated_Source\PSoC5/USB_std.c ****                         }
 1882              		.loc 1 149 0
ARM GAS  C:\Users\mgronber\AppData\Local\Temp\ccohOFIJ.s 			page 60


 1883 01a4 4848     		ldr	r0, .L209+60
 147:Generated_Source\PSoC5/USB_std.c ****                         {
 1884              		.loc 1 147 0
 1885 01a6 1D78     		ldrb	r5, [r3]	@ zero_extendqisi2
 154:Generated_Source\PSoC5/USB_std.c ****                             (CY_GET_REG8(USB_wValueLo) ==
 1886              		.loc 1 154 0
 1887 01a8 1978     		ldrb	r1, [r3]	@ zero_extendqisi2
 149:Generated_Source\PSoC5/USB_std.c ****                         }
 1888              		.loc 1 149 0
 1889 01aa EE2D     		cmp	r5, #238
 1890 01ac 08BF     		it	eq
 1891 01ae 0246     		moveq	r2, r0
 1892              	.LVL143:
 154:Generated_Source\PSoC5/USB_std.c ****                             (CY_GET_REG8(USB_wValueLo) ==
 1893              		.loc 1 154 0
 1894 01b0 29B1     		cbz	r1, .L151
 156:Generated_Source\PSoC5/USB_std.c ****                         {
 1895              		.loc 1 156 0 discriminator 1
 1896 01b2 4649     		ldr	r1, .L209+64
 155:Generated_Source\PSoC5/USB_std.c ****                             USB_DEVICE0_DESCR[USB_DEVICE_DESCR_SN_SHIFT]) )
 1897              		.loc 1 155 0 discriminator 1
 1898 01b4 1B78     		ldrb	r3, [r3]	@ zero_extendqisi2
 154:Generated_Source\PSoC5/USB_std.c ****                             (CY_GET_REG8(USB_wValueLo) ==
 1899              		.loc 1 154 0 discriminator 1
 1900 01b6 097C     		ldrb	r1, [r1, #16]	@ zero_extendqisi2
 1901 01b8 9942     		cmp	r1, r3
 1902 01ba 00F0C380 		beq	.L208
 1903              	.LVL144:
 1904              	.L151:
 177:Generated_Source\PSoC5/USB_std.c ****                     {
 1905              		.loc 1 177 0
 1906 01be 1378     		ldrb	r3, [r2]	@ zero_extendqisi2
 1907 01c0 002B     		cmp	r3, #0
 1908 01c2 3FF438AF 		beq	.L137
 179:Generated_Source\PSoC5/USB_std.c ****                         USB_currentTD.pData = pStr;
 1909              		.loc 1 179 0
 1910 01c6 1378     		ldrb	r3, [r2]	@ zero_extendqisi2
 1911 01c8 2380     		strh	r3, [r4]	@ movhi
 180:Generated_Source\PSoC5/USB_std.c ****                         requestHandled  = USB_InitControlRead();
 1912              		.loc 1 180 0
 1913 01ca 6260     		str	r2, [r4, #4]
 337:Generated_Source\PSoC5/USB_std.c **** 
 1914              		.loc 1 337 0
 1915 01cc BDE83840 		pop	{r3, r4, r5, lr}
 1916              		.cfi_remember_state
 1917              		.cfi_restore 14
 1918              		.cfi_restore 5
 1919              		.cfi_restore 4
 1920              		.cfi_restore 3
 1921              		.cfi_def_cfa_offset 0
 181:Generated_Source\PSoC5/USB_std.c ****                     }
 1922              		.loc 1 181 0
 1923 01d0 FFF7FEBF 		b	USB_InitControlRead
 1924              	.LVL145:
 1925              	.L138:
 1926              		.cfi_restore_state
 191:Generated_Source\PSoC5/USB_std.c ****                 {
ARM GAS  C:\Users\mgronber\AppData\Local\Temp\ccohOFIJ.s 			page 61


 1927              		.loc 1 191 0
 1928 01d4 2E4B     		ldr	r3, .L209+4
 1929 01d6 1B78     		ldrb	r3, [r3]	@ zero_extendqisi2
 1930 01d8 13F00303 		ands	r3, r3, #3
 1931 01dc 22D0     		beq	.L152
 1932 01de 022B     		cmp	r3, #2
 1933 01e0 7FF429AF 		bne	.L137
 196:Generated_Source\PSoC5/USB_std.c ****                         USB_tBuffer[1u] = 0u;
 1934              		.loc 1 196 0
 1935 01e4 2C4A     		ldr	r2, .L209+12
 194:Generated_Source\PSoC5/USB_std.c ****                         USB_tBuffer[0u] = USB_EP[ \
 1936              		.loc 1 194 0
 1937 01e6 2380     		strh	r3, [r4]	@ movhi
 196:Generated_Source\PSoC5/USB_std.c ****                         USB_tBuffer[1u] = 0u;
 1938              		.loc 1 196 0
 1939 01e8 1378     		ldrb	r3, [r2]	@ zero_extendqisi2
 1940 01ea 394A     		ldr	r2, .L209+68
 1941 01ec 03F07F03 		and	r3, r3, #127
 1942 01f0 03EB4303 		add	r3, r3, r3, lsl #1
 1943 01f4 02EB8303 		add	r3, r2, r3, lsl #2
 1944 01f8 9A78     		ldrb	r2, [r3, #2]	@ zero_extendqisi2
 195:Generated_Source\PSoC5/USB_std.c ****                                         CY_GET_REG8(USB_wIndexLo) & USB_DIR_UNUSED].hwEpState;
 1945              		.loc 1 195 0
 1946 01fa 364B     		ldr	r3, .L209+72
 196:Generated_Source\PSoC5/USB_std.c ****                         USB_tBuffer[1u] = 0u;
 1947              		.loc 1 196 0
 1948 01fc D2B2     		uxtb	r2, r2
 197:Generated_Source\PSoC5/USB_std.c ****                         USB_currentTD.pData = &USB_tBuffer[0u];
 1949              		.loc 1 197 0
 1950 01fe 0021     		movs	r1, #0
 195:Generated_Source\PSoC5/USB_std.c ****                                         CY_GET_REG8(USB_wIndexLo) & USB_DIR_UNUSED].hwEpState;
 1951              		.loc 1 195 0
 1952 0200 1A70     		strb	r2, [r3]
 197:Generated_Source\PSoC5/USB_std.c ****                         USB_currentTD.pData = &USB_tBuffer[0u];
 1953              		.loc 1 197 0
 1954 0202 5970     		strb	r1, [r3, #1]
 198:Generated_Source\PSoC5/USB_std.c ****                         requestHandled  = USB_InitControlRead();
 1955              		.loc 1 198 0
 1956 0204 6360     		str	r3, [r4, #4]
 337:Generated_Source\PSoC5/USB_std.c **** 
 1957              		.loc 1 337 0
 1958 0206 BDE83840 		pop	{r3, r4, r5, lr}
 1959              		.cfi_remember_state
 1960              		.cfi_restore 14
 1961              		.cfi_restore 5
 1962              		.cfi_restore 4
 1963              		.cfi_restore 3
 1964              		.cfi_def_cfa_offset 0
 199:Generated_Source\PSoC5/USB_std.c ****                         break;
 1965              		.loc 1 199 0
 1966 020a FFF7FEBF 		b	USB_InitControlRead
 1967              	.LVL146:
 1968              	.L141:
 1969              		.cfi_restore_state
 214:Generated_Source\PSoC5/USB_std.c ****                 requestHandled  = USB_InitControlRead();
 1970              		.loc 1 214 0
 1971 020e 254B     		ldr	r3, .L209+24
ARM GAS  C:\Users\mgronber\AppData\Local\Temp\ccohOFIJ.s 			page 62


 213:Generated_Source\PSoC5/USB_std.c ****                 USB_currentTD.pData = (volatile uint8 *)&USB_configuration;
 1972              		.loc 1 213 0
 1973 0210 0122     		movs	r2, #1
 1974 0212 2280     		strh	r2, [r4]	@ movhi
 214:Generated_Source\PSoC5/USB_std.c ****                 requestHandled  = USB_InitControlRead();
 1975              		.loc 1 214 0
 1976 0214 6360     		str	r3, [r4, #4]
 337:Generated_Source\PSoC5/USB_std.c **** 
 1977              		.loc 1 337 0
 1978 0216 BDE83840 		pop	{r3, r4, r5, lr}
 1979              		.cfi_remember_state
 1980              		.cfi_restore 14
 1981              		.cfi_restore 5
 1982              		.cfi_restore 4
 1983              		.cfi_restore 3
 1984              		.cfi_def_cfa_offset 0
 215:Generated_Source\PSoC5/USB_std.c ****                 break;
 1985              		.loc 1 215 0
 1986 021a FFF7FEBF 		b	USB_InitControlRead
 1987              	.LVL147:
 1988              	.L204:
 1989              		.cfi_restore_state
 1990              	.LBB77:
 1991              	.LBB69:
 1992 021e FFF7FEFF 		bl	USB_ConfigAltChanged.part.0
 1993              	.LVL148:
 1994 0222 36E7     		b	.L162
 1995              	.LVL149:
 1996              	.L152:
 1997              	.LBE69:
 1998              	.LBE77:
 202:Generated_Source\PSoC5/USB_std.c ****                         USB_tBuffer[0u] = USB_deviceStatus;
 1999              		.loc 1 202 0
 2000 0224 0221     		movs	r1, #2
 203:Generated_Source\PSoC5/USB_std.c ****                         USB_tBuffer[1u] = 0u;
 2001              		.loc 1 203 0
 2002 0226 2C4A     		ldr	r2, .L209+76
 202:Generated_Source\PSoC5/USB_std.c ****                         USB_tBuffer[0u] = USB_deviceStatus;
 2003              		.loc 1 202 0
 2004 0228 2180     		strh	r1, [r4]	@ movhi
 203:Generated_Source\PSoC5/USB_std.c ****                         USB_tBuffer[1u] = 0u;
 2005              		.loc 1 203 0
 2006 022a 1178     		ldrb	r1, [r2]	@ zero_extendqisi2
 2007 022c 294A     		ldr	r2, .L209+72
 2008 022e C9B2     		uxtb	r1, r1
 2009 0230 1170     		strb	r1, [r2]
 204:Generated_Source\PSoC5/USB_std.c ****                         USB_currentTD.pData = &USB_tBuffer[0u];
 2010              		.loc 1 204 0
 2011 0232 5370     		strb	r3, [r2, #1]
 205:Generated_Source\PSoC5/USB_std.c ****                         requestHandled  = USB_InitControlRead();
 2012              		.loc 1 205 0
 2013 0234 6260     		str	r2, [r4, #4]
 337:Generated_Source\PSoC5/USB_std.c **** 
 2014              		.loc 1 337 0
 2015 0236 BDE83840 		pop	{r3, r4, r5, lr}
 2016              		.cfi_remember_state
 2017              		.cfi_restore 14
ARM GAS  C:\Users\mgronber\AppData\Local\Temp\ccohOFIJ.s 			page 63


 2018              		.cfi_restore 5
 2019              		.cfi_restore 4
 2020              		.cfi_restore 3
 2021              		.cfi_def_cfa_offset 0
 206:Generated_Source\PSoC5/USB_std.c ****                         break;
 2022              		.loc 1 206 0
 2023 023a FFF7FEBF 		b	USB_InitControlRead
 2024              	.LVL150:
 2025              	.L203:
 2026              		.cfi_restore_state
 324:Generated_Source\PSoC5/USB_std.c ****                             requestHandled = USB_InitNoDataControlTransfer();
 2027              		.loc 1 324 0
 2028 023e 1C4A     		ldr	r2, .L209+36
 323:Generated_Source\PSoC5/USB_std.c ****                                                                 (uint8)~(CY_GET_REG8(USB_wValueLo))
 2029              		.loc 1 323 0
 2030 0240 2649     		ldr	r1, .L209+80
 324:Generated_Source\PSoC5/USB_std.c ****                             requestHandled = USB_InitNoDataControlTransfer();
 2031              		.loc 1 324 0
 2032 0242 1078     		ldrb	r0, [r2]	@ zero_extendqisi2
 323:Generated_Source\PSoC5/USB_std.c ****                                                                 (uint8)~(CY_GET_REG8(USB_wValueLo))
 2033              		.loc 1 323 0
 2034 0244 1B78     		ldrb	r3, [r3]	@ zero_extendqisi2
 2035 0246 DBB2     		uxtb	r3, r3
 2036 0248 CA5C     		ldrb	r2, [r1, r3]	@ zero_extendqisi2
 2037 024a 22EA0002 		bic	r2, r2, r0
 2038 024e CA54     		strb	r2, [r1, r3]
 2039 0250 7BE7     		b	.L199
 2040              	.L205:
 2041              	.LBB78:
 2042              	.LBB79:
 912:Generated_Source\PSoC5/USB_std.c **** }
 2043              		.loc 1 912 0
 2044 0252 194A     		ldr	r2, .L209+44
 2045 0254 194B     		ldr	r3, .L209+48
 2046 0256 1178     		ldrb	r1, [r2]	@ zero_extendqisi2
 2047              	.LBE79:
 2048              	.LBE78:
 114:Generated_Source\PSoC5/USB_std.c ****                     requestHandled  = USB_InitControlRead();
 2049              		.loc 1 114 0
 2050 0258 1222     		movs	r2, #18
 113:Generated_Source\PSoC5/USB_std.c ****                     USB_currentTD.count = USB_DEVICE_DESCR_LENGTH;
 2051              		.loc 1 113 0
 2052 025a 03EBC103 		add	r3, r3, r1, lsl #3
 2053 025e 5B68     		ldr	r3, [r3, #4]
 2054 0260 5B68     		ldr	r3, [r3, #4]
 2055 0262 6360     		str	r3, [r4, #4]
 114:Generated_Source\PSoC5/USB_std.c ****                     requestHandled  = USB_InitControlRead();
 2056              		.loc 1 114 0
 2057 0264 2280     		strh	r2, [r4]	@ movhi
 337:Generated_Source\PSoC5/USB_std.c **** 
 2058              		.loc 1 337 0
 2059 0266 BDE83840 		pop	{r3, r4, r5, lr}
 2060              		.cfi_remember_state
 2061              		.cfi_restore 14
 2062              		.cfi_restore 5
 2063              		.cfi_restore 4
 2064              		.cfi_restore 3
ARM GAS  C:\Users\mgronber\AppData\Local\Temp\ccohOFIJ.s 			page 64


 2065              		.cfi_def_cfa_offset 0
 115:Generated_Source\PSoC5/USB_std.c ****                 }
 2066              		.loc 1 115 0
 2067 026a FFF7FEBF 		b	USB_InitControlRead
 2068              	.LVL151:
 2069              	.L167:
 2070              		.cfi_restore_state
 313:Generated_Source\PSoC5/USB_std.c ****                         {
 2071              		.loc 1 313 0
 2072 026e 104B     		ldr	r3, .L209+36
 2073 0270 1B78     		ldrb	r3, [r3]	@ zero_extendqisi2
 2074 0272 012B     		cmp	r3, #1
 2075 0274 7FF4DFAE 		bne	.L137
 315:Generated_Source\PSoC5/USB_std.c ****                             requestHandled = USB_InitNoDataControlTransfer();
 2076              		.loc 1 315 0
 2077 0278 174A     		ldr	r2, .L209+76
 2078 027a 1378     		ldrb	r3, [r2]	@ zero_extendqisi2
 2079 027c 43F00203 		orr	r3, r3, #2
 2080 0280 1370     		strb	r3, [r2]
 337:Generated_Source\PSoC5/USB_std.c **** 
 2081              		.loc 1 337 0
 2082 0282 BDE83840 		pop	{r3, r4, r5, lr}
 2083              		.cfi_remember_state
 2084              		.cfi_restore 14
 2085              		.cfi_restore 5
 2086              		.cfi_restore 4
 2087              		.cfi_restore 3
 2088              		.cfi_def_cfa_offset 0
 316:Generated_Source\PSoC5/USB_std.c ****                         }
 2089              		.loc 1 316 0
 2090 0286 FFF7FEBF 		b	USB_InitNoDataControlTransfer
 2091              	.LVL152:
 2092              	.L210:
 2093 028a 00BF     		.align	2
 2094              	.L209:
 2095 028c 00000000 		.word	USB_currentTD
 2096 0290 00600040 		.word	1073766400
 2097 0294 01600040 		.word	1073766401
 2098 0298 04600040 		.word	1073766404
 2099 029c 00000000 		.word	USB_interfaceNumber
 2100 02a0 00000000 		.word	USB_configurationChanged
 2101 02a4 00000000 		.word	USB_configuration
 2102 02a8 00000000 		.word	USB_interfaceSetting
 2103 02ac 00000000 		.word	USB_interfaceSetting_last
 2104 02b0 02600040 		.word	1073766402
 2105 02b4 00000000 		.word	USB_deviceAddress
 2106 02b8 00000000 		.word	USB_device
 2107 02bc 00000000 		.word	USB_TABLE
 2108 02c0 03600040 		.word	1073766403
 2109 02c4 00000000 		.word	USB_STRING_DESCRIPTORS
 2110 02c8 00000000 		.word	USB_MSOS_DESCRIPTOR
 2111 02cc 00000000 		.word	USB_DEVICE0_DESCR
 2112 02d0 00000000 		.word	USB_EP
 2113 02d4 00000000 		.word	.LANCHOR1
 2114 02d8 00000000 		.word	USB_deviceStatus
 2115 02dc 00000000 		.word	USB_interfaceStatus
 2116              	.L164:
ARM GAS  C:\Users\mgronber\AppData\Local\Temp\ccohOFIJ.s 			page 65


 2117              		.cfi_restore_state
 283:Generated_Source\PSoC5/USB_std.c ****                         {
 2118              		.loc 1 283 0
 2119 02e0 1B4B     		ldr	r3, .L211
 2120 02e2 1B78     		ldrb	r3, [r3]	@ zero_extendqisi2
 2121 02e4 012B     		cmp	r3, #1
 2122 02e6 7FF4A6AE 		bne	.L137
 285:Generated_Source\PSoC5/USB_std.c ****                             requestHandled = USB_InitNoDataControlTransfer();
 2123              		.loc 1 285 0
 2124 02ea 1A4A     		ldr	r2, .L211+4
 2125 02ec 1378     		ldrb	r3, [r2]	@ zero_extendqisi2
 2126 02ee 03F0FD03 		and	r3, r3, #253
 2127 02f2 1370     		strb	r3, [r2]
 337:Generated_Source\PSoC5/USB_std.c **** 
 2128              		.loc 1 337 0
 2129 02f4 BDE83840 		pop	{r3, r4, r5, lr}
 2130              		.cfi_remember_state
 2131              		.cfi_restore 14
 2132              		.cfi_restore 5
 2133              		.cfi_restore 4
 2134              		.cfi_restore 3
 2135              		.cfi_def_cfa_offset 0
 286:Generated_Source\PSoC5/USB_std.c ****                         }
 2136              		.loc 1 286 0
 2137 02f8 FFF7FEBF 		b	USB_InitNoDataControlTransfer
 2138              	.LVL153:
 2139              	.L147:
 2140              		.cfi_restore_state
 337:Generated_Source\PSoC5/USB_std.c **** 
 2141              		.loc 1 337 0
 2142 02fc BDE83840 		pop	{r3, r4, r5, lr}
 2143              		.cfi_remember_state
 2144              		.cfi_restore 14
 2145              		.cfi_restore 5
 2146              		.cfi_restore 4
 2147              		.cfi_restore 3
 2148              		.cfi_def_cfa_offset 0
 187:Generated_Source\PSoC5/USB_std.c ****                 }
 2149              		.loc 1 187 0
 2150 0300 FFF7FEBF 		b	USB_DispatchClassRqst
 2151              	.LVL154:
 2152              	.L206:
 2153              		.cfi_restore_state
 119:Generated_Source\PSoC5/USB_std.c ****                     if( pTmp != NULL )  /* Verify that requested descriptor exists */
 2154              		.loc 1 119 0
 2155 0304 124B     		ldr	r3, .L211
 2156              	.LBB80:
 2157              	.LBB81:
 873:Generated_Source\PSoC5/USB_std.c **** 
 2158              		.loc 1 873 0
 2159 0306 1449     		ldr	r1, .L211+8
 2160              	.LBE81:
 2161              	.LBE80:
 119:Generated_Source\PSoC5/USB_std.c ****                     if( pTmp != NULL )  /* Verify that requested descriptor exists */
 2162              		.loc 1 119 0
 2163 0308 1B78     		ldrb	r3, [r3]	@ zero_extendqisi2
 2164              	.LBB84:
ARM GAS  C:\Users\mgronber\AppData\Local\Temp\ccohOFIJ.s 			page 66


 2165              	.LBB82:
 873:Generated_Source\PSoC5/USB_std.c **** 
 2166              		.loc 1 873 0
 2167 030a 144A     		ldr	r2, .L211+12
 2168 030c 0978     		ldrb	r1, [r1]	@ zero_extendqisi2
 2169              	.LBE82:
 2170              	.LBE84:
 119:Generated_Source\PSoC5/USB_std.c ****                     if( pTmp != NULL )  /* Verify that requested descriptor exists */
 2171              		.loc 1 119 0
 2172 030e DBB2     		uxtb	r3, r3
 2173              	.LVL155:
 2174              	.LBB85:
 2175              	.LBB83:
 873:Generated_Source\PSoC5/USB_std.c **** 
 2176              		.loc 1 873 0
 2177 0310 02EBC102 		add	r2, r2, r1, lsl #3
 2178 0314 5268     		ldr	r2, [r2, #4]
 2179              	.LVL156:
 881:Generated_Source\PSoC5/USB_std.c ****     {
 2180              		.loc 1 881 0
 2181 0316 117A     		ldrb	r1, [r2, #8]	@ zero_extendqisi2
 2182 0318 9942     		cmp	r1, r3
 2183 031a 7FF68CAE 		bls	.L137
 887:Generated_Source\PSoC5/USB_std.c ****     }
 2184              		.loc 1 887 0
 2185 031e 02EBC303 		add	r3, r2, r3, lsl #3
 2186              	.LVL157:
 2187 0322 DB68     		ldr	r3, [r3, #12]
 2188              	.LVL158:
 2189              	.LBE83:
 2190              	.LBE85:
 120:Generated_Source\PSoC5/USB_std.c ****                     {
 2191              		.loc 1 120 0
 2192 0324 002B     		cmp	r3, #0
 2193 0326 3FF486AE 		beq	.L137
 122:Generated_Source\PSoC5/USB_std.c ****                         USB_currentTD.count = ((uint16)(USB_currentTD.pData)[ \
 2194              		.loc 1 122 0
 2195 032a 5B68     		ldr	r3, [r3, #4]
 2196              	.LVL159:
 2197 032c 6360     		str	r3, [r4, #4]
 123:Generated_Source\PSoC5/USB_std.c ****                                           USB_CONFIG_DESCR_TOTAL_LENGTH_HI] << 8u) | \
 2198              		.loc 1 123 0
 2199 032e 6368     		ldr	r3, [r4, #4]
 2200 0330 DA78     		ldrb	r2, [r3, #3]	@ zero_extendqisi2
 125:Generated_Source\PSoC5/USB_std.c ****                         requestHandled  = USB_InitControlRead();
 2201              		.loc 1 125 0
 2202 0332 6368     		ldr	r3, [r4, #4]
 2203 0334 9B78     		ldrb	r3, [r3, #2]	@ zero_extendqisi2
 123:Generated_Source\PSoC5/USB_std.c ****                                           USB_CONFIG_DESCR_TOTAL_LENGTH_HI] << 8u) | \
 2204              		.loc 1 123 0
 2205 0336 43EA0223 		orr	r3, r3, r2, lsl #8
 2206 033a 2380     		strh	r3, [r4]	@ movhi
 337:Generated_Source\PSoC5/USB_std.c **** 
 2207              		.loc 1 337 0
 2208 033c BDE83840 		pop	{r3, r4, r5, lr}
 2209              		.cfi_remember_state
 2210              		.cfi_restore 14
ARM GAS  C:\Users\mgronber\AppData\Local\Temp\ccohOFIJ.s 			page 67


 2211              		.cfi_restore 5
 2212              		.cfi_restore 4
 2213              		.cfi_restore 3
 2214              		.cfi_def_cfa_offset 0
 126:Generated_Source\PSoC5/USB_std.c ****                     }
 2215              		.loc 1 126 0
 2216 0340 FFF7FEBF 		b	USB_InitControlRead
 2217              	.LVL160:
 2218              	.L208:
 2219              		.cfi_restore_state
 161:Generated_Source\PSoC5/USB_std.c ****                                 pStr = USB_idSerialNumberStringDescriptor;
 2220              		.loc 1 161 0
 2221 0344 0648     		ldr	r0, .L211+16
 2222 0346 FFF7FEFF 		bl	USB_ReadDieID
 2223              	.LVL161:
 162:Generated_Source\PSoC5/USB_std.c ****                             #elif defined(USB_ENABLE_FWSN_STRING)
 2224              		.loc 1 162 0
 2225 034a 054A     		ldr	r2, .L211+16
 2226 034c 37E7     		b	.L151
 2227              	.L212:
 2228 034e 00BF     		.align	2
 2229              	.L211:
 2230 0350 02600040 		.word	1073766402
 2231 0354 00000000 		.word	USB_deviceStatus
 2232 0358 00000000 		.word	USB_device
 2233 035c 00000000 		.word	USB_TABLE
 2234 0360 00000000 		.word	USB_idSerialNumberStringDescriptor
 2235              		.cfi_endproc
 2236              	.LFE0:
 2237              		.size	USB_HandleStandardRqst, .-USB_HandleStandardRqst
 2238              		.section	.rodata
 2239              		.align	2
 2240              		.set	.LANCHOR0,. + 0
 2241              	.LC0:
 2242 0000 30313233 		.ascii	"0123456789ABCDEF\000"
 2242      34353637 
 2242      38394142 
 2242      43444546 
 2242      00
 2243 0011 000000   		.bss
 2244              		.align	2
 2245              		.set	.LANCHOR1,. + 0
 2246              		.type	USB_tBuffer.5191, %object
 2247              		.size	USB_tBuffer.5191, 2
 2248              	USB_tBuffer.5191:
 2249 0000 0000     		.space	2
 2250 0002 0000     		.text
 2251              	.Letext0:
 2252              		.file 2 "Generated_Source\\PSoC5\\cytypes.h"
 2253              		.file 3 "Generated_Source\\PSoC5\\USB.h"
 2254              		.file 4 "Generated_Source\\PSoC5\\USB_pvt.h"
 2255              		.file 5 "Generated_Source\\PSoC5\\USB_midi.h"