ARM GAS  C:\Users\jwvance\AppData\Local\Temp\ccxTgFRe.s 			page 1


   1              		.syntax unified
   2              		.cpu cortex-m3
   3              		.fpu softvfp
   4              		.eabi_attribute 20, 1
   5              		.eabi_attribute 21, 1
   6              		.eabi_attribute 23, 3
   7              		.eabi_attribute 24, 1
   8              		.eabi_attribute 25, 1
   9              		.eabi_attribute 26, 1
  10              		.eabi_attribute 30, 2
  11              		.eabi_attribute 34, 1
  12              		.eabi_attribute 18, 4
  13              		.thumb
  14              		.file	"USB_midi.c"
  15              		.text
  16              	.Ltext0:
  17              		.cfi_sections	.debug_frame
  18              		.section	.text.USB_MIDI_IN_EP_Service,"ax",%progbits
  19              		.align	2
  20              		.global	USB_MIDI_IN_EP_Service
  21              		.thumb
  22              		.thumb_func
  23              		.type	USB_MIDI_IN_EP_Service, %function
  24              	USB_MIDI_IN_EP_Service:
  25              	.LFB2:
  26              		.file 1 "Generated_Source\\PSoC5\\USB_midi.c"
   1:Generated_Source\PSoC5/USB_midi.c **** /*******************************************************************************
   2:Generated_Source\PSoC5/USB_midi.c **** * File Name: USB_midi.c
   3:Generated_Source\PSoC5/USB_midi.c **** * Version 2.70
   4:Generated_Source\PSoC5/USB_midi.c **** *
   5:Generated_Source\PSoC5/USB_midi.c **** * Description:
   6:Generated_Source\PSoC5/USB_midi.c **** *  MIDI Streaming request handler.
   7:Generated_Source\PSoC5/USB_midi.c **** *  This file contains routines for sending and receiving MIDI
   8:Generated_Source\PSoC5/USB_midi.c **** *  messages, and handles running status in both directions.
   9:Generated_Source\PSoC5/USB_midi.c **** *
  10:Generated_Source\PSoC5/USB_midi.c **** * Related Document:
  11:Generated_Source\PSoC5/USB_midi.c **** *  Universal Serial Bus Device Class Definition for MIDI Devices Release 1.0
  12:Generated_Source\PSoC5/USB_midi.c **** *  MIDI 1.0 Detailed Specification Document Version 4.2
  13:Generated_Source\PSoC5/USB_midi.c **** *
  14:Generated_Source\PSoC5/USB_midi.c **** ********************************************************************************
  15:Generated_Source\PSoC5/USB_midi.c **** * Copyright 2008-2013, Cypress Semiconductor Corporation.  All rights reserved.
  16:Generated_Source\PSoC5/USB_midi.c **** * You may use this file only in accordance with the license, terms, conditions,
  17:Generated_Source\PSoC5/USB_midi.c **** * disclaimers, and limitations in the end user license agreement accompanying
  18:Generated_Source\PSoC5/USB_midi.c **** * the software package with which this file was provided.
  19:Generated_Source\PSoC5/USB_midi.c **** *******************************************************************************/
  20:Generated_Source\PSoC5/USB_midi.c **** 
  21:Generated_Source\PSoC5/USB_midi.c **** #include "USB.h"
  22:Generated_Source\PSoC5/USB_midi.c **** 
  23:Generated_Source\PSoC5/USB_midi.c **** #if defined(USB_ENABLE_MIDI_STREAMING)
  24:Generated_Source\PSoC5/USB_midi.c **** 
  25:Generated_Source\PSoC5/USB_midi.c **** #include "USB_midi.h"
  26:Generated_Source\PSoC5/USB_midi.c **** #include "USB_pvt.h"
  27:Generated_Source\PSoC5/USB_midi.c **** 
  28:Generated_Source\PSoC5/USB_midi.c **** 
  29:Generated_Source\PSoC5/USB_midi.c **** /***************************************
  30:Generated_Source\PSoC5/USB_midi.c **** *    MIDI Constants
  31:Generated_Source\PSoC5/USB_midi.c **** ***************************************/
ARM GAS  C:\Users\jwvance\AppData\Local\Temp\ccxTgFRe.s 			page 2


  32:Generated_Source\PSoC5/USB_midi.c **** 
  33:Generated_Source\PSoC5/USB_midi.c **** #if (USB_MIDI_EXT_MODE >= USB_ONE_EXT_INTRF)
  34:Generated_Source\PSoC5/USB_midi.c ****     /* The Size of the MIDI messages (MIDI Table 4-1) */
  35:Generated_Source\PSoC5/USB_midi.c ****     static const uint8 CYCODE USB_MIDI_SIZE[] = {
  36:Generated_Source\PSoC5/USB_midi.c ****     /*  Miscellaneous function codes(Reserved)  */ 0x03u,
  37:Generated_Source\PSoC5/USB_midi.c ****     /*  Cable events (Reserved)                 */ 0x03u,
  38:Generated_Source\PSoC5/USB_midi.c ****     /*  Two-byte System Common messages         */ 0x02u,
  39:Generated_Source\PSoC5/USB_midi.c ****     /*  Three-byte System Common messages       */ 0x03u,
  40:Generated_Source\PSoC5/USB_midi.c ****     /*  SysEx starts or continues               */ 0x03u,
  41:Generated_Source\PSoC5/USB_midi.c ****     /*  Single-byte System Common Message or
  42:Generated_Source\PSoC5/USB_midi.c ****         SysEx ends with following single byte   */ 0x01u,
  43:Generated_Source\PSoC5/USB_midi.c ****     /*  SysEx ends with following two bytes     */ 0x02u,
  44:Generated_Source\PSoC5/USB_midi.c ****     /*  SysEx ends with following three bytes   */ 0x03u,
  45:Generated_Source\PSoC5/USB_midi.c ****     /*  Note-off                                */ 0x03u,
  46:Generated_Source\PSoC5/USB_midi.c ****     /*  Note-on                                 */ 0x03u,
  47:Generated_Source\PSoC5/USB_midi.c ****     /*  Poly-KeyPress                           */ 0x03u,
  48:Generated_Source\PSoC5/USB_midi.c ****     /*  Control Change                          */ 0x03u,
  49:Generated_Source\PSoC5/USB_midi.c ****     /*  Program Change                          */ 0x02u,
  50:Generated_Source\PSoC5/USB_midi.c ****     /*  Channel Pressure                        */ 0x02u,
  51:Generated_Source\PSoC5/USB_midi.c ****     /*  PitchBend Change                        */ 0x03u,
  52:Generated_Source\PSoC5/USB_midi.c ****     /*  Single Byte                             */ 0x01u
  53:Generated_Source\PSoC5/USB_midi.c ****     };
  54:Generated_Source\PSoC5/USB_midi.c **** #endif  /* USB_MIDI_EXT_MODE >= USB_ONE_EXT_INTRF */
  55:Generated_Source\PSoC5/USB_midi.c **** 
  56:Generated_Source\PSoC5/USB_midi.c **** 
  57:Generated_Source\PSoC5/USB_midi.c **** 
  58:Generated_Source\PSoC5/USB_midi.c **** /***************************************
  59:Generated_Source\PSoC5/USB_midi.c **** *  Global variables
  60:Generated_Source\PSoC5/USB_midi.c **** ***************************************/
  61:Generated_Source\PSoC5/USB_midi.c **** 
  62:Generated_Source\PSoC5/USB_midi.c **** #if (USB_MIDI_IN_BUFF_SIZE > 0)
  63:Generated_Source\PSoC5/USB_midi.c ****     #if (USB_MIDI_IN_BUFF_SIZE >= 256)
  64:Generated_Source\PSoC5/USB_midi.c ****         volatile uint16 USB_midiInPointer;                            /* Input endpoint buffer poin
  65:Generated_Source\PSoC5/USB_midi.c ****     #else
  66:Generated_Source\PSoC5/USB_midi.c ****         volatile uint8 USB_midiInPointer;                             /* Input endpoint buffer poin
  67:Generated_Source\PSoC5/USB_midi.c ****     #endif /* (USB_MIDI_IN_BUFF_SIZE >= 256) */
  68:Generated_Source\PSoC5/USB_midi.c ****     volatile uint8 USB_midi_in_ep;                                    /* Input endpoint number */
  69:Generated_Source\PSoC5/USB_midi.c ****     uint8 USB_midiInBuffer[USB_MIDI_IN_BUFF_SIZE];       /* Input endpoint buffer */
  70:Generated_Source\PSoC5/USB_midi.c **** #endif /* (USB_MIDI_IN_BUFF_SIZE > 0) */
  71:Generated_Source\PSoC5/USB_midi.c **** 
  72:Generated_Source\PSoC5/USB_midi.c **** #if (USB_MIDI_OUT_BUFF_SIZE > 0)
  73:Generated_Source\PSoC5/USB_midi.c ****     volatile uint8 USB_midi_out_ep;                                   /* Output endpoint number */
  74:Generated_Source\PSoC5/USB_midi.c ****     uint8 USB_midiOutBuffer[USB_MIDI_OUT_BUFF_SIZE];     /* Output endpoint buffer */
  75:Generated_Source\PSoC5/USB_midi.c **** #endif /* (USB_MIDI_OUT_BUFF_SIZE > 0) */
  76:Generated_Source\PSoC5/USB_midi.c **** 
  77:Generated_Source\PSoC5/USB_midi.c **** #if (USB_MIDI_EXT_MODE >= USB_ONE_EXT_INTRF)
  78:Generated_Source\PSoC5/USB_midi.c ****     static USB_MIDI_RX_STATUS USB_MIDI1_Event;            /* MIDI RX status structure */
  79:Generated_Source\PSoC5/USB_midi.c ****     static volatile uint8 USB_MIDI1_TxRunStat;                         /* MIDI Output running statu
  80:Generated_Source\PSoC5/USB_midi.c ****     volatile uint8 USB_MIDI1_InqFlags;                                 /* Device inquiry flag */
  81:Generated_Source\PSoC5/USB_midi.c **** 
  82:Generated_Source\PSoC5/USB_midi.c ****     #if (USB_MIDI_EXT_MODE >= USB_TWO_EXT_INTRF)
  83:Generated_Source\PSoC5/USB_midi.c ****         static USB_MIDI_RX_STATUS USB_MIDI2_Event;        /* MIDI RX status structure */
  84:Generated_Source\PSoC5/USB_midi.c ****         static volatile uint8 USB_MIDI2_TxRunStat;                     /* MIDI Output running statu
  85:Generated_Source\PSoC5/USB_midi.c ****         volatile uint8 USB_MIDI2_InqFlags;                             /* Device inquiry flag */
  86:Generated_Source\PSoC5/USB_midi.c ****     #endif /* (USB_MIDI_EXT_MODE >= USB_TWO_EXT_INTRF) */
  87:Generated_Source\PSoC5/USB_midi.c **** #endif /* (USB_MIDI_EXT_MODE >= USB_ONE_EXT_INTRF) */
  88:Generated_Source\PSoC5/USB_midi.c **** 
ARM GAS  C:\Users\jwvance\AppData\Local\Temp\ccxTgFRe.s 			page 3


  89:Generated_Source\PSoC5/USB_midi.c **** 
  90:Generated_Source\PSoC5/USB_midi.c **** /***************************************
  91:Generated_Source\PSoC5/USB_midi.c **** * Custom Declarations
  92:Generated_Source\PSoC5/USB_midi.c **** ***************************************/
  93:Generated_Source\PSoC5/USB_midi.c **** 
  94:Generated_Source\PSoC5/USB_midi.c **** /* `#START MIDI_CUSTOM_DECLARATIONS` Place your declaration here */
  95:Generated_Source\PSoC5/USB_midi.c **** #include "LED_OutA.h"
  96:Generated_Source\PSoC5/USB_midi.c **** #include "LED_OutB.h"
  97:Generated_Source\PSoC5/USB_midi.c **** /* `#END` */
  98:Generated_Source\PSoC5/USB_midi.c **** 
  99:Generated_Source\PSoC5/USB_midi.c **** 
 100:Generated_Source\PSoC5/USB_midi.c **** /***************************************
 101:Generated_Source\PSoC5/USB_midi.c **** * Optional MIDI APIs
 102:Generated_Source\PSoC5/USB_midi.c **** ***************************************/
 103:Generated_Source\PSoC5/USB_midi.c **** #if (USB_ENABLE_MIDI_API != 0u)
 104:Generated_Source\PSoC5/USB_midi.c **** 
 105:Generated_Source\PSoC5/USB_midi.c **** 
 106:Generated_Source\PSoC5/USB_midi.c **** /*******************************************************************************
 107:Generated_Source\PSoC5/USB_midi.c **** * Function Name: USB_MIDI_EP_Init
 108:Generated_Source\PSoC5/USB_midi.c **** ********************************************************************************
 109:Generated_Source\PSoC5/USB_midi.c **** *
 110:Generated_Source\PSoC5/USB_midi.c **** * Summary:
 111:Generated_Source\PSoC5/USB_midi.c **** *  This function initializes the MIDI interface and UART(s) to be ready to
 112:Generated_Source\PSoC5/USB_midi.c **** *   receive data from the PC and MIDI ports.
 113:Generated_Source\PSoC5/USB_midi.c **** *
 114:Generated_Source\PSoC5/USB_midi.c **** * Parameters:
 115:Generated_Source\PSoC5/USB_midi.c **** *  None
 116:Generated_Source\PSoC5/USB_midi.c **** *
 117:Generated_Source\PSoC5/USB_midi.c **** * Return:
 118:Generated_Source\PSoC5/USB_midi.c **** *  None
 119:Generated_Source\PSoC5/USB_midi.c **** *
 120:Generated_Source\PSoC5/USB_midi.c **** * Global variables:
 121:Generated_Source\PSoC5/USB_midi.c **** *  USB_midiInBuffer: This buffer is used for saving and combining
 122:Generated_Source\PSoC5/USB_midi.c **** *    the received data from UART(s) and(or) generated internally by
 123:Generated_Source\PSoC5/USB_midi.c **** *    PutUsbMidiIn() function messages. USB_MIDI_IN_EP_Service()
 124:Generated_Source\PSoC5/USB_midi.c **** *    function transfers the data from this buffer to the PC.
 125:Generated_Source\PSoC5/USB_midi.c **** *  USB_midiOutBuffer: This buffer is used by the
 126:Generated_Source\PSoC5/USB_midi.c **** *    USB_MIDI_OUT_EP_Service() function for saving the received
 127:Generated_Source\PSoC5/USB_midi.c **** *    from the PC data, then the data are parsed and transferred to UART(s)
 128:Generated_Source\PSoC5/USB_midi.c **** *    buffer and to the internal processing by the
 129:Generated_Source\PSoC5/USB_midi.c **** *    USB_callbackLocalMidiEvent function.
 130:Generated_Source\PSoC5/USB_midi.c **** *  USB_midi_out_ep: Used as an OUT endpoint number.
 131:Generated_Source\PSoC5/USB_midi.c **** *  USB_midi_in_ep: Used as an IN endpoint number.
 132:Generated_Source\PSoC5/USB_midi.c **** *   USB_midiInPointer: Initialized to zero.
 133:Generated_Source\PSoC5/USB_midi.c **** *
 134:Generated_Source\PSoC5/USB_midi.c **** * Reentrant:
 135:Generated_Source\PSoC5/USB_midi.c **** *  No
 136:Generated_Source\PSoC5/USB_midi.c **** *
 137:Generated_Source\PSoC5/USB_midi.c **** *******************************************************************************/
 138:Generated_Source\PSoC5/USB_midi.c **** void USB_MIDI_EP_Init(void) 
 139:Generated_Source\PSoC5/USB_midi.c **** {
 140:Generated_Source\PSoC5/USB_midi.c ****     #if (USB_MIDI_IN_BUFF_SIZE > 0)
 141:Generated_Source\PSoC5/USB_midi.c ****        USB_midiInPointer = 0u;
 142:Generated_Source\PSoC5/USB_midi.c ****     #endif /* (USB_MIDI_IN_BUFF_SIZE > 0) */
 143:Generated_Source\PSoC5/USB_midi.c **** 
 144:Generated_Source\PSoC5/USB_midi.c ****     #if(USB_EP_MM == USB__EP_DMAAUTO)
 145:Generated_Source\PSoC5/USB_midi.c ****         #if (USB_MIDI_IN_BUFF_SIZE > 0)
ARM GAS  C:\Users\jwvance\AppData\Local\Temp\ccxTgFRe.s 			page 4


 146:Generated_Source\PSoC5/USB_midi.c ****             /* Init DMA configurations for IN EP*/
 147:Generated_Source\PSoC5/USB_midi.c ****             USB_LoadInEP(USB_midi_in_ep, USB_midiInBuffer,
 148:Generated_Source\PSoC5/USB_midi.c ****                                                                                 USB_MIDI_IN_BUFF_SI
 149:Generated_Source\PSoC5/USB_midi.c **** 
 150:Generated_Source\PSoC5/USB_midi.c ****         #endif  /* (USB_MIDI_IN_BUFF_SIZE > 0) */
 151:Generated_Source\PSoC5/USB_midi.c ****         #if (USB_MIDI_OUT_BUFF_SIZE > 0)
 152:Generated_Source\PSoC5/USB_midi.c ****             /* Init DMA configurations for OUT EP*/
 153:Generated_Source\PSoC5/USB_midi.c ****             (void)USB_ReadOutEP(USB_midi_out_ep, USB_midiOutBuffer,
 154:Generated_Source\PSoC5/USB_midi.c ****                                                                                 USB_MIDI_OUT_BUFF_S
 155:Generated_Source\PSoC5/USB_midi.c ****         #endif /* (USB_MIDI_OUT_BUFF_SIZE > 0) */
 156:Generated_Source\PSoC5/USB_midi.c ****     #endif /* (USB_EP_MM == USB__EP_DMAAUTO) */
 157:Generated_Source\PSoC5/USB_midi.c **** 
 158:Generated_Source\PSoC5/USB_midi.c ****     #if (USB_MIDI_OUT_BUFF_SIZE > 0)
 159:Generated_Source\PSoC5/USB_midi.c ****         USB_EnableOutEP(USB_midi_out_ep);
 160:Generated_Source\PSoC5/USB_midi.c ****     #endif /* (USB_MIDI_OUT_BUFF_SIZE > 0) */
 161:Generated_Source\PSoC5/USB_midi.c **** 
 162:Generated_Source\PSoC5/USB_midi.c ****     /* Initialize the MIDI port(s) */
 163:Generated_Source\PSoC5/USB_midi.c ****     #if (USB_MIDI_EXT_MODE >= USB_ONE_EXT_INTRF)
 164:Generated_Source\PSoC5/USB_midi.c ****         USB_MIDI_Init();
 165:Generated_Source\PSoC5/USB_midi.c ****     #endif /* (USB_MIDI_EXT_MODE >= USB_ONE_EXT_INTRF) */
 166:Generated_Source\PSoC5/USB_midi.c **** }
 167:Generated_Source\PSoC5/USB_midi.c **** 
 168:Generated_Source\PSoC5/USB_midi.c **** #if (USB_MIDI_OUT_BUFF_SIZE > 0)
 169:Generated_Source\PSoC5/USB_midi.c **** 
 170:Generated_Source\PSoC5/USB_midi.c **** 
 171:Generated_Source\PSoC5/USB_midi.c ****     /*******************************************************************************
 172:Generated_Source\PSoC5/USB_midi.c ****     * Function Name: USB_MIDI_OUT_EP_Service
 173:Generated_Source\PSoC5/USB_midi.c ****     ********************************************************************************
 174:Generated_Source\PSoC5/USB_midi.c ****     *
 175:Generated_Source\PSoC5/USB_midi.c ****     * Summary:
 176:Generated_Source\PSoC5/USB_midi.c ****     *  Services the USB MIDI OUT endpoints.
 177:Generated_Source\PSoC5/USB_midi.c ****     *  This function is called from OUT EP ISR. It transfers the received from PC
 178:Generated_Source\PSoC5/USB_midi.c ****     *  data to the external MIDI port(UART TX buffer) and calls the
 179:Generated_Source\PSoC5/USB_midi.c ****     *  USB_callbackLocalMidiEvent() function to internal process
 180:Generated_Source\PSoC5/USB_midi.c ****     *  of the MIDI data.
 181:Generated_Source\PSoC5/USB_midi.c ****     *  This function is blocked by UART, if not enough space is available in UART
 182:Generated_Source\PSoC5/USB_midi.c ****     *  TX buffer. Therefore it is recommended to use large UART TX buffer size.
 183:Generated_Source\PSoC5/USB_midi.c ****     *
 184:Generated_Source\PSoC5/USB_midi.c ****     * Parameters:
 185:Generated_Source\PSoC5/USB_midi.c ****     *  None
 186:Generated_Source\PSoC5/USB_midi.c ****     *
 187:Generated_Source\PSoC5/USB_midi.c ****     * Return:
 188:Generated_Source\PSoC5/USB_midi.c ****     *  None
 189:Generated_Source\PSoC5/USB_midi.c ****     *
 190:Generated_Source\PSoC5/USB_midi.c ****     * Global variables:
 191:Generated_Source\PSoC5/USB_midi.c ****     *  USB_midiOutBuffer: Used as temporary buffer between USB internal
 192:Generated_Source\PSoC5/USB_midi.c ****     *   memory and UART TX buffer.
 193:Generated_Source\PSoC5/USB_midi.c ****     *  USB_midi_out_ep: Used as an OUT endpoint number.
 194:Generated_Source\PSoC5/USB_midi.c ****     *
 195:Generated_Source\PSoC5/USB_midi.c ****     * Reentrant:
 196:Generated_Source\PSoC5/USB_midi.c ****     *  No
 197:Generated_Source\PSoC5/USB_midi.c ****     *
 198:Generated_Source\PSoC5/USB_midi.c ****     *******************************************************************************/
 199:Generated_Source\PSoC5/USB_midi.c ****     void USB_MIDI_OUT_EP_Service(void) 
 200:Generated_Source\PSoC5/USB_midi.c ****     {
 201:Generated_Source\PSoC5/USB_midi.c ****         #if USB_MIDI_OUT_BUFF_SIZE >= 256
 202:Generated_Source\PSoC5/USB_midi.c ****             uint16 outLength;
ARM GAS  C:\Users\jwvance\AppData\Local\Temp\ccxTgFRe.s 			page 5


 203:Generated_Source\PSoC5/USB_midi.c ****             uint16 outPointer;
 204:Generated_Source\PSoC5/USB_midi.c ****         #else
 205:Generated_Source\PSoC5/USB_midi.c ****             uint8 outLength;
 206:Generated_Source\PSoC5/USB_midi.c ****             uint8 outPointer;
 207:Generated_Source\PSoC5/USB_midi.c ****         #endif /*  USB_MIDI_OUT_BUFF_SIZE >=256 */
 208:Generated_Source\PSoC5/USB_midi.c **** 
 209:Generated_Source\PSoC5/USB_midi.c ****         uint8 dmaState = 0u;
 210:Generated_Source\PSoC5/USB_midi.c **** 
 211:Generated_Source\PSoC5/USB_midi.c ****         /* Service the USB MIDI output endpoint */
 212:Generated_Source\PSoC5/USB_midi.c ****         if (USB_GetEPState(USB_midi_out_ep) == USB_OUT_BUFFER_FULL)
 213:Generated_Source\PSoC5/USB_midi.c ****         {
 214:Generated_Source\PSoC5/USB_midi.c ****             #if(USB_MIDI_OUT_BUFF_SIZE >= 256)
 215:Generated_Source\PSoC5/USB_midi.c ****                 outLength = USB_GetEPCount(USB_midi_out_ep);
 216:Generated_Source\PSoC5/USB_midi.c ****             #else
 217:Generated_Source\PSoC5/USB_midi.c ****                 outLength = (uint8)USB_GetEPCount(USB_midi_out_ep);
 218:Generated_Source\PSoC5/USB_midi.c ****             #endif /* (USB_MIDI_OUT_BUFF_SIZE >= 256) */
 219:Generated_Source\PSoC5/USB_midi.c ****             
 220:Generated_Source\PSoC5/USB_midi.c ****             #if(USB_EP_MM != USB__EP_DMAAUTO)
 221:Generated_Source\PSoC5/USB_midi.c ****                 #if (USB_MIDI_OUT_BUFF_SIZE >= 256)
 222:Generated_Source\PSoC5/USB_midi.c ****                     outLength = USB_ReadOutEP(USB_midi_out_ep,
 223:Generated_Source\PSoC5/USB_midi.c ****                                                                     USB_midiOutBuffer, outLength);
 224:Generated_Source\PSoC5/USB_midi.c ****                 #else
 225:Generated_Source\PSoC5/USB_midi.c ****                     outLength = (uint8)USB_ReadOutEP(USB_midi_out_ep,
 226:Generated_Source\PSoC5/USB_midi.c ****                                                                     USB_midiOutBuffer, (uint16)outL
 227:Generated_Source\PSoC5/USB_midi.c ****                 #endif /* (USB_MIDI_OUT_BUFF_SIZE >= 256) */
 228:Generated_Source\PSoC5/USB_midi.c ****                 
 229:Generated_Source\PSoC5/USB_midi.c ****                 #if(USB_EP_MM == USB__EP_DMAMANUAL)
 230:Generated_Source\PSoC5/USB_midi.c ****                     do  /* wait for DMA transfer complete */
 231:Generated_Source\PSoC5/USB_midi.c ****                     {
 232:Generated_Source\PSoC5/USB_midi.c ****                         (void) CyDmaChStatus(USB_DmaChan[USB_midi_out_ep], NULL, &dmaState);
 233:Generated_Source\PSoC5/USB_midi.c ****                     }
 234:Generated_Source\PSoC5/USB_midi.c ****                     while((dmaState & (STATUS_TD_ACTIVE | STATUS_CHAIN_ACTIVE)) != 0u);
 235:Generated_Source\PSoC5/USB_midi.c ****                 #endif /* (USBFS_EP_MM == USBFS__EP_DMAMANUAL) */
 236:Generated_Source\PSoC5/USB_midi.c ****                 
 237:Generated_Source\PSoC5/USB_midi.c ****             #endif /* (USB_EP_MM != USB__EP_DMAAUTO) */
 238:Generated_Source\PSoC5/USB_midi.c ****             
 239:Generated_Source\PSoC5/USB_midi.c ****             if(dmaState != 0u)
 240:Generated_Source\PSoC5/USB_midi.c ****             {
 241:Generated_Source\PSoC5/USB_midi.c ****                 /* Suppress compiler warning */
 242:Generated_Source\PSoC5/USB_midi.c ****             }
 243:Generated_Source\PSoC5/USB_midi.c ****             
 244:Generated_Source\PSoC5/USB_midi.c ****             if (outLength >= USB_EVENT_LENGTH)
 245:Generated_Source\PSoC5/USB_midi.c ****             {
 246:Generated_Source\PSoC5/USB_midi.c ****                 outPointer = 0u;
 247:Generated_Source\PSoC5/USB_midi.c ****                 while (outPointer < outLength)
 248:Generated_Source\PSoC5/USB_midi.c ****                 {
 249:Generated_Source\PSoC5/USB_midi.c ****                     /* In some OS OUT packet could be appended by nulls which could be skipped */
 250:Generated_Source\PSoC5/USB_midi.c ****                     if (USB_midiOutBuffer[outPointer] == 0u)
 251:Generated_Source\PSoC5/USB_midi.c ****                     {
 252:Generated_Source\PSoC5/USB_midi.c ****                         break;
 253:Generated_Source\PSoC5/USB_midi.c ****                     }
 254:Generated_Source\PSoC5/USB_midi.c ****                     /* Route USB MIDI to the External connection */
 255:Generated_Source\PSoC5/USB_midi.c ****                     #if (USB_MIDI_EXT_MODE >= USB_ONE_EXT_INTRF)
 256:Generated_Source\PSoC5/USB_midi.c ****                         if ((USB_midiOutBuffer[outPointer] & USB_CABLE_MASK) ==
 257:Generated_Source\PSoC5/USB_midi.c ****                             USB_MIDI_CABLE_00)
 258:Generated_Source\PSoC5/USB_midi.c ****                         {
 259:Generated_Source\PSoC5/USB_midi.c ****                             USB_MIDI1_ProcessUsbOut(&USB_midiOutBuffer[outPointer]);
ARM GAS  C:\Users\jwvance\AppData\Local\Temp\ccxTgFRe.s 			page 6


 260:Generated_Source\PSoC5/USB_midi.c ****                         }
 261:Generated_Source\PSoC5/USB_midi.c ****                         else if ((USB_midiOutBuffer[outPointer] & USB_CABLE_MASK) ==
 262:Generated_Source\PSoC5/USB_midi.c ****                                  USB_MIDI_CABLE_01)
 263:Generated_Source\PSoC5/USB_midi.c ****                         {
 264:Generated_Source\PSoC5/USB_midi.c ****                             #if (USB_MIDI_EXT_MODE >= USB_TWO_EXT_INTRF)
 265:Generated_Source\PSoC5/USB_midi.c ****                                 USB_MIDI2_ProcessUsbOut(&USB_midiOutBuffer[outPointer]);
 266:Generated_Source\PSoC5/USB_midi.c ****                             #endif /*  USB_MIDI_EXT_MODE >= USB_TWO_EXT_INTRF */
 267:Generated_Source\PSoC5/USB_midi.c ****                         }
 268:Generated_Source\PSoC5/USB_midi.c ****                         else
 269:Generated_Source\PSoC5/USB_midi.c ****                         {
 270:Generated_Source\PSoC5/USB_midi.c ****                             /* `#START CUSTOM_MIDI_OUT_EP_SERV` Place your code here */
 271:Generated_Source\PSoC5/USB_midi.c **** 
 272:Generated_Source\PSoC5/USB_midi.c ****                             /* `#END` */
 273:Generated_Source\PSoC5/USB_midi.c ****                         }
 274:Generated_Source\PSoC5/USB_midi.c ****                     #endif /* (USB_MIDI_EXT_MODE >= USB_ONE_EXT_INTRF) */
 275:Generated_Source\PSoC5/USB_midi.c **** 
 276:Generated_Source\PSoC5/USB_midi.c ****                     /* Process any local MIDI output functions */
 277:Generated_Source\PSoC5/USB_midi.c ****                     USB_callbackLocalMidiEvent(
 278:Generated_Source\PSoC5/USB_midi.c ****                         USB_midiOutBuffer[outPointer] & USB_CABLE_MASK,
 279:Generated_Source\PSoC5/USB_midi.c ****                         &USB_midiOutBuffer[outPointer + USB_EVENT_BYTE1]);
 280:Generated_Source\PSoC5/USB_midi.c ****                     outPointer += USB_EVENT_LENGTH;
 281:Generated_Source\PSoC5/USB_midi.c ****                 }
 282:Generated_Source\PSoC5/USB_midi.c ****             }
 283:Generated_Source\PSoC5/USB_midi.c ****             #if(USB_EP_MM == USB__EP_DMAAUTO)
 284:Generated_Source\PSoC5/USB_midi.c ****                 /* Enable Out EP*/
 285:Generated_Source\PSoC5/USB_midi.c ****                 USB_EnableOutEP(USB_midi_out_ep);
 286:Generated_Source\PSoC5/USB_midi.c ****             #endif  /* (USB_EP_MM == USB__EP_DMAAUTO) */
 287:Generated_Source\PSoC5/USB_midi.c ****         }
 288:Generated_Source\PSoC5/USB_midi.c ****     }
 289:Generated_Source\PSoC5/USB_midi.c **** 
 290:Generated_Source\PSoC5/USB_midi.c **** #endif /* #if (USB_MIDI_OUT_BUFF_SIZE > 0) */
 291:Generated_Source\PSoC5/USB_midi.c **** 
 292:Generated_Source\PSoC5/USB_midi.c **** #if (USB_MIDI_IN_BUFF_SIZE > 0)
 293:Generated_Source\PSoC5/USB_midi.c **** 
 294:Generated_Source\PSoC5/USB_midi.c **** 
 295:Generated_Source\PSoC5/USB_midi.c ****     /*******************************************************************************
 296:Generated_Source\PSoC5/USB_midi.c ****     * Function Name: USB_MIDI_IN_EP_Service
 297:Generated_Source\PSoC5/USB_midi.c ****     ********************************************************************************
 298:Generated_Source\PSoC5/USB_midi.c ****     *
 299:Generated_Source\PSoC5/USB_midi.c ****     * Summary:
 300:Generated_Source\PSoC5/USB_midi.c ****     *  Services the USB MIDI IN endpoint. Non-blocking.
 301:Generated_Source\PSoC5/USB_midi.c ****     *  Checks that previous packet was processed by HOST, otherwise service the
 302:Generated_Source\PSoC5/USB_midi.c ****     *  input endpoint on the subsequent call. It is called from the
 303:Generated_Source\PSoC5/USB_midi.c ****     *  USB_MIDI_IN_Service() and from the
 304:Generated_Source\PSoC5/USB_midi.c ****     *  USB_PutUsbMidiIn() function.
 305:Generated_Source\PSoC5/USB_midi.c ****     *
 306:Generated_Source\PSoC5/USB_midi.c ****     * Parameters:
 307:Generated_Source\PSoC5/USB_midi.c ****     *  None
 308:Generated_Source\PSoC5/USB_midi.c ****     *
 309:Generated_Source\PSoC5/USB_midi.c ****     * Return:
 310:Generated_Source\PSoC5/USB_midi.c ****     *  None
 311:Generated_Source\PSoC5/USB_midi.c ****     *
 312:Generated_Source\PSoC5/USB_midi.c ****     * Global variables:
 313:Generated_Source\PSoC5/USB_midi.c ****     *  USB_midi_in_ep: Used as an IN endpoint number.
 314:Generated_Source\PSoC5/USB_midi.c ****     *  USB_midiInBuffer: Function loads the data from this buffer to
 315:Generated_Source\PSoC5/USB_midi.c ****     *    the USB IN endpoint.
 316:Generated_Source\PSoC5/USB_midi.c ****     *   USB_midiInPointer: Cleared to zero when data are sent.
ARM GAS  C:\Users\jwvance\AppData\Local\Temp\ccxTgFRe.s 			page 7


 317:Generated_Source\PSoC5/USB_midi.c ****     *
 318:Generated_Source\PSoC5/USB_midi.c ****     * Reentrant:
 319:Generated_Source\PSoC5/USB_midi.c ****     *  No
 320:Generated_Source\PSoC5/USB_midi.c ****     *
 321:Generated_Source\PSoC5/USB_midi.c ****     *******************************************************************************/
 322:Generated_Source\PSoC5/USB_midi.c ****     void USB_MIDI_IN_EP_Service(void) 
 323:Generated_Source\PSoC5/USB_midi.c ****     {
  27              		.loc 1 323 0
  28              		.cfi_startproc
  29              		@ args = 0, pretend = 0, frame = 0
  30              		@ frame_needed = 0, uses_anonymous_args = 0
  31 0000 38B5     		push	{r3, r4, r5, lr}
  32              		.cfi_def_cfa_offset 16
  33              		.cfi_offset 3, -16
  34              		.cfi_offset 4, -12
  35              		.cfi_offset 5, -8
  36              		.cfi_offset 14, -4
 324:Generated_Source\PSoC5/USB_midi.c ****         /* Service the USB MIDI input endpoint */
 325:Generated_Source\PSoC5/USB_midi.c ****         /* Check that previous packet was processed by HOST, otherwise service the USB later */
 326:Generated_Source\PSoC5/USB_midi.c ****         if (USB_midiInPointer != 0u)
  37              		.loc 1 326 0
  38 0002 094C     		ldr	r4, .L8
  39 0004 2378     		ldrb	r3, [r4]	@ zero_extendqisi2
  40 0006 03B9     		cbnz	r3, .L7
  41              	.L1:
  42 0008 38BD     		pop	{r3, r4, r5, pc}
  43              	.L7:
 327:Generated_Source\PSoC5/USB_midi.c ****         {
 328:Generated_Source\PSoC5/USB_midi.c ****             if(USB_GetEPState(USB_midi_in_ep) == USB_EVENT_PENDING)
  44              		.loc 1 328 0
  45 000a 084D     		ldr	r5, .L8+4
  46 000c 2878     		ldrb	r0, [r5]	@ zero_extendqisi2
  47 000e FFF7FEFF 		bl	USB_GetEPState
  48              	.LVL0:
  49 0012 0128     		cmp	r0, #1
  50 0014 F8D1     		bne	.L1
  51              	.LBB4:
  52              	.LBB5:
 329:Generated_Source\PSoC5/USB_midi.c ****             {
 330:Generated_Source\PSoC5/USB_midi.c ****             #if(USB_EP_MM != USB__EP_DMAAUTO)
 331:Generated_Source\PSoC5/USB_midi.c ****                 USB_LoadInEP(USB_midi_in_ep, USB_midiInBuffer,
  53              		.loc 1 331 0
  54 0016 2878     		ldrb	r0, [r5]	@ zero_extendqisi2
  55 0018 0549     		ldr	r1, .L8+8
  56 001a 2278     		ldrb	r2, [r4]	@ zero_extendqisi2
  57 001c FFF7FEFF 		bl	USB_LoadInEP
  58              	.LVL1:
 332:Generated_Source\PSoC5/USB_midi.c ****                                                                                 (uint16)USB_midiInP
 333:Generated_Source\PSoC5/USB_midi.c ****             #else /* USB_EP_MM != USB__EP_DMAAUTO */
 334:Generated_Source\PSoC5/USB_midi.c ****                 /* rearm IN EP */
 335:Generated_Source\PSoC5/USB_midi.c ****                 USB_LoadInEP(USB_midi_in_ep, NULL, (uint16)USB_midiInPointer);
 336:Generated_Source\PSoC5/USB_midi.c ****             #endif /* (USB_EP_MM != USB__EP_DMAAUTO) */
 337:Generated_Source\PSoC5/USB_midi.c **** 
 338:Generated_Source\PSoC5/USB_midi.c ****             /* Clear the midiInPointer. For DMA mode, clear this pointer in the ARB ISR when data a
 339:Generated_Source\PSoC5/USB_midi.c ****             #if(USB_EP_MM == USB__EP_MANUAL)
 340:Generated_Source\PSoC5/USB_midi.c ****                 USB_midiInPointer = 0u;
  59              		.loc 1 340 0
ARM GAS  C:\Users\jwvance\AppData\Local\Temp\ccxTgFRe.s 			page 8


  60 0020 0023     		movs	r3, #0
  61 0022 2370     		strb	r3, [r4]
  62 0024 F0E7     		b	.L1
  63              	.L9:
  64 0026 00BF     		.align	2
  65              	.L8:
  66 0028 00000000 		.word	USB_midiInPointer
  67 002c 00000000 		.word	USB_midi_in_ep
  68 0030 00000000 		.word	USB_midiInBuffer
  69              	.LBE5:
  70              	.LBE4:
  71              		.cfi_endproc
  72              	.LFE2:
  73              		.size	USB_MIDI_IN_EP_Service, .-USB_MIDI_IN_EP_Service
  74              		.section	.text.USB_PrepareInBuffer,"ax",%progbits
  75              		.align	2
  76              		.global	USB_PrepareInBuffer
  77              		.thumb
  78              		.thumb_func
  79              		.type	USB_PrepareInBuffer, %function
  80              	USB_PrepareInBuffer:
  81              	.LFB5:
 341:Generated_Source\PSoC5/USB_midi.c ****             #endif /* (USB_EP_MM == USB__EP_MANUAL) */
 342:Generated_Source\PSoC5/USB_midi.c ****             }
 343:Generated_Source\PSoC5/USB_midi.c ****         }
 344:Generated_Source\PSoC5/USB_midi.c ****     }
 345:Generated_Source\PSoC5/USB_midi.c **** 
 346:Generated_Source\PSoC5/USB_midi.c **** 
 347:Generated_Source\PSoC5/USB_midi.c ****     /*******************************************************************************
 348:Generated_Source\PSoC5/USB_midi.c ****     * Function Name: USB_MIDI_IN_Service
 349:Generated_Source\PSoC5/USB_midi.c ****     ********************************************************************************
 350:Generated_Source\PSoC5/USB_midi.c ****     *
 351:Generated_Source\PSoC5/USB_midi.c ****     * Summary:
 352:Generated_Source\PSoC5/USB_midi.c ****     *  Services the traffic from the MIDI input ports (RX UART) and prepare data
 353:Generated_Source\PSoC5/USB_midi.c ****     *  in USB MIDI IN endpoint buffer.
 354:Generated_Source\PSoC5/USB_midi.c ****     *  Calls the USB_MIDI_IN_EP_Service() function to sent the
 355:Generated_Source\PSoC5/USB_midi.c ****     *  data from buffer to PC. Non-blocking. Should be called from main foreground
 356:Generated_Source\PSoC5/USB_midi.c ****     *  task.
 357:Generated_Source\PSoC5/USB_midi.c ****     *  This function is not protected from the reentrant calls. When it is required
 358:Generated_Source\PSoC5/USB_midi.c ****     *  to use this function in UART RX ISR to guaranty low latency, care should be
 359:Generated_Source\PSoC5/USB_midi.c ****     *  taken to protect from reentrant calls.
 360:Generated_Source\PSoC5/USB_midi.c ****     *
 361:Generated_Source\PSoC5/USB_midi.c ****     * Parameters:
 362:Generated_Source\PSoC5/USB_midi.c ****     *  None
 363:Generated_Source\PSoC5/USB_midi.c ****     *
 364:Generated_Source\PSoC5/USB_midi.c ****     * Return:
 365:Generated_Source\PSoC5/USB_midi.c ****     *  None
 366:Generated_Source\PSoC5/USB_midi.c ****     *
 367:Generated_Source\PSoC5/USB_midi.c ****     * Global variables:
 368:Generated_Source\PSoC5/USB_midi.c ****     *   USB_midiInPointer: Cleared to zero when data are sent.
 369:Generated_Source\PSoC5/USB_midi.c ****     *
 370:Generated_Source\PSoC5/USB_midi.c ****     * Reentrant:
 371:Generated_Source\PSoC5/USB_midi.c ****     *  No
 372:Generated_Source\PSoC5/USB_midi.c ****     *
 373:Generated_Source\PSoC5/USB_midi.c ****     *******************************************************************************/
 374:Generated_Source\PSoC5/USB_midi.c ****     void USB_MIDI_IN_Service(void) 
 375:Generated_Source\PSoC5/USB_midi.c ****     {
ARM GAS  C:\Users\jwvance\AppData\Local\Temp\ccxTgFRe.s 			page 9


 376:Generated_Source\PSoC5/USB_midi.c ****         /* Service the MIDI UART inputs until either both receivers have no more
 377:Generated_Source\PSoC5/USB_midi.c ****         *  events or until the input endpoint buffer fills up.
 378:Generated_Source\PSoC5/USB_midi.c ****         */
 379:Generated_Source\PSoC5/USB_midi.c ****         #if (USB_MIDI_EXT_MODE >= USB_ONE_EXT_INTRF)
 380:Generated_Source\PSoC5/USB_midi.c ****             uint8 m1 = 0u;
 381:Generated_Source\PSoC5/USB_midi.c ****             uint8 m2 = 0u;
 382:Generated_Source\PSoC5/USB_midi.c ****             do
 383:Generated_Source\PSoC5/USB_midi.c ****             {
 384:Generated_Source\PSoC5/USB_midi.c ****                 if (USB_midiInPointer <=
 385:Generated_Source\PSoC5/USB_midi.c ****                     (USB_MIDI_IN_BUFF_SIZE - USB_EVENT_LENGTH))
 386:Generated_Source\PSoC5/USB_midi.c ****                 {
 387:Generated_Source\PSoC5/USB_midi.c ****                     /* Check MIDI1 input port for a complete event */
 388:Generated_Source\PSoC5/USB_midi.c ****                     m1 = USB_MIDI1_GetEvent();
 389:Generated_Source\PSoC5/USB_midi.c ****                     if (m1 != 0u)
 390:Generated_Source\PSoC5/USB_midi.c ****                     {
 391:Generated_Source\PSoC5/USB_midi.c ****                         USB_PrepareInBuffer(m1, (uint8 *)&USB_MIDI1_Event.msgBuff[0],
 392:Generated_Source\PSoC5/USB_midi.c ****                                                     USB_MIDI1_Event.size, USB_MIDI_CABLE_00);
 393:Generated_Source\PSoC5/USB_midi.c ****                     }
 394:Generated_Source\PSoC5/USB_midi.c ****                 }
 395:Generated_Source\PSoC5/USB_midi.c **** 
 396:Generated_Source\PSoC5/USB_midi.c ****             #if (USB_MIDI_EXT_MODE >= USB_TWO_EXT_INTRF)
 397:Generated_Source\PSoC5/USB_midi.c ****                 if (USB_midiInPointer <=
 398:Generated_Source\PSoC5/USB_midi.c ****                     (USB_MIDI_IN_BUFF_SIZE - USB_EVENT_LENGTH))
 399:Generated_Source\PSoC5/USB_midi.c ****                 {
 400:Generated_Source\PSoC5/USB_midi.c ****                     /* Check MIDI2 input port for a complete event */
 401:Generated_Source\PSoC5/USB_midi.c ****                     m2 = USB_MIDI2_GetEvent();
 402:Generated_Source\PSoC5/USB_midi.c ****                     if (m2 != 0u)
 403:Generated_Source\PSoC5/USB_midi.c ****                     {
 404:Generated_Source\PSoC5/USB_midi.c ****                         USB_PrepareInBuffer(m2, (uint8 *)&USB_MIDI2_Event.msgBuff[0],
 405:Generated_Source\PSoC5/USB_midi.c ****                                                     USB_MIDI2_Event.size, USB_MIDI_CABLE_01);
 406:Generated_Source\PSoC5/USB_midi.c ****                     }
 407:Generated_Source\PSoC5/USB_midi.c ****                 }
 408:Generated_Source\PSoC5/USB_midi.c ****             #endif /*  USB_MIDI_EXT_MODE >= USB_TWO_EXT_INTRF */
 409:Generated_Source\PSoC5/USB_midi.c **** 
 410:Generated_Source\PSoC5/USB_midi.c ****             }while( (USB_midiInPointer <=
 411:Generated_Source\PSoC5/USB_midi.c ****                     (USB_MIDI_IN_BUFF_SIZE - USB_EVENT_LENGTH)) &&
 412:Generated_Source\PSoC5/USB_midi.c ****                     ((m1 != 0u) || (m2 != 0u)) );
 413:Generated_Source\PSoC5/USB_midi.c ****         #endif /* (USB_MIDI_EXT_MODE >= USB_ONE_EXT_INTRF) */
 414:Generated_Source\PSoC5/USB_midi.c **** 
 415:Generated_Source\PSoC5/USB_midi.c ****         /* Service the USB MIDI input endpoint */
 416:Generated_Source\PSoC5/USB_midi.c ****         USB_MIDI_IN_EP_Service();
 417:Generated_Source\PSoC5/USB_midi.c ****     }
 418:Generated_Source\PSoC5/USB_midi.c **** 
 419:Generated_Source\PSoC5/USB_midi.c **** 
 420:Generated_Source\PSoC5/USB_midi.c ****     /*******************************************************************************
 421:Generated_Source\PSoC5/USB_midi.c ****     * Function Name: USB_PutUsbMidiIn
 422:Generated_Source\PSoC5/USB_midi.c ****     ********************************************************************************
 423:Generated_Source\PSoC5/USB_midi.c ****     *
 424:Generated_Source\PSoC5/USB_midi.c ****     * Summary:
 425:Generated_Source\PSoC5/USB_midi.c ****     *  Puts one MIDI messages into the USB MIDI In endpoint buffer. These are
 426:Generated_Source\PSoC5/USB_midi.c ****     *  MIDI input messages to the host. This function is only used if the device
 427:Generated_Source\PSoC5/USB_midi.c ****     *  has internal MIDI input functionality. USBMIDI_MIDI_IN_Service() function
 428:Generated_Source\PSoC5/USB_midi.c ****     *  should additionally be called to send the message from local buffer to
 429:Generated_Source\PSoC5/USB_midi.c ****     *  IN endpoint.
 430:Generated_Source\PSoC5/USB_midi.c ****     *
 431:Generated_Source\PSoC5/USB_midi.c ****     * Parameters:
 432:Generated_Source\PSoC5/USB_midi.c ****     *  ic:   0 = No message (should never happen)
ARM GAS  C:\Users\jwvance\AppData\Local\Temp\ccxTgFRe.s 			page 10


 433:Generated_Source\PSoC5/USB_midi.c ****     *        1 - 3 = Complete MIDI message in midiMsg
 434:Generated_Source\PSoC5/USB_midi.c ****     *        3 - IN EP LENGTH = Complete SySEx message(without EOSEX byte) in
 435:Generated_Source\PSoC5/USB_midi.c ****     *            midiMsg. The length is limited by the max BULK EP size(64)
 436:Generated_Source\PSoC5/USB_midi.c ****     *        MIDI_SYSEX = Start or continuation of SysEx message
 437:Generated_Source\PSoC5/USB_midi.c ****     *                     (put event bytes in midiMsg buffer)
 438:Generated_Source\PSoC5/USB_midi.c ****     *        MIDI_EOSEX = End of SysEx message
 439:Generated_Source\PSoC5/USB_midi.c ****     *                     (put event bytes in midiMsg buffer)
 440:Generated_Source\PSoC5/USB_midi.c ****     *        MIDI_TUNEREQ = Tune Request message (single byte system common msg)
 441:Generated_Source\PSoC5/USB_midi.c ****     *        0xf8 - 0xff = Single byte real-time message
 442:Generated_Source\PSoC5/USB_midi.c ****     *  midiMsg: pointer to MIDI message.
 443:Generated_Source\PSoC5/USB_midi.c ****     *  cable:   cable number.
 444:Generated_Source\PSoC5/USB_midi.c ****     *
 445:Generated_Source\PSoC5/USB_midi.c ****     * Return:
 446:Generated_Source\PSoC5/USB_midi.c ****     *  USB_TRUE if error.
 447:Generated_Source\PSoC5/USB_midi.c ****     *  USB_FALSE if success.
 448:Generated_Source\PSoC5/USB_midi.c ****     *
 449:Generated_Source\PSoC5/USB_midi.c ****     * Global variables:
 450:Generated_Source\PSoC5/USB_midi.c ****     *  USB_midi_in_ep: MIDI IN endpoint number used for sending data.
 451:Generated_Source\PSoC5/USB_midi.c ****     *  USB_midiInPointer: Checked this variable to see if there is
 452:Generated_Source\PSoC5/USB_midi.c ****     *    enough free space in the IN endpoint buffer. If buffer is full, initiate
 453:Generated_Source\PSoC5/USB_midi.c ****     *    sending to PC.
 454:Generated_Source\PSoC5/USB_midi.c ****     *
 455:Generated_Source\PSoC5/USB_midi.c ****     * Reentrant:
 456:Generated_Source\PSoC5/USB_midi.c ****     *  No
 457:Generated_Source\PSoC5/USB_midi.c ****     *
 458:Generated_Source\PSoC5/USB_midi.c ****     *******************************************************************************/
 459:Generated_Source\PSoC5/USB_midi.c ****     uint8 USB_PutUsbMidiIn(uint8 ic, const uint8 midiMsg[], uint8 cable)
 460:Generated_Source\PSoC5/USB_midi.c ****                                                                 
 461:Generated_Source\PSoC5/USB_midi.c ****     {
 462:Generated_Source\PSoC5/USB_midi.c ****         uint8 retError = USB_FALSE;
 463:Generated_Source\PSoC5/USB_midi.c ****         uint8 msgIndex;
 464:Generated_Source\PSoC5/USB_midi.c **** 
 465:Generated_Source\PSoC5/USB_midi.c ****         /* Protect PrepareInBuffer() function from concurrent calls */
 466:Generated_Source\PSoC5/USB_midi.c ****         #if (USB_MIDI_EXT_MODE >= USB_ONE_EXT_INTRF)
 467:Generated_Source\PSoC5/USB_midi.c ****             MIDI1_UART_DisableRxInt();
 468:Generated_Source\PSoC5/USB_midi.c ****             #if (USB_MIDI_EXT_MODE >= USB_TWO_EXT_INTRF)
 469:Generated_Source\PSoC5/USB_midi.c ****                 MIDI2_UART_DisableRxInt();
 470:Generated_Source\PSoC5/USB_midi.c ****             #endif /* (USB_MIDI_EXT_MODE >= USB_TWO_EXT_INTRF) */
 471:Generated_Source\PSoC5/USB_midi.c ****         #endif /* (USB_MIDI_EXT_MODE >= USB_ONE_EXT_INTRF) */
 472:Generated_Source\PSoC5/USB_midi.c **** 
 473:Generated_Source\PSoC5/USB_midi.c ****         if (USB_midiInPointer >
 474:Generated_Source\PSoC5/USB_midi.c ****                     (USB_EP[USB_midi_in_ep].bufferSize - USB_EVENT_LENGTH))
 475:Generated_Source\PSoC5/USB_midi.c ****         {
 476:Generated_Source\PSoC5/USB_midi.c ****             USB_MIDI_IN_EP_Service();
 477:Generated_Source\PSoC5/USB_midi.c ****         }
 478:Generated_Source\PSoC5/USB_midi.c ****         if (USB_midiInPointer <=
 479:Generated_Source\PSoC5/USB_midi.c ****                     (USB_EP[USB_midi_in_ep].bufferSize - USB_EVENT_LENGTH))
 480:Generated_Source\PSoC5/USB_midi.c ****         {
 481:Generated_Source\PSoC5/USB_midi.c ****             if((ic < USB_EVENT_LENGTH) || (ic >= USB_MIDI_STATUS_MASK))
 482:Generated_Source\PSoC5/USB_midi.c ****             {
 483:Generated_Source\PSoC5/USB_midi.c ****                 USB_PrepareInBuffer(ic, midiMsg, ic, cable);
 484:Generated_Source\PSoC5/USB_midi.c ****             }
 485:Generated_Source\PSoC5/USB_midi.c ****             else
 486:Generated_Source\PSoC5/USB_midi.c ****             {   /* Only SysEx message is greater than 4 bytes */
 487:Generated_Source\PSoC5/USB_midi.c ****                 msgIndex = 0u;
 488:Generated_Source\PSoC5/USB_midi.c ****                 do
 489:Generated_Source\PSoC5/USB_midi.c ****                 {
ARM GAS  C:\Users\jwvance\AppData\Local\Temp\ccxTgFRe.s 			page 11


 490:Generated_Source\PSoC5/USB_midi.c ****                     USB_PrepareInBuffer(USB_MIDI_SYSEX, &midiMsg[msgIndex],
 491:Generated_Source\PSoC5/USB_midi.c ****                                                      USB_EVENT_BYTE3, cable);
 492:Generated_Source\PSoC5/USB_midi.c ****                     ic -= USB_EVENT_BYTE3;
 493:Generated_Source\PSoC5/USB_midi.c ****                     msgIndex += USB_EVENT_BYTE3;
 494:Generated_Source\PSoC5/USB_midi.c ****                     if (USB_midiInPointer >
 495:Generated_Source\PSoC5/USB_midi.c ****                         (USB_EP[USB_midi_in_ep].bufferSize - USB_EVENT_LENGTH))
 496:Generated_Source\PSoC5/USB_midi.c ****                     {
 497:Generated_Source\PSoC5/USB_midi.c ****                         USB_MIDI_IN_EP_Service();
 498:Generated_Source\PSoC5/USB_midi.c ****                         if(USB_midiInPointer > 
 499:Generated_Source\PSoC5/USB_midi.c ****                           (USB_EP[USB_midi_in_ep].bufferSize - USB_EVENT_LENGTH))
 500:Generated_Source\PSoC5/USB_midi.c ****                         {
 501:Generated_Source\PSoC5/USB_midi.c ****                             /* Error condition. HOST is not ready to receive this packet. */
 502:Generated_Source\PSoC5/USB_midi.c ****                             retError = USB_TRUE;
 503:Generated_Source\PSoC5/USB_midi.c ****                             break;
 504:Generated_Source\PSoC5/USB_midi.c ****                         }
 505:Generated_Source\PSoC5/USB_midi.c ****                     }
 506:Generated_Source\PSoC5/USB_midi.c ****                 }
 507:Generated_Source\PSoC5/USB_midi.c ****                 while(ic > USB_EVENT_BYTE3);
 508:Generated_Source\PSoC5/USB_midi.c **** 
 509:Generated_Source\PSoC5/USB_midi.c ****                 if(retError == USB_FALSE)
 510:Generated_Source\PSoC5/USB_midi.c ****                 {
 511:Generated_Source\PSoC5/USB_midi.c ****                     USB_PrepareInBuffer(USB_MIDI_EOSEX, midiMsg, ic, cable);
 512:Generated_Source\PSoC5/USB_midi.c ****                 }
 513:Generated_Source\PSoC5/USB_midi.c ****             }
 514:Generated_Source\PSoC5/USB_midi.c ****         }
 515:Generated_Source\PSoC5/USB_midi.c ****         else
 516:Generated_Source\PSoC5/USB_midi.c ****         {
 517:Generated_Source\PSoC5/USB_midi.c ****             /* Error condition. HOST is not ready to receive this packet. */
 518:Generated_Source\PSoC5/USB_midi.c ****             retError = USB_TRUE;
 519:Generated_Source\PSoC5/USB_midi.c ****         }
 520:Generated_Source\PSoC5/USB_midi.c **** 
 521:Generated_Source\PSoC5/USB_midi.c ****         #if (USB_MIDI_EXT_MODE >= USB_ONE_EXT_INTRF)
 522:Generated_Source\PSoC5/USB_midi.c ****             MIDI1_UART_EnableRxInt();
 523:Generated_Source\PSoC5/USB_midi.c ****             #if (USB_MIDI_EXT_MODE >= USB_TWO_EXT_INTRF)
 524:Generated_Source\PSoC5/USB_midi.c ****                 MIDI2_UART_EnableRxInt();
 525:Generated_Source\PSoC5/USB_midi.c ****             #endif /* (USB_MIDI_EXT_MODE >= USB_TWO_EXT_INTRF) */
 526:Generated_Source\PSoC5/USB_midi.c ****         #endif /* (USB_MIDI_EXT_MODE >= USB_ONE_EXT_INTRF) */
 527:Generated_Source\PSoC5/USB_midi.c **** 
 528:Generated_Source\PSoC5/USB_midi.c ****         return (retError);
 529:Generated_Source\PSoC5/USB_midi.c ****     }
 530:Generated_Source\PSoC5/USB_midi.c **** 
 531:Generated_Source\PSoC5/USB_midi.c **** 
 532:Generated_Source\PSoC5/USB_midi.c ****     /*******************************************************************************
 533:Generated_Source\PSoC5/USB_midi.c ****     * Function Name: USB_PrepareInBuffer
 534:Generated_Source\PSoC5/USB_midi.c ****     ********************************************************************************
 535:Generated_Source\PSoC5/USB_midi.c ****     *
 536:Generated_Source\PSoC5/USB_midi.c ****     * Summary:
 537:Generated_Source\PSoC5/USB_midi.c ****     *  Builds a USB MIDI event in the input endpoint buffer at the current pointer.
 538:Generated_Source\PSoC5/USB_midi.c ****     *  Puts one MIDI message into the USB MIDI In endpoint buffer.
 539:Generated_Source\PSoC5/USB_midi.c ****     *
 540:Generated_Source\PSoC5/USB_midi.c ****     * Parameters:
 541:Generated_Source\PSoC5/USB_midi.c ****     *  ic:   0 = No message (should never happen)
 542:Generated_Source\PSoC5/USB_midi.c ****     *        1 - 3 = Complete MIDI message at pMdat[0]
 543:Generated_Source\PSoC5/USB_midi.c ****     *        MIDI_SYSEX = Start or continuation of SysEx message
 544:Generated_Source\PSoC5/USB_midi.c ****     *                     (put eventLen bytes in buffer)
 545:Generated_Source\PSoC5/USB_midi.c ****     *        MIDI_EOSEX = End of SysEx message
 546:Generated_Source\PSoC5/USB_midi.c ****     *                     (put eventLen bytes in buffer,
ARM GAS  C:\Users\jwvance\AppData\Local\Temp\ccxTgFRe.s 			page 12


 547:Generated_Source\PSoC5/USB_midi.c ****     *                      and append MIDI_EOSEX)
 548:Generated_Source\PSoC5/USB_midi.c ****     *        MIDI_TUNEREQ = Tune Request message (single byte system common msg)
 549:Generated_Source\PSoC5/USB_midi.c ****     *        0xf8 - 0xff = Single byte real-time message
 550:Generated_Source\PSoC5/USB_midi.c ****     *
 551:Generated_Source\PSoC5/USB_midi.c ****     *  srcBuff: pointer to MIDI data
 552:Generated_Source\PSoC5/USB_midi.c ****     *  eventLen: number of bytes in MIDI event
 553:Generated_Source\PSoC5/USB_midi.c ****     *  cable: MIDI source port number
 554:Generated_Source\PSoC5/USB_midi.c ****     *
 555:Generated_Source\PSoC5/USB_midi.c ****     * Return:
 556:Generated_Source\PSoC5/USB_midi.c ****     *  None
 557:Generated_Source\PSoC5/USB_midi.c ****     *
 558:Generated_Source\PSoC5/USB_midi.c ****     * Global variables:
 559:Generated_Source\PSoC5/USB_midi.c ****     *  USB_midiInBuffer: This buffer is used for saving and combine the
 560:Generated_Source\PSoC5/USB_midi.c ****     *    received from UART(s) and(or) generated internally by
 561:Generated_Source\PSoC5/USB_midi.c ****     *    USB_PutUsbMidiIn() function messages.
 562:Generated_Source\PSoC5/USB_midi.c ****     *  USB_midiInPointer: Used as an index for midiInBuffer to
 563:Generated_Source\PSoC5/USB_midi.c ****     *     write data.
 564:Generated_Source\PSoC5/USB_midi.c ****     *
 565:Generated_Source\PSoC5/USB_midi.c ****     * Reentrant:
 566:Generated_Source\PSoC5/USB_midi.c ****     *  No
 567:Generated_Source\PSoC5/USB_midi.c ****     *
 568:Generated_Source\PSoC5/USB_midi.c ****     *******************************************************************************/
 569:Generated_Source\PSoC5/USB_midi.c ****     void USB_PrepareInBuffer(uint8 ic, const uint8 srcBuff[], uint8 eventLen, uint8 cable)
 570:Generated_Source\PSoC5/USB_midi.c ****                                                                  
 571:Generated_Source\PSoC5/USB_midi.c ****     {
  82              		.loc 1 571 0
  83              		.cfi_startproc
  84              		@ args = 0, pretend = 0, frame = 0
  85              		@ frame_needed = 0, uses_anonymous_args = 0
  86              	.LVL2:
  87 0000 F0B5     		push	{r4, r5, r6, r7, lr}
  88              		.cfi_def_cfa_offset 20
  89              		.cfi_offset 4, -20
  90              		.cfi_offset 5, -16
  91              		.cfi_offset 6, -12
  92              		.cfi_offset 7, -8
  93              		.cfi_offset 14, -4
 572:Generated_Source\PSoC5/USB_midi.c ****         uint8 srcBuffZero;
 573:Generated_Source\PSoC5/USB_midi.c ****         uint8 srcBuffOne;
 574:Generated_Source\PSoC5/USB_midi.c **** 
 575:Generated_Source\PSoC5/USB_midi.c ****         srcBuffZero = srcBuff[0u];
 576:Generated_Source\PSoC5/USB_midi.c ****         srcBuffOne  = srcBuff[1u];
 577:Generated_Source\PSoC5/USB_midi.c **** 
 578:Generated_Source\PSoC5/USB_midi.c ****         if (ic >= (USB_MIDI_STATUS_MASK | USB_MIDI_SINGLE_BYTE_MASK))
  94              		.loc 1 578 0
  95 0002 F728     		cmp	r0, #247
 575:Generated_Source\PSoC5/USB_midi.c ****         srcBuffOne  = srcBuff[1u];
  96              		.loc 1 575 0
  97 0004 0C78     		ldrb	r4, [r1]	@ zero_extendqisi2
  98              	.LVL3:
 576:Generated_Source\PSoC5/USB_midi.c **** 
  99              		.loc 1 576 0
 100 0006 4D78     		ldrb	r5, [r1, #1]	@ zero_extendqisi2
 101              	.LVL4:
 102              		.loc 1 578 0
 103 0008 1DD8     		bhi	.L25
 579:Generated_Source\PSoC5/USB_midi.c ****         {
ARM GAS  C:\Users\jwvance\AppData\Local\Temp\ccxTgFRe.s 			page 13


 580:Generated_Source\PSoC5/USB_midi.c ****             USB_midiInBuffer[USB_midiInPointer] = USB_SINGLE_BYTE | cable;
 581:Generated_Source\PSoC5/USB_midi.c ****             USB_midiInPointer++;
 582:Generated_Source\PSoC5/USB_midi.c ****             USB_midiInBuffer[USB_midiInPointer] = ic;
 583:Generated_Source\PSoC5/USB_midi.c ****             USB_midiInPointer++;
 584:Generated_Source\PSoC5/USB_midi.c ****             USB_midiInBuffer[USB_midiInPointer] = 0u;
 585:Generated_Source\PSoC5/USB_midi.c ****             USB_midiInPointer++;
 586:Generated_Source\PSoC5/USB_midi.c ****             USB_midiInBuffer[USB_midiInPointer] = 0u;
 587:Generated_Source\PSoC5/USB_midi.c ****             USB_midiInPointer++;
 588:Generated_Source\PSoC5/USB_midi.c ****         }
 589:Generated_Source\PSoC5/USB_midi.c ****         else if((ic < USB_EVENT_LENGTH) || (ic == USB_MIDI_SYSEX))
 104              		.loc 1 589 0
 105 000a 0328     		cmp	r0, #3
 106 000c 04D9     		bls	.L13
 107              		.loc 1 589 0 is_stmt 0 discriminator 1
 108 000e F028     		cmp	r0, #240
 109 0010 63D0     		beq	.L26
 590:Generated_Source\PSoC5/USB_midi.c ****         {
 591:Generated_Source\PSoC5/USB_midi.c ****             if(ic == USB_MIDI_SYSEX)
 592:Generated_Source\PSoC5/USB_midi.c ****             {
 593:Generated_Source\PSoC5/USB_midi.c ****                 USB_midiInBuffer[USB_midiInPointer] = USB_SYSEX | cable;
 594:Generated_Source\PSoC5/USB_midi.c ****                 USB_midiInPointer++;
 595:Generated_Source\PSoC5/USB_midi.c ****             }
 596:Generated_Source\PSoC5/USB_midi.c ****             else if (srcBuffZero < USB_MIDI_SYSEX)
 597:Generated_Source\PSoC5/USB_midi.c ****             {
 598:Generated_Source\PSoC5/USB_midi.c ****                 USB_midiInBuffer[USB_midiInPointer] = (srcBuffZero >> 4u) | cable;
 599:Generated_Source\PSoC5/USB_midi.c ****                 USB_midiInPointer++;
 600:Generated_Source\PSoC5/USB_midi.c ****             }
 601:Generated_Source\PSoC5/USB_midi.c ****             else if (srcBuffZero == USB_MIDI_TUNEREQ)
 602:Generated_Source\PSoC5/USB_midi.c ****             {
 603:Generated_Source\PSoC5/USB_midi.c ****                 USB_midiInBuffer[USB_midiInPointer] = USB_1BYTE_COMMON | cable;
 604:Generated_Source\PSoC5/USB_midi.c ****                 USB_midiInPointer++;
 605:Generated_Source\PSoC5/USB_midi.c ****             }
 606:Generated_Source\PSoC5/USB_midi.c ****             else if ((srcBuffZero == USB_MIDI_QFM) || (srcBuffZero == USB_MIDI_SONGSEL))
 607:Generated_Source\PSoC5/USB_midi.c ****             {
 608:Generated_Source\PSoC5/USB_midi.c ****                 USB_midiInBuffer[USB_midiInPointer] = USB_2BYTE_COMMON | cable;
 609:Generated_Source\PSoC5/USB_midi.c ****                 USB_midiInPointer++;
 610:Generated_Source\PSoC5/USB_midi.c ****             }
 611:Generated_Source\PSoC5/USB_midi.c ****             else if (srcBuffZero == USB_MIDI_SPP)
 612:Generated_Source\PSoC5/USB_midi.c ****             {
 613:Generated_Source\PSoC5/USB_midi.c ****                 USB_midiInBuffer[USB_midiInPointer] = USB_3BYTE_COMMON | cable;
 614:Generated_Source\PSoC5/USB_midi.c ****                 USB_midiInPointer++;
 615:Generated_Source\PSoC5/USB_midi.c ****             }
 616:Generated_Source\PSoC5/USB_midi.c ****             else
 617:Generated_Source\PSoC5/USB_midi.c ****             {
 618:Generated_Source\PSoC5/USB_midi.c ****             }
 619:Generated_Source\PSoC5/USB_midi.c **** 
 620:Generated_Source\PSoC5/USB_midi.c ****             USB_midiInBuffer[USB_midiInPointer] = srcBuffZero;
 621:Generated_Source\PSoC5/USB_midi.c ****             USB_midiInPointer++;
 622:Generated_Source\PSoC5/USB_midi.c ****             USB_midiInBuffer[USB_midiInPointer] = srcBuffOne;
 623:Generated_Source\PSoC5/USB_midi.c ****             USB_midiInPointer++;
 624:Generated_Source\PSoC5/USB_midi.c ****             USB_midiInBuffer[USB_midiInPointer] = srcBuff[2u];
 625:Generated_Source\PSoC5/USB_midi.c ****             USB_midiInPointer++;
 626:Generated_Source\PSoC5/USB_midi.c ****         }
 627:Generated_Source\PSoC5/USB_midi.c ****         else if (ic == USB_MIDI_EOSEX)
 110              		.loc 1 627 0 is_stmt 1
 111 0012 F728     		cmp	r0, #247
 112 0014 5BD0     		beq	.L27
ARM GAS  C:\Users\jwvance\AppData\Local\Temp\ccxTgFRe.s 			page 14


 113              	.LVL5:
 114              	.L10:
 115 0016 F0BD     		pop	{r4, r5, r6, r7, pc}
 116              	.LVL6:
 117              	.L13:
 596:Generated_Source\PSoC5/USB_midi.c ****             {
 118              		.loc 1 596 0
 119 0018 EF2C     		cmp	r4, #239
 120 001a 3AD9     		bls	.L28
 601:Generated_Source\PSoC5/USB_midi.c ****             {
 121              		.loc 1 601 0
 122 001c F62C     		cmp	r4, #246
 123 001e 00F09680 		beq	.L29
 606:Generated_Source\PSoC5/USB_midi.c ****             {
 124              		.loc 1 606 0
 125 0022 04F0FD02 		and	r2, r4, #253
 126              	.LVL7:
 127 0026 F12A     		cmp	r2, #241
 608:Generated_Source\PSoC5/USB_midi.c ****                 USB_midiInPointer++;
 128              		.loc 1 608 0
 129 0028 7048     		ldr	r0, .L31
 130              	.LVL8:
 131 002a 714A     		ldr	r2, .L31+4
 606:Generated_Source\PSoC5/USB_midi.c ****             {
 132              		.loc 1 606 0
 133 002c 00F08680 		beq	.L30
 611:Generated_Source\PSoC5/USB_midi.c ****             {
 134              		.loc 1 611 0
 135 0030 F22C     		cmp	r4, #242
 136 0032 38D1     		bne	.L15
 613:Generated_Source\PSoC5/USB_midi.c ****                 USB_midiInPointer++;
 137              		.loc 1 613 0
 138 0034 1778     		ldrb	r7, [r2]	@ zero_extendqisi2
 614:Generated_Source\PSoC5/USB_midi.c ****             }
 139              		.loc 1 614 0
 140 0036 1678     		ldrb	r6, [r2]	@ zero_extendqisi2
 613:Generated_Source\PSoC5/USB_midi.c ****                 USB_midiInPointer++;
 141              		.loc 1 613 0
 142 0038 43F00303 		orr	r3, r3, #3
 143              	.LVL9:
 614:Generated_Source\PSoC5/USB_midi.c ****             }
 144              		.loc 1 614 0
 145 003c 0136     		adds	r6, r6, #1
 146 003e F6B2     		uxtb	r6, r6
 613:Generated_Source\PSoC5/USB_midi.c ****                 USB_midiInPointer++;
 147              		.loc 1 613 0
 148 0040 C355     		strb	r3, [r0, r7]
 614:Generated_Source\PSoC5/USB_midi.c ****             }
 149              		.loc 1 614 0
 150 0042 1670     		strb	r6, [r2]
 151 0044 2FE0     		b	.L15
 152              	.LVL10:
 153              	.L25:
 580:Generated_Source\PSoC5/USB_midi.c ****             USB_midiInPointer++;
 154              		.loc 1 580 0
 155 0046 6A4A     		ldr	r2, .L31+4
 156              	.LVL11:
ARM GAS  C:\Users\jwvance\AppData\Local\Temp\ccxTgFRe.s 			page 15


 157 0048 684C     		ldr	r4, .L31
 158              	.LVL12:
 159 004a 1678     		ldrb	r6, [r2]	@ zero_extendqisi2
 581:Generated_Source\PSoC5/USB_midi.c ****             USB_midiInBuffer[USB_midiInPointer] = ic;
 160              		.loc 1 581 0
 161 004c 1178     		ldrb	r1, [r2]	@ zero_extendqisi2
 162              	.LVL13:
 584:Generated_Source\PSoC5/USB_midi.c ****             USB_midiInPointer++;
 163              		.loc 1 584 0
 164 004e 0025     		movs	r5, #0
 165              	.LVL14:
 581:Generated_Source\PSoC5/USB_midi.c ****             USB_midiInBuffer[USB_midiInPointer] = ic;
 166              		.loc 1 581 0
 167 0050 0131     		adds	r1, r1, #1
 168 0052 C9B2     		uxtb	r1, r1
 169 0054 1170     		strb	r1, [r2]
 170              	.LVL15:
 582:Generated_Source\PSoC5/USB_midi.c ****             USB_midiInPointer++;
 171              		.loc 1 582 0
 172 0056 1778     		ldrb	r7, [r2]	@ zero_extendqisi2
 583:Generated_Source\PSoC5/USB_midi.c ****             USB_midiInBuffer[USB_midiInPointer] = 0u;
 173              		.loc 1 583 0
 174 0058 1178     		ldrb	r1, [r2]	@ zero_extendqisi2
 580:Generated_Source\PSoC5/USB_midi.c ****             USB_midiInPointer++;
 175              		.loc 1 580 0
 176 005a 43F00F03 		orr	r3, r3, #15
 177              	.LVL16:
 583:Generated_Source\PSoC5/USB_midi.c ****             USB_midiInBuffer[USB_midiInPointer] = 0u;
 178              		.loc 1 583 0
 179 005e 0131     		adds	r1, r1, #1
 180 0060 C9B2     		uxtb	r1, r1
 181 0062 1170     		strb	r1, [r2]
 584:Generated_Source\PSoC5/USB_midi.c ****             USB_midiInPointer++;
 182              		.loc 1 584 0
 183 0064 92F800E0 		ldrb	lr, [r2]	@ zero_extendqisi2
 585:Generated_Source\PSoC5/USB_midi.c ****             USB_midiInBuffer[USB_midiInPointer] = 0u;
 184              		.loc 1 585 0
 185 0068 1178     		ldrb	r1, [r2]	@ zero_extendqisi2
 584:Generated_Source\PSoC5/USB_midi.c ****             USB_midiInPointer++;
 186              		.loc 1 584 0
 187 006a 5FFA8EFE 		uxtb	lr, lr
 585:Generated_Source\PSoC5/USB_midi.c ****             USB_midiInBuffer[USB_midiInPointer] = 0u;
 188              		.loc 1 585 0
 189 006e 0131     		adds	r1, r1, #1
 190 0070 C9B2     		uxtb	r1, r1
 191 0072 1170     		strb	r1, [r2]
 586:Generated_Source\PSoC5/USB_midi.c ****             USB_midiInPointer++;
 192              		.loc 1 586 0
 193 0074 92F800C0 		ldrb	ip, [r2]	@ zero_extendqisi2
 587:Generated_Source\PSoC5/USB_midi.c ****         }
 194              		.loc 1 587 0
 195 0078 1178     		ldrb	r1, [r2]	@ zero_extendqisi2
 586:Generated_Source\PSoC5/USB_midi.c ****             USB_midiInPointer++;
 196              		.loc 1 586 0
 197 007a 5FFA8CFC 		uxtb	ip, ip
 587:Generated_Source\PSoC5/USB_midi.c ****         }
 198              		.loc 1 587 0
ARM GAS  C:\Users\jwvance\AppData\Local\Temp\ccxTgFRe.s 			page 16


 199 007e 0131     		adds	r1, r1, #1
 200 0080 C9B2     		uxtb	r1, r1
 580:Generated_Source\PSoC5/USB_midi.c ****             USB_midiInPointer++;
 201              		.loc 1 580 0
 202 0082 A355     		strb	r3, [r4, r6]
 203              	.LVL17:
 587:Generated_Source\PSoC5/USB_midi.c ****         }
 204              		.loc 1 587 0
 205 0084 1170     		strb	r1, [r2]
 582:Generated_Source\PSoC5/USB_midi.c ****             USB_midiInPointer++;
 206              		.loc 1 582 0
 207 0086 E055     		strb	r0, [r4, r7]
 584:Generated_Source\PSoC5/USB_midi.c ****             USB_midiInPointer++;
 208              		.loc 1 584 0
 209 0088 04F80E50 		strb	r5, [r4, lr]
 586:Generated_Source\PSoC5/USB_midi.c ****             USB_midiInPointer++;
 210              		.loc 1 586 0
 211 008c 04F80C50 		strb	r5, [r4, ip]
 212 0090 F0BD     		pop	{r4, r5, r6, r7, pc}
 213              	.LVL18:
 214              	.L28:
 598:Generated_Source\PSoC5/USB_midi.c ****                 USB_midiInPointer++;
 215              		.loc 1 598 0
 216 0092 574A     		ldr	r2, .L31+4
 217              	.LVL19:
 218 0094 5548     		ldr	r0, .L31
 219              	.LVL20:
 220 0096 1778     		ldrb	r7, [r2]	@ zero_extendqisi2
 599:Generated_Source\PSoC5/USB_midi.c ****             }
 221              		.loc 1 599 0
 222 0098 1678     		ldrb	r6, [r2]	@ zero_extendqisi2
 598:Generated_Source\PSoC5/USB_midi.c ****                 USB_midiInPointer++;
 223              		.loc 1 598 0
 224 009a 43EA1413 		orr	r3, r3, r4, lsr #4
 225              	.LVL21:
 599:Generated_Source\PSoC5/USB_midi.c ****             }
 226              		.loc 1 599 0
 227 009e 0136     		adds	r6, r6, #1
 228 00a0 F6B2     		uxtb	r6, r6
 598:Generated_Source\PSoC5/USB_midi.c ****                 USB_midiInPointer++;
 229              		.loc 1 598 0
 230 00a2 C355     		strb	r3, [r0, r7]
 599:Generated_Source\PSoC5/USB_midi.c ****             }
 231              		.loc 1 599 0
 232 00a4 1670     		strb	r6, [r2]
 233              	.L15:
 620:Generated_Source\PSoC5/USB_midi.c ****             USB_midiInPointer++;
 234              		.loc 1 620 0
 235 00a6 1678     		ldrb	r6, [r2]	@ zero_extendqisi2
 621:Generated_Source\PSoC5/USB_midi.c ****             USB_midiInBuffer[USB_midiInPointer] = srcBuffOne;
 236              		.loc 1 621 0
 237 00a8 1378     		ldrb	r3, [r2]	@ zero_extendqisi2
 620:Generated_Source\PSoC5/USB_midi.c ****             USB_midiInPointer++;
 238              		.loc 1 620 0
 239 00aa 8455     		strb	r4, [r0, r6]
 621:Generated_Source\PSoC5/USB_midi.c ****             USB_midiInBuffer[USB_midiInPointer] = srcBuffOne;
 240              		.loc 1 621 0
ARM GAS  C:\Users\jwvance\AppData\Local\Temp\ccxTgFRe.s 			page 17


 241 00ac 0133     		adds	r3, r3, #1
 242 00ae DBB2     		uxtb	r3, r3
 243 00b0 1370     		strb	r3, [r2]
 622:Generated_Source\PSoC5/USB_midi.c ****             USB_midiInPointer++;
 244              		.loc 1 622 0
 245 00b2 1478     		ldrb	r4, [r2]	@ zero_extendqisi2
 246              	.LVL22:
 623:Generated_Source\PSoC5/USB_midi.c ****             USB_midiInBuffer[USB_midiInPointer] = srcBuff[2u];
 247              		.loc 1 623 0
 248 00b4 1378     		ldrb	r3, [r2]	@ zero_extendqisi2
 622:Generated_Source\PSoC5/USB_midi.c ****             USB_midiInPointer++;
 249              		.loc 1 622 0
 250 00b6 0555     		strb	r5, [r0, r4]
 251              	.LVL23:
 623:Generated_Source\PSoC5/USB_midi.c ****             USB_midiInBuffer[USB_midiInPointer] = srcBuff[2u];
 252              		.loc 1 623 0
 253 00b8 0133     		adds	r3, r3, #1
 254 00ba DBB2     		uxtb	r3, r3
 255 00bc 1370     		strb	r3, [r2]
 624:Generated_Source\PSoC5/USB_midi.c ****             USB_midiInPointer++;
 256              		.loc 1 624 0
 257 00be 1478     		ldrb	r4, [r2]	@ zero_extendqisi2
 625:Generated_Source\PSoC5/USB_midi.c ****         }
 258              		.loc 1 625 0
 259 00c0 1378     		ldrb	r3, [r2]	@ zero_extendqisi2
 624:Generated_Source\PSoC5/USB_midi.c ****             USB_midiInPointer++;
 260              		.loc 1 624 0
 261 00c2 8978     		ldrb	r1, [r1, #2]	@ zero_extendqisi2
 262              	.LVL24:
 625:Generated_Source\PSoC5/USB_midi.c ****         }
 263              		.loc 1 625 0
 264 00c4 0133     		adds	r3, r3, #1
 265 00c6 DBB2     		uxtb	r3, r3
 624:Generated_Source\PSoC5/USB_midi.c ****             USB_midiInPointer++;
 266              		.loc 1 624 0
 267 00c8 0155     		strb	r1, [r0, r4]
 625:Generated_Source\PSoC5/USB_midi.c ****         }
 268              		.loc 1 625 0
 269 00ca 1370     		strb	r3, [r2]
 270 00cc F0BD     		pop	{r4, r5, r6, r7, pc}
 271              	.LVL25:
 272              	.L27:
 628:Generated_Source\PSoC5/USB_midi.c ****         {
 629:Generated_Source\PSoC5/USB_midi.c ****             switch (eventLen)
 273              		.loc 1 629 0
 274 00ce 012A     		cmp	r2, #1
 275 00d0 67D0     		beq	.L19
 276 00d2 0DD3     		bcc	.L20
 277 00d4 022A     		cmp	r2, #2
 278 00d6 45D0     		beq	.L21
 279 00d8 F0BD     		pop	{r4, r5, r6, r7, pc}
 280              	.LVL26:
 281              	.L26:
 593:Generated_Source\PSoC5/USB_midi.c ****                 USB_midiInPointer++;
 282              		.loc 1 593 0
 283 00da 454A     		ldr	r2, .L31+4
 284              	.LVL27:
ARM GAS  C:\Users\jwvance\AppData\Local\Temp\ccxTgFRe.s 			page 18


 285 00dc 4348     		ldr	r0, .L31
 286              	.LVL28:
 287 00de 1778     		ldrb	r7, [r2]	@ zero_extendqisi2
 594:Generated_Source\PSoC5/USB_midi.c ****             }
 288              		.loc 1 594 0
 289 00e0 1678     		ldrb	r6, [r2]	@ zero_extendqisi2
 593:Generated_Source\PSoC5/USB_midi.c ****                 USB_midiInPointer++;
 290              		.loc 1 593 0
 291 00e2 43F00403 		orr	r3, r3, #4
 292              	.LVL29:
 594:Generated_Source\PSoC5/USB_midi.c ****             }
 293              		.loc 1 594 0
 294 00e6 0136     		adds	r6, r6, #1
 295 00e8 F6B2     		uxtb	r6, r6
 593:Generated_Source\PSoC5/USB_midi.c ****                 USB_midiInPointer++;
 296              		.loc 1 593 0
 297 00ea C355     		strb	r3, [r0, r7]
 594:Generated_Source\PSoC5/USB_midi.c ****             }
 298              		.loc 1 594 0
 299 00ec 1670     		strb	r6, [r2]
 300 00ee DAE7     		b	.L15
 301              	.LVL30:
 302              	.L20:
 630:Generated_Source\PSoC5/USB_midi.c ****             {
 631:Generated_Source\PSoC5/USB_midi.c ****                 case 0u:
 632:Generated_Source\PSoC5/USB_midi.c ****                     USB_midiInBuffer[USB_midiInPointer] =
 303              		.loc 1 632 0
 304 00f0 3F4A     		ldr	r2, .L31+4
 305              	.LVL31:
 306 00f2 3E4C     		ldr	r4, .L31
 307              	.LVL32:
 308 00f4 1778     		ldrb	r7, [r2]	@ zero_extendqisi2
 633:Generated_Source\PSoC5/USB_midi.c ****                                                                         USB_SYSEX_ENDS_WITH1 | cabl
 634:Generated_Source\PSoC5/USB_midi.c ****                     USB_midiInPointer++;
 309              		.loc 1 634 0
 310 00f6 1178     		ldrb	r1, [r2]	@ zero_extendqisi2
 311              	.LVL33:
 635:Generated_Source\PSoC5/USB_midi.c ****                     USB_midiInBuffer[USB_midiInPointer] = USB_MIDI_EOSEX;
 636:Generated_Source\PSoC5/USB_midi.c ****                     USB_midiInPointer++;
 637:Generated_Source\PSoC5/USB_midi.c ****                     USB_midiInBuffer[USB_midiInPointer] = 0u;
 312              		.loc 1 637 0
 313 00f8 0025     		movs	r5, #0
 314              	.LVL34:
 634:Generated_Source\PSoC5/USB_midi.c ****                     USB_midiInBuffer[USB_midiInPointer] = USB_MIDI_EOSEX;
 315              		.loc 1 634 0
 316 00fa 0131     		adds	r1, r1, #1
 317 00fc C9B2     		uxtb	r1, r1
 318 00fe 1170     		strb	r1, [r2]
 319              	.LVL35:
 635:Generated_Source\PSoC5/USB_midi.c ****                     USB_midiInBuffer[USB_midiInPointer] = USB_MIDI_EOSEX;
 320              		.loc 1 635 0
 321 0100 1678     		ldrb	r6, [r2]	@ zero_extendqisi2
 636:Generated_Source\PSoC5/USB_midi.c ****                     USB_midiInBuffer[USB_midiInPointer] = 0u;
 322              		.loc 1 636 0
 323 0102 1178     		ldrb	r1, [r2]	@ zero_extendqisi2
 632:Generated_Source\PSoC5/USB_midi.c ****                                                                         USB_SYSEX_ENDS_WITH1 | cabl
 324              		.loc 1 632 0
ARM GAS  C:\Users\jwvance\AppData\Local\Temp\ccxTgFRe.s 			page 19


 325 0104 43F00503 		orr	r3, r3, #5
 326              	.LVL36:
 636:Generated_Source\PSoC5/USB_midi.c ****                     USB_midiInBuffer[USB_midiInPointer] = 0u;
 327              		.loc 1 636 0
 328 0108 0131     		adds	r1, r1, #1
 329 010a C9B2     		uxtb	r1, r1
 330 010c 1170     		strb	r1, [r2]
 331              		.loc 1 637 0
 332 010e 92F800E0 		ldrb	lr, [r2]	@ zero_extendqisi2
 638:Generated_Source\PSoC5/USB_midi.c ****                     USB_midiInPointer++;
 333              		.loc 1 638 0
 334 0112 1178     		ldrb	r1, [r2]	@ zero_extendqisi2
 637:Generated_Source\PSoC5/USB_midi.c ****                     USB_midiInPointer++;
 335              		.loc 1 637 0
 336 0114 5FFA8EFE 		uxtb	lr, lr
 337              		.loc 1 638 0
 338 0118 0131     		adds	r1, r1, #1
 339 011a C9B2     		uxtb	r1, r1
 340 011c 1170     		strb	r1, [r2]
 639:Generated_Source\PSoC5/USB_midi.c ****                     USB_midiInBuffer[USB_midiInPointer] = 0u;
 341              		.loc 1 639 0
 342 011e 92F800C0 		ldrb	ip, [r2]	@ zero_extendqisi2
 640:Generated_Source\PSoC5/USB_midi.c ****                     USB_midiInPointer++;
 343              		.loc 1 640 0
 344 0122 1178     		ldrb	r1, [r2]	@ zero_extendqisi2
 639:Generated_Source\PSoC5/USB_midi.c ****                     USB_midiInBuffer[USB_midiInPointer] = 0u;
 345              		.loc 1 639 0
 346 0124 5FFA8CFC 		uxtb	ip, ip
 347              		.loc 1 640 0
 348 0128 0131     		adds	r1, r1, #1
 349 012a C9B2     		uxtb	r1, r1
 632:Generated_Source\PSoC5/USB_midi.c ****                                                                         USB_SYSEX_ENDS_WITH1 | cabl
 350              		.loc 1 632 0
 351 012c E355     		strb	r3, [r4, r7]
 352              	.LVL37:
 353              		.loc 1 640 0
 354 012e 1170     		strb	r1, [r2]
 635:Generated_Source\PSoC5/USB_midi.c ****                     USB_midiInPointer++;
 355              		.loc 1 635 0
 356 0130 A055     		strb	r0, [r4, r6]
 637:Generated_Source\PSoC5/USB_midi.c ****                     USB_midiInPointer++;
 357              		.loc 1 637 0
 358 0132 04F80E50 		strb	r5, [r4, lr]
 639:Generated_Source\PSoC5/USB_midi.c ****                     USB_midiInPointer++;
 359              		.loc 1 639 0
 360 0136 04F80C50 		strb	r5, [r4, ip]
 641:Generated_Source\PSoC5/USB_midi.c ****                     break;
 361              		.loc 1 641 0
 362 013a F0BD     		pop	{r4, r5, r6, r7, pc}
 363              	.LVL38:
 364              	.L30:
 608:Generated_Source\PSoC5/USB_midi.c ****                 USB_midiInPointer++;
 365              		.loc 1 608 0
 366 013c 1778     		ldrb	r7, [r2]	@ zero_extendqisi2
 609:Generated_Source\PSoC5/USB_midi.c ****             }
 367              		.loc 1 609 0
 368 013e 1678     		ldrb	r6, [r2]	@ zero_extendqisi2
ARM GAS  C:\Users\jwvance\AppData\Local\Temp\ccxTgFRe.s 			page 20


 608:Generated_Source\PSoC5/USB_midi.c ****                 USB_midiInPointer++;
 369              		.loc 1 608 0
 370 0140 43F00203 		orr	r3, r3, #2
 371              	.LVL39:
 609:Generated_Source\PSoC5/USB_midi.c ****             }
 372              		.loc 1 609 0
 373 0144 0136     		adds	r6, r6, #1
 374 0146 F6B2     		uxtb	r6, r6
 608:Generated_Source\PSoC5/USB_midi.c ****                 USB_midiInPointer++;
 375              		.loc 1 608 0
 376 0148 C355     		strb	r3, [r0, r7]
 609:Generated_Source\PSoC5/USB_midi.c ****             }
 377              		.loc 1 609 0
 378 014a 1670     		strb	r6, [r2]
 379 014c ABE7     		b	.L15
 380              	.LVL40:
 381              	.L29:
 603:Generated_Source\PSoC5/USB_midi.c ****                 USB_midiInPointer++;
 382              		.loc 1 603 0
 383 014e 284A     		ldr	r2, .L31+4
 384              	.LVL41:
 385 0150 2648     		ldr	r0, .L31
 386              	.LVL42:
 387 0152 1778     		ldrb	r7, [r2]	@ zero_extendqisi2
 604:Generated_Source\PSoC5/USB_midi.c ****             }
 388              		.loc 1 604 0
 389 0154 1678     		ldrb	r6, [r2]	@ zero_extendqisi2
 603:Generated_Source\PSoC5/USB_midi.c ****                 USB_midiInPointer++;
 390              		.loc 1 603 0
 391 0156 43F00503 		orr	r3, r3, #5
 392              	.LVL43:
 604:Generated_Source\PSoC5/USB_midi.c ****             }
 393              		.loc 1 604 0
 394 015a 0136     		adds	r6, r6, #1
 395 015c F6B2     		uxtb	r6, r6
 603:Generated_Source\PSoC5/USB_midi.c ****                 USB_midiInPointer++;
 396              		.loc 1 603 0
 397 015e C355     		strb	r3, [r0, r7]
 604:Generated_Source\PSoC5/USB_midi.c ****             }
 398              		.loc 1 604 0
 399 0160 1670     		strb	r6, [r2]
 400 0162 A0E7     		b	.L15
 401              	.LVL44:
 402              	.L21:
 642:Generated_Source\PSoC5/USB_midi.c ****                 case 1u:
 643:Generated_Source\PSoC5/USB_midi.c ****                     USB_midiInBuffer[USB_midiInPointer] =
 644:Generated_Source\PSoC5/USB_midi.c ****                                                                         USB_SYSEX_ENDS_WITH2 | cabl
 645:Generated_Source\PSoC5/USB_midi.c ****                     USB_midiInPointer++;
 646:Generated_Source\PSoC5/USB_midi.c ****                     USB_midiInBuffer[USB_midiInPointer] = srcBuffZero;
 647:Generated_Source\PSoC5/USB_midi.c ****                     USB_midiInPointer++;
 648:Generated_Source\PSoC5/USB_midi.c ****                     USB_midiInBuffer[USB_midiInPointer] = USB_MIDI_EOSEX;
 649:Generated_Source\PSoC5/USB_midi.c ****                     USB_midiInPointer++;
 650:Generated_Source\PSoC5/USB_midi.c ****                     USB_midiInBuffer[USB_midiInPointer] = 0u;
 651:Generated_Source\PSoC5/USB_midi.c ****                     USB_midiInPointer++;
 652:Generated_Source\PSoC5/USB_midi.c ****                     break;
 653:Generated_Source\PSoC5/USB_midi.c ****                 case 2u:
 654:Generated_Source\PSoC5/USB_midi.c ****                     USB_midiInBuffer[USB_midiInPointer] =
ARM GAS  C:\Users\jwvance\AppData\Local\Temp\ccxTgFRe.s 			page 21


 403              		.loc 1 654 0
 404 0164 224A     		ldr	r2, .L31+4
 405              	.LVL45:
 406 0166 2149     		ldr	r1, .L31
 407              	.LVL46:
 408 0168 92F800E0 		ldrb	lr, [r2]	@ zero_extendqisi2
 655:Generated_Source\PSoC5/USB_midi.c ****                                                                         USB_SYSEX_ENDS_WITH3 | cabl
 656:Generated_Source\PSoC5/USB_midi.c ****                     USB_midiInPointer++;
 409              		.loc 1 656 0
 410 016c 1678     		ldrb	r6, [r2]	@ zero_extendqisi2
 654:Generated_Source\PSoC5/USB_midi.c ****                                                                         USB_SYSEX_ENDS_WITH3 | cabl
 411              		.loc 1 654 0
 412 016e 43F00703 		orr	r3, r3, #7
 413              	.LVL47:
 414              		.loc 1 656 0
 415 0172 0136     		adds	r6, r6, #1
 416 0174 F6B2     		uxtb	r6, r6
 417 0176 1670     		strb	r6, [r2]
 657:Generated_Source\PSoC5/USB_midi.c ****                     USB_midiInBuffer[USB_midiInPointer] = srcBuffZero;
 418              		.loc 1 657 0
 419 0178 1778     		ldrb	r7, [r2]	@ zero_extendqisi2
 658:Generated_Source\PSoC5/USB_midi.c ****                     USB_midiInPointer++;
 420              		.loc 1 658 0
 421 017a 1678     		ldrb	r6, [r2]	@ zero_extendqisi2
 654:Generated_Source\PSoC5/USB_midi.c ****                                                                         USB_SYSEX_ENDS_WITH3 | cabl
 422              		.loc 1 654 0
 423 017c 01F80E30 		strb	r3, [r1, lr]
 424              		.loc 1 658 0
 425 0180 731C     		adds	r3, r6, #1
 426 0182 DBB2     		uxtb	r3, r3
 427 0184 1370     		strb	r3, [r2]
 659:Generated_Source\PSoC5/USB_midi.c ****                     USB_midiInBuffer[USB_midiInPointer] = srcBuffOne;
 428              		.loc 1 659 0
 429 0186 1678     		ldrb	r6, [r2]	@ zero_extendqisi2
 660:Generated_Source\PSoC5/USB_midi.c ****                     USB_midiInPointer++;
 430              		.loc 1 660 0
 431 0188 1378     		ldrb	r3, [r2]	@ zero_extendqisi2
 657:Generated_Source\PSoC5/USB_midi.c ****                     USB_midiInPointer++;
 432              		.loc 1 657 0
 433 018a CC55     		strb	r4, [r1, r7]
 434              		.loc 1 660 0
 435 018c 0133     		adds	r3, r3, #1
 436 018e DBB2     		uxtb	r3, r3
 437 0190 1370     		strb	r3, [r2]
 661:Generated_Source\PSoC5/USB_midi.c ****                     USB_midiInBuffer[USB_midiInPointer] = USB_MIDI_EOSEX;
 438              		.loc 1 661 0
 439 0192 1478     		ldrb	r4, [r2]	@ zero_extendqisi2
 440              	.LVL48:
 662:Generated_Source\PSoC5/USB_midi.c ****                     USB_midiInPointer++;
 441              		.loc 1 662 0
 442 0194 1378     		ldrb	r3, [r2]	@ zero_extendqisi2
 659:Generated_Source\PSoC5/USB_midi.c ****                     USB_midiInPointer++;
 443              		.loc 1 659 0
 444 0196 8D55     		strb	r5, [r1, r6]
 445              	.LVL49:
 446              		.loc 1 662 0
 447 0198 0133     		adds	r3, r3, #1
ARM GAS  C:\Users\jwvance\AppData\Local\Temp\ccxTgFRe.s 			page 22


 448 019a DBB2     		uxtb	r3, r3
 661:Generated_Source\PSoC5/USB_midi.c ****                     USB_midiInBuffer[USB_midiInPointer] = USB_MIDI_EOSEX;
 449              		.loc 1 661 0
 450 019c 0855     		strb	r0, [r1, r4]
 451              		.loc 1 662 0
 452 019e 1370     		strb	r3, [r2]
 663:Generated_Source\PSoC5/USB_midi.c ****                     break;
 453              		.loc 1 663 0
 454 01a0 39E7     		b	.L10
 455              	.LVL50:
 456              	.L19:
 643:Generated_Source\PSoC5/USB_midi.c ****                                                                         USB_SYSEX_ENDS_WITH2 | cabl
 457              		.loc 1 643 0
 458 01a2 134A     		ldr	r2, .L31+4
 459              	.LVL51:
 460 01a4 43F0060C 		orr	ip, r3, #6
 461 01a8 92F800E0 		ldrb	lr, [r2]	@ zero_extendqisi2
 645:Generated_Source\PSoC5/USB_midi.c ****                     USB_midiInBuffer[USB_midiInPointer] = srcBuffZero;
 462              		.loc 1 645 0
 463 01ac 1178     		ldrb	r1, [r2]	@ zero_extendqisi2
 464              	.LVL52:
 643:Generated_Source\PSoC5/USB_midi.c ****                                                                         USB_SYSEX_ENDS_WITH2 | cabl
 465              		.loc 1 643 0
 466 01ae 0F4D     		ldr	r5, .L31
 467              	.LVL53:
 645:Generated_Source\PSoC5/USB_midi.c ****                     USB_midiInBuffer[USB_midiInPointer] = srcBuffZero;
 468              		.loc 1 645 0
 469 01b0 0131     		adds	r1, r1, #1
 470 01b2 C9B2     		uxtb	r1, r1
 471 01b4 1170     		strb	r1, [r2]
 646:Generated_Source\PSoC5/USB_midi.c ****                     USB_midiInPointer++;
 472              		.loc 1 646 0
 473 01b6 1778     		ldrb	r7, [r2]	@ zero_extendqisi2
 647:Generated_Source\PSoC5/USB_midi.c ****                     USB_midiInBuffer[USB_midiInPointer] = USB_MIDI_EOSEX;
 474              		.loc 1 647 0
 475 01b8 1178     		ldrb	r1, [r2]	@ zero_extendqisi2
 643:Generated_Source\PSoC5/USB_midi.c ****                                                                         USB_SYSEX_ENDS_WITH2 | cabl
 476              		.loc 1 643 0
 477 01ba 05F80EC0 		strb	ip, [r5, lr]
 478              	.LVL54:
 647:Generated_Source\PSoC5/USB_midi.c ****                     USB_midiInBuffer[USB_midiInPointer] = USB_MIDI_EOSEX;
 479              		.loc 1 647 0
 480 01be 0131     		adds	r1, r1, #1
 481 01c0 C9B2     		uxtb	r1, r1
 482 01c2 1170     		strb	r1, [r2]
 648:Generated_Source\PSoC5/USB_midi.c ****                     USB_midiInPointer++;
 483              		.loc 1 648 0
 484 01c4 1178     		ldrb	r1, [r2]	@ zero_extendqisi2
 649:Generated_Source\PSoC5/USB_midi.c ****                     USB_midiInBuffer[USB_midiInPointer] = 0u;
 485              		.loc 1 649 0
 486 01c6 1378     		ldrb	r3, [r2]	@ zero_extendqisi2
 487              	.LVL55:
 650:Generated_Source\PSoC5/USB_midi.c ****                     USB_midiInPointer++;
 488              		.loc 1 650 0
 489 01c8 0026     		movs	r6, #0
 649:Generated_Source\PSoC5/USB_midi.c ****                     USB_midiInBuffer[USB_midiInPointer] = 0u;
 490              		.loc 1 649 0
ARM GAS  C:\Users\jwvance\AppData\Local\Temp\ccxTgFRe.s 			page 23


 491 01ca 0133     		adds	r3, r3, #1
 492 01cc DBB2     		uxtb	r3, r3
 493 01ce 1370     		strb	r3, [r2]
 650:Generated_Source\PSoC5/USB_midi.c ****                     USB_midiInPointer++;
 494              		.loc 1 650 0
 495 01d0 92F800E0 		ldrb	lr, [r2]	@ zero_extendqisi2
 651:Generated_Source\PSoC5/USB_midi.c ****                     break;
 496              		.loc 1 651 0
 497 01d4 1378     		ldrb	r3, [r2]	@ zero_extendqisi2
 650:Generated_Source\PSoC5/USB_midi.c ****                     USB_midiInPointer++;
 498              		.loc 1 650 0
 499 01d6 5FFA8EFE 		uxtb	lr, lr
 651:Generated_Source\PSoC5/USB_midi.c ****                     break;
 500              		.loc 1 651 0
 501 01da 0133     		adds	r3, r3, #1
 502 01dc DBB2     		uxtb	r3, r3
 646:Generated_Source\PSoC5/USB_midi.c ****                     USB_midiInPointer++;
 503              		.loc 1 646 0
 504 01de EC55     		strb	r4, [r5, r7]
 651:Generated_Source\PSoC5/USB_midi.c ****                     break;
 505              		.loc 1 651 0
 506 01e0 1370     		strb	r3, [r2]
 648:Generated_Source\PSoC5/USB_midi.c ****                     USB_midiInPointer++;
 507              		.loc 1 648 0
 508 01e2 6854     		strb	r0, [r5, r1]
 650:Generated_Source\PSoC5/USB_midi.c ****                     USB_midiInPointer++;
 509              		.loc 1 650 0
 510 01e4 05F80E60 		strb	r6, [r5, lr]
 652:Generated_Source\PSoC5/USB_midi.c ****                 case 2u:
 511              		.loc 1 652 0
 512 01e8 F0BD     		pop	{r4, r5, r6, r7, pc}
 513              	.LVL56:
 514              	.L32:
 515 01ea 00BF     		.align	2
 516              	.L31:
 517 01ec 00000000 		.word	USB_midiInBuffer
 518 01f0 00000000 		.word	USB_midiInPointer
 519              		.cfi_endproc
 520              	.LFE5:
 521              		.size	USB_PrepareInBuffer, .-USB_PrepareInBuffer
 522              		.section	.text.USB_PutUsbMidiIn,"ax",%progbits
 523              		.align	2
 524              		.global	USB_PutUsbMidiIn
 525              		.thumb
 526              		.thumb_func
 527              		.type	USB_PutUsbMidiIn, %function
 528              	USB_PutUsbMidiIn:
 529              	.LFB4:
 461:Generated_Source\PSoC5/USB_midi.c ****         uint8 retError = USB_FALSE;
 530              		.loc 1 461 0
 531              		.cfi_startproc
 532              		@ args = 0, pretend = 0, frame = 8
 533              		@ frame_needed = 0, uses_anonymous_args = 0
 534              	.LVL57:
 535 0000 2DE9F04F 		push	{r4, r5, r6, r7, r8, r9, r10, fp, lr}
 536              		.cfi_def_cfa_offset 36
 537              		.cfi_offset 4, -36
ARM GAS  C:\Users\jwvance\AppData\Local\Temp\ccxTgFRe.s 			page 24


 538              		.cfi_offset 5, -32
 539              		.cfi_offset 6, -28
 540              		.cfi_offset 7, -24
 541              		.cfi_offset 8, -20
 542              		.cfi_offset 9, -16
 543              		.cfi_offset 10, -12
 544              		.cfi_offset 11, -8
 545              		.cfi_offset 14, -4
 473:Generated_Source\PSoC5/USB_midi.c ****                     (USB_EP[USB_midi_in_ep].bufferSize - USB_EVENT_LENGTH))
 546              		.loc 1 473 0
 547 0004 374F     		ldr	r7, .L50
 474:Generated_Source\PSoC5/USB_midi.c ****         {
 548              		.loc 1 474 0
 549 0006 384D     		ldr	r5, .L50+4
 461:Generated_Source\PSoC5/USB_midi.c ****         uint8 retError = USB_FALSE;
 550              		.loc 1 461 0
 551 0008 83B0     		sub	sp, sp, #12
 552              		.cfi_def_cfa_offset 48
 461:Generated_Source\PSoC5/USB_midi.c ****         uint8 retError = USB_FALSE;
 553              		.loc 1 461 0
 554 000a 9046     		mov	r8, r2
 555 000c 0446     		mov	r4, r0
 556 000e 0191     		str	r1, [sp, #4]
 467:Generated_Source\PSoC5/USB_midi.c ****             #if (USB_MIDI_EXT_MODE >= USB_TWO_EXT_INTRF)
 557              		.loc 1 467 0
 558 0010 FFF7FEFF 		bl	MIDI1_UART_DisableRxInt
 559              	.LVL58:
 469:Generated_Source\PSoC5/USB_midi.c ****             #endif /* (USB_MIDI_EXT_MODE >= USB_TWO_EXT_INTRF) */
 560              		.loc 1 469 0
 561 0014 FFF7FEFF 		bl	MIDI2_UART_DisableRxInt
 562              	.LVL59:
 473:Generated_Source\PSoC5/USB_midi.c ****                     (USB_EP[USB_midi_in_ep].bufferSize - USB_EVENT_LENGTH))
 563              		.loc 1 473 0
 564 0018 3A78     		ldrb	r2, [r7]	@ zero_extendqisi2
 474:Generated_Source\PSoC5/USB_midi.c ****         {
 565              		.loc 1 474 0
 566 001a 2B78     		ldrb	r3, [r5]	@ zero_extendqisi2
 567 001c 334E     		ldr	r6, .L50+8
 568 001e 03EB4303 		add	r3, r3, r3, lsl #1
 569 0022 06EB8303 		add	r3, r6, r3, lsl #2
 570 0026 1B89     		ldrh	r3, [r3, #8]
 571 0028 9BB2     		uxth	r3, r3
 572 002a 043B     		subs	r3, r3, #4
 473:Generated_Source\PSoC5/USB_midi.c ****                     (USB_EP[USB_midi_in_ep].bufferSize - USB_EVENT_LENGTH))
 573              		.loc 1 473 0
 574 002c 9A42     		cmp	r2, r3
 575 002e 4DD8     		bhi	.L47
 576              	.L34:
 478:Generated_Source\PSoC5/USB_midi.c ****                     (USB_EP[USB_midi_in_ep].bufferSize - USB_EVENT_LENGTH))
 577              		.loc 1 478 0
 578 0030 3A78     		ldrb	r2, [r7]	@ zero_extendqisi2
 479:Generated_Source\PSoC5/USB_midi.c ****         {
 579              		.loc 1 479 0
 580 0032 2B78     		ldrb	r3, [r5]	@ zero_extendqisi2
 581 0034 03EB4303 		add	r3, r3, r3, lsl #1
 582 0038 06EB8303 		add	r3, r6, r3, lsl #2
 583 003c 1B89     		ldrh	r3, [r3, #8]
ARM GAS  C:\Users\jwvance\AppData\Local\Temp\ccxTgFRe.s 			page 25


 584 003e 9BB2     		uxth	r3, r3
 585 0040 043B     		subs	r3, r3, #4
 478:Generated_Source\PSoC5/USB_midi.c ****                     (USB_EP[USB_midi_in_ep].bufferSize - USB_EVENT_LENGTH))
 586              		.loc 1 478 0
 587 0042 9A42     		cmp	r2, r3
 588 0044 31D8     		bhi	.L35
 481:Generated_Source\PSoC5/USB_midi.c ****             {
 589              		.loc 1 481 0
 590 0046 231F     		subs	r3, r4, #4
 591 0048 DBB2     		uxtb	r3, r3
 592 004a EB2B     		cmp	r3, #235
 593 004c 41D8     		bhi	.L48
 594 004e DDF80490 		ldr	r9, [sp, #4]
 494:Generated_Source\PSoC5/USB_midi.c ****                         (USB_EP[USB_midi_in_ep].bufferSize - USB_EVENT_LENGTH))
 595              		.loc 1 494 0
 596 0052 DFF890B0 		ldr	fp, .L50
 495:Generated_Source\PSoC5/USB_midi.c ****                     {
 597              		.loc 1 495 0
 598 0056 DFF890A0 		ldr	r10, .L50+4
 599 005a 01E0     		b	.L39
 600              	.LVL60:
 601              	.L41:
 507:Generated_Source\PSoC5/USB_midi.c **** 
 602              		.loc 1 507 0
 603 005c 032C     		cmp	r4, #3
 604 005e 2DD9     		bls	.L49
 605              	.LVL61:
 606              	.L39:
 490:Generated_Source\PSoC5/USB_midi.c ****                                                      USB_EVENT_BYTE3, cable);
 607              		.loc 1 490 0
 608 0060 4946     		mov	r1, r9
 609 0062 0322     		movs	r2, #3
 610 0064 4346     		mov	r3, r8
 611 0066 F020     		movs	r0, #240
 612 0068 FFF7FEFF 		bl	USB_PrepareInBuffer
 613              	.LVL62:
 494:Generated_Source\PSoC5/USB_midi.c ****                         (USB_EP[USB_midi_in_ep].bufferSize - USB_EVENT_LENGTH))
 614              		.loc 1 494 0
 615 006c 3A78     		ldrb	r2, [r7]	@ zero_extendqisi2
 495:Generated_Source\PSoC5/USB_midi.c ****                     {
 616              		.loc 1 495 0
 617 006e 2B78     		ldrb	r3, [r5]	@ zero_extendqisi2
 492:Generated_Source\PSoC5/USB_midi.c ****                     msgIndex += USB_EVENT_BYTE3;
 618              		.loc 1 492 0
 619 0070 033C     		subs	r4, r4, #3
 620              	.LVL63:
 495:Generated_Source\PSoC5/USB_midi.c ****                     {
 621              		.loc 1 495 0
 622 0072 03EB4303 		add	r3, r3, r3, lsl #1
 623 0076 06EB8303 		add	r3, r6, r3, lsl #2
 624 007a 1B89     		ldrh	r3, [r3, #8]
 492:Generated_Source\PSoC5/USB_midi.c ****                     msgIndex += USB_EVENT_BYTE3;
 625              		.loc 1 492 0
 626 007c E4B2     		uxtb	r4, r4
 627              	.LVL64:
 495:Generated_Source\PSoC5/USB_midi.c ****                     {
 628              		.loc 1 495 0
ARM GAS  C:\Users\jwvance\AppData\Local\Temp\ccxTgFRe.s 			page 26


 629 007e 9BB2     		uxth	r3, r3
 630 0080 043B     		subs	r3, r3, #4
 494:Generated_Source\PSoC5/USB_midi.c ****                         (USB_EP[USB_midi_in_ep].bufferSize - USB_EVENT_LENGTH))
 631              		.loc 1 494 0
 632 0082 9A42     		cmp	r2, r3
 633 0084 09F10309 		add	r9, r9, #3
 634 0088 E8D9     		bls	.L41
 497:Generated_Source\PSoC5/USB_midi.c ****                         if(USB_midiInPointer > 
 635              		.loc 1 497 0
 636 008a FFF7FEFF 		bl	USB_MIDI_IN_EP_Service
 637              	.LVL65:
 498:Generated_Source\PSoC5/USB_midi.c ****                           (USB_EP[USB_midi_in_ep].bufferSize - USB_EVENT_LENGTH))
 638              		.loc 1 498 0
 639 008e 9BF80020 		ldrb	r2, [fp]	@ zero_extendqisi2
 499:Generated_Source\PSoC5/USB_midi.c ****                         {
 640              		.loc 1 499 0
 641 0092 9AF80030 		ldrb	r3, [r10]	@ zero_extendqisi2
 642 0096 1549     		ldr	r1, .L50+8
 643 0098 03EB4303 		add	r3, r3, r3, lsl #1
 644 009c 01EB8303 		add	r3, r1, r3, lsl #2
 645 00a0 1B89     		ldrh	r3, [r3, #8]
 646 00a2 9BB2     		uxth	r3, r3
 647 00a4 043B     		subs	r3, r3, #4
 498:Generated_Source\PSoC5/USB_midi.c ****                           (USB_EP[USB_midi_in_ep].bufferSize - USB_EVENT_LENGTH))
 648              		.loc 1 498 0
 649 00a6 9A42     		cmp	r2, r3
 650 00a8 D8D9     		bls	.L41
 651              	.LVL66:
 652              	.L35:
 518:Generated_Source\PSoC5/USB_midi.c ****         }
 653              		.loc 1 518 0
 654 00aa 0124     		movs	r4, #1
 655              	.L37:
 656              	.LVL67:
 522:Generated_Source\PSoC5/USB_midi.c ****             #if (USB_MIDI_EXT_MODE >= USB_TWO_EXT_INTRF)
 657              		.loc 1 522 0
 658 00ac FFF7FEFF 		bl	MIDI1_UART_EnableRxInt
 659              	.LVL68:
 524:Generated_Source\PSoC5/USB_midi.c ****             #endif /* (USB_MIDI_EXT_MODE >= USB_TWO_EXT_INTRF) */
 660              		.loc 1 524 0
 661 00b0 FFF7FEFF 		bl	MIDI2_UART_EnableRxInt
 662              	.LVL69:
 529:Generated_Source\PSoC5/USB_midi.c **** 
 663              		.loc 1 529 0
 664 00b4 2046     		mov	r0, r4
 665 00b6 03B0     		add	sp, sp, #12
 666              		.cfi_remember_state
 667              		.cfi_def_cfa_offset 36
 668              		@ sp needed
 669 00b8 BDE8F08F 		pop	{r4, r5, r6, r7, r8, r9, r10, fp, pc}
 670              	.LVL70:
 671              	.L49:
 672              		.cfi_restore_state
 511:Generated_Source\PSoC5/USB_midi.c ****                 }
 673              		.loc 1 511 0
 674 00bc 2246     		mov	r2, r4
 675 00be 0199     		ldr	r1, [sp, #4]
ARM GAS  C:\Users\jwvance\AppData\Local\Temp\ccxTgFRe.s 			page 27


 676 00c0 4346     		mov	r3, r8
 677 00c2 F720     		movs	r0, #247
 678 00c4 FFF7FEFF 		bl	USB_PrepareInBuffer
 679              	.LVL71:
 680 00c8 0024     		movs	r4, #0
 681              	.LVL72:
 682 00ca EFE7     		b	.L37
 683              	.LVL73:
 684              	.L47:
 476:Generated_Source\PSoC5/USB_midi.c ****         }
 685              		.loc 1 476 0
 686 00cc FFF7FEFF 		bl	USB_MIDI_IN_EP_Service
 687              	.LVL74:
 688 00d0 AEE7     		b	.L34
 689              	.L48:
 483:Generated_Source\PSoC5/USB_midi.c ****             }
 690              		.loc 1 483 0
 691 00d2 2046     		mov	r0, r4
 692 00d4 2246     		mov	r2, r4
 693 00d6 0199     		ldr	r1, [sp, #4]
 694 00d8 4346     		mov	r3, r8
 695 00da FFF7FEFF 		bl	USB_PrepareInBuffer
 696              	.LVL75:
 462:Generated_Source\PSoC5/USB_midi.c ****         uint8 msgIndex;
 697              		.loc 1 462 0
 698 00de 0024     		movs	r4, #0
 699 00e0 E4E7     		b	.L37
 700              	.L51:
 701 00e2 00BF     		.align	2
 702              	.L50:
 703 00e4 00000000 		.word	USB_midiInPointer
 704 00e8 00000000 		.word	USB_midi_in_ep
 705 00ec 00000000 		.word	USB_EP
 706              		.cfi_endproc
 707              	.LFE4:
 708              		.size	USB_PutUsbMidiIn, .-USB_PutUsbMidiIn
 709              		.section	.text.USB_MIDI_Init,"ax",%progbits
 710              		.align	2
 711              		.global	USB_MIDI_Init
 712              		.thumb
 713              		.thumb_func
 714              		.type	USB_MIDI_Init, %function
 715              	USB_MIDI_Init:
 716              	.LFB6:
 664:Generated_Source\PSoC5/USB_midi.c ****                 default:
 665:Generated_Source\PSoC5/USB_midi.c ****                     break;
 666:Generated_Source\PSoC5/USB_midi.c ****             }
 667:Generated_Source\PSoC5/USB_midi.c ****         }
 668:Generated_Source\PSoC5/USB_midi.c ****         else
 669:Generated_Source\PSoC5/USB_midi.c ****         {
 670:Generated_Source\PSoC5/USB_midi.c ****         }
 671:Generated_Source\PSoC5/USB_midi.c ****     }
 672:Generated_Source\PSoC5/USB_midi.c **** 
 673:Generated_Source\PSoC5/USB_midi.c **** #endif /* #if (USB_MIDI_IN_BUFF_SIZE > 0) */
 674:Generated_Source\PSoC5/USB_midi.c **** 
 675:Generated_Source\PSoC5/USB_midi.c **** 
 676:Generated_Source\PSoC5/USB_midi.c **** /* The implementation for external serial input and output connections
ARM GAS  C:\Users\jwvance\AppData\Local\Temp\ccxTgFRe.s 			page 28


 677:Generated_Source\PSoC5/USB_midi.c **** *  to route USB MIDI data to and from those connections.
 678:Generated_Source\PSoC5/USB_midi.c **** */
 679:Generated_Source\PSoC5/USB_midi.c **** #if (USB_MIDI_EXT_MODE >= USB_ONE_EXT_INTRF)
 680:Generated_Source\PSoC5/USB_midi.c **** 
 681:Generated_Source\PSoC5/USB_midi.c **** 
 682:Generated_Source\PSoC5/USB_midi.c ****     /*******************************************************************************
 683:Generated_Source\PSoC5/USB_midi.c ****     * Function Name: USB_MIDI_Init
 684:Generated_Source\PSoC5/USB_midi.c ****     ********************************************************************************
 685:Generated_Source\PSoC5/USB_midi.c ****     *
 686:Generated_Source\PSoC5/USB_midi.c ****     * Summary:
 687:Generated_Source\PSoC5/USB_midi.c ****     *  Initializes MIDI variables and starts the UART(s) hardware block(s).
 688:Generated_Source\PSoC5/USB_midi.c ****     *
 689:Generated_Source\PSoC5/USB_midi.c ****     * Parameters:
 690:Generated_Source\PSoC5/USB_midi.c ****     *  None
 691:Generated_Source\PSoC5/USB_midi.c ****     *
 692:Generated_Source\PSoC5/USB_midi.c ****     * Return:
 693:Generated_Source\PSoC5/USB_midi.c ****     *  None
 694:Generated_Source\PSoC5/USB_midi.c ****     *
 695:Generated_Source\PSoC5/USB_midi.c ****     * Side Effects:
 696:Generated_Source\PSoC5/USB_midi.c ****     *  Change the priority of the UART(s) TX interrupts to be higher than the
 697:Generated_Source\PSoC5/USB_midi.c ****     *  default EP ISR priority.
 698:Generated_Source\PSoC5/USB_midi.c ****     *
 699:Generated_Source\PSoC5/USB_midi.c ****     * Global variables:
 700:Generated_Source\PSoC5/USB_midi.c ****     *   USB_MIDI_Event: initialized to zero.
 701:Generated_Source\PSoC5/USB_midi.c ****     *   USB_MIDI_TxRunStat: initialized to zero.
 702:Generated_Source\PSoC5/USB_midi.c ****     *
 703:Generated_Source\PSoC5/USB_midi.c ****     *******************************************************************************/
 704:Generated_Source\PSoC5/USB_midi.c ****     void USB_MIDI_Init(void) 
 705:Generated_Source\PSoC5/USB_midi.c ****     {
 717              		.loc 1 705 0
 718              		.cfi_startproc
 719              		@ args = 0, pretend = 0, frame = 0
 720              		@ frame_needed = 0, uses_anonymous_args = 0
 721 0000 38B5     		push	{r3, r4, r5, lr}
 722              		.cfi_def_cfa_offset 16
 723              		.cfi_offset 3, -16
 724              		.cfi_offset 4, -12
 725              		.cfi_offset 5, -8
 726              		.cfi_offset 14, -4
 706:Generated_Source\PSoC5/USB_midi.c ****         USB_MIDI1_Event.length = 0u;
 727              		.loc 1 706 0
 728 0002 134D     		ldr	r5, .L54
 707:Generated_Source\PSoC5/USB_midi.c ****         USB_MIDI1_Event.count = 0u;
 708:Generated_Source\PSoC5/USB_midi.c ****         USB_MIDI1_Event.size = 0u;
 709:Generated_Source\PSoC5/USB_midi.c ****         USB_MIDI1_Event.runstat = 0u;
 710:Generated_Source\PSoC5/USB_midi.c ****         USB_MIDI1_TxRunStat = 0u;
 711:Generated_Source\PSoC5/USB_midi.c ****         USB_MIDI1_InqFlags = 0u;
 729              		.loc 1 711 0
 730 0004 134B     		ldr	r3, .L54+4
 706:Generated_Source\PSoC5/USB_midi.c ****         USB_MIDI1_Event.length = 0u;
 731              		.loc 1 706 0
 732 0006 0024     		movs	r4, #0
 710:Generated_Source\PSoC5/USB_midi.c ****         USB_MIDI1_InqFlags = 0u;
 733              		.loc 1 710 0
 734 0008 2C72     		strb	r4, [r5, #8]
 706:Generated_Source\PSoC5/USB_midi.c ****         USB_MIDI1_Event.length = 0u;
 735              		.loc 1 706 0
ARM GAS  C:\Users\jwvance\AppData\Local\Temp\ccxTgFRe.s 			page 29


 736 000a 2C70     		strb	r4, [r5]
 737              		.loc 1 711 0
 738 000c 1C70     		strb	r4, [r3]
 707:Generated_Source\PSoC5/USB_midi.c ****         USB_MIDI1_Event.count = 0u;
 739              		.loc 1 707 0
 740 000e 6C70     		strb	r4, [r5, #1]
 708:Generated_Source\PSoC5/USB_midi.c ****         USB_MIDI1_Event.runstat = 0u;
 741              		.loc 1 708 0
 742 0010 AC70     		strb	r4, [r5, #2]
 709:Generated_Source\PSoC5/USB_midi.c ****         USB_MIDI1_TxRunStat = 0u;
 743              		.loc 1 709 0
 744 0012 EC70     		strb	r4, [r5, #3]
 712:Generated_Source\PSoC5/USB_midi.c ****         /* Start UART block */
 713:Generated_Source\PSoC5/USB_midi.c ****         MIDI1_UART_Start();
 745              		.loc 1 713 0
 746 0014 FFF7FEFF 		bl	MIDI1_UART_Start
 747              	.LVL76:
 714:Generated_Source\PSoC5/USB_midi.c ****         /* Change the priority of the UART TX and RX interrupt */
 715:Generated_Source\PSoC5/USB_midi.c ****         CyIntSetPriority(MIDI1_UART_TX_VECT_NUM, USB_CUSTOM_UART_TX_PRIOR_NUM);
 748              		.loc 1 715 0
 749 0018 0420     		movs	r0, #4
 750 001a 0146     		mov	r1, r0
 751 001c FFF7FEFF 		bl	CyIntSetPriority
 752              	.LVL77:
 716:Generated_Source\PSoC5/USB_midi.c ****         CyIntSetPriority(MIDI1_UART_RX_VECT_NUM, USB_CUSTOM_UART_RX_PRIOR_NUM);
 753              		.loc 1 716 0
 754 0020 0320     		movs	r0, #3
 755 0022 0221     		movs	r1, #2
 756 0024 FFF7FEFF 		bl	CyIntSetPriority
 757              	.LVL78:
 717:Generated_Source\PSoC5/USB_midi.c **** 
 718:Generated_Source\PSoC5/USB_midi.c ****         #if (USB_MIDI_EXT_MODE >= USB_TWO_EXT_INTRF)
 719:Generated_Source\PSoC5/USB_midi.c ****             USB_MIDI2_Event.length = 0u;
 720:Generated_Source\PSoC5/USB_midi.c ****             USB_MIDI2_Event.count = 0u;
 721:Generated_Source\PSoC5/USB_midi.c ****             USB_MIDI2_Event.size = 0u;
 722:Generated_Source\PSoC5/USB_midi.c ****             USB_MIDI2_Event.runstat = 0u;
 723:Generated_Source\PSoC5/USB_midi.c ****             USB_MIDI2_TxRunStat = 0u;
 724:Generated_Source\PSoC5/USB_midi.c ****             USB_MIDI2_InqFlags = 0u;
 758              		.loc 1 724 0
 759 0028 0B4B     		ldr	r3, .L54+8
 723:Generated_Source\PSoC5/USB_midi.c ****             USB_MIDI2_InqFlags = 0u;
 760              		.loc 1 723 0
 761 002a 2C75     		strb	r4, [r5, #20]
 719:Generated_Source\PSoC5/USB_midi.c ****             USB_MIDI2_Event.count = 0u;
 762              		.loc 1 719 0
 763 002c 2C73     		strb	r4, [r5, #12]
 764              		.loc 1 724 0
 765 002e 1C70     		strb	r4, [r3]
 720:Generated_Source\PSoC5/USB_midi.c ****             USB_MIDI2_Event.size = 0u;
 766              		.loc 1 720 0
 767 0030 6C73     		strb	r4, [r5, #13]
 721:Generated_Source\PSoC5/USB_midi.c ****             USB_MIDI2_Event.runstat = 0u;
 768              		.loc 1 721 0
 769 0032 AC73     		strb	r4, [r5, #14]
 722:Generated_Source\PSoC5/USB_midi.c ****             USB_MIDI2_TxRunStat = 0u;
 770              		.loc 1 722 0
 771 0034 EC73     		strb	r4, [r5, #15]
ARM GAS  C:\Users\jwvance\AppData\Local\Temp\ccxTgFRe.s 			page 30


 725:Generated_Source\PSoC5/USB_midi.c ****             /* Start second UART block */
 726:Generated_Source\PSoC5/USB_midi.c ****             MIDI2_UART_Start();
 772              		.loc 1 726 0
 773 0036 FFF7FEFF 		bl	MIDI2_UART_Start
 774              	.LVL79:
 727:Generated_Source\PSoC5/USB_midi.c ****             /* Change the priority of the UART TX interrupt */
 728:Generated_Source\PSoC5/USB_midi.c ****             CyIntSetPriority(MIDI2_UART_TX_VECT_NUM, USB_CUSTOM_UART_TX_PRIOR_NUM);
 775              		.loc 1 728 0
 776 003a 0620     		movs	r0, #6
 777 003c 0421     		movs	r1, #4
 778 003e FFF7FEFF 		bl	CyIntSetPriority
 779              	.LVL80:
 729:Generated_Source\PSoC5/USB_midi.c ****             CyIntSetPriority(MIDI2_UART_RX_VECT_NUM, USB_CUSTOM_UART_RX_PRIOR_NUM);
 730:Generated_Source\PSoC5/USB_midi.c ****         #endif /*  USB_MIDI_EXT_MODE >= USB_TWO_EXT_INTRF*/
 731:Generated_Source\PSoC5/USB_midi.c **** 
 732:Generated_Source\PSoC5/USB_midi.c ****         /* `#START MIDI_INIT_CUSTOM` Init other extended UARTs here */
 733:Generated_Source\PSoC5/USB_midi.c **** 
 734:Generated_Source\PSoC5/USB_midi.c ****         /* `#END` */
 735:Generated_Source\PSoC5/USB_midi.c **** 
 736:Generated_Source\PSoC5/USB_midi.c ****     }
 780              		.loc 1 736 0
 781 0042 BDE83840 		pop	{r3, r4, r5, lr}
 782              		.cfi_restore 14
 783              		.cfi_restore 5
 784              		.cfi_restore 4
 785              		.cfi_restore 3
 786              		.cfi_def_cfa_offset 0
 729:Generated_Source\PSoC5/USB_midi.c ****             CyIntSetPriority(MIDI2_UART_RX_VECT_NUM, USB_CUSTOM_UART_RX_PRIOR_NUM);
 787              		.loc 1 729 0
 788 0046 0520     		movs	r0, #5
 789 0048 0221     		movs	r1, #2
 790 004a FFF7FEBF 		b	CyIntSetPriority
 791              	.LVL81:
 792              	.L55:
 793 004e 00BF     		.align	2
 794              	.L54:
 795 0050 00000000 		.word	.LANCHOR0
 796 0054 00000000 		.word	USB_MIDI1_InqFlags
 797 0058 00000000 		.word	USB_MIDI2_InqFlags
 798              		.cfi_endproc
 799              	.LFE6:
 800              		.size	USB_MIDI_Init, .-USB_MIDI_Init
 801              		.section	.text.USB_MIDI_EP_Init,"ax",%progbits
 802              		.align	2
 803              		.global	USB_MIDI_EP_Init
 804              		.thumb
 805              		.thumb_func
 806              		.type	USB_MIDI_EP_Init, %function
 807              	USB_MIDI_EP_Init:
 808              	.LFB0:
 139:Generated_Source\PSoC5/USB_midi.c ****     #if (USB_MIDI_IN_BUFF_SIZE > 0)
 809              		.loc 1 139 0
 810              		.cfi_startproc
 811              		@ args = 0, pretend = 0, frame = 0
 812              		@ frame_needed = 0, uses_anonymous_args = 0
 813 0000 08B5     		push	{r3, lr}
 814              		.cfi_def_cfa_offset 8
ARM GAS  C:\Users\jwvance\AppData\Local\Temp\ccxTgFRe.s 			page 31


 815              		.cfi_offset 3, -8
 816              		.cfi_offset 14, -4
 141:Generated_Source\PSoC5/USB_midi.c ****     #endif /* (USB_MIDI_IN_BUFF_SIZE > 0) */
 817              		.loc 1 141 0
 818 0002 054A     		ldr	r2, .L58
 159:Generated_Source\PSoC5/USB_midi.c ****     #endif /* (USB_MIDI_OUT_BUFF_SIZE > 0) */
 819              		.loc 1 159 0
 820 0004 054B     		ldr	r3, .L58+4
 141:Generated_Source\PSoC5/USB_midi.c ****     #endif /* (USB_MIDI_IN_BUFF_SIZE > 0) */
 821              		.loc 1 141 0
 822 0006 0021     		movs	r1, #0
 823 0008 1170     		strb	r1, [r2]
 159:Generated_Source\PSoC5/USB_midi.c ****     #endif /* (USB_MIDI_OUT_BUFF_SIZE > 0) */
 824              		.loc 1 159 0
 825 000a 1878     		ldrb	r0, [r3]	@ zero_extendqisi2
 826 000c FFF7FEFF 		bl	USB_EnableOutEP
 827              	.LVL82:
 166:Generated_Source\PSoC5/USB_midi.c **** 
 828              		.loc 1 166 0
 829 0010 BDE80840 		pop	{r3, lr}
 830              		.cfi_restore 14
 831              		.cfi_restore 3
 832              		.cfi_def_cfa_offset 0
 164:Generated_Source\PSoC5/USB_midi.c ****     #endif /* (USB_MIDI_EXT_MODE >= USB_ONE_EXT_INTRF) */
 833              		.loc 1 164 0
 834 0014 FFF7FEBF 		b	USB_MIDI_Init
 835              	.LVL83:
 836              	.L59:
 837              		.align	2
 838              	.L58:
 839 0018 00000000 		.word	USB_midiInPointer
 840 001c 00000000 		.word	USB_midi_out_ep
 841              		.cfi_endproc
 842              	.LFE0:
 843              		.size	USB_MIDI_EP_Init, .-USB_MIDI_EP_Init
 844              		.section	.text.USB_ProcessMidiIn,"ax",%progbits
 845              		.align	2
 846              		.global	USB_ProcessMidiIn
 847              		.thumb
 848              		.thumb_func
 849              		.type	USB_ProcessMidiIn, %function
 850              	USB_ProcessMidiIn:
 851              	.LFB7:
 737:Generated_Source\PSoC5/USB_midi.c **** 
 738:Generated_Source\PSoC5/USB_midi.c **** 
 739:Generated_Source\PSoC5/USB_midi.c ****     /*******************************************************************************
 740:Generated_Source\PSoC5/USB_midi.c ****     * Function Name: USB_ProcessMidiIn
 741:Generated_Source\PSoC5/USB_midi.c ****     ********************************************************************************
 742:Generated_Source\PSoC5/USB_midi.c ****     *
 743:Generated_Source\PSoC5/USB_midi.c ****     * Summary:
 744:Generated_Source\PSoC5/USB_midi.c ****     *  Processes one byte of incoming MIDI data.
 745:Generated_Source\PSoC5/USB_midi.c ****     *
 746:Generated_Source\PSoC5/USB_midi.c ****     * Parameters:
 747:Generated_Source\PSoC5/USB_midi.c ****     *   mData = current MIDI input data byte
 748:Generated_Source\PSoC5/USB_midi.c ****     *   *rxStat = pointer to a MIDI_RX_STATUS structure
 749:Generated_Source\PSoC5/USB_midi.c ****     *
 750:Generated_Source\PSoC5/USB_midi.c ****     * Return:
ARM GAS  C:\Users\jwvance\AppData\Local\Temp\ccxTgFRe.s 			page 32


 751:Generated_Source\PSoC5/USB_midi.c ****     *   0, if no complete message
 752:Generated_Source\PSoC5/USB_midi.c ****     *   1 - 4, if message complete
 753:Generated_Source\PSoC5/USB_midi.c ****     *   MIDI_SYSEX, if start or continuation of system exclusive
 754:Generated_Source\PSoC5/USB_midi.c ****     *   MIDI_EOSEX, if end of system exclusive
 755:Generated_Source\PSoC5/USB_midi.c ****     *   0xf8 - 0xff, if single byte real time message
 756:Generated_Source\PSoC5/USB_midi.c ****     *
 757:Generated_Source\PSoC5/USB_midi.c ****     *******************************************************************************/
 758:Generated_Source\PSoC5/USB_midi.c ****     uint8 USB_ProcessMidiIn(uint8 mData, USB_MIDI_RX_STATUS *rxStat)
 759:Generated_Source\PSoC5/USB_midi.c ****                                                                 
 760:Generated_Source\PSoC5/USB_midi.c ****     {
 852              		.loc 1 760 0
 853              		.cfi_startproc
 854              		@ args = 0, pretend = 0, frame = 0
 855              		@ frame_needed = 0, uses_anonymous_args = 0
 856              		@ link register save eliminated.
 857              	.LVL84:
 761:Generated_Source\PSoC5/USB_midi.c ****         uint8 midiReturn = 0u;
 762:Generated_Source\PSoC5/USB_midi.c **** 
 763:Generated_Source\PSoC5/USB_midi.c ****         /* Check for a MIDI status byte.  All status bytes, except real time messages,
 764:Generated_Source\PSoC5/USB_midi.c ****         *  which are a single byte, force the start of a new buffer cycle.
 765:Generated_Source\PSoC5/USB_midi.c ****         */
 766:Generated_Source\PSoC5/USB_midi.c ****         if ((mData & USB_MIDI_STATUS_BYTE_MASK) != 0u)
 858              		.loc 1 766 0
 859 0000 0206     		lsls	r2, r0, #24
 760:Generated_Source\PSoC5/USB_midi.c ****         uint8 midiReturn = 0u;
 860              		.loc 1 760 0
 861 0002 30B4     		push	{r4, r5}
 862              		.cfi_def_cfa_offset 8
 863              		.cfi_offset 4, -8
 864              		.cfi_offset 5, -4
 865              		.loc 1 766 0
 866 0004 23D4     		bmi	.L132
 767:Generated_Source\PSoC5/USB_midi.c ****         {
 768:Generated_Source\PSoC5/USB_midi.c ****             if ((mData & USB_MIDI_STATUS_MASK) == USB_MIDI_STATUS_MASK)
 769:Generated_Source\PSoC5/USB_midi.c ****             {
 770:Generated_Source\PSoC5/USB_midi.c ****                 if ((mData & USB_MIDI_SINGLE_BYTE_MASK) != 0u) /* System Real-Time Messages(single 
 771:Generated_Source\PSoC5/USB_midi.c ****                 {
 772:Generated_Source\PSoC5/USB_midi.c ****                     midiReturn = mData;
 773:Generated_Source\PSoC5/USB_midi.c ****                 }
 774:Generated_Source\PSoC5/USB_midi.c ****                 else                              /* System Common Messages */
 775:Generated_Source\PSoC5/USB_midi.c ****                 {
 776:Generated_Source\PSoC5/USB_midi.c ****                     switch (mData)
 777:Generated_Source\PSoC5/USB_midi.c ****                     {
 778:Generated_Source\PSoC5/USB_midi.c ****                         case USB_MIDI_SYSEX:
 779:Generated_Source\PSoC5/USB_midi.c ****                             rxStat->msgBuff[0u] = USB_MIDI_SYSEX;
 780:Generated_Source\PSoC5/USB_midi.c ****                             rxStat->runstat = USB_MIDI_SYSEX;
 781:Generated_Source\PSoC5/USB_midi.c ****                             rxStat->count = 1u;
 782:Generated_Source\PSoC5/USB_midi.c ****                             rxStat->length = 3u;
 783:Generated_Source\PSoC5/USB_midi.c ****                             break;
 784:Generated_Source\PSoC5/USB_midi.c ****                         case USB_MIDI_EOSEX:
 785:Generated_Source\PSoC5/USB_midi.c ****                             rxStat->runstat = 0u;
 786:Generated_Source\PSoC5/USB_midi.c ****                             rxStat->size = rxStat->count;
 787:Generated_Source\PSoC5/USB_midi.c ****                             rxStat->count = 0u;
 788:Generated_Source\PSoC5/USB_midi.c ****                             midiReturn = USB_MIDI_EOSEX;
 789:Generated_Source\PSoC5/USB_midi.c ****                             break;
 790:Generated_Source\PSoC5/USB_midi.c ****                         case USB_MIDI_SPP:
 791:Generated_Source\PSoC5/USB_midi.c ****                             rxStat->msgBuff[0u] = USB_MIDI_SPP;
ARM GAS  C:\Users\jwvance\AppData\Local\Temp\ccxTgFRe.s 			page 33


 792:Generated_Source\PSoC5/USB_midi.c ****                             rxStat->runstat = 0u;
 793:Generated_Source\PSoC5/USB_midi.c ****                             rxStat->count = 1u;
 794:Generated_Source\PSoC5/USB_midi.c ****                             rxStat->length = 3u;
 795:Generated_Source\PSoC5/USB_midi.c ****                             break;
 796:Generated_Source\PSoC5/USB_midi.c ****                         case USB_MIDI_SONGSEL:
 797:Generated_Source\PSoC5/USB_midi.c ****                             rxStat->msgBuff[0u] = USB_MIDI_SONGSEL;
 798:Generated_Source\PSoC5/USB_midi.c ****                             rxStat->runstat = 0u;
 799:Generated_Source\PSoC5/USB_midi.c ****                             rxStat->count = 1u;
 800:Generated_Source\PSoC5/USB_midi.c ****                             rxStat->length = 2u;
 801:Generated_Source\PSoC5/USB_midi.c ****                             break;
 802:Generated_Source\PSoC5/USB_midi.c ****                         case USB_MIDI_QFM:
 803:Generated_Source\PSoC5/USB_midi.c ****                             rxStat->msgBuff[0u] = USB_MIDI_QFM;
 804:Generated_Source\PSoC5/USB_midi.c ****                             rxStat->runstat = 0u;
 805:Generated_Source\PSoC5/USB_midi.c ****                             rxStat->count = 1u;
 806:Generated_Source\PSoC5/USB_midi.c ****                             rxStat->length = 2u;
 807:Generated_Source\PSoC5/USB_midi.c ****                             break;
 808:Generated_Source\PSoC5/USB_midi.c ****                         case USB_MIDI_TUNEREQ:
 809:Generated_Source\PSoC5/USB_midi.c ****                             rxStat->msgBuff[0u] = USB_MIDI_TUNEREQ;
 810:Generated_Source\PSoC5/USB_midi.c ****                             rxStat->runstat = 0u;
 811:Generated_Source\PSoC5/USB_midi.c ****                             rxStat->size = 1u;
 812:Generated_Source\PSoC5/USB_midi.c ****                             rxStat->count = 0u;
 813:Generated_Source\PSoC5/USB_midi.c ****                             midiReturn = rxStat->size;
 814:Generated_Source\PSoC5/USB_midi.c ****                             break;
 815:Generated_Source\PSoC5/USB_midi.c ****                         default:
 816:Generated_Source\PSoC5/USB_midi.c ****                             break;
 817:Generated_Source\PSoC5/USB_midi.c ****                     }
 818:Generated_Source\PSoC5/USB_midi.c ****                 }
 819:Generated_Source\PSoC5/USB_midi.c ****             }
 820:Generated_Source\PSoC5/USB_midi.c ****             else /* Channel Messages */
 821:Generated_Source\PSoC5/USB_midi.c ****             {
 822:Generated_Source\PSoC5/USB_midi.c ****                 rxStat->msgBuff[0u] = mData;
 823:Generated_Source\PSoC5/USB_midi.c ****                 rxStat->runstat = mData;
 824:Generated_Source\PSoC5/USB_midi.c ****                 rxStat->count = 1u;
 825:Generated_Source\PSoC5/USB_midi.c ****                 switch (mData & USB_MIDI_STATUS_MASK)
 826:Generated_Source\PSoC5/USB_midi.c ****                 {
 827:Generated_Source\PSoC5/USB_midi.c ****                     case USB_MIDI_NOTE_OFF:
 828:Generated_Source\PSoC5/USB_midi.c ****                     case USB_MIDI_NOTE_ON:
 829:Generated_Source\PSoC5/USB_midi.c ****                     case USB_MIDI_POLY_KEY_PRESSURE:
 830:Generated_Source\PSoC5/USB_midi.c ****                     case USB_MIDI_CONTROL_CHANGE:
 831:Generated_Source\PSoC5/USB_midi.c ****                     case USB_MIDI_PITCH_BEND_CHANGE:
 832:Generated_Source\PSoC5/USB_midi.c ****                         rxStat->length = 3u;
 833:Generated_Source\PSoC5/USB_midi.c ****                         break;
 834:Generated_Source\PSoC5/USB_midi.c ****                     case USB_MIDI_PROGRAM_CHANGE:
 835:Generated_Source\PSoC5/USB_midi.c ****                     case USB_MIDI_CHANNEL_PRESSURE:
 836:Generated_Source\PSoC5/USB_midi.c ****                         rxStat->length = 2u;
 837:Generated_Source\PSoC5/USB_midi.c ****                         break;
 838:Generated_Source\PSoC5/USB_midi.c ****                     default:
 839:Generated_Source\PSoC5/USB_midi.c ****                         rxStat->runstat = 0u;
 840:Generated_Source\PSoC5/USB_midi.c ****                         rxStat->count = 0u;
 841:Generated_Source\PSoC5/USB_midi.c ****                         break;
 842:Generated_Source\PSoC5/USB_midi.c ****                 }
 843:Generated_Source\PSoC5/USB_midi.c ****             }
 844:Generated_Source\PSoC5/USB_midi.c ****         }
 845:Generated_Source\PSoC5/USB_midi.c **** 
 846:Generated_Source\PSoC5/USB_midi.c ****         /* Otherwise, it's a data byte */
 847:Generated_Source\PSoC5/USB_midi.c ****         else
 848:Generated_Source\PSoC5/USB_midi.c ****         {
ARM GAS  C:\Users\jwvance\AppData\Local\Temp\ccxTgFRe.s 			page 34


 849:Generated_Source\PSoC5/USB_midi.c ****             if (rxStat->runstat == USB_MIDI_SYSEX)
 867              		.loc 1 849 0
 868 0006 CB78     		ldrb	r3, [r1, #3]	@ zero_extendqisi2
 869 0008 F02B     		cmp	r3, #240
 870 000a 35D0     		beq	.L133
 850:Generated_Source\PSoC5/USB_midi.c ****             {
 851:Generated_Source\PSoC5/USB_midi.c ****                 rxStat->msgBuff[rxStat->count] = mData;
 852:Generated_Source\PSoC5/USB_midi.c ****                 rxStat->count++;
 853:Generated_Source\PSoC5/USB_midi.c ****                 if (rxStat->count >= rxStat->length)
 854:Generated_Source\PSoC5/USB_midi.c ****                 {
 855:Generated_Source\PSoC5/USB_midi.c ****                     rxStat->size = rxStat->count;
 856:Generated_Source\PSoC5/USB_midi.c ****                     rxStat->count = 0u;
 857:Generated_Source\PSoC5/USB_midi.c ****                     midiReturn = USB_MIDI_SYSEX;
 858:Generated_Source\PSoC5/USB_midi.c ****                 }
 859:Generated_Source\PSoC5/USB_midi.c ****             }
 860:Generated_Source\PSoC5/USB_midi.c ****             else if (rxStat->count > 0u)
 871              		.loc 1 860 0
 872 000c 4A78     		ldrb	r2, [r1, #1]	@ zero_extendqisi2
 873 000e 52B1     		cbz	r2, .L77
 861:Generated_Source\PSoC5/USB_midi.c ****             {
 862:Generated_Source\PSoC5/USB_midi.c ****                 rxStat->msgBuff[rxStat->count] = mData;
 874              		.loc 1 862 0
 875 0010 8C18     		adds	r4, r1, r2
 863:Generated_Source\PSoC5/USB_midi.c ****                 rxStat->count++;
 864:Generated_Source\PSoC5/USB_midi.c ****                 if (rxStat->count >= rxStat->length)
 876              		.loc 1 864 0
 877 0012 0B78     		ldrb	r3, [r1]	@ zero_extendqisi2
 863:Generated_Source\PSoC5/USB_midi.c ****                 rxStat->count++;
 878              		.loc 1 863 0
 879 0014 0132     		adds	r2, r2, #1
 862:Generated_Source\PSoC5/USB_midi.c ****                 rxStat->count++;
 880              		.loc 1 862 0
 881 0016 2071     		strb	r0, [r4, #4]
 863:Generated_Source\PSoC5/USB_midi.c ****                 rxStat->count++;
 882              		.loc 1 863 0
 883 0018 D0B2     		uxtb	r0, r2
 884              	.LVL85:
 885              		.loc 1 864 0
 886 001a 8342     		cmp	r3, r0
 863:Generated_Source\PSoC5/USB_midi.c ****                 rxStat->count++;
 887              		.loc 1 863 0
 888 001c 4870     		strb	r0, [r1, #1]
 889              		.loc 1 864 0
 890 001e 3BD9     		bls	.L130
 891              	.LVL86:
 892              	.L83:
 761:Generated_Source\PSoC5/USB_midi.c **** 
 893              		.loc 1 761 0
 894 0020 0020     		movs	r0, #0
 895              	.LVL87:
 896              	.L63:
 865:Generated_Source\PSoC5/USB_midi.c ****                 {
 866:Generated_Source\PSoC5/USB_midi.c ****                     rxStat->size = rxStat->count;
 867:Generated_Source\PSoC5/USB_midi.c ****                     rxStat->count = 0u;
 868:Generated_Source\PSoC5/USB_midi.c ****                     midiReturn = rxStat->size;
 869:Generated_Source\PSoC5/USB_midi.c ****                 }
 870:Generated_Source\PSoC5/USB_midi.c ****             }
ARM GAS  C:\Users\jwvance\AppData\Local\Temp\ccxTgFRe.s 			page 35


 871:Generated_Source\PSoC5/USB_midi.c ****             else if (rxStat->runstat != 0u)
 872:Generated_Source\PSoC5/USB_midi.c ****             {
 873:Generated_Source\PSoC5/USB_midi.c ****                 rxStat->msgBuff[0u] = rxStat->runstat;
 874:Generated_Source\PSoC5/USB_midi.c ****                 rxStat->msgBuff[1u] = mData;
 875:Generated_Source\PSoC5/USB_midi.c ****                 rxStat->count = 2u;
 876:Generated_Source\PSoC5/USB_midi.c ****                 switch (rxStat->runstat & USB_MIDI_STATUS_MASK)
 877:Generated_Source\PSoC5/USB_midi.c ****                 {
 878:Generated_Source\PSoC5/USB_midi.c ****                     case USB_MIDI_NOTE_OFF:
 879:Generated_Source\PSoC5/USB_midi.c ****                     case USB_MIDI_NOTE_ON:
 880:Generated_Source\PSoC5/USB_midi.c ****                     case USB_MIDI_POLY_KEY_PRESSURE:
 881:Generated_Source\PSoC5/USB_midi.c ****                     case USB_MIDI_CONTROL_CHANGE:
 882:Generated_Source\PSoC5/USB_midi.c ****                     case USB_MIDI_PITCH_BEND_CHANGE:
 883:Generated_Source\PSoC5/USB_midi.c ****                         rxStat->length = 3u;
 884:Generated_Source\PSoC5/USB_midi.c ****                         break;
 885:Generated_Source\PSoC5/USB_midi.c ****                     case USB_MIDI_PROGRAM_CHANGE:
 886:Generated_Source\PSoC5/USB_midi.c ****                     case USB_MIDI_CHANNEL_PRESSURE:
 887:Generated_Source\PSoC5/USB_midi.c ****                         rxStat->size =rxStat->count;
 888:Generated_Source\PSoC5/USB_midi.c ****                         rxStat->count = 0u;
 889:Generated_Source\PSoC5/USB_midi.c ****                         midiReturn = rxStat->size;
 890:Generated_Source\PSoC5/USB_midi.c ****                         break;
 891:Generated_Source\PSoC5/USB_midi.c ****                     default:
 892:Generated_Source\PSoC5/USB_midi.c ****                         rxStat->count = 0u;
 893:Generated_Source\PSoC5/USB_midi.c ****                     break;
 894:Generated_Source\PSoC5/USB_midi.c ****                 }
 895:Generated_Source\PSoC5/USB_midi.c ****             }
 896:Generated_Source\PSoC5/USB_midi.c ****             else
 897:Generated_Source\PSoC5/USB_midi.c ****             {
 898:Generated_Source\PSoC5/USB_midi.c ****             }
 899:Generated_Source\PSoC5/USB_midi.c ****         }
 900:Generated_Source\PSoC5/USB_midi.c ****         return (midiReturn);
 901:Generated_Source\PSoC5/USB_midi.c ****     }
 897              		.loc 1 901 0
 898 0022 30BC     		pop	{r4, r5}
 899              		.cfi_remember_state
 900              		.cfi_restore 5
 901              		.cfi_restore 4
 902              		.cfi_def_cfa_offset 0
 903 0024 7047     		bx	lr
 904              	.LVL88:
 905              	.L77:
 906              		.cfi_restore_state
 871:Generated_Source\PSoC5/USB_midi.c ****             {
 907              		.loc 1 871 0
 908 0026 002B     		cmp	r3, #0
 909 0028 FAD0     		beq	.L83
 876:Generated_Source\PSoC5/USB_midi.c ****                 {
 910              		.loc 1 876 0
 911 002a 03F0F002 		and	r2, r3, #240
 875:Generated_Source\PSoC5/USB_midi.c ****                 switch (rxStat->runstat & USB_MIDI_STATUS_MASK)
 912              		.loc 1 875 0
 913 002e 0224     		movs	r4, #2
 876:Generated_Source\PSoC5/USB_midi.c ****                 {
 914              		.loc 1 876 0
 915 0030 B02A     		cmp	r2, #176
 873:Generated_Source\PSoC5/USB_midi.c ****                 rxStat->msgBuff[1u] = mData;
 916              		.loc 1 873 0
 917 0032 0B71     		strb	r3, [r1, #4]
ARM GAS  C:\Users\jwvance\AppData\Local\Temp\ccxTgFRe.s 			page 36


 874:Generated_Source\PSoC5/USB_midi.c ****                 rxStat->count = 2u;
 918              		.loc 1 874 0
 919 0034 4871     		strb	r0, [r1, #5]
 875:Generated_Source\PSoC5/USB_midi.c ****                 switch (rxStat->runstat & USB_MIDI_STATUS_MASK)
 920              		.loc 1 875 0
 921 0036 4C70     		strb	r4, [r1, #1]
 876:Generated_Source\PSoC5/USB_midi.c ****                 {
 922              		.loc 1 876 0
 923 0038 54D0     		beq	.L80
 924 003a 58D9     		bls	.L134
 925 003c D02A     		cmp	r2, #208
 926 003e 2AD0     		beq	.L82
 927 0040 E02A     		cmp	r2, #224
 928 0042 4FD0     		beq	.L80
 929 0044 C02A     		cmp	r2, #192
 930 0046 26D0     		beq	.L82
 931              	.L79:
 892:Generated_Source\PSoC5/USB_midi.c ****                     break;
 932              		.loc 1 892 0
 933 0048 0020     		movs	r0, #0
 934              	.LVL89:
 935 004a 4870     		strb	r0, [r1, #1]
 893:Generated_Source\PSoC5/USB_midi.c ****                 }
 936              		.loc 1 893 0
 937 004c E9E7     		b	.L63
 938              	.LVL90:
 939              	.L132:
 768:Generated_Source\PSoC5/USB_midi.c ****             {
 940              		.loc 1 768 0
 941 004e 00F0F003 		and	r3, r0, #240
 942 0052 F02B     		cmp	r3, #240
 943 0054 25D0     		beq	.L135
 824:Generated_Source\PSoC5/USB_midi.c ****                 switch (mData & USB_MIDI_STATUS_MASK)
 944              		.loc 1 824 0
 945 0056 0122     		movs	r2, #1
 825:Generated_Source\PSoC5/USB_midi.c ****                 {
 946              		.loc 1 825 0
 947 0058 B02B     		cmp	r3, #176
 822:Generated_Source\PSoC5/USB_midi.c ****                 rxStat->runstat = mData;
 948              		.loc 1 822 0
 949 005a 0871     		strb	r0, [r1, #4]
 823:Generated_Source\PSoC5/USB_midi.c ****                 rxStat->count = 1u;
 950              		.loc 1 823 0
 951 005c C870     		strb	r0, [r1, #3]
 824:Generated_Source\PSoC5/USB_midi.c ****                 switch (mData & USB_MIDI_STATUS_MASK)
 952              		.loc 1 824 0
 953 005e 4A70     		strb	r2, [r1, #1]
 825:Generated_Source\PSoC5/USB_midi.c ****                 {
 954              		.loc 1 825 0
 955 0060 40D0     		beq	.L80
 956 0062 3BD9     		bls	.L136
 957 0064 D02B     		cmp	r3, #208
 958 0066 35D0     		beq	.L74
 959 0068 E02B     		cmp	r3, #224
 960 006a 3BD0     		beq	.L80
 961 006c C02B     		cmp	r3, #192
 962 006e 31D0     		beq	.L74
ARM GAS  C:\Users\jwvance\AppData\Local\Temp\ccxTgFRe.s 			page 37


 963              	.L71:
 839:Generated_Source\PSoC5/USB_midi.c ****                         rxStat->count = 0u;
 964              		.loc 1 839 0
 965 0070 0020     		movs	r0, #0
 966              	.LVL91:
 967 0072 C870     		strb	r0, [r1, #3]
 840:Generated_Source\PSoC5/USB_midi.c ****                         break;
 968              		.loc 1 840 0
 969 0074 4870     		strb	r0, [r1, #1]
 841:Generated_Source\PSoC5/USB_midi.c ****                 }
 970              		.loc 1 841 0
 971 0076 D4E7     		b	.L63
 972              	.LVL92:
 973              	.L133:
 851:Generated_Source\PSoC5/USB_midi.c ****                 rxStat->count++;
 974              		.loc 1 851 0
 975 0078 4C78     		ldrb	r4, [r1, #1]	@ zero_extendqisi2
 853:Generated_Source\PSoC5/USB_midi.c ****                 {
 976              		.loc 1 853 0
 977 007a 0D78     		ldrb	r5, [r1]	@ zero_extendqisi2
 852:Generated_Source\PSoC5/USB_midi.c ****                 if (rxStat->count >= rxStat->length)
 978              		.loc 1 852 0
 979 007c 621C     		adds	r2, r4, #1
 980 007e D2B2     		uxtb	r2, r2
 851:Generated_Source\PSoC5/USB_midi.c ****                 rxStat->count++;
 981              		.loc 1 851 0
 982 0080 0C44     		add	r4, r4, r1
 853:Generated_Source\PSoC5/USB_midi.c ****                 {
 983              		.loc 1 853 0
 984 0082 9542     		cmp	r5, r2
 851:Generated_Source\PSoC5/USB_midi.c ****                 rxStat->count++;
 985              		.loc 1 851 0
 986 0084 2071     		strb	r0, [r4, #4]
 852:Generated_Source\PSoC5/USB_midi.c ****                 if (rxStat->count >= rxStat->length)
 987              		.loc 1 852 0
 988 0086 4A70     		strb	r2, [r1, #1]
 853:Generated_Source\PSoC5/USB_midi.c ****                 {
 989              		.loc 1 853 0
 990 0088 CAD8     		bhi	.L83
 856:Generated_Source\PSoC5/USB_midi.c ****                     midiReturn = USB_MIDI_SYSEX;
 991              		.loc 1 856 0
 992 008a 0024     		movs	r4, #0
 857:Generated_Source\PSoC5/USB_midi.c ****                 }
 993              		.loc 1 857 0
 994 008c 1846     		mov	r0, r3
 995              	.LVL93:
 856:Generated_Source\PSoC5/USB_midi.c ****                     midiReturn = USB_MIDI_SYSEX;
 996              		.loc 1 856 0
 997 008e 4C70     		strb	r4, [r1, #1]
 998              	.LVL94:
 855:Generated_Source\PSoC5/USB_midi.c ****                     rxStat->count = 0u;
 999              		.loc 1 855 0
 1000 0090 8A70     		strb	r2, [r1, #2]
 1001              		.loc 1 901 0
 1002 0092 30BC     		pop	{r4, r5}
 1003              		.cfi_remember_state
 1004              		.cfi_restore 4
ARM GAS  C:\Users\jwvance\AppData\Local\Temp\ccxTgFRe.s 			page 38


 1005              		.cfi_restore 5
 1006              		.cfi_def_cfa_offset 0
 1007 0094 7047     		bx	lr
 1008              	.LVL95:
 1009              	.L82:
 1010              		.cfi_restore_state
 887:Generated_Source\PSoC5/USB_midi.c ****                         rxStat->count = 0u;
 1011              		.loc 1 887 0
 1012 0096 0220     		movs	r0, #2
 1013              	.LVL96:
 1014              	.L130:
 888:Generated_Source\PSoC5/USB_midi.c ****                         midiReturn = rxStat->size;
 1015              		.loc 1 888 0
 1016 0098 0023     		movs	r3, #0
 887:Generated_Source\PSoC5/USB_midi.c ****                         rxStat->count = 0u;
 1017              		.loc 1 887 0
 1018 009a 8870     		strb	r0, [r1, #2]
 888:Generated_Source\PSoC5/USB_midi.c ****                         midiReturn = rxStat->size;
 1019              		.loc 1 888 0
 1020 009c 4B70     		strb	r3, [r1, #1]
 1021              	.LVL97:
 1022              		.loc 1 901 0
 1023 009e 30BC     		pop	{r4, r5}
 1024              		.cfi_remember_state
 1025              		.cfi_restore 4
 1026              		.cfi_restore 5
 1027              		.cfi_def_cfa_offset 0
 1028 00a0 7047     		bx	lr
 1029              	.LVL98:
 1030              	.L135:
 1031              		.cfi_restore_state
 770:Generated_Source\PSoC5/USB_midi.c ****                 {
 1032              		.loc 1 770 0
 1033 00a2 0307     		lsls	r3, r0, #28
 1034 00a4 BDD4     		bmi	.L63
 776:Generated_Source\PSoC5/USB_midi.c ****                     {
 1035              		.loc 1 776 0
 1036 00a6 A0F1F003 		sub	r3, r0, #240
 1037 00aa 072B     		cmp	r3, #7
 1038 00ac B8D8     		bhi	.L83
 1039 00ae 01A2     		adr	r2, .L65
 1040 00b0 52F823F0 		ldr	pc, [r2, r3, lsl #2]
 1041              		.p2align 2
 1042              	.L65:
 1043 00b4 47010000 		.word	.L64+1
 1044 00b8 43010000 		.word	.L66+1
 1045 00bc 31010000 		.word	.L67+1
 1046 00c0 1F010000 		.word	.L68+1
 1047 00c4 21000000 		.word	.L83+1
 1048 00c8 21000000 		.word	.L83+1
 1049 00cc 0F010000 		.word	.L69+1
 1050 00d0 03010000 		.word	.L70+1
 1051              		.p2align 1
 1052              	.L74:
 836:Generated_Source\PSoC5/USB_midi.c ****                         break;
 1053              		.loc 1 836 0
 1054 00d4 0223     		movs	r3, #2
ARM GAS  C:\Users\jwvance\AppData\Local\Temp\ccxTgFRe.s 			page 39


 1055 00d6 0B70     		strb	r3, [r1]
 761:Generated_Source\PSoC5/USB_midi.c **** 
 1056              		.loc 1 761 0
 1057 00d8 0020     		movs	r0, #0
 1058              	.LVL99:
 837:Generated_Source\PSoC5/USB_midi.c ****                     default:
 1059              		.loc 1 837 0
 1060 00da A2E7     		b	.L63
 1061              	.LVL100:
 1062              	.L136:
 825:Generated_Source\PSoC5/USB_midi.c ****                 {
 1063              		.loc 1 825 0
 1064 00dc 902B     		cmp	r3, #144
 1065 00de 01D0     		beq	.L80
 1066 00e0 A02B     		cmp	r3, #160
 1067 00e2 0BD1     		bne	.L137
 1068              	.L80:
 1069              		.loc 1 901 0
 1070 00e4 30BC     		pop	{r4, r5}
 1071              		.cfi_remember_state
 1072              		.cfi_restore 4
 1073              		.cfi_restore 5
 1074              		.cfi_def_cfa_offset 0
 883:Generated_Source\PSoC5/USB_midi.c ****                         break;
 1075              		.loc 1 883 0
 1076 00e6 0323     		movs	r3, #3
 761:Generated_Source\PSoC5/USB_midi.c **** 
 1077              		.loc 1 761 0
 1078 00e8 0020     		movs	r0, #0
 1079              	.LVL101:
 883:Generated_Source\PSoC5/USB_midi.c ****                         break;
 1080              		.loc 1 883 0
 1081 00ea 0B70     		strb	r3, [r1]
 1082              		.loc 1 901 0
 1083 00ec 7047     		bx	lr
 1084              	.LVL102:
 1085              	.L134:
 1086              		.cfi_restore_state
 876:Generated_Source\PSoC5/USB_midi.c ****                 {
 1087              		.loc 1 876 0
 1088 00ee 902A     		cmp	r2, #144
 1089 00f0 F8D0     		beq	.L80
 1090 00f2 A02A     		cmp	r2, #160
 1091 00f4 F6D0     		beq	.L80
 1092 00f6 802A     		cmp	r2, #128
 1093 00f8 A6D1     		bne	.L79
 1094 00fa F3E7     		b	.L80
 1095              	.L137:
 825:Generated_Source\PSoC5/USB_midi.c ****                 {
 1096              		.loc 1 825 0
 1097 00fc 802B     		cmp	r3, #128
 1098 00fe B7D1     		bne	.L71
 1099 0100 F0E7     		b	.L80
 1100              	.L70:
 786:Generated_Source\PSoC5/USB_midi.c ****                             rxStat->count = 0u;
 1101              		.loc 1 786 0
 1102 0102 4A78     		ldrb	r2, [r1, #1]	@ zero_extendqisi2
ARM GAS  C:\Users\jwvance\AppData\Local\Temp\ccxTgFRe.s 			page 40


 785:Generated_Source\PSoC5/USB_midi.c ****                             rxStat->size = rxStat->count;
 1103              		.loc 1 785 0
 1104 0104 0023     		movs	r3, #0
 786:Generated_Source\PSoC5/USB_midi.c ****                             rxStat->count = 0u;
 1105              		.loc 1 786 0
 1106 0106 8A70     		strb	r2, [r1, #2]
 785:Generated_Source\PSoC5/USB_midi.c ****                             rxStat->size = rxStat->count;
 1107              		.loc 1 785 0
 1108 0108 CB70     		strb	r3, [r1, #3]
 787:Generated_Source\PSoC5/USB_midi.c ****                             midiReturn = USB_MIDI_EOSEX;
 1109              		.loc 1 787 0
 1110 010a 4B70     		strb	r3, [r1, #1]
 1111              	.LVL103:
 789:Generated_Source\PSoC5/USB_midi.c ****                         case USB_MIDI_SPP:
 1112              		.loc 1 789 0
 1113 010c 89E7     		b	.L63
 1114              	.LVL104:
 1115              	.L69:
 810:Generated_Source\PSoC5/USB_midi.c ****                             rxStat->size = 1u;
 1116              		.loc 1 810 0
 1117 010e 0023     		movs	r3, #0
 809:Generated_Source\PSoC5/USB_midi.c ****                             rxStat->runstat = 0u;
 1118              		.loc 1 809 0
 1119 0110 F622     		movs	r2, #246
 811:Generated_Source\PSoC5/USB_midi.c ****                             rxStat->count = 0u;
 1120              		.loc 1 811 0
 1121 0112 0120     		movs	r0, #1
 1122              	.LVL105:
 809:Generated_Source\PSoC5/USB_midi.c ****                             rxStat->runstat = 0u;
 1123              		.loc 1 809 0
 1124 0114 0A71     		strb	r2, [r1, #4]
 810:Generated_Source\PSoC5/USB_midi.c ****                             rxStat->size = 1u;
 1125              		.loc 1 810 0
 1126 0116 CB70     		strb	r3, [r1, #3]
 812:Generated_Source\PSoC5/USB_midi.c ****                             midiReturn = rxStat->size;
 1127              		.loc 1 812 0
 1128 0118 4B70     		strb	r3, [r1, #1]
 1129              	.LVL106:
 811:Generated_Source\PSoC5/USB_midi.c ****                             rxStat->count = 0u;
 1130              		.loc 1 811 0
 1131 011a 8870     		strb	r0, [r1, #2]
 814:Generated_Source\PSoC5/USB_midi.c ****                         default:
 1132              		.loc 1 814 0
 1133 011c 81E7     		b	.L63
 1134              	.LVL107:
 1135              	.L68:
 797:Generated_Source\PSoC5/USB_midi.c ****                             rxStat->runstat = 0u;
 1136              		.loc 1 797 0
 1137 011e F324     		movs	r4, #243
 1138              	.L131:
 804:Generated_Source\PSoC5/USB_midi.c ****                             rxStat->count = 1u;
 1139              		.loc 1 804 0
 1140 0120 0020     		movs	r0, #0
 1141              	.LVL108:
 805:Generated_Source\PSoC5/USB_midi.c ****                             rxStat->length = 2u;
 1142              		.loc 1 805 0
 1143 0122 0122     		movs	r2, #1
ARM GAS  C:\Users\jwvance\AppData\Local\Temp\ccxTgFRe.s 			page 41


 806:Generated_Source\PSoC5/USB_midi.c ****                             break;
 1144              		.loc 1 806 0
 1145 0124 0223     		movs	r3, #2
 803:Generated_Source\PSoC5/USB_midi.c ****                             rxStat->runstat = 0u;
 1146              		.loc 1 803 0
 1147 0126 0C71     		strb	r4, [r1, #4]
 804:Generated_Source\PSoC5/USB_midi.c ****                             rxStat->count = 1u;
 1148              		.loc 1 804 0
 1149 0128 C870     		strb	r0, [r1, #3]
 805:Generated_Source\PSoC5/USB_midi.c ****                             rxStat->length = 2u;
 1150              		.loc 1 805 0
 1151 012a 4A70     		strb	r2, [r1, #1]
 806:Generated_Source\PSoC5/USB_midi.c ****                             break;
 1152              		.loc 1 806 0
 1153 012c 0B70     		strb	r3, [r1]
 807:Generated_Source\PSoC5/USB_midi.c ****                         case USB_MIDI_TUNEREQ:
 1154              		.loc 1 807 0
 1155 012e 78E7     		b	.L63
 1156              	.LVL109:
 1157              	.L67:
 791:Generated_Source\PSoC5/USB_midi.c ****                             rxStat->runstat = 0u;
 1158              		.loc 1 791 0
 1159 0130 F224     		movs	r4, #242
 792:Generated_Source\PSoC5/USB_midi.c ****                             rxStat->count = 1u;
 1160              		.loc 1 792 0
 1161 0132 0020     		movs	r0, #0
 1162              	.LVL110:
 793:Generated_Source\PSoC5/USB_midi.c ****                             rxStat->length = 3u;
 1163              		.loc 1 793 0
 1164 0134 0122     		movs	r2, #1
 794:Generated_Source\PSoC5/USB_midi.c ****                             break;
 1165              		.loc 1 794 0
 1166 0136 0323     		movs	r3, #3
 791:Generated_Source\PSoC5/USB_midi.c ****                             rxStat->runstat = 0u;
 1167              		.loc 1 791 0
 1168 0138 0C71     		strb	r4, [r1, #4]
 792:Generated_Source\PSoC5/USB_midi.c ****                             rxStat->count = 1u;
 1169              		.loc 1 792 0
 1170 013a C870     		strb	r0, [r1, #3]
 793:Generated_Source\PSoC5/USB_midi.c ****                             rxStat->length = 3u;
 1171              		.loc 1 793 0
 1172 013c 4A70     		strb	r2, [r1, #1]
 794:Generated_Source\PSoC5/USB_midi.c ****                             break;
 1173              		.loc 1 794 0
 1174 013e 0B70     		strb	r3, [r1]
 795:Generated_Source\PSoC5/USB_midi.c ****                         case USB_MIDI_SONGSEL:
 1175              		.loc 1 795 0
 1176 0140 6FE7     		b	.L63
 1177              	.LVL111:
 1178              	.L66:
 803:Generated_Source\PSoC5/USB_midi.c ****                             rxStat->runstat = 0u;
 1179              		.loc 1 803 0
 1180 0142 F124     		movs	r4, #241
 1181 0144 ECE7     		b	.L131
 1182              	.L64:
 779:Generated_Source\PSoC5/USB_midi.c ****                             rxStat->runstat = USB_MIDI_SYSEX;
 1183              		.loc 1 779 0
ARM GAS  C:\Users\jwvance\AppData\Local\Temp\ccxTgFRe.s 			page 42


 1184 0146 F023     		movs	r3, #240
 781:Generated_Source\PSoC5/USB_midi.c ****                             rxStat->length = 3u;
 1185              		.loc 1 781 0
 1186 0148 0120     		movs	r0, #1
 1187              	.LVL112:
 782:Generated_Source\PSoC5/USB_midi.c ****                             break;
 1188              		.loc 1 782 0
 1189 014a 0322     		movs	r2, #3
 781:Generated_Source\PSoC5/USB_midi.c ****                             rxStat->length = 3u;
 1190              		.loc 1 781 0
 1191 014c 4870     		strb	r0, [r1, #1]
 779:Generated_Source\PSoC5/USB_midi.c ****                             rxStat->runstat = USB_MIDI_SYSEX;
 1192              		.loc 1 779 0
 1193 014e 0B71     		strb	r3, [r1, #4]
 780:Generated_Source\PSoC5/USB_midi.c ****                             rxStat->count = 1u;
 1194              		.loc 1 780 0
 1195 0150 CB70     		strb	r3, [r1, #3]
 782:Generated_Source\PSoC5/USB_midi.c ****                             break;
 1196              		.loc 1 782 0
 1197 0152 0A70     		strb	r2, [r1]
 761:Generated_Source\PSoC5/USB_midi.c **** 
 1198              		.loc 1 761 0
 1199 0154 0020     		movs	r0, #0
 783:Generated_Source\PSoC5/USB_midi.c ****                         case USB_MIDI_EOSEX:
 1200              		.loc 1 783 0
 1201 0156 64E7     		b	.L63
 1202              		.cfi_endproc
 1203              	.LFE7:
 1204              		.size	USB_ProcessMidiIn, .-USB_ProcessMidiIn
 1205              		.section	.text.USB_MIDI1_GetEvent,"ax",%progbits
 1206              		.align	2
 1207              		.global	USB_MIDI1_GetEvent
 1208              		.thumb
 1209              		.thumb_func
 1210              		.type	USB_MIDI1_GetEvent, %function
 1211              	USB_MIDI1_GetEvent:
 1212              	.LFB8:
 902:Generated_Source\PSoC5/USB_midi.c **** 
 903:Generated_Source\PSoC5/USB_midi.c **** 
 904:Generated_Source\PSoC5/USB_midi.c ****     /*******************************************************************************
 905:Generated_Source\PSoC5/USB_midi.c ****     * Function Name: USB_MIDI1_GetEvent
 906:Generated_Source\PSoC5/USB_midi.c ****     ********************************************************************************
 907:Generated_Source\PSoC5/USB_midi.c ****     *
 908:Generated_Source\PSoC5/USB_midi.c ****     * Summary:
 909:Generated_Source\PSoC5/USB_midi.c ****     *  Checks for incoming MIDI data, calls the MIDI event builder if so.
 910:Generated_Source\PSoC5/USB_midi.c ****     *  Returns either empty or with a complete event.
 911:Generated_Source\PSoC5/USB_midi.c ****     *
 912:Generated_Source\PSoC5/USB_midi.c ****     * Parameters:
 913:Generated_Source\PSoC5/USB_midi.c ****     *  None
 914:Generated_Source\PSoC5/USB_midi.c ****     *
 915:Generated_Source\PSoC5/USB_midi.c ****     * Return:
 916:Generated_Source\PSoC5/USB_midi.c ****     *   0, if no complete message
 917:Generated_Source\PSoC5/USB_midi.c ****     *   1 - 4, if message complete
 918:Generated_Source\PSoC5/USB_midi.c ****     *   MIDI_SYSEX, if start or continuation of system exclusive
 919:Generated_Source\PSoC5/USB_midi.c ****     *   MIDI_EOSEX, if end of system exclusive
 920:Generated_Source\PSoC5/USB_midi.c ****     *   0xf8 - 0xff, if single byte real time message
 921:Generated_Source\PSoC5/USB_midi.c ****     *
ARM GAS  C:\Users\jwvance\AppData\Local\Temp\ccxTgFRe.s 			page 43


 922:Generated_Source\PSoC5/USB_midi.c ****     * Global variables:
 923:Generated_Source\PSoC5/USB_midi.c ****     *  USB_MIDI1_Event: RX status structure used to parse received
 924:Generated_Source\PSoC5/USB_midi.c ****     *    data.
 925:Generated_Source\PSoC5/USB_midi.c ****     *
 926:Generated_Source\PSoC5/USB_midi.c ****     *******************************************************************************/
 927:Generated_Source\PSoC5/USB_midi.c ****     uint8 USB_MIDI1_GetEvent(void) 
 928:Generated_Source\PSoC5/USB_midi.c ****     {
 1213              		.loc 1 928 0
 1214              		.cfi_startproc
 1215              		@ args = 0, pretend = 0, frame = 0
 1216              		@ frame_needed = 0, uses_anonymous_args = 0
 1217              	.LVL113:
 1218 0000 2DE9F843 		push	{r3, r4, r5, r6, r7, r8, r9, lr}
 1219              		.cfi_def_cfa_offset 32
 1220              		.cfi_offset 3, -32
 1221              		.cfi_offset 4, -28
 1222              		.cfi_offset 5, -24
 1223              		.cfi_offset 6, -20
 1224              		.cfi_offset 7, -16
 1225              		.cfi_offset 8, -12
 1226              		.cfi_offset 9, -8
 1227              		.cfi_offset 14, -4
 929:Generated_Source\PSoC5/USB_midi.c ****         uint8 msgRtn = 0u;
 930:Generated_Source\PSoC5/USB_midi.c ****         uint8 rxData;
 931:Generated_Source\PSoC5/USB_midi.c ****         #if (MIDI1_UART_RXBUFFERSIZE >= 256u)
 932:Generated_Source\PSoC5/USB_midi.c ****             uint16 rxBufferRead;
 933:Generated_Source\PSoC5/USB_midi.c ****             #if (CY_PSOC3) /* This local variable is required only for PSOC3 and large buffer */
 934:Generated_Source\PSoC5/USB_midi.c ****                 uint16 rxBufferWrite;
 935:Generated_Source\PSoC5/USB_midi.c ****             #endif /* (CY_PSOC3) */
 936:Generated_Source\PSoC5/USB_midi.c ****         #else
 937:Generated_Source\PSoC5/USB_midi.c ****             uint8 rxBufferRead;
 938:Generated_Source\PSoC5/USB_midi.c ****         #endif /* (MIDI1_UART_RXBUFFERSIZE >= 256u) */
 939:Generated_Source\PSoC5/USB_midi.c ****         
 940:Generated_Source\PSoC5/USB_midi.c ****         uint8 rxBufferLoopDetect;
 941:Generated_Source\PSoC5/USB_midi.c ****         /* Read buffer loop condition to the local variable */
 942:Generated_Source\PSoC5/USB_midi.c ****         rxBufferLoopDetect = MIDI1_UART_rxBufferLoopDetect;
 1228              		.loc 1 942 0
 1229 0004 1C4D     		ldr	r5, .L154
 943:Generated_Source\PSoC5/USB_midi.c **** 
 944:Generated_Source\PSoC5/USB_midi.c ****         if ( (MIDI1_UART_rxBufferRead != MIDI1_UART_rxBufferWrite) || (rxBufferLoopDetect != 0u) )
 1230              		.loc 1 944 0
 1231 0006 DFF88080 		ldr	r8, .L154+16
 1232 000a 1C4E     		ldr	r6, .L154+4
 942:Generated_Source\PSoC5/USB_midi.c **** 
 1233              		.loc 1 942 0
 1234 000c 2B78     		ldrb	r3, [r5]	@ zero_extendqisi2
 1235              		.loc 1 944 0
 1236 000e 98F80010 		ldrb	r1, [r8]	@ zero_extendqisi2
 1237 0012 3278     		ldrb	r2, [r6]	@ zero_extendqisi2
 942:Generated_Source\PSoC5/USB_midi.c **** 
 1238              		.loc 1 942 0
 1239 0014 DBB2     		uxtb	r3, r3
 1240              	.LVL114:
 1241              		.loc 1 944 0
 1242 0016 9142     		cmp	r1, r2
 1243 0018 28D0     		beq	.L152
 1244              	.L139:
ARM GAS  C:\Users\jwvance\AppData\Local\Temp\ccxTgFRe.s 			page 44


 945:Generated_Source\PSoC5/USB_midi.c ****         {
 946:Generated_Source\PSoC5/USB_midi.c ****             /* Protect variables that could change on interrupt by disabling Rx interrupt.*/
 947:Generated_Source\PSoC5/USB_midi.c ****             #if ((MIDI1_UART_RXBUFFERSIZE >= 256u) && (CY_PSOC3))
 948:Generated_Source\PSoC5/USB_midi.c ****                 CyIntDisable(MIDI1_UART_RX_VECT_NUM);
 949:Generated_Source\PSoC5/USB_midi.c ****             #endif /* ((MIDI1_UART_RXBUFFERSIZE >= 256u) && (CY_PSOC3)) */
 950:Generated_Source\PSoC5/USB_midi.c ****             rxBufferRead = MIDI1_UART_rxBufferRead;
 1245              		.loc 1 950 0
 1246 001a 98F80040 		ldrb	r4, [r8]	@ zero_extendqisi2
 951:Generated_Source\PSoC5/USB_midi.c ****             #if ((MIDI1_UART_RXBUFFERSIZE >= 256u) && (CY_PSOC3))
 952:Generated_Source\PSoC5/USB_midi.c ****                 rxBufferWrite = MIDI1_UART_rxBufferWrite;
 953:Generated_Source\PSoC5/USB_midi.c ****                 CyIntEnable(MIDI1_UART_RX_VECT_NUM);
 954:Generated_Source\PSoC5/USB_midi.c ****             #endif /* ((MIDI1_UART_RXBUFFERSIZE >= 256u) && (CY_PSOC3)) */
 955:Generated_Source\PSoC5/USB_midi.c **** 
 956:Generated_Source\PSoC5/USB_midi.c ****             /* Stay here until either the buffer is empty or we have a complete message
 957:Generated_Source\PSoC5/USB_midi.c ****             *  in the message buffer. Note that we must use a temporary buffer pointer
 958:Generated_Source\PSoC5/USB_midi.c ****             *  since it takes two instructions to increment with a wrap, and we can't
 959:Generated_Source\PSoC5/USB_midi.c ****             *  risk doing that with the real pointer and getting an interrupt in between
 960:Generated_Source\PSoC5/USB_midi.c ****             *  instructions.
 961:Generated_Source\PSoC5/USB_midi.c ****             */
 962:Generated_Source\PSoC5/USB_midi.c **** 
 963:Generated_Source\PSoC5/USB_midi.c ****             #if ((MIDI1_UART_RXBUFFERSIZE >= 256u) && (CY_PSOC3))
 964:Generated_Source\PSoC5/USB_midi.c ****                 while ( ((rxBufferRead != rxBufferWrite) || (rxBufferLoopDetect != 0u)) && (msgRtn 
 965:Generated_Source\PSoC5/USB_midi.c ****             #else
 966:Generated_Source\PSoC5/USB_midi.c ****                 while ( ((rxBufferRead != MIDI1_UART_rxBufferWrite) || (rxBufferLoopDetect != 0u)) 
 1247              		.loc 1 966 0
 1248 001e 3278     		ldrb	r2, [r6]	@ zero_extendqisi2
 950:Generated_Source\PSoC5/USB_midi.c ****             #if ((MIDI1_UART_RXBUFFERSIZE >= 256u) && (CY_PSOC3))
 1249              		.loc 1 950 0
 1250 0020 E4B2     		uxtb	r4, r4
 1251              	.LVL115:
 929:Generated_Source\PSoC5/USB_midi.c ****         uint8 rxData;
 1252              		.loc 1 929 0
 1253 0022 0020     		movs	r0, #0
 1254              	.LVL116:
 1255              		.loc 1 966 0
 1256 0024 9442     		cmp	r4, r2
 967:Generated_Source\PSoC5/USB_midi.c ****             #endif /*  ((MIDI1_UART_RXBUFFERSIZE >= 256u) && (CY_PSOC3)) */
 968:Generated_Source\PSoC5/USB_midi.c ****                 {
 969:Generated_Source\PSoC5/USB_midi.c ****                     rxData = MIDI1_UART_rxBuffer[rxBufferRead];
 970:Generated_Source\PSoC5/USB_midi.c ****                     /* Increment pointer with a wrap */
 971:Generated_Source\PSoC5/USB_midi.c ****                     rxBufferRead++;
 972:Generated_Source\PSoC5/USB_midi.c ****                     if(rxBufferRead >= MIDI1_UART_RXBUFFERSIZE)
 973:Generated_Source\PSoC5/USB_midi.c ****                     {
 974:Generated_Source\PSoC5/USB_midi.c ****                         rxBufferRead = 0u;
 975:Generated_Source\PSoC5/USB_midi.c ****                     }
 976:Generated_Source\PSoC5/USB_midi.c ****                     /* If loop condition was set - update real read buffer pointer
 977:Generated_Source\PSoC5/USB_midi.c ****                     *  to avoid overflow status
 978:Generated_Source\PSoC5/USB_midi.c ****                     */
 979:Generated_Source\PSoC5/USB_midi.c ****                     if(rxBufferLoopDetect != 0u )
 980:Generated_Source\PSoC5/USB_midi.c ****                     {
 981:Generated_Source\PSoC5/USB_midi.c ****                         MIDI1_UART_rxBufferLoopDetect = 0u;
 1257              		.loc 1 981 0
 1258 0026 8146     		mov	r9, r0
 969:Generated_Source\PSoC5/USB_midi.c ****                     /* Increment pointer with a wrap */
 1259              		.loc 1 969 0
 1260 0028 154F     		ldr	r7, .L154+8
 971:Generated_Source\PSoC5/USB_midi.c ****                     if(rxBufferRead >= MIDI1_UART_RXBUFFERSIZE)
ARM GAS  C:\Users\jwvance\AppData\Local\Temp\ccxTgFRe.s 			page 45


 1261              		.loc 1 971 0
 1262 002a 04F1010E 		add	lr, r4, #1
 982:Generated_Source\PSoC5/USB_midi.c ****                         #if ((MIDI1_UART_RXBUFFERSIZE >= 256u) && (CY_PSOC3))
 983:Generated_Source\PSoC5/USB_midi.c ****                             CyIntDisable(MIDI1_UART_RX_VECT_NUM);
 984:Generated_Source\PSoC5/USB_midi.c ****                         #endif /*  MIDI1_UART_RXBUFFERSIZE >= 256 */
 985:Generated_Source\PSoC5/USB_midi.c ****                         MIDI1_UART_rxBufferRead = rxBufferRead;
 986:Generated_Source\PSoC5/USB_midi.c ****                         #if ((MIDI1_UART_RXBUFFERSIZE >= 256u) && (CY_PSOC3))
 987:Generated_Source\PSoC5/USB_midi.c ****                             CyIntEnable(MIDI1_UART_RX_VECT_NUM);
 988:Generated_Source\PSoC5/USB_midi.c ****                         #endif /*  MIDI1_UART_RXBUFFERSIZE >= 256 */
 989:Generated_Source\PSoC5/USB_midi.c ****                     }
 990:Generated_Source\PSoC5/USB_midi.c **** 
 991:Generated_Source\PSoC5/USB_midi.c ****                     msgRtn = USB_ProcessMidiIn(rxData,
 1263              		.loc 1 991 0
 1264 002e 1549     		ldr	r1, .L154+12
 966:Generated_Source\PSoC5/USB_midi.c ****             #endif /*  ((MIDI1_UART_RXBUFFERSIZE >= 256u) && (CY_PSOC3)) */
 1265              		.loc 1 966 0
 1266 0030 16D0     		beq	.L153
 1267              	.L144:
 966:Generated_Source\PSoC5/USB_midi.c ****             #endif /*  ((MIDI1_UART_RXBUFFERSIZE >= 256u) && (CY_PSOC3)) */
 1268              		.loc 1 966 0 is_stmt 0 discriminator 3
 1269 0032 B8B9     		cbnz	r0, .L146
 969:Generated_Source\PSoC5/USB_midi.c ****                     /* Increment pointer with a wrap */
 1270              		.loc 1 969 0 is_stmt 1
 1271 0034 385D     		ldrb	r0, [r7, r4]	@ zero_extendqisi2
 1272              	.LVL117:
 971:Generated_Source\PSoC5/USB_midi.c ****                     if(rxBufferRead >= MIDI1_UART_RXBUFFERSIZE)
 1273              		.loc 1 971 0
 1274 0036 5FFA8EF4 		uxtb	r4, lr
 1275              	.LVL118:
 974:Generated_Source\PSoC5/USB_midi.c ****                     }
 1276              		.loc 1 974 0
 1277 003a FF2C     		cmp	r4, #255
 1278 003c 08BF     		it	eq
 1279 003e 0024     		moveq	r4, #0
 969:Generated_Source\PSoC5/USB_midi.c ****                     /* Increment pointer with a wrap */
 1280              		.loc 1 969 0
 1281 0040 C0B2     		uxtb	r0, r0
 1282              	.LVL119:
 979:Generated_Source\PSoC5/USB_midi.c ****                     {
 1283              		.loc 1 979 0
 1284 0042 1BB1     		cbz	r3, .L143
 981:Generated_Source\PSoC5/USB_midi.c ****                         #if ((MIDI1_UART_RXBUFFERSIZE >= 256u) && (CY_PSOC3))
 1285              		.loc 1 981 0
 1286 0044 85F80090 		strb	r9, [r5]
 985:Generated_Source\PSoC5/USB_midi.c ****                         #if ((MIDI1_UART_RXBUFFERSIZE >= 256u) && (CY_PSOC3))
 1287              		.loc 1 985 0
 1288 0048 88F80040 		strb	r4, [r8]
 1289              	.L143:
 1290              		.loc 1 991 0
 1291 004c FFF7FEFF 		bl	USB_ProcessMidiIn
 1292              	.LVL120:
 992:Generated_Source\PSoC5/USB_midi.c ****                                                     (USB_MIDI_RX_STATUS *)&USB_MIDI1_Event);
 993:Generated_Source\PSoC5/USB_midi.c **** 
 994:Generated_Source\PSoC5/USB_midi.c ****                     /* Read buffer loop condition to the local variable */
 995:Generated_Source\PSoC5/USB_midi.c ****                     rxBufferLoopDetect = MIDI1_UART_rxBufferLoopDetect;
 1293              		.loc 1 995 0
 1294 0050 2B78     		ldrb	r3, [r5]	@ zero_extendqisi2
ARM GAS  C:\Users\jwvance\AppData\Local\Temp\ccxTgFRe.s 			page 46


 966:Generated_Source\PSoC5/USB_midi.c ****             #endif /*  ((MIDI1_UART_RXBUFFERSIZE >= 256u) && (CY_PSOC3)) */
 1295              		.loc 1 966 0
 1296 0052 3278     		ldrb	r2, [r6]	@ zero_extendqisi2
 1297              		.loc 1 995 0
 1298 0054 DBB2     		uxtb	r3, r3
 1299              	.LVL121:
 966:Generated_Source\PSoC5/USB_midi.c ****             #endif /*  ((MIDI1_UART_RXBUFFERSIZE >= 256u) && (CY_PSOC3)) */
 1300              		.loc 1 966 0
 1301 0056 9442     		cmp	r4, r2
 971:Generated_Source\PSoC5/USB_midi.c ****                     if(rxBufferRead >= MIDI1_UART_RXBUFFERSIZE)
 1302              		.loc 1 971 0
 1303 0058 04F1010E 		add	lr, r4, #1
 991:Generated_Source\PSoC5/USB_midi.c ****                                                     (USB_MIDI_RX_STATUS *)&USB_MIDI1_Event);
 1304              		.loc 1 991 0
 1305 005c 0949     		ldr	r1, .L154+12
 966:Generated_Source\PSoC5/USB_midi.c ****             #endif /*  ((MIDI1_UART_RXBUFFERSIZE >= 256u) && (CY_PSOC3)) */
 1306              		.loc 1 966 0
 1307 005e E8D1     		bne	.L144
 1308              	.L153:
 966:Generated_Source\PSoC5/USB_midi.c ****             #endif /*  ((MIDI1_UART_RXBUFFERSIZE >= 256u) && (CY_PSOC3)) */
 1309              		.loc 1 966 0 is_stmt 0 discriminator 2
 1310 0060 002B     		cmp	r3, #0
 1311 0062 E6D1     		bne	.L144
 1312              	.L146:
 996:Generated_Source\PSoC5/USB_midi.c ****                 }
 997:Generated_Source\PSoC5/USB_midi.c **** 
 998:Generated_Source\PSoC5/USB_midi.c ****             /* Finally, update the real output pointer, then return with
 999:Generated_Source\PSoC5/USB_midi.c ****             *  an indication as to whether there's a complete message in the buffer.
1000:Generated_Source\PSoC5/USB_midi.c ****             */
1001:Generated_Source\PSoC5/USB_midi.c ****             #if ((MIDI1_UART_RXBUFFERSIZE >= 256u) && (CY_PSOC3))
1002:Generated_Source\PSoC5/USB_midi.c ****                 CyIntDisable(MIDI1_UART_RX_VECT_NUM);
1003:Generated_Source\PSoC5/USB_midi.c ****             #endif /* ((MIDI1_UART_RXBUFFERSIZE >= 256u) && (CY_PSOC3)) */
1004:Generated_Source\PSoC5/USB_midi.c ****             MIDI1_UART_rxBufferRead = rxBufferRead;
 1313              		.loc 1 1004 0 is_stmt 1
 1314 0064 88F80040 		strb	r4, [r8]
 1315 0068 BDE8F883 		pop	{r3, r4, r5, r6, r7, r8, r9, pc}
 1316              	.LVL122:
 1317              	.L152:
 944:Generated_Source\PSoC5/USB_midi.c ****         {
 1318              		.loc 1 944 0 discriminator 1
 1319 006c 002B     		cmp	r3, #0
 1320 006e D4D1     		bne	.L139
 929:Generated_Source\PSoC5/USB_midi.c ****         uint8 rxData;
 1321              		.loc 1 929 0
 1322 0070 1846     		mov	r0, r3
 1323              	.LVL123:
1005:Generated_Source\PSoC5/USB_midi.c ****             #if ((MIDI1_UART_RXBUFFERSIZE >= 256u) && (CY_PSOC3))
1006:Generated_Source\PSoC5/USB_midi.c ****                 CyIntEnable(MIDI1_UART_RX_VECT_NUM);
1007:Generated_Source\PSoC5/USB_midi.c ****             #endif /* ((MIDI1_UART_RXBUFFERSIZE >= 256u) && (CY_PSOC3)) */
1008:Generated_Source\PSoC5/USB_midi.c ****         }
1009:Generated_Source\PSoC5/USB_midi.c **** 
1010:Generated_Source\PSoC5/USB_midi.c ****         return (msgRtn);
1011:Generated_Source\PSoC5/USB_midi.c ****     }
 1324              		.loc 1 1011 0
 1325 0072 BDE8F883 		pop	{r3, r4, r5, r6, r7, r8, r9, pc}
 1326              	.LVL124:
 1327              	.L155:
ARM GAS  C:\Users\jwvance\AppData\Local\Temp\ccxTgFRe.s 			page 47


 1328 0076 00BF     		.align	2
 1329              	.L154:
 1330 0078 00000000 		.word	MIDI1_UART_rxBufferLoopDetect
 1331 007c 00000000 		.word	MIDI1_UART_rxBufferWrite
 1332 0080 00000000 		.word	MIDI1_UART_rxBuffer
 1333 0084 00000000 		.word	.LANCHOR0
 1334 0088 00000000 		.word	MIDI1_UART_rxBufferRead
 1335              		.cfi_endproc
 1336              	.LFE8:
 1337              		.size	USB_MIDI1_GetEvent, .-USB_MIDI1_GetEvent
 1338              		.section	.text.USB_MIDI1_ProcessUsbOut,"ax",%progbits
 1339              		.align	2
 1340              		.global	USB_MIDI1_ProcessUsbOut
 1341              		.thumb
 1342              		.thumb_func
 1343              		.type	USB_MIDI1_ProcessUsbOut, %function
 1344              	USB_MIDI1_ProcessUsbOut:
 1345              	.LFB9:
1012:Generated_Source\PSoC5/USB_midi.c **** 
1013:Generated_Source\PSoC5/USB_midi.c **** 
1014:Generated_Source\PSoC5/USB_midi.c ****     /*******************************************************************************
1015:Generated_Source\PSoC5/USB_midi.c ****     * Function Name: USB_MIDI1_ProcessUsbOut
1016:Generated_Source\PSoC5/USB_midi.c ****     ********************************************************************************
1017:Generated_Source\PSoC5/USB_midi.c ****     *
1018:Generated_Source\PSoC5/USB_midi.c ****     * Summary:
1019:Generated_Source\PSoC5/USB_midi.c ****     *  Process a USB MIDI output event.
1020:Generated_Source\PSoC5/USB_midi.c ****     *  Puts data into the MIDI TX output buffer.
1021:Generated_Source\PSoC5/USB_midi.c ****     *
1022:Generated_Source\PSoC5/USB_midi.c ****     * Parameters:
1023:Generated_Source\PSoC5/USB_midi.c ****     *  *epBuf: pointer on MIDI event.
1024:Generated_Source\PSoC5/USB_midi.c ****     *
1025:Generated_Source\PSoC5/USB_midi.c ****     * Return:
1026:Generated_Source\PSoC5/USB_midi.c ****     *   None
1027:Generated_Source\PSoC5/USB_midi.c ****     *
1028:Generated_Source\PSoC5/USB_midi.c ****     * Global variables:
1029:Generated_Source\PSoC5/USB_midi.c ****     *  USB_MIDI1_TxRunStat: This variable used to save the MIDI
1030:Generated_Source\PSoC5/USB_midi.c ****     *    status byte and skip to send the repeated status byte in subsequent event.
1031:Generated_Source\PSoC5/USB_midi.c ****     *  USB_MIDI1_InqFlags: The following flags are set when SysEx
1032:Generated_Source\PSoC5/USB_midi.c ****     *    message comes.
1033:Generated_Source\PSoC5/USB_midi.c ****     *    USB_INQ_SYSEX_FLAG: Non-Real Time SySEx message received.
1034:Generated_Source\PSoC5/USB_midi.c ****     *    USB_INQ_IDENTITY_REQ_FLAG: Identity Request received.
1035:Generated_Source\PSoC5/USB_midi.c ****     *      This bit should be cleared by user when Identity Reply message generated.
1036:Generated_Source\PSoC5/USB_midi.c ****     *
1037:Generated_Source\PSoC5/USB_midi.c ****     *******************************************************************************/
1038:Generated_Source\PSoC5/USB_midi.c ****     void USB_MIDI1_ProcessUsbOut(const uint8 epBuf[])
1039:Generated_Source\PSoC5/USB_midi.c ****                                                             
1040:Generated_Source\PSoC5/USB_midi.c ****     {
 1346              		.loc 1 1040 0
 1347              		.cfi_startproc
 1348              		@ args = 0, pretend = 0, frame = 0
 1349              		@ frame_needed = 0, uses_anonymous_args = 0
 1350              	.LVL125:
1041:Generated_Source\PSoC5/USB_midi.c ****         uint8 cmd;
1042:Generated_Source\PSoC5/USB_midi.c ****         uint8 len;
1043:Generated_Source\PSoC5/USB_midi.c ****         uint8 i;
1044:Generated_Source\PSoC5/USB_midi.c **** 
1045:Generated_Source\PSoC5/USB_midi.c ****         /* User code is required at the beginning of the procedure */
ARM GAS  C:\Users\jwvance\AppData\Local\Temp\ccxTgFRe.s 			page 48


1046:Generated_Source\PSoC5/USB_midi.c ****         /* `#START MIDI1_PROCESS_OUT_BEGIN` */
1047:Generated_Source\PSoC5/USB_midi.c ****         //LED_OutA_Write(1);
1048:Generated_Source\PSoC5/USB_midi.c ****         /* `#END` */
1049:Generated_Source\PSoC5/USB_midi.c **** 
1050:Generated_Source\PSoC5/USB_midi.c ****         cmd = epBuf[USB_EVENT_BYTE0] & USB_CIN_MASK;
 1351              		.loc 1 1050 0
 1352 0000 0378     		ldrb	r3, [r0]	@ zero_extendqisi2
 1353 0002 03F00F03 		and	r3, r3, #15
 1354              	.LVL126:
1051:Generated_Source\PSoC5/USB_midi.c ****         if((cmd != USB_RESERVED0) && (cmd != USB_RESERVED1))
 1355              		.loc 1 1051 0
 1356 0006 012B     		cmp	r3, #1
 1357 0008 31D9     		bls	.L175
1052:Generated_Source\PSoC5/USB_midi.c ****         {
1053:Generated_Source\PSoC5/USB_midi.c ****             len = USB_MIDI_SIZE[cmd];
 1358              		.loc 1 1053 0
 1359 000a 244A     		ldr	r2, .L182
1054:Generated_Source\PSoC5/USB_midi.c ****             i = USB_EVENT_BYTE1;
1055:Generated_Source\PSoC5/USB_midi.c ****             /* Universal System Exclusive message parsing */
1056:Generated_Source\PSoC5/USB_midi.c ****             if(cmd == USB_SYSEX)
 1360              		.loc 1 1056 0
 1361 000c 042B     		cmp	r3, #4
1040:Generated_Source\PSoC5/USB_midi.c ****         uint8 cmd;
 1362              		.loc 1 1040 0
 1363 000e 70B5     		push	{r4, r5, r6, lr}
 1364              		.cfi_def_cfa_offset 16
 1365              		.cfi_offset 4, -16
 1366              		.cfi_offset 5, -12
 1367              		.cfi_offset 6, -8
 1368              		.cfi_offset 14, -4
 1369 0010 0546     		mov	r5, r0
1053:Generated_Source\PSoC5/USB_midi.c ****             i = USB_EVENT_BYTE1;
 1370              		.loc 1 1053 0
 1371 0012 D65C     		ldrb	r6, [r2, r3]	@ zero_extendqisi2
 1372              	.LVL127:
 1373              		.loc 1 1056 0
 1374 0014 1FD0     		beq	.L179
1057:Generated_Source\PSoC5/USB_midi.c ****             {
1058:Generated_Source\PSoC5/USB_midi.c ****                 if((epBuf[USB_EVENT_BYTE1] == USB_MIDI_SYSEX) &&
1059:Generated_Source\PSoC5/USB_midi.c ****                    (epBuf[USB_EVENT_BYTE2] == USB_MIDI_SYSEX_NON_REAL_TIME))
1060:Generated_Source\PSoC5/USB_midi.c ****                 {   /* Non-Real Time SySEx starts */
1061:Generated_Source\PSoC5/USB_midi.c ****                     USB_MIDI1_InqFlags |= USB_INQ_SYSEX_FLAG;
1062:Generated_Source\PSoC5/USB_midi.c ****                 }
1063:Generated_Source\PSoC5/USB_midi.c ****                 else
1064:Generated_Source\PSoC5/USB_midi.c ****                 {
1065:Generated_Source\PSoC5/USB_midi.c ****                     USB_MIDI1_InqFlags &= (uint8)~USB_INQ_SYSEX_FLAG;
1066:Generated_Source\PSoC5/USB_midi.c ****                 }
1067:Generated_Source\PSoC5/USB_midi.c ****             }
1068:Generated_Source\PSoC5/USB_midi.c ****             else if(cmd == USB_SYSEX_ENDS_WITH1)
 1375              		.loc 1 1068 0
 1376 0016 052B     		cmp	r3, #5
 1377 0018 15D0     		beq	.L177
1069:Generated_Source\PSoC5/USB_midi.c ****             {
1070:Generated_Source\PSoC5/USB_midi.c ****                 USB_MIDI1_InqFlags &= (uint8)~USB_INQ_SYSEX_FLAG;
1071:Generated_Source\PSoC5/USB_midi.c ****             }
1072:Generated_Source\PSoC5/USB_midi.c ****             else if(cmd == USB_SYSEX_ENDS_WITH2)
 1378              		.loc 1 1072 0
ARM GAS  C:\Users\jwvance\AppData\Local\Temp\ccxTgFRe.s 			page 49


 1379 001a 062B     		cmp	r3, #6
 1380 001c 13D0     		beq	.L177
1073:Generated_Source\PSoC5/USB_midi.c ****             {
1074:Generated_Source\PSoC5/USB_midi.c ****                 USB_MIDI1_InqFlags &= (uint8)~USB_INQ_SYSEX_FLAG;
1075:Generated_Source\PSoC5/USB_midi.c ****             }
1076:Generated_Source\PSoC5/USB_midi.c ****             else if(cmd == USB_SYSEX_ENDS_WITH3)
 1381              		.loc 1 1076 0
 1382 001e 072B     		cmp	r3, #7
 1383 0020 28D0     		beq	.L180
1077:Generated_Source\PSoC5/USB_midi.c ****             {
1078:Generated_Source\PSoC5/USB_midi.c ****                 /* Identify Request support */
1079:Generated_Source\PSoC5/USB_midi.c ****                 if((USB_MIDI1_InqFlags & USB_INQ_SYSEX_FLAG) != 0u)
1080:Generated_Source\PSoC5/USB_midi.c ****                 {
1081:Generated_Source\PSoC5/USB_midi.c ****                     USB_MIDI1_InqFlags &= (uint8)~USB_INQ_SYSEX_FLAG;
1082:Generated_Source\PSoC5/USB_midi.c ****                     if((epBuf[USB_EVENT_BYTE1] == USB_MIDI_SYSEX_GEN_INFORMATION) &&
1083:Generated_Source\PSoC5/USB_midi.c ****                     (epBuf[USB_EVENT_BYTE2] == USB_MIDI_SYSEX_IDENTITY_REQ))
1084:Generated_Source\PSoC5/USB_midi.c ****                     {   /* Set the flag about received the Identity Request.
1085:Generated_Source\PSoC5/USB_midi.c ****                         *  The Identity Reply message may be send by user code.
1086:Generated_Source\PSoC5/USB_midi.c ****                         */
1087:Generated_Source\PSoC5/USB_midi.c ****                         USB_MIDI1_InqFlags |= USB_INQ_IDENTITY_REQ_FLAG;
1088:Generated_Source\PSoC5/USB_midi.c ****                     }
1089:Generated_Source\PSoC5/USB_midi.c ****                 }
1090:Generated_Source\PSoC5/USB_midi.c ****             }
1091:Generated_Source\PSoC5/USB_midi.c ****             else /* Do nothing for other command */
1092:Generated_Source\PSoC5/USB_midi.c ****             {
1093:Generated_Source\PSoC5/USB_midi.c ****             }
1094:Generated_Source\PSoC5/USB_midi.c ****             /* Running Status for Voice and Mode messages only. */
1095:Generated_Source\PSoC5/USB_midi.c ****             if((cmd >= USB_NOTE_OFF) && ( cmd <= USB_PITCH_BEND_CHANGE))
 1384              		.loc 1 1095 0
 1385 0022 083B     		subs	r3, r3, #8
 1386              	.LVL128:
 1387 0024 062B     		cmp	r3, #6
 1388 0026 13D8     		bhi	.L165
1096:Generated_Source\PSoC5/USB_midi.c ****             {
1097:Generated_Source\PSoC5/USB_midi.c ****                 if(USB_MIDI1_TxRunStat == epBuf[USB_EVENT_BYTE1])
 1389              		.loc 1 1097 0
 1390 0028 1D4B     		ldr	r3, .L182+4
 1391              	.LVL129:
 1392 002a 4278     		ldrb	r2, [r0, #1]	@ zero_extendqisi2
 1393 002c 197A     		ldrb	r1, [r3, #8]	@ zero_extendqisi2
 1394 002e 8A42     		cmp	r2, r1
 1395 0030 1ED0     		beq	.L181
 1396              	.LVL130:
 1397              	.L178:
1098:Generated_Source\PSoC5/USB_midi.c ****                 {   /* Skip the repeated Status byte */
1099:Generated_Source\PSoC5/USB_midi.c ****                     i++;
1100:Generated_Source\PSoC5/USB_midi.c ****                 }
1101:Generated_Source\PSoC5/USB_midi.c ****                 else
1102:Generated_Source\PSoC5/USB_midi.c ****                 {   /* Save Status byte for next event */
1103:Generated_Source\PSoC5/USB_midi.c ****                     USB_MIDI1_TxRunStat = epBuf[USB_EVENT_BYTE1];
1104:Generated_Source\PSoC5/USB_midi.c ****                 }
1105:Generated_Source\PSoC5/USB_midi.c ****             }
1106:Generated_Source\PSoC5/USB_midi.c ****             else
1107:Generated_Source\PSoC5/USB_midi.c ****             {   /* Clear Running Status */
1108:Generated_Source\PSoC5/USB_midi.c ****                 USB_MIDI1_TxRunStat = 0u;
 1398              		.loc 1 1108 0
 1399 0032 1A72     		strb	r2, [r3, #8]
ARM GAS  C:\Users\jwvance\AppData\Local\Temp\ccxTgFRe.s 			page 50


1054:Generated_Source\PSoC5/USB_midi.c ****             /* Universal System Exclusive message parsing */
 1400              		.loc 1 1054 0
 1401 0034 0124     		movs	r4, #1
 1402              	.LVL131:
 1403              	.L167:
1109:Generated_Source\PSoC5/USB_midi.c ****             }
1110:Generated_Source\PSoC5/USB_midi.c ****             /* Puts data into the MIDI TX output buffer.*/
1111:Generated_Source\PSoC5/USB_midi.c ****             do
1112:Generated_Source\PSoC5/USB_midi.c ****             {
1113:Generated_Source\PSoC5/USB_midi.c ****                 MIDI1_UART_PutChar(epBuf[i]);
 1404              		.loc 1 1113 0 discriminator 1
 1405 0036 285D     		ldrb	r0, [r5, r4]	@ zero_extendqisi2
1114:Generated_Source\PSoC5/USB_midi.c ****                 i++;
 1406              		.loc 1 1114 0 discriminator 1
 1407 0038 0134     		adds	r4, r4, #1
 1408              	.LVL132:
 1409 003a E4B2     		uxtb	r4, r4
1113:Generated_Source\PSoC5/USB_midi.c ****                 i++;
 1410              		.loc 1 1113 0 discriminator 1
 1411 003c FFF7FEFF 		bl	MIDI1_UART_PutChar
 1412              	.LVL133:
1115:Generated_Source\PSoC5/USB_midi.c ****             } while (i <= len);
 1413              		.loc 1 1115 0 discriminator 1
 1414 0040 A642     		cmp	r6, r4
 1415 0042 F8D2     		bcs	.L167
 1416 0044 70BD     		pop	{r4, r5, r6, pc}
 1417              	.LVL134:
 1418              	.L177:
1074:Generated_Source\PSoC5/USB_midi.c ****             }
 1419              		.loc 1 1074 0
 1420 0046 174A     		ldr	r2, .L182+8
 1421              	.LVL135:
 1422              	.L176:
 1423 0048 1378     		ldrb	r3, [r2]	@ zero_extendqisi2
 1424 004a 03F0FE03 		and	r3, r3, #254
 1425 004e 1370     		strb	r3, [r2]
 1426              	.LVL136:
 1427              	.L165:
1108:Generated_Source\PSoC5/USB_midi.c ****             }
 1428              		.loc 1 1108 0
 1429 0050 134B     		ldr	r3, .L182+4
 1430 0052 0022     		movs	r2, #0
 1431 0054 EDE7     		b	.L178
 1432              	.LVL137:
 1433              	.L179:
1058:Generated_Source\PSoC5/USB_midi.c ****                    (epBuf[USB_EVENT_BYTE2] == USB_MIDI_SYSEX_NON_REAL_TIME))
 1434              		.loc 1 1058 0
 1435 0056 4378     		ldrb	r3, [r0, #1]	@ zero_extendqisi2
 1436              	.LVL138:
1061:Generated_Source\PSoC5/USB_midi.c ****                 }
 1437              		.loc 1 1061 0
 1438 0058 124A     		ldr	r2, .L182+8
1058:Generated_Source\PSoC5/USB_midi.c ****                    (epBuf[USB_EVENT_BYTE2] == USB_MIDI_SYSEX_NON_REAL_TIME))
 1439              		.loc 1 1058 0
 1440 005a F02B     		cmp	r3, #240
 1441 005c F4D1     		bne	.L176
1058:Generated_Source\PSoC5/USB_midi.c ****                    (epBuf[USB_EVENT_BYTE2] == USB_MIDI_SYSEX_NON_REAL_TIME))
ARM GAS  C:\Users\jwvance\AppData\Local\Temp\ccxTgFRe.s 			page 51


 1442              		.loc 1 1058 0 is_stmt 0 discriminator 1
 1443 005e 8378     		ldrb	r3, [r0, #2]	@ zero_extendqisi2
 1444 0060 7E2B     		cmp	r3, #126
 1445 0062 F1D1     		bne	.L176
1061:Generated_Source\PSoC5/USB_midi.c ****                 }
 1446              		.loc 1 1061 0 is_stmt 1
 1447 0064 1378     		ldrb	r3, [r2]	@ zero_extendqisi2
 1448 0066 43F00103 		orr	r3, r3, #1
 1449 006a 1370     		strb	r3, [r2]
 1450              	.LVL139:
 1451 006c F0E7     		b	.L165
 1452              	.LVL140:
 1453              	.L175:
 1454              		.cfi_def_cfa_offset 0
 1455              		.cfi_restore 4
 1456              		.cfi_restore 5
 1457              		.cfi_restore 6
 1458              		.cfi_restore 14
 1459 006e 7047     		bx	lr
 1460              	.LVL141:
 1461              	.L181:
 1462              		.cfi_def_cfa_offset 16
 1463              		.cfi_offset 4, -16
 1464              		.cfi_offset 5, -12
 1465              		.cfi_offset 6, -8
 1466              		.cfi_offset 14, -4
1099:Generated_Source\PSoC5/USB_midi.c ****                 }
 1467              		.loc 1 1099 0
 1468 0070 0224     		movs	r4, #2
 1469 0072 E0E7     		b	.L167
 1470              	.LVL142:
 1471              	.L180:
1079:Generated_Source\PSoC5/USB_midi.c ****                 {
 1472              		.loc 1 1079 0
 1473 0074 0B4B     		ldr	r3, .L182+8
 1474              	.LVL143:
 1475 0076 1A78     		ldrb	r2, [r3]	@ zero_extendqisi2
 1476 0078 D207     		lsls	r2, r2, #31
 1477 007a E9D5     		bpl	.L165
1081:Generated_Source\PSoC5/USB_midi.c ****                     if((epBuf[USB_EVENT_BYTE1] == USB_MIDI_SYSEX_GEN_INFORMATION) &&
 1478              		.loc 1 1081 0
 1479 007c 1A78     		ldrb	r2, [r3]	@ zero_extendqisi2
1082:Generated_Source\PSoC5/USB_midi.c ****                     (epBuf[USB_EVENT_BYTE2] == USB_MIDI_SYSEX_IDENTITY_REQ))
 1480              		.loc 1 1082 0
 1481 007e 4178     		ldrb	r1, [r0, #1]	@ zero_extendqisi2
1081:Generated_Source\PSoC5/USB_midi.c ****                     if((epBuf[USB_EVENT_BYTE1] == USB_MIDI_SYSEX_GEN_INFORMATION) &&
 1482              		.loc 1 1081 0
 1483 0080 02F0FE02 		and	r2, r2, #254
1082:Generated_Source\PSoC5/USB_midi.c ****                     (epBuf[USB_EVENT_BYTE2] == USB_MIDI_SYSEX_IDENTITY_REQ))
 1484              		.loc 1 1082 0
 1485 0084 0629     		cmp	r1, #6
1081:Generated_Source\PSoC5/USB_midi.c ****                     if((epBuf[USB_EVENT_BYTE1] == USB_MIDI_SYSEX_GEN_INFORMATION) &&
 1486              		.loc 1 1081 0
 1487 0086 1A70     		strb	r2, [r3]
 1488              	.LVL144:
1082:Generated_Source\PSoC5/USB_midi.c ****                     (epBuf[USB_EVENT_BYTE2] == USB_MIDI_SYSEX_IDENTITY_REQ))
 1489              		.loc 1 1082 0
ARM GAS  C:\Users\jwvance\AppData\Local\Temp\ccxTgFRe.s 			page 52


 1490 0088 E2D1     		bne	.L165
1082:Generated_Source\PSoC5/USB_midi.c ****                     (epBuf[USB_EVENT_BYTE2] == USB_MIDI_SYSEX_IDENTITY_REQ))
 1491              		.loc 1 1082 0 is_stmt 0 discriminator 1
 1492 008a 8278     		ldrb	r2, [r0, #2]	@ zero_extendqisi2
 1493 008c 012A     		cmp	r2, #1
 1494 008e DFD1     		bne	.L165
1087:Generated_Source\PSoC5/USB_midi.c ****                     }
 1495              		.loc 1 1087 0 is_stmt 1
 1496 0090 1A78     		ldrb	r2, [r3]	@ zero_extendqisi2
 1497 0092 42F00202 		orr	r2, r2, #2
 1498 0096 1A70     		strb	r2, [r3]
 1499 0098 DAE7     		b	.L165
 1500              	.L183:
 1501 009a 00BF     		.align	2
 1502              	.L182:
 1503 009c 00000000 		.word	.LANCHOR1
 1504 00a0 00000000 		.word	.LANCHOR0
 1505 00a4 00000000 		.word	USB_MIDI1_InqFlags
 1506              		.cfi_endproc
 1507              	.LFE9:
 1508              		.size	USB_MIDI1_ProcessUsbOut, .-USB_MIDI1_ProcessUsbOut
 1509              		.section	.text.USB_MIDI2_GetEvent,"ax",%progbits
 1510              		.align	2
 1511              		.global	USB_MIDI2_GetEvent
 1512              		.thumb
 1513              		.thumb_func
 1514              		.type	USB_MIDI2_GetEvent, %function
 1515              	USB_MIDI2_GetEvent:
 1516              	.LFB10:
1116:Generated_Source\PSoC5/USB_midi.c ****         }
1117:Generated_Source\PSoC5/USB_midi.c **** 
1118:Generated_Source\PSoC5/USB_midi.c ****         /* User code is required at the end of the procedure */
1119:Generated_Source\PSoC5/USB_midi.c ****         /* `#START MIDI1_PROCESS_OUT_END` */
1120:Generated_Source\PSoC5/USB_midi.c ****         //LED_OutA_Write(0);
1121:Generated_Source\PSoC5/USB_midi.c ****         /* `#END` */
1122:Generated_Source\PSoC5/USB_midi.c ****     }
1123:Generated_Source\PSoC5/USB_midi.c **** 
1124:Generated_Source\PSoC5/USB_midi.c ****     
1125:Generated_Source\PSoC5/USB_midi.c **** #if (USB_MIDI_EXT_MODE >= USB_TWO_EXT_INTRF)
1126:Generated_Source\PSoC5/USB_midi.c **** 
1127:Generated_Source\PSoC5/USB_midi.c **** 
1128:Generated_Source\PSoC5/USB_midi.c ****     /*******************************************************************************
1129:Generated_Source\PSoC5/USB_midi.c ****     * Function Name: USB_MIDI2_GetEvent
1130:Generated_Source\PSoC5/USB_midi.c ****     ********************************************************************************
1131:Generated_Source\PSoC5/USB_midi.c ****     *
1132:Generated_Source\PSoC5/USB_midi.c ****     * Summary:
1133:Generated_Source\PSoC5/USB_midi.c ****     *  Checks for incoming MIDI data, calls the MIDI event builder if so.
1134:Generated_Source\PSoC5/USB_midi.c ****     *  Returns either empty or with a complete event.
1135:Generated_Source\PSoC5/USB_midi.c ****     *
1136:Generated_Source\PSoC5/USB_midi.c ****     * Parameters:
1137:Generated_Source\PSoC5/USB_midi.c ****     *  None
1138:Generated_Source\PSoC5/USB_midi.c ****     *
1139:Generated_Source\PSoC5/USB_midi.c ****     * Return:
1140:Generated_Source\PSoC5/USB_midi.c ****     *   0, if no complete message
1141:Generated_Source\PSoC5/USB_midi.c ****     *   1 - 4, if message complete
1142:Generated_Source\PSoC5/USB_midi.c ****     *   MIDI_SYSEX, if start or continuation of system exclusive
1143:Generated_Source\PSoC5/USB_midi.c ****     *   MIDI_EOSEX, if end of system exclusive
ARM GAS  C:\Users\jwvance\AppData\Local\Temp\ccxTgFRe.s 			page 53


1144:Generated_Source\PSoC5/USB_midi.c ****     *   0xf8 - 0xff, if single byte real time message
1145:Generated_Source\PSoC5/USB_midi.c ****     *
1146:Generated_Source\PSoC5/USB_midi.c ****     * Global variables:
1147:Generated_Source\PSoC5/USB_midi.c ****     *  USB_MIDI2_Event: RX status structure used to parse received
1148:Generated_Source\PSoC5/USB_midi.c ****     *    data.
1149:Generated_Source\PSoC5/USB_midi.c ****     *
1150:Generated_Source\PSoC5/USB_midi.c ****     *******************************************************************************/
1151:Generated_Source\PSoC5/USB_midi.c ****     uint8 USB_MIDI2_GetEvent(void) 
1152:Generated_Source\PSoC5/USB_midi.c ****     {
 1517              		.loc 1 1152 0
 1518              		.cfi_startproc
 1519              		@ args = 0, pretend = 0, frame = 0
 1520              		@ frame_needed = 0, uses_anonymous_args = 0
 1521              	.LVL145:
 1522 0000 2DE9F843 		push	{r3, r4, r5, r6, r7, r8, r9, lr}
 1523              		.cfi_def_cfa_offset 32
 1524              		.cfi_offset 3, -32
 1525              		.cfi_offset 4, -28
 1526              		.cfi_offset 5, -24
 1527              		.cfi_offset 6, -20
 1528              		.cfi_offset 7, -16
 1529              		.cfi_offset 8, -12
 1530              		.cfi_offset 9, -8
 1531              		.cfi_offset 14, -4
1153:Generated_Source\PSoC5/USB_midi.c ****         uint8 msgRtn = 0u;
1154:Generated_Source\PSoC5/USB_midi.c ****         uint8 rxData;
1155:Generated_Source\PSoC5/USB_midi.c ****         #if (MIDI2_UART_RXBUFFERSIZE >= 256u)
1156:Generated_Source\PSoC5/USB_midi.c ****             uint16 rxBufferRead;
1157:Generated_Source\PSoC5/USB_midi.c ****             #if (CY_PSOC3) /* This local variable required only for PSOC3 and large buffer */
1158:Generated_Source\PSoC5/USB_midi.c ****                 uint16 rxBufferWrite;
1159:Generated_Source\PSoC5/USB_midi.c ****             #endif /* (CY_PSOC3) */
1160:Generated_Source\PSoC5/USB_midi.c ****         #else
1161:Generated_Source\PSoC5/USB_midi.c ****             uint8 rxBufferRead;
1162:Generated_Source\PSoC5/USB_midi.c ****         #endif /* (MIDI2_UART_RXBUFFERSIZE >= 256) */
1163:Generated_Source\PSoC5/USB_midi.c ****         
1164:Generated_Source\PSoC5/USB_midi.c ****         uint8 rxBufferLoopDetect;
1165:Generated_Source\PSoC5/USB_midi.c ****         /* Read buffer loop condition to the local variable */
1166:Generated_Source\PSoC5/USB_midi.c ****         rxBufferLoopDetect = MIDI2_UART_rxBufferLoopDetect;
 1532              		.loc 1 1166 0
 1533 0004 1C4D     		ldr	r5, .L200
1167:Generated_Source\PSoC5/USB_midi.c **** 
1168:Generated_Source\PSoC5/USB_midi.c ****         if ( (MIDI2_UART_rxBufferRead != MIDI2_UART_rxBufferWrite) || (rxBufferLoopDetect != 0u) )
 1534              		.loc 1 1168 0
 1535 0006 DFF88080 		ldr	r8, .L200+16
 1536 000a 1C4E     		ldr	r6, .L200+4
1166:Generated_Source\PSoC5/USB_midi.c **** 
 1537              		.loc 1 1166 0
 1538 000c 2B78     		ldrb	r3, [r5]	@ zero_extendqisi2
 1539              		.loc 1 1168 0
 1540 000e 98F80010 		ldrb	r1, [r8]	@ zero_extendqisi2
 1541 0012 3278     		ldrb	r2, [r6]	@ zero_extendqisi2
1166:Generated_Source\PSoC5/USB_midi.c **** 
 1542              		.loc 1 1166 0
 1543 0014 DBB2     		uxtb	r3, r3
 1544              	.LVL146:
 1545              		.loc 1 1168 0
 1546 0016 9142     		cmp	r1, r2
ARM GAS  C:\Users\jwvance\AppData\Local\Temp\ccxTgFRe.s 			page 54


 1547 0018 28D0     		beq	.L198
 1548              	.L185:
1169:Generated_Source\PSoC5/USB_midi.c ****         {
1170:Generated_Source\PSoC5/USB_midi.c ****             /* Protect variables that could change on interrupt by disabling Rx interrupt.*/
1171:Generated_Source\PSoC5/USB_midi.c ****             #if ((MIDI2_UART_RXBUFFERSIZE >= 256u) && (CY_PSOC3))
1172:Generated_Source\PSoC5/USB_midi.c ****                 CyIntDisable(MIDI2_UART_RX_VECT_NUM);
1173:Generated_Source\PSoC5/USB_midi.c ****             #endif /* ((MIDI2_UART_RXBUFFERSIZE >= 256u) && (CY_PSOC3)) */
1174:Generated_Source\PSoC5/USB_midi.c ****             rxBufferRead = MIDI2_UART_rxBufferRead;
 1549              		.loc 1 1174 0
 1550 001a 98F80040 		ldrb	r4, [r8]	@ zero_extendqisi2
1175:Generated_Source\PSoC5/USB_midi.c ****             #if ((MIDI2_UART_RXBUFFERSIZE >= 256u) && (CY_PSOC3))
1176:Generated_Source\PSoC5/USB_midi.c ****                 rxBufferWrite = MIDI2_UART_rxBufferWrite;
1177:Generated_Source\PSoC5/USB_midi.c ****                 CyIntEnable(MIDI2_UART_RX_VECT_NUM);
1178:Generated_Source\PSoC5/USB_midi.c ****             #endif /* ((MIDI2_UART_RXBUFFERSIZE >= 256u) && (CY_PSOC3)) */
1179:Generated_Source\PSoC5/USB_midi.c **** 
1180:Generated_Source\PSoC5/USB_midi.c ****             /* Stay here until either the buffer is empty or we have a complete message
1181:Generated_Source\PSoC5/USB_midi.c ****             *  in the message buffer. Note that we must use a temporary output pointer to
1182:Generated_Source\PSoC5/USB_midi.c ****             *  since it takes two instructions to increment with a wrap, and we can't
1183:Generated_Source\PSoC5/USB_midi.c ****             *  risk doing that with the real pointer and getting an interrupt in between
1184:Generated_Source\PSoC5/USB_midi.c ****             *  instructions.
1185:Generated_Source\PSoC5/USB_midi.c ****             */
1186:Generated_Source\PSoC5/USB_midi.c **** 
1187:Generated_Source\PSoC5/USB_midi.c ****             #if ((MIDI2_UART_RXBUFFERSIZE >= 256u) && (CY_PSOC3))
1188:Generated_Source\PSoC5/USB_midi.c ****                 while ( ((rxBufferRead != rxBufferWrite) || (rxBufferLoopDetect != 0u)) && (msgRtn 
1189:Generated_Source\PSoC5/USB_midi.c ****             #else
1190:Generated_Source\PSoC5/USB_midi.c ****                 while ( ((rxBufferRead != MIDI2_UART_rxBufferWrite) || (rxBufferLoopDetect != 0u)) 
 1551              		.loc 1 1190 0
 1552 001e 3278     		ldrb	r2, [r6]	@ zero_extendqisi2
1174:Generated_Source\PSoC5/USB_midi.c ****             #if ((MIDI2_UART_RXBUFFERSIZE >= 256u) && (CY_PSOC3))
 1553              		.loc 1 1174 0
 1554 0020 E4B2     		uxtb	r4, r4
 1555              	.LVL147:
1153:Generated_Source\PSoC5/USB_midi.c ****         uint8 rxData;
 1556              		.loc 1 1153 0
 1557 0022 0020     		movs	r0, #0
 1558              	.LVL148:
 1559              		.loc 1 1190 0
 1560 0024 9442     		cmp	r4, r2
1191:Generated_Source\PSoC5/USB_midi.c ****             #endif /* ((MIDI2_UART_RXBUFFERSIZE >= 256u) && (CY_PSOC3)) */
1192:Generated_Source\PSoC5/USB_midi.c ****                 {
1193:Generated_Source\PSoC5/USB_midi.c ****                     rxData = MIDI2_UART_rxBuffer[rxBufferRead];
1194:Generated_Source\PSoC5/USB_midi.c ****                     rxBufferRead++;
1195:Generated_Source\PSoC5/USB_midi.c ****                     if(rxBufferRead >= MIDI2_UART_RXBUFFERSIZE)
1196:Generated_Source\PSoC5/USB_midi.c ****                     {
1197:Generated_Source\PSoC5/USB_midi.c ****                         rxBufferRead = 0u;
1198:Generated_Source\PSoC5/USB_midi.c ****                     }
1199:Generated_Source\PSoC5/USB_midi.c ****                     /* If loop condition was set - update real read buffer pointer
1200:Generated_Source\PSoC5/USB_midi.c ****                     *  to avoid overflow status
1201:Generated_Source\PSoC5/USB_midi.c ****                     */
1202:Generated_Source\PSoC5/USB_midi.c ****                     if(rxBufferLoopDetect != 0u )
1203:Generated_Source\PSoC5/USB_midi.c ****                     {
1204:Generated_Source\PSoC5/USB_midi.c ****                         MIDI2_UART_rxBufferLoopDetect = 0u;
 1561              		.loc 1 1204 0
 1562 0026 8146     		mov	r9, r0
1193:Generated_Source\PSoC5/USB_midi.c ****                     rxBufferRead++;
 1563              		.loc 1 1193 0
 1564 0028 154F     		ldr	r7, .L200+8
ARM GAS  C:\Users\jwvance\AppData\Local\Temp\ccxTgFRe.s 			page 55


1194:Generated_Source\PSoC5/USB_midi.c ****                     if(rxBufferRead >= MIDI2_UART_RXBUFFERSIZE)
 1565              		.loc 1 1194 0
 1566 002a 04F1010E 		add	lr, r4, #1
1205:Generated_Source\PSoC5/USB_midi.c ****                         #if ((MIDI2_UART_RXBUFFERSIZE >= 256u) && (CY_PSOC3))
1206:Generated_Source\PSoC5/USB_midi.c ****                             CyIntDisable(MIDI2_UART_RX_VECT_NUM);
1207:Generated_Source\PSoC5/USB_midi.c ****                         #endif /* ((MIDI2_UART_RXBUFFERSIZE >= 256u) && (CY_PSOC3)) */
1208:Generated_Source\PSoC5/USB_midi.c ****                         MIDI2_UART_rxBufferRead = rxBufferRead;
1209:Generated_Source\PSoC5/USB_midi.c ****                         #if ((MIDI2_UART_RXBUFFERSIZE >= 256u) && (CY_PSOC3))
1210:Generated_Source\PSoC5/USB_midi.c ****                             CyIntEnable(MIDI2_UART_RX_VECT_NUM);
1211:Generated_Source\PSoC5/USB_midi.c ****                         #endif /* ((MIDI2_UART_RXBUFFERSIZE >= 256u) && (CY_PSOC3)) */
1212:Generated_Source\PSoC5/USB_midi.c ****                     }
1213:Generated_Source\PSoC5/USB_midi.c **** 
1214:Generated_Source\PSoC5/USB_midi.c ****                     msgRtn = USB_ProcessMidiIn(rxData,
 1567              		.loc 1 1214 0
 1568 002e 1549     		ldr	r1, .L200+12
1190:Generated_Source\PSoC5/USB_midi.c ****             #endif /* ((MIDI2_UART_RXBUFFERSIZE >= 256u) && (CY_PSOC3)) */
 1569              		.loc 1 1190 0
 1570 0030 16D0     		beq	.L199
 1571              	.L190:
1190:Generated_Source\PSoC5/USB_midi.c ****             #endif /* ((MIDI2_UART_RXBUFFERSIZE >= 256u) && (CY_PSOC3)) */
 1572              		.loc 1 1190 0 is_stmt 0 discriminator 3
 1573 0032 B8B9     		cbnz	r0, .L192
1193:Generated_Source\PSoC5/USB_midi.c ****                     rxBufferRead++;
 1574              		.loc 1 1193 0 is_stmt 1
 1575 0034 385D     		ldrb	r0, [r7, r4]	@ zero_extendqisi2
 1576              	.LVL149:
1194:Generated_Source\PSoC5/USB_midi.c ****                     if(rxBufferRead >= MIDI2_UART_RXBUFFERSIZE)
 1577              		.loc 1 1194 0
 1578 0036 5FFA8EF4 		uxtb	r4, lr
 1579              	.LVL150:
1197:Generated_Source\PSoC5/USB_midi.c ****                     }
 1580              		.loc 1 1197 0
 1581 003a FF2C     		cmp	r4, #255
 1582 003c 08BF     		it	eq
 1583 003e 0024     		moveq	r4, #0
1193:Generated_Source\PSoC5/USB_midi.c ****                     rxBufferRead++;
 1584              		.loc 1 1193 0
 1585 0040 C0B2     		uxtb	r0, r0
 1586              	.LVL151:
1202:Generated_Source\PSoC5/USB_midi.c ****                     {
 1587              		.loc 1 1202 0
 1588 0042 1BB1     		cbz	r3, .L189
1204:Generated_Source\PSoC5/USB_midi.c ****                         #if ((MIDI2_UART_RXBUFFERSIZE >= 256u) && (CY_PSOC3))
 1589              		.loc 1 1204 0
 1590 0044 85F80090 		strb	r9, [r5]
1208:Generated_Source\PSoC5/USB_midi.c ****                         #if ((MIDI2_UART_RXBUFFERSIZE >= 256u) && (CY_PSOC3))
 1591              		.loc 1 1208 0
 1592 0048 88F80040 		strb	r4, [r8]
 1593              	.L189:
 1594              		.loc 1 1214 0
 1595 004c FFF7FEFF 		bl	USB_ProcessMidiIn
 1596              	.LVL152:
1215:Generated_Source\PSoC5/USB_midi.c ****                                                     (USB_MIDI_RX_STATUS *)&USB_MIDI2_Event);
1216:Generated_Source\PSoC5/USB_midi.c **** 
1217:Generated_Source\PSoC5/USB_midi.c ****                     /* Read buffer loop condition to the local variable */
1218:Generated_Source\PSoC5/USB_midi.c ****                     rxBufferLoopDetect = MIDI2_UART_rxBufferLoopDetect;
 1597              		.loc 1 1218 0
ARM GAS  C:\Users\jwvance\AppData\Local\Temp\ccxTgFRe.s 			page 56


 1598 0050 2B78     		ldrb	r3, [r5]	@ zero_extendqisi2
1190:Generated_Source\PSoC5/USB_midi.c ****             #endif /* ((MIDI2_UART_RXBUFFERSIZE >= 256u) && (CY_PSOC3)) */
 1599              		.loc 1 1190 0
 1600 0052 3278     		ldrb	r2, [r6]	@ zero_extendqisi2
 1601              		.loc 1 1218 0
 1602 0054 DBB2     		uxtb	r3, r3
 1603              	.LVL153:
1190:Generated_Source\PSoC5/USB_midi.c ****             #endif /* ((MIDI2_UART_RXBUFFERSIZE >= 256u) && (CY_PSOC3)) */
 1604              		.loc 1 1190 0
 1605 0056 9442     		cmp	r4, r2
1194:Generated_Source\PSoC5/USB_midi.c ****                     if(rxBufferRead >= MIDI2_UART_RXBUFFERSIZE)
 1606              		.loc 1 1194 0
 1607 0058 04F1010E 		add	lr, r4, #1
1214:Generated_Source\PSoC5/USB_midi.c ****                                                     (USB_MIDI_RX_STATUS *)&USB_MIDI2_Event);
 1608              		.loc 1 1214 0
 1609 005c 0949     		ldr	r1, .L200+12
1190:Generated_Source\PSoC5/USB_midi.c ****             #endif /* ((MIDI2_UART_RXBUFFERSIZE >= 256u) && (CY_PSOC3)) */
 1610              		.loc 1 1190 0
 1611 005e E8D1     		bne	.L190
 1612              	.L199:
1190:Generated_Source\PSoC5/USB_midi.c ****             #endif /* ((MIDI2_UART_RXBUFFERSIZE >= 256u) && (CY_PSOC3)) */
 1613              		.loc 1 1190 0 is_stmt 0 discriminator 2
 1614 0060 002B     		cmp	r3, #0
 1615 0062 E6D1     		bne	.L190
 1616              	.L192:
1219:Generated_Source\PSoC5/USB_midi.c ****                 }
1220:Generated_Source\PSoC5/USB_midi.c **** 
1221:Generated_Source\PSoC5/USB_midi.c ****             /* Finally, update the real output pointer, then return with
1222:Generated_Source\PSoC5/USB_midi.c ****             *  an indication as to whether there's a complete message in the buffer.
1223:Generated_Source\PSoC5/USB_midi.c ****             */
1224:Generated_Source\PSoC5/USB_midi.c ****             #if ((MIDI2_UART_RXBUFFERSIZE >= 256u) && (CY_PSOC3))
1225:Generated_Source\PSoC5/USB_midi.c ****                 CyIntDisable(MIDI2_UART_RX_VECT_NUM);
1226:Generated_Source\PSoC5/USB_midi.c ****             #endif /* ((MIDI2_UART_RXBUFFERSIZE >= 256u) && (CY_PSOC3)) */
1227:Generated_Source\PSoC5/USB_midi.c ****             MIDI2_UART_rxBufferRead = rxBufferRead;
 1617              		.loc 1 1227 0 is_stmt 1
 1618 0064 88F80040 		strb	r4, [r8]
 1619 0068 BDE8F883 		pop	{r3, r4, r5, r6, r7, r8, r9, pc}
 1620              	.LVL154:
 1621              	.L198:
1168:Generated_Source\PSoC5/USB_midi.c ****         {
 1622              		.loc 1 1168 0 discriminator 1
 1623 006c 002B     		cmp	r3, #0
 1624 006e D4D1     		bne	.L185
1153:Generated_Source\PSoC5/USB_midi.c ****         uint8 rxData;
 1625              		.loc 1 1153 0
 1626 0070 1846     		mov	r0, r3
 1627              	.LVL155:
1228:Generated_Source\PSoC5/USB_midi.c ****             #if ((MIDI2_UART_RXBUFFERSIZE >= 256u) && (CY_PSOC3))
1229:Generated_Source\PSoC5/USB_midi.c ****                 CyIntEnable(MIDI2_UART_RX_VECT_NUM);
1230:Generated_Source\PSoC5/USB_midi.c ****             #endif /* ((MIDI2_UART_RXBUFFERSIZE >= 256u) && (CY_PSOC3)) */
1231:Generated_Source\PSoC5/USB_midi.c ****         }
1232:Generated_Source\PSoC5/USB_midi.c **** 
1233:Generated_Source\PSoC5/USB_midi.c ****         return (msgRtn);
1234:Generated_Source\PSoC5/USB_midi.c ****     }
 1628              		.loc 1 1234 0
 1629 0072 BDE8F883 		pop	{r3, r4, r5, r6, r7, r8, r9, pc}
 1630              	.LVL156:
ARM GAS  C:\Users\jwvance\AppData\Local\Temp\ccxTgFRe.s 			page 57


 1631              	.L201:
 1632 0076 00BF     		.align	2
 1633              	.L200:
 1634 0078 00000000 		.word	MIDI2_UART_rxBufferLoopDetect
 1635 007c 00000000 		.word	MIDI2_UART_rxBufferWrite
 1636 0080 00000000 		.word	MIDI2_UART_rxBuffer
 1637 0084 0C000000 		.word	.LANCHOR0+12
 1638 0088 00000000 		.word	MIDI2_UART_rxBufferRead
 1639              		.cfi_endproc
 1640              	.LFE10:
 1641              		.size	USB_MIDI2_GetEvent, .-USB_MIDI2_GetEvent
 1642              		.section	.text.USB_MIDI_IN_Service,"ax",%progbits
 1643              		.align	2
 1644              		.global	USB_MIDI_IN_Service
 1645              		.thumb
 1646              		.thumb_func
 1647              		.type	USB_MIDI_IN_Service, %function
 1648              	USB_MIDI_IN_Service:
 1649              	.LFB3:
 375:Generated_Source\PSoC5/USB_midi.c ****         /* Service the MIDI UART inputs until either both receivers have no more
 1650              		.loc 1 375 0
 1651              		.cfi_startproc
 1652              		@ args = 0, pretend = 0, frame = 0
 1653              		@ frame_needed = 0, uses_anonymous_args = 0
 1654              	.LVL157:
 1655 0000 F8B5     		push	{r3, r4, r5, r6, r7, lr}
 1656              		.cfi_def_cfa_offset 24
 1657              		.cfi_offset 3, -24
 1658              		.cfi_offset 4, -20
 1659              		.cfi_offset 5, -16
 1660              		.cfi_offset 6, -12
 1661              		.cfi_offset 7, -8
 1662              		.cfi_offset 14, -4
 381:Generated_Source\PSoC5/USB_midi.c ****             do
 1663              		.loc 1 381 0
 1664 0002 0026     		movs	r6, #0
 380:Generated_Source\PSoC5/USB_midi.c ****             uint8 m2 = 0u;
 1665              		.loc 1 380 0
 1666 0004 3546     		mov	r5, r6
 1667 0006 144C     		ldr	r4, .L217
 391:Generated_Source\PSoC5/USB_midi.c ****                                                     USB_MIDI1_Event.size, USB_MIDI_CABLE_00);
 1668              		.loc 1 391 0
 1669 0008 144F     		ldr	r7, .L217+4
 1670              	.LVL158:
 1671              	.L203:
 384:Generated_Source\PSoC5/USB_midi.c ****                     (USB_MIDI_IN_BUFF_SIZE - USB_EVENT_LENGTH))
 1672              		.loc 1 384 0
 1673 000a 2378     		ldrb	r3, [r4]	@ zero_extendqisi2
 1674 000c 1C2B     		cmp	r3, #28
 1675 000e 18D9     		bls	.L215
 1676              	.LVL159:
 1677              	.L204:
 397:Generated_Source\PSoC5/USB_midi.c ****                     (USB_MIDI_IN_BUFF_SIZE - USB_EVENT_LENGTH))
 1678              		.loc 1 397 0
 1679 0010 2378     		ldrb	r3, [r4]	@ zero_extendqisi2
 1680 0012 1C2B     		cmp	r3, #28
 1681 0014 0AD9     		bls	.L216
ARM GAS  C:\Users\jwvance\AppData\Local\Temp\ccxTgFRe.s 			page 58


 1682              	.LVL160:
 1683              	.L205:
 410:Generated_Source\PSoC5/USB_midi.c ****                     (USB_MIDI_IN_BUFF_SIZE - USB_EVENT_LENGTH)) &&
 1684              		.loc 1 410 0
 1685 0016 2378     		ldrb	r3, [r4]	@ zero_extendqisi2
 412:Generated_Source\PSoC5/USB_midi.c ****         #endif /* (USB_MIDI_EXT_MODE >= USB_ONE_EXT_INTRF) */
 1686              		.loc 1 412 0
 1687 0018 1C2B     		cmp	r3, #28
 1688 001a 03D8     		bhi	.L206
 411:Generated_Source\PSoC5/USB_midi.c ****                     ((m1 != 0u) || (m2 != 0u)) );
 1689              		.loc 1 411 0
 1690 001c 002D     		cmp	r5, #0
 1691 001e F4D1     		bne	.L203
 412:Generated_Source\PSoC5/USB_midi.c ****         #endif /* (USB_MIDI_EXT_MODE >= USB_ONE_EXT_INTRF) */
 1692              		.loc 1 412 0
 1693 0020 002E     		cmp	r6, #0
 1694 0022 F2D1     		bne	.L203
 1695              	.L206:
 417:Generated_Source\PSoC5/USB_midi.c **** 
 1696              		.loc 1 417 0
 1697 0024 BDE8F840 		pop	{r3, r4, r5, r6, r7, lr}
 1698              		.cfi_remember_state
 1699              		.cfi_restore 14
 1700              		.cfi_restore 7
 1701              		.cfi_restore 6
 1702              		.cfi_restore 5
 1703              		.cfi_restore 4
 1704              		.cfi_restore 3
 1705              		.cfi_def_cfa_offset 0
 1706              	.LVL161:
 416:Generated_Source\PSoC5/USB_midi.c ****     }
 1707              		.loc 1 416 0
 1708 0028 FFF7FEBF 		b	USB_MIDI_IN_EP_Service
 1709              	.LVL162:
 1710              	.L216:
 1711              		.cfi_restore_state
 401:Generated_Source\PSoC5/USB_midi.c ****                     if (m2 != 0u)
 1712              		.loc 1 401 0
 1713 002c FFF7FEFF 		bl	USB_MIDI2_GetEvent
 1714              	.LVL163:
 402:Generated_Source\PSoC5/USB_midi.c ****                     {
 1715              		.loc 1 402 0
 1716 0030 0646     		mov	r6, r0
 1717 0032 0028     		cmp	r0, #0
 1718 0034 EFD0     		beq	.L205
 404:Generated_Source\PSoC5/USB_midi.c ****                                                     USB_MIDI2_Event.size, USB_MIDI_CABLE_01);
 1719              		.loc 1 404 0
 1720 0036 0A49     		ldr	r1, .L217+8
 1721 0038 BA7B     		ldrb	r2, [r7, #14]	@ zero_extendqisi2
 1722 003a 1023     		movs	r3, #16
 1723 003c FFF7FEFF 		bl	USB_PrepareInBuffer
 1724              	.LVL164:
 1725 0040 E9E7     		b	.L205
 1726              	.LVL165:
 1727              	.L215:
 388:Generated_Source\PSoC5/USB_midi.c ****                     if (m1 != 0u)
 1728              		.loc 1 388 0
ARM GAS  C:\Users\jwvance\AppData\Local\Temp\ccxTgFRe.s 			page 59


 1729 0042 FFF7FEFF 		bl	USB_MIDI1_GetEvent
 1730              	.LVL166:
 389:Generated_Source\PSoC5/USB_midi.c ****                     {
 1731              		.loc 1 389 0
 1732 0046 0546     		mov	r5, r0
 1733 0048 0028     		cmp	r0, #0
 1734 004a E1D0     		beq	.L204
 391:Generated_Source\PSoC5/USB_midi.c ****                                                     USB_MIDI1_Event.size, USB_MIDI_CABLE_00);
 1735              		.loc 1 391 0
 1736 004c 0549     		ldr	r1, .L217+12
 1737 004e BA78     		ldrb	r2, [r7, #2]	@ zero_extendqisi2
 1738 0050 0023     		movs	r3, #0
 1739 0052 FFF7FEFF 		bl	USB_PrepareInBuffer
 1740              	.LVL167:
 1741 0056 DBE7     		b	.L204
 1742              	.L218:
 1743              		.align	2
 1744              	.L217:
 1745 0058 00000000 		.word	USB_midiInPointer
 1746 005c 00000000 		.word	.LANCHOR0
 1747 0060 10000000 		.word	.LANCHOR0+16
 1748 0064 04000000 		.word	.LANCHOR0+4
 1749              		.cfi_endproc
 1750              	.LFE3:
 1751              		.size	USB_MIDI_IN_Service, .-USB_MIDI_IN_Service
 1752              		.section	.text.USB_MIDI2_ProcessUsbOut,"ax",%progbits
 1753              		.align	2
 1754              		.global	USB_MIDI2_ProcessUsbOut
 1755              		.thumb
 1756              		.thumb_func
 1757              		.type	USB_MIDI2_ProcessUsbOut, %function
 1758              	USB_MIDI2_ProcessUsbOut:
 1759              	.LFB11:
1235:Generated_Source\PSoC5/USB_midi.c **** 
1236:Generated_Source\PSoC5/USB_midi.c **** 
1237:Generated_Source\PSoC5/USB_midi.c ****     /*******************************************************************************
1238:Generated_Source\PSoC5/USB_midi.c ****     * Function Name: USB_MIDI2_ProcessUsbOut
1239:Generated_Source\PSoC5/USB_midi.c ****     ********************************************************************************
1240:Generated_Source\PSoC5/USB_midi.c ****     *
1241:Generated_Source\PSoC5/USB_midi.c ****     * Summary:
1242:Generated_Source\PSoC5/USB_midi.c ****     *  Process a USB MIDI output event.
1243:Generated_Source\PSoC5/USB_midi.c ****     *  Puts data into the MIDI TX output buffer.
1244:Generated_Source\PSoC5/USB_midi.c ****     *
1245:Generated_Source\PSoC5/USB_midi.c ****     * Parameters:
1246:Generated_Source\PSoC5/USB_midi.c ****     *  *epBuf: pointer on MIDI event.
1247:Generated_Source\PSoC5/USB_midi.c ****     *
1248:Generated_Source\PSoC5/USB_midi.c ****     * Return:
1249:Generated_Source\PSoC5/USB_midi.c ****     *   None
1250:Generated_Source\PSoC5/USB_midi.c ****     *
1251:Generated_Source\PSoC5/USB_midi.c ****     * Global variables:
1252:Generated_Source\PSoC5/USB_midi.c ****     *  USB_MIDI2_TxRunStat: This variable used to save the MIDI
1253:Generated_Source\PSoC5/USB_midi.c ****     *    status byte and skip to send the repeated status byte in subsequent event.
1254:Generated_Source\PSoC5/USB_midi.c ****     *  USB_MIDI2_InqFlags: The following flags are set when SysEx
1255:Generated_Source\PSoC5/USB_midi.c ****     *    message comes.
1256:Generated_Source\PSoC5/USB_midi.c ****     *  USB_INQ_SYSEX_FLAG: Non-Real Time SySEx message received.
1257:Generated_Source\PSoC5/USB_midi.c ****     *  USB_INQ_IDENTITY_REQ_FLAG: Identity Request received.
1258:Generated_Source\PSoC5/USB_midi.c ****     *    This bit should be cleared by user when Identity Reply message generated.
ARM GAS  C:\Users\jwvance\AppData\Local\Temp\ccxTgFRe.s 			page 60


1259:Generated_Source\PSoC5/USB_midi.c ****     *
1260:Generated_Source\PSoC5/USB_midi.c ****     *******************************************************************************/
1261:Generated_Source\PSoC5/USB_midi.c ****     void USB_MIDI2_ProcessUsbOut(const uint8 epBuf[])
1262:Generated_Source\PSoC5/USB_midi.c ****                                                             
1263:Generated_Source\PSoC5/USB_midi.c ****     {
 1760              		.loc 1 1263 0
 1761              		.cfi_startproc
 1762              		@ args = 0, pretend = 0, frame = 0
 1763              		@ frame_needed = 0, uses_anonymous_args = 0
 1764              	.LVL168:
1264:Generated_Source\PSoC5/USB_midi.c ****         uint8 cmd;
1265:Generated_Source\PSoC5/USB_midi.c ****         uint8 len;
1266:Generated_Source\PSoC5/USB_midi.c ****         uint8 i;
1267:Generated_Source\PSoC5/USB_midi.c **** 
1268:Generated_Source\PSoC5/USB_midi.c ****         /* User code is required at the beginning of the procedure */
1269:Generated_Source\PSoC5/USB_midi.c ****         /* `#START MIDI2_PROCESS_OUT_START` */
1270:Generated_Source\PSoC5/USB_midi.c ****         //LED_OutB_Write(1);
1271:Generated_Source\PSoC5/USB_midi.c ****         /* `#END` */
1272:Generated_Source\PSoC5/USB_midi.c **** 
1273:Generated_Source\PSoC5/USB_midi.c ****         cmd = epBuf[USB_EVENT_BYTE0] & USB_CIN_MASK;
 1765              		.loc 1 1273 0
 1766 0000 0378     		ldrb	r3, [r0]	@ zero_extendqisi2
 1767 0002 03F00F03 		and	r3, r3, #15
 1768              	.LVL169:
1274:Generated_Source\PSoC5/USB_midi.c ****         if((cmd != USB_RESERVED0) && (cmd != USB_RESERVED1))
 1769              		.loc 1 1274 0
 1770 0006 012B     		cmp	r3, #1
 1771 0008 31D9     		bls	.L238
1275:Generated_Source\PSoC5/USB_midi.c ****         {
1276:Generated_Source\PSoC5/USB_midi.c ****             len = USB_MIDI_SIZE[cmd];
 1772              		.loc 1 1276 0
 1773 000a 244A     		ldr	r2, .L245
1277:Generated_Source\PSoC5/USB_midi.c ****             i = USB_EVENT_BYTE1;
1278:Generated_Source\PSoC5/USB_midi.c ****             /* Universal System Exclusive message parsing */
1279:Generated_Source\PSoC5/USB_midi.c ****             if(cmd == USB_SYSEX)
 1774              		.loc 1 1279 0
 1775 000c 042B     		cmp	r3, #4
1263:Generated_Source\PSoC5/USB_midi.c ****         uint8 cmd;
 1776              		.loc 1 1263 0
 1777 000e 70B5     		push	{r4, r5, r6, lr}
 1778              		.cfi_def_cfa_offset 16
 1779              		.cfi_offset 4, -16
 1780              		.cfi_offset 5, -12
 1781              		.cfi_offset 6, -8
 1782              		.cfi_offset 14, -4
 1783 0010 0546     		mov	r5, r0
1276:Generated_Source\PSoC5/USB_midi.c ****             i = USB_EVENT_BYTE1;
 1784              		.loc 1 1276 0
 1785 0012 D65C     		ldrb	r6, [r2, r3]	@ zero_extendqisi2
 1786              	.LVL170:
 1787              		.loc 1 1279 0
 1788 0014 1FD0     		beq	.L242
1280:Generated_Source\PSoC5/USB_midi.c ****             {
1281:Generated_Source\PSoC5/USB_midi.c ****                 if((epBuf[USB_EVENT_BYTE1] == USB_MIDI_SYSEX) &&
1282:Generated_Source\PSoC5/USB_midi.c ****                    (epBuf[USB_EVENT_BYTE2] == USB_MIDI_SYSEX_NON_REAL_TIME))
1283:Generated_Source\PSoC5/USB_midi.c ****                 {   /* SySEx starts */
1284:Generated_Source\PSoC5/USB_midi.c ****                     USB_MIDI2_InqFlags |= USB_INQ_SYSEX_FLAG;
ARM GAS  C:\Users\jwvance\AppData\Local\Temp\ccxTgFRe.s 			page 61


1285:Generated_Source\PSoC5/USB_midi.c ****                 }
1286:Generated_Source\PSoC5/USB_midi.c ****                 else
1287:Generated_Source\PSoC5/USB_midi.c ****                 {
1288:Generated_Source\PSoC5/USB_midi.c ****                     USB_MIDI2_InqFlags &= (uint8)~USB_INQ_SYSEX_FLAG;
1289:Generated_Source\PSoC5/USB_midi.c ****                 }
1290:Generated_Source\PSoC5/USB_midi.c ****             }
1291:Generated_Source\PSoC5/USB_midi.c ****             else if(cmd == USB_SYSEX_ENDS_WITH1)
 1789              		.loc 1 1291 0
 1790 0016 052B     		cmp	r3, #5
 1791 0018 15D0     		beq	.L240
1292:Generated_Source\PSoC5/USB_midi.c ****             {
1293:Generated_Source\PSoC5/USB_midi.c ****                 USB_MIDI2_InqFlags &= (uint8)~USB_INQ_SYSEX_FLAG;
1294:Generated_Source\PSoC5/USB_midi.c ****             }
1295:Generated_Source\PSoC5/USB_midi.c ****             else if(cmd == USB_SYSEX_ENDS_WITH2)
 1792              		.loc 1 1295 0
 1793 001a 062B     		cmp	r3, #6
 1794 001c 13D0     		beq	.L240
1296:Generated_Source\PSoC5/USB_midi.c ****             {
1297:Generated_Source\PSoC5/USB_midi.c ****                 USB_MIDI2_InqFlags &= (uint8)~USB_INQ_SYSEX_FLAG;
1298:Generated_Source\PSoC5/USB_midi.c ****             }
1299:Generated_Source\PSoC5/USB_midi.c ****             else if(cmd == USB_SYSEX_ENDS_WITH3)
 1795              		.loc 1 1299 0
 1796 001e 072B     		cmp	r3, #7
 1797 0020 28D0     		beq	.L243
1300:Generated_Source\PSoC5/USB_midi.c ****             {
1301:Generated_Source\PSoC5/USB_midi.c ****                 /* Identify Request support */
1302:Generated_Source\PSoC5/USB_midi.c ****                 if((USB_MIDI2_InqFlags & USB_INQ_SYSEX_FLAG) != 0u)
1303:Generated_Source\PSoC5/USB_midi.c ****                 {
1304:Generated_Source\PSoC5/USB_midi.c ****                     USB_MIDI2_InqFlags &= (uint8)~USB_INQ_SYSEX_FLAG;
1305:Generated_Source\PSoC5/USB_midi.c ****                     if((epBuf[USB_EVENT_BYTE1] == USB_MIDI_SYSEX_GEN_INFORMATION) &&
1306:Generated_Source\PSoC5/USB_midi.c ****                        (epBuf[USB_EVENT_BYTE2] == USB_MIDI_SYSEX_IDENTITY_REQ))
1307:Generated_Source\PSoC5/USB_midi.c ****                     {   /* Set the flag about received the Identity Request.
1308:Generated_Source\PSoC5/USB_midi.c ****                         *  The Identity Reply message may be send by user code.
1309:Generated_Source\PSoC5/USB_midi.c ****                         */
1310:Generated_Source\PSoC5/USB_midi.c ****                         USB_MIDI2_InqFlags |= USB_INQ_IDENTITY_REQ_FLAG;
1311:Generated_Source\PSoC5/USB_midi.c ****                     }
1312:Generated_Source\PSoC5/USB_midi.c ****                 }
1313:Generated_Source\PSoC5/USB_midi.c ****             }
1314:Generated_Source\PSoC5/USB_midi.c ****             else /* Do nothing for other command */
1315:Generated_Source\PSoC5/USB_midi.c ****             {
1316:Generated_Source\PSoC5/USB_midi.c ****             }
1317:Generated_Source\PSoC5/USB_midi.c ****             /* Running Status for Voice and Mode messages only. */
1318:Generated_Source\PSoC5/USB_midi.c ****             if((cmd >= USB_NOTE_OFF) && ( cmd <= USB_PITCH_BEND_CHANGE))
 1798              		.loc 1 1318 0
 1799 0022 083B     		subs	r3, r3, #8
 1800              	.LVL171:
 1801 0024 062B     		cmp	r3, #6
 1802 0026 13D8     		bhi	.L228
1319:Generated_Source\PSoC5/USB_midi.c ****             {
1320:Generated_Source\PSoC5/USB_midi.c ****                 if(USB_MIDI2_TxRunStat == epBuf[USB_EVENT_BYTE1])
 1803              		.loc 1 1320 0
 1804 0028 1D4B     		ldr	r3, .L245+4
 1805              	.LVL172:
 1806 002a 4278     		ldrb	r2, [r0, #1]	@ zero_extendqisi2
 1807 002c 197D     		ldrb	r1, [r3, #20]	@ zero_extendqisi2
 1808 002e 8A42     		cmp	r2, r1
 1809 0030 1ED0     		beq	.L244
ARM GAS  C:\Users\jwvance\AppData\Local\Temp\ccxTgFRe.s 			page 62


 1810              	.LVL173:
 1811              	.L241:
1321:Generated_Source\PSoC5/USB_midi.c ****                 {   /* Skip the repeated Status byte */
1322:Generated_Source\PSoC5/USB_midi.c ****                     i++;
1323:Generated_Source\PSoC5/USB_midi.c ****                 }
1324:Generated_Source\PSoC5/USB_midi.c ****                 else
1325:Generated_Source\PSoC5/USB_midi.c ****                 {   /* Save Status byte for next event */
1326:Generated_Source\PSoC5/USB_midi.c ****                     USB_MIDI2_TxRunStat = epBuf[USB_EVENT_BYTE1];
1327:Generated_Source\PSoC5/USB_midi.c ****                 }
1328:Generated_Source\PSoC5/USB_midi.c ****             }
1329:Generated_Source\PSoC5/USB_midi.c ****             else
1330:Generated_Source\PSoC5/USB_midi.c ****             {   /* Clear Running Status */
1331:Generated_Source\PSoC5/USB_midi.c ****                 USB_MIDI2_TxRunStat = 0u;
 1812              		.loc 1 1331 0
 1813 0032 1A75     		strb	r2, [r3, #20]
1277:Generated_Source\PSoC5/USB_midi.c ****             /* Universal System Exclusive message parsing */
 1814              		.loc 1 1277 0
 1815 0034 0124     		movs	r4, #1
 1816              	.LVL174:
 1817              	.L230:
1332:Generated_Source\PSoC5/USB_midi.c ****             }
1333:Generated_Source\PSoC5/USB_midi.c ****             /* Puts data into the MIDI TX output buffer.*/
1334:Generated_Source\PSoC5/USB_midi.c ****             do
1335:Generated_Source\PSoC5/USB_midi.c ****             {
1336:Generated_Source\PSoC5/USB_midi.c ****                 MIDI2_UART_PutChar(epBuf[i]);
 1818              		.loc 1 1336 0 discriminator 1
 1819 0036 285D     		ldrb	r0, [r5, r4]	@ zero_extendqisi2
1337:Generated_Source\PSoC5/USB_midi.c ****                 i++;
 1820              		.loc 1 1337 0 discriminator 1
 1821 0038 0134     		adds	r4, r4, #1
 1822              	.LVL175:
 1823 003a E4B2     		uxtb	r4, r4
1336:Generated_Source\PSoC5/USB_midi.c ****                 i++;
 1824              		.loc 1 1336 0 discriminator 1
 1825 003c FFF7FEFF 		bl	MIDI2_UART_PutChar
 1826              	.LVL176:
1338:Generated_Source\PSoC5/USB_midi.c ****             } while (i <= len);
 1827              		.loc 1 1338 0 discriminator 1
 1828 0040 A642     		cmp	r6, r4
 1829 0042 F8D2     		bcs	.L230
 1830 0044 70BD     		pop	{r4, r5, r6, pc}
 1831              	.LVL177:
 1832              	.L240:
1297:Generated_Source\PSoC5/USB_midi.c ****             }
 1833              		.loc 1 1297 0
 1834 0046 174A     		ldr	r2, .L245+8
 1835              	.LVL178:
 1836              	.L239:
 1837 0048 1378     		ldrb	r3, [r2]	@ zero_extendqisi2
 1838 004a 03F0FE03 		and	r3, r3, #254
 1839 004e 1370     		strb	r3, [r2]
 1840              	.LVL179:
 1841              	.L228:
1331:Generated_Source\PSoC5/USB_midi.c ****             }
 1842              		.loc 1 1331 0
 1843 0050 134B     		ldr	r3, .L245+4
 1844 0052 0022     		movs	r2, #0
ARM GAS  C:\Users\jwvance\AppData\Local\Temp\ccxTgFRe.s 			page 63


 1845 0054 EDE7     		b	.L241
 1846              	.LVL180:
 1847              	.L242:
1281:Generated_Source\PSoC5/USB_midi.c ****                    (epBuf[USB_EVENT_BYTE2] == USB_MIDI_SYSEX_NON_REAL_TIME))
 1848              		.loc 1 1281 0
 1849 0056 4378     		ldrb	r3, [r0, #1]	@ zero_extendqisi2
 1850              	.LVL181:
1284:Generated_Source\PSoC5/USB_midi.c ****                 }
 1851              		.loc 1 1284 0
 1852 0058 124A     		ldr	r2, .L245+8
1281:Generated_Source\PSoC5/USB_midi.c ****                    (epBuf[USB_EVENT_BYTE2] == USB_MIDI_SYSEX_NON_REAL_TIME))
 1853              		.loc 1 1281 0
 1854 005a F02B     		cmp	r3, #240
 1855 005c F4D1     		bne	.L239
1281:Generated_Source\PSoC5/USB_midi.c ****                    (epBuf[USB_EVENT_BYTE2] == USB_MIDI_SYSEX_NON_REAL_TIME))
 1856              		.loc 1 1281 0 is_stmt 0 discriminator 1
 1857 005e 8378     		ldrb	r3, [r0, #2]	@ zero_extendqisi2
 1858 0060 7E2B     		cmp	r3, #126
 1859 0062 F1D1     		bne	.L239
1284:Generated_Source\PSoC5/USB_midi.c ****                 }
 1860              		.loc 1 1284 0 is_stmt 1
 1861 0064 1378     		ldrb	r3, [r2]	@ zero_extendqisi2
 1862 0066 43F00103 		orr	r3, r3, #1
 1863 006a 1370     		strb	r3, [r2]
 1864              	.LVL182:
 1865 006c F0E7     		b	.L228
 1866              	.LVL183:
 1867              	.L238:
 1868              		.cfi_def_cfa_offset 0
 1869              		.cfi_restore 4
 1870              		.cfi_restore 5
 1871              		.cfi_restore 6
 1872              		.cfi_restore 14
 1873 006e 7047     		bx	lr
 1874              	.LVL184:
 1875              	.L244:
 1876              		.cfi_def_cfa_offset 16
 1877              		.cfi_offset 4, -16
 1878              		.cfi_offset 5, -12
 1879              		.cfi_offset 6, -8
 1880              		.cfi_offset 14, -4
1322:Generated_Source\PSoC5/USB_midi.c ****                 }
 1881              		.loc 1 1322 0
 1882 0070 0224     		movs	r4, #2
 1883 0072 E0E7     		b	.L230
 1884              	.LVL185:
 1885              	.L243:
1302:Generated_Source\PSoC5/USB_midi.c ****                 {
 1886              		.loc 1 1302 0
 1887 0074 0B4B     		ldr	r3, .L245+8
 1888              	.LVL186:
 1889 0076 1A78     		ldrb	r2, [r3]	@ zero_extendqisi2
 1890 0078 D207     		lsls	r2, r2, #31
 1891 007a E9D5     		bpl	.L228
1304:Generated_Source\PSoC5/USB_midi.c ****                     if((epBuf[USB_EVENT_BYTE1] == USB_MIDI_SYSEX_GEN_INFORMATION) &&
 1892              		.loc 1 1304 0
 1893 007c 1A78     		ldrb	r2, [r3]	@ zero_extendqisi2
ARM GAS  C:\Users\jwvance\AppData\Local\Temp\ccxTgFRe.s 			page 64


1305:Generated_Source\PSoC5/USB_midi.c ****                        (epBuf[USB_EVENT_BYTE2] == USB_MIDI_SYSEX_IDENTITY_REQ))
 1894              		.loc 1 1305 0
 1895 007e 4178     		ldrb	r1, [r0, #1]	@ zero_extendqisi2
1304:Generated_Source\PSoC5/USB_midi.c ****                     if((epBuf[USB_EVENT_BYTE1] == USB_MIDI_SYSEX_GEN_INFORMATION) &&
 1896              		.loc 1 1304 0
 1897 0080 02F0FE02 		and	r2, r2, #254
1305:Generated_Source\PSoC5/USB_midi.c ****                        (epBuf[USB_EVENT_BYTE2] == USB_MIDI_SYSEX_IDENTITY_REQ))
 1898              		.loc 1 1305 0
 1899 0084 0629     		cmp	r1, #6
1304:Generated_Source\PSoC5/USB_midi.c ****                     if((epBuf[USB_EVENT_BYTE1] == USB_MIDI_SYSEX_GEN_INFORMATION) &&
 1900              		.loc 1 1304 0
 1901 0086 1A70     		strb	r2, [r3]
 1902              	.LVL187:
1305:Generated_Source\PSoC5/USB_midi.c ****                        (epBuf[USB_EVENT_BYTE2] == USB_MIDI_SYSEX_IDENTITY_REQ))
 1903              		.loc 1 1305 0
 1904 0088 E2D1     		bne	.L228
1305:Generated_Source\PSoC5/USB_midi.c ****                        (epBuf[USB_EVENT_BYTE2] == USB_MIDI_SYSEX_IDENTITY_REQ))
 1905              		.loc 1 1305 0 is_stmt 0 discriminator 1
 1906 008a 8278     		ldrb	r2, [r0, #2]	@ zero_extendqisi2
 1907 008c 012A     		cmp	r2, #1
 1908 008e DFD1     		bne	.L228
1310:Generated_Source\PSoC5/USB_midi.c ****                     }
 1909              		.loc 1 1310 0 is_stmt 1
 1910 0090 1A78     		ldrb	r2, [r3]	@ zero_extendqisi2
 1911 0092 42F00202 		orr	r2, r2, #2
 1912 0096 1A70     		strb	r2, [r3]
 1913 0098 DAE7     		b	.L228
 1914              	.L246:
 1915 009a 00BF     		.align	2
 1916              	.L245:
 1917 009c 00000000 		.word	.LANCHOR1
 1918 00a0 00000000 		.word	.LANCHOR0
 1919 00a4 00000000 		.word	USB_MIDI2_InqFlags
 1920              		.cfi_endproc
 1921              	.LFE11:
 1922              		.size	USB_MIDI2_ProcessUsbOut, .-USB_MIDI2_ProcessUsbOut
 1923              		.section	.text.USB_MIDI_OUT_EP_Service,"ax",%progbits
 1924              		.align	2
 1925              		.global	USB_MIDI_OUT_EP_Service
 1926              		.thumb
 1927              		.thumb_func
 1928              		.type	USB_MIDI_OUT_EP_Service, %function
 1929              	USB_MIDI_OUT_EP_Service:
 1930              	.LFB1:
 200:Generated_Source\PSoC5/USB_midi.c ****         #if USB_MIDI_OUT_BUFF_SIZE >= 256
 1931              		.loc 1 200 0
 1932              		.cfi_startproc
 1933              		@ args = 0, pretend = 0, frame = 0
 1934              		@ frame_needed = 0, uses_anonymous_args = 0
 1935              	.LVL188:
 1936 0000 F8B5     		push	{r3, r4, r5, r6, r7, lr}
 1937              		.cfi_def_cfa_offset 24
 1938              		.cfi_offset 3, -24
 1939              		.cfi_offset 4, -20
 1940              		.cfi_offset 5, -16
 1941              		.cfi_offset 6, -12
 1942              		.cfi_offset 7, -8
ARM GAS  C:\Users\jwvance\AppData\Local\Temp\ccxTgFRe.s 			page 65


 1943              		.cfi_offset 14, -4
 212:Generated_Source\PSoC5/USB_midi.c ****         {
 1944              		.loc 1 212 0
 1945 0002 1A4C     		ldr	r4, .L260
 1946 0004 2078     		ldrb	r0, [r4]	@ zero_extendqisi2
 1947 0006 FFF7FEFF 		bl	USB_GetEPState
 1948              	.LVL189:
 1949 000a 0128     		cmp	r0, #1
 1950 000c 00D0     		beq	.L258
 1951              	.L247:
 1952 000e F8BD     		pop	{r3, r4, r5, r6, r7, pc}
 1953              	.L258:
 217:Generated_Source\PSoC5/USB_midi.c ****             #endif /* (USB_MIDI_OUT_BUFF_SIZE >= 256) */
 1954              		.loc 1 217 0
 1955 0010 2078     		ldrb	r0, [r4]	@ zero_extendqisi2
 1956 0012 FFF7FEFF 		bl	USB_GetEPCount
 1957              	.LVL190:
 225:Generated_Source\PSoC5/USB_midi.c ****                                                                     USB_midiOutBuffer, (uint16)outL
 1958              		.loc 1 225 0
 1959 0016 2378     		ldrb	r3, [r4]	@ zero_extendqisi2
 1960 0018 C2B2     		uxtb	r2, r0
 1961 001a 1549     		ldr	r1, .L260+4
 1962 001c 1846     		mov	r0, r3
 1963              	.LVL191:
 1964 001e FFF7FEFF 		bl	USB_ReadOutEP
 1965              	.LVL192:
 1966 0022 C6B2     		uxtb	r6, r0
 1967              	.LVL193:
 244:Generated_Source\PSoC5/USB_midi.c ****             {
 1968              		.loc 1 244 0
 1969 0024 032E     		cmp	r6, #3
 1970 0026 F2D9     		bls	.L247
 1971 0028 114D     		ldr	r5, .L260+4
 1972 002a 0024     		movs	r4, #0
 250:Generated_Source\PSoC5/USB_midi.c ****                     {
 1973              		.loc 1 250 0
 1974 002c 2F46     		mov	r7, r5
 1975 002e 09E0     		b	.L252
 1976              	.LVL194:
 1977              	.L250:
 261:Generated_Source\PSoC5/USB_midi.c ****                                  USB_MIDI_CABLE_01)
 1978              		.loc 1 261 0
 1979 0030 1028     		cmp	r0, #16
 1980 0032 14D0     		beq	.L259
 1981              	.L251:
 279:Generated_Source\PSoC5/USB_midi.c ****                     outPointer += USB_EVENT_LENGTH;
 1982              		.loc 1 279 0
 1983 0034 611C     		adds	r1, r4, #1
 280:Generated_Source\PSoC5/USB_midi.c ****                 }
 1984              		.loc 1 280 0
 1985 0036 0434     		adds	r4, r4, #4
 1986              	.LVL195:
 277:Generated_Source\PSoC5/USB_midi.c ****                         USB_midiOutBuffer[outPointer] & USB_CABLE_MASK,
 1987              		.loc 1 277 0
 1988 0038 2944     		add	r1, r1, r5
 280:Generated_Source\PSoC5/USB_midi.c ****                 }
 1989              		.loc 1 280 0
ARM GAS  C:\Users\jwvance\AppData\Local\Temp\ccxTgFRe.s 			page 66


 1990 003a E4B2     		uxtb	r4, r4
 277:Generated_Source\PSoC5/USB_midi.c ****                         USB_midiOutBuffer[outPointer] & USB_CABLE_MASK,
 1991              		.loc 1 277 0
 1992 003c FFF7FEFF 		bl	USB_callbackLocalMidiEvent
 1993              	.LVL196:
 247:Generated_Source\PSoC5/USB_midi.c ****                 {
 1994              		.loc 1 247 0
 1995 0040 A642     		cmp	r6, r4
 1996 0042 E4D9     		bls	.L247
 1997              	.LVL197:
 1998              	.L252:
 250:Generated_Source\PSoC5/USB_midi.c ****                     {
 1999              		.loc 1 250 0
 2000 0044 285D     		ldrb	r0, [r5, r4]	@ zero_extendqisi2
 2001 0046 0028     		cmp	r0, #0
 2002 0048 E1D0     		beq	.L247
 256:Generated_Source\PSoC5/USB_midi.c ****                             USB_MIDI_CABLE_00)
 2003              		.loc 1 256 0
 2004 004a 10F0F000 		ands	r0, r0, #240
 2005 004e EFD1     		bne	.L250
 259:Generated_Source\PSoC5/USB_midi.c ****                         }
 2006              		.loc 1 259 0
 2007 0050 3819     		adds	r0, r7, r4
 2008 0052 FFF7FEFF 		bl	USB_MIDI1_ProcessUsbOut
 2009              	.LVL198:
 2010 0056 385D     		ldrb	r0, [r7, r4]	@ zero_extendqisi2
 2011 0058 00F0F000 		and	r0, r0, #240
 2012 005c EAE7     		b	.L251
 2013              	.L259:
 265:Generated_Source\PSoC5/USB_midi.c ****                             #endif /*  USB_MIDI_EXT_MODE >= USB_TWO_EXT_INTRF */
 2014              		.loc 1 265 0
 2015 005e 3819     		adds	r0, r7, r4
 2016 0060 FFF7FEFF 		bl	USB_MIDI2_ProcessUsbOut
 2017              	.LVL199:
 2018 0064 385D     		ldrb	r0, [r7, r4]	@ zero_extendqisi2
 2019 0066 00F0F000 		and	r0, r0, #240
 2020 006a E3E7     		b	.L251
 2021              	.L261:
 2022              		.align	2
 2023              	.L260:
 2024 006c 00000000 		.word	USB_midi_out_ep
 2025 0070 00000000 		.word	USB_midiOutBuffer
 2026              		.cfi_endproc
 2027              	.LFE1:
 2028              		.size	USB_MIDI_OUT_EP_Service, .-USB_MIDI_OUT_EP_Service
 2029              		.comm	USB_MIDI2_InqFlags,1,1
 2030              		.comm	USB_MIDI1_InqFlags,1,1
 2031              		.comm	USB_midiOutBuffer,32,4
 2032              		.comm	USB_midi_out_ep,1,1
 2033              		.comm	USB_midiInBuffer,32,4
 2034              		.comm	USB_midi_in_ep,1,1
 2035              		.comm	USB_midiInPointer,1,1
 2036              		.section	.rodata
 2037              		.align	2
 2038              		.set	.LANCHOR1,. + 0
 2039              		.type	USB_MIDI_SIZE, %object
 2040              		.size	USB_MIDI_SIZE, 16
ARM GAS  C:\Users\jwvance\AppData\Local\Temp\ccxTgFRe.s 			page 67


 2041              	USB_MIDI_SIZE:
 2042 0000 03       		.byte	3
 2043 0001 03       		.byte	3
 2044 0002 02       		.byte	2
 2045 0003 03       		.byte	3
 2046 0004 03       		.byte	3
 2047 0005 01       		.byte	1
 2048 0006 02       		.byte	2
 2049 0007 03       		.byte	3
 2050 0008 03       		.byte	3
 2051 0009 03       		.byte	3
 2052 000a 03       		.byte	3
 2053 000b 03       		.byte	3
 2054 000c 02       		.byte	2
 2055 000d 02       		.byte	2
 2056 000e 03       		.byte	3
 2057 000f 01       		.byte	1
 2058              		.bss
 2059              		.align	2
 2060              		.set	.LANCHOR0,. + 0
 2061              		.type	USB_MIDI1_Event, %object
 2062              		.size	USB_MIDI1_Event, 8
 2063              	USB_MIDI1_Event:
 2064 0000 00000000 		.space	8
 2064      00000000 
 2065              		.type	USB_MIDI1_TxRunStat, %object
 2066              		.size	USB_MIDI1_TxRunStat, 1
 2067              	USB_MIDI1_TxRunStat:
 2068 0008 00       		.space	1
 2069 0009 000000   		.space	3
 2070              		.type	USB_MIDI2_Event, %object
 2071              		.size	USB_MIDI2_Event, 8
 2072              	USB_MIDI2_Event:
 2073 000c 00000000 		.space	8
 2073      00000000 
 2074              		.type	USB_MIDI2_TxRunStat, %object
 2075              		.size	USB_MIDI2_TxRunStat, 1
 2076              	USB_MIDI2_TxRunStat:
 2077 0014 00       		.space	1
 2078 0015 000000   		.text
 2079              	.Letext0:
 2080              		.file 2 "Generated_Source\\PSoC5\\cytypes.h"
 2081              		.file 3 "Generated_Source\\PSoC5\\USB.h"
 2082              		.file 4 "Generated_Source\\PSoC5\\USB_midi.h"
 2083              		.file 5 "Generated_Source\\PSoC5\\MIDI1_UART.h"
 2084              		.file 6 "Generated_Source\\PSoC5\\MIDI2_UART.h"
 2085              		.file 7 "Generated_Source\\PSoC5\\USB_pvt.h"
 2086              		.file 8 "Generated_Source\\PSoC5\\CyLib.h"
 2087              		.section	.debug_info,"",%progbits
 2088              	.Ldebug_info0:
 2089 0000 6A090000 		.4byte	0x96a
 2090 0004 0400     		.2byte	0x4
 2091 0006 00000000 		.4byte	.Ldebug_abbrev0
 2092 000a 04       		.byte	0x4
 2093 000b 01       		.uleb128 0x1
 2094 000c 9B020000 		.4byte	.LASF96
 2095 0010 01       		.byte	0x1
ARM GAS  C:\Users\jwvance\AppData\Local\Temp\ccxTgFRe.s 			page 68


 2096 0011 92040000 		.4byte	.LASF97
 2097 0015 B6050000 		.4byte	.LASF98
 2098 0019 00000000 		.4byte	.Ldebug_ranges0+0
 2099 001d 00000000 		.4byte	0
 2100 0021 00000000 		.4byte	.Ldebug_line0
 2101 0025 02       		.uleb128 0x2
 2102 0026 01       		.byte	0x1
 2103 0027 06       		.byte	0x6
 2104 0028 B9000000 		.4byte	.LASF0
 2105 002c 02       		.uleb128 0x2
 2106 002d 01       		.byte	0x1
 2107 002e 08       		.byte	0x8
 2108 002f 84040000 		.4byte	.LASF1
 2109 0033 02       		.uleb128 0x2
 2110 0034 02       		.byte	0x2
 2111 0035 05       		.byte	0x5
 2112 0036 B4040000 		.4byte	.LASF2
 2113 003a 02       		.uleb128 0x2
 2114 003b 02       		.byte	0x2
 2115 003c 07       		.byte	0x7
 2116 003d D6010000 		.4byte	.LASF3
 2117 0041 02       		.uleb128 0x2
 2118 0042 04       		.byte	0x4
 2119 0043 05       		.byte	0x5
 2120 0044 18010000 		.4byte	.LASF4
 2121 0048 02       		.uleb128 0x2
 2122 0049 04       		.byte	0x4
 2123 004a 07       		.byte	0x7
 2124 004b BF010000 		.4byte	.LASF5
 2125 004f 02       		.uleb128 0x2
 2126 0050 08       		.byte	0x8
 2127 0051 05       		.byte	0x5
 2128 0052 AB000000 		.4byte	.LASF6
 2129 0056 02       		.uleb128 0x2
 2130 0057 08       		.byte	0x8
 2131 0058 07       		.byte	0x7
 2132 0059 55000000 		.4byte	.LASF7
 2133 005d 03       		.uleb128 0x3
 2134 005e 04       		.byte	0x4
 2135 005f 05       		.byte	0x5
 2136 0060 696E7400 		.ascii	"int\000"
 2137 0064 02       		.uleb128 0x2
 2138 0065 04       		.byte	0x4
 2139 0066 07       		.byte	0x7
 2140 0067 91010000 		.4byte	.LASF8
 2141 006b 04       		.uleb128 0x4
 2142 006c 21010000 		.4byte	.LASF9
 2143 0070 02       		.byte	0x2
 2144 0071 5B       		.byte	0x5b
 2145 0072 2C000000 		.4byte	0x2c
 2146 0076 04       		.uleb128 0x4
 2147 0077 24000000 		.4byte	.LASF10
 2148 007b 02       		.byte	0x2
 2149 007c 5C       		.byte	0x5c
 2150 007d 3A000000 		.4byte	0x3a
 2151 0081 02       		.uleb128 0x2
 2152 0082 04       		.byte	0x4
ARM GAS  C:\Users\jwvance\AppData\Local\Temp\ccxTgFRe.s 			page 69


 2153 0083 04       		.byte	0x4
 2154 0084 1E040000 		.4byte	.LASF11
 2155 0088 02       		.uleb128 0x2
 2156 0089 08       		.byte	0x8
 2157 008a 04       		.byte	0x4
 2158 008b 30010000 		.4byte	.LASF12
 2159 008f 02       		.uleb128 0x2
 2160 0090 01       		.byte	0x1
 2161 0091 08       		.byte	0x8
 2162 0092 44050000 		.4byte	.LASF13
 2163 0096 05       		.uleb128 0x5
 2164 0097 6B000000 		.4byte	0x6b
 2165 009b 02       		.uleb128 0x2
 2166 009c 04       		.byte	0x4
 2167 009d 07       		.byte	0x7
 2168 009e 52030000 		.4byte	.LASF14
 2169 00a2 06       		.uleb128 0x6
 2170 00a3 0C       		.byte	0xc
 2171 00a4 03       		.byte	0x3
 2172 00a5 7D       		.byte	0x7d
 2173 00a6 17010000 		.4byte	0x117
 2174 00aa 07       		.uleb128 0x7
 2175 00ab 63030000 		.4byte	.LASF15
 2176 00af 03       		.byte	0x3
 2177 00b0 7F       		.byte	0x7f
 2178 00b1 6B000000 		.4byte	0x6b
 2179 00b5 00       		.byte	0
 2180 00b6 07       		.uleb128 0x7
 2181 00b7 34040000 		.4byte	.LASF16
 2182 00bb 03       		.byte	0x3
 2183 00bc 80       		.byte	0x80
 2184 00bd 6B000000 		.4byte	0x6b
 2185 00c1 01       		.byte	0x1
 2186 00c2 07       		.uleb128 0x7
 2187 00c3 3D030000 		.4byte	.LASF17
 2188 00c7 03       		.byte	0x3
 2189 00c8 81       		.byte	0x81
 2190 00c9 6B000000 		.4byte	0x6b
 2191 00cd 02       		.byte	0x2
 2192 00ce 07       		.uleb128 0x7
 2193 00cf 27010000 		.4byte	.LASF18
 2194 00d3 03       		.byte	0x3
 2195 00d4 82       		.byte	0x82
 2196 00d5 6B000000 		.4byte	0x6b
 2197 00d9 03       		.byte	0x3
 2198 00da 07       		.uleb128 0x7
 2199 00db 6C000000 		.4byte	.LASF19
 2200 00df 03       		.byte	0x3
 2201 00e0 83       		.byte	0x83
 2202 00e1 6B000000 		.4byte	0x6b
 2203 00e5 04       		.byte	0x4
 2204 00e6 07       		.uleb128 0x7
 2205 00e7 52010000 		.4byte	.LASF20
 2206 00eb 03       		.byte	0x3
 2207 00ec 84       		.byte	0x84
 2208 00ed 6B000000 		.4byte	0x6b
 2209 00f1 05       		.byte	0x5
ARM GAS  C:\Users\jwvance\AppData\Local\Temp\ccxTgFRe.s 			page 70


 2210 00f2 07       		.uleb128 0x7
 2211 00f3 86050000 		.4byte	.LASF21
 2212 00f7 03       		.byte	0x3
 2213 00f8 85       		.byte	0x85
 2214 00f9 76000000 		.4byte	0x76
 2215 00fd 06       		.byte	0x6
 2216 00fe 07       		.uleb128 0x7
 2217 00ff 49050000 		.4byte	.LASF22
 2218 0103 03       		.byte	0x3
 2219 0104 86       		.byte	0x86
 2220 0105 76000000 		.4byte	0x76
 2221 0109 08       		.byte	0x8
 2222 010a 07       		.uleb128 0x7
 2223 010b 66020000 		.4byte	.LASF23
 2224 010f 03       		.byte	0x3
 2225 0110 87       		.byte	0x87
 2226 0111 6B000000 		.4byte	0x6b
 2227 0115 0A       		.byte	0xa
 2228 0116 00       		.byte	0
 2229 0117 04       		.uleb128 0x4
 2230 0118 81000000 		.4byte	.LASF24
 2231 011c 03       		.byte	0x3
 2232 011d 88       		.byte	0x88
 2233 011e A2000000 		.4byte	0xa2
 2234 0122 06       		.uleb128 0x6
 2235 0123 08       		.byte	0x8
 2236 0124 04       		.byte	0x4
 2237 0125 21       		.byte	0x21
 2238 0126 67010000 		.4byte	0x167
 2239 012a 07       		.uleb128 0x7
 2240 012b 3D050000 		.4byte	.LASF25
 2241 012f 04       		.byte	0x4
 2242 0130 23       		.byte	0x23
 2243 0131 6B000000 		.4byte	0x6b
 2244 0135 00       		.byte	0
 2245 0136 07       		.uleb128 0x7
 2246 0137 1E000000 		.4byte	.LASF26
 2247 013b 04       		.byte	0x4
 2248 013c 24       		.byte	0x24
 2249 013d 6B000000 		.4byte	0x6b
 2250 0141 01       		.byte	0x1
 2251 0142 07       		.uleb128 0x7
 2252 0143 D1010000 		.4byte	.LASF27
 2253 0147 04       		.byte	0x4
 2254 0148 25       		.byte	0x25
 2255 0149 6B000000 		.4byte	0x6b
 2256 014d 02       		.byte	0x2
 2257 014e 07       		.uleb128 0x7
 2258 014f 96030000 		.4byte	.LASF28
 2259 0153 04       		.byte	0x4
 2260 0154 26       		.byte	0x26
 2261 0155 6B000000 		.4byte	0x6b
 2262 0159 03       		.byte	0x3
 2263 015a 07       		.uleb128 0x7
 2264 015b 0A060000 		.4byte	.LASF29
 2265 015f 04       		.byte	0x4
 2266 0160 27       		.byte	0x27
ARM GAS  C:\Users\jwvance\AppData\Local\Temp\ccxTgFRe.s 			page 71


 2267 0161 67010000 		.4byte	0x167
 2268 0165 04       		.byte	0x4
 2269 0166 00       		.byte	0
 2270 0167 08       		.uleb128 0x8
 2271 0168 6B000000 		.4byte	0x6b
 2272 016c 77010000 		.4byte	0x177
 2273 0170 09       		.uleb128 0x9
 2274 0171 9B000000 		.4byte	0x9b
 2275 0175 03       		.byte	0x3
 2276 0176 00       		.byte	0
 2277 0177 04       		.uleb128 0x4
 2278 0178 2E020000 		.4byte	.LASF30
 2279 017c 04       		.byte	0x4
 2280 017d 28       		.byte	0x28
 2281 017e 22010000 		.4byte	0x122
 2282 0182 0A       		.uleb128 0xa
 2283 0183 3F040000 		.4byte	.LASF81
 2284 0187 01       		.byte	0x1
 2285 0188 4201     		.2byte	0x142
 2286 018a 01       		.byte	0x1
 2287 018b 0B       		.uleb128 0xb
 2288 018c 82010000 		.4byte	0x182
 2289 0190 00000000 		.4byte	.LFB2
 2290 0194 34000000 		.4byte	.LFE2-.LFB2
 2291 0198 01       		.uleb128 0x1
 2292 0199 9C       		.byte	0x9c
 2293 019a BB010000 		.4byte	0x1bb
 2294 019e 0C       		.uleb128 0xc
 2295 019f 12000000 		.4byte	.LVL0
 2296 01a3 7E080000 		.4byte	0x87e
 2297 01a7 0D       		.uleb128 0xd
 2298 01a8 20000000 		.4byte	.LVL1
 2299 01ac 93080000 		.4byte	0x893
 2300 01b0 0E       		.uleb128 0xe
 2301 01b1 01       		.uleb128 0x1
 2302 01b2 51       		.byte	0x51
 2303 01b3 05       		.uleb128 0x5
 2304 01b4 03       		.byte	0x3
 2305 01b5 00000000 		.4byte	USB_midiInBuffer
 2306 01b9 00       		.byte	0
 2307 01ba 00       		.byte	0
 2308 01bb 0F       		.uleb128 0xf
 2309 01bc 84060000 		.4byte	.LASF38
 2310 01c0 01       		.byte	0x1
 2311 01c1 3902     		.2byte	0x239
 2312 01c3 00000000 		.4byte	.LFB5
 2313 01c7 F4010000 		.4byte	.LFE5-.LFB5
 2314 01cb 01       		.uleb128 0x1
 2315 01cc 9C       		.byte	0x9c
 2316 01cd 31020000 		.4byte	0x231
 2317 01d1 10       		.uleb128 0x10
 2318 01d2 696300   		.ascii	"ic\000"
 2319 01d5 01       		.byte	0x1
 2320 01d6 3902     		.2byte	0x239
 2321 01d8 6B000000 		.4byte	0x6b
 2322 01dc 00000000 		.4byte	.LLST0
 2323 01e0 11       		.uleb128 0x11
ARM GAS  C:\Users\jwvance\AppData\Local\Temp\ccxTgFRe.s 			page 72


 2324 01e1 9E010000 		.4byte	.LASF31
 2325 01e5 01       		.byte	0x1
 2326 01e6 3902     		.2byte	0x239
 2327 01e8 31020000 		.4byte	0x231
 2328 01ec 90000000 		.4byte	.LLST1
 2329 01f0 11       		.uleb128 0x11
 2330 01f1 7B040000 		.4byte	.LASF32
 2331 01f5 01       		.byte	0x1
 2332 01f6 3902     		.2byte	0x239
 2333 01f8 6B000000 		.4byte	0x6b
 2334 01fc 2E010000 		.4byte	.LLST2
 2335 0200 11       		.uleb128 0x11
 2336 0201 F4040000 		.4byte	.LASF33
 2337 0205 01       		.byte	0x1
 2338 0206 3902     		.2byte	0x239
 2339 0208 6B000000 		.4byte	0x6b
 2340 020c 17020000 		.4byte	.LLST3
 2341 0210 12       		.uleb128 0x12
 2342 0211 40060000 		.4byte	.LASF34
 2343 0215 01       		.byte	0x1
 2344 0216 3C02     		.2byte	0x23c
 2345 0218 6B000000 		.4byte	0x6b
 2346 021c 19030000 		.4byte	.LLST4
 2347 0220 12       		.uleb128 0x12
 2348 0221 47030000 		.4byte	.LASF35
 2349 0225 01       		.byte	0x1
 2350 0226 3D02     		.2byte	0x23d
 2351 0228 6B000000 		.4byte	0x6b
 2352 022c B3030000 		.4byte	.LLST5
 2353 0230 00       		.byte	0
 2354 0231 13       		.uleb128 0x13
 2355 0232 04       		.byte	0x4
 2356 0233 37020000 		.4byte	0x237
 2357 0237 14       		.uleb128 0x14
 2358 0238 6B000000 		.4byte	0x6b
 2359 023c 15       		.uleb128 0x15
 2360 023d 1B060000 		.4byte	.LASF41
 2361 0241 01       		.byte	0x1
 2362 0242 CB01     		.2byte	0x1cb
 2363 0244 6B000000 		.4byte	0x6b
 2364 0248 00000000 		.4byte	.LFB4
 2365 024c F0000000 		.4byte	.LFE4-.LFB4
 2366 0250 01       		.uleb128 0x1
 2367 0251 9C       		.byte	0x9c
 2368 0252 47030000 		.4byte	0x347
 2369 0256 10       		.uleb128 0x10
 2370 0257 696300   		.ascii	"ic\000"
 2371 025a 01       		.byte	0x1
 2372 025b CB01     		.2byte	0x1cb
 2373 025d 6B000000 		.4byte	0x6b
 2374 0261 09040000 		.4byte	.LLST6
 2375 0265 11       		.uleb128 0x11
 2376 0266 5B030000 		.4byte	.LASF36
 2377 026a 01       		.byte	0x1
 2378 026b CB01     		.2byte	0x1cb
 2379 026d 31020000 		.4byte	0x231
 2380 0271 59040000 		.4byte	.LLST7
ARM GAS  C:\Users\jwvance\AppData\Local\Temp\ccxTgFRe.s 			page 73


 2381 0275 11       		.uleb128 0x11
 2382 0276 F4040000 		.4byte	.LASF33
 2383 027a 01       		.byte	0x1
 2384 027b CB01     		.2byte	0x1cb
 2385 027d 6B000000 		.4byte	0x6b
 2386 0281 78040000 		.4byte	.LLST8
 2387 0285 12       		.uleb128 0x12
 2388 0286 BE040000 		.4byte	.LASF37
 2389 028a 01       		.byte	0x1
 2390 028b CE01     		.2byte	0x1ce
 2391 028d 6B000000 		.4byte	0x6b
 2392 0291 99040000 		.4byte	.LLST9
 2393 0295 16       		.uleb128 0x16
 2394 0296 7D050000 		.4byte	.LASF99
 2395 029a 01       		.byte	0x1
 2396 029b CF01     		.2byte	0x1cf
 2397 029d 6B000000 		.4byte	0x6b
 2398 02a1 0C       		.uleb128 0xc
 2399 02a2 14000000 		.4byte	.LVL58
 2400 02a6 AE080000 		.4byte	0x8ae
 2401 02aa 0C       		.uleb128 0xc
 2402 02ab 18000000 		.4byte	.LVL59
 2403 02af B5080000 		.4byte	0x8b5
 2404 02b3 17       		.uleb128 0x17
 2405 02b4 6C000000 		.4byte	.LVL62
 2406 02b8 BB010000 		.4byte	0x1bb
 2407 02bc D8020000 		.4byte	0x2d8
 2408 02c0 0E       		.uleb128 0xe
 2409 02c1 01       		.uleb128 0x1
 2410 02c2 53       		.byte	0x53
 2411 02c3 02       		.uleb128 0x2
 2412 02c4 78       		.byte	0x78
 2413 02c5 00       		.sleb128 0
 2414 02c6 0E       		.uleb128 0xe
 2415 02c7 01       		.uleb128 0x1
 2416 02c8 52       		.byte	0x52
 2417 02c9 01       		.uleb128 0x1
 2418 02ca 33       		.byte	0x33
 2419 02cb 0E       		.uleb128 0xe
 2420 02cc 01       		.uleb128 0x1
 2421 02cd 51       		.byte	0x51
 2422 02ce 02       		.uleb128 0x2
 2423 02cf 79       		.byte	0x79
 2424 02d0 00       		.sleb128 0
 2425 02d1 0E       		.uleb128 0xe
 2426 02d2 01       		.uleb128 0x1
 2427 02d3 50       		.byte	0x50
 2428 02d4 02       		.uleb128 0x2
 2429 02d5 09       		.byte	0x9
 2430 02d6 F0       		.byte	0xf0
 2431 02d7 00       		.byte	0
 2432 02d8 0C       		.uleb128 0xc
 2433 02d9 8E000000 		.4byte	.LVL65
 2434 02dd 82010000 		.4byte	0x182
 2435 02e1 0C       		.uleb128 0xc
 2436 02e2 B0000000 		.4byte	.LVL68
 2437 02e6 BC080000 		.4byte	0x8bc
ARM GAS  C:\Users\jwvance\AppData\Local\Temp\ccxTgFRe.s 			page 74


 2438 02ea 0C       		.uleb128 0xc
 2439 02eb B4000000 		.4byte	.LVL69
 2440 02ef C3080000 		.4byte	0x8c3
 2441 02f3 17       		.uleb128 0x17
 2442 02f4 C8000000 		.4byte	.LVL71
 2443 02f8 BB010000 		.4byte	0x1bb
 2444 02fc 1A030000 		.4byte	0x31a
 2445 0300 0E       		.uleb128 0xe
 2446 0301 01       		.uleb128 0x1
 2447 0302 53       		.byte	0x53
 2448 0303 02       		.uleb128 0x2
 2449 0304 78       		.byte	0x78
 2450 0305 00       		.sleb128 0
 2451 0306 0E       		.uleb128 0xe
 2452 0307 01       		.uleb128 0x1
 2453 0308 52       		.byte	0x52
 2454 0309 02       		.uleb128 0x2
 2455 030a 74       		.byte	0x74
 2456 030b 00       		.sleb128 0
 2457 030c 0E       		.uleb128 0xe
 2458 030d 01       		.uleb128 0x1
 2459 030e 51       		.byte	0x51
 2460 030f 03       		.uleb128 0x3
 2461 0310 91       		.byte	0x91
 2462 0311 54       		.sleb128 -44
 2463 0312 06       		.byte	0x6
 2464 0313 0E       		.uleb128 0xe
 2465 0314 01       		.uleb128 0x1
 2466 0315 50       		.byte	0x50
 2467 0316 02       		.uleb128 0x2
 2468 0317 09       		.byte	0x9
 2469 0318 F7       		.byte	0xf7
 2470 0319 00       		.byte	0
 2471 031a 0C       		.uleb128 0xc
 2472 031b D0000000 		.4byte	.LVL74
 2473 031f 82010000 		.4byte	0x182
 2474 0323 0D       		.uleb128 0xd
 2475 0324 DE000000 		.4byte	.LVL75
 2476 0328 BB010000 		.4byte	0x1bb
 2477 032c 0E       		.uleb128 0xe
 2478 032d 01       		.uleb128 0x1
 2479 032e 53       		.byte	0x53
 2480 032f 02       		.uleb128 0x2
 2481 0330 78       		.byte	0x78
 2482 0331 00       		.sleb128 0
 2483 0332 0E       		.uleb128 0xe
 2484 0333 01       		.uleb128 0x1
 2485 0334 52       		.byte	0x52
 2486 0335 02       		.uleb128 0x2
 2487 0336 74       		.byte	0x74
 2488 0337 00       		.sleb128 0
 2489 0338 0E       		.uleb128 0xe
 2490 0339 01       		.uleb128 0x1
 2491 033a 51       		.byte	0x51
 2492 033b 03       		.uleb128 0x3
 2493 033c 91       		.byte	0x91
 2494 033d 54       		.sleb128 -44
ARM GAS  C:\Users\jwvance\AppData\Local\Temp\ccxTgFRe.s 			page 75


 2495 033e 06       		.byte	0x6
 2496 033f 0E       		.uleb128 0xe
 2497 0340 01       		.uleb128 0x1
 2498 0341 50       		.byte	0x50
 2499 0342 02       		.uleb128 0x2
 2500 0343 74       		.byte	0x74
 2501 0344 00       		.sleb128 0
 2502 0345 00       		.byte	0
 2503 0346 00       		.byte	0
 2504 0347 0F       		.uleb128 0xf
 2505 0348 20020000 		.4byte	.LASF39
 2506 034c 01       		.byte	0x1
 2507 034d C002     		.2byte	0x2c0
 2508 034f 00000000 		.4byte	.LFB6
 2509 0353 5C000000 		.4byte	.LFE6-.LFB6
 2510 0357 01       		.uleb128 0x1
 2511 0358 9C       		.byte	0x9c
 2512 0359 CC030000 		.4byte	0x3cc
 2513 035d 0C       		.uleb128 0xc
 2514 035e 18000000 		.4byte	.LVL76
 2515 0362 CA080000 		.4byte	0x8ca
 2516 0366 17       		.uleb128 0x17
 2517 0367 20000000 		.4byte	.LVL77
 2518 036b D1080000 		.4byte	0x8d1
 2519 036f 7E030000 		.4byte	0x37e
 2520 0373 0E       		.uleb128 0xe
 2521 0374 01       		.uleb128 0x1
 2522 0375 51       		.byte	0x51
 2523 0376 01       		.uleb128 0x1
 2524 0377 34       		.byte	0x34
 2525 0378 0E       		.uleb128 0xe
 2526 0379 01       		.uleb128 0x1
 2527 037a 50       		.byte	0x50
 2528 037b 01       		.uleb128 0x1
 2529 037c 34       		.byte	0x34
 2530 037d 00       		.byte	0
 2531 037e 17       		.uleb128 0x17
 2532 037f 28000000 		.4byte	.LVL78
 2533 0383 D1080000 		.4byte	0x8d1
 2534 0387 96030000 		.4byte	0x396
 2535 038b 0E       		.uleb128 0xe
 2536 038c 01       		.uleb128 0x1
 2537 038d 51       		.byte	0x51
 2538 038e 01       		.uleb128 0x1
 2539 038f 32       		.byte	0x32
 2540 0390 0E       		.uleb128 0xe
 2541 0391 01       		.uleb128 0x1
 2542 0392 50       		.byte	0x50
 2543 0393 01       		.uleb128 0x1
 2544 0394 33       		.byte	0x33
 2545 0395 00       		.byte	0
 2546 0396 0C       		.uleb128 0xc
 2547 0397 3A000000 		.4byte	.LVL79
 2548 039b E7080000 		.4byte	0x8e7
 2549 039f 17       		.uleb128 0x17
 2550 03a0 42000000 		.4byte	.LVL80
 2551 03a4 D1080000 		.4byte	0x8d1
ARM GAS  C:\Users\jwvance\AppData\Local\Temp\ccxTgFRe.s 			page 76


 2552 03a8 B7030000 		.4byte	0x3b7
 2553 03ac 0E       		.uleb128 0xe
 2554 03ad 01       		.uleb128 0x1
 2555 03ae 51       		.byte	0x51
 2556 03af 01       		.uleb128 0x1
 2557 03b0 34       		.byte	0x34
 2558 03b1 0E       		.uleb128 0xe
 2559 03b2 01       		.uleb128 0x1
 2560 03b3 50       		.byte	0x50
 2561 03b4 01       		.uleb128 0x1
 2562 03b5 36       		.byte	0x36
 2563 03b6 00       		.byte	0
 2564 03b7 18       		.uleb128 0x18
 2565 03b8 4E000000 		.4byte	.LVL81
 2566 03bc D1080000 		.4byte	0x8d1
 2567 03c0 0E       		.uleb128 0xe
 2568 03c1 01       		.uleb128 0x1
 2569 03c2 51       		.byte	0x51
 2570 03c3 01       		.uleb128 0x1
 2571 03c4 32       		.byte	0x32
 2572 03c5 0E       		.uleb128 0xe
 2573 03c6 01       		.uleb128 0x1
 2574 03c7 50       		.byte	0x50
 2575 03c8 01       		.uleb128 0x1
 2576 03c9 35       		.byte	0x35
 2577 03ca 00       		.byte	0
 2578 03cb 00       		.byte	0
 2579 03cc 19       		.uleb128 0x19
 2580 03cd 73060000 		.4byte	.LASF40
 2581 03d1 01       		.byte	0x1
 2582 03d2 8A       		.byte	0x8a
 2583 03d3 00000000 		.4byte	.LFB0
 2584 03d7 20000000 		.4byte	.LFE0-.LFB0
 2585 03db 01       		.uleb128 0x1
 2586 03dc 9C       		.byte	0x9c
 2587 03dd F4030000 		.4byte	0x3f4
 2588 03e1 0C       		.uleb128 0xc
 2589 03e2 10000000 		.4byte	.LVL82
 2590 03e6 EE080000 		.4byte	0x8ee
 2591 03ea 1A       		.uleb128 0x1a
 2592 03eb 18000000 		.4byte	.LVL83
 2593 03ef 47030000 		.4byte	0x347
 2594 03f3 00       		.byte	0
 2595 03f4 15       		.uleb128 0x15
 2596 03f5 41020000 		.4byte	.LASF42
 2597 03f9 01       		.byte	0x1
 2598 03fa F602     		.2byte	0x2f6
 2599 03fc 6B000000 		.4byte	0x6b
 2600 0400 00000000 		.4byte	.LFB7
 2601 0404 58010000 		.4byte	.LFE7-.LFB7
 2602 0408 01       		.uleb128 0x1
 2603 0409 9C       		.byte	0x9c
 2604 040a 3D040000 		.4byte	0x43d
 2605 040e 11       		.uleb128 0x11
 2606 040f A1050000 		.4byte	.LASF43
 2607 0413 01       		.byte	0x1
 2608 0414 F602     		.2byte	0x2f6
ARM GAS  C:\Users\jwvance\AppData\Local\Temp\ccxTgFRe.s 			page 77


 2609 0416 6B000000 		.4byte	0x6b
 2610 041a C4040000 		.4byte	.LLST10
 2611 041e 1B       		.uleb128 0x1b
 2612 041f E2000000 		.4byte	.LASF44
 2613 0423 01       		.byte	0x1
 2614 0424 F602     		.2byte	0x2f6
 2615 0426 3D040000 		.4byte	0x43d
 2616 042a 01       		.uleb128 0x1
 2617 042b 51       		.byte	0x51
 2618 042c 12       		.uleb128 0x12
 2619 042d 2B050000 		.4byte	.LASF45
 2620 0431 01       		.byte	0x1
 2621 0432 F902     		.2byte	0x2f9
 2622 0434 6B000000 		.4byte	0x6b
 2623 0438 E5050000 		.4byte	.LLST11
 2624 043c 00       		.byte	0
 2625 043d 13       		.uleb128 0x13
 2626 043e 04       		.byte	0x4
 2627 043f 77010000 		.4byte	0x177
 2628 0443 15       		.uleb128 0x15
 2629 0444 E9010000 		.4byte	.LASF46
 2630 0448 01       		.byte	0x1
 2631 0449 9F03     		.2byte	0x39f
 2632 044b 6B000000 		.4byte	0x6b
 2633 044f 00000000 		.4byte	.LFB8
 2634 0453 8C000000 		.4byte	.LFE8-.LFB8
 2635 0457 01       		.uleb128 0x1
 2636 0458 9C       		.byte	0x9c
 2637 0459 A7040000 		.4byte	0x4a7
 2638 045d 12       		.uleb128 0x12
 2639 045e 37010000 		.4byte	.LASF47
 2640 0462 01       		.byte	0x1
 2641 0463 A103     		.2byte	0x3a1
 2642 0465 6B000000 		.4byte	0x6b
 2643 0469 86060000 		.4byte	.LLST12
 2644 046d 12       		.uleb128 0x12
 2645 046e 36050000 		.4byte	.LASF48
 2646 0472 01       		.byte	0x1
 2647 0473 A203     		.2byte	0x3a2
 2648 0475 6B000000 		.4byte	0x6b
 2649 0479 C7060000 		.4byte	.LLST13
 2650 047d 12       		.uleb128 0x12
 2651 047e D5000000 		.4byte	.LASF49
 2652 0482 01       		.byte	0x1
 2653 0483 A903     		.2byte	0x3a9
 2654 0485 6B000000 		.4byte	0x6b
 2655 0489 DA060000 		.4byte	.LLST14
 2656 048d 12       		.uleb128 0x12
 2657 048e 53020000 		.4byte	.LASF50
 2658 0492 01       		.byte	0x1
 2659 0493 AC03     		.2byte	0x3ac
 2660 0495 6B000000 		.4byte	0x6b
 2661 0499 F8060000 		.4byte	.LLST15
 2662 049d 0C       		.uleb128 0xc
 2663 049e 50000000 		.4byte	.LVL120
 2664 04a2 F4030000 		.4byte	0x3f4
 2665 04a6 00       		.byte	0
ARM GAS  C:\Users\jwvance\AppData\Local\Temp\ccxTgFRe.s 			page 78


 2666 04a7 0F       		.uleb128 0xf
 2667 04a8 70020000 		.4byte	.LASF51
 2668 04ac 01       		.byte	0x1
 2669 04ad 0E04     		.2byte	0x40e
 2670 04af 00000000 		.4byte	.LFB9
 2671 04b3 A8000000 		.4byte	.LFE9-.LFB9
 2672 04b7 01       		.uleb128 0x1
 2673 04b8 9C       		.byte	0x9c
 2674 04b9 05050000 		.4byte	0x505
 2675 04bd 11       		.uleb128 0x11
 2676 04be 3E010000 		.4byte	.LASF52
 2677 04c2 01       		.byte	0x1
 2678 04c3 0E04     		.2byte	0x40e
 2679 04c5 31020000 		.4byte	0x231
 2680 04c9 21070000 		.4byte	.LLST16
 2681 04cd 1C       		.uleb128 0x1c
 2682 04ce 636D6400 		.ascii	"cmd\000"
 2683 04d2 01       		.byte	0x1
 2684 04d3 1104     		.2byte	0x411
 2685 04d5 6B000000 		.4byte	0x6b
 2686 04d9 4A070000 		.4byte	.LLST17
 2687 04dd 1C       		.uleb128 0x1c
 2688 04de 6C656E00 		.ascii	"len\000"
 2689 04e2 01       		.byte	0x1
 2690 04e3 1204     		.2byte	0x412
 2691 04e5 6B000000 		.4byte	0x6b
 2692 04e9 EB070000 		.4byte	.LLST18
 2693 04ed 1C       		.uleb128 0x1c
 2694 04ee 6900     		.ascii	"i\000"
 2695 04f0 01       		.byte	0x1
 2696 04f1 1304     		.2byte	0x413
 2697 04f3 6B000000 		.4byte	0x6b
 2698 04f7 09080000 		.4byte	.LLST19
 2699 04fb 0C       		.uleb128 0xc
 2700 04fc 40000000 		.4byte	.LVL133
 2701 0500 FF080000 		.4byte	0x8ff
 2702 0504 00       		.byte	0
 2703 0505 15       		.uleb128 0x15
 2704 0506 FC010000 		.4byte	.LASF53
 2705 050a 01       		.byte	0x1
 2706 050b 7F04     		.2byte	0x47f
 2707 050d 6B000000 		.4byte	0x6b
 2708 0511 00000000 		.4byte	.LFB10
 2709 0515 8C000000 		.4byte	.LFE10-.LFB10
 2710 0519 01       		.uleb128 0x1
 2711 051a 9C       		.byte	0x9c
 2712 051b 69050000 		.4byte	0x569
 2713 051f 12       		.uleb128 0x12
 2714 0520 37010000 		.4byte	.LASF47
 2715 0524 01       		.byte	0x1
 2716 0525 8104     		.2byte	0x481
 2717 0527 6B000000 		.4byte	0x6b
 2718 052b 4B080000 		.4byte	.LLST20
 2719 052f 12       		.uleb128 0x12
 2720 0530 36050000 		.4byte	.LASF48
 2721 0534 01       		.byte	0x1
 2722 0535 8204     		.2byte	0x482
ARM GAS  C:\Users\jwvance\AppData\Local\Temp\ccxTgFRe.s 			page 79


 2723 0537 6B000000 		.4byte	0x6b
 2724 053b 8C080000 		.4byte	.LLST21
 2725 053f 12       		.uleb128 0x12
 2726 0540 D5000000 		.4byte	.LASF49
 2727 0544 01       		.byte	0x1
 2728 0545 8904     		.2byte	0x489
 2729 0547 6B000000 		.4byte	0x6b
 2730 054b 9F080000 		.4byte	.LLST22
 2731 054f 12       		.uleb128 0x12
 2732 0550 53020000 		.4byte	.LASF50
 2733 0554 01       		.byte	0x1
 2734 0555 8C04     		.2byte	0x48c
 2735 0557 6B000000 		.4byte	0x6b
 2736 055b BD080000 		.4byte	.LLST23
 2737 055f 0C       		.uleb128 0xc
 2738 0560 50000000 		.4byte	.LVL152
 2739 0564 F4030000 		.4byte	0x3f4
 2740 0568 00       		.byte	0
 2741 0569 0F       		.uleb128 0xf
 2742 056a 6A030000 		.4byte	.LASF54
 2743 056e 01       		.byte	0x1
 2744 056f 7601     		.2byte	0x176
 2745 0571 00000000 		.4byte	.LFB3
 2746 0575 68000000 		.4byte	.LFE3-.LFB3
 2747 0579 01       		.uleb128 0x1
 2748 057a 9C       		.byte	0x9c
 2749 057b F9050000 		.4byte	0x5f9
 2750 057f 1C       		.uleb128 0x1c
 2751 0580 6D3100   		.ascii	"m1\000"
 2752 0583 01       		.byte	0x1
 2753 0584 7C01     		.2byte	0x17c
 2754 0586 6B000000 		.4byte	0x6b
 2755 058a E6080000 		.4byte	.LLST24
 2756 058e 1C       		.uleb128 0x1c
 2757 058f 6D3200   		.ascii	"m2\000"
 2758 0592 01       		.byte	0x1
 2759 0593 7D01     		.2byte	0x17d
 2760 0595 6B000000 		.4byte	0x6b
 2761 0599 1B090000 		.4byte	.LLST25
 2762 059d 1A       		.uleb128 0x1a
 2763 059e 2C000000 		.4byte	.LVL162
 2764 05a2 82010000 		.4byte	0x182
 2765 05a6 0C       		.uleb128 0xc
 2766 05a7 30000000 		.4byte	.LVL163
 2767 05ab 05050000 		.4byte	0x505
 2768 05af 17       		.uleb128 0x17
 2769 05b0 40000000 		.4byte	.LVL164
 2770 05b4 BB010000 		.4byte	0x1bb
 2771 05b8 D1050000 		.4byte	0x5d1
 2772 05bc 0E       		.uleb128 0xe
 2773 05bd 01       		.uleb128 0x1
 2774 05be 53       		.byte	0x53
 2775 05bf 01       		.uleb128 0x1
 2776 05c0 40       		.byte	0x40
 2777 05c1 0E       		.uleb128 0xe
 2778 05c2 01       		.uleb128 0x1
 2779 05c3 51       		.byte	0x51
ARM GAS  C:\Users\jwvance\AppData\Local\Temp\ccxTgFRe.s 			page 80


 2780 05c4 05       		.uleb128 0x5
 2781 05c5 03       		.byte	0x3
 2782 05c6 10000000 		.4byte	.LANCHOR0+16
 2783 05ca 0E       		.uleb128 0xe
 2784 05cb 01       		.uleb128 0x1
 2785 05cc 50       		.byte	0x50
 2786 05cd 02       		.uleb128 0x2
 2787 05ce 76       		.byte	0x76
 2788 05cf 00       		.sleb128 0
 2789 05d0 00       		.byte	0
 2790 05d1 0C       		.uleb128 0xc
 2791 05d2 46000000 		.4byte	.LVL166
 2792 05d6 43040000 		.4byte	0x443
 2793 05da 0D       		.uleb128 0xd
 2794 05db 56000000 		.4byte	.LVL167
 2795 05df BB010000 		.4byte	0x1bb
 2796 05e3 0E       		.uleb128 0xe
 2797 05e4 01       		.uleb128 0x1
 2798 05e5 53       		.byte	0x53
 2799 05e6 01       		.uleb128 0x1
 2800 05e7 30       		.byte	0x30
 2801 05e8 0E       		.uleb128 0xe
 2802 05e9 01       		.uleb128 0x1
 2803 05ea 51       		.byte	0x51
 2804 05eb 05       		.uleb128 0x5
 2805 05ec 03       		.byte	0x3
 2806 05ed 04000000 		.4byte	.LANCHOR0+4
 2807 05f1 0E       		.uleb128 0xe
 2808 05f2 01       		.uleb128 0x1
 2809 05f3 50       		.byte	0x50
 2810 05f4 02       		.uleb128 0x2
 2811 05f5 75       		.byte	0x75
 2812 05f6 00       		.sleb128 0
 2813 05f7 00       		.byte	0
 2814 05f8 00       		.byte	0
 2815 05f9 0F       		.uleb128 0xf
 2816 05fa 5B060000 		.4byte	.LASF55
 2817 05fe 01       		.byte	0x1
 2818 05ff ED04     		.2byte	0x4ed
 2819 0601 00000000 		.4byte	.LFB11
 2820 0605 A8000000 		.4byte	.LFE11-.LFB11
 2821 0609 01       		.uleb128 0x1
 2822 060a 9C       		.byte	0x9c
 2823 060b 57060000 		.4byte	0x657
 2824 060f 11       		.uleb128 0x11
 2825 0610 3E010000 		.4byte	.LASF52
 2826 0614 01       		.byte	0x1
 2827 0615 ED04     		.2byte	0x4ed
 2828 0617 31020000 		.4byte	0x231
 2829 061b 5B090000 		.4byte	.LLST26
 2830 061f 1C       		.uleb128 0x1c
 2831 0620 636D6400 		.ascii	"cmd\000"
 2832 0624 01       		.byte	0x1
 2833 0625 F004     		.2byte	0x4f0
 2834 0627 6B000000 		.4byte	0x6b
 2835 062b 84090000 		.4byte	.LLST27
 2836 062f 1C       		.uleb128 0x1c
ARM GAS  C:\Users\jwvance\AppData\Local\Temp\ccxTgFRe.s 			page 81


 2837 0630 6C656E00 		.ascii	"len\000"
 2838 0634 01       		.byte	0x1
 2839 0635 F104     		.2byte	0x4f1
 2840 0637 6B000000 		.4byte	0x6b
 2841 063b 250A0000 		.4byte	.LLST28
 2842 063f 1C       		.uleb128 0x1c
 2843 0640 6900     		.ascii	"i\000"
 2844 0642 01       		.byte	0x1
 2845 0643 F204     		.2byte	0x4f2
 2846 0645 6B000000 		.4byte	0x6b
 2847 0649 430A0000 		.4byte	.LLST29
 2848 064d 0C       		.uleb128 0xc
 2849 064e 40000000 		.4byte	.LVL176
 2850 0652 10090000 		.4byte	0x910
 2851 0656 00       		.byte	0
 2852 0657 19       		.uleb128 0x19
 2853 0658 08050000 		.4byte	.LASF56
 2854 065c 01       		.byte	0x1
 2855 065d C7       		.byte	0xc7
 2856 065e 00000000 		.4byte	.LFB1
 2857 0662 74000000 		.4byte	.LFE1-.LFB1
 2858 0666 01       		.uleb128 0x1
 2859 0667 9C       		.byte	0x9c
 2860 0668 F3060000 		.4byte	0x6f3
 2861 066c 1D       		.uleb128 0x1d
 2862 066d 00060000 		.4byte	.LASF57
 2863 0671 01       		.byte	0x1
 2864 0672 CD       		.byte	0xcd
 2865 0673 6B000000 		.4byte	0x6b
 2866 0677 850A0000 		.4byte	.LLST30
 2867 067b 1D       		.uleb128 0x1d
 2868 067c 20050000 		.4byte	.LASF58
 2869 0680 01       		.byte	0x1
 2870 0681 CE       		.byte	0xce
 2871 0682 6B000000 		.4byte	0x6b
 2872 0686 AE0A0000 		.4byte	.LLST31
 2873 068a 1E       		.uleb128 0x1e
 2874 068b 12060000 		.4byte	.LASF59
 2875 068f 01       		.byte	0x1
 2876 0690 D1       		.byte	0xd1
 2877 0691 6B000000 		.4byte	0x6b
 2878 0695 00       		.byte	0
 2879 0696 0C       		.uleb128 0xc
 2880 0697 0A000000 		.4byte	.LVL189
 2881 069b 7E080000 		.4byte	0x87e
 2882 069f 0C       		.uleb128 0xc
 2883 06a0 16000000 		.4byte	.LVL190
 2884 06a4 21090000 		.4byte	0x921
 2885 06a8 17       		.uleb128 0x17
 2886 06a9 22000000 		.4byte	.LVL192
 2887 06ad 36090000 		.4byte	0x936
 2888 06b1 BF060000 		.4byte	0x6bf
 2889 06b5 0E       		.uleb128 0xe
 2890 06b6 01       		.uleb128 0x1
 2891 06b7 51       		.byte	0x51
 2892 06b8 05       		.uleb128 0x5
 2893 06b9 03       		.byte	0x3
ARM GAS  C:\Users\jwvance\AppData\Local\Temp\ccxTgFRe.s 			page 82


 2894 06ba 00000000 		.4byte	USB_midiOutBuffer
 2895 06be 00       		.byte	0
 2896 06bf 0C       		.uleb128 0xc
 2897 06c0 40000000 		.4byte	.LVL196
 2898 06c4 5B090000 		.4byte	0x95b
 2899 06c8 17       		.uleb128 0x17
 2900 06c9 56000000 		.4byte	.LVL198
 2901 06cd A7040000 		.4byte	0x4a7
 2902 06d1 DF060000 		.4byte	0x6df
 2903 06d5 0E       		.uleb128 0xe
 2904 06d6 01       		.uleb128 0x1
 2905 06d7 50       		.byte	0x50
 2906 06d8 05       		.uleb128 0x5
 2907 06d9 75       		.byte	0x75
 2908 06da 00       		.sleb128 0
 2909 06db 74       		.byte	0x74
 2910 06dc 00       		.sleb128 0
 2911 06dd 22       		.byte	0x22
 2912 06de 00       		.byte	0
 2913 06df 0D       		.uleb128 0xd
 2914 06e0 64000000 		.4byte	.LVL199
 2915 06e4 F9050000 		.4byte	0x5f9
 2916 06e8 0E       		.uleb128 0xe
 2917 06e9 01       		.uleb128 0x1
 2918 06ea 50       		.byte	0x50
 2919 06eb 05       		.uleb128 0x5
 2920 06ec 75       		.byte	0x75
 2921 06ed 00       		.sleb128 0
 2922 06ee 74       		.byte	0x74
 2923 06ef 00       		.sleb128 0
 2924 06f0 22       		.byte	0x22
 2925 06f1 00       		.byte	0
 2926 06f2 00       		.byte	0
 2927 06f3 08       		.uleb128 0x8
 2928 06f4 6B000000 		.4byte	0x6b
 2929 06f8 03070000 		.4byte	0x703
 2930 06fc 09       		.uleb128 0x9
 2931 06fd 9B000000 		.4byte	0x9b
 2932 0701 0F       		.byte	0xf
 2933 0702 00       		.byte	0
 2934 0703 1F       		.uleb128 0x1f
 2935 0704 44010000 		.4byte	.LASF60
 2936 0708 01       		.byte	0x1
 2937 0709 23       		.byte	0x23
 2938 070a 14070000 		.4byte	0x714
 2939 070e 05       		.uleb128 0x5
 2940 070f 03       		.byte	0x3
 2941 0710 00000000 		.4byte	USB_MIDI_SIZE
 2942 0714 14       		.uleb128 0x14
 2943 0715 F3060000 		.4byte	0x6f3
 2944 0719 1F       		.uleb128 0x1f
 2945 071a 24040000 		.4byte	.LASF61
 2946 071e 01       		.byte	0x1
 2947 071f 4E       		.byte	0x4e
 2948 0720 77010000 		.4byte	0x177
 2949 0724 05       		.uleb128 0x5
 2950 0725 03       		.byte	0x3
ARM GAS  C:\Users\jwvance\AppData\Local\Temp\ccxTgFRe.s 			page 83


 2951 0726 00000000 		.4byte	USB_MIDI1_Event
 2952 072a 1F       		.uleb128 0x1f
 2953 072b 29030000 		.4byte	.LASF62
 2954 072f 01       		.byte	0x1
 2955 0730 4F       		.byte	0x4f
 2956 0731 96000000 		.4byte	0x96
 2957 0735 05       		.uleb128 0x5
 2958 0736 03       		.byte	0x3
 2959 0737 08000000 		.4byte	USB_MIDI1_TxRunStat
 2960 073b 1F       		.uleb128 0x1f
 2961 073c 71000000 		.4byte	.LASF63
 2962 0740 01       		.byte	0x1
 2963 0741 53       		.byte	0x53
 2964 0742 77010000 		.4byte	0x177
 2965 0746 05       		.uleb128 0x5
 2966 0747 03       		.byte	0x3
 2967 0748 0C000000 		.4byte	USB_MIDI2_Event
 2968 074c 1F       		.uleb128 0x1f
 2969 074d 2C060000 		.4byte	.LASF64
 2970 0751 01       		.byte	0x1
 2971 0752 54       		.byte	0x54
 2972 0753 96000000 		.4byte	0x96
 2973 0757 05       		.uleb128 0x5
 2974 0758 03       		.byte	0x3
 2975 0759 14000000 		.4byte	USB_MIDI2_TxRunStat
 2976 075d 08       		.uleb128 0x8
 2977 075e 6B000000 		.4byte	0x6b
 2978 0762 6D070000 		.4byte	0x76d
 2979 0766 09       		.uleb128 0x9
 2980 0767 9B000000 		.4byte	0x9b
 2981 076b FE       		.byte	0xfe
 2982 076c 00       		.byte	0
 2983 076d 20       		.uleb128 0x20
 2984 076e E9000000 		.4byte	.LASF65
 2985 0772 05       		.byte	0x5
 2986 0773 5201     		.2byte	0x152
 2987 0775 79070000 		.4byte	0x779
 2988 0779 05       		.uleb128 0x5
 2989 077a 5D070000 		.4byte	0x75d
 2990 077e 20       		.uleb128 0x20
 2991 077f 68010000 		.4byte	.LASF66
 2992 0783 05       		.byte	0x5
 2993 0784 5301     		.2byte	0x153
 2994 0786 96000000 		.4byte	0x96
 2995 078a 20       		.uleb128 0x20
 2996 078b A6010000 		.4byte	.LASF67
 2997 078f 05       		.byte	0x5
 2998 0790 5401     		.2byte	0x154
 2999 0792 96000000 		.4byte	0x96
 3000 0796 20       		.uleb128 0x20
 3001 0797 00000000 		.4byte	.LASF68
 3002 079b 05       		.byte	0x5
 3003 079c 5501     		.2byte	0x155
 3004 079e 96000000 		.4byte	0x96
 3005 07a2 20       		.uleb128 0x20
 3006 07a3 E0040000 		.4byte	.LASF69
 3007 07a7 06       		.byte	0x6
ARM GAS  C:\Users\jwvance\AppData\Local\Temp\ccxTgFRe.s 			page 84


 3008 07a8 5201     		.2byte	0x152
 3009 07aa AE070000 		.4byte	0x7ae
 3010 07ae 05       		.uleb128 0x5
 3011 07af 5D070000 		.4byte	0x75d
 3012 07b3 20       		.uleb128 0x20
 3013 07b4 7E030000 		.4byte	.LASF70
 3014 07b8 06       		.byte	0x6
 3015 07b9 5301     		.2byte	0x153
 3016 07bb 96000000 		.4byte	0x96
 3017 07bf 20       		.uleb128 0x20
 3018 07c0 C7040000 		.4byte	.LASF71
 3019 07c4 06       		.byte	0x6
 3020 07c5 5401     		.2byte	0x154
 3021 07c7 96000000 		.4byte	0x96
 3022 07cb 20       		.uleb128 0x20
 3023 07cc 9E030000 		.4byte	.LASF72
 3024 07d0 06       		.byte	0x6
 3025 07d1 5501     		.2byte	0x155
 3026 07d3 96000000 		.4byte	0x96
 3027 07d7 21       		.uleb128 0x21
 3028 07d8 69040000 		.4byte	.LASF73
 3029 07dc 01       		.byte	0x1
 3030 07dd 42       		.byte	0x42
 3031 07de 96000000 		.4byte	0x96
 3032 07e2 05       		.uleb128 0x5
 3033 07e3 03       		.byte	0x3
 3034 07e4 00000000 		.4byte	USB_midiInPointer
 3035 07e8 21       		.uleb128 0x21
 3036 07e9 59010000 		.4byte	.LASF74
 3037 07ed 01       		.byte	0x1
 3038 07ee 44       		.byte	0x44
 3039 07ef 96000000 		.4byte	0x96
 3040 07f3 05       		.uleb128 0x5
 3041 07f4 03       		.byte	0x3
 3042 07f5 00000000 		.4byte	USB_midi_in_ep
 3043 07f9 08       		.uleb128 0x8
 3044 07fa 6B000000 		.4byte	0x6b
 3045 07fe 09080000 		.4byte	0x809
 3046 0802 09       		.uleb128 0x9
 3047 0803 9B000000 		.4byte	0x9b
 3048 0807 1F       		.byte	0x1f
 3049 0808 00       		.byte	0
 3050 0809 21       		.uleb128 0x21
 3051 080a 80010000 		.4byte	.LASF75
 3052 080e 01       		.byte	0x1
 3053 080f 45       		.byte	0x45
 3054 0810 F9070000 		.4byte	0x7f9
 3055 0814 05       		.uleb128 0x5
 3056 0815 03       		.byte	0x3
 3057 0816 00000000 		.4byte	USB_midiInBuffer
 3058 081a 21       		.uleb128 0x21
 3059 081b 91050000 		.4byte	.LASF76
 3060 081f 01       		.byte	0x1
 3061 0820 49       		.byte	0x49
 3062 0821 96000000 		.4byte	0x96
 3063 0825 05       		.uleb128 0x5
 3064 0826 03       		.byte	0x3
ARM GAS  C:\Users\jwvance\AppData\Local\Temp\ccxTgFRe.s 			page 85


 3065 0827 00000000 		.4byte	USB_midi_out_ep
 3066 082b 21       		.uleb128 0x21
 3067 082c 43000000 		.4byte	.LASF77
 3068 0830 01       		.byte	0x1
 3069 0831 4A       		.byte	0x4a
 3070 0832 F9070000 		.4byte	0x7f9
 3071 0836 05       		.uleb128 0x5
 3072 0837 03       		.byte	0x3
 3073 0838 00000000 		.4byte	USB_midiOutBuffer
 3074 083c 21       		.uleb128 0x21
 3075 083d F8030000 		.4byte	.LASF78
 3076 0841 01       		.byte	0x1
 3077 0842 50       		.byte	0x50
 3078 0843 96000000 		.4byte	0x96
 3079 0847 05       		.uleb128 0x5
 3080 0848 03       		.byte	0x3
 3081 0849 00000000 		.4byte	USB_MIDI1_InqFlags
 3082 084d 21       		.uleb128 0x21
 3083 084e 0B040000 		.4byte	.LASF79
 3084 0852 01       		.byte	0x1
 3085 0853 55       		.byte	0x55
 3086 0854 96000000 		.4byte	0x96
 3087 0858 05       		.uleb128 0x5
 3088 0859 03       		.byte	0x3
 3089 085a 00000000 		.4byte	USB_MIDI2_InqFlags
 3090 085e 08       		.uleb128 0x8
 3091 085f 17010000 		.4byte	0x117
 3092 0863 6E080000 		.4byte	0x86e
 3093 0867 09       		.uleb128 0x9
 3094 0868 9B000000 		.4byte	0x9b
 3095 086c 08       		.byte	0x8
 3096 086d 00       		.byte	0
 3097 086e 22       		.uleb128 0x22
 3098 086f E0030000 		.4byte	.LASF80
 3099 0873 07       		.byte	0x7
 3100 0874 34       		.byte	0x34
 3101 0875 79080000 		.4byte	0x879
 3102 0879 05       		.uleb128 0x5
 3103 087a 5E080000 		.4byte	0x85e
 3104 087e 23       		.uleb128 0x23
 3105 087f A7050000 		.4byte	.LASF93
 3106 0883 03       		.byte	0x3
 3107 0884 CC       		.byte	0xcc
 3108 0885 6B000000 		.4byte	0x6b
 3109 0889 93080000 		.4byte	0x893
 3110 088d 24       		.uleb128 0x24
 3111 088e 6B000000 		.4byte	0x6b
 3112 0892 00       		.byte	0
 3113 0893 25       		.uleb128 0x25
 3114 0894 BC030000 		.4byte	.LASF87
 3115 0898 03       		.byte	0x3
 3116 0899 CE       		.byte	0xce
 3117 089a AE080000 		.4byte	0x8ae
 3118 089e 24       		.uleb128 0x24
 3119 089f 6B000000 		.4byte	0x6b
 3120 08a3 24       		.uleb128 0x24
 3121 08a4 31020000 		.4byte	0x231
ARM GAS  C:\Users\jwvance\AppData\Local\Temp\ccxTgFRe.s 			page 86


 3122 08a8 24       		.uleb128 0x24
 3123 08a9 76000000 		.4byte	0x76
 3124 08ad 00       		.byte	0
 3125 08ae 26       		.uleb128 0x26
 3126 08af 65050000 		.4byte	.LASF82
 3127 08b3 05       		.byte	0x5
 3128 08b4 7C       		.byte	0x7c
 3129 08b5 26       		.uleb128 0x26
 3130 08b6 2B000000 		.4byte	.LASF83
 3131 08ba 06       		.byte	0x6
 3132 08bb 7C       		.byte	0x7c
 3133 08bc 26       		.uleb128 0x26
 3134 08bd C9030000 		.4byte	.LASF84
 3135 08c1 05       		.byte	0x5
 3136 08c2 7B       		.byte	0x7b
 3137 08c3 26       		.uleb128 0x26
 3138 08c4 94000000 		.4byte	.LASF85
 3139 08c8 06       		.byte	0x6
 3140 08c9 7B       		.byte	0x7b
 3141 08ca 26       		.uleb128 0x26
 3142 08cb 0F020000 		.4byte	.LASF86
 3143 08cf 05       		.byte	0x5
 3144 08d0 6B       		.byte	0x6b
 3145 08d1 25       		.uleb128 0x25
 3146 08d2 E7030000 		.4byte	.LASF88
 3147 08d6 08       		.byte	0x8
 3148 08d7 8C       		.byte	0x8c
 3149 08d8 E7080000 		.4byte	0x8e7
 3150 08dc 24       		.uleb128 0x24
 3151 08dd 6B000000 		.4byte	0x6b
 3152 08e1 24       		.uleb128 0x24
 3153 08e2 6B000000 		.4byte	0x6b
 3154 08e6 00       		.byte	0
 3155 08e7 26       		.uleb128 0x26
 3156 08e8 54050000 		.4byte	.LASF89
 3157 08ec 06       		.byte	0x6
 3158 08ed 6B       		.byte	0x6b
 3159 08ee 25       		.uleb128 0x25
 3160 08ef C5000000 		.4byte	.LASF90
 3161 08f3 03       		.byte	0x3
 3162 08f4 D2       		.byte	0xd2
 3163 08f5 FF080000 		.4byte	0x8ff
 3164 08f9 24       		.uleb128 0x24
 3165 08fa 6B000000 		.4byte	0x6b
 3166 08fe 00       		.byte	0
 3167 08ff 25       		.uleb128 0x25
 3168 0900 56040000 		.4byte	.LASF91
 3169 0904 05       		.byte	0x5
 3170 0905 9F       		.byte	0x9f
 3171 0906 10090000 		.4byte	0x910
 3172 090a 24       		.uleb128 0x24
 3173 090b 6B000000 		.4byte	0x6b
 3174 090f 00       		.byte	0
 3175 0910 25       		.uleb128 0x25
 3176 0911 88020000 		.4byte	.LASF92
 3177 0915 06       		.byte	0x6
 3178 0916 9F       		.byte	0x9f
ARM GAS  C:\Users\jwvance\AppData\Local\Temp\ccxTgFRe.s 			page 87


 3179 0917 21090000 		.4byte	0x921
 3180 091b 24       		.uleb128 0x24
 3181 091c 6B000000 		.4byte	0x6b
 3182 0920 00       		.byte	0
 3183 0921 23       		.uleb128 0x23
 3184 0922 4C060000 		.4byte	.LASF94
 3185 0926 03       		.byte	0x3
 3186 0927 CD       		.byte	0xcd
 3187 0928 76000000 		.4byte	0x76
 3188 092c 36090000 		.4byte	0x936
 3189 0930 24       		.uleb128 0x24
 3190 0931 6B000000 		.4byte	0x6b
 3191 0935 00       		.byte	0
 3192 0936 23       		.uleb128 0x23
 3193 0937 FA040000 		.4byte	.LASF95
 3194 093b 03       		.byte	0x3
 3195 093c D0       		.byte	0xd0
 3196 093d 76000000 		.4byte	0x76
 3197 0941 55090000 		.4byte	0x955
 3198 0945 24       		.uleb128 0x24
 3199 0946 6B000000 		.4byte	0x6b
 3200 094a 24       		.uleb128 0x24
 3201 094b 55090000 		.4byte	0x955
 3202 094f 24       		.uleb128 0x24
 3203 0950 76000000 		.4byte	0x76
 3204 0954 00       		.byte	0
 3205 0955 13       		.uleb128 0x13
 3206 0956 04       		.byte	0x4
 3207 0957 6B000000 		.4byte	0x6b
 3208 095b 27       		.uleb128 0x27
 3209 095c FD000000 		.4byte	.LASF100
 3210 0960 04       		.byte	0x4
 3211 0961 82       		.byte	0x82
 3212 0962 24       		.uleb128 0x24
 3213 0963 6B000000 		.4byte	0x6b
 3214 0967 24       		.uleb128 0x24
 3215 0968 55090000 		.4byte	0x955
 3216 096c 00       		.byte	0
 3217 096d 00       		.byte	0
 3218              		.section	.debug_abbrev,"",%progbits
 3219              	.Ldebug_abbrev0:
 3220 0000 01       		.uleb128 0x1
 3221 0001 11       		.uleb128 0x11
 3222 0002 01       		.byte	0x1
 3223 0003 25       		.uleb128 0x25
 3224 0004 0E       		.uleb128 0xe
 3225 0005 13       		.uleb128 0x13
 3226 0006 0B       		.uleb128 0xb
 3227 0007 03       		.uleb128 0x3
 3228 0008 0E       		.uleb128 0xe
 3229 0009 1B       		.uleb128 0x1b
 3230 000a 0E       		.uleb128 0xe
 3231 000b 55       		.uleb128 0x55
 3232 000c 17       		.uleb128 0x17
 3233 000d 11       		.uleb128 0x11
 3234 000e 01       		.uleb128 0x1
 3235 000f 10       		.uleb128 0x10
ARM GAS  C:\Users\jwvance\AppData\Local\Temp\ccxTgFRe.s 			page 88


 3236 0010 17       		.uleb128 0x17
 3237 0011 00       		.byte	0
 3238 0012 00       		.byte	0
 3239 0013 02       		.uleb128 0x2
 3240 0014 24       		.uleb128 0x24
 3241 0015 00       		.byte	0
 3242 0016 0B       		.uleb128 0xb
 3243 0017 0B       		.uleb128 0xb
 3244 0018 3E       		.uleb128 0x3e
 3245 0019 0B       		.uleb128 0xb
 3246 001a 03       		.uleb128 0x3
 3247 001b 0E       		.uleb128 0xe
 3248 001c 00       		.byte	0
 3249 001d 00       		.byte	0
 3250 001e 03       		.uleb128 0x3
 3251 001f 24       		.uleb128 0x24
 3252 0020 00       		.byte	0
 3253 0021 0B       		.uleb128 0xb
 3254 0022 0B       		.uleb128 0xb
 3255 0023 3E       		.uleb128 0x3e
 3256 0024 0B       		.uleb128 0xb
 3257 0025 03       		.uleb128 0x3
 3258 0026 08       		.uleb128 0x8
 3259 0027 00       		.byte	0
 3260 0028 00       		.byte	0
 3261 0029 04       		.uleb128 0x4
 3262 002a 16       		.uleb128 0x16
 3263 002b 00       		.byte	0
 3264 002c 03       		.uleb128 0x3
 3265 002d 0E       		.uleb128 0xe
 3266 002e 3A       		.uleb128 0x3a
 3267 002f 0B       		.uleb128 0xb
 3268 0030 3B       		.uleb128 0x3b
 3269 0031 0B       		.uleb128 0xb
 3270 0032 49       		.uleb128 0x49
 3271 0033 13       		.uleb128 0x13
 3272 0034 00       		.byte	0
 3273 0035 00       		.byte	0
 3274 0036 05       		.uleb128 0x5
 3275 0037 35       		.uleb128 0x35
 3276 0038 00       		.byte	0
 3277 0039 49       		.uleb128 0x49
 3278 003a 13       		.uleb128 0x13
 3279 003b 00       		.byte	0
 3280 003c 00       		.byte	0
 3281 003d 06       		.uleb128 0x6
 3282 003e 13       		.uleb128 0x13
 3283 003f 01       		.byte	0x1
 3284 0040 0B       		.uleb128 0xb
 3285 0041 0B       		.uleb128 0xb
 3286 0042 3A       		.uleb128 0x3a
 3287 0043 0B       		.uleb128 0xb
 3288 0044 3B       		.uleb128 0x3b
 3289 0045 0B       		.uleb128 0xb
 3290 0046 01       		.uleb128 0x1
 3291 0047 13       		.uleb128 0x13
 3292 0048 00       		.byte	0
ARM GAS  C:\Users\jwvance\AppData\Local\Temp\ccxTgFRe.s 			page 89


 3293 0049 00       		.byte	0
 3294 004a 07       		.uleb128 0x7
 3295 004b 0D       		.uleb128 0xd
 3296 004c 00       		.byte	0
 3297 004d 03       		.uleb128 0x3
 3298 004e 0E       		.uleb128 0xe
 3299 004f 3A       		.uleb128 0x3a
 3300 0050 0B       		.uleb128 0xb
 3301 0051 3B       		.uleb128 0x3b
 3302 0052 0B       		.uleb128 0xb
 3303 0053 49       		.uleb128 0x49
 3304 0054 13       		.uleb128 0x13
 3305 0055 38       		.uleb128 0x38
 3306 0056 0B       		.uleb128 0xb
 3307 0057 00       		.byte	0
 3308 0058 00       		.byte	0
 3309 0059 08       		.uleb128 0x8
 3310 005a 01       		.uleb128 0x1
 3311 005b 01       		.byte	0x1
 3312 005c 49       		.uleb128 0x49
 3313 005d 13       		.uleb128 0x13
 3314 005e 01       		.uleb128 0x1
 3315 005f 13       		.uleb128 0x13
 3316 0060 00       		.byte	0
 3317 0061 00       		.byte	0
 3318 0062 09       		.uleb128 0x9
 3319 0063 21       		.uleb128 0x21
 3320 0064 00       		.byte	0
 3321 0065 49       		.uleb128 0x49
 3322 0066 13       		.uleb128 0x13
 3323 0067 2F       		.uleb128 0x2f
 3324 0068 0B       		.uleb128 0xb
 3325 0069 00       		.byte	0
 3326 006a 00       		.byte	0
 3327 006b 0A       		.uleb128 0xa
 3328 006c 2E       		.uleb128 0x2e
 3329 006d 00       		.byte	0
 3330 006e 3F       		.uleb128 0x3f
 3331 006f 19       		.uleb128 0x19
 3332 0070 03       		.uleb128 0x3
 3333 0071 0E       		.uleb128 0xe
 3334 0072 3A       		.uleb128 0x3a
 3335 0073 0B       		.uleb128 0xb
 3336 0074 3B       		.uleb128 0x3b
 3337 0075 05       		.uleb128 0x5
 3338 0076 27       		.uleb128 0x27
 3339 0077 19       		.uleb128 0x19
 3340 0078 20       		.uleb128 0x20
 3341 0079 0B       		.uleb128 0xb
 3342 007a 00       		.byte	0
 3343 007b 00       		.byte	0
 3344 007c 0B       		.uleb128 0xb
 3345 007d 2E       		.uleb128 0x2e
 3346 007e 01       		.byte	0x1
 3347 007f 31       		.uleb128 0x31
 3348 0080 13       		.uleb128 0x13
 3349 0081 11       		.uleb128 0x11
ARM GAS  C:\Users\jwvance\AppData\Local\Temp\ccxTgFRe.s 			page 90


 3350 0082 01       		.uleb128 0x1
 3351 0083 12       		.uleb128 0x12
 3352 0084 06       		.uleb128 0x6
 3353 0085 40       		.uleb128 0x40
 3354 0086 18       		.uleb128 0x18
 3355 0087 9742     		.uleb128 0x2117
 3356 0089 19       		.uleb128 0x19
 3357 008a 01       		.uleb128 0x1
 3358 008b 13       		.uleb128 0x13
 3359 008c 00       		.byte	0
 3360 008d 00       		.byte	0
 3361 008e 0C       		.uleb128 0xc
 3362 008f 898201   		.uleb128 0x4109
 3363 0092 00       		.byte	0
 3364 0093 11       		.uleb128 0x11
 3365 0094 01       		.uleb128 0x1
 3366 0095 31       		.uleb128 0x31
 3367 0096 13       		.uleb128 0x13
 3368 0097 00       		.byte	0
 3369 0098 00       		.byte	0
 3370 0099 0D       		.uleb128 0xd
 3371 009a 898201   		.uleb128 0x4109
 3372 009d 01       		.byte	0x1
 3373 009e 11       		.uleb128 0x11
 3374 009f 01       		.uleb128 0x1
 3375 00a0 31       		.uleb128 0x31
 3376 00a1 13       		.uleb128 0x13
 3377 00a2 00       		.byte	0
 3378 00a3 00       		.byte	0
 3379 00a4 0E       		.uleb128 0xe
 3380 00a5 8A8201   		.uleb128 0x410a
 3381 00a8 00       		.byte	0
 3382 00a9 02       		.uleb128 0x2
 3383 00aa 18       		.uleb128 0x18
 3384 00ab 9142     		.uleb128 0x2111
 3385 00ad 18       		.uleb128 0x18
 3386 00ae 00       		.byte	0
 3387 00af 00       		.byte	0
 3388 00b0 0F       		.uleb128 0xf
 3389 00b1 2E       		.uleb128 0x2e
 3390 00b2 01       		.byte	0x1
 3391 00b3 3F       		.uleb128 0x3f
 3392 00b4 19       		.uleb128 0x19
 3393 00b5 03       		.uleb128 0x3
 3394 00b6 0E       		.uleb128 0xe
 3395 00b7 3A       		.uleb128 0x3a
 3396 00b8 0B       		.uleb128 0xb
 3397 00b9 3B       		.uleb128 0x3b
 3398 00ba 05       		.uleb128 0x5
 3399 00bb 27       		.uleb128 0x27
 3400 00bc 19       		.uleb128 0x19
 3401 00bd 11       		.uleb128 0x11
 3402 00be 01       		.uleb128 0x1
 3403 00bf 12       		.uleb128 0x12
 3404 00c0 06       		.uleb128 0x6
 3405 00c1 40       		.uleb128 0x40
 3406 00c2 18       		.uleb128 0x18
ARM GAS  C:\Users\jwvance\AppData\Local\Temp\ccxTgFRe.s 			page 91


 3407 00c3 9742     		.uleb128 0x2117
 3408 00c5 19       		.uleb128 0x19
 3409 00c6 01       		.uleb128 0x1
 3410 00c7 13       		.uleb128 0x13
 3411 00c8 00       		.byte	0
 3412 00c9 00       		.byte	0
 3413 00ca 10       		.uleb128 0x10
 3414 00cb 05       		.uleb128 0x5
 3415 00cc 00       		.byte	0
 3416 00cd 03       		.uleb128 0x3
 3417 00ce 08       		.uleb128 0x8
 3418 00cf 3A       		.uleb128 0x3a
 3419 00d0 0B       		.uleb128 0xb
 3420 00d1 3B       		.uleb128 0x3b
 3421 00d2 05       		.uleb128 0x5
 3422 00d3 49       		.uleb128 0x49
 3423 00d4 13       		.uleb128 0x13
 3424 00d5 02       		.uleb128 0x2
 3425 00d6 17       		.uleb128 0x17
 3426 00d7 00       		.byte	0
 3427 00d8 00       		.byte	0
 3428 00d9 11       		.uleb128 0x11
 3429 00da 05       		.uleb128 0x5
 3430 00db 00       		.byte	0
 3431 00dc 03       		.uleb128 0x3
 3432 00dd 0E       		.uleb128 0xe
 3433 00de 3A       		.uleb128 0x3a
 3434 00df 0B       		.uleb128 0xb
 3435 00e0 3B       		.uleb128 0x3b
 3436 00e1 05       		.uleb128 0x5
 3437 00e2 49       		.uleb128 0x49
 3438 00e3 13       		.uleb128 0x13
 3439 00e4 02       		.uleb128 0x2
 3440 00e5 17       		.uleb128 0x17
 3441 00e6 00       		.byte	0
 3442 00e7 00       		.byte	0
 3443 00e8 12       		.uleb128 0x12
 3444 00e9 34       		.uleb128 0x34
 3445 00ea 00       		.byte	0
 3446 00eb 03       		.uleb128 0x3
 3447 00ec 0E       		.uleb128 0xe
 3448 00ed 3A       		.uleb128 0x3a
 3449 00ee 0B       		.uleb128 0xb
 3450 00ef 3B       		.uleb128 0x3b
 3451 00f0 05       		.uleb128 0x5
 3452 00f1 49       		.uleb128 0x49
 3453 00f2 13       		.uleb128 0x13
 3454 00f3 02       		.uleb128 0x2
 3455 00f4 17       		.uleb128 0x17
 3456 00f5 00       		.byte	0
 3457 00f6 00       		.byte	0
 3458 00f7 13       		.uleb128 0x13
 3459 00f8 0F       		.uleb128 0xf
 3460 00f9 00       		.byte	0
 3461 00fa 0B       		.uleb128 0xb
 3462 00fb 0B       		.uleb128 0xb
 3463 00fc 49       		.uleb128 0x49
ARM GAS  C:\Users\jwvance\AppData\Local\Temp\ccxTgFRe.s 			page 92


 3464 00fd 13       		.uleb128 0x13
 3465 00fe 00       		.byte	0
 3466 00ff 00       		.byte	0
 3467 0100 14       		.uleb128 0x14
 3468 0101 26       		.uleb128 0x26
 3469 0102 00       		.byte	0
 3470 0103 49       		.uleb128 0x49
 3471 0104 13       		.uleb128 0x13
 3472 0105 00       		.byte	0
 3473 0106 00       		.byte	0
 3474 0107 15       		.uleb128 0x15
 3475 0108 2E       		.uleb128 0x2e
 3476 0109 01       		.byte	0x1
 3477 010a 3F       		.uleb128 0x3f
 3478 010b 19       		.uleb128 0x19
 3479 010c 03       		.uleb128 0x3
 3480 010d 0E       		.uleb128 0xe
 3481 010e 3A       		.uleb128 0x3a
 3482 010f 0B       		.uleb128 0xb
 3483 0110 3B       		.uleb128 0x3b
 3484 0111 05       		.uleb128 0x5
 3485 0112 27       		.uleb128 0x27
 3486 0113 19       		.uleb128 0x19
 3487 0114 49       		.uleb128 0x49
 3488 0115 13       		.uleb128 0x13
 3489 0116 11       		.uleb128 0x11
 3490 0117 01       		.uleb128 0x1
 3491 0118 12       		.uleb128 0x12
 3492 0119 06       		.uleb128 0x6
 3493 011a 40       		.uleb128 0x40
 3494 011b 18       		.uleb128 0x18
 3495 011c 9742     		.uleb128 0x2117
 3496 011e 19       		.uleb128 0x19
 3497 011f 01       		.uleb128 0x1
 3498 0120 13       		.uleb128 0x13
 3499 0121 00       		.byte	0
 3500 0122 00       		.byte	0
 3501 0123 16       		.uleb128 0x16
 3502 0124 34       		.uleb128 0x34
 3503 0125 00       		.byte	0
 3504 0126 03       		.uleb128 0x3
 3505 0127 0E       		.uleb128 0xe
 3506 0128 3A       		.uleb128 0x3a
 3507 0129 0B       		.uleb128 0xb
 3508 012a 3B       		.uleb128 0x3b
 3509 012b 05       		.uleb128 0x5
 3510 012c 49       		.uleb128 0x49
 3511 012d 13       		.uleb128 0x13
 3512 012e 00       		.byte	0
 3513 012f 00       		.byte	0
 3514 0130 17       		.uleb128 0x17
 3515 0131 898201   		.uleb128 0x4109
 3516 0134 01       		.byte	0x1
 3517 0135 11       		.uleb128 0x11
 3518 0136 01       		.uleb128 0x1
 3519 0137 31       		.uleb128 0x31
 3520 0138 13       		.uleb128 0x13
ARM GAS  C:\Users\jwvance\AppData\Local\Temp\ccxTgFRe.s 			page 93


 3521 0139 01       		.uleb128 0x1
 3522 013a 13       		.uleb128 0x13
 3523 013b 00       		.byte	0
 3524 013c 00       		.byte	0
 3525 013d 18       		.uleb128 0x18
 3526 013e 898201   		.uleb128 0x4109
 3527 0141 01       		.byte	0x1
 3528 0142 11       		.uleb128 0x11
 3529 0143 01       		.uleb128 0x1
 3530 0144 9542     		.uleb128 0x2115
 3531 0146 19       		.uleb128 0x19
 3532 0147 31       		.uleb128 0x31
 3533 0148 13       		.uleb128 0x13
 3534 0149 00       		.byte	0
 3535 014a 00       		.byte	0
 3536 014b 19       		.uleb128 0x19
 3537 014c 2E       		.uleb128 0x2e
 3538 014d 01       		.byte	0x1
 3539 014e 3F       		.uleb128 0x3f
 3540 014f 19       		.uleb128 0x19
 3541 0150 03       		.uleb128 0x3
 3542 0151 0E       		.uleb128 0xe
 3543 0152 3A       		.uleb128 0x3a
 3544 0153 0B       		.uleb128 0xb
 3545 0154 3B       		.uleb128 0x3b
 3546 0155 0B       		.uleb128 0xb
 3547 0156 27       		.uleb128 0x27
 3548 0157 19       		.uleb128 0x19
 3549 0158 11       		.uleb128 0x11
 3550 0159 01       		.uleb128 0x1
 3551 015a 12       		.uleb128 0x12
 3552 015b 06       		.uleb128 0x6
 3553 015c 40       		.uleb128 0x40
 3554 015d 18       		.uleb128 0x18
 3555 015e 9742     		.uleb128 0x2117
 3556 0160 19       		.uleb128 0x19
 3557 0161 01       		.uleb128 0x1
 3558 0162 13       		.uleb128 0x13
 3559 0163 00       		.byte	0
 3560 0164 00       		.byte	0
 3561 0165 1A       		.uleb128 0x1a
 3562 0166 898201   		.uleb128 0x4109
 3563 0169 00       		.byte	0
 3564 016a 11       		.uleb128 0x11
 3565 016b 01       		.uleb128 0x1
 3566 016c 9542     		.uleb128 0x2115
 3567 016e 19       		.uleb128 0x19
 3568 016f 31       		.uleb128 0x31
 3569 0170 13       		.uleb128 0x13
 3570 0171 00       		.byte	0
 3571 0172 00       		.byte	0
 3572 0173 1B       		.uleb128 0x1b
 3573 0174 05       		.uleb128 0x5
 3574 0175 00       		.byte	0
 3575 0176 03       		.uleb128 0x3
 3576 0177 0E       		.uleb128 0xe
 3577 0178 3A       		.uleb128 0x3a
ARM GAS  C:\Users\jwvance\AppData\Local\Temp\ccxTgFRe.s 			page 94


 3578 0179 0B       		.uleb128 0xb
 3579 017a 3B       		.uleb128 0x3b
 3580 017b 05       		.uleb128 0x5
 3581 017c 49       		.uleb128 0x49
 3582 017d 13       		.uleb128 0x13
 3583 017e 02       		.uleb128 0x2
 3584 017f 18       		.uleb128 0x18
 3585 0180 00       		.byte	0
 3586 0181 00       		.byte	0
 3587 0182 1C       		.uleb128 0x1c
 3588 0183 34       		.uleb128 0x34
 3589 0184 00       		.byte	0
 3590 0185 03       		.uleb128 0x3
 3591 0186 08       		.uleb128 0x8
 3592 0187 3A       		.uleb128 0x3a
 3593 0188 0B       		.uleb128 0xb
 3594 0189 3B       		.uleb128 0x3b
 3595 018a 05       		.uleb128 0x5
 3596 018b 49       		.uleb128 0x49
 3597 018c 13       		.uleb128 0x13
 3598 018d 02       		.uleb128 0x2
 3599 018e 17       		.uleb128 0x17
 3600 018f 00       		.byte	0
 3601 0190 00       		.byte	0
 3602 0191 1D       		.uleb128 0x1d
 3603 0192 34       		.uleb128 0x34
 3604 0193 00       		.byte	0
 3605 0194 03       		.uleb128 0x3
 3606 0195 0E       		.uleb128 0xe
 3607 0196 3A       		.uleb128 0x3a
 3608 0197 0B       		.uleb128 0xb
 3609 0198 3B       		.uleb128 0x3b
 3610 0199 0B       		.uleb128 0xb
 3611 019a 49       		.uleb128 0x49
 3612 019b 13       		.uleb128 0x13
 3613 019c 02       		.uleb128 0x2
 3614 019d 17       		.uleb128 0x17
 3615 019e 00       		.byte	0
 3616 019f 00       		.byte	0
 3617 01a0 1E       		.uleb128 0x1e
 3618 01a1 34       		.uleb128 0x34
 3619 01a2 00       		.byte	0
 3620 01a3 03       		.uleb128 0x3
 3621 01a4 0E       		.uleb128 0xe
 3622 01a5 3A       		.uleb128 0x3a
 3623 01a6 0B       		.uleb128 0xb
 3624 01a7 3B       		.uleb128 0x3b
 3625 01a8 0B       		.uleb128 0xb
 3626 01a9 49       		.uleb128 0x49
 3627 01aa 13       		.uleb128 0x13
 3628 01ab 1C       		.uleb128 0x1c
 3629 01ac 0B       		.uleb128 0xb
 3630 01ad 00       		.byte	0
 3631 01ae 00       		.byte	0
 3632 01af 1F       		.uleb128 0x1f
 3633 01b0 34       		.uleb128 0x34
 3634 01b1 00       		.byte	0
ARM GAS  C:\Users\jwvance\AppData\Local\Temp\ccxTgFRe.s 			page 95


 3635 01b2 03       		.uleb128 0x3
 3636 01b3 0E       		.uleb128 0xe
 3637 01b4 3A       		.uleb128 0x3a
 3638 01b5 0B       		.uleb128 0xb
 3639 01b6 3B       		.uleb128 0x3b
 3640 01b7 0B       		.uleb128 0xb
 3641 01b8 49       		.uleb128 0x49
 3642 01b9 13       		.uleb128 0x13
 3643 01ba 02       		.uleb128 0x2
 3644 01bb 18       		.uleb128 0x18
 3645 01bc 00       		.byte	0
 3646 01bd 00       		.byte	0
 3647 01be 20       		.uleb128 0x20
 3648 01bf 34       		.uleb128 0x34
 3649 01c0 00       		.byte	0
 3650 01c1 03       		.uleb128 0x3
 3651 01c2 0E       		.uleb128 0xe
 3652 01c3 3A       		.uleb128 0x3a
 3653 01c4 0B       		.uleb128 0xb
 3654 01c5 3B       		.uleb128 0x3b
 3655 01c6 05       		.uleb128 0x5
 3656 01c7 49       		.uleb128 0x49
 3657 01c8 13       		.uleb128 0x13
 3658 01c9 3F       		.uleb128 0x3f
 3659 01ca 19       		.uleb128 0x19
 3660 01cb 3C       		.uleb128 0x3c
 3661 01cc 19       		.uleb128 0x19
 3662 01cd 00       		.byte	0
 3663 01ce 00       		.byte	0
 3664 01cf 21       		.uleb128 0x21
 3665 01d0 34       		.uleb128 0x34
 3666 01d1 00       		.byte	0
 3667 01d2 03       		.uleb128 0x3
 3668 01d3 0E       		.uleb128 0xe
 3669 01d4 3A       		.uleb128 0x3a
 3670 01d5 0B       		.uleb128 0xb
 3671 01d6 3B       		.uleb128 0x3b
 3672 01d7 0B       		.uleb128 0xb
 3673 01d8 49       		.uleb128 0x49
 3674 01d9 13       		.uleb128 0x13
 3675 01da 3F       		.uleb128 0x3f
 3676 01db 19       		.uleb128 0x19
 3677 01dc 02       		.uleb128 0x2
 3678 01dd 18       		.uleb128 0x18
 3679 01de 00       		.byte	0
 3680 01df 00       		.byte	0
 3681 01e0 22       		.uleb128 0x22
 3682 01e1 34       		.uleb128 0x34
 3683 01e2 00       		.byte	0
 3684 01e3 03       		.uleb128 0x3
 3685 01e4 0E       		.uleb128 0xe
 3686 01e5 3A       		.uleb128 0x3a
 3687 01e6 0B       		.uleb128 0xb
 3688 01e7 3B       		.uleb128 0x3b
 3689 01e8 0B       		.uleb128 0xb
 3690 01e9 49       		.uleb128 0x49
 3691 01ea 13       		.uleb128 0x13
ARM GAS  C:\Users\jwvance\AppData\Local\Temp\ccxTgFRe.s 			page 96


 3692 01eb 3F       		.uleb128 0x3f
 3693 01ec 19       		.uleb128 0x19
 3694 01ed 3C       		.uleb128 0x3c
 3695 01ee 19       		.uleb128 0x19
 3696 01ef 00       		.byte	0
 3697 01f0 00       		.byte	0
 3698 01f1 23       		.uleb128 0x23
 3699 01f2 2E       		.uleb128 0x2e
 3700 01f3 01       		.byte	0x1
 3701 01f4 3F       		.uleb128 0x3f
 3702 01f5 19       		.uleb128 0x19
 3703 01f6 03       		.uleb128 0x3
 3704 01f7 0E       		.uleb128 0xe
 3705 01f8 3A       		.uleb128 0x3a
 3706 01f9 0B       		.uleb128 0xb
 3707 01fa 3B       		.uleb128 0x3b
 3708 01fb 0B       		.uleb128 0xb
 3709 01fc 27       		.uleb128 0x27
 3710 01fd 19       		.uleb128 0x19
 3711 01fe 49       		.uleb128 0x49
 3712 01ff 13       		.uleb128 0x13
 3713 0200 3C       		.uleb128 0x3c
 3714 0201 19       		.uleb128 0x19
 3715 0202 01       		.uleb128 0x1
 3716 0203 13       		.uleb128 0x13
 3717 0204 00       		.byte	0
 3718 0205 00       		.byte	0
 3719 0206 24       		.uleb128 0x24
 3720 0207 05       		.uleb128 0x5
 3721 0208 00       		.byte	0
 3722 0209 49       		.uleb128 0x49
 3723 020a 13       		.uleb128 0x13
 3724 020b 00       		.byte	0
 3725 020c 00       		.byte	0
 3726 020d 25       		.uleb128 0x25
 3727 020e 2E       		.uleb128 0x2e
 3728 020f 01       		.byte	0x1
 3729 0210 3F       		.uleb128 0x3f
 3730 0211 19       		.uleb128 0x19
 3731 0212 03       		.uleb128 0x3
 3732 0213 0E       		.uleb128 0xe
 3733 0214 3A       		.uleb128 0x3a
 3734 0215 0B       		.uleb128 0xb
 3735 0216 3B       		.uleb128 0x3b
 3736 0217 0B       		.uleb128 0xb
 3737 0218 27       		.uleb128 0x27
 3738 0219 19       		.uleb128 0x19
 3739 021a 3C       		.uleb128 0x3c
 3740 021b 19       		.uleb128 0x19
 3741 021c 01       		.uleb128 0x1
 3742 021d 13       		.uleb128 0x13
 3743 021e 00       		.byte	0
 3744 021f 00       		.byte	0
 3745 0220 26       		.uleb128 0x26
 3746 0221 2E       		.uleb128 0x2e
 3747 0222 00       		.byte	0
 3748 0223 3F       		.uleb128 0x3f
ARM GAS  C:\Users\jwvance\AppData\Local\Temp\ccxTgFRe.s 			page 97


 3749 0224 19       		.uleb128 0x19
 3750 0225 03       		.uleb128 0x3
 3751 0226 0E       		.uleb128 0xe
 3752 0227 3A       		.uleb128 0x3a
 3753 0228 0B       		.uleb128 0xb
 3754 0229 3B       		.uleb128 0x3b
 3755 022a 0B       		.uleb128 0xb
 3756 022b 27       		.uleb128 0x27
 3757 022c 19       		.uleb128 0x19
 3758 022d 3C       		.uleb128 0x3c
 3759 022e 19       		.uleb128 0x19
 3760 022f 00       		.byte	0
 3761 0230 00       		.byte	0
 3762 0231 27       		.uleb128 0x27
 3763 0232 2E       		.uleb128 0x2e
 3764 0233 01       		.byte	0x1
 3765 0234 3F       		.uleb128 0x3f
 3766 0235 19       		.uleb128 0x19
 3767 0236 03       		.uleb128 0x3
 3768 0237 0E       		.uleb128 0xe
 3769 0238 3A       		.uleb128 0x3a
 3770 0239 0B       		.uleb128 0xb
 3771 023a 3B       		.uleb128 0x3b
 3772 023b 0B       		.uleb128 0xb
 3773 023c 27       		.uleb128 0x27
 3774 023d 19       		.uleb128 0x19
 3775 023e 3C       		.uleb128 0x3c
 3776 023f 19       		.uleb128 0x19
 3777 0240 00       		.byte	0
 3778 0241 00       		.byte	0
 3779 0242 00       		.byte	0
 3780              		.section	.debug_loc,"",%progbits
 3781              	.Ldebug_loc0:
 3782              	.LLST0:
 3783 0000 00000000 		.4byte	.LVL2
 3784 0004 2A000000 		.4byte	.LVL8
 3785 0008 0100     		.2byte	0x1
 3786 000a 50       		.byte	0x50
 3787 000b 2A000000 		.4byte	.LVL8
 3788 000f 46000000 		.4byte	.LVL10
 3789 0013 0400     		.2byte	0x4
 3790 0015 F3       		.byte	0xf3
 3791 0016 01       		.uleb128 0x1
 3792 0017 50       		.byte	0x50
 3793 0018 9F       		.byte	0x9f
 3794 0019 46000000 		.4byte	.LVL10
 3795 001d 96000000 		.4byte	.LVL20
 3796 0021 0100     		.2byte	0x1
 3797 0023 50       		.byte	0x50
 3798 0024 96000000 		.4byte	.LVL20
 3799 0028 CE000000 		.4byte	.LVL25
 3800 002c 0400     		.2byte	0x4
 3801 002e F3       		.byte	0xf3
 3802 002f 01       		.uleb128 0x1
 3803 0030 50       		.byte	0x50
 3804 0031 9F       		.byte	0x9f
 3805 0032 CE000000 		.4byte	.LVL25
ARM GAS  C:\Users\jwvance\AppData\Local\Temp\ccxTgFRe.s 			page 98


 3806 0036 DE000000 		.4byte	.LVL28
 3807 003a 0100     		.2byte	0x1
 3808 003c 50       		.byte	0x50
 3809 003d DE000000 		.4byte	.LVL28
 3810 0041 F0000000 		.4byte	.LVL30
 3811 0045 0400     		.2byte	0x4
 3812 0047 F3       		.byte	0xf3
 3813 0048 01       		.uleb128 0x1
 3814 0049 50       		.byte	0x50
 3815 004a 9F       		.byte	0x9f
 3816 004b F0000000 		.4byte	.LVL30
 3817 004f 3C010000 		.4byte	.LVL38
 3818 0053 0100     		.2byte	0x1
 3819 0055 50       		.byte	0x50
 3820 0056 3C010000 		.4byte	.LVL38
 3821 005a 4E010000 		.4byte	.LVL40
 3822 005e 0400     		.2byte	0x4
 3823 0060 F3       		.byte	0xf3
 3824 0061 01       		.uleb128 0x1
 3825 0062 50       		.byte	0x50
 3826 0063 9F       		.byte	0x9f
 3827 0064 4E010000 		.4byte	.LVL40
 3828 0068 52010000 		.4byte	.LVL42
 3829 006c 0100     		.2byte	0x1
 3830 006e 50       		.byte	0x50
 3831 006f 52010000 		.4byte	.LVL42
 3832 0073 64010000 		.4byte	.LVL44
 3833 0077 0400     		.2byte	0x4
 3834 0079 F3       		.byte	0xf3
 3835 007a 01       		.uleb128 0x1
 3836 007b 50       		.byte	0x50
 3837 007c 9F       		.byte	0x9f
 3838 007d 64010000 		.4byte	.LVL44
 3839 0081 F4010000 		.4byte	.LFE5
 3840 0085 0100     		.2byte	0x1
 3841 0087 50       		.byte	0x50
 3842 0088 00000000 		.4byte	0
 3843 008c 00000000 		.4byte	0
 3844              	.LLST1:
 3845 0090 00000000 		.4byte	.LVL2
 3846 0094 16000000 		.4byte	.LVL5
 3847 0098 0100     		.2byte	0x1
 3848 009a 51       		.byte	0x51
 3849 009b 16000000 		.4byte	.LVL5
 3850 009f 18000000 		.4byte	.LVL6
 3851 00a3 0400     		.2byte	0x4
 3852 00a5 F3       		.byte	0xf3
 3853 00a6 01       		.uleb128 0x1
 3854 00a7 51       		.byte	0x51
 3855 00a8 9F       		.byte	0x9f
 3856 00a9 18000000 		.4byte	.LVL6
 3857 00ad 4E000000 		.4byte	.LVL13
 3858 00b1 0100     		.2byte	0x1
 3859 00b3 51       		.byte	0x51
 3860 00b4 4E000000 		.4byte	.LVL13
 3861 00b8 92000000 		.4byte	.LVL18
 3862 00bc 0400     		.2byte	0x4
ARM GAS  C:\Users\jwvance\AppData\Local\Temp\ccxTgFRe.s 			page 99


 3863 00be F3       		.byte	0xf3
 3864 00bf 01       		.uleb128 0x1
 3865 00c0 51       		.byte	0x51
 3866 00c1 9F       		.byte	0x9f
 3867 00c2 92000000 		.4byte	.LVL18
 3868 00c6 C4000000 		.4byte	.LVL24
 3869 00ca 0100     		.2byte	0x1
 3870 00cc 51       		.byte	0x51
 3871 00cd C4000000 		.4byte	.LVL24
 3872 00d1 CE000000 		.4byte	.LVL25
 3873 00d5 0400     		.2byte	0x4
 3874 00d7 F3       		.byte	0xf3
 3875 00d8 01       		.uleb128 0x1
 3876 00d9 51       		.byte	0x51
 3877 00da 9F       		.byte	0x9f
 3878 00db CE000000 		.4byte	.LVL25
 3879 00df F8000000 		.4byte	.LVL33
 3880 00e3 0100     		.2byte	0x1
 3881 00e5 51       		.byte	0x51
 3882 00e6 F8000000 		.4byte	.LVL33
 3883 00ea 3C010000 		.4byte	.LVL38
 3884 00ee 0400     		.2byte	0x4
 3885 00f0 F3       		.byte	0xf3
 3886 00f1 01       		.uleb128 0x1
 3887 00f2 51       		.byte	0x51
 3888 00f3 9F       		.byte	0x9f
 3889 00f4 3C010000 		.4byte	.LVL38
 3890 00f8 68010000 		.4byte	.LVL46
 3891 00fc 0100     		.2byte	0x1
 3892 00fe 51       		.byte	0x51
 3893 00ff 68010000 		.4byte	.LVL46
 3894 0103 A2010000 		.4byte	.LVL50
 3895 0107 0400     		.2byte	0x4
 3896 0109 F3       		.byte	0xf3
 3897 010a 01       		.uleb128 0x1
 3898 010b 51       		.byte	0x51
 3899 010c 9F       		.byte	0x9f
 3900 010d A2010000 		.4byte	.LVL50
 3901 0111 AE010000 		.4byte	.LVL52
 3902 0115 0100     		.2byte	0x1
 3903 0117 51       		.byte	0x51
 3904 0118 AE010000 		.4byte	.LVL52
 3905 011c F4010000 		.4byte	.LFE5
 3906 0120 0400     		.2byte	0x4
 3907 0122 F3       		.byte	0xf3
 3908 0123 01       		.uleb128 0x1
 3909 0124 51       		.byte	0x51
 3910 0125 9F       		.byte	0x9f
 3911 0126 00000000 		.4byte	0
 3912 012a 00000000 		.4byte	0
 3913              	.LLST2:
 3914 012e 00000000 		.4byte	.LVL2
 3915 0132 16000000 		.4byte	.LVL5
 3916 0136 0100     		.2byte	0x1
 3917 0138 52       		.byte	0x52
 3918 0139 16000000 		.4byte	.LVL5
 3919 013d 18000000 		.4byte	.LVL6
ARM GAS  C:\Users\jwvance\AppData\Local\Temp\ccxTgFRe.s 			page 100


 3920 0141 0400     		.2byte	0x4
 3921 0143 F3       		.byte	0xf3
 3922 0144 01       		.uleb128 0x1
 3923 0145 52       		.byte	0x52
 3924 0146 9F       		.byte	0x9f
 3925 0147 18000000 		.4byte	.LVL6
 3926 014b 26000000 		.4byte	.LVL7
 3927 014f 0100     		.2byte	0x1
 3928 0151 52       		.byte	0x52
 3929 0152 26000000 		.4byte	.LVL7
 3930 0156 46000000 		.4byte	.LVL10
 3931 015a 0400     		.2byte	0x4
 3932 015c F3       		.byte	0xf3
 3933 015d 01       		.uleb128 0x1
 3934 015e 52       		.byte	0x52
 3935 015f 9F       		.byte	0x9f
 3936 0160 46000000 		.4byte	.LVL10
 3937 0164 48000000 		.4byte	.LVL11
 3938 0168 0100     		.2byte	0x1
 3939 016a 52       		.byte	0x52
 3940 016b 48000000 		.4byte	.LVL11
 3941 016f 92000000 		.4byte	.LVL18
 3942 0173 0400     		.2byte	0x4
 3943 0175 F3       		.byte	0xf3
 3944 0176 01       		.uleb128 0x1
 3945 0177 52       		.byte	0x52
 3946 0178 9F       		.byte	0x9f
 3947 0179 92000000 		.4byte	.LVL18
 3948 017d 94000000 		.4byte	.LVL19
 3949 0181 0100     		.2byte	0x1
 3950 0183 52       		.byte	0x52
 3951 0184 94000000 		.4byte	.LVL19
 3952 0188 CE000000 		.4byte	.LVL25
 3953 018c 0400     		.2byte	0x4
 3954 018e F3       		.byte	0xf3
 3955 018f 01       		.uleb128 0x1
 3956 0190 52       		.byte	0x52
 3957 0191 9F       		.byte	0x9f
 3958 0192 CE000000 		.4byte	.LVL25
 3959 0196 DC000000 		.4byte	.LVL27
 3960 019a 0100     		.2byte	0x1
 3961 019c 52       		.byte	0x52
 3962 019d DC000000 		.4byte	.LVL27
 3963 01a1 F0000000 		.4byte	.LVL30
 3964 01a5 0400     		.2byte	0x4
 3965 01a7 F3       		.byte	0xf3
 3966 01a8 01       		.uleb128 0x1
 3967 01a9 52       		.byte	0x52
 3968 01aa 9F       		.byte	0x9f
 3969 01ab F0000000 		.4byte	.LVL30
 3970 01af F2000000 		.4byte	.LVL31
 3971 01b3 0100     		.2byte	0x1
 3972 01b5 52       		.byte	0x52
 3973 01b6 F2000000 		.4byte	.LVL31
 3974 01ba 4E010000 		.4byte	.LVL40
 3975 01be 0400     		.2byte	0x4
 3976 01c0 F3       		.byte	0xf3
ARM GAS  C:\Users\jwvance\AppData\Local\Temp\ccxTgFRe.s 			page 101


 3977 01c1 01       		.uleb128 0x1
 3978 01c2 52       		.byte	0x52
 3979 01c3 9F       		.byte	0x9f
 3980 01c4 4E010000 		.4byte	.LVL40
 3981 01c8 50010000 		.4byte	.LVL41
 3982 01cc 0100     		.2byte	0x1
 3983 01ce 52       		.byte	0x52
 3984 01cf 50010000 		.4byte	.LVL41
 3985 01d3 64010000 		.4byte	.LVL44
 3986 01d7 0400     		.2byte	0x4
 3987 01d9 F3       		.byte	0xf3
 3988 01da 01       		.uleb128 0x1
 3989 01db 52       		.byte	0x52
 3990 01dc 9F       		.byte	0x9f
 3991 01dd 64010000 		.4byte	.LVL44
 3992 01e1 66010000 		.4byte	.LVL45
 3993 01e5 0100     		.2byte	0x1
 3994 01e7 52       		.byte	0x52
 3995 01e8 66010000 		.4byte	.LVL45
 3996 01ec A2010000 		.4byte	.LVL50
 3997 01f0 0400     		.2byte	0x4
 3998 01f2 F3       		.byte	0xf3
 3999 01f3 01       		.uleb128 0x1
 4000 01f4 52       		.byte	0x52
 4001 01f5 9F       		.byte	0x9f
 4002 01f6 A2010000 		.4byte	.LVL50
 4003 01fa A4010000 		.4byte	.LVL51
 4004 01fe 0100     		.2byte	0x1
 4005 0200 52       		.byte	0x52
 4006 0201 A4010000 		.4byte	.LVL51
 4007 0205 F4010000 		.4byte	.LFE5
 4008 0209 0400     		.2byte	0x4
 4009 020b F3       		.byte	0xf3
 4010 020c 01       		.uleb128 0x1
 4011 020d 52       		.byte	0x52
 4012 020e 9F       		.byte	0x9f
 4013 020f 00000000 		.4byte	0
 4014 0213 00000000 		.4byte	0
 4015              	.LLST3:
 4016 0217 00000000 		.4byte	.LVL2
 4017 021b 16000000 		.4byte	.LVL5
 4018 021f 0100     		.2byte	0x1
 4019 0221 53       		.byte	0x53
 4020 0222 16000000 		.4byte	.LVL5
 4021 0226 18000000 		.4byte	.LVL6
 4022 022a 0400     		.2byte	0x4
 4023 022c F3       		.byte	0xf3
 4024 022d 01       		.uleb128 0x1
 4025 022e 53       		.byte	0x53
 4026 022f 9F       		.byte	0x9f
 4027 0230 18000000 		.4byte	.LVL6
 4028 0234 3C000000 		.4byte	.LVL9
 4029 0238 0100     		.2byte	0x1
 4030 023a 53       		.byte	0x53
 4031 023b 3C000000 		.4byte	.LVL9
 4032 023f 46000000 		.4byte	.LVL10
 4033 0243 0400     		.2byte	0x4
ARM GAS  C:\Users\jwvance\AppData\Local\Temp\ccxTgFRe.s 			page 102


 4034 0245 F3       		.byte	0xf3
 4035 0246 01       		.uleb128 0x1
 4036 0247 53       		.byte	0x53
 4037 0248 9F       		.byte	0x9f
 4038 0249 46000000 		.4byte	.LVL10
 4039 024d 5E000000 		.4byte	.LVL16
 4040 0251 0100     		.2byte	0x1
 4041 0253 53       		.byte	0x53
 4042 0254 5E000000 		.4byte	.LVL16
 4043 0258 92000000 		.4byte	.LVL18
 4044 025c 0400     		.2byte	0x4
 4045 025e F3       		.byte	0xf3
 4046 025f 01       		.uleb128 0x1
 4047 0260 53       		.byte	0x53
 4048 0261 9F       		.byte	0x9f
 4049 0262 92000000 		.4byte	.LVL18
 4050 0266 9E000000 		.4byte	.LVL21
 4051 026a 0100     		.2byte	0x1
 4052 026c 53       		.byte	0x53
 4053 026d 9E000000 		.4byte	.LVL21
 4054 0271 CE000000 		.4byte	.LVL25
 4055 0275 0400     		.2byte	0x4
 4056 0277 F3       		.byte	0xf3
 4057 0278 01       		.uleb128 0x1
 4058 0279 53       		.byte	0x53
 4059 027a 9F       		.byte	0x9f
 4060 027b CE000000 		.4byte	.LVL25
 4061 027f E6000000 		.4byte	.LVL29
 4062 0283 0100     		.2byte	0x1
 4063 0285 53       		.byte	0x53
 4064 0286 E6000000 		.4byte	.LVL29
 4065 028a F0000000 		.4byte	.LVL30
 4066 028e 0400     		.2byte	0x4
 4067 0290 F3       		.byte	0xf3
 4068 0291 01       		.uleb128 0x1
 4069 0292 53       		.byte	0x53
 4070 0293 9F       		.byte	0x9f
 4071 0294 F0000000 		.4byte	.LVL30
 4072 0298 08010000 		.4byte	.LVL36
 4073 029c 0100     		.2byte	0x1
 4074 029e 53       		.byte	0x53
 4075 029f 08010000 		.4byte	.LVL36
 4076 02a3 3C010000 		.4byte	.LVL38
 4077 02a7 0400     		.2byte	0x4
 4078 02a9 F3       		.byte	0xf3
 4079 02aa 01       		.uleb128 0x1
 4080 02ab 53       		.byte	0x53
 4081 02ac 9F       		.byte	0x9f
 4082 02ad 3C010000 		.4byte	.LVL38
 4083 02b1 44010000 		.4byte	.LVL39
 4084 02b5 0100     		.2byte	0x1
 4085 02b7 53       		.byte	0x53
 4086 02b8 44010000 		.4byte	.LVL39
 4087 02bc 4E010000 		.4byte	.LVL40
 4088 02c0 0400     		.2byte	0x4
 4089 02c2 F3       		.byte	0xf3
 4090 02c3 01       		.uleb128 0x1
ARM GAS  C:\Users\jwvance\AppData\Local\Temp\ccxTgFRe.s 			page 103


 4091 02c4 53       		.byte	0x53
 4092 02c5 9F       		.byte	0x9f
 4093 02c6 4E010000 		.4byte	.LVL40
 4094 02ca 5A010000 		.4byte	.LVL43
 4095 02ce 0100     		.2byte	0x1
 4096 02d0 53       		.byte	0x53
 4097 02d1 5A010000 		.4byte	.LVL43
 4098 02d5 64010000 		.4byte	.LVL44
 4099 02d9 0400     		.2byte	0x4
 4100 02db F3       		.byte	0xf3
 4101 02dc 01       		.uleb128 0x1
 4102 02dd 53       		.byte	0x53
 4103 02de 9F       		.byte	0x9f
 4104 02df 64010000 		.4byte	.LVL44
 4105 02e3 72010000 		.4byte	.LVL47
 4106 02e7 0100     		.2byte	0x1
 4107 02e9 53       		.byte	0x53
 4108 02ea 72010000 		.4byte	.LVL47
 4109 02ee A2010000 		.4byte	.LVL50
 4110 02f2 0400     		.2byte	0x4
 4111 02f4 F3       		.byte	0xf3
 4112 02f5 01       		.uleb128 0x1
 4113 02f6 53       		.byte	0x53
 4114 02f7 9F       		.byte	0x9f
 4115 02f8 A2010000 		.4byte	.LVL50
 4116 02fc C8010000 		.4byte	.LVL55
 4117 0300 0100     		.2byte	0x1
 4118 0302 53       		.byte	0x53
 4119 0303 C8010000 		.4byte	.LVL55
 4120 0307 F4010000 		.4byte	.LFE5
 4121 030b 0400     		.2byte	0x4
 4122 030d F3       		.byte	0xf3
 4123 030e 01       		.uleb128 0x1
 4124 030f 53       		.byte	0x53
 4125 0310 9F       		.byte	0x9f
 4126 0311 00000000 		.4byte	0
 4127 0315 00000000 		.4byte	0
 4128              	.LLST4:
 4129 0319 06000000 		.4byte	.LVL3
 4130 031d 16000000 		.4byte	.LVL5
 4131 0321 0100     		.2byte	0x1
 4132 0323 54       		.byte	0x54
 4133 0324 18000000 		.4byte	.LVL6
 4134 0328 4A000000 		.4byte	.LVL12
 4135 032c 0100     		.2byte	0x1
 4136 032e 54       		.byte	0x54
 4137 032f 4A000000 		.4byte	.LVL12
 4138 0333 4E000000 		.4byte	.LVL13
 4139 0337 0200     		.2byte	0x2
 4140 0339 71       		.byte	0x71
 4141 033a 00       		.sleb128 0
 4142 033b 4E000000 		.4byte	.LVL13
 4143 033f 56000000 		.4byte	.LVL15
 4144 0343 0300     		.2byte	0x3
 4145 0345 F3       		.byte	0xf3
 4146 0346 01       		.uleb128 0x1
 4147 0347 51       		.byte	0x51
ARM GAS  C:\Users\jwvance\AppData\Local\Temp\ccxTgFRe.s 			page 104


 4148 0348 92000000 		.4byte	.LVL18
 4149 034c B4000000 		.4byte	.LVL22
 4150 0350 0100     		.2byte	0x1
 4151 0352 54       		.byte	0x54
 4152 0353 B4000000 		.4byte	.LVL22
 4153 0357 B8000000 		.4byte	.LVL23
 4154 035b 0500     		.2byte	0x5
 4155 035d 70       		.byte	0x70
 4156 035e 00       		.sleb128 0
 4157 035f 76       		.byte	0x76
 4158 0360 00       		.sleb128 0
 4159 0361 22       		.byte	0x22
 4160 0362 CE000000 		.4byte	.LVL25
 4161 0366 F4000000 		.4byte	.LVL32
 4162 036a 0100     		.2byte	0x1
 4163 036c 54       		.byte	0x54
 4164 036d F4000000 		.4byte	.LVL32
 4165 0371 F8000000 		.4byte	.LVL33
 4166 0375 0200     		.2byte	0x2
 4167 0377 71       		.byte	0x71
 4168 0378 00       		.sleb128 0
 4169 0379 F8000000 		.4byte	.LVL33
 4170 037d 00010000 		.4byte	.LVL35
 4171 0381 0300     		.2byte	0x3
 4172 0383 F3       		.byte	0xf3
 4173 0384 01       		.uleb128 0x1
 4174 0385 51       		.byte	0x51
 4175 0386 3C010000 		.4byte	.LVL38
 4176 038a 94010000 		.4byte	.LVL48
 4177 038e 0100     		.2byte	0x1
 4178 0390 54       		.byte	0x54
 4179 0391 94010000 		.4byte	.LVL48
 4180 0395 98010000 		.4byte	.LVL49
 4181 0399 0500     		.2byte	0x5
 4182 039b 71       		.byte	0x71
 4183 039c 00       		.sleb128 0
 4184 039d 77       		.byte	0x77
 4185 039e 00       		.sleb128 0
 4186 039f 22       		.byte	0x22
 4187 03a0 A2010000 		.4byte	.LVL50
 4188 03a4 EA010000 		.4byte	.LVL56
 4189 03a8 0100     		.2byte	0x1
 4190 03aa 54       		.byte	0x54
 4191 03ab 00000000 		.4byte	0
 4192 03af 00000000 		.4byte	0
 4193              	.LLST5:
 4194 03b3 08000000 		.4byte	.LVL4
 4195 03b7 50000000 		.4byte	.LVL14
 4196 03bb 0100     		.2byte	0x1
 4197 03bd 55       		.byte	0x55
 4198 03be 50000000 		.4byte	.LVL14
 4199 03c2 84000000 		.4byte	.LVL17
 4200 03c6 0500     		.2byte	0x5
 4201 03c8 F3       		.byte	0xf3
 4202 03c9 01       		.uleb128 0x1
 4203 03ca 51       		.byte	0x51
 4204 03cb 23       		.byte	0x23
ARM GAS  C:\Users\jwvance\AppData\Local\Temp\ccxTgFRe.s 			page 105


 4205 03cc 01       		.uleb128 0x1
 4206 03cd 92000000 		.4byte	.LVL18
 4207 03d1 FA000000 		.4byte	.LVL34
 4208 03d5 0100     		.2byte	0x1
 4209 03d7 55       		.byte	0x55
 4210 03d8 FA000000 		.4byte	.LVL34
 4211 03dc 2E010000 		.4byte	.LVL37
 4212 03e0 0500     		.2byte	0x5
 4213 03e2 F3       		.byte	0xf3
 4214 03e3 01       		.uleb128 0x1
 4215 03e4 51       		.byte	0x51
 4216 03e5 23       		.byte	0x23
 4217 03e6 01       		.uleb128 0x1
 4218 03e7 3C010000 		.4byte	.LVL38
 4219 03eb B0010000 		.4byte	.LVL53
 4220 03ef 0100     		.2byte	0x1
 4221 03f1 55       		.byte	0x55
 4222 03f2 B0010000 		.4byte	.LVL53
 4223 03f6 BE010000 		.4byte	.LVL54
 4224 03fa 0500     		.2byte	0x5
 4225 03fc F3       		.byte	0xf3
 4226 03fd 01       		.uleb128 0x1
 4227 03fe 51       		.byte	0x51
 4228 03ff 23       		.byte	0x23
 4229 0400 01       		.uleb128 0x1
 4230 0401 00000000 		.4byte	0
 4231 0405 00000000 		.4byte	0
 4232              	.LLST6:
 4233 0409 00000000 		.4byte	.LVL57
 4234 040d 13000000 		.4byte	.LVL58-1
 4235 0411 0100     		.2byte	0x1
 4236 0413 50       		.byte	0x50
 4237 0414 13000000 		.4byte	.LVL58-1
 4238 0418 5C000000 		.4byte	.LVL60
 4239 041c 0400     		.2byte	0x4
 4240 041e F3       		.byte	0xf3
 4241 041f 01       		.uleb128 0x1
 4242 0420 50       		.byte	0x50
 4243 0421 9F       		.byte	0x9f
 4244 0422 5C000000 		.4byte	.LVL60
 4245 0426 72000000 		.4byte	.LVL63
 4246 042a 0100     		.2byte	0x1
 4247 042c 54       		.byte	0x54
 4248 042d 7E000000 		.4byte	.LVL64
 4249 0431 AA000000 		.4byte	.LVL66
 4250 0435 0100     		.2byte	0x1
 4251 0437 54       		.byte	0x54
 4252 0438 BC000000 		.4byte	.LVL70
 4253 043c CA000000 		.4byte	.LVL72
 4254 0440 0100     		.2byte	0x1
 4255 0442 54       		.byte	0x54
 4256 0443 CC000000 		.4byte	.LVL73
 4257 0447 F0000000 		.4byte	.LFE4
 4258 044b 0400     		.2byte	0x4
 4259 044d F3       		.byte	0xf3
 4260 044e 01       		.uleb128 0x1
 4261 044f 50       		.byte	0x50
ARM GAS  C:\Users\jwvance\AppData\Local\Temp\ccxTgFRe.s 			page 106


 4262 0450 9F       		.byte	0x9f
 4263 0451 00000000 		.4byte	0
 4264 0455 00000000 		.4byte	0
 4265              	.LLST7:
 4266 0459 00000000 		.4byte	.LVL57
 4267 045d 13000000 		.4byte	.LVL58-1
 4268 0461 0100     		.2byte	0x1
 4269 0463 51       		.byte	0x51
 4270 0464 13000000 		.4byte	.LVL58-1
 4271 0468 F0000000 		.4byte	.LFE4
 4272 046c 0200     		.2byte	0x2
 4273 046e 91       		.byte	0x91
 4274 046f 54       		.sleb128 -44
 4275 0470 00000000 		.4byte	0
 4276 0474 00000000 		.4byte	0
 4277              	.LLST8:
 4278 0478 00000000 		.4byte	.LVL57
 4279 047c 13000000 		.4byte	.LVL58-1
 4280 0480 0100     		.2byte	0x1
 4281 0482 52       		.byte	0x52
 4282 0483 13000000 		.4byte	.LVL58-1
 4283 0487 F0000000 		.4byte	.LFE4
 4284 048b 0400     		.2byte	0x4
 4285 048d F3       		.byte	0xf3
 4286 048e 01       		.uleb128 0x1
 4287 048f 52       		.byte	0x52
 4288 0490 9F       		.byte	0x9f
 4289 0491 00000000 		.4byte	0
 4290 0495 00000000 		.4byte	0
 4291              	.LLST9:
 4292 0499 00000000 		.4byte	.LVL57
 4293 049d AC000000 		.4byte	.LVL67
 4294 04a1 0200     		.2byte	0x2
 4295 04a3 30       		.byte	0x30
 4296 04a4 9F       		.byte	0x9f
 4297 04a5 AC000000 		.4byte	.LVL67
 4298 04a9 BC000000 		.4byte	.LVL70
 4299 04ad 0100     		.2byte	0x1
 4300 04af 54       		.byte	0x54
 4301 04b0 BC000000 		.4byte	.LVL70
 4302 04b4 F0000000 		.4byte	.LFE4
 4303 04b8 0200     		.2byte	0x2
 4304 04ba 30       		.byte	0x30
 4305 04bb 9F       		.byte	0x9f
 4306 04bc 00000000 		.4byte	0
 4307 04c0 00000000 		.4byte	0
 4308              	.LLST10:
 4309 04c4 00000000 		.4byte	.LVL84
 4310 04c8 1A000000 		.4byte	.LVL85
 4311 04cc 0100     		.2byte	0x1
 4312 04ce 50       		.byte	0x50
 4313 04cf 1A000000 		.4byte	.LVL85
 4314 04d3 20000000 		.4byte	.LVL86
 4315 04d7 0200     		.2byte	0x2
 4316 04d9 74       		.byte	0x74
 4317 04da 04       		.sleb128 4
 4318 04db 20000000 		.4byte	.LVL86
ARM GAS  C:\Users\jwvance\AppData\Local\Temp\ccxTgFRe.s 			page 107


 4319 04df 26000000 		.4byte	.LVL88
 4320 04e3 0400     		.2byte	0x4
 4321 04e5 F3       		.byte	0xf3
 4322 04e6 01       		.uleb128 0x1
 4323 04e7 50       		.byte	0x50
 4324 04e8 9F       		.byte	0x9f
 4325 04e9 26000000 		.4byte	.LVL88
 4326 04ed 4A000000 		.4byte	.LVL89
 4327 04f1 0100     		.2byte	0x1
 4328 04f3 50       		.byte	0x50
 4329 04f4 4A000000 		.4byte	.LVL89
 4330 04f8 4E000000 		.4byte	.LVL90
 4331 04fc 0200     		.2byte	0x2
 4332 04fe 71       		.byte	0x71
 4333 04ff 05       		.sleb128 5
 4334 0500 4E000000 		.4byte	.LVL90
 4335 0504 72000000 		.4byte	.LVL91
 4336 0508 0100     		.2byte	0x1
 4337 050a 50       		.byte	0x50
 4338 050b 72000000 		.4byte	.LVL91
 4339 050f 78000000 		.4byte	.LVL92
 4340 0513 0200     		.2byte	0x2
 4341 0515 71       		.byte	0x71
 4342 0516 04       		.sleb128 4
 4343 0517 78000000 		.4byte	.LVL92
 4344 051b 8E000000 		.4byte	.LVL93
 4345 051f 0100     		.2byte	0x1
 4346 0521 50       		.byte	0x50
 4347 0522 8E000000 		.4byte	.LVL93
 4348 0526 96000000 		.4byte	.LVL95
 4349 052a 0400     		.2byte	0x4
 4350 052c F3       		.byte	0xf3
 4351 052d 01       		.uleb128 0x1
 4352 052e 50       		.byte	0x50
 4353 052f 9F       		.byte	0x9f
 4354 0530 96000000 		.4byte	.LVL95
 4355 0534 98000000 		.4byte	.LVL96
 4356 0538 0100     		.2byte	0x1
 4357 053a 50       		.byte	0x50
 4358 053b 98000000 		.4byte	.LVL96
 4359 053f A2000000 		.4byte	.LVL98
 4360 0543 0400     		.2byte	0x4
 4361 0545 F3       		.byte	0xf3
 4362 0546 01       		.uleb128 0x1
 4363 0547 50       		.byte	0x50
 4364 0548 9F       		.byte	0x9f
 4365 0549 A2000000 		.4byte	.LVL98
 4366 054d DA000000 		.4byte	.LVL99
 4367 0551 0100     		.2byte	0x1
 4368 0553 50       		.byte	0x50
 4369 0554 DA000000 		.4byte	.LVL99
 4370 0558 DC000000 		.4byte	.LVL100
 4371 055c 0200     		.2byte	0x2
 4372 055e 71       		.byte	0x71
 4373 055f 04       		.sleb128 4
 4374 0560 DC000000 		.4byte	.LVL100
 4375 0564 EA000000 		.4byte	.LVL101
ARM GAS  C:\Users\jwvance\AppData\Local\Temp\ccxTgFRe.s 			page 108


 4376 0568 0100     		.2byte	0x1
 4377 056a 50       		.byte	0x50
 4378 056b EA000000 		.4byte	.LVL101
 4379 056f EE000000 		.4byte	.LVL102
 4380 0573 0400     		.2byte	0x4
 4381 0575 F3       		.byte	0xf3
 4382 0576 01       		.uleb128 0x1
 4383 0577 50       		.byte	0x50
 4384 0578 9F       		.byte	0x9f
 4385 0579 EE000000 		.4byte	.LVL102
 4386 057d 14010000 		.4byte	.LVL105
 4387 0581 0100     		.2byte	0x1
 4388 0583 50       		.byte	0x50
 4389 0584 14010000 		.4byte	.LVL105
 4390 0588 1E010000 		.4byte	.LVL107
 4391 058c 0400     		.2byte	0x4
 4392 058e F3       		.byte	0xf3
 4393 058f 01       		.uleb128 0x1
 4394 0590 50       		.byte	0x50
 4395 0591 9F       		.byte	0x9f
 4396 0592 1E010000 		.4byte	.LVL107
 4397 0596 22010000 		.4byte	.LVL108
 4398 059a 0100     		.2byte	0x1
 4399 059c 50       		.byte	0x50
 4400 059d 22010000 		.4byte	.LVL108
 4401 05a1 30010000 		.4byte	.LVL109
 4402 05a5 0400     		.2byte	0x4
 4403 05a7 F3       		.byte	0xf3
 4404 05a8 01       		.uleb128 0x1
 4405 05a9 50       		.byte	0x50
 4406 05aa 9F       		.byte	0x9f
 4407 05ab 30010000 		.4byte	.LVL109
 4408 05af 34010000 		.4byte	.LVL110
 4409 05b3 0100     		.2byte	0x1
 4410 05b5 50       		.byte	0x50
 4411 05b6 34010000 		.4byte	.LVL110
 4412 05ba 42010000 		.4byte	.LVL111
 4413 05be 0400     		.2byte	0x4
 4414 05c0 F3       		.byte	0xf3
 4415 05c1 01       		.uleb128 0x1
 4416 05c2 50       		.byte	0x50
 4417 05c3 9F       		.byte	0x9f
 4418 05c4 42010000 		.4byte	.LVL111
 4419 05c8 4A010000 		.4byte	.LVL112
 4420 05cc 0100     		.2byte	0x1
 4421 05ce 50       		.byte	0x50
 4422 05cf 4A010000 		.4byte	.LVL112
 4423 05d3 58010000 		.4byte	.LFE7
 4424 05d7 0400     		.2byte	0x4
 4425 05d9 F3       		.byte	0xf3
 4426 05da 01       		.uleb128 0x1
 4427 05db 50       		.byte	0x50
 4428 05dc 9F       		.byte	0x9f
 4429 05dd 00000000 		.4byte	0
 4430 05e1 00000000 		.4byte	0
 4431              	.LLST11:
 4432 05e5 00000000 		.4byte	.LVL84
ARM GAS  C:\Users\jwvance\AppData\Local\Temp\ccxTgFRe.s 			page 109


 4433 05e9 22000000 		.4byte	.LVL87
 4434 05ed 0200     		.2byte	0x2
 4435 05ef 30       		.byte	0x30
 4436 05f0 9F       		.byte	0x9f
 4437 05f1 22000000 		.4byte	.LVL87
 4438 05f5 26000000 		.4byte	.LVL88
 4439 05f9 0100     		.2byte	0x1
 4440 05fb 50       		.byte	0x50
 4441 05fc 26000000 		.4byte	.LVL88
 4442 0600 90000000 		.4byte	.LVL94
 4443 0604 0200     		.2byte	0x2
 4444 0606 30       		.byte	0x30
 4445 0607 9F       		.byte	0x9f
 4446 0608 90000000 		.4byte	.LVL94
 4447 060c 96000000 		.4byte	.LVL95
 4448 0610 0100     		.2byte	0x1
 4449 0612 50       		.byte	0x50
 4450 0613 96000000 		.4byte	.LVL95
 4451 0617 9E000000 		.4byte	.LVL97
 4452 061b 0200     		.2byte	0x2
 4453 061d 30       		.byte	0x30
 4454 061e 9F       		.byte	0x9f
 4455 061f 9E000000 		.4byte	.LVL97
 4456 0623 A2000000 		.4byte	.LVL98
 4457 0627 0100     		.2byte	0x1
 4458 0629 50       		.byte	0x50
 4459 062a A2000000 		.4byte	.LVL98
 4460 062e EA000000 		.4byte	.LVL101
 4461 0632 0200     		.2byte	0x2
 4462 0634 30       		.byte	0x30
 4463 0635 9F       		.byte	0x9f
 4464 0636 EA000000 		.4byte	.LVL101
 4465 063a EE000000 		.4byte	.LVL102
 4466 063e 0100     		.2byte	0x1
 4467 0640 50       		.byte	0x50
 4468 0641 EE000000 		.4byte	.LVL102
 4469 0645 0C010000 		.4byte	.LVL103
 4470 0649 0200     		.2byte	0x2
 4471 064b 30       		.byte	0x30
 4472 064c 9F       		.byte	0x9f
 4473 064d 0C010000 		.4byte	.LVL103
 4474 0651 0E010000 		.4byte	.LVL104
 4475 0655 0300     		.2byte	0x3
 4476 0657 09       		.byte	0x9
 4477 0658 F7       		.byte	0xf7
 4478 0659 9F       		.byte	0x9f
 4479 065a 0E010000 		.4byte	.LVL104
 4480 065e 1A010000 		.4byte	.LVL106
 4481 0662 0200     		.2byte	0x2
 4482 0664 30       		.byte	0x30
 4483 0665 9F       		.byte	0x9f
 4484 0666 1A010000 		.4byte	.LVL106
 4485 066a 1E010000 		.4byte	.LVL107
 4486 066e 0200     		.2byte	0x2
 4487 0670 31       		.byte	0x31
 4488 0671 9F       		.byte	0x9f
 4489 0672 1E010000 		.4byte	.LVL107
ARM GAS  C:\Users\jwvance\AppData\Local\Temp\ccxTgFRe.s 			page 110


 4490 0676 58010000 		.4byte	.LFE7
 4491 067a 0200     		.2byte	0x2
 4492 067c 30       		.byte	0x30
 4493 067d 9F       		.byte	0x9f
 4494 067e 00000000 		.4byte	0
 4495 0682 00000000 		.4byte	0
 4496              	.LLST12:
 4497 0686 00000000 		.4byte	.LVL113
 4498 068a 24000000 		.4byte	.LVL116
 4499 068e 0200     		.2byte	0x2
 4500 0690 30       		.byte	0x30
 4501 0691 9F       		.byte	0x9f
 4502 0692 24000000 		.4byte	.LVL116
 4503 0696 36000000 		.4byte	.LVL117
 4504 069a 0100     		.2byte	0x1
 4505 069c 50       		.byte	0x50
 4506 069d 50000000 		.4byte	.LVL120
 4507 06a1 6C000000 		.4byte	.LVL122
 4508 06a5 0100     		.2byte	0x1
 4509 06a7 50       		.byte	0x50
 4510 06a8 6C000000 		.4byte	.LVL122
 4511 06ac 72000000 		.4byte	.LVL123
 4512 06b0 0200     		.2byte	0x2
 4513 06b2 30       		.byte	0x30
 4514 06b3 9F       		.byte	0x9f
 4515 06b4 72000000 		.4byte	.LVL123
 4516 06b8 8C000000 		.4byte	.LFE8
 4517 06bc 0100     		.2byte	0x1
 4518 06be 50       		.byte	0x50
 4519 06bf 00000000 		.4byte	0
 4520 06c3 00000000 		.4byte	0
 4521              	.LLST13:
 4522 06c7 42000000 		.4byte	.LVL119
 4523 06cb 4F000000 		.4byte	.LVL120-1
 4524 06cf 0100     		.2byte	0x1
 4525 06d1 50       		.byte	0x50
 4526 06d2 00000000 		.4byte	0
 4527 06d6 00000000 		.4byte	0
 4528              	.LLST14:
 4529 06da 22000000 		.4byte	.LVL115
 4530 06de 3A000000 		.4byte	.LVL118
 4531 06e2 0100     		.2byte	0x1
 4532 06e4 54       		.byte	0x54
 4533 06e5 42000000 		.4byte	.LVL119
 4534 06e9 6C000000 		.4byte	.LVL122
 4535 06ed 0100     		.2byte	0x1
 4536 06ef 54       		.byte	0x54
 4537 06f0 00000000 		.4byte	0
 4538 06f4 00000000 		.4byte	0
 4539              	.LLST15:
 4540 06f8 16000000 		.4byte	.LVL114
 4541 06fc 4F000000 		.4byte	.LVL120-1
 4542 0700 0100     		.2byte	0x1
 4543 0702 53       		.byte	0x53
 4544 0703 56000000 		.4byte	.LVL121
 4545 0707 76000000 		.4byte	.LVL124
 4546 070b 0100     		.2byte	0x1
ARM GAS  C:\Users\jwvance\AppData\Local\Temp\ccxTgFRe.s 			page 111


 4547 070d 53       		.byte	0x53
 4548 070e 76000000 		.4byte	.LVL124
 4549 0712 8C000000 		.4byte	.LFE8
 4550 0716 0100     		.2byte	0x1
 4551 0718 50       		.byte	0x50
 4552 0719 00000000 		.4byte	0
 4553 071d 00000000 		.4byte	0
 4554              	.LLST16:
 4555 0721 00000000 		.4byte	.LVL125
 4556 0725 36000000 		.4byte	.LVL131
 4557 0729 0100     		.2byte	0x1
 4558 072b 50       		.byte	0x50
 4559 072c 36000000 		.4byte	.LVL131
 4560 0730 46000000 		.4byte	.LVL134
 4561 0734 0100     		.2byte	0x1
 4562 0736 55       		.byte	0x55
 4563 0737 46000000 		.4byte	.LVL134
 4564 073b A8000000 		.4byte	.LFE9
 4565 073f 0100     		.2byte	0x1
 4566 0741 50       		.byte	0x50
 4567 0742 00000000 		.4byte	0
 4568 0746 00000000 		.4byte	0
 4569              	.LLST17:
 4570 074a 06000000 		.4byte	.LVL126
 4571 074e 24000000 		.4byte	.LVL128
 4572 0752 0100     		.2byte	0x1
 4573 0754 53       		.byte	0x53
 4574 0755 24000000 		.4byte	.LVL128
 4575 0759 2A000000 		.4byte	.LVL129
 4576 075d 0300     		.2byte	0x3
 4577 075f 73       		.byte	0x73
 4578 0760 08       		.sleb128 8
 4579 0761 9F       		.byte	0x9f
 4580 0762 2A000000 		.4byte	.LVL129
 4581 0766 32000000 		.4byte	.LVL130
 4582 076a 0700     		.2byte	0x7
 4583 076c 70       		.byte	0x70
 4584 076d 00       		.sleb128 0
 4585 076e 94       		.byte	0x94
 4586 076f 01       		.byte	0x1
 4587 0770 3F       		.byte	0x3f
 4588 0771 1A       		.byte	0x1a
 4589 0772 9F       		.byte	0x9f
 4590 0773 46000000 		.4byte	.LVL134
 4591 0777 48000000 		.4byte	.LVL135
 4592 077b 0100     		.2byte	0x1
 4593 077d 53       		.byte	0x53
 4594 077e 48000000 		.4byte	.LVL135
 4595 0782 50000000 		.4byte	.LVL136
 4596 0786 0700     		.2byte	0x7
 4597 0788 70       		.byte	0x70
 4598 0789 00       		.sleb128 0
 4599 078a 94       		.byte	0x94
 4600 078b 01       		.byte	0x1
 4601 078c 3F       		.byte	0x3f
 4602 078d 1A       		.byte	0x1a
 4603 078e 9F       		.byte	0x9f
ARM GAS  C:\Users\jwvance\AppData\Local\Temp\ccxTgFRe.s 			page 112


 4604 078f 56000000 		.4byte	.LVL137
 4605 0793 58000000 		.4byte	.LVL138
 4606 0797 0100     		.2byte	0x1
 4607 0799 53       		.byte	0x53
 4608 079a 58000000 		.4byte	.LVL138
 4609 079e 6C000000 		.4byte	.LVL139
 4610 07a2 0700     		.2byte	0x7
 4611 07a4 70       		.byte	0x70
 4612 07a5 00       		.sleb128 0
 4613 07a6 94       		.byte	0x94
 4614 07a7 01       		.byte	0x1
 4615 07a8 3F       		.byte	0x3f
 4616 07a9 1A       		.byte	0x1a
 4617 07aa 9F       		.byte	0x9f
 4618 07ab 6E000000 		.4byte	.LVL140
 4619 07af 70000000 		.4byte	.LVL141
 4620 07b3 0100     		.2byte	0x1
 4621 07b5 53       		.byte	0x53
 4622 07b6 70000000 		.4byte	.LVL141
 4623 07ba 74000000 		.4byte	.LVL142
 4624 07be 0700     		.2byte	0x7
 4625 07c0 70       		.byte	0x70
 4626 07c1 00       		.sleb128 0
 4627 07c2 94       		.byte	0x94
 4628 07c3 01       		.byte	0x1
 4629 07c4 3F       		.byte	0x3f
 4630 07c5 1A       		.byte	0x1a
 4631 07c6 9F       		.byte	0x9f
 4632 07c7 74000000 		.4byte	.LVL142
 4633 07cb 76000000 		.4byte	.LVL143
 4634 07cf 0100     		.2byte	0x1
 4635 07d1 53       		.byte	0x53
 4636 07d2 76000000 		.4byte	.LVL143
 4637 07d6 88000000 		.4byte	.LVL144
 4638 07da 0700     		.2byte	0x7
 4639 07dc 70       		.byte	0x70
 4640 07dd 00       		.sleb128 0
 4641 07de 94       		.byte	0x94
 4642 07df 01       		.byte	0x1
 4643 07e0 3F       		.byte	0x3f
 4644 07e1 1A       		.byte	0x1a
 4645 07e2 9F       		.byte	0x9f
 4646 07e3 00000000 		.4byte	0
 4647 07e7 00000000 		.4byte	0
 4648              	.LLST18:
 4649 07eb 14000000 		.4byte	.LVL127
 4650 07ef 6E000000 		.4byte	.LVL140
 4651 07f3 0100     		.2byte	0x1
 4652 07f5 56       		.byte	0x56
 4653 07f6 70000000 		.4byte	.LVL141
 4654 07fa A8000000 		.4byte	.LFE9
 4655 07fe 0100     		.2byte	0x1
 4656 0800 56       		.byte	0x56
 4657 0801 00000000 		.4byte	0
 4658 0805 00000000 		.4byte	0
 4659              	.LLST19:
 4660 0809 14000000 		.4byte	.LVL127
ARM GAS  C:\Users\jwvance\AppData\Local\Temp\ccxTgFRe.s 			page 113


 4661 080d 36000000 		.4byte	.LVL131
 4662 0811 0200     		.2byte	0x2
 4663 0813 31       		.byte	0x31
 4664 0814 9F       		.byte	0x9f
 4665 0815 36000000 		.4byte	.LVL131
 4666 0819 3A000000 		.4byte	.LVL132
 4667 081d 0100     		.2byte	0x1
 4668 081f 54       		.byte	0x54
 4669 0820 40000000 		.4byte	.LVL133
 4670 0824 46000000 		.4byte	.LVL134
 4671 0828 0100     		.2byte	0x1
 4672 082a 54       		.byte	0x54
 4673 082b 46000000 		.4byte	.LVL134
 4674 082f 6E000000 		.4byte	.LVL140
 4675 0833 0200     		.2byte	0x2
 4676 0835 31       		.byte	0x31
 4677 0836 9F       		.byte	0x9f
 4678 0837 70000000 		.4byte	.LVL141
 4679 083b A8000000 		.4byte	.LFE9
 4680 083f 0200     		.2byte	0x2
 4681 0841 31       		.byte	0x31
 4682 0842 9F       		.byte	0x9f
 4683 0843 00000000 		.4byte	0
 4684 0847 00000000 		.4byte	0
 4685              	.LLST20:
 4686 084b 00000000 		.4byte	.LVL145
 4687 084f 24000000 		.4byte	.LVL148
 4688 0853 0200     		.2byte	0x2
 4689 0855 30       		.byte	0x30
 4690 0856 9F       		.byte	0x9f
 4691 0857 24000000 		.4byte	.LVL148
 4692 085b 36000000 		.4byte	.LVL149
 4693 085f 0100     		.2byte	0x1
 4694 0861 50       		.byte	0x50
 4695 0862 50000000 		.4byte	.LVL152
 4696 0866 6C000000 		.4byte	.LVL154
 4697 086a 0100     		.2byte	0x1
 4698 086c 50       		.byte	0x50
 4699 086d 6C000000 		.4byte	.LVL154
 4700 0871 72000000 		.4byte	.LVL155
 4701 0875 0200     		.2byte	0x2
 4702 0877 30       		.byte	0x30
 4703 0878 9F       		.byte	0x9f
 4704 0879 72000000 		.4byte	.LVL155
 4705 087d 8C000000 		.4byte	.LFE10
 4706 0881 0100     		.2byte	0x1
 4707 0883 50       		.byte	0x50
 4708 0884 00000000 		.4byte	0
 4709 0888 00000000 		.4byte	0
 4710              	.LLST21:
 4711 088c 42000000 		.4byte	.LVL151
 4712 0890 4F000000 		.4byte	.LVL152-1
 4713 0894 0100     		.2byte	0x1
 4714 0896 50       		.byte	0x50
 4715 0897 00000000 		.4byte	0
 4716 089b 00000000 		.4byte	0
 4717              	.LLST22:
ARM GAS  C:\Users\jwvance\AppData\Local\Temp\ccxTgFRe.s 			page 114


 4718 089f 22000000 		.4byte	.LVL147
 4719 08a3 3A000000 		.4byte	.LVL150
 4720 08a7 0100     		.2byte	0x1
 4721 08a9 54       		.byte	0x54
 4722 08aa 42000000 		.4byte	.LVL151
 4723 08ae 6C000000 		.4byte	.LVL154
 4724 08b2 0100     		.2byte	0x1
 4725 08b4 54       		.byte	0x54
 4726 08b5 00000000 		.4byte	0
 4727 08b9 00000000 		.4byte	0
 4728              	.LLST23:
 4729 08bd 16000000 		.4byte	.LVL146
 4730 08c1 4F000000 		.4byte	.LVL152-1
 4731 08c5 0100     		.2byte	0x1
 4732 08c7 53       		.byte	0x53
 4733 08c8 56000000 		.4byte	.LVL153
 4734 08cc 76000000 		.4byte	.LVL156
 4735 08d0 0100     		.2byte	0x1
 4736 08d2 53       		.byte	0x53
 4737 08d3 76000000 		.4byte	.LVL156
 4738 08d7 8C000000 		.4byte	.LFE10
 4739 08db 0100     		.2byte	0x1
 4740 08dd 50       		.byte	0x50
 4741 08de 00000000 		.4byte	0
 4742 08e2 00000000 		.4byte	0
 4743              	.LLST24:
 4744 08e6 00000000 		.4byte	.LVL157
 4745 08ea 0A000000 		.4byte	.LVL158
 4746 08ee 0200     		.2byte	0x2
 4747 08f0 30       		.byte	0x30
 4748 08f1 9F       		.byte	0x9f
 4749 08f2 0A000000 		.4byte	.LVL158
 4750 08f6 28000000 		.4byte	.LVL161
 4751 08fa 0100     		.2byte	0x1
 4752 08fc 55       		.byte	0x55
 4753 08fd 2C000000 		.4byte	.LVL162
 4754 0901 46000000 		.4byte	.LVL166
 4755 0905 0100     		.2byte	0x1
 4756 0907 55       		.byte	0x55
 4757 0908 46000000 		.4byte	.LVL166
 4758 090c 55000000 		.4byte	.LVL167-1
 4759 0910 0100     		.2byte	0x1
 4760 0912 50       		.byte	0x50
 4761 0913 00000000 		.4byte	0
 4762 0917 00000000 		.4byte	0
 4763              	.LLST25:
 4764 091b 00000000 		.4byte	.LVL157
 4765 091f 0A000000 		.4byte	.LVL158
 4766 0923 0200     		.2byte	0x2
 4767 0925 30       		.byte	0x30
 4768 0926 9F       		.byte	0x9f
 4769 0927 0A000000 		.4byte	.LVL158
 4770 092b 28000000 		.4byte	.LVL161
 4771 092f 0100     		.2byte	0x1
 4772 0931 56       		.byte	0x56
 4773 0932 2C000000 		.4byte	.LVL162
 4774 0936 30000000 		.4byte	.LVL163
ARM GAS  C:\Users\jwvance\AppData\Local\Temp\ccxTgFRe.s 			page 115


 4775 093a 0100     		.2byte	0x1
 4776 093c 56       		.byte	0x56
 4777 093d 30000000 		.4byte	.LVL163
 4778 0941 3F000000 		.4byte	.LVL164-1
 4779 0945 0100     		.2byte	0x1
 4780 0947 50       		.byte	0x50
 4781 0948 42000000 		.4byte	.LVL165
 4782 094c 68000000 		.4byte	.LFE3
 4783 0950 0100     		.2byte	0x1
 4784 0952 56       		.byte	0x56
 4785 0953 00000000 		.4byte	0
 4786 0957 00000000 		.4byte	0
 4787              	.LLST26:
 4788 095b 00000000 		.4byte	.LVL168
 4789 095f 36000000 		.4byte	.LVL174
 4790 0963 0100     		.2byte	0x1
 4791 0965 50       		.byte	0x50
 4792 0966 36000000 		.4byte	.LVL174
 4793 096a 46000000 		.4byte	.LVL177
 4794 096e 0100     		.2byte	0x1
 4795 0970 55       		.byte	0x55
 4796 0971 46000000 		.4byte	.LVL177
 4797 0975 A8000000 		.4byte	.LFE11
 4798 0979 0100     		.2byte	0x1
 4799 097b 50       		.byte	0x50
 4800 097c 00000000 		.4byte	0
 4801 0980 00000000 		.4byte	0
 4802              	.LLST27:
 4803 0984 06000000 		.4byte	.LVL169
 4804 0988 24000000 		.4byte	.LVL171
 4805 098c 0100     		.2byte	0x1
 4806 098e 53       		.byte	0x53
 4807 098f 24000000 		.4byte	.LVL171
 4808 0993 2A000000 		.4byte	.LVL172
 4809 0997 0300     		.2byte	0x3
 4810 0999 73       		.byte	0x73
 4811 099a 08       		.sleb128 8
 4812 099b 9F       		.byte	0x9f
 4813 099c 2A000000 		.4byte	.LVL172
 4814 09a0 32000000 		.4byte	.LVL173
 4815 09a4 0700     		.2byte	0x7
 4816 09a6 70       		.byte	0x70
 4817 09a7 00       		.sleb128 0
 4818 09a8 94       		.byte	0x94
 4819 09a9 01       		.byte	0x1
 4820 09aa 3F       		.byte	0x3f
 4821 09ab 1A       		.byte	0x1a
 4822 09ac 9F       		.byte	0x9f
 4823 09ad 46000000 		.4byte	.LVL177
 4824 09b1 48000000 		.4byte	.LVL178
 4825 09b5 0100     		.2byte	0x1
 4826 09b7 53       		.byte	0x53
 4827 09b8 48000000 		.4byte	.LVL178
 4828 09bc 50000000 		.4byte	.LVL179
 4829 09c0 0700     		.2byte	0x7
 4830 09c2 70       		.byte	0x70
 4831 09c3 00       		.sleb128 0
ARM GAS  C:\Users\jwvance\AppData\Local\Temp\ccxTgFRe.s 			page 116


 4832 09c4 94       		.byte	0x94
 4833 09c5 01       		.byte	0x1
 4834 09c6 3F       		.byte	0x3f
 4835 09c7 1A       		.byte	0x1a
 4836 09c8 9F       		.byte	0x9f
 4837 09c9 56000000 		.4byte	.LVL180
 4838 09cd 58000000 		.4byte	.LVL181
 4839 09d1 0100     		.2byte	0x1
 4840 09d3 53       		.byte	0x53
 4841 09d4 58000000 		.4byte	.LVL181
 4842 09d8 6C000000 		.4byte	.LVL182
 4843 09dc 0700     		.2byte	0x7
 4844 09de 70       		.byte	0x70
 4845 09df 00       		.sleb128 0
 4846 09e0 94       		.byte	0x94
 4847 09e1 01       		.byte	0x1
 4848 09e2 3F       		.byte	0x3f
 4849 09e3 1A       		.byte	0x1a
 4850 09e4 9F       		.byte	0x9f
 4851 09e5 6E000000 		.4byte	.LVL183
 4852 09e9 70000000 		.4byte	.LVL184
 4853 09ed 0100     		.2byte	0x1
 4854 09ef 53       		.byte	0x53
 4855 09f0 70000000 		.4byte	.LVL184
 4856 09f4 74000000 		.4byte	.LVL185
 4857 09f8 0700     		.2byte	0x7
 4858 09fa 70       		.byte	0x70
 4859 09fb 00       		.sleb128 0
 4860 09fc 94       		.byte	0x94
 4861 09fd 01       		.byte	0x1
 4862 09fe 3F       		.byte	0x3f
 4863 09ff 1A       		.byte	0x1a
 4864 0a00 9F       		.byte	0x9f
 4865 0a01 74000000 		.4byte	.LVL185
 4866 0a05 76000000 		.4byte	.LVL186
 4867 0a09 0100     		.2byte	0x1
 4868 0a0b 53       		.byte	0x53
 4869 0a0c 76000000 		.4byte	.LVL186
 4870 0a10 88000000 		.4byte	.LVL187
 4871 0a14 0700     		.2byte	0x7
 4872 0a16 70       		.byte	0x70
 4873 0a17 00       		.sleb128 0
 4874 0a18 94       		.byte	0x94
 4875 0a19 01       		.byte	0x1
 4876 0a1a 3F       		.byte	0x3f
 4877 0a1b 1A       		.byte	0x1a
 4878 0a1c 9F       		.byte	0x9f
 4879 0a1d 00000000 		.4byte	0
 4880 0a21 00000000 		.4byte	0
 4881              	.LLST28:
 4882 0a25 14000000 		.4byte	.LVL170
 4883 0a29 6E000000 		.4byte	.LVL183
 4884 0a2d 0100     		.2byte	0x1
 4885 0a2f 56       		.byte	0x56
 4886 0a30 70000000 		.4byte	.LVL184
 4887 0a34 A8000000 		.4byte	.LFE11
 4888 0a38 0100     		.2byte	0x1
ARM GAS  C:\Users\jwvance\AppData\Local\Temp\ccxTgFRe.s 			page 117


 4889 0a3a 56       		.byte	0x56
 4890 0a3b 00000000 		.4byte	0
 4891 0a3f 00000000 		.4byte	0
 4892              	.LLST29:
 4893 0a43 14000000 		.4byte	.LVL170
 4894 0a47 36000000 		.4byte	.LVL174
 4895 0a4b 0200     		.2byte	0x2
 4896 0a4d 31       		.byte	0x31
 4897 0a4e 9F       		.byte	0x9f
 4898 0a4f 36000000 		.4byte	.LVL174
 4899 0a53 3A000000 		.4byte	.LVL175
 4900 0a57 0100     		.2byte	0x1
 4901 0a59 54       		.byte	0x54
 4902 0a5a 40000000 		.4byte	.LVL176
 4903 0a5e 46000000 		.4byte	.LVL177
 4904 0a62 0100     		.2byte	0x1
 4905 0a64 54       		.byte	0x54
 4906 0a65 46000000 		.4byte	.LVL177
 4907 0a69 6E000000 		.4byte	.LVL183
 4908 0a6d 0200     		.2byte	0x2
 4909 0a6f 31       		.byte	0x31
 4910 0a70 9F       		.byte	0x9f
 4911 0a71 70000000 		.4byte	.LVL184
 4912 0a75 A8000000 		.4byte	.LFE11
 4913 0a79 0200     		.2byte	0x2
 4914 0a7b 31       		.byte	0x31
 4915 0a7c 9F       		.byte	0x9f
 4916 0a7d 00000000 		.4byte	0
 4917 0a81 00000000 		.4byte	0
 4918              	.LLST30:
 4919 0a85 16000000 		.4byte	.LVL190
 4920 0a89 1E000000 		.4byte	.LVL191
 4921 0a8d 0100     		.2byte	0x1
 4922 0a8f 50       		.byte	0x50
 4923 0a90 1E000000 		.4byte	.LVL191
 4924 0a94 21000000 		.4byte	.LVL192-1
 4925 0a98 0100     		.2byte	0x1
 4926 0a9a 52       		.byte	0x52
 4927 0a9b 24000000 		.4byte	.LVL193
 4928 0a9f 74000000 		.4byte	.LFE1
 4929 0aa3 0100     		.2byte	0x1
 4930 0aa5 56       		.byte	0x56
 4931 0aa6 00000000 		.4byte	0
 4932 0aaa 00000000 		.4byte	0
 4933              	.LLST31:
 4934 0aae 30000000 		.4byte	.LVL194
 4935 0ab2 38000000 		.4byte	.LVL195
 4936 0ab6 0100     		.2byte	0x1
 4937 0ab8 54       		.byte	0x54
 4938 0ab9 40000000 		.4byte	.LVL196
 4939 0abd 74000000 		.4byte	.LFE1
 4940 0ac1 0100     		.2byte	0x1
 4941 0ac3 54       		.byte	0x54
 4942 0ac4 00000000 		.4byte	0
 4943 0ac8 00000000 		.4byte	0
 4944              		.section	.debug_aranges,"",%progbits
 4945 0000 74000000 		.4byte	0x74
ARM GAS  C:\Users\jwvance\AppData\Local\Temp\ccxTgFRe.s 			page 118


 4946 0004 0200     		.2byte	0x2
 4947 0006 00000000 		.4byte	.Ldebug_info0
 4948 000a 04       		.byte	0x4
 4949 000b 00       		.byte	0
 4950 000c 0000     		.2byte	0
 4951 000e 0000     		.2byte	0
 4952 0010 00000000 		.4byte	.LFB2
 4953 0014 34000000 		.4byte	.LFE2-.LFB2
 4954 0018 00000000 		.4byte	.LFB5
 4955 001c F4010000 		.4byte	.LFE5-.LFB5
 4956 0020 00000000 		.4byte	.LFB4
 4957 0024 F0000000 		.4byte	.LFE4-.LFB4
 4958 0028 00000000 		.4byte	.LFB6
 4959 002c 5C000000 		.4byte	.LFE6-.LFB6
 4960 0030 00000000 		.4byte	.LFB0
 4961 0034 20000000 		.4byte	.LFE0-.LFB0
 4962 0038 00000000 		.4byte	.LFB7
 4963 003c 58010000 		.4byte	.LFE7-.LFB7
 4964 0040 00000000 		.4byte	.LFB8
 4965 0044 8C000000 		.4byte	.LFE8-.LFB8
 4966 0048 00000000 		.4byte	.LFB9
 4967 004c A8000000 		.4byte	.LFE9-.LFB9
 4968 0050 00000000 		.4byte	.LFB10
 4969 0054 8C000000 		.4byte	.LFE10-.LFB10
 4970 0058 00000000 		.4byte	.LFB3
 4971 005c 68000000 		.4byte	.LFE3-.LFB3
 4972 0060 00000000 		.4byte	.LFB11
 4973 0064 A8000000 		.4byte	.LFE11-.LFB11
 4974 0068 00000000 		.4byte	.LFB1
 4975 006c 74000000 		.4byte	.LFE1-.LFB1
 4976 0070 00000000 		.4byte	0
 4977 0074 00000000 		.4byte	0
 4978              		.section	.debug_ranges,"",%progbits
 4979              	.Ldebug_ranges0:
 4980 0000 00000000 		.4byte	.LFB2
 4981 0004 34000000 		.4byte	.LFE2
 4982 0008 00000000 		.4byte	.LFB5
 4983 000c F4010000 		.4byte	.LFE5
 4984 0010 00000000 		.4byte	.LFB4
 4985 0014 F0000000 		.4byte	.LFE4
 4986 0018 00000000 		.4byte	.LFB6
 4987 001c 5C000000 		.4byte	.LFE6
 4988 0020 00000000 		.4byte	.LFB0
 4989 0024 20000000 		.4byte	.LFE0
 4990 0028 00000000 		.4byte	.LFB7
 4991 002c 58010000 		.4byte	.LFE7
 4992 0030 00000000 		.4byte	.LFB8
 4993 0034 8C000000 		.4byte	.LFE8
 4994 0038 00000000 		.4byte	.LFB9
 4995 003c A8000000 		.4byte	.LFE9
 4996 0040 00000000 		.4byte	.LFB10
 4997 0044 8C000000 		.4byte	.LFE10
 4998 0048 00000000 		.4byte	.LFB3
 4999 004c 68000000 		.4byte	.LFE3
 5000 0050 00000000 		.4byte	.LFB11
 5001 0054 A8000000 		.4byte	.LFE11
 5002 0058 00000000 		.4byte	.LFB1
ARM GAS  C:\Users\jwvance\AppData\Local\Temp\ccxTgFRe.s 			page 119


 5003 005c 74000000 		.4byte	.LFE1
 5004 0060 00000000 		.4byte	0
 5005 0064 00000000 		.4byte	0
 5006              		.section	.debug_line,"",%progbits
 5007              	.Ldebug_line0:
 5008 0000 C4040000 		.section	.debug_str,"MS",%progbits,1
 5008      02009400 
 5008      00000201 
 5008      FB0E0D00 
 5008      01010101 
 5009              	.LASF68:
 5010 0000 4D494449 		.ascii	"MIDI1_UART_rxBufferLoopDetect\000"
 5010      315F5541 
 5010      52545F72 
 5010      78427566 
 5010      6665724C 
 5011              	.LASF26:
 5012 001e 636F756E 		.ascii	"count\000"
 5012      7400
 5013              	.LASF10:
 5014 0024 75696E74 		.ascii	"uint16\000"
 5014      313600
 5015              	.LASF83:
 5016 002b 4D494449 		.ascii	"MIDI2_UART_DisableRxInt\000"
 5016      325F5541 
 5016      52545F44 
 5016      69736162 
 5016      6C655278 
 5017              	.LASF77:
 5018 0043 5553425F 		.ascii	"USB_midiOutBuffer\000"
 5018      6D696469 
 5018      4F757442 
 5018      75666665 
 5018      7200
 5019              	.LASF7:
 5020 0055 6C6F6E67 		.ascii	"long long unsigned int\000"
 5020      206C6F6E 
 5020      6720756E 
 5020      7369676E 
 5020      65642069 
 5021              	.LASF19:
 5022 006c 61646472 		.ascii	"addr\000"
 5022      00
 5023              	.LASF63:
 5024 0071 5553425F 		.ascii	"USB_MIDI2_Event\000"
 5024      4D494449 
 5024      325F4576 
 5024      656E7400 
 5025              	.LASF24:
 5026 0081 545F5553 		.ascii	"T_USB_EP_CTL_BLOCK\000"
 5026      425F4550 
 5026      5F43544C 
 5026      5F424C4F 
 5026      434B00
 5027              	.LASF85:
 5028 0094 4D494449 		.ascii	"MIDI2_UART_EnableRxInt\000"
 5028      325F5541 
ARM GAS  C:\Users\jwvance\AppData\Local\Temp\ccxTgFRe.s 			page 120


 5028      52545F45 
 5028      6E61626C 
 5028      65527849 
 5029              	.LASF6:
 5030 00ab 6C6F6E67 		.ascii	"long long int\000"
 5030      206C6F6E 
 5030      6720696E 
 5030      7400
 5031              	.LASF0:
 5032 00b9 7369676E 		.ascii	"signed char\000"
 5032      65642063 
 5032      68617200 
 5033              	.LASF90:
 5034 00c5 5553425F 		.ascii	"USB_EnableOutEP\000"
 5034      456E6162 
 5034      6C654F75 
 5034      74455000 
 5035              	.LASF49:
 5036 00d5 72784275 		.ascii	"rxBufferRead\000"
 5036      66666572 
 5036      52656164 
 5036      00
 5037              	.LASF44:
 5038 00e2 72785374 		.ascii	"rxStat\000"
 5038      617400
 5039              	.LASF65:
 5040 00e9 4D494449 		.ascii	"MIDI1_UART_rxBuffer\000"
 5040      315F5541 
 5040      52545F72 
 5040      78427566 
 5040      66657200 
 5041              	.LASF100:
 5042 00fd 5553425F 		.ascii	"USB_callbackLocalMidiEvent\000"
 5042      63616C6C 
 5042      6261636B 
 5042      4C6F6361 
 5042      6C4D6964 
 5043              	.LASF4:
 5044 0118 6C6F6E67 		.ascii	"long int\000"
 5044      20696E74 
 5044      00
 5045              	.LASF9:
 5046 0121 75696E74 		.ascii	"uint8\000"
 5046      3800
 5047              	.LASF18:
 5048 0127 6570546F 		.ascii	"epToggle\000"
 5048      67676C65 
 5048      00
 5049              	.LASF12:
 5050 0130 646F7562 		.ascii	"double\000"
 5050      6C6500
 5051              	.LASF47:
 5052 0137 6D736752 		.ascii	"msgRtn\000"
 5052      746E00
 5053              	.LASF52:
 5054 013e 65704275 		.ascii	"epBuf\000"
 5054      6600
ARM GAS  C:\Users\jwvance\AppData\Local\Temp\ccxTgFRe.s 			page 121


 5055              	.LASF60:
 5056 0144 5553425F 		.ascii	"USB_MIDI_SIZE\000"
 5056      4D494449 
 5056      5F53495A 
 5056      4500
 5057              	.LASF20:
 5058 0152 65704D6F 		.ascii	"epMode\000"
 5058      646500
 5059              	.LASF74:
 5060 0159 5553425F 		.ascii	"USB_midi_in_ep\000"
 5060      6D696469 
 5060      5F696E5F 
 5060      657000
 5061              	.LASF66:
 5062 0168 4D494449 		.ascii	"MIDI1_UART_rxBufferRead\000"
 5062      315F5541 
 5062      52545F72 
 5062      78427566 
 5062      66657252 
 5063              	.LASF75:
 5064 0180 5553425F 		.ascii	"USB_midiInBuffer\000"
 5064      6D696469 
 5064      496E4275 
 5064      66666572 
 5064      00
 5065              	.LASF8:
 5066 0191 756E7369 		.ascii	"unsigned int\000"
 5066      676E6564 
 5066      20696E74 
 5066      00
 5067              	.LASF31:
 5068 019e 73726342 		.ascii	"srcBuff\000"
 5068      75666600 
 5069              	.LASF67:
 5070 01a6 4D494449 		.ascii	"MIDI1_UART_rxBufferWrite\000"
 5070      315F5541 
 5070      52545F72 
 5070      78427566 
 5070      66657257 
 5071              	.LASF5:
 5072 01bf 6C6F6E67 		.ascii	"long unsigned int\000"
 5072      20756E73 
 5072      69676E65 
 5072      6420696E 
 5072      7400
 5073              	.LASF27:
 5074 01d1 73697A65 		.ascii	"size\000"
 5074      00
 5075              	.LASF3:
 5076 01d6 73686F72 		.ascii	"short unsigned int\000"
 5076      7420756E 
 5076      7369676E 
 5076      65642069 
 5076      6E7400
 5077              	.LASF46:
 5078 01e9 5553425F 		.ascii	"USB_MIDI1_GetEvent\000"
 5078      4D494449 
ARM GAS  C:\Users\jwvance\AppData\Local\Temp\ccxTgFRe.s 			page 122


 5078      315F4765 
 5078      74457665 
 5078      6E7400
 5079              	.LASF53:
 5080 01fc 5553425F 		.ascii	"USB_MIDI2_GetEvent\000"
 5080      4D494449 
 5080      325F4765 
 5080      74457665 
 5080      6E7400
 5081              	.LASF86:
 5082 020f 4D494449 		.ascii	"MIDI1_UART_Start\000"
 5082      315F5541 
 5082      52545F53 
 5082      74617274 
 5082      00
 5083              	.LASF39:
 5084 0220 5553425F 		.ascii	"USB_MIDI_Init\000"
 5084      4D494449 
 5084      5F496E69 
 5084      7400
 5085              	.LASF30:
 5086 022e 5553425F 		.ascii	"USB_MIDI_RX_STATUS\000"
 5086      4D494449 
 5086      5F52585F 
 5086      53544154 
 5086      555300
 5087              	.LASF42:
 5088 0241 5553425F 		.ascii	"USB_ProcessMidiIn\000"
 5088      50726F63 
 5088      6573734D 
 5088      69646949 
 5088      6E00
 5089              	.LASF50:
 5090 0253 72784275 		.ascii	"rxBufferLoopDetect\000"
 5090      66666572 
 5090      4C6F6F70 
 5090      44657465 
 5090      637400
 5091              	.LASF23:
 5092 0266 696E7465 		.ascii	"interface\000"
 5092      72666163 
 5092      6500
 5093              	.LASF51:
 5094 0270 5553425F 		.ascii	"USB_MIDI1_ProcessUsbOut\000"
 5094      4D494449 
 5094      315F5072 
 5094      6F636573 
 5094      73557362 
 5095              	.LASF92:
 5096 0288 4D494449 		.ascii	"MIDI2_UART_PutChar\000"
 5096      325F5541 
 5096      52545F50 
 5096      75744368 
 5096      617200
 5097              	.LASF96:
 5098 029b 474E5520 		.ascii	"GNU C 4.9.3 20150303 (release) [ARM/embedded-4_9-br"
 5098      4320342E 
ARM GAS  C:\Users\jwvance\AppData\Local\Temp\ccxTgFRe.s 			page 123


 5098      392E3320 
 5098      32303135 
 5098      30333033 
 5099 02ce 616E6368 		.ascii	"anch revision 221220] -mcpu=cortex-m3 -mthumb -g -O"
 5099      20726576 
 5099      6973696F 
 5099      6E203232 
 5099      31323230 
 5100 0301 32202D66 		.ascii	"2 -ffunction-sections -ffat-lto-objects\000"
 5100      66756E63 
 5100      74696F6E 
 5100      2D736563 
 5100      74696F6E 
 5101              	.LASF62:
 5102 0329 5553425F 		.ascii	"USB_MIDI1_TxRunStat\000"
 5102      4D494449 
 5102      315F5478 
 5102      52756E53 
 5102      74617400 
 5103              	.LASF17:
 5104 033d 68774570 		.ascii	"hwEpState\000"
 5104      53746174 
 5104      6500
 5105              	.LASF35:
 5106 0347 73726342 		.ascii	"srcBuffOne\000"
 5106      7566664F 
 5106      6E6500
 5107              	.LASF14:
 5108 0352 73697A65 		.ascii	"sizetype\000"
 5108      74797065 
 5108      00
 5109              	.LASF36:
 5110 035b 6D696469 		.ascii	"midiMsg\000"
 5110      4D736700 
 5111              	.LASF15:
 5112 0363 61747472 		.ascii	"attrib\000"
 5112      696200
 5113              	.LASF54:
 5114 036a 5553425F 		.ascii	"USB_MIDI_IN_Service\000"
 5114      4D494449 
 5114      5F494E5F 
 5114      53657276 
 5114      69636500 
 5115              	.LASF70:
 5116 037e 4D494449 		.ascii	"MIDI2_UART_rxBufferRead\000"
 5116      325F5541 
 5116      52545F72 
 5116      78427566 
 5116      66657252 
 5117              	.LASF28:
 5118 0396 72756E73 		.ascii	"runstat\000"
 5118      74617400 
 5119              	.LASF72:
 5120 039e 4D494449 		.ascii	"MIDI2_UART_rxBufferLoopDetect\000"
 5120      325F5541 
 5120      52545F72 
 5120      78427566 
ARM GAS  C:\Users\jwvance\AppData\Local\Temp\ccxTgFRe.s 			page 124


 5120      6665724C 
 5121              	.LASF87:
 5122 03bc 5553425F 		.ascii	"USB_LoadInEP\000"
 5122      4C6F6164 
 5122      496E4550 
 5122      00
 5123              	.LASF84:
 5124 03c9 4D494449 		.ascii	"MIDI1_UART_EnableRxInt\000"
 5124      315F5541 
 5124      52545F45 
 5124      6E61626C 
 5124      65527849 
 5125              	.LASF80:
 5126 03e0 5553425F 		.ascii	"USB_EP\000"
 5126      455000
 5127              	.LASF88:
 5128 03e7 4379496E 		.ascii	"CyIntSetPriority\000"
 5128      74536574 
 5128      5072696F 
 5128      72697479 
 5128      00
 5129              	.LASF78:
 5130 03f8 5553425F 		.ascii	"USB_MIDI1_InqFlags\000"
 5130      4D494449 
 5130      315F496E 
 5130      71466C61 
 5130      677300
 5131              	.LASF79:
 5132 040b 5553425F 		.ascii	"USB_MIDI2_InqFlags\000"
 5132      4D494449 
 5132      325F496E 
 5132      71466C61 
 5132      677300
 5133              	.LASF11:
 5134 041e 666C6F61 		.ascii	"float\000"
 5134      7400
 5135              	.LASF61:
 5136 0424 5553425F 		.ascii	"USB_MIDI1_Event\000"
 5136      4D494449 
 5136      315F4576 
 5136      656E7400 
 5137              	.LASF16:
 5138 0434 61706945 		.ascii	"apiEpState\000"
 5138      70537461 
 5138      746500
 5139              	.LASF81:
 5140 043f 5553425F 		.ascii	"USB_MIDI_IN_EP_Service\000"
 5140      4D494449 
 5140      5F494E5F 
 5140      45505F53 
 5140      65727669 
 5141              	.LASF91:
 5142 0456 4D494449 		.ascii	"MIDI1_UART_PutChar\000"
 5142      315F5541 
 5142      52545F50 
 5142      75744368 
 5142      617200
ARM GAS  C:\Users\jwvance\AppData\Local\Temp\ccxTgFRe.s 			page 125


 5143              	.LASF73:
 5144 0469 5553425F 		.ascii	"USB_midiInPointer\000"
 5144      6D696469 
 5144      496E506F 
 5144      696E7465 
 5144      7200
 5145              	.LASF32:
 5146 047b 6576656E 		.ascii	"eventLen\000"
 5146      744C656E 
 5146      00
 5147              	.LASF1:
 5148 0484 756E7369 		.ascii	"unsigned char\000"
 5148      676E6564 
 5148      20636861 
 5148      7200
 5149              	.LASF97:
 5150 0492 47656E65 		.ascii	"Generated_Source\\PSoC5\\USB_midi.c\000"
 5150      72617465 
 5150      645F536F 
 5150      75726365 
 5150      5C50536F 
 5151              	.LASF2:
 5152 04b4 73686F72 		.ascii	"short int\000"
 5152      7420696E 
 5152      7400
 5153              	.LASF37:
 5154 04be 72657445 		.ascii	"retError\000"
 5154      72726F72 
 5154      00
 5155              	.LASF71:
 5156 04c7 4D494449 		.ascii	"MIDI2_UART_rxBufferWrite\000"
 5156      325F5541 
 5156      52545F72 
 5156      78427566 
 5156      66657257 
 5157              	.LASF69:
 5158 04e0 4D494449 		.ascii	"MIDI2_UART_rxBuffer\000"
 5158      325F5541 
 5158      52545F72 
 5158      78427566 
 5158      66657200 
 5159              	.LASF33:
 5160 04f4 6361626C 		.ascii	"cable\000"
 5160      6500
 5161              	.LASF95:
 5162 04fa 5553425F 		.ascii	"USB_ReadOutEP\000"
 5162      52656164 
 5162      4F757445 
 5162      5000
 5163              	.LASF56:
 5164 0508 5553425F 		.ascii	"USB_MIDI_OUT_EP_Service\000"
 5164      4D494449 
 5164      5F4F5554 
 5164      5F45505F 
 5164      53657276 
 5165              	.LASF58:
 5166 0520 6F757450 		.ascii	"outPointer\000"
ARM GAS  C:\Users\jwvance\AppData\Local\Temp\ccxTgFRe.s 			page 126


 5166      6F696E74 
 5166      657200
 5167              	.LASF45:
 5168 052b 6D696469 		.ascii	"midiReturn\000"
 5168      52657475 
 5168      726E00
 5169              	.LASF48:
 5170 0536 72784461 		.ascii	"rxData\000"
 5170      746100
 5171              	.LASF25:
 5172 053d 6C656E67 		.ascii	"length\000"
 5172      746800
 5173              	.LASF13:
 5174 0544 63686172 		.ascii	"char\000"
 5174      00
 5175              	.LASF22:
 5176 0549 62756666 		.ascii	"bufferSize\000"
 5176      65725369 
 5176      7A6500
 5177              	.LASF89:
 5178 0554 4D494449 		.ascii	"MIDI2_UART_Start\000"
 5178      325F5541 
 5178      52545F53 
 5178      74617274 
 5178      00
 5179              	.LASF82:
 5180 0565 4D494449 		.ascii	"MIDI1_UART_DisableRxInt\000"
 5180      315F5541 
 5180      52545F44 
 5180      69736162 
 5180      6C655278 
 5181              	.LASF99:
 5182 057d 6D736749 		.ascii	"msgIndex\000"
 5182      6E646578 
 5182      00
 5183              	.LASF21:
 5184 0586 62756666 		.ascii	"buffOffset\000"
 5184      4F666673 
 5184      657400
 5185              	.LASF76:
 5186 0591 5553425F 		.ascii	"USB_midi_out_ep\000"
 5186      6D696469 
 5186      5F6F7574 
 5186      5F657000 
 5187              	.LASF43:
 5188 05a1 6D446174 		.ascii	"mData\000"
 5188      6100
 5189              	.LASF93:
 5190 05a7 5553425F 		.ascii	"USB_GetEPState\000"
 5190      47657445 
 5190      50537461 
 5190      746500
 5191              	.LASF98:
 5192 05b6 433A5C55 		.ascii	"C:\\Users\\jwvance\\Desktop\\Hummingbird\\Hummingbi"
 5192      73657273 
 5192      5C6A7776 
 5192      616E6365 
ARM GAS  C:\Users\jwvance\AppData\Local\Temp\ccxTgFRe.s 			page 127


 5192      5C446573 
 5193 05e4 72642843 		.ascii	"rd(Continuous Output).cydsn\000"
 5193      6F6E7469 
 5193      6E756F75 
 5193      73204F75 
 5193      74707574 
 5194              	.LASF57:
 5195 0600 6F75744C 		.ascii	"outLength\000"
 5195      656E6774 
 5195      6800
 5196              	.LASF29:
 5197 060a 6D736742 		.ascii	"msgBuff\000"
 5197      75666600 
 5198              	.LASF59:
 5199 0612 646D6153 		.ascii	"dmaState\000"
 5199      74617465 
 5199      00
 5200              	.LASF41:
 5201 061b 5553425F 		.ascii	"USB_PutUsbMidiIn\000"
 5201      50757455 
 5201      73624D69 
 5201      6469496E 
 5201      00
 5202              	.LASF64:
 5203 062c 5553425F 		.ascii	"USB_MIDI2_TxRunStat\000"
 5203      4D494449 
 5203      325F5478 
 5203      52756E53 
 5203      74617400 
 5204              	.LASF34:
 5205 0640 73726342 		.ascii	"srcBuffZero\000"
 5205      7566665A 
 5205      65726F00 
 5206              	.LASF94:
 5207 064c 5553425F 		.ascii	"USB_GetEPCount\000"
 5207      47657445 
 5207      50436F75 
 5207      6E7400
 5208              	.LASF55:
 5209 065b 5553425F 		.ascii	"USB_MIDI2_ProcessUsbOut\000"
 5209      4D494449 
 5209      325F5072 
 5209      6F636573 
 5209      73557362 
 5210              	.LASF40:
 5211 0673 5553425F 		.ascii	"USB_MIDI_EP_Init\000"
 5211      4D494449 
 5211      5F45505F 
 5211      496E6974 
 5211      00
 5212              	.LASF38:
 5213 0684 5553425F 		.ascii	"USB_PrepareInBuffer\000"
 5213      50726570 
 5213      61726549 
 5213      6E427566 
 5213      66657200 
 5214              		.ident	"GCC: (GNU Tools for ARM Embedded Processors) 4.9.3 20150303 (release) [ARM/embedded-4_9-br
ARM GAS  C:\Users\jwvance\AppData\Local\Temp\ccxTgFRe.s 			page 128


