ARM GAS  C:\Users\jwvance\AppData\Local\Temp\ccxTgFRe.s 			page 1


   1              		.syntax unified
   2              		.cpu cortex-m3
   3              		.fpu softvfp
   4              		.eabi_attribute 20, 1
   5              		.eabi_attribute 21, 1
   6              		.eabi_attribute 23, 3
   7              		.eabi_attribute 24, 1
   8              		.eabi_attribute 25, 1
   9              		.eabi_attribute 26, 1
  10              		.eabi_attribute 30, 2
  11              		.eabi_attribute 34, 1
  12              		.eabi_attribute 18, 4
  13              		.thumb
  14              		.file	"USB_midi.c"
  15              		.text
  16              	.Ltext0:
  17              		.cfi_sections	.debug_frame
  18              		.section	.text.USB_MIDI_IN_EP_Service,"ax",%progbits
  19              		.align	2
  20              		.global	USB_MIDI_IN_EP_Service
  21              		.thumb
  22              		.thumb_func
  23              		.type	USB_MIDI_IN_EP_Service, %function
  24              	USB_MIDI_IN_EP_Service:
  25              	.LFB2:
  26              		.file 1 "Generated_Source\\PSoC5\\USB_midi.c"
   1:Generated_Source\PSoC5/USB_midi.c **** /*******************************************************************************
   2:Generated_Source\PSoC5/USB_midi.c **** * File Name: USB_midi.c
   3:Generated_Source\PSoC5/USB_midi.c **** * Version 2.70
   4:Generated_Source\PSoC5/USB_midi.c **** *
   5:Generated_Source\PSoC5/USB_midi.c **** * Description:
   6:Generated_Source\PSoC5/USB_midi.c **** *  MIDI Streaming request handler.
   7:Generated_Source\PSoC5/USB_midi.c **** *  This file contains routines for sending and receiving MIDI
   8:Generated_Source\PSoC5/USB_midi.c **** *  messages, and handles running status in both directions.
   9:Generated_Source\PSoC5/USB_midi.c **** *
  10:Generated_Source\PSoC5/USB_midi.c **** * Related Document:
  11:Generated_Source\PSoC5/USB_midi.c **** *  Universal Serial Bus Device Class Definition for MIDI Devices Release 1.0
  12:Generated_Source\PSoC5/USB_midi.c **** *  MIDI 1.0 Detailed Specification Document Version 4.2
  13:Generated_Source\PSoC5/USB_midi.c **** *
  14:Generated_Source\PSoC5/USB_midi.c **** ********************************************************************************
  15:Generated_Source\PSoC5/USB_midi.c **** * Copyright 2008-2013, Cypress Semiconductor Corporation.  All rights reserved.
  16:Generated_Source\PSoC5/USB_midi.c **** * You may use this file only in accordance with the license, terms, conditions,
  17:Generated_Source\PSoC5/USB_midi.c **** * disclaimers, and limitations in the end user license agreement accompanying
  18:Generated_Source\PSoC5/USB_midi.c **** * the software package with which this file was provided.
  19:Generated_Source\PSoC5/USB_midi.c **** *******************************************************************************/
  20:Generated_Source\PSoC5/USB_midi.c **** 
  21:Generated_Source\PSoC5/USB_midi.c **** #include "USB.h"
  22:Generated_Source\PSoC5/USB_midi.c **** 
  23:Generated_Source\PSoC5/USB_midi.c **** #if defined(USB_ENABLE_MIDI_STREAMING)
  24:Generated_Source\PSoC5/USB_midi.c **** 
  25:Generated_Source\PSoC5/USB_midi.c **** #include "USB_midi.h"
  26:Generated_Source\PSoC5/USB_midi.c **** #include "USB_pvt.h"
  27:Generated_Source\PSoC5/USB_midi.c **** 
  28:Generated_Source\PSoC5/USB_midi.c **** 
  29:Generated_Source\PSoC5/USB_midi.c **** /***************************************
  30:Generated_Source\PSoC5/USB_midi.c **** *    MIDI Constants
  31:Generated_Source\PSoC5/USB_midi.c **** ***************************************/
ARM GAS  C:\Users\jwvance\AppData\Local\Temp\ccxTgFRe.s 			page 2


  32:Generated_Source\PSoC5/USB_midi.c **** 
  33:Generated_Source\PSoC5/USB_midi.c **** #if (USB_MIDI_EXT_MODE >= USB_ONE_EXT_INTRF)
  34:Generated_Source\PSoC5/USB_midi.c ****     /* The Size of the MIDI messages (MIDI Table 4-1) */
  35:Generated_Source\PSoC5/USB_midi.c ****     static const uint8 CYCODE USB_MIDI_SIZE[] = {
  36:Generated_Source\PSoC5/USB_midi.c ****     /*  Miscellaneous function codes(Reserved)  */ 0x03u,
  37:Generated_Source\PSoC5/USB_midi.c ****     /*  Cable events (Reserved)                 */ 0x03u,
  38:Generated_Source\PSoC5/USB_midi.c ****     /*  Two-byte System Common messages         */ 0x02u,
  39:Generated_Source\PSoC5/USB_midi.c ****     /*  Three-byte System Common messages       */ 0x03u,
  40:Generated_Source\PSoC5/USB_midi.c ****     /*  SysEx starts or continues               */ 0x03u,
  41:Generated_Source\PSoC5/USB_midi.c ****     /*  Single-byte System Common Message or
  42:Generated_Source\PSoC5/USB_midi.c ****         SysEx ends with following single byte   */ 0x01u,
  43:Generated_Source\PSoC5/USB_midi.c ****     /*  SysEx ends with following two bytes     */ 0x02u,
  44:Generated_Source\PSoC5/USB_midi.c ****     /*  SysEx ends with following three bytes   */ 0x03u,
  45:Generated_Source\PSoC5/USB_midi.c ****     /*  Note-off                                */ 0x03u,
  46:Generated_Source\PSoC5/USB_midi.c ****     /*  Note-on                                 */ 0x03u,
  47:Generated_Source\PSoC5/USB_midi.c ****     /*  Poly-KeyPress                           */ 0x03u,
  48:Generated_Source\PSoC5/USB_midi.c ****     /*  Control Change                          */ 0x03u,
  49:Generated_Source\PSoC5/USB_midi.c ****     /*  Program Change                          */ 0x02u,
  50:Generated_Source\PSoC5/USB_midi.c ****     /*  Channel Pressure                        */ 0x02u,
  51:Generated_Source\PSoC5/USB_midi.c ****     /*  PitchBend Change                        */ 0x03u,
  52:Generated_Source\PSoC5/USB_midi.c ****     /*  Single Byte                             */ 0x01u
  53:Generated_Source\PSoC5/USB_midi.c ****     };
  54:Generated_Source\PSoC5/USB_midi.c **** #endif  /* USB_MIDI_EXT_MODE >= USB_ONE_EXT_INTRF */
  55:Generated_Source\PSoC5/USB_midi.c **** 
  56:Generated_Source\PSoC5/USB_midi.c **** 
  57:Generated_Source\PSoC5/USB_midi.c **** 
  58:Generated_Source\PSoC5/USB_midi.c **** /***************************************
  59:Generated_Source\PSoC5/USB_midi.c **** *  Global variables
  60:Generated_Source\PSoC5/USB_midi.c **** ***************************************/
  61:Generated_Source\PSoC5/USB_midi.c **** 
  62:Generated_Source\PSoC5/USB_midi.c **** #if (USB_MIDI_IN_BUFF_SIZE > 0)
  63:Generated_Source\PSoC5/USB_midi.c ****     #if (USB_MIDI_IN_BUFF_SIZE >= 256)
  64:Generated_Source\PSoC5/USB_midi.c ****         volatile uint16 USB_midiInPointer;                            /* Input endpoint buffer poin
  65:Generated_Source\PSoC5/USB_midi.c ****     #else
  66:Generated_Source\PSoC5/USB_midi.c ****         volatile uint8 USB_midiInPointer;                             /* Input endpoint buffer poin
  67:Generated_Source\PSoC5/USB_midi.c ****     #endif /* (USB_MIDI_IN_BUFF_SIZE >= 256) */
  68:Generated_Source\PSoC5/USB_midi.c ****     volatile uint8 USB_midi_in_ep;                                    /* Input endpoint number */
  69:Generated_Source\PSoC5/USB_midi.c ****     uint8 USB_midiInBuffer[USB_MIDI_IN_BUFF_SIZE];       /* Input endpoint buffer */
  70:Generated_Source\PSoC5/USB_midi.c **** #endif /* (USB_MIDI_IN_BUFF_SIZE > 0) */
  71:Generated_Source\PSoC5/USB_midi.c **** 
  72:Generated_Source\PSoC5/USB_midi.c **** #if (USB_MIDI_OUT_BUFF_SIZE > 0)
  73:Generated_Source\PSoC5/USB_midi.c ****     volatile uint8 USB_midi_out_ep;                                   /* Output endpoint number */
  74:Generated_Source\PSoC5/USB_midi.c ****     uint8 USB_midiOutBuffer[USB_MIDI_OUT_BUFF_SIZE];     /* Output endpoint buffer */
  75:Generated_Source\PSoC5/USB_midi.c **** #endif /* (USB_MIDI_OUT_BUFF_SIZE > 0) */
  76:Generated_Source\PSoC5/USB_midi.c **** 
  77:Generated_Source\PSoC5/USB_midi.c **** #if (USB_MIDI_EXT_MODE >= USB_ONE_EXT_INTRF)
  78:Generated_Source\PSoC5/USB_midi.c ****     static USB_MIDI_RX_STATUS USB_MIDI1_Event;            /* MIDI RX status structure */
  79:Generated_Source\PSoC5/USB_midi.c ****     static volatile uint8 USB_MIDI1_TxRunStat;                         /* MIDI Output running statu
  80:Generated_Source\PSoC5/USB_midi.c ****     volatile uint8 USB_MIDI1_InqFlags;                                 /* Device inquiry flag */
  81:Generated_Source\PSoC5/USB_midi.c **** 
  82:Generated_Source\PSoC5/USB_midi.c ****     #if (USB_MIDI_EXT_MODE >= USB_TWO_EXT_INTRF)
  83:Generated_Source\PSoC5/USB_midi.c ****         static USB_MIDI_RX_STATUS USB_MIDI2_Event;        /* MIDI RX status structure */
  84:Generated_Source\PSoC5/USB_midi.c ****         static volatile uint8 USB_MIDI2_TxRunStat;                     /* MIDI Output running statu
  85:Generated_Source\PSoC5/USB_midi.c ****         volatile uint8 USB_MIDI2_InqFlags;                             /* Device inquiry flag */
  86:Generated_Source\PSoC5/USB_midi.c ****     #endif /* (USB_MIDI_EXT_MODE >= USB_TWO_EXT_INTRF) */
  87:Generated_Source\PSoC5/USB_midi.c **** #endif /* (USB_MIDI_EXT_MODE >= USB_ONE_EXT_INTRF) */
  88:Generated_Source\PSoC5/USB_midi.c **** 
ARM GAS  C:\Users\jwvance\AppData\Local\Temp\ccxTgFRe.s 			page 3


  89:Generated_Source\PSoC5/USB_midi.c **** 
  90:Generated_Source\PSoC5/USB_midi.c **** /***************************************
  91:Generated_Source\PSoC5/USB_midi.c **** * Custom Declarations
  92:Generated_Source\PSoC5/USB_midi.c **** ***************************************/
  93:Generated_Source\PSoC5/USB_midi.c **** 
  94:Generated_Source\PSoC5/USB_midi.c **** /* `#START MIDI_CUSTOM_DECLARATIONS` Place your declaration here */
  95:Generated_Source\PSoC5/USB_midi.c **** #include "LED_OutA.h"
  96:Generated_Source\PSoC5/USB_midi.c **** #include "LED_OutB.h"
  97:Generated_Source\PSoC5/USB_midi.c **** /* `#END` */
  98:Generated_Source\PSoC5/USB_midi.c **** 
  99:Generated_Source\PSoC5/USB_midi.c **** 
 100:Generated_Source\PSoC5/USB_midi.c **** /***************************************
 101:Generated_Source\PSoC5/USB_midi.c **** * Optional MIDI APIs
 102:Generated_Source\PSoC5/USB_midi.c **** ***************************************/
 103:Generated_Source\PSoC5/USB_midi.c **** #if (USB_ENABLE_MIDI_API != 0u)
 104:Generated_Source\PSoC5/USB_midi.c **** 
 105:Generated_Source\PSoC5/USB_midi.c **** 
 106:Generated_Source\PSoC5/USB_midi.c **** /*******************************************************************************
 107:Generated_Source\PSoC5/USB_midi.c **** * Function Name: USB_MIDI_EP_Init
 108:Generated_Source\PSoC5/USB_midi.c **** ********************************************************************************
 109:Generated_Source\PSoC5/USB_midi.c **** *
 110:Generated_Source\PSoC5/USB_midi.c **** * Summary:
 111:Generated_Source\PSoC5/USB_midi.c **** *  This function initializes the MIDI interface and UART(s) to be ready to
 112:Generated_Source\PSoC5/USB_midi.c **** *   receive data from the PC and MIDI ports.
 113:Generated_Source\PSoC5/USB_midi.c **** *
 114:Generated_Source\PSoC5/USB_midi.c **** * Parameters:
 115:Generated_Source\PSoC5/USB_midi.c **** *  None
 116:Generated_Source\PSoC5/USB_midi.c **** *
 117:Generated_Source\PSoC5/USB_midi.c **** * Return:
 118:Generated_Source\PSoC5/USB_midi.c **** *  None
 119:Generated_Source\PSoC5/USB_midi.c **** *
 120:Generated_Source\PSoC5/USB_midi.c **** * Global variables:
 121:Generated_Source\PSoC5/USB_midi.c **** *  USB_midiInBuffer: This buffer is used for saving and combining
 122:Generated_Source\PSoC5/USB_midi.c **** *    the received data from UART(s) and(or) generated internally by
 123:Generated_Source\PSoC5/USB_midi.c **** *    PutUsbMidiIn() function messages. USB_MIDI_IN_EP_Service()
 124:Generated_Source\PSoC5/USB_midi.c **** *    function transfers the data from this buffer to the PC.
 125:Generated_Source\PSoC5/USB_midi.c **** *  USB_midiOutBuffer: This buffer is used by the
 126:Generated_Source\PSoC5/USB_midi.c **** *    USB_MIDI_OUT_EP_Service() function for saving the received
 127:Generated_Source\PSoC5/USB_midi.c **** *    from the PC data, then the data are parsed and transferred to UART(s)
 128:Generated_Source\PSoC5/USB_midi.c **** *    buffer and to the internal processing by the
 129:Generated_Source\PSoC5/USB_midi.c **** *    USB_callbackLocalMidiEvent function.
 130:Generated_Source\PSoC5/USB_midi.c **** *  USB_midi_out_ep: Used as an OUT endpoint number.
 131:Generated_Source\PSoC5/USB_midi.c **** *  USB_midi_in_ep: Used as an IN endpoint number.
 132:Generated_Source\PSoC5/USB_midi.c **** *   USB_midiInPointer: Initialized to zero.
 133:Generated_Source\PSoC5/USB_midi.c **** *
 134:Generated_Source\PSoC5/USB_midi.c **** * Reentrant:
 135:Generated_Source\PSoC5/USB_midi.c **** *  No
 136:Generated_Source\PSoC5/USB_midi.c **** *
 137:Generated_Source\PSoC5/USB_midi.c **** *******************************************************************************/
 138:Generated_Source\PSoC5/USB_midi.c **** void USB_MIDI_EP_Init(void) 
 139:Generated_Source\PSoC5/USB_midi.c **** {
 140:Generated_Source\PSoC5/USB_midi.c ****     #if (USB_MIDI_IN_BUFF_SIZE > 0)
 141:Generated_Source\PSoC5/USB_midi.c ****        USB_midiInPointer = 0u;
 142:Generated_Source\PSoC5/USB_midi.c ****     #endif /* (USB_MIDI_IN_BUFF_SIZE > 0) */
 143:Generated_Source\PSoC5/USB_midi.c **** 
 144:Generated_Source\PSoC5/USB_midi.c ****     #if(USB_EP_MM == USB__EP_DMAAUTO)
 145:Generated_Source\PSoC5/USB_midi.c ****         #if (USB_MIDI_IN_BUFF_SIZE > 0)
ARM GAS  C:\Users\jwvance\AppData\Local\Temp\ccxTgFRe.s 			page 4


 146:Generated_Source\PSoC5/USB_midi.c ****             /* Init DMA configurations for IN EP*/
 147:Generated_Source\PSoC5/USB_midi.c ****             USB_LoadInEP(USB_midi_in_ep, USB_midiInBuffer,
 148:Generated_Source\PSoC5/USB_midi.c ****                                                                                 USB_MIDI_IN_BUFF_SI
 149:Generated_Source\PSoC5/USB_midi.c **** 
 150:Generated_Source\PSoC5/USB_midi.c ****         #endif  /* (USB_MIDI_IN_BUFF_SIZE > 0) */
 151:Generated_Source\PSoC5/USB_midi.c ****         #if (USB_MIDI_OUT_BUFF_SIZE > 0)
 152:Generated_Source\PSoC5/USB_midi.c ****             /* Init DMA configurations for OUT EP*/
 153:Generated_Source\PSoC5/USB_midi.c ****             (void)USB_ReadOutEP(USB_midi_out_ep, USB_midiOutBuffer,
 154:Generated_Source\PSoC5/USB_midi.c ****                                                                                 USB_MIDI_OUT_BUFF_S
 155:Generated_Source\PSoC5/USB_midi.c ****         #endif /* (USB_MIDI_OUT_BUFF_SIZE > 0) */
 156:Generated_Source\PSoC5/USB_midi.c ****     #endif /* (USB_EP_MM == USB__EP_DMAAUTO) */
 157:Generated_Source\PSoC5/USB_midi.c **** 
 158:Generated_Source\PSoC5/USB_midi.c ****     #if (USB_MIDI_OUT_BUFF_SIZE > 0)
 159:Generated_Source\PSoC5/USB_midi.c ****         USB_EnableOutEP(USB_midi_out_ep);
 160:Generated_Source\PSoC5/USB_midi.c ****     #endif /* (USB_MIDI_OUT_BUFF_SIZE > 0) */
 161:Generated_Source\PSoC5/USB_midi.c **** 
 162:Generated_Source\PSoC5/USB_midi.c ****     /* Initialize the MIDI port(s) */
 163:Generated_Source\PSoC5/USB_midi.c ****     #if (USB_MIDI_EXT_MODE >= USB_ONE_EXT_INTRF)
 164:Generated_Source\PSoC5/USB_midi.c ****         USB_MIDI_Init();
 165:Generated_Source\PSoC5/USB_midi.c ****     #endif /* (USB_MIDI_EXT_MODE >= USB_ONE_EXT_INTRF) */
 166:Generated_Source\PSoC5/USB_midi.c **** }
 167:Generated_Source\PSoC5/USB_midi.c **** 
 168:Generated_Source\PSoC5/USB_midi.c **** #if (USB_MIDI_OUT_BUFF_SIZE > 0)
 169:Generated_Source\PSoC5/USB_midi.c **** 
 170:Generated_Source\PSoC5/USB_midi.c **** 
 171:Generated_Source\PSoC5/USB_midi.c ****     /*******************************************************************************
 172:Generated_Source\PSoC5/USB_midi.c ****     * Function Name: USB_MIDI_OUT_EP_Service
 173:Generated_Source\PSoC5/USB_midi.c ****     ********************************************************************************
 174:Generated_Source\PSoC5/USB_midi.c ****     *
 175:Generated_Source\PSoC5/USB_midi.c ****     * Summary:
 176:Generated_Source\PSoC5/USB_midi.c ****     *  Services the USB MIDI OUT endpoints.
 177:Generated_Source\PSoC5/USB_midi.c ****     *  This function is called from OUT EP ISR. It transfers the received from PC
 178:Generated_Source\PSoC5/USB_midi.c ****     *  data to the external MIDI port(UART TX buffer) and calls the
 179:Generated_Source\PSoC5/USB_midi.c ****     *  USB_callbackLocalMidiEvent() function to internal process
 180:Generated_Source\PSoC5/USB_midi.c ****     *  of the MIDI data.
 181:Generated_Source\PSoC5/USB_midi.c ****     *  This function is blocked by UART, if not enough space is available in UART
 182:Generated_Source\PSoC5/USB_midi.c ****     *  TX buffer. Therefore it is recommended to use large UART TX buffer size.
 183:Generated_Source\PSoC5/USB_midi.c ****     *
 184:Generated_Source\PSoC5/USB_midi.c ****     * Parameters:
 185:Generated_Source\PSoC5/USB_midi.c ****     *  None
 186:Generated_Source\PSoC5/USB_midi.c ****     *
 187:Generated_Source\PSoC5/USB_midi.c ****     * Return:
 188:Generated_Source\PSoC5/USB_midi.c ****     *  None
 189:Generated_Source\PSoC5/USB_midi.c ****     *
 190:Generated_Source\PSoC5/USB_midi.c ****     * Global variables:
 191:Generated_Source\PSoC5/USB_midi.c ****     *  USB_midiOutBuffer: Used as temporary buffer between USB internal
 192:Generated_Source\PSoC5/USB_midi.c ****     *   memory and UART TX buffer.
 193:Generated_Source\PSoC5/USB_midi.c ****     *  USB_midi_out_ep: Used as an OUT endpoint number.
 194:Generated_Source\PSoC5/USB_midi.c ****     *
 195:Generated_Source\PSoC5/USB_midi.c ****     * Reentrant:
 196:Generated_Source\PSoC5/USB_midi.c ****     *  No
 197:Generated_Source\PSoC5/USB_midi.c ****     *
 198:Generated_Source\PSoC5/USB_midi.c ****     *******************************************************************************/
 199:Generated_Source\PSoC5/USB_midi.c ****     void USB_MIDI_OUT_EP_Service(void) 
 200:Generated_Source\PSoC5/USB_midi.c ****     {
 201:Generated_Source\PSoC5/USB_midi.c ****         #if USB_MIDI_OUT_BUFF_SIZE >= 256
 202:Generated_Source\PSoC5/USB_midi.c ****             uint16 outLength;
ARM GAS  C:\Users\jwvance\AppData\Local\Temp\ccxTgFRe.s 			page 5


 203:Generated_Source\PSoC5/USB_midi.c ****             uint16 outPointer;
 204:Generated_Source\PSoC5/USB_midi.c ****         #else
 205:Generated_Source\PSoC5/USB_midi.c ****             uint8 outLength;
 206:Generated_Source\PSoC5/USB_midi.c ****             uint8 outPointer;
 207:Generated_Source\PSoC5/USB_midi.c ****         #endif /*  USB_MIDI_OUT_BUFF_SIZE >=256 */
 208:Generated_Source\PSoC5/USB_midi.c **** 
 209:Generated_Source\PSoC5/USB_midi.c ****         uint8 dmaState = 0u;
 210:Generated_Source\PSoC5/USB_midi.c **** 
 211:Generated_Source\PSoC5/USB_midi.c ****         /* Service the USB MIDI output endpoint */
 212:Generated_Source\PSoC5/USB_midi.c ****         if (USB_GetEPState(USB_midi_out_ep) == USB_OUT_BUFFER_FULL)
 213:Generated_Source\PSoC5/USB_midi.c ****         {
 214:Generated_Source\PSoC5/USB_midi.c ****             #if(USB_MIDI_OUT_BUFF_SIZE >= 256)
 215:Generated_Source\PSoC5/USB_midi.c ****                 outLength = USB_GetEPCount(USB_midi_out_ep);
 216:Generated_Source\PSoC5/USB_midi.c ****             #else
 217:Generated_Source\PSoC5/USB_midi.c ****                 outLength = (uint8)USB_GetEPCount(USB_midi_out_ep);
 218:Generated_Source\PSoC5/USB_midi.c ****             #endif /* (USB_MIDI_OUT_BUFF_SIZE >= 256) */
 219:Generated_Source\PSoC5/USB_midi.c ****             
 220:Generated_Source\PSoC5/USB_midi.c ****             #if(USB_EP_MM != USB__EP_DMAAUTO)
 221:Generated_Source\PSoC5/USB_midi.c ****                 #if (USB_MIDI_OUT_BUFF_SIZE >= 256)
 222:Generated_Source\PSoC5/USB_midi.c ****                     outLength = USB_ReadOutEP(USB_midi_out_ep,
 223:Generated_Source\PSoC5/USB_midi.c ****                                                                     USB_midiOutBuffer, outLength);
 224:Generated_Source\PSoC5/USB_midi.c ****                 #else
 225:Generated_Source\PSoC5/USB_midi.c ****                     outLength = (uint8)USB_ReadOutEP(USB_midi_out_ep,
 226:Generated_Source\PSoC5/USB_midi.c ****                                                                     USB_midiOutBuffer, (uint16)outL
 227:Generated_Source\PSoC5/USB_midi.c ****                 #endif /* (USB_MIDI_OUT_BUFF_SIZE >= 256) */
 228:Generated_Source\PSoC5/USB_midi.c ****                 
 229:Generated_Source\PSoC5/USB_midi.c ****                 #if(USB_EP_MM == USB__EP_DMAMANUAL)
 230:Generated_Source\PSoC5/USB_midi.c ****                     do  /* wait for DMA transfer complete */
 231:Generated_Source\PSoC5/USB_midi.c ****                     {
 232:Generated_Source\PSoC5/USB_midi.c ****                         (void) CyDmaChStatus(USB_DmaChan[USB_midi_out_ep], NULL, &dmaState);
 233:Generated_Source\PSoC5/USB_midi.c ****                     }
 234:Generated_Source\PSoC5/USB_midi.c ****                     while((dmaState & (STATUS_TD_ACTIVE | STATUS_CHAIN_ACTIVE)) != 0u);
 235:Generated_Source\PSoC5/USB_midi.c ****                 #endif /* (USBFS_EP_MM == USBFS__EP_DMAMANUAL) */
 236:Generated_Source\PSoC5/USB_midi.c ****                 
 237:Generated_Source\PSoC5/USB_midi.c ****             #endif /* (USB_EP_MM != USB__EP_DMAAUTO) */
 238:Generated_Source\PSoC5/USB_midi.c ****             
 239:Generated_Source\PSoC5/USB_midi.c ****             if(dmaState != 0u)
 240:Generated_Source\PSoC5/USB_midi.c ****             {
 241:Generated_Source\PSoC5/USB_midi.c ****                 /* Suppress compiler warning */
 242:Generated_Source\PSoC5/USB_midi.c ****             }
 243:Generated_Source\PSoC5/USB_midi.c ****             
 244:Generated_Source\PSoC5/USB_midi.c ****             if (outLength >= USB_EVENT_LENGTH)
 245:Generated_Source\PSoC5/USB_midi.c ****             {
 246:Generated_Source\PSoC5/USB_midi.c ****                 outPointer = 0u;
 247:Generated_Source\PSoC5/USB_midi.c ****                 while (outPointer < outLength)
 248:Generated_Source\PSoC5/USB_midi.c ****                 {
 249:Generated_Source\PSoC5/USB_midi.c ****                     /* In some OS OUT packet could be appended by nulls which could be skipped */
 250:Generated_Source\PSoC5/USB_midi.c ****                     if (USB_midiOutBuffer[outPointer] == 0u)
 251:Generated_Source\PSoC5/USB_midi.c ****                     {
 252:Generated_Source\PSoC5/USB_midi.c ****                         break;
 253:Generated_Source\PSoC5/USB_midi.c ****                     }
 254:Generated_Source\PSoC5/USB_midi.c ****                     /* Route USB MIDI to the External connection */
 255:Generated_Source\PSoC5/USB_midi.c ****                     #if (USB_MIDI_EXT_MODE >= USB_ONE_EXT_INTRF)
 256:Generated_Source\PSoC5/USB_midi.c ****                         if ((USB_midiOutBuffer[outPointer] & USB_CABLE_MASK) ==
 257:Generated_Source\PSoC5/USB_midi.c ****                             USB_MIDI_CABLE_00)
 258:Generated_Source\PSoC5/USB_midi.c ****                         {
 259:Generated_Source\PSoC5/USB_midi.c ****                             USB_MIDI1_ProcessUsbOut(&USB_midiOutBuffer[outPointer]);
ARM GAS  C:\Users\jwvance\AppData\Local\Temp\ccxTgFRe.s 			page 6


 260:Generated_Source\PSoC5/USB_midi.c ****                         }
 261:Generated_Source\PSoC5/USB_midi.c ****                         else if ((USB_midiOutBuffer[outPointer] & USB_CABLE_MASK) ==
 262:Generated_Source\PSoC5/USB_midi.c ****                                  USB_MIDI_CABLE_01)
 263:Generated_Source\PSoC5/USB_midi.c ****                         {
 264:Generated_Source\PSoC5/USB_midi.c ****                             #if (USB_MIDI_EXT_MODE >= USB_TWO_EXT_INTRF)
 265:Generated_Source\PSoC5/USB_midi.c ****                                 USB_MIDI2_ProcessUsbOut(&USB_midiOutBuffer[outPointer]);
 266:Generated_Source\PSoC5/USB_midi.c ****                             #endif /*  USB_MIDI_EXT_MODE >= USB_TWO_EXT_INTRF */
 267:Generated_Source\PSoC5/USB_midi.c ****                         }
 268:Generated_Source\PSoC5/USB_midi.c ****                         else
 269:Generated_Source\PSoC5/USB_midi.c ****                         {
 270:Generated_Source\PSoC5/USB_midi.c ****                             /* `#START CUSTOM_MIDI_OUT_EP_SERV` Place your code here */
 271:Generated_Source\PSoC5/USB_midi.c **** 
 272:Generated_Source\PSoC5/USB_midi.c ****                             /* `#END` */
 273:Generated_Source\PSoC5/USB_midi.c ****                         }
 274:Generated_Source\PSoC5/USB_midi.c ****                     #endif /* (USB_MIDI_EXT_MODE >= USB_ONE_EXT_INTRF) */
 275:Generated_Source\PSoC5/USB_midi.c **** 
 276:Generated_Source\PSoC5/USB_midi.c ****                     /* Process any local MIDI output functions */
 277:Generated_Source\PSoC5/USB_midi.c ****                     USB_callbackLocalMidiEvent(
 278:Generated_Source\PSoC5/USB_midi.c ****                         USB_midiOutBuffer[outPointer] & USB_CABLE_MASK,
 279:Generated_Source\PSoC5/USB_midi.c ****                         &USB_midiOutBuffer[outPointer + USB_EVENT_BYTE1]);
 280:Generated_Source\PSoC5/USB_midi.c ****                     outPointer += USB_EVENT_LENGTH;
 281:Generated_Source\PSoC5/USB_midi.c ****                 }
 282:Generated_Source\PSoC5/USB_midi.c ****             }
 283:Generated_Source\PSoC5/USB_midi.c ****             #if(USB_EP_MM == USB__EP_DMAAUTO)
 284:Generated_Source\PSoC5/USB_midi.c ****                 /* Enable Out EP*/
 285:Generated_Source\PSoC5/USB_midi.c ****                 USB_EnableOutEP(USB_midi_out_ep);
 286:Generated_Source\PSoC5/USB_midi.c ****             #endif  /* (USB_EP_MM == USB__EP_DMAAUTO) */
 287:Generated_Source\PSoC5/USB_midi.c ****         }
 288:Generated_Source\PSoC5/USB_midi.c ****     }
 289:Generated_Source\PSoC5/USB_midi.c **** 
 290:Generated_Source\PSoC5/USB_midi.c **** #endif /* #if (USB_MIDI_OUT_BUFF_SIZE > 0) */
 291:Generated_Source\PSoC5/USB_midi.c **** 
 292:Generated_Source\PSoC5/USB_midi.c **** #if (USB_MIDI_IN_BUFF_SIZE > 0)
 293:Generated_Source\PSoC5/USB_midi.c **** 
 294:Generated_Source\PSoC5/USB_midi.c **** 
 295:Generated_Source\PSoC5/USB_midi.c ****     /*******************************************************************************
 296:Generated_Source\PSoC5/USB_midi.c ****     * Function Name: USB_MIDI_IN_EP_Service
 297:Generated_Source\PSoC5/USB_midi.c ****     ********************************************************************************
 298:Generated_Source\PSoC5/USB_midi.c ****     *
 299:Generated_Source\PSoC5/USB_midi.c ****     * Summary:
 300:Generated_Source\PSoC5/USB_midi.c ****     *  Services the USB MIDI IN endpoint. Non-blocking.
 301:Generated_Source\PSoC5/USB_midi.c ****     *  Checks that previous packet was processed by HOST, otherwise service the
 302:Generated_Source\PSoC5/USB_midi.c ****     *  input endpoint on the subsequent call. It is called from the
 303:Generated_Source\PSoC5/USB_midi.c ****     *  USB_MIDI_IN_Service() and from the
 304:Generated_Source\PSoC5/USB_midi.c ****     *  USB_PutUsbMidiIn() function.
 305:Generated_Source\PSoC5/USB_midi.c ****     *
 306:Generated_Source\PSoC5/USB_midi.c ****     * Parameters:
 307:Generated_Source\PSoC5/USB_midi.c ****     *  None
 308:Generated_Source\PSoC5/USB_midi.c ****     *
 309:Generated_Source\PSoC5/USB_midi.c ****     * Return:
 310:Generated_Source\PSoC5/USB_midi.c ****     *  None
 311:Generated_Source\PSoC5/USB_midi.c ****     *
 312:Generated_Source\PSoC5/USB_midi.c ****     * Global variables:
 313:Generated_Source\PSoC5/USB_midi.c ****     *  USB_midi_in_ep: Used as an IN endpoint number.
 314:Generated_Source\PSoC5/USB_midi.c ****     *  USB_midiInBuffer: Function loads the data from this buffer to
 315:Generated_Source\PSoC5/USB_midi.c ****     *    the USB IN endpoint.
 316:Generated_Source\PSoC5/USB_midi.c ****     *   USB_midiInPointer: Cleared to zero when data are sent.
ARM GAS  C:\Users\jwvance\AppData\Local\Temp\ccxTgFRe.s 			page 7


 317:Generated_Source\PSoC5/USB_midi.c ****     *
 318:Generated_Source\PSoC5/USB_midi.c ****     * Reentrant:
 319:Generated_Source\PSoC5/USB_midi.c ****     *  No
 320:Generated_Source\PSoC5/USB_midi.c ****     *
 321:Generated_Source\PSoC5/USB_midi.c ****     *******************************************************************************/
 322:Generated_Source\PSoC5/USB_midi.c ****     void USB_MIDI_IN_EP_Service(void) 
 323:Generated_Source\PSoC5/USB_midi.c ****     {
  27              		.loc 1 323 0
  28              		.cfi_startproc
  29              		@ args = 0, pretend = 0, frame = 0
  30              		@ frame_needed = 0, uses_anonymous_args = 0
  31 0000 38B5     		push	{r3, r4, r5, lr}
  32              		.cfi_def_cfa_offset 16
  33              		.cfi_offset 3, -16
  34              		.cfi_offset 4, -12
  35              		.cfi_offset 5, -8
  36              		.cfi_offset 14, -4
 324:Generated_Source\PSoC5/USB_midi.c ****         /* Service the USB MIDI input endpoint */
 325:Generated_Source\PSoC5/USB_midi.c ****         /* Check that previous packet was processed by HOST, otherwise service the USB later */
 326:Generated_Source\PSoC5/USB_midi.c ****         if (USB_midiInPointer != 0u)
  37              		.loc 1 326 0
  38 0002 094C     		ldr	r4, .L8
  39 0004 2378     		ldrb	r3, [r4]	@ zero_extendqisi2
  40 0006 03B9     		cbnz	r3, .L7
  41              	.L1:
  42 0008 38BD     		pop	{r3, r4, r5, pc}
  43              	.L7:
 327:Generated_Source\PSoC5/USB_midi.c ****         {
 328:Generated_Source\PSoC5/USB_midi.c ****             if(USB_GetEPState(USB_midi_in_ep) == USB_EVENT_PENDING)
  44              		.loc 1 328 0
  45 000a 084D     		ldr	r5, .L8+4
  46 000c 2878     		ldrb	r0, [r5]	@ zero_extendqisi2
  47 000e FFF7FEFF 		bl	USB_GetEPState
  48              	.LVL0:
  49 0012 0128     		cmp	r0, #1
  50 0014 F8D1     		bne	.L1
  51              	.LBB4:
  52              	.LBB5:
 329:Generated_Source\PSoC5/USB_midi.c ****             {
 330:Generated_Source\PSoC5/USB_midi.c ****             #if(USB_EP_MM != USB__EP_DMAAUTO)
 331:Generated_Source\PSoC5/USB_midi.c ****                 USB_LoadInEP(USB_midi_in_ep, USB_midiInBuffer,
  53              		.loc 1 331 0
  54 0016 2878     		ldrb	r0, [r5]	@ zero_extendqisi2
  55 0018 0549     		ldr	r1, .L8+8
  56 001a 2278     		ldrb	r2, [r4]	@ zero_extendqisi2
  57 001c FFF7FEFF 		bl	USB_LoadInEP
  58              	.LVL1:
 332:Generated_Source\PSoC5/USB_midi.c ****                                                                                 (uint16)USB_midiInP
 333:Generated_Source\PSoC5/USB_midi.c ****             #else /* USB_EP_MM != USB__EP_DMAAUTO */
 334:Generated_Source\PSoC5/USB_midi.c ****                 /* rearm IN EP */
 335:Generated_Source\PSoC5/USB_midi.c ****                 USB_LoadInEP(USB_midi_in_ep, NULL, (uint16)USB_midiInPointer);
 336:Generated_Source\PSoC5/USB_midi.c ****             #endif /* (USB_EP_MM != USB__EP_DMAAUTO) */
 337:Generated_Source\PSoC5/USB_midi.c **** 
 338:Generated_Source\PSoC5/USB_midi.c ****             /* Clear the midiInPointer. For DMA mode, clear this pointer in the ARB ISR when data a
 339:Generated_Source\PSoC5/USB_midi.c ****             #if(USB_EP_MM == USB__EP_MANUAL)
 340:Generated_Source\PSoC5/USB_midi.c ****                 USB_midiInPointer = 0u;
  59              		.loc 1 340 0
ARM GAS  C:\Users\jwvance\AppData\Local\Temp\ccxTgFRe.s 			page 8


  60 0020 0023     		movs	r3, #0
  61 0022 2370     		strb	r3, [r4]
  62 0024 F0E7     		b	.L1
  63              	.L9:
  64 0026 00BF     		.align	2
  65              	.L8:
  66 0028 00000000 		.word	USB_midiInPointer
  67 002c 00000000 		.word	USB_midi_in_ep
  68 0030 00000000 		.word	USB_midiInBuffer
  69              	.LBE5:
  70              	.LBE4:
  71              		.cfi_endproc
  72              	.LFE2:
  73              		.size	USB_MIDI_IN_EP_Service, .-USB_MIDI_IN_EP_Service
  74              		.section	.text.USB_PrepareInBuffer,"ax",%progbits
  75              		.align	2
  76              		.global	USB_PrepareInBuffer
  77              		.thumb
  78              		.thumb_func
  79              		.type	USB_PrepareInBuffer, %function
  80              	USB_PrepareInBuffer:
  81              	.LFB5:
 341:Generated_Source\PSoC5/USB_midi.c ****             #endif /* (USB_EP_MM == USB__EP_MANUAL) */
 342:Generated_Source\PSoC5/USB_midi.c ****             }
 343:Generated_Source\PSoC5/USB_midi.c ****         }
 344:Generated_Source\PSoC5/USB_midi.c ****     }
 345:Generated_Source\PSoC5/USB_midi.c **** 
 346:Generated_Source\PSoC5/USB_midi.c **** 
 347:Generated_Source\PSoC5/USB_midi.c ****     /*******************************************************************************
 348:Generated_Source\PSoC5/USB_midi.c ****     * Function Name: USB_MIDI_IN_Service
 349:Generated_Source\PSoC5/USB_midi.c ****     ********************************************************************************
 350:Generated_Source\PSoC5/USB_midi.c ****     *
 351:Generated_Source\PSoC5/USB_midi.c ****     * Summary:
 352:Generated_Source\PSoC5/USB_midi.c ****     *  Services the traffic from the MIDI input ports (RX UART) and prepare data
 353:Generated_Source\PSoC5/USB_midi.c ****     *  in USB MIDI IN endpoint buffer.
 354:Generated_Source\PSoC5/USB_midi.c ****     *  Calls the USB_MIDI_IN_EP_Service() function to sent the
 355:Generated_Source\PSoC5/USB_midi.c ****     *  data from buffer to PC. Non-blocking. Should be called from main foreground
 356:Generated_Source\PSoC5/USB_midi.c ****     *  task.
 357:Generated_Source\PSoC5/USB_midi.c ****     *  This function is not protected from the reentrant calls. When it is required
 358:Generated_Source\PSoC5/USB_midi.c ****     *  to use this function in UART RX ISR to guaranty low latency, care should be
 359:Generated_Source\PSoC5/USB_midi.c ****     *  taken to protect from reentrant calls.
 360:Generated_Source\PSoC5/USB_midi.c ****     *
 361:Generated_Source\PSoC5/USB_midi.c ****     * Parameters:
 362:Generated_Source\PSoC5/USB_midi.c ****     *  None
 363:Generated_Source\PSoC5/USB_midi.c ****     *
 364:Generated_Source\PSoC5/USB_midi.c ****     * Return:
 365:Generated_Source\PSoC5/USB_midi.c ****     *  None
 366:Generated_Source\PSoC5/USB_midi.c ****     *
 367:Generated_Source\PSoC5/USB_midi.c ****     * Global variables:
 368:Generated_Source\PSoC5/USB_midi.c ****     *   USB_midiInPointer: Cleared to zero when data are sent.
 369:Generated_Source\PSoC5/USB_midi.c ****     *
 370:Generated_Source\PSoC5/USB_midi.c ****     * Reentrant:
 371:Generated_Source\PSoC5/USB_midi.c ****     *  No
 372:Generated_Source\PSoC5/USB_midi.c ****     *
 373:Generated_Source\PSoC5/USB_midi.c ****     *******************************************************************************/
 374:Generated_Source\PSoC5/USB_midi.c ****     void USB_MIDI_IN_Service(void) 
 375:Generated_Source\PSoC5/USB_midi.c ****     {
ARM GAS  C:\Users\jwvance\AppData\Local\Temp\ccxTgFRe.s 			page 9


 376:Generated_Source\PSoC5/USB_midi.c ****         /* Service the MIDI UART inputs until either both receivers have no more
 377:Generated_Source\PSoC5/USB_midi.c ****         *  events or until the input endpoint buffer fills up.
 378:Generated_Source\PSoC5/USB_midi.c ****         */
 379:Generated_Source\PSoC5/USB_midi.c ****         #if (USB_MIDI_EXT_MODE >= USB_ONE_EXT_INTRF)
 380:Generated_Source\PSoC5/USB_midi.c ****             uint8 m1 = 0u;
 381:Generated_Source\PSoC5/USB_midi.c ****             uint8 m2 = 0u;
 382:Generated_Source\PSoC5/USB_midi.c ****             do
 383:Generated_Source\PSoC5/USB_midi.c ****             {
 384:Generated_Source\PSoC5/USB_midi.c ****                 if (USB_midiInPointer <=
 385:Generated_Source\PSoC5/USB_midi.c ****                     (USB_MIDI_IN_BUFF_SIZE - USB_EVENT_LENGTH))
 386:Generated_Source\PSoC5/USB_midi.c ****                 {
 387:Generated_Source\PSoC5/USB_midi.c ****                     /* Check MIDI1 input port for a complete event */
 388:Generated_Source\PSoC5/USB_midi.c ****                     m1 = USB_MIDI1_GetEvent();
 389:Generated_Source\PSoC5/USB_midi.c ****                     if (m1 != 0u)
 390:Generated_Source\PSoC5/USB_midi.c ****                     {
 391:Generated_Source\PSoC5/USB_midi.c ****                         USB_PrepareInBuffer(m1, (uint8 *)&USB_MIDI1_Event.msgBuff[0],
 392:Generated_Source\PSoC5/USB_midi.c ****                                                     USB_MIDI1_Event.size, USB_MIDI_CABLE_00);
 393:Generated_Source\PSoC5/USB_midi.c ****                     }
 394:Generated_Source\PSoC5/USB_midi.c ****                 }
 395:Generated_Source\PSoC5/USB_midi.c **** 
 396:Generated_Source\PSoC5/USB_midi.c ****             #if (USB_MIDI_EXT_MODE >= USB_TWO_EXT_INTRF)
 397:Generated_Source\PSoC5/USB_midi.c ****                 if (USB_midiInPointer <=
 398:Generated_Source\PSoC5/USB_midi.c ****                     (USB_MIDI_IN_BUFF_SIZE - USB_EVENT_LENGTH))
 399:Generated_Source\PSoC5/USB_midi.c ****                 {
 400:Generated_Source\PSoC5/USB_midi.c ****                     /* Check MIDI2 input port for a complete event */
 401:Generated_Source\PSoC5/USB_midi.c ****                     m2 = USB_MIDI2_GetEvent();
 402:Generated_Source\PSoC5/USB_midi.c ****                     if (m2 != 0u)
 403:Generated_Source\PSoC5/USB_midi.c ****                     {
 404:Generated_Source\PSoC5/USB_midi.c ****                         USB_PrepareInBuffer(m2, (uint8 *)&USB_MIDI2_Event.msgBuff[0],
 405:Generated_Source\PSoC5/USB_midi.c ****                                                     USB_MIDI2_Event.size, USB_MIDI_CABLE_01);
 406:Generated_Source\PSoC5/USB_midi.c ****                     }
 407:Generated_Source\PSoC5/USB_midi.c ****                 }
 408:Generated_Source\PSoC5/USB_midi.c ****             #endif /*  USB_MIDI_EXT_MODE >= USB_TWO_EXT_INTRF */
 409:Generated_Source\PSoC5/USB_midi.c **** 
 410:Generated_Source\PSoC5/USB_midi.c ****             }while( (USB_midiInPointer <=
 411:Generated_Source\PSoC5/USB_midi.c ****                     (USB_MIDI_IN_BUFF_SIZE - USB_EVENT_LENGTH)) &&
 412:Generated_Source\PSoC5/USB_midi.c ****                     ((m1 != 0u) || (m2 != 0u)) );
 413:Generated_Source\PSoC5/USB_midi.c ****         #endif /* (USB_MIDI_EXT_MODE >= USB_ONE_EXT_INTRF) */
 414:Generated_Source\PSoC5/USB_midi.c **** 
 415:Generated_Source\PSoC5/USB_midi.c ****         /* Service the USB MIDI input endpoint */
 416:Generated_Source\PSoC5/USB_midi.c ****         USB_MIDI_IN_EP_Service();
 417:Generated_Source\PSoC5/USB_midi.c ****     }
 418:Generated_Source\PSoC5/USB_midi.c **** 
 419:Generated_Source\PSoC5/USB_midi.c **** 
 420:Generated_Source\PSoC5/USB_midi.c ****     /*******************************************************************************
 421:Generated_Source\PSoC5/USB_midi.c ****     * Function Name: USB_PutUsbMidiIn
 422:Generated_Source\PSoC5/USB_midi.c ****     ********************************************************************************
 423:Generated_Source\PSoC5/USB_midi.c ****     *
 424:Generated_Source\PSoC5/USB_midi.c ****     * Summary:
 425:Generated_Source\PSoC5/USB_midi.c ****     *  Puts one MIDI messages into the USB MIDI In endpoint buffer. These are
 426:Generated_Source\PSoC5/USB_midi.c ****     *  MIDI input messages to the host. This function is only used if the device
 427:Generated_Source\PSoC5/USB_midi.c ****     *  has internal MIDI input functionality. USBMIDI_MIDI_IN_Service() function
 428:Generated_Source\PSoC5/USB_midi.c ****     *  should additionally be called to send the message from local buffer to
 429:Generated_Source\PSoC5/USB_midi.c ****     *  IN endpoint.
 430:Generated_Source\PSoC5/USB_midi.c ****     *
 431:Generated_Source\PSoC5/USB_midi.c ****     * Parameters:
 432:Generated_Source\PSoC5/USB_midi.c ****     *  ic:   0 = No message (should never happen)
ARM GAS  C:\Users\jwvance\AppData\Local\Temp\ccxTgFRe.s 			page 10


 433:Generated_Source\PSoC5/USB_midi.c ****     *        1 - 3 = Complete MIDI message in midiMsg
 434:Generated_Source\PSoC5/USB_midi.c ****     *        3 - IN EP LENGTH = Complete SySEx message(without EOSEX byte) in
 435:Generated_Source\PSoC5/USB_midi.c ****     *            midiMsg. The length is limited by the max BULK EP size(64)
 436:Generated_Source\PSoC5/USB_midi.c ****     *        MIDI_SYSEX = Start or continuation of SysEx message
 437:Generated_Source\PSoC5/USB_midi.c ****     *                     (put event bytes in midiMsg buffer)
 438:Generated_Source\PSoC5/USB_midi.c ****     *        MIDI_EOSEX = End of SysEx message
 439:Generated_Source\PSoC5/USB_midi.c ****     *                     (put event bytes in midiMsg buffer)
 440:Generated_Source\PSoC5/USB_midi.c ****     *        MIDI_TUNEREQ = Tune Request message (single byte system common msg)
 441:Generated_Source\PSoC5/USB_midi.c ****     *        0xf8 - 0xff = Single byte real-time message
 442:Generated_Source\PSoC5/USB_midi.c ****     *  midiMsg: pointer to MIDI message.
 443:Generated_Source\PSoC5/USB_midi.c ****     *  cable:   cable number.
 444:Generated_Source\PSoC5/USB_midi.c ****     *
 445:Generated_Source\PSoC5/USB_midi.c ****     * Return:
 446:Generated_Source\PSoC5/USB_midi.c ****     *  USB_TRUE if error.
 447:Generated_Source\PSoC5/USB_midi.c ****     *  USB_FALSE if success.
 448:Generated_Source\PSoC5/USB_midi.c ****     *
 449:Generated_Source\PSoC5/USB_midi.c ****     * Global variables:
 450:Generated_Source\PSoC5/USB_midi.c ****     *  USB_midi_in_ep: MIDI IN endpoint number used for sending data.
 451:Generated_Source\PSoC5/USB_midi.c ****     *  USB_midiInPointer: Checked this variable to see if there is
 452:Generated_Source\PSoC5/USB_midi.c ****     *    enough free space in the IN endpoint buffer. If buffer is full, initiate
 453:Generated_Source\PSoC5/USB_midi.c ****     *    sending to PC.
 454:Generated_Source\PSoC5/USB_midi.c ****     *
 455:Generated_Source\PSoC5/USB_midi.c ****     * Reentrant:
 456:Generated_Source\PSoC5/USB_midi.c ****     *  No
 457:Generated_Source\PSoC5/USB_midi.c ****     *
 458:Generated_Source\PSoC5/USB_midi.c ****     *******************************************************************************/
 459:Generated_Source\PSoC5/USB_midi.c ****     uint8 USB_PutUsbMidiIn(uint8 ic, const uint8 midiMsg[], uint8 cable)
 460:Generated_Source\PSoC5/USB_midi.c ****                                                                 
 461:Generated_Source\PSoC5/USB_midi.c ****     {
 462:Generated_Source\PSoC5/USB_midi.c ****         uint8 retError = USB_FALSE;
 463:Generated_Source\PSoC5/USB_midi.c ****         uint8 msgIndex;
 464:Generated_Source\PSoC5/USB_midi.c **** 
 465:Generated_Source\PSoC5/USB_midi.c ****         /* Protect PrepareInBuffer() function from concurrent calls */
 466:Generated_Source\PSoC5/USB_midi.c ****         #if (USB_MIDI_EXT_MODE >= USB_ONE_EXT_INTRF)
 467:Generated_Source\PSoC5/USB_midi.c ****             MIDI1_UART_DisableRxInt();
 468:Generated_Source\PSoC5/USB_midi.c ****             #if (USB_MIDI_EXT_MODE >= USB_TWO_EXT_INTRF)
 469:Generated_Source\PSoC5/USB_midi.c ****                 MIDI2_UART_DisableRxInt();
 470:Generated_Source\PSoC5/USB_midi.c ****             #endif /* (USB_MIDI_EXT_MODE >= USB_TWO_EXT_INTRF) */
 471:Generated_Source\PSoC5/USB_midi.c ****         #endif /* (USB_MIDI_EXT_MODE >= USB_ONE_EXT_INTRF) */
 472:Generated_Source\PSoC5/USB_midi.c **** 
 473:Generated_Source\PSoC5/USB_midi.c ****         if (USB_midiInPointer >
 474:Generated_Source\PSoC5/USB_midi.c ****                     (USB_EP[USB_midi_in_ep].bufferSize - USB_EVENT_LENGTH))
 475:Generated_Source\PSoC5/USB_midi.c ****         {
 476:Generated_Source\PSoC5/USB_midi.c ****             USB_MIDI_IN_EP_Service();
 477:Generated_Source\PSoC5/USB_midi.c ****         }
 478:Generated_Source\PSoC5/USB_midi.c ****         if (USB_midiInPointer <=
 479:Generated_Source\PSoC5/USB_midi.c ****                     (USB_EP[USB_midi_in_ep].bufferSize - USB_EVENT_LENGTH))
 480:Generated_Source\PSoC5/USB_midi.c ****         {
 481:Generated_Source\PSoC5/USB_midi.c ****             if((ic < USB_EVENT_LENGTH) || (ic >= USB_MIDI_STATUS_MASK))
 482:Generated_Source\PSoC5/USB_midi.c ****             {
 483:Generated_Source\PSoC5/USB_midi.c ****                 USB_PrepareInBuffer(ic, midiMsg, ic, cable);
 484:Generated_Source\PSoC5/USB_midi.c ****             }
 485:Generated_Source\PSoC5/USB_midi.c ****             else
 486:Generated_Source\PSoC5/USB_midi.c ****             {   /* Only SysEx message is greater than 4 bytes */
 487:Generated_Source\PSoC5/USB_midi.c ****                 msgIndex = 0u;
 488:Generated_Source\PSoC5/USB_midi.c ****                 do
 489:Generated_Source\PSoC5/USB_midi.c ****                 {
ARM GAS  C:\Users\jwvance\AppData\Local\Temp\ccxTgFRe.s 			page 11


 490:Generated_Source\PSoC5/USB_midi.c ****                     USB_PrepareInBuffer(USB_MIDI_SYSEX, &midiMsg[msgIndex],
 491:Generated_Source\PSoC5/USB_midi.c ****                                                      USB_EVENT_BYTE3, cable);
 492:Generated_Source\PSoC5/USB_midi.c ****                     ic -= USB_EVENT_BYTE3;
 493:Generated_Source\PSoC5/USB_midi.c ****                     msgIndex += USB_EVENT_BYTE3;
 494:Generated_Source\PSoC5/USB_midi.c ****                     if (USB_midiInPointer >
 495:Generated_Source\PSoC5/USB_midi.c ****                         (USB_EP[USB_midi_in_ep].bufferSize - USB_EVENT_LENGTH))
 496:Generated_Source\PSoC5/USB_midi.c ****                     {
 497:Generated_Source\PSoC5/USB_midi.c ****                         USB_MIDI_IN_EP_Service();
 498:Generated_Source\PSoC5/USB_midi.c ****                         if(USB_midiInPointer > 
 499:Generated_Source\PSoC5/USB_midi.c ****                           (USB_EP[USB_midi_in_ep].bufferSize - USB_EVENT_LENGTH))
 500:Generated_Source\PSoC5/USB_midi.c ****                         {
 501:Generated_Source\PSoC5/USB_midi.c ****                             /* Error condition. HOST is not ready to receive this packet. */
 502:Generated_Source\PSoC5/USB_midi.c ****                             retError = USB_TRUE;
 503:Generated_Source\PSoC5/USB_midi.c ****                             break;
 504:Generated_Source\PSoC5/USB_midi.c ****                         }
 505:Generated_Source\PSoC5/USB_midi.c ****                     }
 506:Generated_Source\PSoC5/USB_midi.c ****                 }
 507:Generated_Source\PSoC5/USB_midi.c ****                 while(ic > USB_EVENT_BYTE3);
 508:Generated_Source\PSoC5/USB_midi.c **** 
 509:Generated_Source\PSoC5/USB_midi.c ****                 if(retError == USB_FALSE)
 510:Generated_Source\PSoC5/USB_midi.c ****                 {
 511:Generated_Source\PSoC5/USB_midi.c ****                     USB_PrepareInBuffer(USB_MIDI_EOSEX, midiMsg, ic, cable);
 512:Generated_Source\PSoC5/USB_midi.c ****                 }
 513:Generated_Source\PSoC5/USB_midi.c ****             }
 514:Generated_Source\PSoC5/USB_midi.c ****         }
 515:Generated_Source\PSoC5/USB_midi.c ****         else
 516:Generated_Source\PSoC5/USB_midi.c ****         {
 517:Generated_Source\PSoC5/USB_midi.c ****             /* Error condition. HOST is not ready to receive this packet. */
 518:Generated_Source\PSoC5/USB_midi.c ****             retError = USB_TRUE;
 519:Generated_Source\PSoC5/USB_midi.c ****         }
 520:Generated_Source\PSoC5/USB_midi.c **** 
 521:Generated_Source\PSoC5/USB_midi.c ****         #if (USB_MIDI_EXT_MODE >= USB_ONE_EXT_INTRF)
 522:Generated_Source\PSoC5/USB_midi.c ****             MIDI1_UART_EnableRxInt();
 523:Generated_Source\PSoC5/USB_midi.c ****             #if (USB_MIDI_EXT_MODE >= USB_TWO_EXT_INTRF)
 524:Generated_Source\PSoC5/USB_midi.c ****                 MIDI2_UART_EnableRxInt();
 525:Generated_Source\PSoC5/USB_midi.c ****             #endif /* (USB_MIDI_EXT_MODE >= USB_TWO_EXT_INTRF) */
 526:Generated_Source\PSoC5/USB_midi.c ****         #endif /* (USB_MIDI_EXT_MODE >= USB_ONE_EXT_INTRF) */
 527:Generated_Source\PSoC5/USB_midi.c **** 
 528:Generated_Source\PSoC5/USB_midi.c ****         return (retError);
 529:Generated_Source\PSoC5/USB_midi.c ****     }
 530:Generated_Source\PSoC5/USB_midi.c **** 
 531:Generated_Source\PSoC5/USB_midi.c **** 
 532:Generated_Source\PSoC5/USB_midi.c ****     /*******************************************************************************
 533:Generated_Source\PSoC5/USB_midi.c ****     * Function Name: USB_PrepareInBuffer
 534:Generated_Source\PSoC5/USB_midi.c ****     ********************************************************************************
 535:Generated_Source\PSoC5/USB_midi.c ****     *
 536:Generated_Source\PSoC5/USB_midi.c ****     * Summary:
 537:Generated_Source\PSoC5/USB_midi.c ****     *  Builds a USB MIDI event in the input endpoint buffer at the current pointer.
 538:Generated_Source\PSoC5/USB_midi.c ****     *  Puts one MIDI message into the USB MIDI In endpoint buffer.
 539:Generated_Source\PSoC5/USB_midi.c ****     *
 540:Generated_Source\PSoC5/USB_midi.c ****     * Parameters:
 541:Generated_Source\PSoC5/USB_midi.c ****     *  ic:   0 = No message (should never happen)
 542:Generated_Source\PSoC5/USB_midi.c ****     *        1 - 3 = Complete MIDI message at pMdat[0]
 543:Generated_Source\PSoC5/USB_midi.c ****     *        MIDI_SYSEX = Start or continuation of SysEx message
 544:Generated_Source\PSoC5/USB_midi.c ****     *                     (put eventLen bytes in buffer)
 545:Generated_Source\PSoC5/USB_midi.c ****     *        MIDI_EOSEX = End of SysEx message
 546:Generated_Source\PSoC5/USB_midi.c ****     *                     (put eventLen bytes in buffer,
ARM GAS  C:\Users\jwvance\AppData\Local\Temp\ccxTgFRe.s 			page 12


 547:Generated_Source\PSoC5/USB_midi.c ****     *                      and append MIDI_EOSEX)
 548:Generated_Source\PSoC5/USB_midi.c ****     *        MIDI_TUNEREQ = Tune Request message (single byte system common msg)
 549:Generated_Source\PSoC5/USB_midi.c ****     *        0xf8 - 0xff = Single byte real-time message
 550:Generated_Source\PSoC5/USB_midi.c ****     *
 551:Generated_Source\PSoC5/USB_midi.c ****     *  srcBuff: pointer to MIDI data
 552:Generated_Source\PSoC5/USB_midi.c ****     *  eventLen: number of bytes in MIDI event
 553:Generated_Source\PSoC5/USB_midi.c ****     *  cable: MIDI source port number
 554:Generated_Source\PSoC5/USB_midi.c ****     *
 555:Generated_Source\PSoC5/USB_midi.c ****     * Return:
 556:Generated_Source\PSoC5/USB_midi.c ****     *  None
 557:Generated_Source\PSoC5/USB_midi.c ****     *
 558:Generated_Source\PSoC5/USB_midi.c ****     * Global variables:
 559:Generated_Source\PSoC5/USB_midi.c ****     *  USB_midiInBuffer: This buffer is used for saving and combine the
 560:Generated_Source\PSoC5/USB_midi.c ****     *    received from UART(s) and(or) generated internally by
 561:Generated_Source\PSoC5/USB_midi.c ****     *    USB_PutUsbMidiIn() function messages.
 562:Generated_Source\PSoC5/USB_midi.c ****     *  USB_midiInPointer: Used as an index for midiInBuffer to
 563:Generated_Source\PSoC5/USB_midi.c ****     *     write data.
 564:Generated_Source\PSoC5/USB_midi.c ****     *
 565:Generated_Source\PSoC5/USB_midi.c ****     * Reentrant:
 566:Generated_Source\PSoC5/USB_midi.c ****     *  No
 567:Generated_Source\PSoC5/USB_midi.c ****     *
 568:Generated_Source\PSoC5/USB_midi.c ****     *******************************************************************************/
 569:Generated_Source\PSoC5/USB_midi.c ****     void USB_PrepareInBuffer(uint8 ic, const uint8 srcBuff[], uint8 eventLen, uint8 cable)
 570:Generated_Source\PSoC5/USB_midi.c ****                                                                  
 571:Generated_Source\PSoC5/USB_midi.c ****     {
  82              		.loc 1 571 0
  83              		.cfi_startproc
  84              		@ args = 0, pretend = 0, frame = 0
  85              		@ frame_needed = 0, uses_anonymous_args = 0
  86              	.LVL2:
  87 0000 F0B5     		push	{r4, r5, r6, r7, lr}
  88              		.cfi_def_cfa_offset 20
  89              		.cfi_offset 4, -20
  90              		.cfi_offset 5, -16
  91              		.cfi_offset 6, -12
  92              		.cfi_offset 7, -8
  93              		.cfi_offset 14, -4
 572:Generated_Source\PSoC5/USB_midi.c ****         uint8 srcBuffZero;
 573:Generated_Source\PSoC5/USB_midi.c ****         uint8 srcBuffOne;
 574:Generated_Source\PSoC5/USB_midi.c **** 
 575:Generated_Source\PSoC5/USB_midi.c ****         srcBuffZero = srcBuff[0u];
 576:Generated_Source\PSoC5/USB_midi.c ****         srcBuffOne  = srcBuff[1u];
 577:Generated_Source\PSoC5/USB_midi.c **** 
 578:Generated_Source\PSoC5/USB_midi.c ****         if (ic >= (USB_MIDI_STATUS_MASK | USB_MIDI_SINGLE_BYTE_MASK))
  94              		.loc 1 578 0
  95 0002 F728     		cmp	r0, #247
 575:Generated_Source\PSoC5/USB_midi.c ****         srcBuffOne  = srcBuff[1u];
  96              		.loc 1 575 0
  97 0004 0C78     		ldrb	r4, [r1]	@ zero_extendqisi2
  98              	.LVL3:
 576:Generated_Source\PSoC5/USB_midi.c **** 
  99              		.loc 1 576 0
 100 0006 4D78     		ldrb	r5, [r1, #1]	@ zero_extendqisi2
 101              	.LVL4:
 102              		.loc 1 578 0
 103 0008 1DD8     		bhi	.L25
 579:Generated_Source\PSoC5/USB_midi.c ****         {
ARM GAS  C:\Users\jwvance\AppData\Local\Temp\ccxTgFRe.s 			page 13


 580:Generated_Source\PSoC5/USB_midi.c ****             USB_midiInBuffer[USB_midiInPointer] = USB_SINGLE_BYTE | cable;
 581:Generated_Source\PSoC5/USB_midi.c ****             USB_midiInPointer++;
 582:Generated_Source\PSoC5/USB_midi.c ****             USB_midiInBuffer[USB_midiInPointer] = ic;
 583:Generated_Source\PSoC5/USB_midi.c ****             USB_midiInPointer++;
 584:Generated_Source\PSoC5/USB_midi.c ****             USB_midiInBuffer[USB_midiInPointer] = 0u;
 585:Generated_Source\PSoC5/USB_midi.c ****             USB_midiInPointer++;
 586:Generated_Source\PSoC5/USB_midi.c ****             USB_midiInBuffer[USB_midiInPointer] = 0u;
 587:Generated_Source\PSoC5/USB_midi.c ****             USB_midiInPointer++;
 588:Generated_Source\PSoC5/USB_midi.c ****         }
 589:Generated_Source\PSoC5/USB_midi.c ****         else if((ic < USB_EVENT_LENGTH) || (ic == USB_MIDI_SYSEX))
 104              		.loc 1 589 0
 105 000a 0328     		cmp	r0, #3
 106 000c 04D9     		bls	.L13
 107              		.loc 1 589 0 is_stmt 0 discriminator 1
 108 000e F028     		cmp	r0, #240
 109 0010 63D0     		beq	.L26
 590:Generated_Source\PSoC5/USB_midi.c ****         {
 591:Generated_Source\PSoC5/USB_midi.c ****             if(ic == USB_MIDI_SYSEX)
 592:Generated_Source\PSoC5/USB_midi.c ****             {
 593:Generated_Source\PSoC5/USB_midi.c ****                 USB_midiInBuffer[USB_midiInPointer] = USB_SYSEX | cable;
 594:Generated_Source\PSoC5/USB_midi.c ****                 USB_midiInPointer++;
 595:Generated_Source\PSoC5/USB_midi.c ****             }
 596:Generated_Source\PSoC5/USB_midi.c ****             else if (srcBuffZero < USB_MIDI_SYSEX)
 597:Generated_Source\PSoC5/USB_midi.c ****             {
 598:Generated_Source\PSoC5/USB_midi.c ****                 USB_midiInBuffer[USB_midiInPointer] = (srcBuffZero >> 4u) | cable;
 599:Generated_Source\PSoC5/USB_midi.c ****                 USB_midiInPointer++;
 600:Generated_Source\PSoC5/USB_midi.c ****             }
 601:Generated_Source\PSoC5/USB_midi.c ****             else if (srcBuffZero == USB_MIDI_TUNEREQ)
 602:Generated_Source\PSoC5/USB_midi.c ****             {
 603:Generated_Source\PSoC5/USB_midi.c ****                 USB_midiInBuffer[USB_midiInPointer] = USB_1BYTE_COMMON | cable;
 604:Generated_Source\PSoC5/USB_midi.c ****                 USB_midiInPointer++;
 605:Generated_Source\PSoC5/USB_midi.c ****             }
 606:Generated_Source\PSoC5/USB_midi.c ****             else if ((srcBuffZero == USB_MIDI_QFM) || (srcBuffZero == USB_MIDI_SONGSEL))
 607:Generated_Source\PSoC5/USB_midi.c ****             {
 608:Generated_Source\PSoC5/USB_midi.c ****                 USB_midiInBuffer[USB_midiInPointer] = USB_2BYTE_COMMON | cable;
 609:Generated_Source\PSoC5/USB_midi.c ****                 USB_midiInPointer++;
 610:Generated_Source\PSoC5/USB_midi.c ****             }
 611:Generated_Source\PSoC5/USB_midi.c ****             else if (srcBuffZero == USB_MIDI_SPP)
 612:Generated_Source\PSoC5/USB_midi.c ****             {
 613:Generated_Source\PSoC5/USB_midi.c ****                 USB_midiInBuffer[USB_midiInPointer] = USB_3BYTE_COMMON | cable;
 614:Generated_Source\PSoC5/USB_midi.c ****                 USB_midiInPointer++;
 615:Generated_Source\PSoC5/USB_midi.c ****             }
 616:Generated_Source\PSoC5/USB_midi.c ****             else
 617:Generated_Source\PSoC5/USB_midi.c ****             {
 618:Generated_Source\PSoC5/USB_midi.c ****             }
 619:Generated_Source\PSoC5/USB_midi.c **** 
 620:Generated_Source\PSoC5/USB_midi.c ****             USB_midiInBuffer[USB_midiInPointer] = srcBuffZero;
 621:Generated_Source\PSoC5/USB_midi.c ****             USB_midiInPointer++;
 622:Generated_Source\PSoC5/USB_midi.c ****             USB_midiInBuffer[USB_midiInPointer] = srcBuffOne;
 623:Generated_Source\PSoC5/USB_midi.c ****             USB_midiInPointer++;
 624:Generated_Source\PSoC5/USB_midi.c ****             USB_midiInBuffer[USB_midiInPointer] = srcBuff[2u];
 625:Generated_Source\PSoC5/USB_midi.c ****             USB_midiInPointer++;
 626:Generated_Source\PSoC5/USB_midi.c ****         }
 627:Generated_Source\PSoC5/USB_midi.c ****         else if (ic == USB_MIDI_EOSEX)
 110              		.loc 1 627 0 is_stmt 1
 111 0012 F728     		cmp	r0, #247
 112 0014 5BD0     		beq	.L27
ARM GAS  C:\Users\jwvance\AppData\Local\Temp\ccxTgFRe.s 			page 14


 113              	.LVL5:
 114              	.L10:
 115 0016 F0BD     		pop	{r4, r5, r6, r7, pc}
 116              	.LVL6:
 117              	.L13:
 596:Generated_Source\PSoC5/USB_midi.c ****             {
 118              		.loc 1 596 0
 119 0018 EF2C     		cmp	r4, #239
 120 001a 3AD9     		bls	.L28
 601:Generated_Source\PSoC5/USB_midi.c ****             {
 121              		.loc 1 601 0
 122 001c F62C     		cmp	r4, #246
 123 001e 00F09680 		beq	.L29
 606:Generated_Source\PSoC5/USB_midi.c ****             {
 124              		.loc 1 606 0
 125 0022 04F0FD02 		and	r2, r4, #253
 126              	.LVL7:
 127 0026 F12A     		cmp	r2, #241
 608:Generated_Source\PSoC5/USB_midi.c ****                 USB_midiInPointer++;
 128              		.loc 1 608 0
 129 0028 7048     		ldr	r0, .L31
 130              	.LVL8:
 131 002a 714A     		ldr	r2, .L31+4
 606:Generated_Source\PSoC5/USB_midi.c ****             {
 132              		.loc 1 606 0
 133 002c 00F08680 		beq	.L30
 611:Generated_Source\PSoC5/USB_midi.c ****             {
 134              		.loc 1 611 0
 135 0030 F22C     		cmp	r4, #242
 136 0032 38D1     		bne	.L15
 613:Generated_Source\PSoC5/USB_midi.c ****                 USB_midiInPointer++;
 137              		.loc 1 613 0
 138 0034 1778     		ldrb	r7, [r2]	@ zero_extendqisi2
 614:Generated_Source\PSoC5/USB_midi.c ****             }
 139              		.loc 1 614 0
 140 0036 1678     		ldrb	r6, [r2]	@ zero_extendqisi2
 613:Generated_Source\PSoC5/USB_midi.c ****                 USB_midiInPointer++;
 141              		.loc 1 613 0
 142 0038 43F00303 		orr	r3, r3, #3
 143              	.LVL9:
 614:Generated_Source\PSoC5/USB_midi.c ****             }
 144              		.loc 1 614 0
 145 003c 0136     		adds	r6, r6, #1
 146 003e F6B2     		uxtb	r6, r6
 613:Generated_Source\PSoC5/USB_midi.c ****                 USB_midiInPointer++;
 147              		.loc 1 613 0
 148 0040 C355     		strb	r3, [r0, r7]
 614:Generated_Source\PSoC5/USB_midi.c ****             }
 149              		.loc 1 614 0
 150 0042 1670     		strb	r6, [r2]
 151 0044 2FE0     		b	.L15
 152              	.LVL10:
 153              	.L25:
 580:Generated_Source\PSoC5/USB_midi.c ****             USB_midiInPointer++;
 154              		.loc 1 580 0
 155 0046 6A4A     		ldr	r2, .L31+4
 156              	.LVL11:
ARM GAS  C:\Users\jwvance\AppData\Local\Temp\ccxTgFRe.s 			page 15


 157 0048 684C     		ldr	r4, .L31
 158              	.LVL12:
 159 004a 1678     		ldrb	r6, [r2]	@ zero_extendqisi2
 581:Generated_Source\PSoC5/USB_midi.c ****             USB_midiInBuffer[USB_midiInPointer] = ic;
 160              		.loc 1 581 0
 161 004c 1178     		ldrb	r1, [r2]	@ zero_extendqisi2
 162              	.LVL13:
 584:Generated_Source\PSoC5/USB_midi.c ****             USB_midiInPointer++;
 163              		.loc 1 584 0
 164 004e 0025     		movs	r5, #0
 165              	.LVL14:
 581:Generated_Source\PSoC5/USB_midi.c ****             USB_midiInBuffer[USB_midiInPointer] = ic;
 166              		.loc 1 581 0
 167 0050 0131     		adds	r1, r1, #1
 168 0052 C9B2     		uxtb	r1, r1
 169 0054 1170     		strb	r1, [r2]
 170              	.LVL15:
 582:Generated_Source\PSoC5/USB_midi.c ****             USB_midiInPointer++;
 171              		.loc 1 582 0
 172 0056 1778     		ldrb	r7, [r2]	@ zero_extendqisi2
 583:Generated_Source\PSoC5/USB_midi.c ****             USB_midiInBuffer[USB_midiInPointer] = 0u;
 173              		.loc 1 583 0
 174 0058 1178     		ldrb	r1, [r2]	@ zero_extendqisi2
 580:Generated_Source\PSoC5/USB_midi.c ****             USB_midiInPointer++;
 175              		.loc 1 580 0
 176 005a 43F00F03 		orr	r3, r3, #15
 177              	.LVL16:
 583:Generated_Source\PSoC5/USB_midi.c ****             USB_midiInBuffer[USB_midiInPointer] = 0u;
 178              		.loc 1 583 0
 179 005e 0131     		adds	r1, r1, #1
 180 0060 C9B2     		uxtb	r1, r1
 181 0062 1170     		strb	r1, [r2]
 584:Generated_Source\PSoC5/USB_midi.c ****             USB_midiInPointer++;
 182              		.loc 1 584 0
 183 0064 92F800E0 		ldrb	lr, [r2]	@ zero_extendqisi2
 585:Generated_Source\PSoC5/USB_midi.c ****             USB_midiInBuffer[USB_midiInPointer] = 0u;
 184              		.loc 1 585 0
 185 0068 1178     		ldrb	r1, [r2]	@ zero_extendqisi2
 584:Generated_Source\PSoC5/USB_midi.c ****             USB_midiInPointer++;
 186              		.loc 1 584 0
 187 006a 5FFA8EFE 		uxtb	lr, lr
 585:Generated_Source\PSoC5/USB_midi.c ****             USB_midiInBuffer[USB_midiInPointer] = 0u;
 188              		.loc 1 585 0
 189 006e 0131     		adds	r1, r1, #1
 190 0070 C9B2     		uxtb	r1, r1
 191 0072 1170     		strb	r1, [r2]
 586:Generated_Source\PSoC5/USB_midi.c ****             USB_midiInPointer++;
 192              		.loc 1 586 0
 193 0074 92F800C0 		ldrb	ip, [r2]	@ zero_extendqisi2
 587:Generated_Source\PSoC5/USB_midi.c ****         }
 194              		.loc 1 587 0
 195 0078 1178     		ldrb	r1, [r2]	@ zero_extendqisi2
 586:Generated_Source\PSoC5/USB_midi.c ****             USB_midiInPointer++;
 196              		.loc 1 586 0
 197 007a 5FFA8CFC 		uxtb	ip, ip
 587:Generated_Source\PSoC5/USB_midi.c ****         }
 198              		.loc 1 587 0
ARM GAS  C:\Users\jwvance\AppData\Local\Temp\ccxTgFRe.s 			page 16


 199 007e 0131     		adds	r1, r1, #1
 200 0080 C9B2     		uxtb	r1, r1
 580:Generated_Source\PSoC5/USB_midi.c ****             USB_midiInPointer++;
 201              		.loc 1 580 0
 202 0082 A355     		strb	r3, [r4, r6]
 203              	.LVL17:
 587:Generated_Source\PSoC5/USB_midi.c ****         }
 204              		.loc 1 587 0
 205 0084 1170     		strb	r1, [r2]
 582:Generated_Source\PSoC5/USB_midi.c ****             USB_midiInPointer++;
 206              		.loc 1 582 0
 207 0086 E055     		strb	r0, [r4, r7]
 584:Generated_Source\PSoC5/USB_midi.c ****             USB_midiInPointer++;
 208              		.loc 1 584 0
 209 0088 04F80E50 		strb	r5, [r4, lr]
 586:Generated_Source\PSoC5/USB_midi.c ****             USB_midiInPointer++;
 210              		.loc 1 586 0
 211 008c 04F80C50 		strb	r5, [r4, ip]
 212 0090 F0BD     		pop	{r4, r5, r6, r7, pc}
 213              	.LVL18:
 214              	.L28:
 598:Generated_Source\PSoC5/USB_midi.c ****                 USB_midiInPointer++;
 215              		.loc 1 598 0
 216 0092 574A     		ldr	r2, .L31+4
 217              	.LVL19:
 218 0094 5548     		ldr	r0, .L31
 219              	.LVL20:
 220 0096 1778     		ldrb	r7, [r2]	@ zero_extendqisi2
 599:Generated_Source\PSoC5/USB_midi.c ****             }
 221              		.loc 1 599 0
 222 0098 1678     		ldrb	r6, [r2]	@ zero_extendqisi2
 598:Generated_Source\PSoC5/USB_midi.c ****                 USB_midiInPointer++;
 223              		.loc 1 598 0
 224 009a 43EA1413 		orr	r3, r3, r4, lsr #4
 225              	.LVL21:
 599:Generated_Source\PSoC5/USB_midi.c ****             }
 226              		.loc 1 599 0
 227 009e 0136     		adds	r6, r6, #1
 228 00a0 F6B2     		uxtb	r6, r6
 598:Generated_Source\PSoC5/USB_midi.c ****                 USB_midiInPointer++;
 229              		.loc 1 598 0
 230 00a2 C355     		strb	r3, [r0, r7]
 599:Generated_Source\PSoC5/USB_midi.c ****             }
 231              		.loc 1 599 0
 232 00a4 1670     		strb	r6, [r2]
 233              	.L15:
 620:Generated_Source\PSoC5/USB_midi.c ****             USB_midiInPointer++;
 234              		.loc 1 620 0
 235 00a6 1678     		ldrb	r6, [r2]	@ zero_extendqisi2
 621:Generated_Source\PSoC5/USB_midi.c ****             USB_midiInBuffer[USB_midiInPointer] = srcBuffOne;
 236              		.loc 1 621 0
 237 00a8 1378     		ldrb	r3, [r2]	@ zero_extendqisi2
 620:Generated_Source\PSoC5/USB_midi.c ****             USB_midiInPointer++;
 238              		.loc 1 620 0
 239 00aa 8455     		strb	r4, [r0, r6]
 621:Generated_Source\PSoC5/USB_midi.c ****             USB_midiInBuffer[USB_midiInPointer] = srcBuffOne;
 240              		.loc 1 621 0
ARM GAS  C:\Users\jwvance\AppData\Local\Temp\ccxTgFRe.s 			page 17


 241 00ac 0133     		adds	r3, r3, #1
 242 00ae DBB2     		uxtb	r3, r3
 243 00b0 1370     		strb	r3, [r2]
 622:Generated_Source\PSoC5/USB_midi.c ****             USB_midiInPointer++;
 244              		.loc 1 622 0
 245 00b2 1478     		ldrb	r4, [r2]	@ zero_extendqisi2
 246              	.LVL22:
 623:Generated_Source\PSoC5/USB_midi.c ****             USB_midiInBuffer[USB_midiInPointer] = srcBuff[2u];
 247              		.loc 1 623 0
 248 00b4 1378     		ldrb	r3, [r2]	@ zero_extendqisi2
 622:Generated_Source\PSoC5/USB_midi.c ****             USB_midiInPointer++;
 249              		.loc 1 622 0
 250 00b6 0555     		strb	r5, [r0, r4]
 251              	.LVL23:
 623:Generated_Source\PSoC5/USB_midi.c ****             USB_midiInBuffer[USB_midiInPointer] = srcBuff[2u];
 252              		.loc 1 623 0
 253 00b8 0133     		adds	r3, r3, #1
 254 00ba DBB2     		uxtb	r3, r3
 255 00bc 1370     		strb	r3, [r2]
 624:Generated_Source\PSoC5/USB_midi.c ****             USB_midiInPointer++;
 256              		.loc 1 624 0
 257 00be 1478     		ldrb	r4, [r2]	@ zero_extendqisi2
 625:Generated_Source\PSoC5/USB_midi.c ****         }
 258              		.loc 1 625 0
 259 00c0 1378     		ldrb	r3, [r2]	@ zero_extendqisi2
 624:Generated_Source\PSoC5/USB_midi.c ****             USB_midiInPointer++;
 260              		.loc 1 624 0
 261 00c2 8978     		ldrb	r1, [r1, #2]	@ zero_extendqisi2
 262              	.LVL24:
 625:Generated_Source\PSoC5/USB_midi.c ****         }
 263              		.loc 1 625 0
 264 00c4 0133     		adds	r3, r3, #1
 265 00c6 DBB2     		uxtb	r3, r3
 624:Generated_Source\PSoC5/USB_midi.c ****             USB_midiInPointer++;
 266              		.loc 1 624 0
 267 00c8 0155     		strb	r1, [r0, r4]
 625:Generated_Source\PSoC5/USB_midi.c ****         }
 268              		.loc 1 625 0
 269 00ca 1370     		strb	r3, [r2]
 270 00cc F0BD     		pop	{r4, r5, r6, r7, pc}
 271              	.LVL25:
 272              	.L27:
 628:Generated_Source\PSoC5/USB_midi.c ****         {
 629:Generated_Source\PSoC5/USB_midi.c ****             switch (eventLen)
 273              		.loc 1 629 0
 274 00ce 012A     		cmp	r2, #1
 275 00d0 67D0     		beq	.L19
 276 00d2 0DD3     		bcc	.L20
 277 00d4 022A     		cmp	r2, #2
 278 00d6 45D0     		beq	.L21
 279 00d8 F0BD     		pop	{r4, r5, r6, r7, pc}
 280              	.LVL26:
 281              	.L26:
 593:Generated_Source\PSoC5/USB_midi.c ****                 USB_midiInPointer++;
 282              		.loc 1 593 0
 283 00da 454A     		ldr	r2, .L31+4
 284              	.LVL27:
ARM GAS  C:\Users\jwvance\AppData\Local\Temp\ccxTgFRe.s 			page 18


 285 00dc 4348     		ldr	r0, .L31
 286              	.LVL28:
 287 00de 1778     		ldrb	r7, [r2]	@ zero_extendqisi2
 594:Generated_Source\PSoC5/USB_midi.c ****             }
 288              		.loc 1 594 0
 289 00e0 1678     		ldrb	r6, [r2]	@ zero_extendqisi2
 593:Generated_Source\PSoC5/USB_midi.c ****                 USB_midiInPointer++;
 290              		.loc 1 593 0
 291 00e2 43F00403 		orr	r3, r3, #4
 292              	.LVL29:
 594:Generated_Source\PSoC5/USB_midi.c ****             }
 293              		.loc 1 594 0
 294 00e6 0136     		adds	r6, r6, #1
 295 00e8 F6B2     		uxtb	r6, r6
 593:Generated_Source\PSoC5/USB_midi.c ****                 USB_midiInPointer++;
 296              		.loc 1 593 0
 297 00ea C355     		strb	r3, [r0, r7]
 594:Generated_Source\PSoC5/USB_midi.c ****             }
 298              		.loc 1 594 0
 299 00ec 1670     		strb	r6, [r2]
 300 00ee DAE7     		b	.L15
 301              	.LVL30:
 302              	.L20:
 630:Generated_Source\PSoC5/USB_midi.c ****             {
 631:Generated_Source\PSoC5/USB_midi.c ****                 case 0u:
 632:Generated_Source\PSoC5/USB_midi.c ****                     USB_midiInBuffer[USB_midiInPointer] =
 303              		.loc 1 632 0
 304 00f0 3F4A     		ldr	r2, .L31+4
 305              	.LVL31:
 306 00f2 3E4C     		ldr	r4, .L31
 307              	.LVL32:
 308 00f4 1778     		ldrb	r7, [r2]	@ zero_extendqisi2
 633:Generated_Source\PSoC5/USB_midi.c ****                                                                         USB_SYSEX_ENDS_WITH1 | cabl
 634:Generated_Source\PSoC5/USB_midi.c ****                     USB_midiInPointer++;
 309              		.loc 1 634 0
 310 00f6 1178     		ldrb	r1, [r2]	@ zero_extendqisi2
 311              	.LVL33:
 635:Generated_Source\PSoC5/USB_midi.c ****                     USB_midiInBuffer[USB_midiInPointer] = USB_MIDI_EOSEX;
 636:Generated_Source\PSoC5/USB_midi.c ****                     USB_midiInPointer++;
 637:Generated_Source\PSoC5/USB_midi.c ****                     USB_midiInBuffer[USB_midiInPointer] = 0u;
 312              		.loc 1 637 0
 313 00f8 0025     		movs	r5, #0
 314              	.LVL34:
 634:Generated_Source\PSoC5/USB_midi.c ****                     USB_midiInBuffer[USB_midiInPointer] = USB_MIDI_EOSEX;
 315              		.loc 1 634 0
 316 00fa 0131     		adds	r1, r1, #1
 317 00fc C9B2     		uxtb	r1, r1
 318 00fe 1170     		strb	r1, [r2]
 319              	.LVL35:
 635:Generated_Source\PSoC5/USB_midi.c ****                     USB_midiInBuffer[USB_midiInPointer] = USB_MIDI_EOSEX;
 320              		.loc 1 635 0
 321 0100 1678     		ldrb	r6, [r2]	@ zero_extendqisi2
 636:Generated_Source\PSoC5/USB_midi.c ****                     USB_midiInBuffer[USB_midiInPointer] = 0u;
 322              		.loc 1 636 0
 323 0102 1178     		ldrb	r1, [r2]	@ zero_extendqisi2
 632:Generated_Source\PSoC5/USB_midi.c ****                                                                         USB_SYSEX_ENDS_WITH1 | cabl
 324              		.loc 1 632 0
ARM GAS  C:\Users\jwvance\AppData\Local\Temp\ccxTgFRe.s 			page 19


 325 0104 43F00503 		orr	r3, r3, #5
 326              	.LVL36:
 636:Generated_Source\PSoC5/USB_midi.c ****                     USB_midiInBuffer[USB_midiInPointer] = 0u;
 327              		.loc 1 636 0
 328 0108 0131     		adds	r1, r1, #1
 329 010a C9B2     		uxtb	r1, r1
 330 010c 1170     		strb	r1, [r2]
 331              		.loc 1 637 0
 332 010e 92F800E0 		ldrb	lr, [r2]	@ zero_extendqisi2
 638:Generated_Source\PSoC5/USB_midi.c ****                     USB_midiInPointer++;
 333              		.loc 1 638 0
 334 0112 1178     		ldrb	r1, [r2]	@ zero_extendqisi2
 637:Generated_Source\PSoC5/USB_midi.c ****                     USB_midiInPointer++;
 335              		.loc 1 637 0
 336 0114 5FFA8EFE 		uxtb	lr, lr
 337              		.loc 1 638 0
 338 0118 0131     		adds	r1, r1, #1
 339 011a C9B2     		uxtb	r1, r1
 340 011c 1170     		strb	r1, [r2]
 639:Generated_Source\PSoC5/USB_midi.c ****                     USB_midiInBuffer[USB_midiInPointer] = 0u;
 341              		.loc 1 639 0
 342 011e 92F800C0 		ldrb	ip, [r2]	@ zero_extendqisi2
 640:Generated_Source\PSoC5/USB_midi.c ****                     USB_midiInPointer++;
 343              		.loc 1 640 0
 344 0122 1178     		ldrb	r1, [r2]	@ zero_extendqisi2
 639:Generated_Source\PSoC5/USB_midi.c ****                     USB_midiInBuffer[USB_midiInPointer] = 0u;
 345              		.loc 1 639 0
 346 0124 5FFA8CFC 		uxtb	ip, ip
 347              		.loc 1 640 0
 348 0128 0131     		adds	r1, r1, #1
 349 012a C9B2     		uxtb	r1, r1
 632:Generated_Source\PSoC5/USB_midi.c ****                                                                         USB_SYSEX_ENDS_WITH1 | cabl
 350              		.loc 1 632 0
 351 012c E355     		strb	r3, [r4, r7]
 352              	.LVL37:
 353              		.loc 1 640 0
 354 012e 1170     		strb	r1, [r2]
 635:Generated_Source\PSoC5/USB_midi.c ****                     USB_midiInPointer++;
 355              		.loc 1 635 0
 356 0130 A055     		strb	r0, [r4, r6]
 637:Generated_Source\PSoC5/USB_midi.c ****                     USB_midiInPointer++;
 357              		.loc 1 637 0
 358 0132 04F80E50 		strb	r5, [r4, lr]
 639:Generated_Source\PSoC5/USB_midi.c ****                     USB_midiInPointer++;
 359              		.loc 1 639 0
 360 0136 04F80C50 		strb	r5, [r4, ip]
 641:Generated_Source\PSoC5/USB_midi.c ****                     break;
 361              		.loc 1 641 0
 362 013a F0BD     		pop	{r4, r5, r6, r7, pc}
 363              	.LVL38:
 364              	.L30:
 608:Generated_Source\PSoC5/USB_midi.c ****                 USB_midiInPointer++;
 365              		.loc 1 608 0
 366 013c 1778     		ldrb	r7, [r2]	@ zero_extendqisi2
 609:Generated_Source\PSoC5/USB_midi.c ****             }
 367              		.loc 1 609 0
 368 013e 1678     		ldrb	r6, [r2]	@ zero_extendqisi2
ARM GAS  C:\Users\jwvance\AppData\Local\Temp\ccxTgFRe.s 			page 20


 608:Generated_Source\PSoC5/USB_midi.c ****                 USB_midiInPointer++;
 369              		.loc 1 608 0
 370 0140 43F00203 		orr	r3, r3, #2
 371              	.LVL39:
 609:Generated_Source\PSoC5/USB_midi.c ****             }
 372              		.loc 1 609 0
 373 0144 0136     		adds	r6, r6, #1
 374 0146 F6B2     		uxtb	r6, r6
 608:Generated_Source\PSoC5/USB_midi.c ****                 USB_midiInPointer++;
 375              		.loc 1 608 0
 376 0148 C355     		strb	r3, [r0, r7]
 609:Generated_Source\PSoC5/USB_midi.c ****             }
 377              		.loc 1 609 0
 378 014a 1670     		strb	r6, [r2]
 379 014c ABE7     		b	.L15
 380              	.LVL40:
 381              	.L29:
 603:Generated_Source\PSoC5/USB_midi.c ****                 USB_midiInPointer++;
 382              		.loc 1 603 0
 383 014e 284A     		ldr	r2, .L31+4
 384              	.LVL41:
 385 0150 2648     		ldr	r0, .L31
 386              	.LVL42:
 387 0152 1778     		ldrb	r7, [r2]	@ zero_extendqisi2
 604:Generated_Source\PSoC5/USB_midi.c ****             }
 388              		.loc 1 604 0
 389 0154 1678     		ldrb	r6, [r2]	@ zero_extendqisi2
 603:Generated_Source\PSoC5/USB_midi.c ****                 USB_midiInPointer++;
 390              		.loc 1 603 0
 391 0156 43F00503 		orr	r3, r3, #5
 392              	.LVL43:
 604:Generated_Source\PSoC5/USB_midi.c ****             }
 393              		.loc 1 604 0
 394 015a 0136     		adds	r6, r6, #1
 395 015c F6B2     		uxtb	r6, r6
 603:Generated_Source\PSoC5/USB_midi.c ****                 USB_midiInPointer++;
 396              		.loc 1 603 0
 397 015e C355     		strb	r3, [r0, r7]
 604:Generated_Source\PSoC5/USB_midi.c ****             }
 398              		.loc 1 604 0
 399 0160 1670     		strb	r6, [r2]
 400 0162 A0E7     		b	.L15
 401              	.LVL44:
 402              	.L21:
 642:Generated_Source\PSoC5/USB_midi.c ****                 case 1u:
 643:Generated_Source\PSoC5/USB_midi.c ****                     USB_midiInBuffer[USB_midiInPointer] =
 644:Generated_Source\PSoC5/USB_midi.c ****                                                                         USB_SYSEX_ENDS_WITH2 | cabl
 645:Generated_Source\PSoC5/USB_midi.c ****                     USB_midiInPointer++;
 646:Generated_Source\PSoC5/USB_midi.c ****                     USB_midiInBuffer[USB_midiInPointer] = srcBuffZero;
 647:Generated_Source\PSoC5/USB_midi.c ****                     USB_midiInPointer++;
 648:Generated_Source\PSoC5/USB_midi.c ****                     USB_midiInBuffer[USB_midiInPointer] = USB_MIDI_EOSEX;
 649:Generated_Source\PSoC5/USB_midi.c ****                     USB_midiInPointer++;
 650:Generated_Source\PSoC5/USB_midi.c ****                     USB_midiInBuffer[USB_midiInPointer] = 0u;
 651:Generated_Source\PSoC5/USB_midi.c ****                     USB_midiInPointer++;
 652:Generated_Source\PSoC5/USB_midi.c ****                     break;
 653:Generated_Source\PSoC5/USB_midi.c ****                 case 2u:
 654:Generated_Source\PSoC5/USB_midi.c ****                     USB_midiInBuffer[USB_midiInPointer] =
ARM GAS  C:\Users\jwvance\AppData\Local\Temp\ccxTgFRe.s 			page 21


 403              		.loc 1 654 0
 404 0164 224A     		ldr	r2, .L31+4
 405              	.LVL45:
 406 0166 2149     		ldr	r1, .L31
 407              	.LVL46:
 408 0168 92F800E0 		ldrb	lr, [r2]	@ zero_extendqisi2
 655:Generated_Source\PSoC5/USB_midi.c ****                                                                         USB_SYSEX_ENDS_WITH3 | cabl
 656:Generated_Source\PSoC5/USB_midi.c ****                     USB_midiInPointer++;
 409              		.loc 1 656 0
 410 016c 1678     		ldrb	r6, [r2]	@ zero_extendqisi2
 654:Generated_Source\PSoC5/USB_midi.c ****                                                                         USB_SYSEX_ENDS_WITH3 | cabl
 411              		.loc 1 654 0
 412 016e 43F00703 		orr	r3, r3, #7
 413              	.LVL47:
 414              		.loc 1 656 0
 415 0172 0136     		adds	r6, r6, #1
 416 0174 F6B2     		uxtb	r6, r6
 417 0176 1670     		strb	r6, [r2]
 657:Generated_Source\PSoC5/USB_midi.c ****                     USB_midiInBuffer[USB_midiInPointer] = srcBuffZero;
 418              		.loc 1 657 0
 419 0178 1778     		ldrb	r7, [r2]	@ zero_extendqisi2
 658:Generated_Source\PSoC5/USB_midi.c ****                     USB_midiInPointer++;
 420              		.loc 1 658 0
 421 017a 1678     		ldrb	r6, [r2]	@ zero_extendqisi2
 654:Generated_Source\PSoC5/USB_midi.c ****                                                                         USB_SYSEX_ENDS_WITH3 | cabl
 422              		.loc 1 654 0
 423 017c 01F80E30 		strb	r3, [r1, lr]
 424              		.loc 1 658 0
 425 0180 731C     		adds	r3, r6, #1
 426 0182 DBB2     		uxtb	r3, r3
 427 0184 1370     		strb	r3, [r2]
 659:Generated_Source\PSoC5/USB_midi.c ****                     USB_midiInBuffer[USB_midiInPointer] = srcBuffOne;
 428              		.loc 1 659 0
 429 0186 1678     		ldrb	r6, [r2]	@ zero_extendqisi2
 660:Generated_Source\PSoC5/USB_midi.c ****                     USB_midiInPointer++;
 430              		.loc 1 660 0
 431 0188 1378     		ldrb	r3, [r2]	@ zero_extendqisi2
 657:Generated_Source\PSoC5/USB_midi.c ****                     USB_midiInPointer++;
 432              		.loc 1 657 0
 433 018a CC55     		strb	r4, [r1, r7]
 434              		.loc 1 660 0
 435 018c 0133     		adds	r3, r3, #1
 436 018e DBB2     		uxtb	r3, r3
 437 0190 1370     		strb	r3, [r2]
 661:Generated_Source\PSoC5/USB_midi.c ****                     USB_midiInBuffer[USB_midiInPointer] = USB_MIDI_EOSEX;
 438              		.loc 1 661 0
 439 0192 1478     		ldrb	r4, [r2]	@ zero_extendqisi2
 440              	.LVL48:
 662:Generated_Source\PSoC5/USB_midi.c ****                     USB_midiInPointer++;
 441              		.loc 1 662 0
 442 0194 1378     		ldrb	r3, [r2]	@ zero_extendqisi2
 659:Generated_Source\PSoC5/USB_midi.c ****                     USB_midiInPointer++;
 443              		.loc 1 659 0
 444 0196 8D55     		strb	r5, [r1, r6]
 445              	.LVL49:
 446              		.loc 1 662 0
 447 0198 0133     		adds	r3, r3, #1
ARM GAS  C:\Users\jwvance\AppData\Local\Temp\ccxTgFRe.s 			page 22


 448 019a DBB2     		uxtb	r3, r3
 661:Generated_Source\PSoC5/USB_midi.c ****                     USB_midiInBuffer[USB_midiInPointer] = USB_MIDI_EOSEX;
 449              		.loc 1 661 0
 450 019c 0855     		strb	r0, [r1, r4]
 451              		.loc 1 662 0
 452 019e 1370     		strb	r3, [r2]
 663:Generated_Source\PSoC5/USB_midi.c ****                     break;
 453              		.loc 1 663 0
 454 01a0 39E7     		b	.L10
 455              	.LVL50:
 456              	.L19:
 643:Generated_Source\PSoC5/USB_midi.c ****                                                                         USB_SYSEX_ENDS_WITH2 | cabl
 457              		.loc 1 643 0
 458 01a2 134A     		ldr	r2, .L31+4
 459              	.LVL51:
 460 01a4 43F0060C 		orr	ip, r3, #6
 461 01a8 92F800E0 		ldrb	lr, [r2]	@ zero_extendqisi2
 645:Generated_Source\PSoC5/USB_midi.c ****                     USB_midiInBuffer[USB_midiInPointer] = srcBuffZero;
 462              		.loc 1 645 0
 463 01ac 1178     		ldrb	r1, [r2]	@ zero_extendqisi2
 464              	.LVL52:
 643:Generated_Source\PSoC5/USB_midi.c ****                                                                         USB_SYSEX_ENDS_WITH2 | cabl
 465              		.loc 1 643 0
 466 01ae 0F4D     		ldr	r5, .L31
 467              	.LVL53:
 645:Generated_Source\PSoC5/USB_midi.c ****                     USB_midiInBuffer[USB_midiInPointer] = srcBuffZero;
 468              		.loc 1 645 0
 469 01b0 0131     		adds	r1, r1, #1
 470 01b2 C9B2     		uxtb	r1, r1
 471 01b4 1170     		strb	r1, [r2]
 646:Generated_Source\PSoC5/USB_midi.c ****                     USB_midiInPointer++;
 472              		.loc 1 646 0
 473 01b6 1778     		ldrb	r7, [r2]	@ zero_extendqisi2
 647:Generated_Source\PSoC5/USB_midi.c ****                     USB_midiInBuffer[USB_midiInPointer] = USB_MIDI_EOSEX;
 474              		.loc 1 647 0
 475 01b8 1178     		ldrb	r1, [r2]	@ zero_extendqisi2
 643:Generated_Source\PSoC5/USB_midi.c ****                                                                         USB_SYSEX_ENDS_WITH2 | cabl
 476              		.loc 1 643 0
 477 01ba 05F80EC0 		strb	ip, [r5, lr]
 478              	.LVL54:
 647:Generated_Source\PSoC5/USB_midi.c ****                     USB_midiInBuffer[USB_midiInPointer] = USB_MIDI_EOSEX;
 479              		.loc 1 647 0
 480 01be 0131     		adds	r1, r1, #1
 481 01c0 C9B2     		uxtb	r1, r1
 482 01c2 1170     		strb	r1, [r2]
 648:Generated_Source\PSoC5/USB_midi.c ****                     USB_midiInPointer++;
 483              		.loc 1 648 0
 484 01c4 1178     		ldrb	r1, [r2]	@ zero_extendqisi2
 649:Generated_Source\PSoC5/USB_midi.c ****                     USB_midiInBuffer[USB_midiInPointer] = 0u;
 485              		.loc 1 649 0
 486 01c6 1378     		ldrb	r3, [r2]	@ zero_extendqisi2
 487              	.LVL55:
 650:Generated_Source\PSoC5/USB_midi.c ****                     USB_midiInPointer++;
 488              		.loc 1 650 0
 489 01c8 0026     		movs	r6, #0
 649:Generated_Source\PSoC5/USB_midi.c ****                     USB_midiInBuffer[USB_midiInPointer] = 0u;
 490              		.loc 1 649 0
ARM GAS  C:\Users\jwvance\AppData\Local\Temp\ccxTgFRe.s 			page 23


 491 01ca 0133     		adds	r3, r3, #1
 492 01cc DBB2     		uxtb	r3, r3
 493 01ce 1370     		strb	r3, [r2]
 650:Generated_Source\PSoC5/USB_midi.c ****                     USB_midiInPointer++;
 494              		.loc 1 650 0
 495 01d0 92F800E0 		ldrb	lr, [r2]	@ zero_extendqisi2
 651:Generated_Source\PSoC5/USB_midi.c ****                     break;
 496              		.loc 1 651 0
 497 01d4 1378     		ldrb	r3, [r2]	@ zero_extendqisi2
 650:Generated_Source\PSoC5/USB_midi.c ****                     USB_midiInPointer++;
 498              		.loc 1 650 0
 499 01d6 5FFA8EFE 		uxtb	lr, lr
 651:Generated_Source\PSoC5/USB_midi.c ****                     break;
 500              		.loc 1 651 0
 501 01da 0133     		adds	r3, r3, #1
 502 01dc DBB2     		uxtb	r3, r3
 646:Generated_Source\PSoC5/USB_midi.c ****                     USB_midiInPointer++;
 503              		.loc 1 646 0
 504 01de EC55     		strb	r4, [r5, r7]
 651:Generated_Source\PSoC5/USB_midi.c ****                     break;
 505              		.loc 1 651 0
 506 01e0 1370     		strb	r3, [r2]
 648:Generated_Source\PSoC5/USB_midi.c ****                     USB_midiInPointer++;
 507              		.loc 1 648 0
 508 01e2 6854     		strb	r0, [r5, r1]
 650:Generated_Source\PSoC5/USB_midi.c ****                     USB_midiInPointer++;
 509              		.loc 1 650 0
 510 01e4 05F80E60 		strb	r6, [r5, lr]
 652:Generated_Source\PSoC5/USB_midi.c ****                 case 2u:
 511              		.loc 1 652 0
 512 01e8 F0BD     		pop	{r4, r5, r6, r7, pc}
 513              	.LVL56:
 514              	.L32:
 515 01ea 00BF     		.align	2
 516              	.L31:
 517 01ec 00000000 		.word	USB_midiInBuffer
 518 01f0 00000000 		.word	USB_midiInPointer
 519              		.cfi_endproc
 520              	.LFE5:
 521              		.size	USB_PrepareInBuffer, .-USB_PrepareInBuffer
 522              		.section	.text.USB_PutUsbMidiIn,"ax",%progbits
 523              		.align	2
 524              		.global	USB_PutUsbMidiIn
 525              		.thumb
 526              		.thumb_func
 527              		.type	USB_PutUsbMidiIn, %function
 528              	USB_PutUsbMidiIn:
 529              	.LFB4:
 461:Generated_Source\PSoC5/USB_midi.c ****         uint8 retError = USB_FALSE;
 530              		.loc 1 461 0
 531              		.cfi_startproc
 532              		@ args = 0, pretend = 0, frame = 8
 533              		@ frame_needed = 0, uses_anonymous_args = 0
 534              	.LVL57:
 535 0000 2DE9F04F 		push	{r4, r5, r6, r7, r8, r9, r10, fp, lr}
 536              		.cfi_def_cfa_offset 36
 537              		.cfi_offset 4, -36
ARM GAS  C:\Users\jwvance\AppData\Local\Temp\ccxTgFRe.s 			page 24


 538              		.cfi_offset 5, -32
 539              		.cfi_offset 6, -28
 540              		.cfi_offset 7, -24
 541              		.cfi_offset 8, -20
 542              		.cfi_offset 9, -16
 543              		.cfi_offset 10, -12
 544              		.cfi_offset 11, -8
 545              		.cfi_offset 14, -4
 473:Generated_Source\PSoC5/USB_midi.c ****                     (USB_EP[USB_midi_in_ep].bufferSize - USB_EVENT_LENGTH))
 546              		.loc 1 473 0
 547 0004 374F     		ldr	r7, .L50
 474:Generated_Source\PSoC5/USB_midi.c ****         {
 548              		.loc 1 474 0
 549 0006 384D     		ldr	r5, .L50+4
 461:Generated_Source\PSoC5/USB_midi.c ****         uint8 retError = USB_FALSE;
 550              		.loc 1 461 0
 551 0008 83B0     		sub	sp, sp, #12
 552              		.cfi_def_cfa_offset 48
 461:Generated_Source\PSoC5/USB_midi.c ****         uint8 retError = USB_FALSE;
 553              		.loc 1 461 0
 554 000a 9046     		mov	r8, r2
 555 000c 0446     		mov	r4, r0
 556 000e 0191     		str	r1, [sp, #4]
 467:Generated_Source\PSoC5/USB_midi.c ****             #if (USB_MIDI_EXT_MODE >= USB_TWO_EXT_INTRF)
 557              		.loc 1 467 0
 558 0010 FFF7FEFF 		bl	MIDI1_UART_DisableRxInt
 559              	.LVL58:
 469:Generated_Source\PSoC5/USB_midi.c ****             #endif /* (USB_MIDI_EXT_MODE >= USB_TWO_EXT_INTRF) */
 560              		.loc 1 469 0
 561 0014 FFF7FEFF 		bl	MIDI2_UART_DisableRxInt
 562              	.LVL59:
 473:Generated_Source\PSoC5/USB_midi.c ****                     (USB_EP[USB_midi_in_ep].bufferSize - USB_EVENT_LENGTH))
 563              		.loc 1 473 0
 564 0018 3A78     		ldrb	r2, [r7]	@ zero_extendqisi2
 474:Generated_Source\PSoC5/USB_midi.c ****         {
 565              		.loc 1 474 0
 566 001a 2B78     		ldrb	r3, [r5]	@ zero_extendqisi2
 567 001c 334E     		ldr	r6, .L50+8
 568 001e 03EB4303 		add	r3, r3, r3, lsl #1
 569 0022 06EB8303 		add	r3, r6, r3, lsl #2
 570 0026 1B89     		ldrh	r3, [r3, #8]
 571 0028 9BB2     		uxth	r3, r3
 572 002a 043B     		subs	r3, r3, #4
 473:Generated_Source\PSoC5/USB_midi.c ****                     (USB_EP[USB_midi_in_ep].bufferSize - USB_EVENT_LENGTH))
 573              		.loc 1 473 0
 574 002c 9A42     		cmp	r2, r3
 575 002e 4DD8     		bhi	.L47
 576              	.L34:
 478:Generated_Source\PSoC5/USB_midi.c ****                     (USB_EP[USB_midi_in_ep].bufferSize - USB_EVENT_LENGTH))
 577              		.loc 1 478 0
 578 0030 3A78     		ldrb	r2, [r7]	@ zero_extendqisi2
 479:Generated_Source\PSoC5/USB_midi.c ****         {
 579              		.loc 1 479 0
 580 0032 2B78     		ldrb	r3, [r5]	@ zero_extendqisi2
 581 0034 03EB4303 		add	r3, r3, r3, lsl #1
 582 0038 06EB8303 		add	r3, r6, r3, lsl #2
 583 003c 1B89     		ldrh	r3, [r3, #8]
ARM GAS  C:\Users\jwvance\AppData\Local\Temp\ccxTgFRe.s 			page 25


 584 003e 9BB2     		uxth	r3, r3
 585 0040 043B     		subs	r3, r3, #4
 478:Generated_Source\PSoC5/USB_midi.c ****                     (USB_EP[USB_midi_in_ep].bufferSize - USB_EVENT_LENGTH))
 586              		.loc 1 478 0
 587 0042 9A42     		cmp	r2, r3
 588 0044 31D8     		bhi	.L35
 481:Generated_Source\PSoC5/USB_midi.c ****             {
 589              		.loc 1 481 0
 590 0046 231F     		subs	r3, r4, #4
 591 0048 DBB2     		uxtb	r3, r3
 592 004a EB2B     		cmp	r3, #235
 593 004c 41D8     		bhi	.L48
 594 004e DDF80490 		ldr	r9, [sp, #4]
 494:Generated_Source\PSoC5/USB_midi.c ****                         (USB_EP[USB_midi_in_ep].bufferSize - USB_EVENT_LENGTH))
 595              		.loc 1 494 0
 596 0052 DFF890B0 		ldr	fp, .L50
 495:Generated_Source\PSoC5/USB_midi.c ****                     {
 597              		.loc 1 495 0
 598 0056 DFF890A0 		ldr	r10, .L50+4
 599 005a 01E0     		b	.L39
 600              	.LVL60:
 601              	.L41:
 507:Generated_Source\PSoC5/USB_midi.c **** 
 602              		.loc 1 507 0
 603 005c 032C     		cmp	r4, #3
 604 005e 2DD9     		bls	.L49
 605              	.LVL61:
 606              	.L39:
 490:Generated_Source\PSoC5/USB_midi.c ****                                                      USB_EVENT_BYTE3, cable);
 607              		.loc 1 490 0
 608 0060 4946     		mov	r1, r9
 609 0062 0322     		movs	r2, #3
 610 0064 4346     		mov	r3, r8
 611 0066 F020     		movs	r0, #240
 612 0068 FFF7FEFF 		bl	USB_PrepareInBuffer
 613              	.LVL62:
 494:Generated_Source\PSoC5/USB_midi.c ****                         (USB_EP[USB_midi_in_ep].bufferSize - USB_EVENT_LENGTH))
 614              		.loc 1 494 0
 615 006c 3A78     		ldrb	r2, [r7]	@ zero_extendqisi2
 495:Generated_Source\PSoC5/USB_midi.c ****                     {
 616              		.loc 1 495 0
 617 006e 2B78     		ldrb	r3, [r5]	@ zero_extendqisi2
 492:Generated_Source\PSoC5/USB_midi.c ****                     msgIndex += USB_EVENT_BYTE3;
 618              		.loc 1 492 0
 619 0070 033C     		subs	r4, r4, #3
 620              	.LVL63:
 495:Generated_Source\PSoC5/USB_midi.c ****                     {
 621              		.loc 1 495 0
 622 0072 03EB4303 		add	r3, r3, r3, lsl #1
 623 0076 06EB8303 		add	r3, r6, r3, lsl #2
 624 007a 1B89     		ldrh	r3, [r3, #8]
 492:Generated_Source\PSoC5/USB_midi.c ****                     msgIndex += USB_EVENT_BYTE3;
 625              		.loc 1 492 0
 626 007c E4B2     		uxtb	r4, r4
 627              	.LVL64:
 495:Generated_Source\PSoC5/USB_midi.c ****                     {
 628              		.loc 1 495 0
ARM GAS  C:\Users\jwvance\AppData\Local\Temp\ccxTgFRe.s 			page 26


 629 007e 9BB2     		uxth	r3, r3
 630 0080 043B     		subs	r3, r3, #4
 494:Generated_Source\PSoC5/USB_midi.c ****                         (USB_EP[USB_midi_in_ep].bufferSize - USB_EVENT_LENGTH))
 631              		.loc 1 494 0
 632 0082 9A42     		cmp	r2, r3
 633 0084 09F10309 		add	r9, r9, #3
 634 0088 E8D9     		bls	.L41
 497:Generated_Source\PSoC5/USB_midi.c ****                         if(USB_midiInPointer > 
 635              		.loc 1 497 0
 636 008a FFF7FEFF 		bl	USB_MIDI_IN_EP_Service
 637              	.LVL65:
 498:Generated_Source\PSoC5/USB_midi.c ****                           (USB_EP[USB_midi_in_ep].bufferSize - USB_EVENT_LENGTH))
 638              		.loc 1 498 0
 639 008e 9BF80020 		ldrb	r2, [fp]	@ zero_extendqisi2
 499:Generated_Source\PSoC5/USB_midi.c ****                         {
 640              		.loc 1 499 0
 641 0092 9AF80030 		ldrb	r3, [r10]	@ zero_extendqisi2
 642 0096 1549     		ldr	r1, .L50+8
 643 0098 03EB4303 		add	r3, r3, r3, lsl #1
 644 009c 01EB8303 		add	r3, r1, r3, lsl #2
 645 00a0 1B89     		ldrh	r3, [r3, #8]
 646 00a2 9BB2     		uxth	r3, r3
 647 00a4 043B     		subs	r3, r3, #4
 498:Generated_Source\PSoC5/USB_midi.c ****                           (USB_EP[USB_midi_in_ep].bufferSize - USB_EVENT_LENGTH))
 648              		.loc 1 498 0
 649 00a6 9A42     		cmp	r2, r3
 650 00a8 D8D9     		bls	.L41
 651              	.LVL66:
 652              	.L35:
 518:Generated_Source\PSoC5/USB_midi.c ****         }
 653              		.loc 1 518 0
 654 00aa 0124     		movs	r4, #1
 655              	.L37:
 656              	.LVL67:
 522:Generated_Source\PSoC5/USB_midi.c ****             #if (USB_MIDI_EXT_MODE >= USB_TWO_EXT_INTRF)
 657              		.loc 1 522 0
 658 00ac FFF7FEFF 		bl	MIDI1_UART_EnableRxInt
 659              	.LVL68:
 524:Generated_Source\PSoC5/USB_midi.c ****             #endif /* (USB_MIDI_EXT_MODE >= USB_TWO_EXT_INTRF) */
 660              		.loc 1 524 0
 661 00b0 FFF7FEFF 		bl	MIDI2_UART_EnableRxInt
 662              	.LVL69:
 529:Generated_Source\PSoC5/USB_midi.c **** 
 663              		.loc 1 529 0
 664 00b4 2046     		mov	r0, r4
 665 00b6 03B0     		add	sp, sp, #12
 666              		.cfi_remember_state
 667              		.cfi_def_cfa_offset 36
 668              		@ sp needed
 669 00b8 BDE8F08F 		pop	{r4, r5, r6, r7, r8, r9, r10, fp, pc}
 670              	.LVL70:
 671              	.L49:
 672              		.cfi_restore_state
 511:Generated_Source\PSoC5/USB_midi.c ****                 }
 673              		.loc 1 511 0
 674 00bc 2246     		mov	r2, r4
 675 00be 0199     		ldr	r1, [sp, #4]
ARM GAS  C:\Users\jwvance\AppData\Local\Temp\ccxTgFRe.s 			page 27


 676 00c0 4346     		mov	r3, r8
 677 00c2 F720     		movs	r0, #247
 678 00c4 FFF7FEFF 		bl	USB_PrepareInBuffer
 679              	.LVL71:
 680 00c8 0024     		movs	r4, #0
 681              	.LVL72:
 682 00ca EFE7     		b	.L37
 683              	.LVL73:
 684              	.L47:
 476:Generated_Source\PSoC5/USB_midi.c ****         }
 685              		.loc 1 476 0
 686 00cc FFF7FEFF 		bl	USB_MIDI_IN_EP_Service
 687              	.LVL74:
 688 00d0 AEE7     		b	.L34
 689              	.L48:
 483:Generated_Source\PSoC5/USB_midi.c ****             }
 690              		.loc 1 483 0
 691 00d2 2046     		mov	r0, r4
 692 00d4 2246     		mov	r2, r4
 693 00d6 0199     		ldr	r1, [sp, #4]
 694 00d8 4346     		mov	r3, r8
 695 00da FFF7FEFF 		bl	USB_PrepareInBuffer
 696              	.LVL75:
 462:Generated_Source\PSoC5/USB_midi.c ****         uint8 msgIndex;
 697              		.loc 1 462 0
 698 00de 0024     		movs	r4, #0
 699 00e0 E4E7     		b	.L37
 700              	.L51:
 701 00e2 00BF     		.align	2
 702              	.L50:
 703 00e4 00000000 		.word	USB_midiInPointer
 704 00e8 00000000 		.word	USB_midi_in_ep
 705 00ec 00000000 		.word	USB_EP
 706              		.cfi_endproc
 707              	.LFE4:
 708              		.size	USB_PutUsbMidiIn, .-USB_PutUsbMidiIn
 709              		.section	.text.USB_MIDI_Init,"ax",%progbits
 710              		.align	2
 711              		.global	USB_MIDI_Init
 712              		.thumb
 713              		.thumb_func
 714              		.type	USB_MIDI_Init, %function
 715              	USB_MIDI_Init:
 716              	.LFB6:
 664:Generated_Source\PSoC5/USB_midi.c ****                 default:
 665:Generated_Source\PSoC5/USB_midi.c ****                     break;
 666:Generated_Source\PSoC5/USB_midi.c ****             }
 667:Generated_Source\PSoC5/USB_midi.c ****         }
 668:Generated_Source\PSoC5/USB_midi.c ****         else
 669:Generated_Source\PSoC5/USB_midi.c ****         {
 670:Generated_Source\PSoC5/USB_midi.c ****         }
 671:Generated_Source\PSoC5/USB_midi.c ****     }
 672:Generated_Source\PSoC5/USB_midi.c **** 
 673:Generated_Source\PSoC5/USB_midi.c **** #endif /* #if (USB_MIDI_IN_BUFF_SIZE > 0) */
 674:Generated_Source\PSoC5/USB_midi.c **** 
 675:Generated_Source\PSoC5/USB_midi.c **** 
 676:Generated_Source\PSoC5/USB_midi.c **** /* The implementation for external serial input and output connections
ARM GAS  C:\Users\jwvance\AppData\Local\Temp\ccxTgFRe.s 			page 28


 677:Generated_Source\PSoC5/USB_midi.c **** *  to route USB MIDI data to and from those connections.
 678:Generated_Source\PSoC5/USB_midi.c **** */
 679:Generated_Source\PSoC5/USB_midi.c **** #if (USB_MIDI_EXT_MODE >= USB_ONE_EXT_INTRF)
 680:Generated_Source\PSoC5/USB_midi.c **** 
 681:Generated_Source\PSoC5/USB_midi.c **** 
 682:Generated_Source\PSoC5/USB_midi.c ****     /*******************************************************************************
 683:Generated_Source\PSoC5/USB_midi.c ****     * Function Name: USB_MIDI_Init
 684:Generated_Source\PSoC5/USB_midi.c ****     ********************************************************************************
 685:Generated_Source\PSoC5/USB_midi.c ****     *
 686:Generated_Source\PSoC5/USB_midi.c ****     * Summary:
 687:Generated_Source\PSoC5/USB_midi.c ****     *  Initializes MIDI variables and starts the UART(s) hardware block(s).
 688:Generated_Source\PSoC5/USB_midi.c ****     *
 689:Generated_Source\PSoC5/USB_midi.c ****     * Parameters:
 690:Generated_Source\PSoC5/USB_midi.c ****     *  None
 691:Generated_Source\PSoC5/USB_midi.c ****     *
 692:Generated_Source\PSoC5/USB_midi.c ****     * Return:
 693:Generated_Source\PSoC5/USB_midi.c ****     *  None
 694:Generated_Source\PSoC5/USB_midi.c ****     *
 695:Generated_Source\PSoC5/USB_midi.c ****     * Side Effects:
 696:Generated_Source\PSoC5/USB_midi.c ****     *  Change the priority of the UART(s) TX interrupts to be higher than the
 697:Generated_Source\PSoC5/USB_midi.c ****     *  default EP ISR priority.
 698:Generated_Source\PSoC5/USB_midi.c ****     *
 699:Generated_Source\PSoC5/USB_midi.c ****     * Global variables:
 700:Generated_Source\PSoC5/USB_midi.c ****     *   USB_MIDI_Event: initialized to zero.
 701:Generated_Source\PSoC5/USB_midi.c ****     *   USB_MIDI_TxRunStat: initialized to zero.
 702:Generated_Source\PSoC5/USB_midi.c ****     *
 703:Generated_Source\PSoC5/USB_midi.c ****     *******************************************************************************/
 704:Generated_Source\PSoC5/USB_midi.c ****     void USB_MIDI_Init(void) 
 705:Generated_Source\PSoC5/USB_midi.c ****     {
 717              		.loc 1 705 0
 718              		.cfi_startproc
 719              		@ args = 0, pretend = 0, frame = 0
 720              		@ frame_needed = 0, uses_anonymous_args = 0
 721 0000 38B5     		push	{r3, r4, r5, lr}
 722              		.cfi_def_cfa_offset 16
 723              		.cfi_offset 3, -16
 724              		.cfi_offset 4, -12
 725              		.cfi_offset 5, -8
 726              		.cfi_offset 14, -4
 706:Generated_Source\PSoC5/USB_midi.c ****         USB_MIDI1_Event.length = 0u;
 727              		.loc 1 706 0
 728 0002 134D     		ldr	r5, .L54
 707:Generated_Source\PSoC5/USB_midi.c ****         USB_MIDI1_Event.count = 0u;
 708:Generated_Source\PSoC5/USB_midi.c ****         USB_MIDI1_Event.size = 0u;
 709:Generated_Source\PSoC5/USB_midi.c ****         USB_MIDI1_Event.runstat = 0u;
 710:Generated_Source\PSoC5/USB_midi.c ****         USB_MIDI1_TxRunStat = 0u;
 711:Generated_Source\PSoC5/USB_midi.c ****         USB_MIDI1_InqFlags = 0u;
 729              		.loc 1 711 0
 730 0004 134B     		ldr	r3, .L54+4
 706:Generated_Source\PSoC5/USB_midi.c ****         USB_MIDI1_Event.length = 0u;
 731              		.loc 1 706 0
 732 0006 0024     		movs	r4, #0
 710:Generated_Source\PSoC5/USB_midi.c ****         USB_MIDI1_InqFlags = 0u;
 733              		.loc 1 710 0
 734 0008 2C72     		strb	r4, [r5, #8]
 706:Generated_Source\PSoC5/USB_midi.c ****         USB_MIDI1_Event.length = 0u;
 735              		.loc 1 706 0
ARM GAS  C:\Users\jwvance\AppData\Local\Temp\ccxTgFRe.s 			page 29


 736 000a 2C70     		strb	r4, [r5]
 737              		.loc 1 711 0
 738 000c 1C70     		strb	r4, [r3]
 707:Generated_Source\PSoC5/USB_midi.c ****         USB_MIDI1_Event.count = 0u;
 739              		.loc 1 707 0
 740 000e 6C70     		strb	r4, [r5, #1]
 708:Generated_Source\PSoC5/USB_midi.c ****         USB_MIDI1_Event.runstat = 0u;
 741              		.loc 1 708 0
 742 0010 AC70     		strb	r4, [r5, #2]
 709:Generated_Source\PSoC5/USB_midi.c ****         USB_MIDI1_TxRunStat = 0u;
 743              		.loc 1 709 0
 744 0012 EC70     		strb	r4, [r5, #3]
 712:Generated_Source\PSoC5/USB_midi.c ****         /* Start UART block */
 713:Generated_Source\PSoC5/USB_midi.c ****         MIDI1_UART_Start();
 745              		.loc 1 713 0
 746 0014 FFF7FEFF 		bl	MIDI1_UART_Start
 747              	.LVL76:
 714:Generated_Source\PSoC5/USB_midi.c ****         /* Change the priority of the UART TX and RX interrupt */
 715:Generated_Source\PSoC5/USB_midi.c ****         CyIntSetPriority(MIDI1_UART_TX_VECT_NUM, USB_CUSTOM_UART_TX_PRIOR_NUM);
 748              		.loc 1 715 0
 749 0018 0420     		movs	r0, #4
 750 001a 0146     		mov	r1, r0
 751 001c FFF7FEFF 		bl	CyIntSetPriority
 752              	.LVL77:
 716:Generated_Source\PSoC5/USB_midi.c ****         CyIntSetPriority(MIDI1_UART_RX_VECT_NUM, USB_CUSTOM_UART_RX_PRIOR_NUM);
 753              		.loc 1 716 0
 754 0020 0320     		movs	r0, #3
 755 0022 0221     		movs	r1, #2
 756 0024 FFF7FEFF 		bl	CyIntSetPriority
 757              	.LVL78:
 717:Generated_Source\PSoC5/USB_midi.c **** 
 718:Generated_Source\PSoC5/USB_midi.c ****         #if (USB_MIDI_EXT_MODE >= USB_TWO_EXT_INTRF)
 719:Generated_Source\PSoC5/USB_midi.c ****             USB_MIDI2_Event.length = 0u;
 720:Generated_Source\PSoC5/USB_midi.c ****             USB_MIDI2_Event.count = 0u;
 721:Generated_Source\PSoC5/USB_midi.c ****             USB_MIDI2_Event.size = 0u;
 722:Generated_Source\PSoC5/USB_midi.c ****             USB_MIDI2_Event.runstat = 0u;
 723:Generated_Source\PSoC5/USB_midi.c ****             USB_MIDI2_TxRunStat = 0u;
 724:Generated_Source\PSoC5/USB_midi.c ****             USB_MIDI2_InqFlags = 0u;
 758              		.loc 1 724 0
 759 0028 0B4B     		ldr	r3, .L54+8
 723:Generated_Source\PSoC5/USB_midi.c ****             USB_MIDI2_InqFlags = 0u;
 760              		.loc 1 723 0
 761 002a 2C75     		strb	r4, [r5, #20]
 719:Generated_Source\PSoC5/USB_midi.c ****             USB_MIDI2_Event.count = 0u;
 762              		.loc 1 719 0
 763 002c 2C73     		strb	r4, [r5, #12]
 764              		.loc 1 724 0
 765 002e 1C70     		strb	r4, [r3]
 720:Generated_Source\PSoC5/USB_midi.c ****             USB_MIDI2_Event.size = 0u;
 766              		.loc 1 720 0
 767 0030 6C73     		strb	r4, [r5, #13]
 721:Generated_Source\PSoC5/USB_midi.c ****             USB_MIDI2_Event.runstat = 0u;
 768              		.loc 1 721 0
 769 0032 AC73     		strb	r4, [r5, #14]
 722:Generated_Source\PSoC5/USB_midi.c ****             USB_MIDI2_TxRunStat = 0u;
 770              		.loc 1 722 0
 771 0034 EC73     		strb	r4, [r5, #15]
ARM GAS  C:\Users\jwvance\AppData\Local\Temp\ccxTgFRe.s 			page 30


 725:Generated_Source\PSoC5/USB_midi.c ****             /* Start second UART block */
 726:Generated_Source\PSoC5/USB_midi.c ****             MIDI2_UART_Start();
 772              		.loc 1 726 0
 773 0036 FFF7FEFF 		bl	MIDI2_UART_Start
 774              	.LVL79:
 727:Generated_Source\PSoC5/USB_midi.c ****             /* Change the priority of the UART TX interrupt */
 728:Generated_Source\PSoC5/USB_midi.c ****             CyIntSetPriority(MIDI2_UART_TX_VECT_NUM, USB_CUSTOM_UART_TX_PRIOR_NUM);
 775              		.loc 1 728 0
 776 003a 0620     		movs	r0, #6
 777 003c 0421     		movs	r1, #4
 778 003e FFF7FEFF 		bl	CyIntSetPriority
 779              	.LVL80:
 729:Generated_Source\PSoC5/USB_midi.c ****             CyIntSetPriority(MIDI2_UART_RX_VECT_NUM, USB_CUSTOM_UART_RX_PRIOR_NUM);
 730:Generated_Source\PSoC5/USB_midi.c ****         #endif /*  USB_MIDI_EXT_MODE >= USB_TWO_EXT_INTRF*/
 731:Generated_Source\PSoC5/USB_midi.c **** 
 732:Generated_Source\PSoC5/USB_midi.c ****         /* `#START MIDI_INIT_CUSTOM` Init other extended UARTs here */
 733:Generated_Source\PSoC5/USB_midi.c **** 
 734:Generated_Source\PSoC5/USB_midi.c ****         /* `#END` */
 735:Generated_Source\PSoC5/USB_midi.c **** 
 736:Generated_Source\PSoC5/USB_midi.c ****     }
 780              		.loc 1 736 0
 781 0042 BDE83840 		pop	{r3, r4, r5, lr}
 782              		.cfi_restore 14
 783              		.cfi_restore 5
 784              		.cfi_restore 4
 785              		.cfi_restore 3
 786              		.cfi_def_cfa_offset 0
 729:Generated_Source\PSoC5/USB_midi.c ****             CyIntSetPriority(MIDI2_UART_RX_VECT_NUM, USB_CUSTOM_UART_RX_PRIOR_NUM);
 787              		.loc 1 729 0
 788 0046 0520     		movs	r0, #5
 789 0048 0221     		movs	r1, #2
 790 004a FFF7FEBF 		b	CyIntSetPriority
 791              	.LVL81:
 792              	.L55:
 793 004e 00BF     		.align	2
 794              	.L54:
 795 0050 00000000 		.word	.LANCHOR0
 796 0054 00000000 		.word	USB_MIDI1_InqFlags
 797 0058 00000000 		.word	USB_MIDI2_InqFlags
 798              		.cfi_endproc
 799              	.LFE6:
 800              		.size	USB_MIDI_Init, .-USB_MIDI_Init
 801              		.section	.text.USB_MIDI_EP_Init,"ax",%progbits
 802              		.align	2
 803              		.global	USB_MIDI_EP_Init
 804              		.thumb
 805              		.thumb_func
 806              		.type	USB_MIDI_EP_Init, %function
 807              	USB_MIDI_EP_Init:
 808              	.LFB0:
 139:Generated_Source\PSoC5/USB_midi.c ****     #if (USB_MIDI_IN_BUFF_SIZE > 0)
 809              		.loc 1 139 0
 810              		.cfi_startproc
 811              		@ args = 0, pretend = 0, frame = 0
 812              		@ frame_needed = 0, uses_anonymous_args = 0
 813 0000 08B5     		push	{r3, lr}
 814              		.cfi_def_cfa_offset 8
ARM GAS  C:\Users\jwvance\AppData\Local\Temp\ccxTgFRe.s 			page 31


 815              		.cfi_offset 3, -8
 816              		.cfi_offset 14, -4
 141:Generated_Source\PSoC5/USB_midi.c ****     #endif /* (USB_MIDI_IN_BUFF_SIZE > 0) */
 817              		.loc 1 141 0
 818 0002 054A     		ldr	r2, .L58
 159:Generated_Source\PSoC5/USB_midi.c ****     #endif /* (USB_MIDI_OUT_BUFF_SIZE > 0) */
 819              		.loc 1 159 0
 820 0004 054B     		ldr	r3, .L58+4
 141:Generated_Source\PSoC5/USB_midi.c ****     #endif /* (USB_MIDI_IN_BUFF_SIZE > 0) */
 821              		.loc 1 141 0
 822 0006 0021     		movs	r1, #0
 823 0008 1170     		strb	r1, [r2]
 159:Generated_Source\PSoC5/USB_midi.c ****     #endif /* (USB_MIDI_OUT_BUFF_SIZE > 0) */
 824              		.loc 1 159 0
 825 000a 1878     		ldrb	r0, [r3]	@ zero_extendqisi2
 826 000c FFF7FEFF 		bl	USB_EnableOutEP
 827              	.LVL82:
 166:Generated_Source\PSoC5/USB_midi.c **** 
 828              		.loc 1 166 0
 829 0010 BDE80840 		pop	{r3, lr}
 830              		.cfi_restore 14
 831              		.cfi_restore 3
 832              		.cfi_def_cfa_offset 0
 164:Generated_Source\PSoC5/USB_midi.c ****     #endif /* (USB_MIDI_EXT_MODE >= USB_ONE_EXT_INTRF) */
 833              		.loc 1 164 0
 834 0014 FFF7FEBF 		b	USB_MIDI_Init
 835              	.LVL83:
 836              	.L59:
 837              		.align	2
 838              	.L58:
 839 0018 00000000 		.word	USB_midiInPointer
 840 001c 00000000 		.word	USB_midi_out_ep
 841              		.cfi_endproc
 842              	.LFE0:
 843              		.size	USB_MIDI_EP_Init, .-USB_MIDI_EP_Init
 844              		.section	.text.USB_ProcessMidiIn,"ax",%progbits
 845              		.align	2
 846              		.global	USB_ProcessMidiIn
 847              		.thumb
 848              		.thumb_func
 849              		.type	USB_ProcessMidiIn, %function
 850              	USB_ProcessMidiIn:
 851              	.LFB7:
 737:Generated_Source\PSoC5/USB_midi.c **** 
 738:Generated_Source\PSoC5/USB_midi.c **** 
 739:Generated_Source\PSoC5/USB_midi.c ****     /*******************************************************************************
 740:Generated_Source\PSoC5/USB_midi.c ****     * Function Name: USB_ProcessMidiIn
 741:Generated_Source\PSoC5/USB_midi.c ****     ********************************************************************************
 742:Generated_Source\PSoC5/USB_midi.c ****     *
 743:Generated_Source\PSoC5/USB_midi.c ****     * Summary:
 744:Generated_Source\PSoC5/USB_midi.c ****     *  Processes one byte of incoming MIDI data.
 745:Generated_Source\PSoC5/USB_midi.c ****     *
 746:Generated_Source\PSoC5/USB_midi.c ****     * Parameters:
 747:Generated_Source\PSoC5/USB_midi.c ****     *   mData = current MIDI input data byte
 748:Generated_Source\PSoC5/USB_midi.c ****     *   *rxStat = pointer to a MIDI_RX_STATUS structure
 749:Generated_Source\PSoC5/USB_midi.c ****     *
 750:Generated_Source\PSoC5/USB_midi.c ****     * Return:
ARM GAS  C:\Users\jwvance\AppData\Local\Temp\ccxTgFRe.s 			page 32


 751:Generated_Source\PSoC5/USB_midi.c ****     *   0, if no complete message
 752:Generated_Source\PSoC5/USB_midi.c ****     *   1 - 4, if message complete
 753:Generated_Source\PSoC5/USB_midi.c ****     *   MIDI_SYSEX, if start or continuation of system exclusive
 754:Generated_Source\PSoC5/USB_midi.c ****     *   MIDI_EOSEX, if end of system exclusive
 755:Generated_Source\PSoC5/USB_midi.c ****     *   0xf8 - 0xff, if single byte real time message
 756:Generated_Source\PSoC5/USB_midi.c ****     *
 757:Generated_Source\PSoC5/USB_midi.c ****     *******************************************************************************/
 758:Generated_Source\PSoC5/USB_midi.c ****     uint8 USB_ProcessMidiIn(uint8 mData, USB_MIDI_RX_STATUS *rxStat)
 759:Generated_Source\PSoC5/USB_midi.c ****                                                                 
 760:Generated_Source\PSoC5/USB_midi.c ****     {
 852              		.loc 1 760 0
 853              		.cfi_startproc
 854              		@ args = 0, pretend = 0, frame = 0
 855              		@ frame_needed = 0, uses_anonymous_args = 0
 856              		@ link register save eliminated.
 857              	.LVL84:
 761:Generated_Source\PSoC5/USB_midi.c ****         uint8 midiReturn = 0u;
 762:Generated_Source\PSoC5/USB_midi.c **** 
 763:Generated_Source\PSoC5/USB_midi.c ****         /* Check for a MIDI status byte.  All status bytes, except real time messages,
 764:Generated_Source\PSoC5/USB_midi.c ****         *  which are a single byte, force the start of a new buffer cycle.
 765:Generated_Source\PSoC5/USB_midi.c ****         */
 766:Generated_Source\PSoC5/USB_midi.c ****         if ((mData & USB_MIDI_STATUS_BYTE_MASK) != 0u)
 858              		.loc 1 766 0
 859 0000 0206     		lsls	r2, r0, #24
 760:Generated_Source\PSoC5/USB_midi.c ****         uint8 midiReturn = 0u;
 860              		.loc 1 760 0
 861 0002 30B4     		push	{r4, r5}
 862              		.cfi_def_cfa_offset 8
 863              		.cfi_offset 4, -8
 864              		.cfi_offset 5, -4
 865              		.loc 1 766 0
 866 0004 23D4     		bmi	.L132
 767:Generated_Source\PSoC5/USB_midi.c ****         {
 768:Generated_Source\PSoC5/USB_midi.c ****             if ((mData & USB_MIDI_STATUS_MASK) == USB_MIDI_STATUS_MASK)
 769:Generated_Source\PSoC5/USB_midi.c ****             {
 770:Generated_Source\PSoC5/USB_midi.c ****                 if ((mData & USB_MIDI_SINGLE_BYTE_MASK) != 0u) /* System Real-Time Messages(single 
 771:Generated_Source\PSoC5/USB_midi.c ****                 {
 772:Generated_Source\PSoC5/USB_midi.c ****                     midiReturn = mData;
 773:Generated_Source\PSoC5/USB_midi.c ****                 }
 774:Generated_Source\PSoC5/USB_midi.c ****                 else                              /* System Common Messages */
 775:Generated_Source\PSoC5/USB_midi.c ****                 {
 776:Generated_Source\PSoC5/USB_midi.c ****                     switch (mData)
 777:Generated_Source\PSoC5/USB_midi.c ****                     {
 778:Generated_Source\PSoC5/USB_midi.c ****                         case USB_MIDI_SYSEX:
 779:Generated_Source\PSoC5/USB_midi.c ****                             rxStat->msgBuff[0u] = USB_MIDI_SYSEX;
 780:Generated_Source\PSoC5/USB_midi.c ****                             rxStat->runstat = USB_MIDI_SYSEX;
 781:Generated_Source\PSoC5/USB_midi.c ****                             rxStat->count = 1u;
 782:Generated_Source\PSoC5/USB_midi.c ****                             rxStat->length = 3u;
 783:Generated_Source\PSoC5/USB_midi.c ****                             break;
 784:Generated_Source\PSoC5/USB_midi.c ****                         case USB_MIDI_EOSEX:
 785:Generated_Source\PSoC5/USB_midi.c ****                             rxStat->runstat = 0u;
 786:Generated_Source\PSoC5/USB_midi.c ****                             rxStat->size = rxStat->count;
 787:Generated_Source\PSoC5/USB_midi.c ****                             rxStat->count = 0u;
 788:Generated_Source\PSoC5/USB_midi.c ****                             midiReturn = USB_MIDI_EOSEX;
 789:Generated_Source\PSoC5/USB_midi.c ****                             break;
 790:Generated_Source\PSoC5/USB_midi.c ****                         case USB_MIDI_SPP:
 791:Generated_Source\PSoC5/USB_midi.c ****                             rxStat->msgBuff[0u] = USB_MIDI_SPP;
ARM GAS  C:\Users\jwvance\AppData\Local\Temp\ccxTgFRe.s 			page 33


 792:Generated_Source\PSoC5/USB_midi.c ****                             rxStat->runstat = 0u;
 793:Generated_Source\PSoC5/USB_midi.c ****                             rxStat->count = 1u;
 794:Generated_Source\PSoC5/USB_midi.c ****                             rxStat->length = 3u;
 795:Generated_Source\PSoC5/USB_midi.c ****                             break;
 796:Generated_Source\PSoC5/USB_midi.c ****                         case USB_MIDI_SONGSEL:
 797:Generated_Source\PSoC5/USB_midi.c ****                             rxStat->msgBuff[0u] = USB_MIDI_SONGSEL;
 798:Generated_Source\PSoC5/USB_midi.c ****                             rxStat->runstat = 0u;
 799:Generated_Source\PSoC5/USB_midi.c ****                             rxStat->count = 1u;
 800:Generated_Source\PSoC5/USB_midi.c ****                             rxStat->length = 2u;
 801:Generated_Source\PSoC5/USB_midi.c ****                             break;
 802:Generated_Source\PSoC5/USB_midi.c ****                         case USB_MIDI_QFM:
 803:Generated_Source\PSoC5/USB_midi.c ****                             rxStat->msgBuff[0u] = USB_MIDI_QFM;
 804:Generated_Source\PSoC5/USB_midi.c ****                             rxStat->runstat = 0u;
 805:Generated_Source\PSoC5/USB_midi.c ****                             rxStat->count = 1u;
 806:Generated_Source\PSoC5/USB_midi.c ****                             rxStat->length = 2u;
 807:Generated_Source\PSoC5/USB_midi.c ****                             break;
 808:Generated_Source\PSoC5/USB_midi.c ****                         case USB_MIDI_TUNEREQ:
 809:Generated_Source\PSoC5/USB_midi.c ****                             rxStat->msgBuff[0u] = USB_MIDI_TUNEREQ;
 810:Generated_Source\PSoC5/USB_midi.c ****                             rxStat->runstat = 0u;
 811:Generated_Source\PSoC5/USB_midi.c ****                             rxStat->size = 1u;
 812:Generated_Source\PSoC5/USB_midi.c ****                             rxStat->count = 0u;
 813:Generated_Source\PSoC5/USB_midi.c ****                             midiReturn = rxStat->size;
 814:Generated_Source\PSoC5/USB_midi.c ****                             break;
 815:Generated_Source\PSoC5/USB_midi.c ****                         default:
 816:Generated_Source\PSoC5/USB_midi.c ****                             break;
 817:Generated_Source\PSoC5/USB_midi.c ****                     }
 818:Generated_Source\PSoC5/USB_midi.c ****                 }
 819:Generated_Source\PSoC5/USB_midi.c ****             }
 820:Generated_Source\PSoC5/USB_midi.c ****             else /* Channel Messages */
 821:Generated_Source\PSoC5/USB_midi.c ****             {
 822:Generated_Source\PSoC5/USB_midi.c ****                 rxStat->msgBuff[0u] = mData;
 823:Generated_Source\PSoC5/USB_midi.c ****                 rxStat->runstat = mData;
 824:Generated_Source\PSoC5/USB_midi.c ****                 rxStat->count = 1u;
 825:Generated_Source\PSoC5/USB_midi.c ****                 switch (mData & USB_MIDI_STATUS_MASK)
 826:Generated_Source\PSoC5/USB_midi.c ****                 {
 827:Generated_Source\PSoC5/USB_midi.c ****                     case USB_MIDI_NOTE_OFF:
 828:Generated_Source\PSoC5/USB_midi.c ****                     case USB_MIDI_NOTE_ON:
 829:Generated_Source\PSoC5/USB_midi.c ****                     case USB_MIDI_POLY_KEY_PRESSURE:
 830:Generated_Source\PSoC5/USB_midi.c ****                     case USB_MIDI_CONTROL_CHANGE:
 831:Generated_Source\PSoC5/USB_midi.c ****                     case USB_MIDI_PITCH_BEND_CHANGE:
 832:Generated_Source\PSoC5/USB_midi.c ****                         rxStat->length = 3u;
 833:Generated_Source\PSoC5/USB_midi.c ****                         break;
 834:Generated_Source\PSoC5/USB_midi.c ****                     case USB_MIDI_PROGRAM_CHANGE:
 835:Generated_Source\PSoC5/USB_midi.c ****                     case USB_MIDI_CHANNEL_PRESSURE:
 836:Generated_Source\PSoC5/USB_midi.c ****                         rxStat->length = 2u;
 837:Generated_Source\PSoC5/USB_midi.c ****                         break;
 838:Generated_Source\PSoC5/USB_midi.c ****                     default:
 839:Generated_Source\PSoC5/USB_midi.c ****                         rxStat->runstat = 0u;
 840:Generated_Source\PSoC5/USB_midi.c ****                         rxStat->count = 0u;
 841:Generated_Source\PSoC5/USB_midi.c ****                         break;
 842:Generated_Source\PSoC5/USB_midi.c ****                 }
 843:Generated_Source\PSoC5/USB_midi.c ****             }
 844:Generated_Source\PSoC5/USB_midi.c ****         }
 845:Generated_Source\PSoC5/USB_midi.c **** 
 846:Generated_Source\PSoC5/USB_midi.c ****         /* Otherwise, it's a data byte */
 847:Generated_Source\PSoC5/USB_midi.c ****         else
 848:Generated_Source\PSoC5/USB_midi.c ****         {
ARM GAS  C:\Users\jwvance\AppData\Local\Temp\ccxTgFRe.s 			page 34


 849:Generated_Source\PSoC5/USB_midi.c ****             if (rxStat->runstat == USB_MIDI_SYSEX)
 867              		.loc 1 849 0
 868 0006 CB78     		ldrb	r3, [r1, #3]	@ zero_extendqisi2
 869 0008 F02B     		cmp	r3, #240
 870 000a 35D0     		beq	.L133
 850:Generated_Source\PSoC5/USB_midi.c ****             {
 851:Generated_Source\PSoC5/USB_midi.c ****                 rxStat->msgBuff[rxStat->count] = mData;
 852:Generated_Source\PSoC5/USB_midi.c ****                 rxStat->count++;
 853:Generated_Source\PSoC5/USB_midi.c ****                 if (rxStat->count >= rxStat->length)
 854:Generated_Source\PSoC5/USB_midi.c ****                 {
 855:Generated_Source\PSoC5/USB_midi.c ****                     rxStat->size = rxStat->count;
 856:Generated_Source\PSoC5/USB_midi.c ****                     rxStat->count = 0u;
 857:Generated_Source\PSoC5/USB_midi.c ****                     midiReturn = USB_MIDI_SYSEX;
 858:Generated_Source\PSoC5/USB_midi.c ****                 }
 859:Generated_Source\PSoC5/USB_midi.c ****             }
 860:Generated_Source\PSoC5/USB_midi.c ****             else if (rxStat->count > 0u)
 871              		.loc 1 860 0
 872 000c 4A78     		ldrb	r2, [r1, #1]	@ zero_extendqisi2
 873 000e 52B1     		cbz	r2, .L77
 861:Generated_Source\PSoC5/USB_midi.c ****             {
 862:Generated_Source\PSoC5/USB_midi.c ****                 rxStat->msgBuff[rxStat->count] = mData;
 874              		.loc 1 862 0
 875 0010 8C18     		adds	r4, r1, r2
 863:Generated_Source\PSoC5/USB_midi.c ****                 rxStat->count++;
 864:Generated_Source\PSoC5/USB_midi.c ****                 if (rxStat->count >= rxStat->length)
 876              		.loc 1 864 0
 877 0012 0B78     		ldrb	r3, [r1]	@ zero_extendqisi2
 863:Generated_Source\PSoC5/USB_midi.c ****                 rxStat->count++;
 878              		.loc 1 863 0
 879 0014 0132     		adds	r2, r2, #1
 862:Generated_Source\PSoC5/USB_midi.c ****                 rxStat->count++;
 880              		.loc 1 862 0
 881 0016 2071     		strb	r0, [r4, #4]
 863:Generated_Source\PSoC5/USB_midi.c ****                 rxStat->count++;
 882              		.loc 1 863 0
 883 0018 D0B2     		uxtb	r0, r2
 884              	.LVL85:
 885              		.loc 1 864 0
 886 001a 8342     		cmp	r3, r0
 863:Generated_Source\PSoC5/USB_midi.c ****                 rxStat->count++;
 887              		.loc 1 863 0
 888 001c 4870     		strb	r0, [r1, #1]
 889              		.loc 1 864 0
 890 001e 3BD9     		bls	.L130
 891              	.LVL86:
 892              	.L83:
 761:Generated_Source\PSoC5/USB_midi.c **** 
 893              		.loc 1 761 0
 894 0020 0020     		movs	r0, #0
 895              	.LVL87:
 896              	.L63:
 865:Generated_Source\PSoC5/USB_midi.c ****                 {
 866:Generated_Source\PSoC5/USB_midi.c ****                     rxStat->size = rxStat->count;
 867:Generated_Source\PSoC5/USB_midi.c ****                     rxStat->count = 0u;
 868:Generated_Source\PSoC5/USB_midi.c ****                     midiReturn = rxStat->size;
 869:Generated_Source\PSoC5/USB_midi.c ****                 }
 870:Generated_Source\PSoC5/USB_midi.c ****             }
ARM GAS  C:\Users\jwvance\AppData\Local\Temp\ccxTgFRe.s 			page 35


 871:Generated_Source\PSoC5/USB_midi.c ****             else if (rxStat->runstat != 0u)
 872:Generated_Source\PSoC5/USB_midi.c ****             {
 873:Generated_Source\PSoC5/USB_midi.c ****                 rxStat->msgBuff[0u] = rxStat->runstat;
 874:Generated_Source\PSoC5/USB_midi.c ****                 rxStat->msgBuff[1u] = mData;
 875:Generated_Source\PSoC5/USB_midi.c ****                 rxStat->count = 2u;
 876:Generated_Source\PSoC5/USB_midi.c ****                 switch (rxStat->runstat & USB_MIDI_STATUS_MASK)
 877:Generated_Source\PSoC5/USB_midi.c ****                 {
 878:Generated_Source\PSoC5/USB_midi.c ****                     case USB_MIDI_NOTE_OFF:
 879:Generated_Source\PSoC5/USB_midi.c ****                     case USB_MIDI_NOTE_ON:
 880:Generated_Source\PSoC5/USB_midi.c ****                     case USB_MIDI_POLY_KEY_PRESSURE:
 881:Generated_Source\PSoC5/USB_midi.c ****                     case USB_MIDI_CONTROL_CHANGE:
 882:Generated_Source\PSoC5/USB_midi.c ****                     case USB_MIDI_PITCH_BEND_CHANGE:
 883:Generated_Source\PSoC5/USB_midi.c ****                         rxStat->length = 3u;
 884:Generated_Source\PSoC5/USB_midi.c ****                         break;
 885:Generated_Source\PSoC5/USB_midi.c ****                     case USB_MIDI_PROGRAM_CHANGE:
 886:Generated_Source\PSoC5/USB_midi.c ****                     case USB_MIDI_CHANNEL_PRESSURE:
 887:Generated_Source\PSoC5/USB_midi.c ****                         rxStat->size =rxStat->count;
 888:Generated_Source\PSoC5/USB_midi.c ****                         rxStat->count = 0u;
 889:Generated_Source\PSoC5/USB_midi.c ****                         midiReturn = rxStat->size;
 890:Generated_Source\PSoC5/USB_midi.c ****                         break;
 891:Generated_Source\PSoC5/USB_midi.c ****                     default:
 892:Generated_Source\PSoC5/USB_midi.c ****                         rxStat->count = 0u;
 893:Generated_Source\PSoC5/USB_midi.c ****                     break;
 894:Generated_Source\PSoC5/USB_midi.c ****                 }
 895:Generated_Source\PSoC5/USB_midi.c ****             }
 896:Generated_Source\PSoC5/USB_midi.c ****             else
 897:Generated_Source\PSoC5/USB_midi.c ****             {
 898:Generated_Source\PSoC5/USB_midi.c ****             }
 899:Generated_Source\PSoC5/USB_midi.c ****         }
 900:Generated_Source\PSoC5/USB_midi.c ****         return (midiReturn);
 901:Generated_Source\PSoC5/USB_midi.c ****     }
 897              		.loc 1 901 0
 898 0022 30BC     		pop	{r4, r5}
 899              		.cfi_remember_state
 900              		.cfi_restore 5
 901              		.cfi_restore 4
 902              		.cfi_def_cfa_offset 0
 903 0024 7047     		bx	lr
 904              	.LVL88:
 905              	.L77:
 906              		.cfi_restore_state
 871:Generated_Source\PSoC5/USB_midi.c ****             {
 907              		.loc 1 871 0
 908 0026 002B     		cmp	r3, #0
 909 0028 FAD0     		beq	.L83
 876:Generated_Source\PSoC5/USB_midi.c ****                 {
 910              		.loc 1 876 0
 911 002a 03F0F002 		and	r2, r3, #240
 875:Generated_Source\PSoC5/USB_midi.c ****                 switch (rxStat->runstat & USB_MIDI_STATUS_MASK)
 912              		.loc 1 875 0
 913 002e 0224     		movs	r4, #2
 876:Generated_Source\PSoC5/USB_midi.c ****                 {
 914              		.loc 1 876 0
 915 0030 B02A     		cmp	r2, #176
 873:Generated_Source\PSoC5/USB_midi.c ****                 rxStat->msgBuff[1u] = mData;
 916              		.loc 1 873 0
 917 0032 0B71     		strb	r3, [r1, #4]
ARM GAS  C:\Users\jwvance\AppData\Local\Temp\ccxTgFRe.s 			page 36


 874:Generated_Source\PSoC5/USB_midi.c ****                 rxStat->count = 2u;
 918              		.loc 1 874 0
 919 0034 4871     		strb	r0, [r1, #5]
 875:Generated_Source\PSoC5/USB_midi.c ****                 switch (rxStat->runstat & USB_MIDI_STATUS_MASK)
 920              		.loc 1 875 0
 921 0036 4C70     		strb	r4, [r1, #1]
 876:Generated_Source\PSoC5/USB_midi.c ****                 {
 922              		.loc 1 876 0
 923 0038 54D0     		beq	.L80
 924 003a 58D9     		bls	.L134
 925 003c D02A     		cmp	r2, #208
 926 003e 2AD0     		beq	.L82
 927 0040 E02A     		cmp	r2, #224
 928 0042 4FD0     		beq	.L80
 929 0044 C02A     		cmp	r2, #192
 930 0046 26D0     		beq	.L82
 931              	.L79:
 892:Generated_Source\PSoC5/USB_midi.c ****                     break;
 932              		.loc 1 892 0
 933 0048 0020     		movs	r0, #0
 934              	.LVL89:
 935 004a 4870     		strb	r0, [r1, #1]
 893:Generated_Source\PSoC5/USB_midi.c ****                 }
 936              		.loc 1 893 0
 937 004c E9E7     		b	.L63
 938              	.LVL90:
 939              	.L132:
 768:Generated_Source\PSoC5/USB_midi.c ****             {
 940              		.loc 1 768 0
 941 004e 00F0F003 		and	r3, r0, #240
 942 0052 F02B     		cmp	r3, #240
 943 0054 25D0     		beq	.L135
 824:Generated_Source\PSoC5/USB_midi.c ****                 switch (mData & USB_MIDI_STATUS_MASK)
 944              		.loc 1 824 0
 945 0056 0122     		movs	r2, #1
 825:Generated_Source\PSoC5/USB_midi.c ****                 {
 946              		.loc 1 825 0
 947 0058 B02B     		cmp	r3, #176
 822:Generated_Source\PSoC5/USB_midi.c ****                 rxStat->runstat = mData;
 948              		.loc 1 822 0
 949 005a 0871     		strb	r0, [r1, #4]
 823:Generated_Source\PSoC5/USB_midi.c ****                 rxStat->count = 1u;
 950              		.loc 1 823 0
 951 005c C870     		strb	r0, [r1, #3]
 824:Generated_Source\PSoC5/USB_midi.c ****                 switch (mData & USB_MIDI_STATUS_MASK)
 952              		.loc 1 824 0
 953 005e 4A70     		strb	r2, [r1, #1]
 825:Generated_Source\PSoC5/USB_midi.c ****                 {
 954              		.loc 1 825 0
 955 0060 40D0     		beq	.L80
 956 0062 3BD9     		bls	.L136
 957 0064 D02B     		cmp	r3, #208
 958 0066 35D0     		beq	.L74
 959 0068 E02B     		cmp	r3, #224
 960 006a 3BD0     		beq	.L80
 961 006c C02B     		cmp	r3, #192
 962 006e 31D0     		beq	.L74
ARM GAS  C:\Users\jwvance\AppData\Local\Temp\ccxTgFRe.s 			page 37


 963              	.L71:
 839:Generated_Source\PSoC5/USB_midi.c ****                         rxStat->count = 0u;
 964              		.loc 1 839 0
 965 0070 0020     		movs	r0, #0
 966              	.LVL91:
 967 0072 C870     		strb	r0, [r1, #3]
 840:Generated_Source\PSoC5/USB_midi.c ****                         break;
 968              		.loc 1 840 0
 969 0074 4870     		strb	r0, [r1, #1]
 841:Generated_Source\PSoC5/USB_midi.c ****                 }
 970              		.loc 1 841 0
 971 0076 D4E7     		b	.L63
 972              	.LVL92:
 973              	.L133:
 851:Generated_Source\PSoC5/USB_midi.c ****                 rxStat->count++;
 974              		.loc 1 851 0
 975 0078 4C78     		ldrb	r4, [r1, #1]	@ zero_extendqisi2
 853:Generated_Source\PSoC5/USB_midi.c ****                 {
 976              		.loc 1 853 0
 977 007a 0D78     		ldrb	r5, [r1]	@ zero_extendqisi2
 852:Generated_Source\PSoC5/USB_midi.c ****                 if (rxStat->count >= rxStat->length)
 978              		.loc 1 852 0
 979 007c 621C     		adds	r2, r4, #1
 980 007e D2B2     		uxtb	r2, r2
 851:Generated_Source\PSoC5/USB_midi.c ****                 rxStat->count++;
 981              		.loc 1 851 0
 982 0080 0C44     		add	r4, r4, r1
 853:Generated_Source\PSoC5/USB_midi.c ****                 {
 983              		.loc 1 853 0
 984 0082 9542     		cmp	r5, r2
 851:Generated_Source\PSoC5/USB_midi.c ****                 rxStat->count++;
 985              		.loc 1 851 0
 986 0084 2071     		strb	r0, [r4, #4]
 852:Generated_Source\PSoC5/USB_midi.c ****                 if (rxStat->count >= rxStat->length)
 987              		.loc 1 852 0
 988 0086 4A70     		strb	r2, [r1, #1]
 853:Generated_Source\PSoC5/USB_midi.c ****                 {
 989              		.loc 1 853 0
 990 0088 CAD8     		bhi	.L83
 856:Generated_Source\PSoC5/USB_midi.c ****                     midiReturn = USB_MIDI_SYSEX;
 991              		.loc 1 856 0
 992 008a 0024     		movs	r4, #0
 857:Generated_Source\PSoC5/USB_midi.c ****                 }
 993              		.loc 1 857 0
 994 008c 1846     		mov	r0, r3
 995              	.LVL93:
 856:Generated_Source\PSoC5/USB_midi.c ****                     midiReturn = USB_MIDI_SYSEX;
 996              		.loc 1 856 0
 997 008e 4C70     		strb	r4, [r1, #1]
 998              	.LVL94:
 855:Generated_Source\PSoC5/USB_midi.c ****                     rxStat->count = 0u;
 999              		.loc 1 855 0
 1000 0090 8A70     		strb	r2, [r1, #2]
 1001              		.loc 1 901 0
 1002 0092 30BC     		pop	{r4, r5}
 1003              		.cfi_remember_state
 1004              		.cfi_restore 4
ARM GAS  C:\Users\jwvance\AppData\Local\Temp\ccxTgFRe.s 			page 38


 1005              		.cfi_restore 5
 1006              		.cfi_def_cfa_offset 0
 1007 0094 7047     		bx	lr
 1008              	.LVL95:
 1009              	.L82:
 1010              		.cfi_restore_state
 887:Generated_Source\PSoC5/USB_midi.c ****                         rxStat->count = 0u;
 1011              		.loc 1 887 0
 1012 0096 0220     		movs	r0, #2
 1013              	.LVL96:
 1014              	.L130:
 888:Generated_Source\PSoC5/USB_midi.c ****                         midiReturn = rxStat->size;
 1015              		.loc 1 888 0
 1016 0098 0023     		movs	r3, #0
 887:Generated_Source\PSoC5/USB_midi.c ****                         rxStat->count = 0u;
 1017              		.loc 1 887 0
 1018 009a 8870     		strb	r0, [r1, #2]
 888:Generated_Source\PSoC5/USB_midi.c ****                         midiReturn = rxStat->size;
 1019              		.loc 1 888 0
 1020 009c 4B70     		strb	r3, [r1, #1]
 1021              	.LVL97:
 1022              		.loc 1 901 0
 1023 009e 30BC     		pop	{r4, r5}
 1024              		.cfi_remember_state
 1025              		.cfi_restore 4
 1026              		.cfi_restore 5
 1027              		.cfi_def_cfa_offset 0
 1028 00a0 7047     		bx	lr
 1029              	.LVL98:
 1030              	.L135:
 1031              		.cfi_restore_state
 770:Generated_Source\PSoC5/USB_midi.c ****                 {
 1032              		.loc 1 770 0
 1033 00a2 0307     		lsls	r3, r0, #28
 1034 00a4 BDD4     		bmi	.L63
 776:Generated_Source\PSoC5/USB_midi.c ****                     {
 1035              		.loc 1 776 0
 1036 00a6 A0F1F003 		sub	r3, r0, #240
 1037 00aa 072B     		cmp	r3, #7
 1038 00ac B8D8     		bhi	.L83
 1039 00ae 01A2     		adr	r2, .L65
 1040 00b0 52F823F0 		ldr	pc, [r2, r3, lsl #2]
 1041              		.p2align 2
 1042              	.L65:
 1043 00b4 47010000 		.word	.L64+1
 1044 00b8 43010000 		.word	.L66+1
 1045 00bc 31010000 		.word	.L67+1
 1046 00c0 1F010000 		.word	.L68+1
 1047 00c4 21000000 		.word	.L83+1
 1048 00c8 21000000 		.word	.L83+1
 1049 00cc 0F010000 		.word	.L69+1
 1050 00d0 03010000 		.word	.L70+1
 1051              		.p2align 1
 1052              	.L74:
 836:Generated_Source\PSoC5/USB_midi.c ****                         break;
 1053              		.loc 1 836 0
 1054 00d4 0223     		movs	r3, #2
ARM GAS  C:\Users\jwvance\AppData\Local\Temp\ccxTgFRe.s 			page 39


 1055 00d6 0B70     		strb	r3, [r1]
 761:Generated_Source\PSoC5/USB_midi.c **** 
 1056              		.loc 1 761 0
 1057 00d8 0020     		movs	r0, #0
 1058              	.LVL99:
 837:Generated_Source\PSoC5/USB_midi.c ****                     default:
 1059              		.loc 1 837 0
 1060 00da A2E7     		b	.L63
 1061              	.LVL100:
 1062              	.L136:
 825:Generated_Source\PSoC5/USB_midi.c ****                 {
 1063              		.loc 1 825 0
 1064 00dc 902B     		cmp	r3, #144
 1065 00de 01D0     		beq	.L80
 1066 00e0 A02B     		cmp	r3, #160
 1067 00e2 0BD1     		bne	.L137
 1068              	.L80:
 1069              		.loc 1 901 0
 1070 00e4 30BC     		pop	{r4, r5}
 1071              		.cfi_remember_state
 1072              		.cfi_restore 4
 1073              		.cfi_restore 5
 1074              		.cfi_def_cfa_offset 0
 883:Generated_Source\PSoC5/USB_midi.c ****                         break;
 1075              		.loc 1 883 0
 1076 00e6 0323     		movs	r3, #3
 761:Generated_Source\PSoC5/USB_midi.c **** 
 1077              		.loc 1 761 0
 1078 00e8 0020     		movs	r0, #0
 1079              	.LVL101:
 883:Generated_Source\PSoC5/USB_midi.c ****                         break;
 1080              		.loc 1 883 0
 1081 00ea 0B70     		strb	r3, [r1]
 1082              		.loc 1 901 0
 1083 00ec 7047     		bx	lr
 1084              	.LVL102:
 1085              	.L134:
 1086              		.cfi_restore_state
 876:Generated_Source\PSoC5/USB_midi.c ****                 {
 1087              		.loc 1 876 0
 1088 00ee 902A     		cmp	r2, #144
 1089 00f0 F8D0     		beq	.L80
 1090 00f2 A02A     		cmp	r2, #160
 1091 00f4 F6D0     		beq	.L80
 1092 00f6 802A     		cmp	r2, #128
 1093 00f8 A6D1     		bne	.L79
 1094 00fa F3E7     		b	.L80
 1095              	.L137:
 825:Generated_Source\PSoC5/USB_midi.c ****                 {
 1096              		.loc 1 825 0
 1097 00fc 802B     		cmp	r3, #128
 1098 00fe B7D1     		bne	.L71
 1099 0100 F0E7     		b	.L80
 1100              	.L70:
 786:Generated_Source\PSoC5/USB_midi.c ****                             rxStat->count = 0u;
 1101              		.loc 1 786 0
 1102 0102 4A78     		ldrb	r2, [r1, #1]	@ zero_extendqisi2
ARM GAS  C:\Users\jwvance\AppData\Local\Temp\ccxTgFRe.s 			page 40


 785:Generated_Source\PSoC5/USB_midi.c ****                             rxStat->size = rxStat->count;
 1103              		.loc 1 785 0
 1104 0104 0023     		movs	r3, #0
 786:Generated_Source\PSoC5/USB_midi.c ****                             rxStat->count = 0u;
 1105              		.loc 1 786 0
 1106 0106 8A70     		strb	r2, [r1, #2]
 785:Generated_Source\PSoC5/USB_midi.c ****                             rxStat->size = rxStat->count;
 1107              		.loc 1 785 0
 1108 0108 CB70     		strb	r3, [r1, #3]
 787:Generated_Source\PSoC5/USB_midi.c ****                             midiReturn = USB_MIDI_EOSEX;
 1109              		.loc 1 787 0
 1110 010a 4B70     		strb	r3, [r1, #1]
 1111              	.LVL103:
 789:Generated_Source\PSoC5/USB_midi.c ****                         case USB_MIDI_SPP:
 1112              		.loc 1 789 0
 1113 010c 89E7     		b	.L63
 1114              	.LVL104:
 1115              	.L69:
 810:Generated_Source\PSoC5/USB_midi.c ****                             rxStat->size = 1u;
 1116              		.loc 1 810 0
 1117 010e 0023     		movs	r3, #0
 809:Generated_Source\PSoC5/USB_midi.c ****                             rxStat->runstat = 0u;
 1118              		.loc 1 809 0
 1119 0110 F622     		movs	r2, #246
 811:Generated_Source\PSoC5/USB_midi.c ****                             rxStat->count = 0u;
 1120              		.loc 1 811 0
 1121 0112 0120     		movs	r0, #1
 1122              	.LVL105:
 809:Generated_Source\PSoC5/USB_midi.c ****                             rxStat->runstat = 0u;
 1123              		.loc 1 809 0
 1124 0114 0A71     		strb	r2, [r1, #4]
 810:Generated_Source\PSoC5/USB_midi.c ****                             rxStat->size = 1u;
 1125              		.loc 1 810 0
 1126 0116 CB70     		strb	r3, [r1, #3]
 812:Generated_Source\PSoC5/USB_midi.c ****                             midiReturn = rxStat->size;
 1127              		.loc 1 812 0
 1128 0118 4B70     		strb	r3, [r1, #1]
 1129              	.LVL106:
 811:Generated_Source\PSoC5/USB_midi.c ****                             rxStat->count = 0u;
 1130              		.loc 1 811 0
 1131 011a 8870     		strb	r0, [r1, #2]
 814:Generated_Source\PSoC5/USB_midi.c ****                         default:
 1132              		.loc 1 814 0
 1133 011c 81E7     		b	.L63
 1134              	.LVL107:
 1135              	.L68:
 797:Generated_Source\PSoC5/USB_midi.c ****                             rxStat->runstat = 0u;
 1136              		.loc 1 797 0
 1137 011e F324     		movs	r4, #243
 1138              	.L131:
 804:Generated_Source\PSoC5/USB_midi.c ****                             rxStat->count = 1u;
 1139              		.loc 1 804 0
 1140 0120 0020     		movs	r0, #0
 1141              	.LVL108:
 805:Generated_Source\PSoC5/USB_midi.c ****                             rxStat->length = 2u;
 1142              		.loc 1 805 0
 1143 0122 0122     		movs	r2, #1
ARM GAS  C:\Users\jwvance\AppData\Local\Temp\ccxTgFRe.s 			page 41


 806:Generated_Source\PSoC5/USB_midi.c ****                             break;
 1144              		.loc 1 806 0
 1145 0124 0223     		movs	r3, #2
 803:Generated_Source\PSoC5/USB_midi.c ****                             rxStat->runstat = 0u;
 1146              		.loc 1 803 0
 1147 0126 0C71     		strb	r4, [r1, #4]
 804:Generated_Source\PSoC5/USB_midi.c ****                             rxStat->count = 1u;
 1148              		.loc 1 804 0
 1149 0128 C870     		strb	r0, [r1, #3]
 805:Generated_Source\PSoC5/USB_midi.c ****                             rxStat->length = 2u;
 1150              		.loc 1 805 0
 1151 012a 4A70     		strb	r2, [r1, #1]
 806:Generated_Source\PSoC5/USB_midi.c ****                             break;
 1152              		.loc 1 806 0
 1153 012c 0B70     		strb	r3, [r1]
 807:Generated_Source\PSoC5/USB_midi.c ****                         case USB_MIDI_TUNEREQ:
 1154              		.loc 1 807 0
 1155 012e 78E7     		b	.L63
 1156              	.LVL109:
 1157              	.L67:
 791:Generated_Source\PSoC5/USB_midi.c ****                             rxStat->runstat = 0u;
 1158              		.loc 1 791 0
 1159 0130 F224     		movs	r4, #242
 792:Generated_Source\PSoC5/USB_midi.c ****                             rxStat->count = 1u;
 1160              		.loc 1 792 0
 1161 0132 0020     		movs	r0, #0
 1162              	.LVL110:
 793:Generated_Source\PSoC5/USB_midi.c ****                             rxStat->length = 3u;
 1163              		.loc 1 793 0
 1164 0134 0122     		movs	r2, #1
 794:Generated_Source\PSoC5/USB_midi.c ****                             break;
 1165              		.loc 1 794 0
 1166 0136 0323     		movs	r3, #3
 791:Generated_Source\PSoC5/USB_midi.c ****                             rxStat->runstat = 0u;
 1167              		.loc 1 791 0
 1168 0138 0C71     		strb	r4, [r1, #4]
 792:Generated_Source\PSoC5/USB_midi.c ****                             rxStat->count = 1u;
 1169              		.loc 1 792 0
 1170 013a C870     		strb	r0, [r1, #3]
 793:Generated_Source\PSoC5/USB_midi.c ****                             rxStat->length = 3u;
 1171              		.loc 1 793 0
 1172 013c 4A70     		strb	r2, [r1, #1]
 794:Generated_Source\PSoC5/USB_midi.c ****                             break;
 1173              		.loc 1 794 0
 1174 013e 0B70     		strb	r3, [r1]
 795:Generated_Source\PSoC5/USB_midi.c ****                         case USB_MIDI_SONGSEL:
 1175              		.loc 1 795 0
 1176 0140 6FE7     		b	.L63
 1177              	.LVL111:
 1178              	.L66:
 803:Generated_Source\PSoC5/USB_midi.c ****                             rxStat->runstat = 0u;
 1179              		.loc 1 803 0
 1180 0142 F124     		movs	r4, #241
 1181 0144 ECE7     		b	.L131
 1182              	.L64:
 779:Generated_Source\PSoC5/USB_midi.c ****                             rxStat->runstat = USB_MIDI_SYSEX;
 1183              		.loc 1 779 0
ARM GAS  C:\Users\jwvance\AppData\Local\Temp\ccxTgFRe.s 			page 42


 1184 0146 F023     		movs	r3, #240
 781:Generated_Source\PSoC5/USB_midi.c ****                             rxStat->length = 3u;
 1185              		.loc 1 781 0
 1186 0148 0120     		movs	r0, #1
 1187              	.LVL112:
 782:Generated_Source\PSoC5/USB_midi.c ****                             break;
 1188              		.loc 1 782 0
 1189 014a 0322     		movs	r2, #3
 781:Generated_Source\PSoC5/USB_midi.c ****                             rxStat->length = 3u;
 1190              		.loc 1 781 0
 1191 014c 4870     		strb	r0, [r1, #1]
 779:Generated_Source\PSoC5/USB_midi.c ****                             rxStat->runstat = USB_MIDI_SYSEX;
 1192              		.loc 1 779 0
 1193 014e 0B71     		strb	r3, [r1, #4]
 780:Generated_Source\PSoC5/USB_midi.c ****                             rxStat->count = 1u;
 1194              		.loc 1 780 0
 1195 0150 CB70     		strb	r3, [r1, #3]
 782:Generated_Source\PSoC5/USB_midi.c ****                             break;
 1196              		.loc 1 782 0
 1197 0152 0A70     		strb	r2, [r1]
 761:Generated_Source\PSoC5/USB_midi.c **** 
 1198              		.loc 1 761 0
 1199 0154 0020     		movs	r0, #0
 783:Generated_Source\PSoC5/USB_midi.c ****                         case USB_MIDI_EOSEX:
 1200              		.loc 1 783 0
 1201 0156 64E7     		b	.L63
 1202              		.cfi_endproc
 1203              	.LFE7:
 1204              		.size	USB_ProcessMidiIn, .-USB_ProcessMidiIn
 1205              		.section	.text.USB_MIDI1_GetEvent,"ax",%progbits
 1206              		.align	2
 1207              		.global	USB_MIDI1_GetEvent
 1208              		.thumb
 1209              		.thumb_func
 1210              		.type	USB_MIDI1_GetEvent, %function
 1211              	USB_MIDI1_GetEvent:
 1212              	.LFB8:
 902:Generated_Source\PSoC5/USB_midi.c **** 
 903:Generated_Source\PSoC5/USB_midi.c **** 
 904:Generated_Source\PSoC5/USB_midi.c ****     /*******************************************************************************
 905:Generated_Source\PSoC5/USB_midi.c ****     * Function Name: USB_MIDI1_GetEvent
 906:Generated_Source\PSoC5/USB_midi.c ****     ********************************************************************************
 907:Generated_Source\PSoC5/USB_midi.c ****     *
 908:Generated_Source\PSoC5/USB_midi.c ****     * Summary:
 909:Generated_Source\PSoC5/USB_midi.c ****     *  Checks for incoming MIDI data, calls the MIDI event builder if so.
 910:Generated_Source\PSoC5/USB_midi.c ****     *  Returns either empty or with a complete event.
 911:Generated_Source\PSoC5/USB_midi.c ****     *
 912:Generated_Source\PSoC5/USB_midi.c ****     * Parameters:
 913:Generated_Source\PSoC5/USB_midi.c ****     *  None
 914:Generated_Source\PSoC5/USB_midi.c ****     *
 915:Generated_Source\PSoC5/USB_midi.c ****     * Return:
 916:Generated_Source\PSoC5/USB_midi.c ****     *   0, if no complete message
 917:Generated_Source\PSoC5/USB_midi.c ****     *   1 - 4, if message complete
 918:Generated_Source\PSoC5/USB_midi.c ****     *   MIDI_SYSEX, if start or continuation of system exclusive
 919:Generated_Source\PSoC5/USB_midi.c ****     *   MIDI_EOSEX, if end of system exclusive
 920:Generated_Source\PSoC5/USB_midi.c ****     *   0xf8 - 0xff, if single byte real time message
 921:Generated_Source\PSoC5/USB_midi.c ****     *
ARM GAS  C:\Users\jwvance\AppData\Local\Temp\ccxTgFRe.s 			page 43


 922:Generated_Source\PSoC5/USB_midi.c ****     * Global variables:
 923:Generated_Source\PSoC5/USB_midi.c ****     *  USB_MIDI1_Event: RX status structure used to parse received
 924:Generated_Source\PSoC5/USB_midi.c ****     *    data.
 925:Generated_Source\PSoC5/USB_midi.c ****     *
 926:Generated_Source\PSoC5/USB_midi.c ****     *******************************************************************************/
 927:Generated_Source\PSoC5/USB_midi.c ****     uint8 USB_MIDI1_GetEvent(void) 
 928:Generated_Source\PSoC5/USB_midi.c ****     {
 1213              		.loc 1 928 0
 1214              		.cfi_startproc
 1215              		@ args = 0, pretend = 0, frame = 0
 1216              		@ frame_needed = 0, uses_anonymous_args = 0
 1217              	.LVL113:
 1218 0000 2DE9F843 		push	{r3, r4, r5, r6, r7, r8, r9, lr}
 1219              		.cfi_def_cfa_offset 32
 1220              		.cfi_offset 3, -32
 1221              		.cfi_offset 4, -28
 1222              		.cfi_offset 5, -24
 1223              		.cfi_offset 6, -20
 1224              		.cfi_offset 7, -16
 1225              		.cfi_offset 8, -12
 1226              		.cfi_offset 9, -8
 1227              		.cfi_offset 14, -4
 929:Generated_Source\PSoC5/USB_midi.c ****         uint8 msgRtn = 0u;
 930:Generated_Source\PSoC5/USB_midi.c ****         uint8 rxData;
 931:Generated_Source\PSoC5/USB_midi.c ****         #if (MIDI1_UART_RXBUFFERSIZE >= 256u)
 932:Generated_Source\PSoC5/USB_midi.c ****             uint16 rxBufferRead;
 933:Generated_Source\PSoC5/USB_midi.c ****             #if (CY_PSOC3) /* This local variable is required only for PSOC3 and large buffer */
 934:Generated_Source\PSoC5/USB_midi.c ****                 uint16 rxBufferWrite;
 935:Generated_Source\PSoC5/USB_midi.c ****             #endif /* (CY_PSOC3) */
 936:Generated_Source\PSoC5/USB_midi.c ****         #else
 937:Generated_Source\PSoC5/USB_midi.c ****             uint8 rxBufferRead;
 938:Generated_Source\PSoC5/USB_midi.c ****         #endif /* (MIDI1_UART_RXBUFFERSIZE >= 256u) */
 939:Generated_Source\PSoC5/USB_midi.c ****         
 940:Generated_Source\PSoC5/USB_midi.c ****         uint8 rxBufferLoopDetect;
 941:Generated_Source\PSoC5/USB_midi.c ****         /* Read buffer loop condition to the local variable */
 942:Generated_Source\PSoC5/USB_midi.c ****         rxBufferLoopDetect = MIDI1_UART_rxBufferLoopDetect;
 1228              		.loc 1 942 0
 1229 0004 1C4D     		ldr	r5, .L154
 943:Generated_Source\PSoC5/USB_midi.c **** 
 944:Generated_Source\PSoC5/USB_midi.c ****         if ( (MIDI1_UART_rxBufferRead != MIDI1_UART_rxBufferWrite) || (rxBufferLoopDetect != 0u) )
 1230              		.loc 1 944 0
 1231 0006 DFF88080 		ldr	r8, .L154+16
 1232 000a 1C4E     		ldr	r6, .L154+4
 942:Generated_Source\PSoC5/USB_midi.c **** 
 1233              		.loc 1 942 0
 1234 000c 2B78     		ldrb	r3, [r5]	@ zero_extendqisi2
 1235              		.loc 1 944 0
 1236 000e 98F80010 		ldrb	r1, [r8]	@ zero_extendqisi2
 1237 0012 3278     		ldrb	r2, [r6]	@ zero_extendqisi2
 942:Generated_Source\PSoC5/USB_midi.c **** 
 1238              		.loc 1 942 0
 1239 0014 DBB2     		uxtb	r3, r3
 1240              	.LVL114:
 1241              		.loc 1 944 0
 1242 0016 9142     		cmp	r1, r2
 1243 0018 28D0     		beq	.L152
 1244              	.L139:
ARM GAS  C:\Users\jwvance\AppData\Local\Temp\ccxTgFRe.s 			page 44


 945:Generated_Source\PSoC5/USB_midi.c ****         {
 946:Generated_Source\PSoC5/USB_midi.c ****             /* Protect variables that could change on interrupt by disabling Rx interrupt.*/
 947:Generated_Source\PSoC5/USB_midi.c ****             #if ((MIDI1_UART_RXBUFFERSIZE >= 256u) && (CY_PSOC3))
 948:Generated_Source\PSoC5/USB_midi.c ****                 CyIntDisable(MIDI1_UART_RX_VECT_NUM);
 949:Generated_Source\PSoC5/USB_midi.c ****             #endif /* ((MIDI1_UART_RXBUFFERSIZE >= 256u) && (CY_PSOC3)) */
 950:Generated_Source\PSoC5/USB_midi.c ****             rxBufferRead = MIDI1_UART_rxBufferRead;
 1245              		.loc 1 950 0
 1246 001a 98F80040 		ldrb	r4, [r8]	@ zero_extendqisi2
 951:Generated_Source\PSoC5/USB_midi.c ****             #if ((MIDI1_UART_RXBUFFERSIZE >= 256u) && (CY_PSOC3))
 952:Generated_Source\PSoC5/USB_midi.c ****                 rxBufferWrite = MIDI1_UART_rxBufferWrite;
 953:Generated_Source\PSoC5/USB_midi.c ****                 CyIntEnable(MIDI1_UART_RX_VECT_NUM);
 954:Generated_Source\PSoC5/USB_midi.c ****             #endif /* ((MIDI1_UART_RXBUFFERSIZE >= 256u) && (CY_PSOC3)) */
 955:Generated_Source\PSoC5/USB_midi.c **** 
 956:Generated_Source\PSoC5/USB_midi.c ****             /* Stay here until either the buffer is empty or we have a complete message
 957:Generated_Source\PSoC5/USB_midi.c ****             *  in the message buffer. Note that we must use a temporary buffer pointer
 958:Generated_Source\PSoC5/USB_midi.c ****             *  since it takes two instructions to increment with a wrap, and we can't
 959:Generated_Source\PSoC5/USB_midi.c ****             *  risk doing that with the real pointer and getting an interrupt in between
 960:Generated_Source\PSoC5/USB_midi.c ****             *  instructions.
 961:Generated_Source\PSoC5/USB_midi.c ****             */
 962:Generated_Source\PSoC5/USB_midi.c **** 
 963:Generated_Source\PSoC5/USB_midi.c ****             #if ((MIDI1_UART_RXBUFFERSIZE >= 256u) && (CY_PSOC3))
 964:Generated_Source\PSoC5/USB_midi.c ****                 while ( ((rxBufferRead != rxBufferWrite) || (rxBufferLoopDetect != 0u)) && (msgRtn 
 965:Generated_Source\PSoC5/USB_midi.c ****             #else
 966:Generated_Source\PSoC5/USB_midi.c ****                 while ( ((rxBufferRead != MIDI1_UART_rxBufferWrite) || (rxBufferLoopDetect != 0u)) 
 1247              		.loc 1 966 0
 1248 001e 3278     		ldrb	r2, [r6]	@ zero_extendqisi2
 950:Generated_Source\PSoC5/USB_midi.c ****             #if ((MIDI1_UART_RXBUFFERSIZE >= 256u) && (CY_PSOC3))
 1249              		.loc 1 950 0
 1250 0020 E4B2     		uxtb	r4, r4
 1251              	.LVL115:
 929:Generated_Source\PSoC5/USB_midi.c ****         uint8 rxData;
 1252              		.loc 1 929 0
 1253 0022 0020     		movs	r0, #0
 1254              	.LVL116:
 1255              		.loc 1 966 0
 1256 0024 9442     		cmp	r4, r2
 967:Generated_Source\PSoC5/USB_midi.c ****             #endif /*  ((MIDI1_UART_RXBUFFERSIZE >= 256u) && (CY_PSOC3)) */
 968:Generated_Source\PSoC5/USB_midi.c ****                 {
 969:Generated_Source\PSoC5/USB_midi.c ****                     rxData = MIDI1_UART_rxBuffer[rxBufferRead];
 970:Generated_Source\PSoC5/USB_midi.c ****                     /* Increment pointer with a wrap */
 971:Generated_Source\PSoC5/USB_midi.c ****                     rxBufferRead++;
 972:Generated_Source\PSoC5/USB_midi.c ****                     if(rxBufferRead >= MIDI1_UART_RXBUFFERSIZE)
 973:Generated_Source\PSoC5/USB_midi.c ****                     {
 974:Generated_Source\PSoC5/USB_midi.c ****                         rxBufferRead = 0u;
 975:Generated_Source\PSoC5/USB_midi.c ****                     }
 976:Generated_Source\PSoC5/USB_midi.c ****                     /* If loop condition was set - update real read buffer pointer
 977:Generated_Source\PSoC5/USB_midi.c ****                     *  to avoid overflow status
 978:Generated_Source\PSoC5/USB_midi.c ****                     */
 979:Generated_Source\PSoC5/USB_midi.c ****                     if(rxBufferLoopDetect != 0u )
 980:Generated_Source\PSoC5/USB_midi.c ****                     {
 981:Generated_Source\PSoC5/USB_midi.c ****                         MIDI1_UART_rxBufferLoopDetect = 0u;
 1257              		.loc 1 981 0
 1258 0026 8146     		mov	r9, r0
 969:Generated_Source\PSoC5/USB_midi.c ****                     /* Increment pointer with a wrap */
 1259              		.loc 1 969 0
 1260 0028 154F     		ldr	r7, .L154+8
 971:Generated_Source\PSoC5/USB_midi.c ****                     if(rxBufferRead >= MIDI1_UART_RXBUFFERSIZE)
ARM GAS  C:\Users\jwvance\AppData\Local\Temp\ccxTgFRe.s 			page 45


 1261              		.loc 1 971 0
 1262 002a 04F1010E 		add	lr, r4, #1
 982:Generated_Source\PSoC5/USB_midi.c ****                         #if ((MIDI1_UART_RXBUFFERSIZE >= 256u) && (CY_PSOC3))
 983:Generated_Source\PSoC5/USB_midi.c ****                             CyIntDisable(MIDI1_UART_RX_VECT_NUM);
 984:Generated_Source\PSoC5/USB_midi.c ****                         #endif /*  MIDI1_UART_RXBUFFERSIZE >= 256 */
 985:Generated_Source\PSoC5/USB_midi.c ****                         MIDI1_UART_rxBufferRead = rxBufferRead;
 986:Generated_Source\PSoC5/USB_midi.c ****                         #if ((MIDI1_UART_RXBUFFERSIZE >= 256u) && (CY_PSOC3))
 987:Generated_Source\PSoC5/USB_midi.c ****                             CyIntEnable(MIDI1_UART_RX_VECT_NUM);
 988:Generated_Source\PSoC5/USB_midi.c ****                         #endif /*  MIDI1_UART_RXBUFFERSIZE >= 256 */
 989:Generated_Source\PSoC5/USB_midi.c ****                     }
 990:Generated_Source\PSoC5/USB_midi.c **** 
 991:Generated_Source\PSoC5/USB_midi.c ****                     msgRtn = USB_ProcessMidiIn(rxData,
 1263              		.loc 1 991 0
 1264 002e 1549     		ldr	r1, .L154+12
 966:Generated_Source\PSoC5/USB_midi.c ****             #endif /*  ((MIDI1_UART_RXBUFFERSIZE >= 256u) && (CY_PSOC3)) */
 1265              		.loc 1 966 0
 1266 0030 16D0     		beq	.L153
 1267              	.L144:
 966:Generated_Source\PSoC5/USB_midi.c ****             #endif /*  ((MIDI1_UART_RXBUFFERSIZE >= 256u) && (CY_PSOC3)) */
 1268              		.loc 1 966 0 is_stmt 0 discriminator 3
 1269 0032 B8B9     		cbnz	r0, .L146
 969:Generated_Source\PSoC5/USB_midi.c ****                     /* Increment pointer with a wrap */
 1270              		.loc 1 969 0 is_stmt 1
 1271 0034 385D     		ldrb	r0, [r7, r4]	@ zero_extendqisi2
 1272              	.LVL117:
 971:Generated_Source\PSoC5/USB_midi.c ****                     if(rxBufferRead >= MIDI1_UART_RXBUFFERSIZE)
 1273              		.loc 1 971 0
 1274 0036 5FFA8EF4 		uxtb	r4, lr
 1275              	.LVL118:
 974:Generated_Source\PSoC5/USB_midi.c ****                     }
 1276              		.loc 1 974 0
 1277 003a FF2C     		cmp	r4, #255
 1278 003c 08BF     		it	eq
 1279 003e 0024     		moveq	r4, #0
 969:Generated_Source\PSoC5/USB_midi.c ****                     /* Increment pointer with a wrap */
 1280              		.loc 1 969 0
 1281 0040 C0B2     		uxtb	r0, r0
 1282              	.LVL119:
 979:Generated_Source\PSoC5/USB_midi.c ****                     {
 1283              		.loc 1 979 0
 1284 0042 1BB1     		cbz	r3, .L143
 981:Generated_Source\PSoC5/USB_midi.c ****                         #if ((MIDI1_UART_RXBUFFERSIZE >= 256u) && (CY_PSOC3))
 1285              		.loc 1 981 0
 1286 0044 85F80090 		strb	r9, [r5]
 985:Generated_Source\PSoC5/USB_midi.c ****                         #if ((MIDI1_UART_RXBUFFERSIZE >= 256u) && (CY_PSOC3))
 1287              		.loc 1 985 0
 1288 0048 88F80040 		strb	r4, [r8]
 1289              	.L143:
 1290              		.loc 1 991 0
 1291 004c FFF7FEFF 		bl	USB_ProcessMidiIn
 1292              	.LVL120:
 992:Generated_Source\PSoC5/USB_midi.c ****                                                     (USB_MIDI_RX_STATUS *)&USB_MIDI1_Event);
 993:Generated_Source\PSoC5/USB_midi.c **** 
 994:Generated_Source\PSoC5/USB_midi.c ****                     /* Read buffer loop condition to the local variable */
 995:Generated_Source\PSoC5/USB_midi.c ****                     rxBufferLoopDetect = MIDI1_UART_rxBufferLoopDetect;
 1293              		.loc 1 995 0
 1294 0050 2B78     		ldrb	r3, [r5]	@ zero_extendqisi2
ARM GAS  C:\Users\jwvance\AppData\Local\Temp\ccxTgFRe.s 			page 46


 966:Generated_Source\PSoC5/USB_midi.c ****             #endif /*  ((MIDI1_UART_RXBUFFERSIZE >= 256u) && (CY_PSOC3)) */
 1295              		.loc 1 966 0
 1296 0052 3278     		ldrb	r2, [r6]	@ zero_extendqisi2
 1297              		.loc 1 995 0
 1298 0054 DBB2     		uxtb	r3, r3
 1299              	.LVL121:
 966:Generated_Source\PSoC5/USB_midi.c ****             #endif /*  ((MIDI1_UART_RXBUFFERSIZE >= 256u) && (CY_PSOC3)) */
 1300              		.loc 1 966 0
 1301 0056 9442     		cmp	r4, r2
 971:Generated_Source\PSoC5/USB_midi.c ****                     if(rxBufferRead >= MIDI1_UART_RXBUFFERSIZE)
 1302              		.loc 1 971 0
 1303 0058 04F1010E 		add	lr, r4, #1
 991:Generated_Source\PSoC5/USB_midi.c ****                                                     (USB_MIDI_RX_STATUS *)&USB_MIDI1_Event);
 1304              		.loc 1 991 0
 1305 005c 0949     		ldr	r1, .L154+12
 966:Generated_Source\PSoC5/USB_midi.c ****             #endif /*  ((MIDI1_UART_RXBUFFERSIZE >= 256u) && (CY_PSOC3)) */
 1306              		.loc 1 966 0
 1307 005e E8D1     		bne	.L144
 1308              	.L153:
 966:Generated_Source\PSoC5/USB_midi.c ****             #endif /*  ((MIDI1_UART_RXBUFFERSIZE >= 256u) && (CY_PSOC3)) */
 1309              		.loc 1 966 0 is_stmt 0 discriminator 2
 1310 0060 002B     		cmp	r3, #0
 1311 0062 E6D1     		bne	.L144
 1312              	.L146:
 996:Generated_Source\PSoC5/USB_midi.c ****                 }
 997:Generated_Source\PSoC5/USB_midi.c **** 
 998:Generated_Source\PSoC5/USB_midi.c ****             /* Finally, update the real output pointer, then return with
 999:Generated_Source\PSoC5/USB_midi.c ****             *  an indication as to whether there's a complete message in the buffer.
1000:Generated_Source\PSoC5/USB_midi.c ****             */
1001:Generated_Source\PSoC5/USB_midi.c ****             #if ((MIDI1_UART_RXBUFFERSIZE >= 256u) && (CY_PSOC3))
1002:Generated_Source\PSoC5/USB_midi.c ****                 CyIntDisable(MIDI1_UART_RX_VECT_NUM);
1003:Generated_Source\PSoC5/USB_midi.c ****             #endif /* ((MIDI1_UART_RXBUFFERSIZE >= 256u) && (CY_PSOC3)) */
1004:Generated_Source\PSoC5/USB_midi.c ****             MIDI1_UART_rxBufferRead = rxBufferRead;
 1313              		.loc 1 1004 0 is_stmt 1
 1314 0064 88F80040 		strb	r4, [r8]
 1315 0068 BDE8F883 		pop	{r3, r4, r5, r6, r7, r8, r9, pc}
 1316              	.LVL122:
 1317              	.L152:
 944:Generated_Source\PSoC5/USB_midi.c ****         {
 1318              		.loc 1 944 0 discriminator 1
 1319 006c 002B     		cmp	r3, #0
 1320 006e D4D1     		bne	.L139
 929:Generated_Source\PSoC5/USB_midi.c ****         uint8 rxData;
 1321              		.loc 1 929 0
 1322 0070 1846     		mov	r0, r3
 1323              	.LVL123:
1005:Generated_Source\PSoC5/USB_midi.c ****             #if ((MIDI1_UART_RXBUFFERSIZE >= 256u) && (CY_PSOC3))
1006:Generated_Source\PSoC5/USB_midi.c ****                 CyIntEnable(MIDI1_UART_RX_VECT_NUM);
1007:Generated_Source\PSoC5/USB_midi.c ****             #endif /* ((MIDI1_UART_RXBUFFERSIZE >= 256u) && (CY_PSOC3)) */
1008:Generated_Source\PSoC5/USB_midi.c ****         }
1009:Generated_Source\PSoC5/USB_midi.c **** 
1010:Generated_Source\PSoC5/USB_midi.c ****         return (msgRtn);
1011:Generated_Source\PSoC5/USB_midi.c ****     }
 1324              		.loc 1 1011 0
 1325 0072 BDE8F883 		pop	{r3, r4, r5, r6, r7, r8, r9, pc}
 1326              	.LVL124:
 1327              	.L155:
ARM GAS  C:\Users\jwvance\AppData\Local\Temp\ccxTgFRe.s 			page 47


 1328 0076 00BF     		.align	2
 1329              	.L154:
 1330 0078 00000000 		.word	MIDI1_UART_rxBufferLoopDetect
 1331 007c 00000000 		.word	MIDI1_UART_rxBufferWrite
 1332 0080 00000000 		.word	MIDI1_UART_rxBuffer
 1333 0084 00000000 		.word	.LANCHOR0
 1334 0088 00000000 		.word	MIDI1_UART_rxBufferRead
 1335              		.cfi_endproc
 1336              	.LFE8:
 1337              		.size	USB_MIDI1_GetEvent, .-USB_MIDI1_GetEvent
 1338              		.section	.text.USB_MIDI1_ProcessUsbOut,"ax",%progbits
 1339              		.align	2
 1340              		.global	USB_MIDI1_ProcessUsbOut
 1341              		.thumb
 1342              		.thumb_func
 1343              		.type	USB_MIDI1_ProcessUsbOut, %function
 1344              	USB_MIDI1_ProcessUsbOut:
 1345              	.LFB9:
1012:Generated_Source\PSoC5/USB_midi.c **** 
1013:Generated_Source\PSoC5/USB_midi.c **** 
1014:Generated_Source\PSoC5/USB_midi.c ****     /*******************************************************************************
1015:Generated_Source\PSoC5/USB_midi.c ****     * Function Name: USB_MIDI1_ProcessUsbOut
1016:Generated_Source\PSoC5/USB_midi.c ****     ********************************************************************************
1017:Generated_Source\PSoC5/USB_midi.c ****     *
1018:Generated_Source\PSoC5/USB_midi.c ****     * Summary:
1019:Generated_Source\PSoC5/USB_midi.c ****     *  Process a USB MIDI output event.
1020:Generated_Source\PSoC5/USB_midi.c ****     *  Puts data into the MIDI TX output buffer.
1021:Generated_Source\PSoC5/USB_midi.c ****     *
1022:Generated_Source\PSoC5/USB_midi.c ****     * Parameters:
1023:Generated_Source\PSoC5/USB_midi.c ****     *  *epBuf: pointer on MIDI event.
1024:Generated_Source\PSoC5/USB_midi.c ****     *
1025:Generated_Source\PSoC5/USB_midi.c ****     * Return:
1026:Generated_Source\PSoC5/USB_midi.c ****     *   None
1027:Generated_Source\PSoC5/USB_midi.c ****     *
1028:Generated_Source\PSoC5/USB_midi.c ****     * Global variables:
1029:Generated_Source\PSoC5/USB_midi.c ****     *  USB_MIDI1_TxRunStat: This variable used to save the MIDI
1030:Generated_Source\PSoC5/USB_midi.c ****     *    status byte and skip to send the repeated status byte in subsequent event.
1031:Generated_Source\PSoC5/USB_midi.c ****     *  USB_MIDI1_InqFlags: The following flags are set when SysEx
1032:Generated_Source\PSoC5/USB_midi.c ****     *    message comes.
1033:Generated_Source\PSoC5/USB_midi.c ****     *    USB_INQ_SYSEX_FLAG: Non-Real Time SySEx message received.
1034:Generated_Source\PSoC5/USB_midi.c ****     *    USB_INQ_IDENTITY_REQ_FLAG: Identity Request received.
1035:Generated_Source\PSoC5/USB_midi.c ****     *      This bit should be cleared by user when Identity Reply message generated.
1036:Generated_Source\PSoC5/USB_midi.c ****     *
1037:Generated_Source\PSoC5/USB_midi.c ****     *******************************************************************************/
1038:Generated_Source\PSoC5/USB_midi.c ****     void USB_MIDI1_ProcessUsbOut(const uint8 epBuf[])
1039:Generated_Source\PSoC5/USB_midi.c ****                                                             
1040:Generated_Source\PSoC5/USB_midi.c ****     {
 1346              		.loc 1 1040 0
 1347              		.cfi_startproc
 1348              		@ args = 0, pretend = 0, frame = 0
 1349              		@ frame_needed = 0, uses_anonymous_args = 0
 1350              	.LVL125:
1041:Generated_Source\PSoC5/USB_midi.c ****         uint8 cmd;
1042:Generated_Source\PSoC5/USB_midi.c ****         uint8 len;
1043:Generated_Source\PSoC5/USB_midi.c ****         uint8 i;
1044:Generated_Source\PSoC5/USB_midi.c **** 
1045:Generated_Source\PSoC5/USB_midi.c ****         /* User code is required at the beginning of the procedure */
ARM GAS  C:\Users\jwvance\AppData\Local\Temp\ccxTgFRe.s 			page 48


1046:Generated_Source\PSoC5/USB_midi.c ****         /* `#START MIDI1_PROCESS_OUT_BEGIN` */
1047:Generated_Source\PSoC5/USB_midi.c ****         //LED_OutA_Write(1);
1048:Generated_Source\PSoC5/USB_midi.c ****         /* `#END` */
1049:Generated_Source\PSoC5/USB_midi.c **** 
1050:Generated_Source\PSoC5/USB_midi.c ****         cmd = epBuf[USB_EVENT_BYTE0] & USB_CIN_MASK;
 1351              		.loc 1 1050 0
 1352 0000 0378     		ldrb	r3, [r0]	@ zero_extendqisi2
 1353 0002 03F00F03 		and	r3, r3, #15
 1354              	.LVL126:
1051:Generated_Source\PSoC5/USB_midi.c ****         if((cmd != USB_RESERVED0) && (cmd != USB_RESERVED1))
 1355              		.loc 1 1051 0
 1356 0006 012B     		cmp	r3, #1
 1357 0008 31D9     		bls	.L175
1052:Generated_Source\PSoC5/USB_midi.c ****         {
1053:Generated_Source\PSoC5/USB_midi.c ****             len = USB_MIDI_SIZE[cmd];
 1358              		.loc 1 1053 0
 1359 000a 244A     		ldr	r2, .L182
1054:Generated_Source\PSoC5/USB_midi.c ****             i = USB_EVENT_BYTE1;
1055:Generated_Source\PSoC5/USB_midi.c ****             /* Universal System Exclusive message parsing */
1056:Generated_Source\PSoC5/USB_midi.c ****             if(cmd == USB_SYSEX)
 1360              		.loc 1 1056 0
 1361 000c 042B     		cmp	r3, #4
1040:Generated_Source\PSoC5/USB_midi.c ****         uint8 cmd;
 1362              		.loc 1 1040 0
 1363 000e 70B5     		push	{r4, r5, r6, lr}
 1364              		.cfi_def_cfa_offset 16
 1365              		.cfi_offset 4, -16
 1366              		.cfi_offset 5, -12
 1367              		.cfi_offset 6, -8
 1368              		.cfi_offset 14, -4
 1369 0010 0546     		mov	r5, r0
1053:Generated_Source\PSoC5/USB_midi.c ****             i = USB_EVENT_BYTE1;
 1370              		.loc 1 1053 0
 1371 0012 D65C     		ldrb	r6, [r2, r3]	@ zero_extendqisi2
 1372              	.LVL127:
 1373              		.loc 1 1056 0
 1374 0014 1FD0     		beq	.L179
1057:Generated_Source\PSoC5/USB_midi.c ****             {
1058:Generated_Source\PSoC5/USB_midi.c ****                 if((epBuf[USB_EVENT_BYTE1] == USB_MIDI_SYSEX) &&
1059:Generated_Source\PSoC5/USB_midi.c ****                    (epBuf[USB_EVENT_BYTE2] == USB_MIDI_SYSEX_NON_REAL_TIME))
1060:Generated_Source\PSoC5/USB_midi.c ****                 {   /* Non-Real Time SySEx starts */
1061:Generated_Source\PSoC5/USB_midi.c ****                     USB_MIDI1_InqFlags |= USB_INQ_SYSEX_FLAG;
1062:Generated_Source\PSoC5/USB_midi.c ****                 }
1063:Generated_Source\PSoC5/USB_midi.c ****                 else
1064:Generated_Source\PSoC5/USB_midi.c ****                 {
1065:Generated_Source\PSoC5/USB_midi.c ****                     USB_MIDI1_InqFlags &= (uint8)~USB_INQ_SYSEX_FLAG;
1066:Generated_Source\PSoC5/USB_midi.c ****                 }
1067:Generated_Source\PSoC5/USB_midi.c ****             }
1068:Generated_Source\PSoC5/USB_midi.c ****             else if(cmd == USB_SYSEX_ENDS_WITH1)
 1375              		.loc 1 1068 0
 1376 0016 052B     		cmp	r3, #5
 1377 0018 15D0     		beq	.L177
1069:Generated_Source\PSoC5/USB_midi.c ****             {
1070:Generated_Source\PSoC5/USB_midi.c ****                 USB_MIDI1_InqFlags &= (uint8)~USB_INQ_SYSEX_FLAG;
1071:Generated_Source\PSoC5/USB_midi.c ****             }
1072:Generated_Source\PSoC5/USB_midi.c ****             else if(cmd == USB_SYSEX_ENDS_WITH2)
 1378              		.loc 1 1072 0
ARM GAS  C:\Users\jwvance\AppData\Local\Temp\ccxTgFRe.s 			page 49


 1379 001a 062B     		cmp	r3, #6
 1380 001c 13D0     		beq	.L177
1073:Generated_Source\PSoC5/USB_midi.c ****             {
1074:Generated_Source\PSoC5/USB_midi.c ****                 USB_MIDI1_InqFlags &= (uint8)~USB_INQ_SYSEX_FLAG;
1075:Generated_Source\PSoC5/USB_midi.c ****             }
1076:Generated_Source\PSoC5/USB_midi.c ****             else if(cmd == USB_SYSEX_ENDS_WITH3)
 1381              		.loc 1 1076 0
 1382 001e 072B     		cmp	r3, #7
 1383 0020 28D0     		beq	.L180
1077:Generated_Source\PSoC5/USB_midi.c ****             {
1078:Generated_Source\PSoC5/USB_midi.c ****                 /* Identify Request support */
1079:Generated_Source\PSoC5/USB_midi.c ****                 if((USB_MIDI1_InqFlags & USB_INQ_SYSEX_FLAG) != 0u)
1080:Generated_Source\PSoC5/USB_midi.c ****                 {
1081:Generated_Source\PSoC5/USB_midi.c ****                     USB_MIDI1_InqFlags &= (uint8)~USB_INQ_SYSEX_FLAG;
1082:Generated_Source\PSoC5/USB_midi.c ****                     if((epBuf[USB_EVENT_BYTE1] == USB_MIDI_SYSEX_GEN_INFORMATION) &&
1083:Generated_Source\PSoC5/USB_midi.c ****                     (epBuf[USB_EVENT_BYTE2] == USB_MIDI_SYSEX_IDENTITY_REQ))
1084:Generated_Source\PSoC5/USB_midi.c ****                     {   /* Set the flag about received the Identity Request.
1085:Generated_Source\PSoC5/USB_midi.c ****                         *  The Identity Reply message may be send by user code.
1086:Generated_Source\PSoC5/USB_midi.c ****                         */
1087:Generated_Source\PSoC5/USB_midi.c ****                         USB_MIDI1_InqFlags |= USB_INQ_IDENTITY_REQ_FLAG;
1088:Generated_Source\PSoC5/USB_midi.c ****                     }
1089:Generated_Source\PSoC5/USB_midi.c ****                 }
1090:Generated_Source\PSoC5/USB_midi.c ****             }
1091:Generated_Source\PSoC5/USB_midi.c ****             else /* Do nothing for other command */
1092:Generated_Source\PSoC5/USB_midi.c ****             {
1093:Generated_Source\PSoC5/USB_midi.c ****             }
1094:Generated_Source\PSoC5/USB_midi.c ****             /* Running Status for Voice and Mode messages only. */
1095:Generated_Source\PSoC5/USB_midi.c ****             if((cmd >= USB_NOTE_OFF) && ( cmd <= USB_PITCH_BEND_CHANGE))
 1384              		.loc 1 1095 0
 1385 0022 083B     		subs	r3, r3, #8
 1386              	.LVL128:
 1387 0024 062B     		cmp	r3, #6
 1388 0026 13D8     		bhi	.L165
1096:Generated_Source\PSoC5/USB_midi.c ****             {
1097:Generated_Source\PSoC5/USB_midi.c ****                 if(USB_MIDI1_TxRunStat == epBuf[USB_EVENT_BYTE1])
 1389              		.loc 1 1097 0
 1390 0028 1D4B     		ldr	r3, .L182+4
 1391              	.LVL129:
 1392 002a 4278     		ldrb	r2, [r0, #1]	@ zero_extendqisi2
 1393 002c 197A     		ldrb	r1, [r3, #8]	@ zero_extendqisi2
 1394 002e 8A42     		cmp	r2, r1
 1395 0030 1ED0     		beq	.L181
 1396              	.LVL130:
 1397              	.L178:
1098:Generated_Source\PSoC5/USB_midi.c ****                 {   /* Skip the repeated Status byte */
1099:Generated_Source\PSoC5/USB_midi.c ****                     i++;
1100:Generated_Source\PSoC5/USB_midi.c ****                 }
1101:Generated_Source\PSoC5/USB_midi.c ****                 else
1102:Generated_Source\PSoC5/USB_midi.c ****                 {   /* Save Status byte for next event */
1103:Generated_Source\PSoC5/USB_midi.c ****                     USB_MIDI1_TxRunStat = epBuf[USB_EVENT_BYTE1];
1104:Generated_Source\PSoC5/USB_midi.c ****                 }
1105:Generated_Source\PSoC5/USB_midi.c ****             }
1106:Generated_Source\PSoC5/USB_midi.c ****             else
1107:Generated_Source\PSoC5/USB_midi.c ****             {   /* Clear Running Status */
1108:Generated_Source\PSoC5/USB_midi.c ****                 USB_MIDI1_TxRunStat = 0u;
 1398              		.loc 1 1108 0
 1399 0032 1A72     		strb	r2, [r3, #8]
ARM GAS  C:\Users\jwvance\AppData\Local\Temp\ccxTgFRe.s 			page 50


1054:Generated_Source\PSoC5/USB_midi.c ****             /* Universal System Exclusive message parsing */
 1400              		.loc 1 1054 0
 1401 0034 0124     		movs	r4, #1
 1402              	.LVL131:
 1403              	.L167:
1109:Generated_Source\PSoC5/USB_midi.c ****             }
1110:Generated_Source\PSoC5/USB_midi.c ****             /* Puts data into the MIDI TX output buffer.*/
1111:Generated_Source\PSoC5/USB_midi.c ****             do
1112:Generated_Source\PSoC5/USB_midi.c ****             {
1113:Generated_Source\PSoC5/USB_midi.c ****                 MIDI1_UART_PutChar(epBuf[i]);
 1404              		.loc 1 1113 0 discriminator 1
 1405 0036 285D     		ldrb	r0, [r5, r4]	@ zero_extendqisi2
1114:Generated_Source\PSoC5/USB_midi.c ****                 i++;
 1406              		.loc 1 1114 0 discriminator 1
 1407 0038 0134     		adds	r4, r4, #1
 1408              	.LVL132:
 1409 003a E4B2     		uxtb	r4, r4
1113:Generated_Source\PSoC5/USB_midi.c ****                 i++;
 1410              		.loc 1 1113 0 discriminator 1
 1411 003c FFF7FEFF 		bl	MIDI1_UART_PutChar
 1412              	.LVL133:
1115:Generated_Source\PSoC5/USB_midi.c ****             } while (i <= len);
 1413              		.loc 1 1115 0 discriminator 1
 1414 0040 A642     		cmp	r6, r4
 1415 0042 F8D2     		bcs	.L167
 1416 0044 70BD     		pop	{r4, r5, r6, pc}
 1417              	.LVL134:
 1418              	.L177:
1074:Generated_Source\PSoC5/USB_midi.c ****             }
 1419              		.loc 1 1074 0
 1420 0046 174A     		ldr	r2, .L182+8
 1421              	.LVL135:
 1422              	.L176:
 1423 0048 1378     		ldrb	r3, [r2]	@ zero_extendqisi2
 1424 004a 03F0FE03 		and	r3, r3, #254
 1425 004e 1370     		strb	r3, [r2]
 1426              	.LVL136:
 1427              	.L165:
1108:Generated_Source\PSoC5/USB_midi.c ****             }
 1428              		.loc 1 1108 0
 1429 0050 134B     		ldr	r3, .L182+4
 1430 0052 0022     		movs	r2, #0
 1431 0054 EDE7     		b	.L178
 1432              	.LVL137:
 1433              	.L179:
1058:Generated_Source\PSoC5/USB_midi.c ****                    (epBuf[USB_EVENT_BYTE2] == USB_MIDI_SYSEX_NON_REAL_TIME))
 1434              		.loc 1 1058 0
 1435 0056 4378     		ldrb	r3, [r0, #1]	@ zero_extendqisi2
 1436              	.LVL138:
1061:Generated_Source\PSoC5/USB_midi.c ****                 }
 1437              		.loc 1 1061 0
 1438 0058 124A     		ldr	r2, .L182+8
1058:Generated_Source\PSoC5/USB_midi.c ****                    (epBuf[USB_EVENT_BYTE2] == USB_MIDI_SYSEX_NON_REAL_TIME))
 1439              		.loc 1 1058 0
 1440 005a F02B     		cmp	r3, #240
 1441 005c F4D1     		bne	.L176
1058:Generated_Source\PSoC5/USB_midi.c ****                    (epBuf[USB_EVENT_BYTE2] == USB_MIDI_SYSEX_NON_REAL_TIME))
ARM GAS  C:\Users\jwvance\AppData\Local\Temp\ccxTgFRe.s 			page 51


 1442              		.loc 1 1058 0 is_stmt 0 discriminator 1
 1443 005e 8378     		ldrb	r3, [r0, #2]	@ zero_extendqisi2
 1444 0060 7E2B     		cmp	r3, #126
 1445 0062 F1D1     		bne	.L176
1061:Generated_Source\PSoC5/USB_midi.c ****                 }
 1446              		.loc 1 1061 0 is_stmt 1
 1447 0064 1378     		ldrb	r3, [r2]	@ zero_extendqisi2
 1448 0066 43F00103 		orr	r3, r3, #1
 1449 006a 1370     		strb	r3, [r2]
 1450              	.LVL139:
 1451 006c F0E7     		b	.L165
 1452              	.LVL140:
 1453              	.L175:
 1454              		.cfi_def_cfa_offset 0
 1455              		.cfi_restore 4
 1456              		.cfi_restore 5
 1457              		.cfi_restore 6
 1458              		.cfi_restore 14
 1459 006e 7047     		bx	lr
 1460              	.LVL141:
 1461              	.L181:
 1462              		.cfi_def_cfa_offset 16
 1463              		.cfi_offset 4, -16
 1464              		.cfi_offset 5, -12
 1465              		.cfi_offset 6, -8
 1466              		.cfi_offset 14, -4
1099:Generated_Source\PSoC5/USB_midi.c ****                 }
 1467              		.loc 1 1099 0
 1468 0070 0224     		movs	r4, #2
 1469 0072 E0E7     		b	.L167
 1470              	.LVL142:
 1471              	.L180:
1079:Generated_Source\PSoC5/USB_midi.c ****                 {
 1472              		.loc 1 1079 0
 1473 0074 0B4B     		ldr	r3, .L182+8
 1474              	.LVL143:
 1475 0076 1A78     		ldrb	r2, [r3]	@ zero_extendqisi2
 1476 0078 D207     		lsls	r2, r2, #31
 1477 007a E9D5     		bpl	.L165
1081:Generated_Source\PSoC5/USB_midi.c ****                     if((epBuf[USB_EVENT_BYTE1] == USB_MIDI_SYSEX_GEN_INFORMATION) &&
 1478              		.loc 1 1081 0
 1479 007c 1A78     		ldrb	r2, [r3]	@ zero_extendqisi2
1082:Generated_Source\PSoC5/USB_midi.c ****                     (epBuf[USB_EVENT_BYTE2] == USB_MIDI_SYSEX_IDENTITY_REQ))
 1480              		.loc 1 1082 0
 1481 007e 4178     		ldrb	r1, [r0, #1]	@ zero_extendqisi2
1081:Generated_Source\PSoC5/USB_midi.c ****                     if((epBuf[USB_EVENT_BYTE1] == USB_MIDI_SYSEX_GEN_INFORMATION) &&
 1482              		.loc 1 1081 0
 1483 0080 02F0FE02 		and	r2, r2, #254
1082:Generated_Source\PSoC5/USB_midi.c ****                     (epBuf[USB_EVENT_BYTE2] == USB_MIDI_SYSEX_IDENTITY_REQ))
 1484              		.loc 1 1082 0
 1485 0084 0629     		cmp	r1, #6
1081:Generated_Source\PSoC5/USB_midi.c ****                     if((epBuf[USB_EVENT_BYTE1] == USB_MIDI_SYSEX_GEN_INFORMATION) &&
 1486              		.loc 1 1081 0
 1487 0086 1A70     		strb	r2, [r3]
 1488              	.LVL144:
1082:Generated_Source\PSoC5/USB_midi.c ****                     (epBuf[USB_EVENT_BYTE2] == USB_MIDI_SYSEX_IDENTITY_REQ))
 1489              		.loc 1 1082 0
ARM GAS  C:\Users\jwvance\AppData\Local\Temp\ccxTgFRe.s 			page 52


 1490 0088 E2D1     		bne	.L165
1082:Generated_Source\PSoC5/USB_midi.c ****                     (epBuf[USB_EVENT_BYTE2] == USB_MIDI_SYSEX_IDENTITY_REQ))
 1491              		.loc 1 1082 0 is_stmt 0 discriminator 1
 1492 008a 8278     		ldrb	r2, [r0, #2]	@ zero_extendqisi2
 1493 008c 012A     		cmp	r2, #1
 1494 008e DFD1     		bne	.L165
1087:Generated_Source\PSoC5/USB_midi.c ****                     }
 1495              		.loc 1 1087 0 is_stmt 1
 1496 0090 1A78     		ldrb	r2, [r3]	@ zero_extendqisi2
 1497 0092 42F00202 		orr	r2, r2, #2
 1498 0096 1A70     		strb	r2, [r3]
 1499 0098 DAE7     		b	.L165
 1500              	.L183:
 1501 009a 00BF     		.align	2
 1502              	.L182:
 1503 009c 00000000 		.word	.LANCHOR1
 1504 00a0 00000000 		.word	.LANCHOR0
 1505 00a4 00000000 		.word	USB_MIDI1_InqFlags
 1506              		.cfi_endproc
 1507              	.LFE9:
 1508              		.size	USB_MIDI1_ProcessUsbOut, .-USB_MIDI1_ProcessUsbOut
 1509              		.section	.text.USB_MIDI2_GetEvent,"ax",%progbits
 1510              		.align	2
 1511              		.global	USB_MIDI2_GetEvent
 1512              		.thumb
 1513              		.thumb_func
 1514              		.type	USB_MIDI2_GetEvent, %function
 1515              	USB_MIDI2_GetEvent:
 1516              	.LFB10:
1116:Generated_Source\PSoC5/USB_midi.c ****         }
1117:Generated_Source\PSoC5/USB_midi.c **** 
1118:Generated_Source\PSoC5/USB_midi.c ****         /* User code is required at the end of the procedure */
1119:Generated_Source\PSoC5/USB_midi.c ****         /* `#START MIDI1_PROCESS_OUT_END` */
1120:Generated_Source\PSoC5/USB_midi.c ****         //LED_OutA_Write(0);
1121:Generated_Source\PSoC5/USB_midi.c ****         /* `#END` */
1122:Generated_Source\PSoC5/USB_midi.c ****     }
1123:Generated_Source\PSoC5/USB_midi.c **** 
1124:Generated_Source\PSoC5/USB_midi.c ****     
1125:Generated_Source\PSoC5/USB_midi.c **** #if (USB_MIDI_EXT_MODE >= USB_TWO_EXT_INTRF)
1126:Generated_Source\PSoC5/USB_midi.c **** 
1127:Generated_Source\PSoC5/USB_midi.c **** 
1128:Generated_Source\PSoC5/USB_midi.c ****     /*******************************************************************************
1129:Generated_Source\PSoC5/USB_midi.c ****     * Function Name: USB_MIDI2_GetEvent
1130:Generated_Source\PSoC5/USB_midi.c ****     ********************************************************************************
1131:Generated_Source\PSoC5/USB_midi.c ****     *
1132:Generated_Source\PSoC5/USB_midi.c ****     * Summary:
1133:Generated_Source\PSoC5/USB_midi.c ****     *  Checks for incoming MIDI data, calls the MIDI event builder if so.
1134:Generated_Source\PSoC5/USB_midi.c ****     *  Returns either empty or with a complete event.
1135:Generated_Source\PSoC5/USB_midi.c ****     *
1136:Generated_Source\PSoC5/USB_midi.c ****     * Parameters:
1137:Generated_Source\PSoC5/USB_midi.c ****     *  None
1138:Generated_Source\PSoC5/USB_midi.c ****     *
1139:Generated_Source\PSoC5/USB_midi.c ****     * Return:
1140:Generated_Source\PSoC5/USB_midi.c ****     *   0, if no complete message
1141:Generated_Source\PSoC5/USB_midi.c ****     *   1 - 4, if message complete
1142:Generated_Source\PSoC5/USB_midi.c ****     *   MIDI_SYSEX, if start or continuation of system exclusive
1143:Generated_Source\PSoC5/USB_midi.c ****     *   MIDI_EOSEX, if end of system exclusive
ARM GAS  C:\Users\jwvance\AppData\Local\Temp\ccxTgFRe.s 			page 53


1144:Generated_Source\PSoC5/USB_midi.c ****     *   0xf8 - 0xff, if single byte real time message
1145:Generated_Source\PSoC5/USB_midi.c ****     *
1146:Generated_Source\PSoC5/USB_midi.c ****     * Global variables:
1147:Generated_Source\PSoC5/USB_midi.c ****     *  USB_MIDI2_Event: RX status structure used to parse received
1148:Generated_Source\PSoC5/USB_midi.c ****     *    data.
1149:Generated_Source\PSoC5/USB_midi.c ****     *
1150:Generated_Source\PSoC5/USB_midi.c ****     *******************************************************************************/
1151:Generated_Source\PSoC5/USB_midi.c ****     uint8 USB_MIDI2_GetEvent(void) 
1152:Generated_Source\PSoC5/USB_midi.c ****     {
 1517              		.loc 1 1152 0
 1518              		.cfi_startproc
 1519              		@ args = 0, pretend = 0, frame = 0
 1520              		@ frame_needed = 0, uses_anonymous_args = 0
 1521              	.LVL145:
 1522 0000 2DE9F843 		push	{r3, r4, r5, r6, r7, r8, r9, lr}
 1523              		.cfi_def_cfa_offset 32
 1524              		.cfi_offset 3, -32
 1525              		.cfi_offset 4, -28
 1526              		.cfi_offset 5, -24
 1527              		.cfi_offset 6, -20
 1528              		.cfi_offset 7, -16
 1529              		.cfi_offset 8, -12
 1530              		.cfi_offset 9, -8
 1531              		.cfi_offset 14, -4
1153:Generated_Source\PSoC5/USB_midi.c ****         uint8 msgRtn = 0u;
1154:Generated_Source\PSoC5/USB_midi.c ****         uint8 rxData;
1155:Generated_Source\PSoC5/USB_midi.c ****         #if (MIDI2_UART_RXBUFFERSIZE >= 256u)
1156:Generated_Source\PSoC5/USB_midi.c ****             uint16 rxBufferRead;
1157:Generated_Source\PSoC5/USB_midi.c ****             #if (CY_PSOC3) /* This local variable required only for PSOC3 and large buffer */
1158:Generated_Source\PSoC5/USB_midi.c ****                 uint16 rxBufferWrite;
1159:Generated_Source\PSoC5/USB_midi.c ****             #endif /* (CY_PSOC3) */
1160:Generated_Source\PSoC5/USB_midi.c ****         #else
1161:Generated_Source\PSoC5/USB_midi.c ****             uint8 rxBufferRead;
1162:Generated_Source\PSoC5/USB_midi.c ****         #endif /* (MIDI2_UART_RXBUFFERSIZE >= 256) */
1163:Generated_Source\PSoC5/USB_midi.c ****         
1164:Generated_Source\PSoC5/USB_midi.c ****         uint8 rxBufferLoopDetect;
1165:Generated_Source\PSoC5/USB_midi.c ****         /* Read buffer loop condition to the local variable */
1166:Generated_Source\PSoC5/USB_midi.c ****         rxBufferLoopDetect = MIDI2_UART_rxBufferLoopDetect;
 1532              		.loc 1 1166 0
 1533 0004 1C4D     		ldr	r5, .L200
1167:Generated_Source\PSoC5/USB_midi.c **** 
1168:Generated_Source\PSoC5/USB_midi.c ****         if ( (MIDI2_UART_rxBufferRead != MIDI2_UART_rxBufferWrite) || (rxBufferLoopDetect != 0u) )
 1534              		.loc 1 1168 0
 1535 0006 DFF88080 		ldr	r8, .L200+16
 1536 000a 1C4E     		ldr	r6, .L200+4
1166:Generated_Source\PSoC5/USB_midi.c **** 
 1537              		.loc 1 1166 0
 1538 000c 2B78     		ldrb	r3, [r5]	@ zero_extendqisi2
 1539              		.loc 1 1168 0
 1540 000e 98F80010 		ldrb	r1, [r8]	@ zero_extendqisi2
 1541 0012 3278     		ldrb	r2, [r6]	@ zero_extendqisi2
1166:Generated_Source\PSoC5/USB_midi.c **** 
 1542              		.loc 1 1166 0
 1543 0014 DBB2     		uxtb	r3, r3
 1544              	.LVL146:
 1545              		.loc 1 1168 0
 1546 0016 9142     		cmp	r1, r2
ARM GAS  C:\Users\jwvance\AppData\Local\Temp\ccxTgFRe.s 			page 54


 1547 0018 28D0     		beq	.L198
 1548              	.L185:
1169:Generated_Source\PSoC5/USB_midi.c ****         {
1170:Generated_Source\PSoC5/USB_midi.c ****             /* Protect variables that could change on interrupt by disabling Rx interrupt.*/
1171:Generated_Source\PSoC5/USB_midi.c ****             #if ((MIDI2_UART_RXBUFFERSIZE >= 256u) && (CY_PSOC3))
1172:Generated_Source\PSoC5/USB_midi.c ****                 CyIntDisable(MIDI2_UART_RX_VECT_NUM);
1173:Generated_Source\PSoC5/USB_midi.c ****             #endif /* ((MIDI2_UART_RXBUFFERSIZE >= 256u) && (CY_PSOC3)) */
1174:Generated_Source\PSoC5/USB_midi.c ****             rxBufferRead = MIDI2_UART_rxBufferRead;
 1549              		.loc 1 1174 0
 1550 001a 98F80040 		ldrb	r4, [r8]	@ zero_extendqisi2
1175:Generated_Source\PSoC5/USB_midi.c ****             #if ((MIDI2_UART_RXBUFFERSIZE >= 256u) && (CY_PSOC3))
1176:Generated_Source\PSoC5/USB_midi.c ****                 rxBufferWrite = MIDI2_UART_rxBufferWrite;
1177:Generated_Source\PSoC5/USB_midi.c ****                 CyIntEnable(MIDI2_UART_RX_VECT_NUM);
1178:Generated_Source\PSoC5/USB_midi.c ****             #endif /* ((MIDI2_UART_RXBUFFERSIZE >= 256u) && (CY_PSOC3)) */
1179:Generated_Source\PSoC5/USB_midi.c **** 
1180:Generated_Source\PSoC5/USB_midi.c ****             /* Stay here until either the buffer is empty or we have a complete message
1181:Generated_Source\PSoC5/USB_midi.c ****             *  in the message buffer. Note that we must use a temporary output pointer to
1182:Generated_Source\PSoC5/USB_midi.c ****             *  since it takes two instructions to increment with a wrap, and we can't
1183:Generated_Source\PSoC5/USB_midi.c ****             *  risk doing that with the real pointer and getting an interrupt in between
1184:Generated_Source\PSoC5/USB_midi.c ****             *  instructions.
1185:Generated_Source\PSoC5/USB_midi.c ****             */
1186:Generated_Source\PSoC5/USB_midi.c **** 
1187:Generated_Source\PSoC5/USB_midi.c ****             #if ((MIDI2_UART_RXBUFFERSIZE >= 256u) && (CY_PSOC3))
1188:Generated_Source\PSoC5/USB_midi.c ****                 while ( ((rxBufferRead != rxBufferWrite) || (rxBufferLoopDetect != 0u)) && (msgRtn 
1189:Generated_Source\PSoC5/USB_midi.c ****             #else
1190:Generated_Source\PSoC5/USB_midi.c ****                 while ( ((rxBufferRead != MIDI2_UART_rxBufferWrite) || (rxBufferLoopDetect != 0u)) 
 1551              		.loc 1 1190 0
 1552 001e 3278     		ldrb	r2, [r6]	@ zero_extendqisi2
1174:Generated_Source\PSoC5/USB_midi.c ****             #if ((MIDI2_UART_RXBUFFERSIZE >= 256u) && (CY_PSOC3))
 1553              		.loc 1 1174 0
 1554 0020 E4B2     		uxtb	r4, r4
 1555              	.LVL147:
1153:Generated_Source\PSoC5/USB_midi.c ****         uint8 rxData;
 1556              		.loc 1 1153 0
 1557 0022 0020     		movs	r0, #0
 1558              	.LVL148:
 1559              		.loc 1 1190 0
 1560 0024 9442     		cmp	r4, r2
1191:Generated_Source\PSoC5/USB_midi.c ****             #endif /* ((MIDI2_UART_RXBUFFERSIZE >= 256u) && (CY_PSOC3)) */
1192:Generated_Source\PSoC5/USB_midi.c ****                 {
1193:Generated_Source\PSoC5/USB_midi.c ****                     rxData = MIDI2_UART_rxBuffer[rxBufferRead];
1194:Generated_Source\PSoC5/USB_midi.c ****                     rxBufferRead++;
1195:Generated_Source\PSoC5/USB_midi.c ****                     if(rxBufferRead >= MIDI2_UART_RXBUFFERSIZE)
1196:Generated_Source\PSoC5/USB_midi.c ****                     {
1197:Generated_Source\PSoC5/USB_midi.c ****                         rxBufferRead = 0u;
1198:Generated_Source\PSoC5/USB_midi.c ****                     }
1199:Generated_Source\PSoC5/USB_midi.c ****                     /* If loop condition was set - update real read buffer pointer
1200:Generated_Source\PSoC5/USB_midi.c ****                     *  to avoid overflow status
1201:Generated_Source\PSoC5/USB_midi.c ****                     */
1202:Generated_Source\PSoC5/USB_midi.c ****                     if(rxBufferLoopDetect != 0u )
1203:Generated_Source\PSoC5/USB_midi.c ****                     {
1204:Generated_Source\PSoC5/USB_midi.c ****                         MIDI2_UART_rxBufferLoopDetect = 0u;
 1561              		.loc 1 1204 0
 1562 0026 8146     		mov	r9, r0
1193:Generated_Source\PSoC5/USB_midi.c ****                     rxBufferRead++;
 1563              		.loc 1 1193 0
 1564 0028 154F     		ldr	r7, .L200+8
ARM GAS  C:\Users\jwvance\AppData\Local\Temp\ccxTgFRe.s 			page 55


1194:Generated_Source\PSoC5/USB_midi.c ****                     if(rxBufferRead >= MIDI2_UART_RXBUFFERSIZE)
 1565              		.loc 1 1194 0
 1566 002a 04F1010E 		add	lr, r4, #1
1205:Generated_Source\PSoC5/USB_midi.c ****                         #if ((MIDI2_UART_RXBUFFERSIZE >= 256u) && (CY_PSOC3))
1206:Generated_Source\PSoC5/USB_midi.c ****                             CyIntDisable(MIDI2_UART_RX_VECT_NUM);
1207:Generated_Source\PSoC5/USB_midi.c ****                         #endif /* ((MIDI2_UART_RXBUFFERSIZE >= 256u) && (CY_PSOC3)) */
1208:Generated_Source\PSoC5/USB_midi.c ****                         MIDI2_UART_rxBufferRead = rxBufferRead;
1209:Generated_Source\PSoC5/USB_midi.c ****                         #if ((MIDI2_UART_RXBUFFERSIZE >= 256u) && (CY_PSOC3))
1210:Generated_Source\PSoC5/USB_midi.c ****                             CyIntEnable(MIDI2_UART_RX_VECT_NUM);
1211:Generated_Source\PSoC5/USB_midi.c ****                         #endif /* ((MIDI2_UART_RXBUFFERSIZE >= 256u) && (CY_PSOC3)) */
1212:Generated_Source\PSoC5/USB_midi.c ****                     }
1213:Generated_Source\PSoC5/USB_midi.c **** 
1214:Generated_Source\PSoC5/USB_midi.c ****                     msgRtn = USB_ProcessMidiIn(rxData,
 1567              		.loc 1 1214 0
 1568 002e 1549     		ldr	r1, .L200+12
1190:Generated_Source\PSoC5/USB_midi.c ****             #endif /* ((MIDI2_UART_RXBUFFERSIZE >= 256u) && (CY_PSOC3)) */
 1569              		.loc 1 1190 0
 1570 0030 16D0     		beq	.L199
 1571              	.L190:
1190:Generated_Source\PSoC5/USB_midi.c ****             #endif /* ((MIDI2_UART_RXBUFFERSIZE >= 256u) && (CY_PSOC3)) */
 1572              		.loc 1 1190 0 is_stmt 0 discriminator 3
 1573 0032 B8B9     		cbnz	r0, .L192
1193:Generated_Source\PSoC5/USB_midi.c ****                     rxBufferRead++;
 1574              		.loc 1 1193 0 is_stmt 1
 1575 0034 385D     		ldrb	r0, [r7, r4]	@ zero_extendqisi2
 1576              	.LVL149:
1194:Generated_Source\PSoC5/USB_midi.c ****                     if(rxBufferRead >= MIDI2_UART_RXBUFFERSIZE)
 1577              		.loc 1 1194 0
 1578 0036 5FFA8EF4 		uxtb	r4, lr
 1579              	.LVL150:
1197:Generated_Source\PSoC5/USB_midi.c ****                     }
 1580              		.loc 1 1197 0
 1581 003a FF2C     		cmp	r4, #255
 1582 003c 08BF     		it	eq
 1583 003e 0024     		moveq	r4, #0
1193:Generated_Source\PSoC5/USB_midi.c ****                     rxBufferRead++;
 1584              		.loc 1 1193 0
 1585 0040 C0B2     		uxtb	r0, r0
 1586              	.LVL151:
1202:Generated_Source\PSoC5/USB_midi.c ****                     {
 1587              		.loc 1 1202 0
 1588 0042 1BB1     		cbz	r3, .L189
1204:Generated_Source\PSoC5/USB_midi.c ****                         #if ((MIDI2_UART_RXBUFFERSIZE >= 256u) && (CY_PSOC3))
 1589              		.loc 1 1204 0
 1590 0044 85F80090 		strb	r9, [r5]
1208:Generated_Source\PSoC5/USB_midi.c ****                         #if ((MIDI2_UART_RXBUFFERSIZE >= 256u) && (CY_PSOC3))
 1591              		.loc 1 1208 0
 1592 0048 88F80040 		strb	r4, [r8]
 1593              	.L189:
 1594              		.loc 1 1214 0
 1595 004c FFF7FEFF 		bl	USB_ProcessMidiIn
 1596              	.LVL152:
1215:Generated_Source\PSoC5/USB_midi.c ****                                                     (USB_MIDI_RX_STATUS *)&USB_MIDI2_Event);
1216:Generated_Source\PSoC5/USB_midi.c **** 
1217:Generated_Source\PSoC5/USB_midi.c ****                     /* Read buffer loop condition to the local variable */
1218:Generated_Source\PSoC5/USB_midi.c ****                     rxBufferLoopDetect = MIDI2_UART_rxBufferLoopDetect;
 1597              		.loc 1 1218 0
ARM GAS  C:\Users\jwvance\AppData\Local\Temp\ccxTgFRe.s 			page 56


 1598 0050 2B78     		ldrb	r3, [r5]	@ zero_extendqisi2
1190:Generated_Source\PSoC5/USB_midi.c ****             #endif /* ((MIDI2_UART_RXBUFFERSIZE >= 256u) && (CY_PSOC3)) */
 1599              		.loc 1 1190 0
 1600 0052 3278     		ldrb	r2, [r6]	@ zero_extendqisi2
 1601              		.loc 1 1218 0
 1602 0054 DBB2     		uxtb	r3, r3
 1603              	.LVL153:
1190:Generated_Source\PSoC5/USB_midi.c ****             #endif /* ((MIDI2_UART_RXBUFFERSIZE >= 256u) && (CY_PSOC3)) */
 1604              		.loc 1 1190 0
 1605 0056 9442     		cmp	r4, r2
1194:Generated_Source\PSoC5/USB_midi.c ****                     if(rxBufferRead >= MIDI2_UART_RXBUFFERSIZE)
 1606              		.loc 1 1194 0
 1607 0058 04F1010E 		add	lr, r4, #1
1214:Generated_Source\PSoC5/USB_midi.c ****                                                     (USB_MIDI_RX_STATUS *)&USB_MIDI2_Event);
 1608              		.loc 1 1214 0
 1609 005c 0949     		ldr	r1, .L200+12
1190:Generated_Source\PSoC5/USB_midi.c ****             #endif /* ((MIDI2_UART_RXBUFFERSIZE >= 256u) && (CY_PSOC3)) */
 1610              		.loc 1 1190 0
 1611 005e E8D1     		bne	.L190
 1612              	.L199:
1190:Generated_Source\PSoC5/USB_midi.c ****             #endif /* ((MIDI2_UART_RXBUFFERSIZE >= 256u) && (CY_PSOC3)) */
 1613              		.loc 1 1190 0 is_stmt 0 discriminator 2
 1614 0060 002B     		cmp	r3, #0
 1615 0062 E6D1     		bne	.L190
 1616              	.L192:
1219:Generated_Source\PSoC5/USB_midi.c ****                 }
1220:Generated_Source\PSoC5/USB_midi.c **** 
1221:Generated_Source\PSoC5/USB_midi.c ****             /* Finally, update the real output pointer, then return with
1222:Generated_Source\PSoC5/USB_midi.c ****             *  an indication as to whether there's a complete message in the buffer.
1223:Generated_Source\PSoC5/USB_midi.c ****             */
1224:Generated_Source\PSoC5/USB_midi.c ****             #if ((MIDI2_UART_RXBUFFERSIZE >= 256u) && (CY_PSOC3))
1225:Generated_Source\PSoC5/USB_midi.c ****                 CyIntDisable(MIDI2_UART_RX_VECT_NUM);
1226:Generated_Source\PSoC5/USB_midi.c ****             #endif /* ((MIDI2_UART_RXBUFFERSIZE >= 256u) && (CY_PSOC3)) */
1227:Generated_Source\PSoC5/USB_midi.c ****             MIDI2_UART_rxBufferRead = rxBufferRead;
 1617              		.loc 1 1227 0 is_stmt 1
 1618 0064 88F80040 		strb	r4, [r8]
 1619 0068 BDE8F883 		pop	{r3, r4, r5, r6, r7, r8, r9, pc}
 1620              	.LVL154:
 1621              	.L198:
1168:Generated_Source\PSoC5/USB_midi.c ****         {
 1622              		.loc 1 1168 0 discriminator 1
 1623 006c 002B     		cmp	r3, #0
 1624 006e D4D1     		bne	.L185
1153:Generated_Source\PSoC5/USB_midi.c ****         uint8 rxData;
 1625              		.loc 1 1153 0
 1626 0070 1846     		mov	r0, r3
 1627              	.LVL155:
1228:Generated_Source\PSoC5/USB_midi.c ****             #if ((MIDI2_UART_RXBUFFERSIZE >= 256u) && (CY_PSOC3))
1229:Generated_Source\PSoC5/USB_midi.c ****                 CyIntEnable(MIDI2_UART_RX_VECT_NUM);
1230:Generated_Source\PSoC5/USB_midi.c ****             #endif /* ((MIDI2_UART_RXBUFFERSIZE >= 256u) && (CY_PSOC3)) */
1231:Generated_Source\PSoC5/USB_midi.c ****         }
1232:Generated_Source\PSoC5/USB_midi.c **** 
1233:Generated_Source\PSoC5/USB_midi.c ****         return (msgRtn);
1234:Generated_Source\PSoC5/USB_midi.c ****     }
 1628              		.loc 1 1234 0
 1629 0072 BDE8F883 		pop	{r3, r4, r5, r6, r7, r8, r9, pc}
 1630              	.LVL156:
ARM GAS  C:\Users\jwvance\AppData\Local\Temp\ccxTgFRe.s 			page 57


 1631              	.L201:
 1632 0076 00BF     		.align	2
 1633              	.L200:
 1634 0078 00000000 		.word	MIDI2_UART_rxBufferLoopDetect
 1635 007c 00000000 		.word	MIDI2_UART_rxBufferWrite
 1636 0080 00000000 		.word	MIDI2_UART_rxBuffer
 1637 0084 0C000000 		.word	.LANCHOR0+12
 1638 0088 00000000 		.word	MIDI2_UART_rxBufferRead
 1639              		.cfi_endproc
 1640              	.LFE10:
 1641              		.size	USB_MIDI2_GetEvent, .-USB_MIDI2_GetEvent
 1642              		.section	.text.USB_MIDI_IN_Service,"ax",%progbits
 1643              		.align	2
 1644              		.global	USB_MIDI_IN_Service
 1645              		.thumb
 1646              		.thumb_func
 1647              		.type	USB_MIDI_IN_Service, %function
 1648              	USB_MIDI_IN_Service:
 1649              	.LFB3:
 375:Generated_Source\PSoC5/USB_midi.c ****         /* Service the MIDI UART inputs until either both receivers have no more
 1650              		.loc 1 375 0
 1651              		.cfi_startproc
 1652              		@ args = 0, pretend = 0, frame = 0
 1653              		@ frame_needed = 0, uses_anonymous_args = 0
 1654              	.LVL157:
 1655 0000 F8B5     		push	{r3, r4, r5, r6, r7, lr}
 1656              		.cfi_def_cfa_offset 24
 1657              		.cfi_offset 3, -24
 1658              		.cfi_offset 4, -20
 1659              		.cfi_offset 5, -16
 1660              		.cfi_offset 6, -12
 1661              		.cfi_offset 7, -8
 1662              		.cfi_offset 14, -4
 381:Generated_Source\PSoC5/USB_midi.c ****             do
 1663              		.loc 1 381 0
 1664 0002 0026     		movs	r6, #0
 380:Generated_Source\PSoC5/USB_midi.c ****             uint8 m2 = 0u;
 1665              		.loc 1 380 0
 1666 0004 3546     		mov	r5, r6
 1667 0006 144C     		ldr	r4, .L217
 391:Generated_Source\PSoC5/USB_midi.c ****                                                     USB_MIDI1_Event.size, USB_MIDI_CABLE_00);
 1668              		.loc 1 391 0
 1669 0008 144F     		ldr	r7, .L217+4
 1670              	.LVL158:
 1671              	.L203:
 384:Generated_Source\PSoC5/USB_midi.c ****                     (USB_MIDI_IN_BUFF_SIZE - USB_EVENT_LENGTH))
 1672              		.loc 1 384 0
 1673 000a 2378     		ldrb	r3, [r4]	@ zero_extendqisi2
 1674 000c 1C2B     		cmp	r3, #28
 1675 000e 18D9     		bls	.L215
 1676              	.LVL159:
 1677              	.L204:
 397:Generated_Source\PSoC5/USB_midi.c ****                     (USB_MIDI_IN_BUFF_SIZE - USB_EVENT_LENGTH))
 1678              		.loc 1 397 0
 1679 0010 2378     		ldrb	r3, [r4]	@ zero_extendqisi2
 1680 0012 1C2B     		cmp	r3, #28
 1681 0014 0AD9     		bls	.L216
ARM GAS  C:\Users\jwvance\AppData\Local\Temp\ccxTgFRe.s 			page 58


 1682              	.LVL160:
 1683              	.L205:
 410:Generated_Source\PSoC5/USB_midi.c ****                     (USB_MIDI_IN_BUFF_SIZE - USB_EVENT_LENGTH)) &&
 1684              		.loc 1 410 0
 1685 0016 2378     		ldrb	r3, [r4]	@ zero_extendqisi2
 412:Generated_Source\PSoC5/USB_midi.c ****         #endif /* (USB_MIDI_EXT_MODE >= USB_ONE_EXT_INTRF) */
 1686              		.loc 1 412 0
 1687 0018 1C2B     		cmp	r3, #28
 1688 001a 03D8     		bhi	.L206
 411:Generated_Source\PSoC5/USB_midi.c ****                     ((m1 != 0u) || (m2 != 0u)) );
 1689              		.loc 1 411 0
 1690 001c 002D     		cmp	r5, #0
 1691 001e F4D1     		bne	.L203
 412:Generated_Source\PSoC5/USB_midi.c ****         #endif /* (USB_MIDI_EXT_MODE >= USB_ONE_EXT_INTRF) */
 1692              		.loc 1 412 0
 1693 0020 002E     		cmp	r6, #0
 1694 0022 F2D1     		bne	.L203
 1695              	.L206:
 417:Generated_Source\PSoC5/USB_midi.c **** 
 1696              		.loc 1 417 0
 1697 0024 BDE8F840 		pop	{r3, r4, r5, r6, r7, lr}
 1698              		.cfi_remember_state
 1699              		.cfi_restore 14
 1700              		.cfi_restore 7
 1701              		.cfi_restore 6
 1702              		.cfi_restore 5
 1703              		.cfi_restore 4
 1704              		.cfi_restore 3
 1705              		.cfi_def_cfa_offset 0
 1706              	.LVL161:
 416:Generated_Source\PSoC5/USB_midi.c ****     }
 1707              		.loc 1 416 0
 1708 0028 FFF7FEBF 		b	USB_MIDI_IN_EP_Service
 1709              	.LVL162:
 1710              	.L216:
 1711              		.cfi_restore_state
 401:Generated_Source\PSoC5/USB_midi.c ****                     if (m2 != 0u)
 1712              		.loc 1 401 0
 1713 002c FFF7FEFF 		bl	USB_MIDI2_GetEvent
 1714              	.LVL163:
 402:Generated_Source\PSoC5/USB_midi.c ****                     {
 1715              		.loc 1 402 0
 1716 0030 0646     		mov	r6, r0
 1717 0032 0028     		cmp	r0, #0
 1718 0034 EFD0     		beq	.L205
 404:Generated_Source\PSoC5/USB_midi.c ****                                                     USB_MIDI2_Event.size, USB_MIDI_CABLE_01);
 1719              		.loc 1 404 0
 1720 0036 0A49     		ldr	r1, .L217+8
 1721 0038 BA7B     		ldrb	r2, [r7, #14]	@ zero_extendqisi2
 1722 003a 1023     		movs	r3, #16
 1723 003c FFF7FEFF 		bl	USB_PrepareInBuffer
 1724              	.LVL164:
 1725 0040 E9E7     		b	.L205
 1726              	.LVL165:
 1727              	.L215:
 388:Generated_Source\PSoC5/USB_midi.c ****                     if (m1 != 0u)
 1728              		.loc 1 388 0
ARM GAS  C:\Users\jwvance\AppData\Local\Temp\ccxTgFRe.s 			page 59


 1729 0042 FFF7FEFF 		bl	USB_MIDI1_GetEvent
 1730              	.LVL166:
 389:Generated_Source\PSoC5/USB_midi.c ****                     {
 1731              		.loc 1 389 0
 1732 0046 0546     		mov	r5, r0
 1733 0048 0028     		cmp	r0, #0
 1734 004a E1D0     		beq	.L204
 391:Generated_Source\PSoC5/USB_midi.c ****                                                     USB_MIDI1_Event.size, USB_MIDI_CABLE_00);
 1735              		.loc 1 391 0
 1736 004c 0549     		ldr	r1, .L217+12
 1737 004e BA78     		ldrb	r2, [r7, #2]	@ zero_extendqisi2
 1738 0050 0023     		movs	r3, #0
 1739 0052 FFF7FEFF 		bl	USB_PrepareInBuffer
 1740              	.LVL167:
 1741 0056 DBE7     		b	.L204
 1742              	.L218:
 1743              		.align	2
 1744              	.L217:
 1745 0058 00000000 		.word	USB_midiInPointer
 1746 005c 00000000 		.word	.LANCHOR0
 1747 0060 10000000 		.word	.LANCHOR0+16
 1748 0064 04000000 		.word	.LANCHOR0+4
 1749              		.cfi_endproc
 1750              	.LFE3:
 1751              		.size	USB_MIDI_IN_Service, .-USB_MIDI_IN_Service
 1752              		.section	.text.USB_MIDI2_ProcessUsbOut,"ax",%progbits
 1753              		.align	2
 1754              		.global	USB_MIDI2_ProcessUsbOut
 1755              		.thumb
 1756              		.thumb_func
 1757              		.type	USB_MIDI2_ProcessUsbOut, %function
 1758              	USB_MIDI2_ProcessUsbOut:
 1759              	.LFB11:
1235:Generated_Source\PSoC5/USB_midi.c **** 
1236:Generated_Source\PSoC5/USB_midi.c **** 
1237:Generated_Source\PSoC5/USB_midi.c ****     /*******************************************************************************
1238:Generated_Source\PSoC5/USB_midi.c ****     * Function Name: USB_MIDI2_ProcessUsbOut
1239:Generated_Source\PSoC5/USB_midi.c ****     ********************************************************************************
1240:Generated_Source\PSoC5/USB_midi.c ****     *
1241:Generated_Source\PSoC5/USB_midi.c ****     * Summary:
1242:Generated_Source\PSoC5/USB_midi.c ****     *  Process a USB MIDI output event.
1243:Generated_Source\PSoC5/USB_midi.c ****     *  Puts data into the MIDI TX output buffer.
1244:Generated_Source\PSoC5/USB_midi.c ****     *
1245:Generated_Source\PSoC5/USB_midi.c ****     * Parameters:
1246:Generated_Source\PSoC5/USB_midi.c ****     *  *epBuf: pointer on MIDI event.
1247:Generated_Source\PSoC5/USB_midi.c ****     *
1248:Generated_Source\PSoC5/USB_midi.c ****     * Return:
1249:Generated_Source\PSoC5/USB_midi.c ****     *   None
1250:Generated_Source\PSoC5/USB_midi.c ****     *
1251:Generated_Source\PSoC5/USB_midi.c ****     * Global variables:
1252:Generated_Source\PSoC5/USB_midi.c ****     *  USB_MIDI2_TxRunStat: This variable used to save the MIDI
1253:Generated_Source\PSoC5/USB_midi.c ****     *    status byte and skip to send the repeated status byte in subsequent event.
1254:Generated_Source\PSoC5/USB_midi.c ****     *  USB_MIDI2_InqFlags: The following flags are set when SysEx
1255:Generated_Source\PSoC5/USB_midi.c ****     *    message comes.
1256:Generated_Source\PSoC5/USB_midi.c ****     *  USB_INQ_SYSEX_FLAG: Non-Real Time SySEx message received.
1257:Generated_Source\PSoC5/USB_midi.c ****     *  USB_INQ_IDENTITY_REQ_FLAG: Identity Request received.
1258:Generated_Source\PSoC5/USB_midi.c ****     *    This bit should be cleared by user when Identity Reply message generated.
ARM GAS  C:\Users\jwvance\AppData\Local\Temp\ccxTgFRe.s 			page 60


1259:Generated_Source\PSoC5/USB_midi.c ****     *
1260:Generated_Source\PSoC5/USB_midi.c ****     *******************************************************************************/
1261:Generated_Source\PSoC5/USB_midi.c ****     void USB_MIDI2_ProcessUsbOut(const uint8 epBuf[])
1262:Generated_Source\PSoC5/USB_midi.c ****                                                             
1263:Generated_Source\PSoC5/USB_midi.c ****     {
 1760              		.loc 1 1263 0
 1761              		.cfi_startproc
 1762              		@ args = 0, pretend = 0, frame = 0
 1763              		@ frame_needed = 0, uses_anonymous_args = 0
 1764              	.LVL168:
1264:Generated_Source\PSoC5/USB_midi.c ****         uint8 cmd;
1265:Generated_Source\PSoC5/USB_midi.c ****         uint8 len;
1266:Generated_Source\PSoC5/USB_midi.c ****         uint8 i;
1267:Generated_Source\PSoC5/USB_midi.c **** 
1268:Generated_Source\PSoC5/USB_midi.c ****         /* User code is required at the beginning of the procedure */
1269:Generated_Source\PSoC5/USB_midi.c ****         /* `#START MIDI2_PROCESS_OUT_START` */
1270:Generated_Source\PSoC5/USB_midi.c ****         //LED_OutB_Write(1);
1271:Generated_Source\PSoC5/USB_midi.c ****         /* `#END` */
1272:Generated_Source\PSoC5/USB_midi.c **** 
1273:Generated_Source\PSoC5/USB_midi.c ****         cmd = epBuf[USB_EVENT_BYTE0] & USB_CIN_MASK;
 1765              		.loc 1 1273 0
 1766 0000 0378     		ldrb	r3, [r0]	@ zero_extendqisi2
 1767 0002 03F00F03 		and	r3, r3, #15
 1768              	.LVL169:
1274:Generated_Source\PSoC5/USB_midi.c ****         if((cmd != USB_RESERVED0) && (cmd != USB_RESERVED1))
 1769              		.loc 1 1274 0
 1770 0006 012B     		cmp	r3, #1
 1771 0008 31D9     		bls	.L238
1275:Generated_Source\PSoC5/USB_midi.c ****         {
1276:Generated_Source\PSoC5/USB_midi.c ****             len = USB_MIDI_SIZE[cmd];
 1772              		.loc 1 1276 0
 1773 000a 244A     		ldr	r2, .L245
1277:Generated_Source\PSoC5/USB_midi.c ****             i = USB_EVENT_BYTE1;
1278:Generated_Source\PSoC5/USB_midi.c ****             /* Universal System Exclusive message parsing */
1279:Generated_Source\PSoC5/USB_midi.c ****             if(cmd == USB_SYSEX)
 1774              		.loc 1 1279 0
 1775 000c 042B     		cmp	r3, #4
1263:Generated_Source\PSoC5/USB_midi.c ****         uint8 cmd;
 1776              		.loc 1 1263 0
 1777 000e 70B5     		push	{r4, r5, r6, lr}
 1778              		.cfi_def_cfa_offset 16
 1779              		.cfi_offset 4, -16
 1780              		.cfi_offset 5, -12
 1781              		.cfi_offset 6, -8
 1782              		.cfi_offset 14, -4
 1783 0010 0546     		mov	r5, r0
1276:Generated_Source\PSoC5/USB_midi.c ****             i = USB_EVENT_BYTE1;
 1784              		.loc 1 1276 0
 1785 0012 D65C     		ldrb	r6, [r2, r3]	@ zero_extendqisi2
 1786              	.LVL170:
 1787              		.loc 1 1279 0
 1788 0014 1FD0     		beq	.L242
1280:Generated_Source\PSoC5/USB_midi.c ****             {
1281:Generated_Source\PSoC5/USB_midi.c ****                 if((epBuf[USB_EVENT_BYTE1] == USB_MIDI_SYSEX) &&
1282:Generated_Source\PSoC5/USB_midi.c ****                    (epBuf[USB_EVENT_BYTE2] == USB_MIDI_SYSEX_NON_REAL_TIME))
1283:Generated_Source\PSoC5/USB_midi.c ****                 {   /* SySEx starts */
1284:Generated_Source\PSoC5/USB_midi.c ****                     USB_MIDI2_InqFlags |= USB_INQ_SYSEX_FLAG;
ARM GAS  C:\Users\jwvance\AppData\Local\Temp\ccxTgFRe.s 			page 61


1285:Generated_Source\PSoC5/USB_midi.c ****                 }
1286:Generated_Source\PSoC5/USB_midi.c ****                 else
1287:Generated_Source\PSoC5/USB_midi.c ****                 {
1288:Generated_Source\PSoC5/USB_midi.c ****                     USB_MIDI2_InqFlags &= (uint8)~USB_INQ_SYSEX_FLAG;
1289:Generated_Source\PSoC5/USB_midi.c ****                 }
1290:Generated_Source\PSoC5/USB_midi.c ****             }
1291:Generated_Source\PSoC5/USB_midi.c ****             else if(cmd == USB_SYSEX_ENDS_WITH1)
 1789              		.loc 1 1291 0
 1790 0016 052B     		cmp	r3, #5
 1791 0018 15D0     		beq	.L240
1292:Generated_Source\PSoC5/USB_midi.c ****             {
1293:Generated_Source\PSoC5/USB_midi.c ****                 USB_MIDI2_InqFlags &= (uint8)~USB_INQ_SYSEX_FLAG;
1294:Generated_Source\PSoC5/USB_midi.c ****             }
1295:Generated_Source\PSoC5/USB_midi.c ****             else if(cmd == USB_SYSEX_ENDS_WITH2)
 1792              		.loc 1 1295 0
 1793 001a 062B     		cmp	r3, #6
 1794 001c 13D0     		beq	.L240
1296:Generated_Source\PSoC5/USB_midi.c ****             {
1297:Generated_Source\PSoC5/USB_midi.c ****                 USB_MIDI2_InqFlags &= (uint8)~USB_INQ_SYSEX_FLAG;
1298:Generated_Source\PSoC5/USB_midi.c ****             }
1299:Generated_Source\PSoC5/USB_midi.c ****             else if(cmd == USB_SYSEX_ENDS_WITH3)
 1795              		.loc 1 1299 0
 1796 001e 072B     		cmp	r3, #7
 1797 0020 28D0     		beq	.L243
1300:Generated_Source\PSoC5/USB_midi.c ****             {
1301:Generated_Source\PSoC5/USB_midi.c ****                 /* Identify Request support */
1302:Generated_Source\PSoC5/USB_midi.c ****                 if((USB_MIDI2_InqFlags & USB_INQ_SYSEX_FLAG) != 0u)
1303:Generated_Source\PSoC5/USB_midi.c ****                 {
1304:Generated_Source\PSoC5/USB_midi.c ****                     USB_MIDI2_InqFlags &= (uint8)~USB_INQ_SYSEX_FLAG;
1305:Generated_Source\PSoC5/USB_midi.c ****                     if((epBuf[USB_EVENT_BYTE1] == USB_MIDI_SYSEX_GEN_INFORMATION) &&
1306:Generated_Source\PSoC5/USB_midi.c ****                        (epBuf[USB_EVENT_BYTE2] == USB_MIDI_SYSEX_IDENTITY_REQ))
1307:Generated_Source\PSoC5/USB_midi.c ****                     {   /* Set the flag about received the Identity Request.
1308:Generated_Source\PSoC5/USB_midi.c ****                         *  The Identity Reply message may be send by user code.
1309:Generated_Source\PSoC5/USB_midi.c ****                         */
1310:Generated_Source\PSoC5/USB_midi.c ****                         USB_MIDI2_InqFlags |= USB_INQ_IDENTITY_REQ_FLAG;
1311:Generated_Source\PSoC5/USB_midi.c ****                     }
1312:Generated_Source\PSoC5/USB_midi.c ****                 }
1313:Generated_Source\PSoC5/USB_midi.c ****             }
1314:Generated_Source\PSoC5/USB_midi.c ****             else /* Do nothing for other command */
1315:Generated_Source\PSoC5/USB_midi.c ****             {
1316:Generated_Source\PSoC5/USB_midi.c ****             }
1317:Generated_Source\PSoC5/USB_midi.c ****             /* Running Status for Voice and Mode messages only. */
1318:Generated_Source\PSoC5/USB_midi.c ****             if((cmd >= USB_NOTE_OFF) && ( cmd <= USB_PITCH_BEND_CHANGE))
 1798              		.loc 1 1318 0
 1799 0022 083B     		subs	r3, r3, #8
 1800              	.LVL171:
 1801 0024 062B     		cmp	r3, #6
 1802 0026 13D8     		bhi	.L228
1319:Generated_Source\PSoC5/USB_midi.c ****             {
1320:Generated_Source\PSoC5/USB_midi.c ****                 if(USB_MIDI2_TxRunStat == epBuf[USB_EVENT_BYTE1])
 1803              		.loc 1 1320 0
 1804 0028 1D4B     		ldr	r3, .L245+4
 1805              	.LVL172:
 1806 002a 4278     		ldrb	r2, [r0, #1]	@ zero_extendqisi2
 1807 002c 197D     		ldrb	r1, [r3, #20]	@ zero_extendqisi2
 1808 002e 8A42     		cmp	r2, r1
 1809 0030 1ED0     		beq	.L244
ARM GAS  C:\Users\jwvance\AppData\Local\Temp\ccxTgFRe.s 			page 62


 1810              	.LVL173:
 1811              	.L241:
1321:Generated_Source\PSoC5/USB_midi.c ****                 {   /* Skip the repeated Status byte */
1322:Generated_Source\PSoC5/USB_midi.c ****                     i++;
1323:Generated_Source\PSoC5/USB_midi.c ****                 }
1324:Generated_Source\PSoC5/USB_midi.c ****                 else
1325:Generated_Source\PSoC5/USB_midi.c ****                 {   /* Save Status byte for next event */
1326:Generated_Source\PSoC5/USB_midi.c ****                     USB_MIDI2_TxRunStat = epBuf[USB_EVENT_BYTE1];
1327:Generated_Source\PSoC5/USB_midi.c ****                 }
1328:Generated_Source\PSoC5/USB_midi.c ****             }
1329:Generated_Source\PSoC5/USB_midi.c ****             else
1330:Generated_Source\PSoC5/USB_midi.c ****             {   /* Clear Running Status */
1331:Generated_Source\PSoC5/USB_midi.c ****                 USB_MIDI2_TxRunStat = 0u;
 1812              		.loc 1 1331 0
 1813 0032 1A75     		strb	r2, [r3, #20]
1277:Generated_Source\PSoC5/USB_midi.c ****             /* Universal System Exclusive message parsing */
 1814              		.loc 1 1277 0
 1815 0034 0124     		movs	r4, #1
 1816              	.LVL174:
 1817              	.L230:
1332:Generated_Source\PSoC5/USB_midi.c ****             }
1333:Generated_Source\PSoC5/USB_midi.c ****             /* Puts data into the MIDI TX output buffer.*/
1334:Generated_Source\PSoC5/USB_midi.c ****             do
1335:Generated_Source\PSoC5/USB_midi.c ****             {
1336:Generated_Source\PSoC5/USB_midi.c ****                 MIDI2_UART_PutChar(epBuf[i]);
 1818              		.loc 1 1336 0 discriminator 1
 1819 0036 285D     		ldrb	r0, [r5, r4]	@ zero_extendqisi2
1337:Generated_Source\PSoC5/USB_midi.c ****                 i++;
 1820              		.loc 1 1337 0 discriminator 1
 1821 0038 0134     		adds	r4, r4, #1
 1822              	.LVL175:
 1823 003a E4B2     		uxtb	r4, r4
1336:Generated_Source\PSoC5/USB_midi.c ****                 i++;
 1824              		.loc 1 1336 0 discriminator 1
 1825 003c FFF7FEFF 		bl	MIDI2_UART_PutChar
 1826              	.LVL176:
1338:Generated_Source\PSoC5/USB_midi.c ****             } while (i <= len);
 1827              		.loc 1 1338 0 discriminator 1
 1828 0040 A642     		cmp	r6, r4
 1829 0042 F8D2     		bcs	.L230
 1830 0044 70BD     		pop	{r4, r5, r6, pc}
 1831              	.LVL177:
 1832              	.L240:
1297:Generated_Source\PSoC5/USB_midi.c ****             }
 1833              		.loc 1 1297 0
 1834 0046 174A     		ldr	r2, .L245+8
 1835              	.LVL178:
 1836              	.L239:
 1837 0048 1378     		ldrb	r3, [r2]	@ zero_extendqisi2
 1838 004a 03F0FE03 		and	r3, r3, #254
 1839 004e 1370     		strb	r3, [r2]
 1840              	.LVL179:
 1841              	.L228:
1331:Generated_Source\PSoC5/USB_midi.c ****             }
 1842              		.loc 1 1331 0
 1843 0050 134B     		ldr	r3, .L245+4
 1844 0052 0022     		movs	r2, #0
ARM GAS  C:\Users\jwvance\AppData\Local\Temp\ccxTgFRe.s 			page 63


 1845 0054 EDE7     		b	.L241
 1846              	.LVL180:
 1847              	.L242:
1281:Generated_Source\PSoC5/USB_midi.c ****                    (epBuf[USB_EVENT_BYTE2] == USB_MIDI_SYSEX_NON_REAL_TIME))
 1848              		.loc 1 1281 0
 1849 0056 4378     		ldrb	r3, [r0, #1]	@ zero_extendqisi2
 1850              	.LVL181:
1284:Generated_Source\PSoC5/USB_midi.c ****                 }
 1851              		.loc 1 1284 0
 1852 0058 124A     		ldr	r2, .L245+8
1281:Generated_Source\PSoC5/USB_midi.c ****                    (epBuf[USB_EVENT_BYTE2] == USB_MIDI_SYSEX_NON_REAL_TIME))
 1853              		.loc 1 1281 0
 1854 005a F02B     		cmp	r3, #240
 1855 005c F4D1     		bne	.L239
1281:Generated_Source\PSoC5/USB_midi.c ****                    (epBuf[USB_EVENT_BYTE2] == USB_MIDI_SYSEX_NON_REAL_TIME))
 1856              		.loc 1 1281 0 is_stmt 0 discriminator 1
 1857 005e 8378     		ldrb	r3, [r0, #2]	@ zero_extendqisi2
 1858 0060 7E2B     		cmp	r3, #126
 1859 0062 F1D1     		bne	.L239
1284:Generated_Source\PSoC5/USB_midi.c ****                 }
 1860              		.loc 1 1284 0 is_stmt 1
 1861 0064 1378     		ldrb	r3, [r2]	@ zero_extendqisi2
 1862 0066 43F00103 		orr	r3, r3, #1
 1863 006a 1370     		strb	r3, [r2]
 1864              	.LVL182:
 1865 006c F0E7     		b	.L228
 1866              	.LVL183:
 1867              	.L238:
 1868              		.cfi_def_cfa_offset 0
 1869              		.cfi_restore 4
 1870              		.cfi_restore 5
 1871              		.cfi_restore 6
 1872              		.cfi_restore 14
 1873 006e 7047     		bx	lr
 1874              	.LVL184:
 1875              	.L244:
 1876              		.cfi_def_cfa_offset 16
 1877              		.cfi_offset 4, -16
 1878              		.cfi_offset 5, -12
 1879              		.cfi_offset 6, -8
 1880              		.cfi_offset 14, -4
1322:Generated_Source\PSoC5/USB_midi.c ****                 }
 1881              		.loc 1 1322 0
 1882 0070 0224     		movs	r4, #2
 1883 0072 E0E7     		b	.L230
 1884              	.LVL185:
 1885              	.L243:
1302:Generated_Source\PSoC5/USB_midi.c ****                 {
 1886              		.loc 1 1302 0
 1887 0074 0B4B     		ldr	r3, .L245+8
 1888              	.LVL186:
 1889 0076 1A78     		ldrb	r2, [r3]	@ zero_extendqisi2
 1890 0078 D207     		lsls	r2, r2, #31
 1891 007a E9D5     		bpl	.L228
1304:Generated_Source\PSoC5/USB_midi.c ****                     if((epBuf[USB_EVENT_BYTE1] == USB_MIDI_SYSEX_GEN_INFORMATION) &&
 1892              		.loc 1 1304 0
 1893 007c 1A78     		ldrb	r2, [r3]	@ zero_extendqisi2
ARM GAS  C:\Users\jwvance\AppData\Local\Temp\ccxTgFRe.s 			page 64


1305:Generated_Source\PSoC5/USB_midi.c ****                        (epBuf[USB_EVENT_BYTE2] == USB_MIDI_SYSEX_IDENTITY_REQ))
 1894              		.loc 1 1305 0
 1895 007e 4178     		ldrb	r1, [r0, #1]	@ zero_extendqisi2
1304:Generated_Source\PSoC5/USB_midi.c ****                     if((epBuf[USB_EVENT_BYTE1] == USB_MIDI_SYSEX_GEN_INFORMATION) &&
 1896              		.loc 1 1304 0
 1897 0080 02F0FE02 		and	r2, r2, #254
1305:Generated_Source\PSoC5/USB_midi.c ****                        (epBuf[USB_EVENT_BYTE2] == USB_MIDI_SYSEX_IDENTITY_REQ))
 1898              		.loc 1 1305 0
 1899 0084 0629     		cmp	r1, #6
1304:Generated_Source\PSoC5/USB_midi.c ****                     if((epBuf[USB_EVENT_BYTE1] == USB_MIDI_SYSEX_GEN_INFORMATION) &&
 1900              		.loc 1 1304 0
 1901 0086 1A70     		strb	r2, [r3]
 1902              	.LVL187:
1305:Generated_Source\PSoC5/USB_midi.c ****                        (epBuf[USB_EVENT_BYTE2] == USB_MIDI_SYSEX_IDENTITY_REQ))
 1903              		.loc 1 1305 0
 1904 0088 E2D1     		bne	.L228
1305:Generated_Source\PSoC5/USB_midi.c ****                        (epBuf[USB_EVENT_BYTE2] == USB_MIDI_SYSEX_IDENTITY_REQ))
 1905              		.loc 1 1305 0 is_stmt 0 discriminator 1
 1906 008a 8278     		ldrb	r2, [r0, #2]	@ zero_extendqisi2
 1907 008c 012A     		cmp	r2, #1
 1908 008e DFD1     		bne	.L228
1310:Generated_Source\PSoC5/USB_midi.c ****                     }
 1909              		.loc 1 1310 0 is_stmt 1
 1910 0090 1A78     		ldrb	r2, [r3]	@ zero_extendqisi2
 1911 0092 42F00202 		orr	r2, r2, #2
 1912 0096 1A70     		strb	r2, [r3]
 1913 0098 DAE7     		b	.L228
 1914              	.L246:
 1915 009a 00BF     		.align	2
 1916              	.L245:
 1917 009c 00000000 		.word	.LANCHOR1
 1918 00a0 00000000 		.word	.LANCHOR0
 1919 00a4 00000000 		.word	USB_MIDI2_InqFlags
 1920              		.cfi_endproc
 1921              	.LFE11:
 1922              		.size	USB_MIDI2_ProcessUsbOut, .-USB_MIDI2_ProcessUsbOut
 1923              		.section	.text.USB_MIDI_OUT_EP_Service,"ax",%progbits
 1924              		.align	2
 1925              		.global	USB_MIDI_OUT_EP_Service
 1926              		.thumb
 1927              		.thumb_func
 1928              		.type	USB_MIDI_OUT_EP_Service, %function
 1929              	USB_MIDI_OUT_EP_Service:
 1930              	.LFB1:
 200:Generated_Source\PSoC5/USB_midi.c ****         #if USB_MIDI_OUT_BUFF_SIZE >= 256
 1931              		.loc 1 200 0
 1932              		.cfi_startproc
 1933              		@ args = 0, pretend = 0, frame = 0
 1934              		@ frame_needed = 0, uses_anonymous_args = 0
 1935              	.LVL188:
 1936 0000 F8B5     		push	{r3, r4, r5, r6, r7, lr}
 1937              		.cfi_def_cfa_offset 24
 1938              		.cfi_offset 3, -24
 1939              		.cfi_offset 4, -20
 1940              		.cfi_offset 5, -16
 1941              		.cfi_offset 6, -12
 1942              		.cfi_offset 7, -8
ARM GAS  C:\Users\jwvance\AppData\Local\Temp\ccxTgFRe.s 			page 65


 1943              		.cfi_offset 14, -4
 212:Generated_Source\PSoC5/USB_midi.c ****         {
 1944              		.loc 1 212 0
 1945 0002 1A4C     		ldr	r4, .L260
 1946 0004 2078     		ldrb	r0, [r4]	@ zero_extendqisi2
 1947 0006 FFF7FEFF 		bl	USB_GetEPState
 1948              	.LVL189:
 1949 000a 0128     		cmp	r0, #1
 1950 000c 00D0     		beq	.L258
 1951              	.L247:
 1952 000e F8BD     		pop	{r3, r4, r5, r6, r7, pc}
 1953              	.L258:
 217:Generated_Source\PSoC5/USB_midi.c ****             #endif /* (USB_MIDI_OUT_BUFF_SIZE >= 256) */
 1954              		.loc 1 217 0
 1955 0010 2078     		ldrb	r0, [r4]	@ zero_extendqisi2
 1956 0012 FFF7FEFF 		bl	USB_GetEPCount
 1957              	.LVL190:
 225:Generated_Source\PSoC5/USB_midi.c ****                                                                     USB_midiOutBuffer, (uint16)outL
 1958              		.loc 1 225 0
 1959 0016 2378     		ldrb	r3, [r4]	@ zero_extendqisi2
 1960 0018 C2B2     		uxtb	r2, r0
 1961 001a 1549     		ldr	r1, .L260+4
 1962 001c 1846     		mov	r0, r3
 1963              	.LVL191:
 1964 001e FFF7FEFF 		bl	USB_ReadOutEP
 1965              	.LVL192:
 1966 0022 C6B2     		uxtb	r6, r0
 1967              	.LVL193:
 244:Generated_Source\PSoC5/USB_midi.c ****             {
 1968              		.loc 1 244 0
 1969 0024 032E     		cmp	r6, #3
 1970 0026 F2D9     		bls	.L247
 1971 0028 114D     		ldr	r5, .L260+4
 1972 002a 0024     		movs	r4, #0
 250:Generated_Source\PSoC5/USB_midi.c ****                     {
 1973              		.loc 1 250 0
 1974 002c 2F46     		mov	r7, r5
 1975 002e 09E0     		b	.L252
 1976              	.LVL194:
 1977              	.L250:
 261:Generated_Source\PSoC5/USB_midi.c ****                                  USB_MIDI_CABLE_01)
 1978              		.loc 1 261 0
 1979 0030 1028     		cmp	r0, #16
 1980 0032 14D0     		beq	.L259
 1981              	.L251:
 279:Generated_Source\PSoC5/USB_midi.c ****                     outPointer += USB_EVENT_LENGTH;
 1982              		.loc 1 279 0
 1983 0034 611C     		adds	r1, r4, #1
 280:Generated_Source\PSoC5/USB_midi.c ****                 }
 1984              		.loc 1 280 0
 1985 0036 0434     		adds	r4, r4, #4
 1986              	.LVL195:
 277:Generated_Source\PSoC5/USB_midi.c ****                         USB_midiOutBuffer[outPointer] & USB_CABLE_MASK,
 1987              		.loc 1 277 0
 1988 0038 2944     		add	r1, r1, r5
 280:Generated_Source\PSoC5/USB_midi.c ****                 }
 1989              		.loc 1 280 0
ARM GAS  C:\Users\jwvance\AppData\Local\Temp\ccxTgFRe.s 			page 66


 1990 003a E4B2     		uxtb	r4, r4
 277:Generated_Source\PSoC5/USB_midi.c ****                         USB_midiOutBuffer[outPointer] & USB_CABLE_MASK,
 1991              		.loc 1 277 0
 1992 003c FFF7FEFF 		bl	USB_callbackLocalMidiEvent
 1993              	.LVL196:
 247:Generated_Source\PSoC5/USB_midi.c ****                 {
 1994              		.loc 1 247 0
 1995 0040 A642     		cmp	r6, r4
 1996 0042 E4D9     		bls	.L247
 1997              	.LVL197:
 1998              	.L252:
 250:Generated_Source\PSoC5/USB_midi.c ****                     {
 1999              		.loc 1 250 0
 2000 0044 285D     		ldrb	r0, [r5, r4]	@ zero_extendqisi2
 2001 0046 0028     		cmp	r0, #0
 2002 0048 E1D0     		beq	.L247
 256:Generated_Source\PSoC5/USB_midi.c ****                             USB_MIDI_CABLE_00)
 2003              		.loc 1 256 0
 2004 004a 10F0F000 		ands	r0, r0, #240
 2005 004e EFD1     		bne	.L250
 259:Generated_Source\PSoC5/USB_midi.c ****                         }
 2006              		.loc 1 259 0
 2007 0050 3819     		adds	r0, r7, r4
 2008 0052 FFF7FEFF 		bl	USB_MIDI1_ProcessUsbOut
 2009              	.LVL198:
 2010 0056 385D     		ldrb	r0, [r7, r4]	@ zero_extendqisi2
 2011 0058 00F0F000 		and	r0, r0, #240
 2012 005c EAE7     		b	.L251
 2013              	.L259:
 265:Generated_Source\PSoC5/USB_midi.c ****                             #endif /*  USB_MIDI_EXT_MODE >= USB_TWO_EXT_INTRF */
 2014              		.loc 1 265 0
 2015 005e 3819     		adds	r0, r7, r4
 2016 0060 FFF7FEFF 		bl	USB_MIDI2_ProcessUsbOut
 2017              	.LVL199:
 2018 0064 385D     		ldrb	r0, [r7, r4]	@ zero_extendqisi2
 2019 0066 00F0F000 		and	r0, r0, #240
 2020 006a E3E7     		b	.L251
 2021              	.L261:
 2022              		.align	2
 2023              	.L260:
 2024 006c 00000000 		.word	USB_midi_out_ep
 2025 0070 00000000 		.word	USB_midiOutBuffer
 2026              		.cfi_endproc
 2027              	.LFE1:
 2028              		.size	USB_MIDI_OUT_EP_Service, .-USB_MIDI_OUT_EP_Service
 2029              		.comm	USB_MIDI2_InqFlags,1,1
 2030              		.comm	USB_MIDI1_InqFlags,1,1
 2031              		.comm	USB_midiOutBuffer,32,4
 2032              		.comm	USB_midi_out_ep,1,1
 2033              		.comm	USB_midiInBuffer,32,4
 2034              		.comm	USB_midi_in_ep,1,1
 2035              		.comm	USB_midiInPointer,1,1
 2036              		.section	.rodata
 2037              		.align	2
 2038              		.set	.LANCHOR1,. + 0
 2039              		.type	USB_MIDI_SIZE, %object
 2040              		.size	USB_MIDI_SIZE, 16
ARM GAS  C:\Users\jwvance\AppData\Local\Temp\ccxTgFRe.s 			page 67


 2041              	USB_MIDI_SIZE:
 2042 0000 03       		.byte	3
 2043 0001 03       		.byte	3
 2044 0002 02       		.byte	2
 2045 0003 03       		.byte	3
 2046 0004 03       		.byte	3
 2047 0005 01       		.byte	1
 2048 0006 02       		.byte	2
 2049 0007 03       		.byte	3
 2050 0008 03       		.byte	3
 2051 0009 03       		.byte	3
 2052 000a 03       		.byte	3
 2053 000b 03       		.byte	3
 2054 000c 02       		.byte	2
 2055 000d 02       		.byte	2
 2056 000e 03       		.byte	3
 2057 000f 01       		.byte	1
 2058              		.bss
 2059              		.align	2
 2060              		.set	.LANCHOR0,. + 0
 2061              		.type	USB_MIDI1_Event, %object
 2062              		.size	USB_MIDI1_Event, 8
 2063              	USB_MIDI1_Event:
 2064 0000 00000000 		.space	8
 2064      00000000 
 2065              		.type	USB_MIDI1_TxRunStat, %object
 2066              		.size	USB_MIDI1_TxRunStat, 1
 2067              	USB_MIDI1_TxRunStat:
 2068 0008 00       		.space	1
 2069 0009 000000   		.space	3
 2070              		.type	USB_MIDI2_Event, %object
 2071              		.size	USB_MIDI2_Event, 8
 2072              	USB_MIDI2_Event:
 2073 000c 00000000 		.space	8
 2073      00000000 
 2074              		.type	USB_MIDI2_TxRunStat, %object
 2075              		.size	USB_MIDI2_TxRunStat, 1
 2076              	USB_MIDI2_TxRunStat:
 2077 0014 00       		.space	1
 2078 0015 000000   		.text
 2079              	.Letext0:
 2080              		.file 2 "Generated_Source\\PSoC5\\cytypes.h"
 2081              		.file 3 "Generated_Source\\PSoC5\\USB.h"
 2082              		.file 4 "Generated_Source\\PSoC5\\USB_midi.h"
 2083              		.file 5 "Generated_Source\\PSoC5\\MIDI1_UART.h"
 2084              		.file 6 "Generated_Source\\PSoC5\\MIDI2_UART.h"
 2085              		.file 7 "Generated_Source\\PSoC5\\USB_pvt.h"
 2086              		.file 8 "Generated_Source\\PSoC5\\CyLib.h"