ARM GAS  C:\Users\mgronber\AppData\Local\Temp\ccohOFIJ.s 			page 1


   1              		.syntax unified
   2              		.cpu cortex-m3
   3              		.fpu softvfp
   4              		.eabi_attribute 20, 1
   5              		.eabi_attribute 21, 1
   6              		.eabi_attribute 23, 3
   7              		.eabi_attribute 24, 1
   8              		.eabi_attribute 25, 1
   9              		.eabi_attribute 26, 1
  10              		.eabi_attribute 30, 2
  11              		.eabi_attribute 34, 1
  12              		.eabi_attribute 18, 4
  13              		.thumb
  14              		.file	"USB_std.c"
  15              		.text
  16              	.Ltext0:
  17              		.cfi_sections	.debug_frame
  18              		.section	.text.USB_ConfigAltChanged.part.0,"ax",%progbits
  19              		.align	2
  20              		.thumb
  21              		.thumb_func
  22              		.type	USB_ConfigAltChanged.part.0, %function
  23              	USB_ConfigAltChanged.part.0:
  24              	.LFB12:
  25              		.file 1 "Generated_Source\\PSoC5\\USB_std.c"
   1:Generated_Source\PSoC5/USB_std.c **** /*******************************************************************************
   2:Generated_Source\PSoC5/USB_std.c **** * File Name: USB_std.c
   3:Generated_Source\PSoC5/USB_std.c **** * Version 2.70
   4:Generated_Source\PSoC5/USB_std.c **** *
   5:Generated_Source\PSoC5/USB_std.c **** * Description:
   6:Generated_Source\PSoC5/USB_std.c **** *  USB Standard request handler.
   7:Generated_Source\PSoC5/USB_std.c **** *
   8:Generated_Source\PSoC5/USB_std.c **** * Note:
   9:Generated_Source\PSoC5/USB_std.c **** *
  10:Generated_Source\PSoC5/USB_std.c **** ********************************************************************************
  11:Generated_Source\PSoC5/USB_std.c **** * Copyright 2008-2013, Cypress Semiconductor Corporation.  All rights reserved.
  12:Generated_Source\PSoC5/USB_std.c **** * You may use this file only in accordance with the license, terms, conditions,
  13:Generated_Source\PSoC5/USB_std.c **** * disclaimers, and limitations in the end user license agreement accompanying
  14:Generated_Source\PSoC5/USB_std.c **** * the software package with which this file was provided.
  15:Generated_Source\PSoC5/USB_std.c **** *******************************************************************************/
  16:Generated_Source\PSoC5/USB_std.c **** 
  17:Generated_Source\PSoC5/USB_std.c **** #include "USB.h"
  18:Generated_Source\PSoC5/USB_std.c **** #include "USB_cdc.h"
  19:Generated_Source\PSoC5/USB_std.c **** #include "USB_pvt.h"
  20:Generated_Source\PSoC5/USB_std.c **** #if defined(USB_ENABLE_MIDI_STREAMING)
  21:Generated_Source\PSoC5/USB_std.c ****     #include "USB_midi.h"
  22:Generated_Source\PSoC5/USB_std.c **** #endif /*  USB_ENABLE_MIDI_STREAMING*/
  23:Generated_Source\PSoC5/USB_std.c **** 
  24:Generated_Source\PSoC5/USB_std.c **** 
  25:Generated_Source\PSoC5/USB_std.c **** /***************************************
  26:Generated_Source\PSoC5/USB_std.c **** *   Static data allocation
  27:Generated_Source\PSoC5/USB_std.c **** ***************************************/
  28:Generated_Source\PSoC5/USB_std.c **** 
  29:Generated_Source\PSoC5/USB_std.c **** #if defined(USB_ENABLE_FWSN_STRING)
  30:Generated_Source\PSoC5/USB_std.c ****     static volatile uint8 *USB_fwSerialNumberStringDescriptor;
  31:Generated_Source\PSoC5/USB_std.c ****     static volatile uint8 USB_snStringConfirm = USB_FALSE;
  32:Generated_Source\PSoC5/USB_std.c **** #endif  /* USB_ENABLE_FWSN_STRING */
ARM GAS  C:\Users\mgronber\AppData\Local\Temp\ccohOFIJ.s 			page 2


  33:Generated_Source\PSoC5/USB_std.c **** 
  34:Generated_Source\PSoC5/USB_std.c **** #if defined(USB_ENABLE_FWSN_STRING)
  35:Generated_Source\PSoC5/USB_std.c **** 
  36:Generated_Source\PSoC5/USB_std.c ****     /*******************************************************************************
  37:Generated_Source\PSoC5/USB_std.c ****     * Function Name: USB_SerialNumString
  38:Generated_Source\PSoC5/USB_std.c ****     ********************************************************************************
  39:Generated_Source\PSoC5/USB_std.c ****     *
  40:Generated_Source\PSoC5/USB_std.c ****     * Summary:
  41:Generated_Source\PSoC5/USB_std.c ****     *  Application firmware may supply the source of the USB device descriptors
  42:Generated_Source\PSoC5/USB_std.c ****     *  serial number string during runtime.
  43:Generated_Source\PSoC5/USB_std.c ****     *
  44:Generated_Source\PSoC5/USB_std.c ****     * Parameters:
  45:Generated_Source\PSoC5/USB_std.c ****     *  snString:  pointer to string.
  46:Generated_Source\PSoC5/USB_std.c ****     *
  47:Generated_Source\PSoC5/USB_std.c ****     * Return:
  48:Generated_Source\PSoC5/USB_std.c ****     *  None.
  49:Generated_Source\PSoC5/USB_std.c ****     *
  50:Generated_Source\PSoC5/USB_std.c ****     * Reentrant:
  51:Generated_Source\PSoC5/USB_std.c ****     *  No.
  52:Generated_Source\PSoC5/USB_std.c ****     *
  53:Generated_Source\PSoC5/USB_std.c ****     *******************************************************************************/
  54:Generated_Source\PSoC5/USB_std.c ****     void  USB_SerialNumString(uint8 snString[]) 
  55:Generated_Source\PSoC5/USB_std.c ****     {
  56:Generated_Source\PSoC5/USB_std.c ****         USB_snStringConfirm = USB_FALSE;
  57:Generated_Source\PSoC5/USB_std.c ****         if(snString != NULL)
  58:Generated_Source\PSoC5/USB_std.c ****         {
  59:Generated_Source\PSoC5/USB_std.c ****             /* Check descriptor validation */
  60:Generated_Source\PSoC5/USB_std.c ****             if( (snString[0u] > 1u ) && (snString[1u] == USB_DESCR_STRING) )
  61:Generated_Source\PSoC5/USB_std.c ****             {
  62:Generated_Source\PSoC5/USB_std.c ****                 USB_fwSerialNumberStringDescriptor = snString;
  63:Generated_Source\PSoC5/USB_std.c ****                 USB_snStringConfirm = USB_TRUE;
  64:Generated_Source\PSoC5/USB_std.c ****             }
  65:Generated_Source\PSoC5/USB_std.c ****         }
  66:Generated_Source\PSoC5/USB_std.c ****     }
  67:Generated_Source\PSoC5/USB_std.c **** 
  68:Generated_Source\PSoC5/USB_std.c **** #endif  /* USB_ENABLE_FWSN_STRING */
  69:Generated_Source\PSoC5/USB_std.c **** 
  70:Generated_Source\PSoC5/USB_std.c **** 
  71:Generated_Source\PSoC5/USB_std.c **** /*******************************************************************************
  72:Generated_Source\PSoC5/USB_std.c **** * Function Name: USB_HandleStandardRqst
  73:Generated_Source\PSoC5/USB_std.c **** ********************************************************************************
  74:Generated_Source\PSoC5/USB_std.c **** *
  75:Generated_Source\PSoC5/USB_std.c **** * Summary:
  76:Generated_Source\PSoC5/USB_std.c **** *  This Routine dispatches standard requests
  77:Generated_Source\PSoC5/USB_std.c **** *
  78:Generated_Source\PSoC5/USB_std.c **** * Parameters:
  79:Generated_Source\PSoC5/USB_std.c **** *  None.
  80:Generated_Source\PSoC5/USB_std.c **** *
  81:Generated_Source\PSoC5/USB_std.c **** * Return:
  82:Generated_Source\PSoC5/USB_std.c **** *  TRUE if request handled.
  83:Generated_Source\PSoC5/USB_std.c **** *
  84:Generated_Source\PSoC5/USB_std.c **** * Reentrant:
  85:Generated_Source\PSoC5/USB_std.c **** *  No.
  86:Generated_Source\PSoC5/USB_std.c **** *
  87:Generated_Source\PSoC5/USB_std.c **** *******************************************************************************/
  88:Generated_Source\PSoC5/USB_std.c **** uint8 USB_HandleStandardRqst(void) 
  89:Generated_Source\PSoC5/USB_std.c **** {
ARM GAS  C:\Users\mgronber\AppData\Local\Temp\ccohOFIJ.s 			page 3


  90:Generated_Source\PSoC5/USB_std.c ****     uint8 requestHandled = USB_FALSE;
  91:Generated_Source\PSoC5/USB_std.c ****     uint8 interfaceNumber;
  92:Generated_Source\PSoC5/USB_std.c ****     uint8 configurationN;
  93:Generated_Source\PSoC5/USB_std.c ****     #if defined(USB_ENABLE_STRINGS)
  94:Generated_Source\PSoC5/USB_std.c ****         volatile uint8 *pStr = 0u;
  95:Generated_Source\PSoC5/USB_std.c ****         #if defined(USB_ENABLE_DESCRIPTOR_STRINGS)
  96:Generated_Source\PSoC5/USB_std.c ****             uint8 nStr;
  97:Generated_Source\PSoC5/USB_std.c ****             uint8 descrLength;
  98:Generated_Source\PSoC5/USB_std.c ****         #endif /* USB_ENABLE_DESCRIPTOR_STRINGS */
  99:Generated_Source\PSoC5/USB_std.c ****     #endif /* USB_ENABLE_STRINGS */
 100:Generated_Source\PSoC5/USB_std.c ****     static volatile uint8 USB_tBuffer[USB_STATUS_LENGTH_MAX];
 101:Generated_Source\PSoC5/USB_std.c ****     const T_USB_LUT CYCODE *pTmp;
 102:Generated_Source\PSoC5/USB_std.c ****     USB_currentTD.count = 0u;
 103:Generated_Source\PSoC5/USB_std.c **** 
 104:Generated_Source\PSoC5/USB_std.c ****     if ((CY_GET_REG8(USB_bmRequestType) & USB_RQST_DIR_MASK) == USB_RQST_DIR_D2H)
 105:Generated_Source\PSoC5/USB_std.c ****     {
 106:Generated_Source\PSoC5/USB_std.c ****         /* Control Read */
 107:Generated_Source\PSoC5/USB_std.c ****         switch (CY_GET_REG8(USB_bRequest))
 108:Generated_Source\PSoC5/USB_std.c ****         {
 109:Generated_Source\PSoC5/USB_std.c ****             case USB_GET_DESCRIPTOR:
 110:Generated_Source\PSoC5/USB_std.c ****                 if (CY_GET_REG8(USB_wValueHi) == USB_DESCR_DEVICE)
 111:Generated_Source\PSoC5/USB_std.c ****                 {
 112:Generated_Source\PSoC5/USB_std.c ****                     pTmp = USB_GetDeviceTablePtr();
 113:Generated_Source\PSoC5/USB_std.c ****                     USB_currentTD.pData = (volatile uint8 *)pTmp->p_list;
 114:Generated_Source\PSoC5/USB_std.c ****                     USB_currentTD.count = USB_DEVICE_DESCR_LENGTH;
 115:Generated_Source\PSoC5/USB_std.c ****                     requestHandled  = USB_InitControlRead();
 116:Generated_Source\PSoC5/USB_std.c ****                 }
 117:Generated_Source\PSoC5/USB_std.c ****                 else if (CY_GET_REG8(USB_wValueHi) == USB_DESCR_CONFIG)
 118:Generated_Source\PSoC5/USB_std.c ****                 {
 119:Generated_Source\PSoC5/USB_std.c ****                     pTmp = USB_GetConfigTablePtr(CY_GET_REG8(USB_wValueLo));
 120:Generated_Source\PSoC5/USB_std.c ****                     if( pTmp != NULL )  /* Verify that requested descriptor exists */
 121:Generated_Source\PSoC5/USB_std.c ****                     {
 122:Generated_Source\PSoC5/USB_std.c ****                         USB_currentTD.pData = (volatile uint8 *)pTmp->p_list;
 123:Generated_Source\PSoC5/USB_std.c ****                         USB_currentTD.count = ((uint16)(USB_currentTD.pData)[ \
 124:Generated_Source\PSoC5/USB_std.c ****                                           USB_CONFIG_DESCR_TOTAL_LENGTH_HI] << 8u) | \
 125:Generated_Source\PSoC5/USB_std.c ****                                          (USB_currentTD.pData)[USB_CONFIG_DESCR_TOTAL_LENGTH_LOW];
 126:Generated_Source\PSoC5/USB_std.c ****                         requestHandled  = USB_InitControlRead();
 127:Generated_Source\PSoC5/USB_std.c ****                     }
 128:Generated_Source\PSoC5/USB_std.c ****                 }
 129:Generated_Source\PSoC5/USB_std.c ****                 #if defined(USB_ENABLE_STRINGS)
 130:Generated_Source\PSoC5/USB_std.c ****                 else if (CY_GET_REG8(USB_wValueHi) == USB_DESCR_STRING)
 131:Generated_Source\PSoC5/USB_std.c ****                 {
 132:Generated_Source\PSoC5/USB_std.c ****                     /* Descriptor Strings*/
 133:Generated_Source\PSoC5/USB_std.c ****                     #if defined(USB_ENABLE_DESCRIPTOR_STRINGS)
 134:Generated_Source\PSoC5/USB_std.c ****                         nStr = 0u;
 135:Generated_Source\PSoC5/USB_std.c ****                         pStr = (volatile uint8 *)&USB_STRING_DESCRIPTORS[0u];
 136:Generated_Source\PSoC5/USB_std.c ****                         while ( (CY_GET_REG8(USB_wValueLo) > nStr) && (*pStr != 0u) )
 137:Generated_Source\PSoC5/USB_std.c ****                         {
 138:Generated_Source\PSoC5/USB_std.c ****                             /* Read descriptor length from 1st byte */
 139:Generated_Source\PSoC5/USB_std.c ****                             descrLength = *pStr;
 140:Generated_Source\PSoC5/USB_std.c ****                             /* Move to next string descriptor */
 141:Generated_Source\PSoC5/USB_std.c ****                             pStr = &pStr[descrLength];
 142:Generated_Source\PSoC5/USB_std.c ****                             nStr++;
 143:Generated_Source\PSoC5/USB_std.c ****                         }
 144:Generated_Source\PSoC5/USB_std.c ****                     #endif /*  USB_ENABLE_DESCRIPTOR_STRINGS */
 145:Generated_Source\PSoC5/USB_std.c ****                     /* Microsoft OS String*/
 146:Generated_Source\PSoC5/USB_std.c ****                     #if defined(USB_ENABLE_MSOS_STRING)
ARM GAS  C:\Users\mgronber\AppData\Local\Temp\ccohOFIJ.s 			page 4


 147:Generated_Source\PSoC5/USB_std.c ****                         if( CY_GET_REG8(USB_wValueLo) == USB_STRING_MSOS )
 148:Generated_Source\PSoC5/USB_std.c ****                         {
 149:Generated_Source\PSoC5/USB_std.c ****                             pStr = (volatile uint8 *)&USB_MSOS_DESCRIPTOR[0u];
 150:Generated_Source\PSoC5/USB_std.c ****                         }
 151:Generated_Source\PSoC5/USB_std.c ****                     #endif /*  USB_ENABLE_MSOS_STRING*/
 152:Generated_Source\PSoC5/USB_std.c ****                     /* SN string */
 153:Generated_Source\PSoC5/USB_std.c ****                     #if defined(USB_ENABLE_SN_STRING)
 154:Generated_Source\PSoC5/USB_std.c ****                         if( (CY_GET_REG8(USB_wValueLo) != 0u) &&
 155:Generated_Source\PSoC5/USB_std.c ****                             (CY_GET_REG8(USB_wValueLo) ==
 156:Generated_Source\PSoC5/USB_std.c ****                             USB_DEVICE0_DESCR[USB_DEVICE_DESCR_SN_SHIFT]) )
 157:Generated_Source\PSoC5/USB_std.c ****                         {
 158:Generated_Source\PSoC5/USB_std.c ****                             
 159:Generated_Source\PSoC5/USB_std.c ****                             #if defined(USB_ENABLE_IDSN_STRING)
 160:Generated_Source\PSoC5/USB_std.c ****                                 /* Read DIE ID and generate string descriptor in RAM */
 161:Generated_Source\PSoC5/USB_std.c ****                                 USB_ReadDieID(USB_idSerialNumberStringDescriptor);
 162:Generated_Source\PSoC5/USB_std.c ****                                 pStr = USB_idSerialNumberStringDescriptor;
 163:Generated_Source\PSoC5/USB_std.c ****                             #elif defined(USB_ENABLE_FWSN_STRING)
 164:Generated_Source\PSoC5/USB_std.c ****                                 if(USB_snStringConfirm != USB_FALSE)
 165:Generated_Source\PSoC5/USB_std.c ****                                 {
 166:Generated_Source\PSoC5/USB_std.c ****                                     pStr = USB_fwSerialNumberStringDescriptor;
 167:Generated_Source\PSoC5/USB_std.c ****                                 }
 168:Generated_Source\PSoC5/USB_std.c ****                                 else
 169:Generated_Source\PSoC5/USB_std.c ****                                 {
 170:Generated_Source\PSoC5/USB_std.c ****                                     pStr = (volatile uint8 *)&USB_SN_STRING_DESCRIPTOR[0u];
 171:Generated_Source\PSoC5/USB_std.c ****                                 }
 172:Generated_Source\PSoC5/USB_std.c ****                             #else
 173:Generated_Source\PSoC5/USB_std.c ****                                 pStr = (volatile uint8 *)&USB_SN_STRING_DESCRIPTOR[0u];
 174:Generated_Source\PSoC5/USB_std.c ****                             #endif  /* defined(USB_ENABLE_IDSN_STRING) */
 175:Generated_Source\PSoC5/USB_std.c ****                         }
 176:Generated_Source\PSoC5/USB_std.c ****                     #endif    /*  USB_ENABLE_SN_STRING */
 177:Generated_Source\PSoC5/USB_std.c ****                     if (*pStr != 0u)
 178:Generated_Source\PSoC5/USB_std.c ****                     {
 179:Generated_Source\PSoC5/USB_std.c ****                         USB_currentTD.count = *pStr;
 180:Generated_Source\PSoC5/USB_std.c ****                         USB_currentTD.pData = pStr;
 181:Generated_Source\PSoC5/USB_std.c ****                         requestHandled  = USB_InitControlRead();
 182:Generated_Source\PSoC5/USB_std.c ****                     }
 183:Generated_Source\PSoC5/USB_std.c ****                 }
 184:Generated_Source\PSoC5/USB_std.c ****                 #endif /*  USB_ENABLE_STRINGS */
 185:Generated_Source\PSoC5/USB_std.c ****                 else
 186:Generated_Source\PSoC5/USB_std.c ****                 {
 187:Generated_Source\PSoC5/USB_std.c ****                     requestHandled = USB_DispatchClassRqst();
 188:Generated_Source\PSoC5/USB_std.c ****                 }
 189:Generated_Source\PSoC5/USB_std.c ****                 break;
 190:Generated_Source\PSoC5/USB_std.c ****             case USB_GET_STATUS:
 191:Generated_Source\PSoC5/USB_std.c ****                 switch ((CY_GET_REG8(USB_bmRequestType) & USB_RQST_RCPT_MASK))
 192:Generated_Source\PSoC5/USB_std.c ****                 {
 193:Generated_Source\PSoC5/USB_std.c ****                     case USB_RQST_RCPT_EP:
 194:Generated_Source\PSoC5/USB_std.c ****                         USB_currentTD.count = USB_EP_STATUS_LENGTH;
 195:Generated_Source\PSoC5/USB_std.c ****                         USB_tBuffer[0u] = USB_EP[ \
 196:Generated_Source\PSoC5/USB_std.c ****                                         CY_GET_REG8(USB_wIndexLo) & USB_DIR_UNUSED].hwEpState;
 197:Generated_Source\PSoC5/USB_std.c ****                         USB_tBuffer[1u] = 0u;
 198:Generated_Source\PSoC5/USB_std.c ****                         USB_currentTD.pData = &USB_tBuffer[0u];
 199:Generated_Source\PSoC5/USB_std.c ****                         requestHandled  = USB_InitControlRead();
 200:Generated_Source\PSoC5/USB_std.c ****                         break;
 201:Generated_Source\PSoC5/USB_std.c ****                     case USB_RQST_RCPT_DEV:
 202:Generated_Source\PSoC5/USB_std.c ****                         USB_currentTD.count = USB_DEVICE_STATUS_LENGTH;
 203:Generated_Source\PSoC5/USB_std.c ****                         USB_tBuffer[0u] = USB_deviceStatus;
ARM GAS  C:\Users\mgronber\AppData\Local\Temp\ccohOFIJ.s 			page 5


 204:Generated_Source\PSoC5/USB_std.c ****                         USB_tBuffer[1u] = 0u;
 205:Generated_Source\PSoC5/USB_std.c ****                         USB_currentTD.pData = &USB_tBuffer[0u];
 206:Generated_Source\PSoC5/USB_std.c ****                         requestHandled  = USB_InitControlRead();
 207:Generated_Source\PSoC5/USB_std.c ****                         break;
 208:Generated_Source\PSoC5/USB_std.c ****                     default:    /* requestHandled is initialized as FALSE by default */
 209:Generated_Source\PSoC5/USB_std.c ****                         break;
 210:Generated_Source\PSoC5/USB_std.c ****                 }
 211:Generated_Source\PSoC5/USB_std.c ****                 break;
 212:Generated_Source\PSoC5/USB_std.c ****             case USB_GET_CONFIGURATION:
 213:Generated_Source\PSoC5/USB_std.c ****                 USB_currentTD.count = 1u;
 214:Generated_Source\PSoC5/USB_std.c ****                 USB_currentTD.pData = (volatile uint8 *)&USB_configuration;
 215:Generated_Source\PSoC5/USB_std.c ****                 requestHandled  = USB_InitControlRead();
 216:Generated_Source\PSoC5/USB_std.c ****                 break;
 217:Generated_Source\PSoC5/USB_std.c ****             case USB_GET_INTERFACE:
 218:Generated_Source\PSoC5/USB_std.c ****                 USB_currentTD.count = 1u;
 219:Generated_Source\PSoC5/USB_std.c ****                 USB_currentTD.pData = (volatile uint8 *)&USB_interfaceSetting[ \
 220:Generated_Source\PSoC5/USB_std.c ****                                                                             CY_GET_REG8(USB_wIndexL
 221:Generated_Source\PSoC5/USB_std.c ****                 requestHandled  = USB_InitControlRead();
 222:Generated_Source\PSoC5/USB_std.c ****                 break;
 223:Generated_Source\PSoC5/USB_std.c ****             default: /* requestHandled is initialized as FALSE by default */
 224:Generated_Source\PSoC5/USB_std.c ****                 break;
 225:Generated_Source\PSoC5/USB_std.c ****         }
 226:Generated_Source\PSoC5/USB_std.c ****     }
 227:Generated_Source\PSoC5/USB_std.c ****     else {
 228:Generated_Source\PSoC5/USB_std.c ****         /* Control Write */
 229:Generated_Source\PSoC5/USB_std.c ****         switch (CY_GET_REG8(USB_bRequest))
 230:Generated_Source\PSoC5/USB_std.c ****         {
 231:Generated_Source\PSoC5/USB_std.c ****             case USB_SET_ADDRESS:
 232:Generated_Source\PSoC5/USB_std.c ****                 USB_deviceAddress = CY_GET_REG8(USB_wValueLo);
 233:Generated_Source\PSoC5/USB_std.c ****                 requestHandled = USB_InitNoDataControlTransfer();
 234:Generated_Source\PSoC5/USB_std.c ****                 break;
 235:Generated_Source\PSoC5/USB_std.c ****             case USB_SET_CONFIGURATION:
 236:Generated_Source\PSoC5/USB_std.c ****                 configurationN = CY_GET_REG8(USB_wValueLo);
 237:Generated_Source\PSoC5/USB_std.c ****                 if(configurationN > 0)
 238:Generated_Source\PSoC5/USB_std.c ****                 {   /* Verify that configuration descriptor exists */
 239:Generated_Source\PSoC5/USB_std.c ****                     pTmp = USB_GetConfigTablePtr(configurationN - 1u);
 240:Generated_Source\PSoC5/USB_std.c ****                 }
 241:Generated_Source\PSoC5/USB_std.c ****                 /* Responds with a Request Error when configuration number is invalid */
 242:Generated_Source\PSoC5/USB_std.c ****                 if (((configurationN > 0) && (pTmp != NULL)) || (configurationN == 0u))
 243:Generated_Source\PSoC5/USB_std.c ****                 {
 244:Generated_Source\PSoC5/USB_std.c ****                     /* Set new configuration if it has been changed */
 245:Generated_Source\PSoC5/USB_std.c ****                     if(configurationN != USB_configuration)        
 246:Generated_Source\PSoC5/USB_std.c ****                     {
 247:Generated_Source\PSoC5/USB_std.c ****                         USB_configuration = configurationN;
 248:Generated_Source\PSoC5/USB_std.c ****                         USB_configurationChanged = USB_TRUE;
 249:Generated_Source\PSoC5/USB_std.c ****                         USB_Config(USB_TRUE);
 250:Generated_Source\PSoC5/USB_std.c ****                     }
 251:Generated_Source\PSoC5/USB_std.c ****                     requestHandled = USB_InitNoDataControlTransfer();
 252:Generated_Source\PSoC5/USB_std.c ****                 }
 253:Generated_Source\PSoC5/USB_std.c ****                 break;
 254:Generated_Source\PSoC5/USB_std.c ****             case USB_SET_INTERFACE:
 255:Generated_Source\PSoC5/USB_std.c ****                 if (USB_ValidateAlternateSetting() != 0u)
 256:Generated_Source\PSoC5/USB_std.c ****                 {
 257:Generated_Source\PSoC5/USB_std.c ****                     interfaceNumber = CY_GET_REG8(USB_wIndexLo);
 258:Generated_Source\PSoC5/USB_std.c ****                     USB_interfaceNumber = interfaceNumber;
 259:Generated_Source\PSoC5/USB_std.c ****                     USB_configurationChanged = USB_TRUE;
 260:Generated_Source\PSoC5/USB_std.c ****                     #if ((USB_EP_MA == USB__MA_DYNAMIC) && \
ARM GAS  C:\Users\mgronber\AppData\Local\Temp\ccohOFIJ.s 			page 6


 261:Generated_Source\PSoC5/USB_std.c ****                          (USB_EP_MM == USB__EP_MANUAL) )
 262:Generated_Source\PSoC5/USB_std.c ****                         USB_Config(USB_FALSE);
 263:Generated_Source\PSoC5/USB_std.c ****                     #else
 264:Generated_Source\PSoC5/USB_std.c ****                         USB_ConfigAltChanged();
 265:Generated_Source\PSoC5/USB_std.c ****                     #endif /*  (USB_EP_MA == USB__MA_DYNAMIC) */
 266:Generated_Source\PSoC5/USB_std.c ****                     /* Update handled Alt setting changes status */
 267:Generated_Source\PSoC5/USB_std.c ****                     USB_interfaceSetting_last[interfaceNumber] =
 268:Generated_Source\PSoC5/USB_std.c ****                          USB_interfaceSetting[interfaceNumber];
 269:Generated_Source\PSoC5/USB_std.c ****                     requestHandled = USB_InitNoDataControlTransfer();
 270:Generated_Source\PSoC5/USB_std.c ****                 }
 271:Generated_Source\PSoC5/USB_std.c ****                 break;
 272:Generated_Source\PSoC5/USB_std.c ****             case USB_CLEAR_FEATURE:
 273:Generated_Source\PSoC5/USB_std.c ****                 switch (CY_GET_REG8(USB_bmRequestType) & USB_RQST_RCPT_MASK)
 274:Generated_Source\PSoC5/USB_std.c ****                 {
 275:Generated_Source\PSoC5/USB_std.c ****                     case USB_RQST_RCPT_EP:
 276:Generated_Source\PSoC5/USB_std.c ****                         if (CY_GET_REG8(USB_wValueLo) == USB_ENDPOINT_HALT)
 277:Generated_Source\PSoC5/USB_std.c ****                         {
 278:Generated_Source\PSoC5/USB_std.c ****                             requestHandled = USB_ClearEndpointHalt();
 279:Generated_Source\PSoC5/USB_std.c ****                         }
 280:Generated_Source\PSoC5/USB_std.c ****                         break;
 281:Generated_Source\PSoC5/USB_std.c ****                     case USB_RQST_RCPT_DEV:
 282:Generated_Source\PSoC5/USB_std.c ****                         /* Clear device REMOTE_WAKEUP */
 283:Generated_Source\PSoC5/USB_std.c ****                         if (CY_GET_REG8(USB_wValueLo) == USB_DEVICE_REMOTE_WAKEUP)
 284:Generated_Source\PSoC5/USB_std.c ****                         {
 285:Generated_Source\PSoC5/USB_std.c ****                             USB_deviceStatus &= (uint8)~USB_DEVICE_STATUS_REMOTE_WAKEUP;
 286:Generated_Source\PSoC5/USB_std.c ****                             requestHandled = USB_InitNoDataControlTransfer();
 287:Generated_Source\PSoC5/USB_std.c ****                         }
 288:Generated_Source\PSoC5/USB_std.c ****                         break;
 289:Generated_Source\PSoC5/USB_std.c ****                     case USB_RQST_RCPT_IFC:
 290:Generated_Source\PSoC5/USB_std.c ****                         /* Validate interfaceNumber */
 291:Generated_Source\PSoC5/USB_std.c ****                         if (CY_GET_REG8(USB_wIndexLo) < USB_MAX_INTERFACES_NUMBER)
 292:Generated_Source\PSoC5/USB_std.c ****                         {
 293:Generated_Source\PSoC5/USB_std.c ****                             USB_interfaceStatus[CY_GET_REG8(USB_wIndexLo)] &=
 294:Generated_Source\PSoC5/USB_std.c ****                                                                 (uint8)~(CY_GET_REG8(USB_wValueLo))
 295:Generated_Source\PSoC5/USB_std.c ****                             requestHandled = USB_InitNoDataControlTransfer();
 296:Generated_Source\PSoC5/USB_std.c ****                         }
 297:Generated_Source\PSoC5/USB_std.c ****                         break;
 298:Generated_Source\PSoC5/USB_std.c ****                     default:    /* requestHandled is initialized as FALSE by default */
 299:Generated_Source\PSoC5/USB_std.c ****                         break;
 300:Generated_Source\PSoC5/USB_std.c ****                 }
 301:Generated_Source\PSoC5/USB_std.c ****                 break;
 302:Generated_Source\PSoC5/USB_std.c ****             case USB_SET_FEATURE:
 303:Generated_Source\PSoC5/USB_std.c ****                 switch (CY_GET_REG8(USB_bmRequestType) & USB_RQST_RCPT_MASK)
 304:Generated_Source\PSoC5/USB_std.c ****                 {
 305:Generated_Source\PSoC5/USB_std.c ****                     case USB_RQST_RCPT_EP:
 306:Generated_Source\PSoC5/USB_std.c ****                         if (CY_GET_REG8(USB_wValueLo) == USB_ENDPOINT_HALT)
 307:Generated_Source\PSoC5/USB_std.c ****                         {
 308:Generated_Source\PSoC5/USB_std.c ****                             requestHandled = USB_SetEndpointHalt();
 309:Generated_Source\PSoC5/USB_std.c ****                         }
 310:Generated_Source\PSoC5/USB_std.c ****                         break;
 311:Generated_Source\PSoC5/USB_std.c ****                     case USB_RQST_RCPT_DEV:
 312:Generated_Source\PSoC5/USB_std.c ****                         /* Set device REMOTE_WAKEUP */
 313:Generated_Source\PSoC5/USB_std.c ****                         if (CY_GET_REG8(USB_wValueLo) == USB_DEVICE_REMOTE_WAKEUP)
 314:Generated_Source\PSoC5/USB_std.c ****                         {
 315:Generated_Source\PSoC5/USB_std.c ****                             USB_deviceStatus |= USB_DEVICE_STATUS_REMOTE_WAKEUP;
 316:Generated_Source\PSoC5/USB_std.c ****                             requestHandled = USB_InitNoDataControlTransfer();
 317:Generated_Source\PSoC5/USB_std.c ****                         }
ARM GAS  C:\Users\mgronber\AppData\Local\Temp\ccohOFIJ.s 			page 7


 318:Generated_Source\PSoC5/USB_std.c ****                         break;
 319:Generated_Source\PSoC5/USB_std.c ****                     case USB_RQST_RCPT_IFC:
 320:Generated_Source\PSoC5/USB_std.c ****                         /* Validate interfaceNumber */
 321:Generated_Source\PSoC5/USB_std.c ****                         if (CY_GET_REG8(USB_wIndexLo) < USB_MAX_INTERFACES_NUMBER)
 322:Generated_Source\PSoC5/USB_std.c ****                         {
 323:Generated_Source\PSoC5/USB_std.c ****                             USB_interfaceStatus[CY_GET_REG8(USB_wIndexLo)] &=
 324:Generated_Source\PSoC5/USB_std.c ****                                                                 (uint8)~(CY_GET_REG8(USB_wValueLo))
 325:Generated_Source\PSoC5/USB_std.c ****                             requestHandled = USB_InitNoDataControlTransfer();
 326:Generated_Source\PSoC5/USB_std.c ****                         }
 327:Generated_Source\PSoC5/USB_std.c ****                         break;
 328:Generated_Source\PSoC5/USB_std.c ****                     default:    /* requestHandled is initialized as FALSE by default */
 329:Generated_Source\PSoC5/USB_std.c ****                         break;
 330:Generated_Source\PSoC5/USB_std.c ****                 }
 331:Generated_Source\PSoC5/USB_std.c ****                 break;
 332:Generated_Source\PSoC5/USB_std.c ****             default:    /* requestHandled is initialized as FALSE by default */
 333:Generated_Source\PSoC5/USB_std.c ****                 break;
 334:Generated_Source\PSoC5/USB_std.c ****         }
 335:Generated_Source\PSoC5/USB_std.c ****     }
 336:Generated_Source\PSoC5/USB_std.c ****     return(requestHandled);
 337:Generated_Source\PSoC5/USB_std.c **** }
 338:Generated_Source\PSoC5/USB_std.c **** 
 339:Generated_Source\PSoC5/USB_std.c **** 
 340:Generated_Source\PSoC5/USB_std.c **** #if defined(USB_ENABLE_IDSN_STRING)
 341:Generated_Source\PSoC5/USB_std.c **** 
 342:Generated_Source\PSoC5/USB_std.c ****     /***************************************************************************
 343:Generated_Source\PSoC5/USB_std.c ****     * Function Name: USB_ReadDieID
 344:Generated_Source\PSoC5/USB_std.c ****     ****************************************************************************
 345:Generated_Source\PSoC5/USB_std.c ****     *
 346:Generated_Source\PSoC5/USB_std.c ****     * Summary:
 347:Generated_Source\PSoC5/USB_std.c ****     *  This routine read Die ID and generate Serial Number string descriptor.
 348:Generated_Source\PSoC5/USB_std.c ****     *
 349:Generated_Source\PSoC5/USB_std.c ****     * Parameters:
 350:Generated_Source\PSoC5/USB_std.c ****     *  descr:  pointer on string descriptor.
 351:Generated_Source\PSoC5/USB_std.c ****     *
 352:Generated_Source\PSoC5/USB_std.c ****     * Return:
 353:Generated_Source\PSoC5/USB_std.c ****     *  None.
 354:Generated_Source\PSoC5/USB_std.c ****     *
 355:Generated_Source\PSoC5/USB_std.c ****     * Reentrant:
 356:Generated_Source\PSoC5/USB_std.c ****     *  No.
 357:Generated_Source\PSoC5/USB_std.c ****     *
 358:Generated_Source\PSoC5/USB_std.c ****     ***************************************************************************/
 359:Generated_Source\PSoC5/USB_std.c ****     void USB_ReadDieID(uint8 descr[]) 
 360:Generated_Source\PSoC5/USB_std.c ****     {
 361:Generated_Source\PSoC5/USB_std.c ****         uint8 i;
 362:Generated_Source\PSoC5/USB_std.c ****         uint8 j = 0u;
 363:Generated_Source\PSoC5/USB_std.c ****         uint8 value;
 364:Generated_Source\PSoC5/USB_std.c ****         const char8 CYCODE hex[16u] = "0123456789ABCDEF";
 365:Generated_Source\PSoC5/USB_std.c **** 
 366:Generated_Source\PSoC5/USB_std.c ****         /* Check descriptor validation */
 367:Generated_Source\PSoC5/USB_std.c ****         if( descr != NULL)
 368:Generated_Source\PSoC5/USB_std.c ****         {
 369:Generated_Source\PSoC5/USB_std.c ****             descr[0u] = USB_IDSN_DESCR_LENGTH;
 370:Generated_Source\PSoC5/USB_std.c ****             descr[1u] = USB_DESCR_STRING;
 371:Generated_Source\PSoC5/USB_std.c **** 
 372:Generated_Source\PSoC5/USB_std.c ****             /* fill descriptor */
 373:Generated_Source\PSoC5/USB_std.c ****             for(i = 2u; i < USB_IDSN_DESCR_LENGTH; i += 4u)
 374:Generated_Source\PSoC5/USB_std.c ****             {
ARM GAS  C:\Users\mgronber\AppData\Local\Temp\ccohOFIJ.s 			page 8


 375:Generated_Source\PSoC5/USB_std.c ****                 value = CY_GET_XTND_REG8((void CYFAR *)(USB_DIE_ID + j));
 376:Generated_Source\PSoC5/USB_std.c ****                 j++;
 377:Generated_Source\PSoC5/USB_std.c ****                 descr[i] = (uint8)hex[value >> 4u];
 378:Generated_Source\PSoC5/USB_std.c ****                 descr[i + 2u] = (uint8)hex[value & 0x0Fu];
 379:Generated_Source\PSoC5/USB_std.c ****             }
 380:Generated_Source\PSoC5/USB_std.c ****         }
 381:Generated_Source\PSoC5/USB_std.c ****     }
 382:Generated_Source\PSoC5/USB_std.c **** 
 383:Generated_Source\PSoC5/USB_std.c **** #endif /*  USB_ENABLE_IDSN_STRING */
 384:Generated_Source\PSoC5/USB_std.c **** 
 385:Generated_Source\PSoC5/USB_std.c **** 
 386:Generated_Source\PSoC5/USB_std.c **** /*******************************************************************************
 387:Generated_Source\PSoC5/USB_std.c **** * Function Name: USB_ConfigReg
 388:Generated_Source\PSoC5/USB_std.c **** ********************************************************************************
 389:Generated_Source\PSoC5/USB_std.c **** *
 390:Generated_Source\PSoC5/USB_std.c **** * Summary:
 391:Generated_Source\PSoC5/USB_std.c **** *  This routine configures hardware registers from the variables.
 392:Generated_Source\PSoC5/USB_std.c **** *  It is called from USB_Config() function and from RestoreConfig
 393:Generated_Source\PSoC5/USB_std.c **** *  after Wakeup.
 394:Generated_Source\PSoC5/USB_std.c **** *
 395:Generated_Source\PSoC5/USB_std.c **** * Parameters:
 396:Generated_Source\PSoC5/USB_std.c **** *  None.
 397:Generated_Source\PSoC5/USB_std.c **** *
 398:Generated_Source\PSoC5/USB_std.c **** * Return:
 399:Generated_Source\PSoC5/USB_std.c **** *  None.
 400:Generated_Source\PSoC5/USB_std.c **** *
 401:Generated_Source\PSoC5/USB_std.c **** *******************************************************************************/
 402:Generated_Source\PSoC5/USB_std.c **** void USB_ConfigReg(void) 
 403:Generated_Source\PSoC5/USB_std.c **** {
 404:Generated_Source\PSoC5/USB_std.c ****     uint8 ep;
 405:Generated_Source\PSoC5/USB_std.c ****     uint8 i;
 406:Generated_Source\PSoC5/USB_std.c ****     #if(USB_EP_MM == USB__EP_DMAAUTO)
 407:Generated_Source\PSoC5/USB_std.c ****         uint8 epType = 0u;
 408:Generated_Source\PSoC5/USB_std.c ****     #endif /*  USB_EP_MM == USB__EP_DMAAUTO */
 409:Generated_Source\PSoC5/USB_std.c **** 
 410:Generated_Source\PSoC5/USB_std.c ****     /* Set the endpoint buffer addresses */
 411:Generated_Source\PSoC5/USB_std.c ****     ep = USB_EP1;
 412:Generated_Source\PSoC5/USB_std.c ****     for (i = 0u; i < 0x80u; i+= 0x10u)
 413:Generated_Source\PSoC5/USB_std.c ****     {
 414:Generated_Source\PSoC5/USB_std.c ****         CY_SET_REG8((reg8 *)(USB_ARB_EP1_CFG_IND + i), USB_ARB_EPX_CFG_DEFAULT);
 415:Generated_Source\PSoC5/USB_std.c ****         #if(USB_EP_MM != USB__EP_MANUAL)
 416:Generated_Source\PSoC5/USB_std.c ****             /* Enable all Arbiter EP Interrupts : err, buf under, buf over, dma gnt(mode2 only), in
 417:Generated_Source\PSoC5/USB_std.c ****             CY_SET_REG8((reg8 *)(USB_ARB_EP1_INT_EN_IND + i), USB_ARB_EPX_INT_MASK);
 418:Generated_Source\PSoC5/USB_std.c ****         #endif   /*  USB_EP_MM != USB__EP_MANUAL */
 419:Generated_Source\PSoC5/USB_std.c **** 
 420:Generated_Source\PSoC5/USB_std.c ****         if(USB_EP[ep].epMode != USB_MODE_DISABLE)
 421:Generated_Source\PSoC5/USB_std.c ****         {
 422:Generated_Source\PSoC5/USB_std.c ****             if((USB_EP[ep].addr & USB_DIR_IN) != 0u )
 423:Generated_Source\PSoC5/USB_std.c ****             {
 424:Generated_Source\PSoC5/USB_std.c ****                 CY_SET_REG8((reg8 *)(USB_SIE_EP1_CR0_IND + i), USB_MODE_NAK_IN);
 425:Generated_Source\PSoC5/USB_std.c ****             }
 426:Generated_Source\PSoC5/USB_std.c ****             else
 427:Generated_Source\PSoC5/USB_std.c ****             {
 428:Generated_Source\PSoC5/USB_std.c ****                 CY_SET_REG8((reg8 *)(USB_SIE_EP1_CR0_IND + i), USB_MODE_NAK_OUT);
 429:Generated_Source\PSoC5/USB_std.c ****                 /* Prepare EP type mask for automatic memory allocation */
 430:Generated_Source\PSoC5/USB_std.c ****                 #if(USB_EP_MM == USB__EP_DMAAUTO)
 431:Generated_Source\PSoC5/USB_std.c ****                     epType |= (uint8)(0x01u << (ep - USB_EP1));
ARM GAS  C:\Users\mgronber\AppData\Local\Temp\ccohOFIJ.s 			page 9


 432:Generated_Source\PSoC5/USB_std.c ****                 #endif /*  USB_EP_MM == USB__EP_DMAAUTO */
 433:Generated_Source\PSoC5/USB_std.c ****             }
 434:Generated_Source\PSoC5/USB_std.c ****         }
 435:Generated_Source\PSoC5/USB_std.c ****         else
 436:Generated_Source\PSoC5/USB_std.c ****         {
 437:Generated_Source\PSoC5/USB_std.c ****             CY_SET_REG8((reg8 *)(USB_SIE_EP1_CR0_IND + i), USB_MODE_STALL_DATA_EP);
 438:Generated_Source\PSoC5/USB_std.c ****         }
 439:Generated_Source\PSoC5/USB_std.c **** 
 440:Generated_Source\PSoC5/USB_std.c ****         #if(USB_EP_MM != USB__EP_DMAAUTO)
 441:Generated_Source\PSoC5/USB_std.c ****             CY_SET_REG8((reg8 *)(USB_SIE_EP1_CNT0_IND + i),   USB_EP[ep].bufferSize >> 8u);
 442:Generated_Source\PSoC5/USB_std.c ****             CY_SET_REG8((reg8 *)(USB_SIE_EP1_CNT1_IND + i),   USB_EP[ep].bufferSize & 0xFFu);
 443:Generated_Source\PSoC5/USB_std.c **** 
 444:Generated_Source\PSoC5/USB_std.c ****             CY_SET_REG8((reg8 *)(USB_ARB_RW1_RA_IND + i),     USB_EP[ep].buffOffset & 0xFFu);
 445:Generated_Source\PSoC5/USB_std.c ****             CY_SET_REG8((reg8 *)(USB_ARB_RW1_RA_MSB_IND + i), USB_EP[ep].buffOffset >> 8u);
 446:Generated_Source\PSoC5/USB_std.c ****             CY_SET_REG8((reg8 *)(USB_ARB_RW1_WA_IND + i),     USB_EP[ep].buffOffset & 0xFFu);
 447:Generated_Source\PSoC5/USB_std.c ****             CY_SET_REG8((reg8 *)(USB_ARB_RW1_WA_MSB_IND + i), USB_EP[ep].buffOffset >> 8u);
 448:Generated_Source\PSoC5/USB_std.c ****         #endif /*  USB_EP_MM != USB__EP_DMAAUTO */
 449:Generated_Source\PSoC5/USB_std.c **** 
 450:Generated_Source\PSoC5/USB_std.c ****         ep++;
 451:Generated_Source\PSoC5/USB_std.c ****     }
 452:Generated_Source\PSoC5/USB_std.c **** 
 453:Generated_Source\PSoC5/USB_std.c ****     #if(USB_EP_MM == USB__EP_DMAAUTO)
 454:Generated_Source\PSoC5/USB_std.c ****          /* BUF_SIZE depend on DMA_THRESS value: 55-32 bytes  44-16 bytes 33-8 bytes 22-4 bytes 11-
 455:Generated_Source\PSoC5/USB_std.c ****         USB_BUF_SIZE_REG = USB_DMA_BUF_SIZE;
 456:Generated_Source\PSoC5/USB_std.c ****         USB_DMA_THRES_REG = USB_DMA_BYTES_PER_BURST;   /* DMA burst threshold */
 457:Generated_Source\PSoC5/USB_std.c ****         USB_DMA_THRES_MSB_REG = 0u;
 458:Generated_Source\PSoC5/USB_std.c ****         USB_EP_ACTIVE_REG = USB_ARB_INT_MASK;
 459:Generated_Source\PSoC5/USB_std.c ****         USB_EP_TYPE_REG = epType;
 460:Generated_Source\PSoC5/USB_std.c ****         /* Cfg_cmp bit set to 1 once configuration is complete. */
 461:Generated_Source\PSoC5/USB_std.c ****         USB_ARB_CFG_REG = USB_ARB_CFG_AUTO_DMA | USB_ARB_CFG_AUTO_MEM |
 462:Generated_Source\PSoC5/USB_std.c ****                                        USB_ARB_CFG_CFG_CPM;
 463:Generated_Source\PSoC5/USB_std.c ****         /* Cfg_cmp bit set to 0 during configuration of PFSUSB Registers. */
 464:Generated_Source\PSoC5/USB_std.c ****         USB_ARB_CFG_REG = USB_ARB_CFG_AUTO_DMA | USB_ARB_CFG_AUTO_MEM;
 465:Generated_Source\PSoC5/USB_std.c ****     #endif /*  USB_EP_MM == USB__EP_DMAAUTO */
 466:Generated_Source\PSoC5/USB_std.c **** 
 467:Generated_Source\PSoC5/USB_std.c ****     CY_SET_REG8(USB_SIE_EP_INT_EN_PTR, 0xFFu);
 468:Generated_Source\PSoC5/USB_std.c **** }
 469:Generated_Source\PSoC5/USB_std.c **** 
 470:Generated_Source\PSoC5/USB_std.c **** 
 471:Generated_Source\PSoC5/USB_std.c **** /*******************************************************************************
 472:Generated_Source\PSoC5/USB_std.c **** * Function Name: USB_Config
 473:Generated_Source\PSoC5/USB_std.c **** ********************************************************************************
 474:Generated_Source\PSoC5/USB_std.c **** *
 475:Generated_Source\PSoC5/USB_std.c **** * Summary:
 476:Generated_Source\PSoC5/USB_std.c **** *  This routine configures endpoints for the entire configuration by scanning
 477:Generated_Source\PSoC5/USB_std.c **** *  the configuration descriptor.
 478:Generated_Source\PSoC5/USB_std.c **** *
 479:Generated_Source\PSoC5/USB_std.c **** * Parameters:
 480:Generated_Source\PSoC5/USB_std.c **** *  clearAltSetting: It configures the bAlternateSetting 0 for each interface.
 481:Generated_Source\PSoC5/USB_std.c **** *
 482:Generated_Source\PSoC5/USB_std.c **** * Return:
 483:Generated_Source\PSoC5/USB_std.c **** *  None.
 484:Generated_Source\PSoC5/USB_std.c **** *
 485:Generated_Source\PSoC5/USB_std.c **** * USB_interfaceClass - Initialized class array for each interface.
 486:Generated_Source\PSoC5/USB_std.c **** *   It is used for handling Class specific requests depend on interface class.
 487:Generated_Source\PSoC5/USB_std.c **** *   Different classes in multiple Alternate settings does not supported.
 488:Generated_Source\PSoC5/USB_std.c **** *
ARM GAS  C:\Users\mgronber\AppData\Local\Temp\ccohOFIJ.s 			page 10


 489:Generated_Source\PSoC5/USB_std.c **** * Reentrant:
 490:Generated_Source\PSoC5/USB_std.c **** *  No.
 491:Generated_Source\PSoC5/USB_std.c **** *
 492:Generated_Source\PSoC5/USB_std.c **** *******************************************************************************/
 493:Generated_Source\PSoC5/USB_std.c **** void USB_Config(uint8 clearAltSetting) 
 494:Generated_Source\PSoC5/USB_std.c **** {
 495:Generated_Source\PSoC5/USB_std.c ****     uint8 ep;
 496:Generated_Source\PSoC5/USB_std.c ****     uint8 cur_ep;
 497:Generated_Source\PSoC5/USB_std.c ****     uint8 i;
 498:Generated_Source\PSoC5/USB_std.c ****     uint8 epType;
 499:Generated_Source\PSoC5/USB_std.c ****     const uint8 *pDescr;
 500:Generated_Source\PSoC5/USB_std.c ****     #if(USB_EP_MM != USB__EP_DMAAUTO)
 501:Generated_Source\PSoC5/USB_std.c ****         uint16 buffCount = 0u;
 502:Generated_Source\PSoC5/USB_std.c ****     #endif /*  USB_EP_MM != USB__EP_DMAAUTO */
 503:Generated_Source\PSoC5/USB_std.c **** 
 504:Generated_Source\PSoC5/USB_std.c ****     const T_USB_LUT CYCODE *pTmp;
 505:Generated_Source\PSoC5/USB_std.c ****     const T_USB_EP_SETTINGS_BLOCK CYCODE *pEP;
 506:Generated_Source\PSoC5/USB_std.c **** 
 507:Generated_Source\PSoC5/USB_std.c ****     /* Clear all of the endpoints */
 508:Generated_Source\PSoC5/USB_std.c ****     for (ep = 0u; ep < USB_MAX_EP; ep++)
 509:Generated_Source\PSoC5/USB_std.c ****     {
 510:Generated_Source\PSoC5/USB_std.c ****         USB_EP[ep].attrib = 0u;
 511:Generated_Source\PSoC5/USB_std.c ****         USB_EP[ep].hwEpState = 0u;
 512:Generated_Source\PSoC5/USB_std.c ****         USB_EP[ep].apiEpState = USB_NO_EVENT_PENDING;
 513:Generated_Source\PSoC5/USB_std.c ****         USB_EP[ep].epToggle = 0u;
 514:Generated_Source\PSoC5/USB_std.c ****         USB_EP[ep].epMode = USB_MODE_DISABLE;
 515:Generated_Source\PSoC5/USB_std.c ****         USB_EP[ep].bufferSize = 0u;
 516:Generated_Source\PSoC5/USB_std.c ****         USB_EP[ep].interface = 0u;
 517:Generated_Source\PSoC5/USB_std.c **** 
 518:Generated_Source\PSoC5/USB_std.c ****     }
 519:Generated_Source\PSoC5/USB_std.c **** 
 520:Generated_Source\PSoC5/USB_std.c ****     /* Clear Alternate settings for all interfaces */
 521:Generated_Source\PSoC5/USB_std.c ****     if(clearAltSetting != 0u)
 522:Generated_Source\PSoC5/USB_std.c ****     {
 523:Generated_Source\PSoC5/USB_std.c ****         for (i = 0u; i < USB_MAX_INTERFACES_NUMBER; i++)
 524:Generated_Source\PSoC5/USB_std.c ****         {
 525:Generated_Source\PSoC5/USB_std.c ****             USB_interfaceSetting[i] = 0x00u;
 526:Generated_Source\PSoC5/USB_std.c ****             USB_interfaceSetting_last[i] = 0x00u;
 527:Generated_Source\PSoC5/USB_std.c ****         }
 528:Generated_Source\PSoC5/USB_std.c ****     }
 529:Generated_Source\PSoC5/USB_std.c **** 
 530:Generated_Source\PSoC5/USB_std.c ****     /* Init Endpoints and Device Status if configured */
 531:Generated_Source\PSoC5/USB_std.c ****     if(USB_configuration > 0u)
 532:Generated_Source\PSoC5/USB_std.c ****     {
 533:Generated_Source\PSoC5/USB_std.c ****         pTmp = USB_GetConfigTablePtr(USB_configuration - 1u);
 534:Generated_Source\PSoC5/USB_std.c ****         /* Set Power status for current configuration */
 535:Generated_Source\PSoC5/USB_std.c ****         pDescr = (const uint8 *)pTmp->p_list;
 536:Generated_Source\PSoC5/USB_std.c ****         if((pDescr[USB_CONFIG_DESCR_ATTRIB] & USB_CONFIG_DESCR_ATTRIB_SELF_POWERED) != 0u)
 537:Generated_Source\PSoC5/USB_std.c ****         {
 538:Generated_Source\PSoC5/USB_std.c ****             USB_deviceStatus |=  USB_DEVICE_STATUS_SELF_POWERED;
 539:Generated_Source\PSoC5/USB_std.c ****         }
 540:Generated_Source\PSoC5/USB_std.c ****         else
 541:Generated_Source\PSoC5/USB_std.c ****         {
 542:Generated_Source\PSoC5/USB_std.c ****             USB_deviceStatus &=  (uint8)~USB_DEVICE_STATUS_SELF_POWERED;
 543:Generated_Source\PSoC5/USB_std.c ****         }
 544:Generated_Source\PSoC5/USB_std.c ****         /* Move to next element */
 545:Generated_Source\PSoC5/USB_std.c ****         pTmp = &pTmp[1u];
ARM GAS  C:\Users\mgronber\AppData\Local\Temp\ccohOFIJ.s 			page 11


 546:Generated_Source\PSoC5/USB_std.c ****         ep = pTmp->c;  /* For this table, c is the number of endpoints configurations  */
 547:Generated_Source\PSoC5/USB_std.c **** 
 548:Generated_Source\PSoC5/USB_std.c ****         #if ((USB_EP_MA == USB__MA_DYNAMIC) && \
 549:Generated_Source\PSoC5/USB_std.c ****              (USB_EP_MM == USB__EP_MANUAL) )
 550:Generated_Source\PSoC5/USB_std.c ****             /* Configure for dynamic EP memory allocation */
 551:Generated_Source\PSoC5/USB_std.c ****             /* p_list points the endpoint setting table. */
 552:Generated_Source\PSoC5/USB_std.c ****             pEP = (T_USB_EP_SETTINGS_BLOCK *) pTmp->p_list;
 553:Generated_Source\PSoC5/USB_std.c ****             for (i = 0u; i < ep; i++)
 554:Generated_Source\PSoC5/USB_std.c ****             {
 555:Generated_Source\PSoC5/USB_std.c ****                 /* Compare current Alternate setting with EP Alt */
 556:Generated_Source\PSoC5/USB_std.c ****                 if(USB_interfaceSetting[pEP->interface] == pEP->altSetting)
 557:Generated_Source\PSoC5/USB_std.c ****                 {
 558:Generated_Source\PSoC5/USB_std.c ****                     cur_ep = pEP->addr & USB_DIR_UNUSED;
 559:Generated_Source\PSoC5/USB_std.c ****                     epType = pEP->attributes & USB_EP_TYPE_MASK;
 560:Generated_Source\PSoC5/USB_std.c ****                     if (pEP->addr & USB_DIR_IN)
 561:Generated_Source\PSoC5/USB_std.c ****                     {
 562:Generated_Source\PSoC5/USB_std.c ****                         /* IN Endpoint */
 563:Generated_Source\PSoC5/USB_std.c ****                         USB_EP[cur_ep].apiEpState = USB_EVENT_PENDING;
 564:Generated_Source\PSoC5/USB_std.c ****                         USB_EP[cur_ep].epMode = (epType == USB_EP_TYPE_ISOC) ?
 565:Generated_Source\PSoC5/USB_std.c ****                                                         USB_MODE_ISO_IN : USB_MODE_ACK_IN;
 566:Generated_Source\PSoC5/USB_std.c ****                         #if defined(USB_ENABLE_CDC_CLASS)
 567:Generated_Source\PSoC5/USB_std.c ****                             if(((pEP->bMisc == USB_CLASS_CDC_DATA) ||
 568:Generated_Source\PSoC5/USB_std.c ****                                 (pEP->bMisc == USB_CLASS_CDC)) &&
 569:Generated_Source\PSoC5/USB_std.c ****                                 (epType != USB_EP_TYPE_INT))
 570:Generated_Source\PSoC5/USB_std.c ****                             {
 571:Generated_Source\PSoC5/USB_std.c ****                                 USB_cdc_data_in_ep = cur_ep;
 572:Generated_Source\PSoC5/USB_std.c ****                             }
 573:Generated_Source\PSoC5/USB_std.c ****                         #endif  /*  USB_ENABLE_CDC_CLASS*/
 574:Generated_Source\PSoC5/USB_std.c ****                         #if ( defined(USB_ENABLE_MIDI_STREAMING) && \
 575:Generated_Source\PSoC5/USB_std.c ****                                              (USB_MIDI_IN_BUFF_SIZE > 0) )
 576:Generated_Source\PSoC5/USB_std.c ****                             if((pEP->bMisc == USB_CLASS_AUDIO) &&
 577:Generated_Source\PSoC5/USB_std.c ****                                (epType == USB_EP_TYPE_BULK))
 578:Generated_Source\PSoC5/USB_std.c ****                             {
 579:Generated_Source\PSoC5/USB_std.c ****                                 USB_midi_in_ep = cur_ep;
 580:Generated_Source\PSoC5/USB_std.c ****                             }
 581:Generated_Source\PSoC5/USB_std.c ****                         #endif  /*  USB_ENABLE_MIDI_STREAMING*/
 582:Generated_Source\PSoC5/USB_std.c ****                     }
 583:Generated_Source\PSoC5/USB_std.c ****                     else
 584:Generated_Source\PSoC5/USB_std.c ****                     {
 585:Generated_Source\PSoC5/USB_std.c ****                         /* OUT Endpoint */
 586:Generated_Source\PSoC5/USB_std.c ****                         USB_EP[cur_ep].apiEpState = USB_NO_EVENT_PENDING;
 587:Generated_Source\PSoC5/USB_std.c ****                         USB_EP[cur_ep].epMode = (epType == USB_EP_TYPE_ISOC) ?
 588:Generated_Source\PSoC5/USB_std.c ****                                                     USB_MODE_ISO_OUT : USB_MODE_ACK_OUT;
 589:Generated_Source\PSoC5/USB_std.c ****                         #if defined(USB_ENABLE_CDC_CLASS)
 590:Generated_Source\PSoC5/USB_std.c ****                             if(((pEP->bMisc == USB_CLASS_CDC_DATA) ||
 591:Generated_Source\PSoC5/USB_std.c ****                                 (pEP->bMisc == USB_CLASS_CDC)) &&
 592:Generated_Source\PSoC5/USB_std.c ****                                 (epType != USB_EP_TYPE_INT))
 593:Generated_Source\PSoC5/USB_std.c ****                             {
 594:Generated_Source\PSoC5/USB_std.c ****                                 USB_cdc_data_out_ep = cur_ep;
 595:Generated_Source\PSoC5/USB_std.c ****                             }
 596:Generated_Source\PSoC5/USB_std.c ****                         #endif  /*  USB_ENABLE_CDC_CLASS*/
 597:Generated_Source\PSoC5/USB_std.c ****                         #if ( defined(USB_ENABLE_MIDI_STREAMING) && \
 598:Generated_Source\PSoC5/USB_std.c ****                                      (USB_MIDI_OUT_BUFF_SIZE > 0) )
 599:Generated_Source\PSoC5/USB_std.c ****                             if((pEP->bMisc == USB_CLASS_AUDIO) &&
 600:Generated_Source\PSoC5/USB_std.c ****                                (epType == USB_EP_TYPE_BULK))
 601:Generated_Source\PSoC5/USB_std.c ****                             {
 602:Generated_Source\PSoC5/USB_std.c ****                                 USB_midi_out_ep = cur_ep;
ARM GAS  C:\Users\mgronber\AppData\Local\Temp\ccohOFIJ.s 			page 12


 603:Generated_Source\PSoC5/USB_std.c ****                             }
 604:Generated_Source\PSoC5/USB_std.c ****                         #endif  /*  USB_ENABLE_MIDI_STREAMING*/
 605:Generated_Source\PSoC5/USB_std.c ****                     }
 606:Generated_Source\PSoC5/USB_std.c ****                     USB_EP[cur_ep].bufferSize = pEP->bufferSize;
 607:Generated_Source\PSoC5/USB_std.c ****                     USB_EP[cur_ep].addr = pEP->addr;
 608:Generated_Source\PSoC5/USB_std.c ****                     USB_EP[cur_ep].attrib = pEP->attributes;
 609:Generated_Source\PSoC5/USB_std.c ****                 }
 610:Generated_Source\PSoC5/USB_std.c ****                 pEP = &pEP[1u];
 611:Generated_Source\PSoC5/USB_std.c ****             }
 612:Generated_Source\PSoC5/USB_std.c ****         #else /* Configure for static EP memory allocation  */
 613:Generated_Source\PSoC5/USB_std.c ****             for (i = USB_EP1; i < USB_MAX_EP; i++)
 614:Generated_Source\PSoC5/USB_std.c ****             {
 615:Generated_Source\PSoC5/USB_std.c ****                 /* p_list points the endpoint setting table. */
 616:Generated_Source\PSoC5/USB_std.c ****                 pEP = (const T_USB_EP_SETTINGS_BLOCK CYCODE *) pTmp->p_list;
 617:Generated_Source\PSoC5/USB_std.c ****                 /* Find max length for each EP and select it (length could be different in differen
 618:Generated_Source\PSoC5/USB_std.c ****                 /* but other settings should be correct with regards to Interface alt Setting */
 619:Generated_Source\PSoC5/USB_std.c ****                 for (cur_ep = 0u; cur_ep < ep; cur_ep++)
 620:Generated_Source\PSoC5/USB_std.c ****                 {
 621:Generated_Source\PSoC5/USB_std.c ****                     /* EP count is equal to EP # in table and we found larger EP length than have b
 622:Generated_Source\PSoC5/USB_std.c ****                     if(i == (pEP->addr & USB_DIR_UNUSED))
 623:Generated_Source\PSoC5/USB_std.c ****                     {
 624:Generated_Source\PSoC5/USB_std.c ****                         if(USB_EP[i].bufferSize < pEP->bufferSize)
 625:Generated_Source\PSoC5/USB_std.c ****                         {
 626:Generated_Source\PSoC5/USB_std.c ****                             USB_EP[i].bufferSize = pEP->bufferSize;
 627:Generated_Source\PSoC5/USB_std.c ****                         }
 628:Generated_Source\PSoC5/USB_std.c ****                         /* Compare current Alternate setting with EP Alt*/
 629:Generated_Source\PSoC5/USB_std.c ****                         if(USB_interfaceSetting[pEP->interface] == pEP->altSetting)
 630:Generated_Source\PSoC5/USB_std.c ****                         {
 631:Generated_Source\PSoC5/USB_std.c ****                             epType = pEP->attributes & USB_EP_TYPE_MASK;
 632:Generated_Source\PSoC5/USB_std.c ****                             if ((pEP->addr & USB_DIR_IN) != 0u)
 633:Generated_Source\PSoC5/USB_std.c ****                             {
 634:Generated_Source\PSoC5/USB_std.c ****                                 /* IN Endpoint */
 635:Generated_Source\PSoC5/USB_std.c ****                                 USB_EP[i].apiEpState = USB_EVENT_PENDING;
 636:Generated_Source\PSoC5/USB_std.c ****                                 USB_EP[i].epMode = (epType == USB_EP_TYPE_ISOC) ?
 637:Generated_Source\PSoC5/USB_std.c ****                                                         USB_MODE_ISO_IN : USB_MODE_ACK_IN;
 638:Generated_Source\PSoC5/USB_std.c ****                                 /* Find and initialize CDC IN endpoint number */
 639:Generated_Source\PSoC5/USB_std.c ****                                 #if defined(USB_ENABLE_CDC_CLASS)
 640:Generated_Source\PSoC5/USB_std.c ****                                     if(((pEP->bMisc == USB_CLASS_CDC_DATA) ||
 641:Generated_Source\PSoC5/USB_std.c ****                                         (pEP->bMisc == USB_CLASS_CDC)) &&
 642:Generated_Source\PSoC5/USB_std.c ****                                         (epType != USB_EP_TYPE_INT))
 643:Generated_Source\PSoC5/USB_std.c ****                                     {
 644:Generated_Source\PSoC5/USB_std.c ****                                         USB_cdc_data_in_ep = i;
 645:Generated_Source\PSoC5/USB_std.c ****                                     }
 646:Generated_Source\PSoC5/USB_std.c ****                                 #endif  /*  USB_ENABLE_CDC_CLASS*/
 647:Generated_Source\PSoC5/USB_std.c ****                                 #if ( defined(USB_ENABLE_MIDI_STREAMING) && \
 648:Generated_Source\PSoC5/USB_std.c ****                                              (USB_MIDI_IN_BUFF_SIZE > 0) )
 649:Generated_Source\PSoC5/USB_std.c ****                                     if((pEP->bMisc == USB_CLASS_AUDIO) &&
 650:Generated_Source\PSoC5/USB_std.c ****                                        (epType == USB_EP_TYPE_BULK))
 651:Generated_Source\PSoC5/USB_std.c ****                                     {
 652:Generated_Source\PSoC5/USB_std.c ****                                         USB_midi_in_ep = i;
 653:Generated_Source\PSoC5/USB_std.c ****                                     }
 654:Generated_Source\PSoC5/USB_std.c ****                                 #endif  /*  USB_ENABLE_MIDI_STREAMING*/
 655:Generated_Source\PSoC5/USB_std.c ****                             }
 656:Generated_Source\PSoC5/USB_std.c ****                             else
 657:Generated_Source\PSoC5/USB_std.c ****                             {
 658:Generated_Source\PSoC5/USB_std.c ****                                 /* OUT Endpoint */
 659:Generated_Source\PSoC5/USB_std.c ****                                 USB_EP[i].apiEpState = USB_NO_EVENT_PENDING;
ARM GAS  C:\Users\mgronber\AppData\Local\Temp\ccohOFIJ.s 			page 13


 660:Generated_Source\PSoC5/USB_std.c ****                                 USB_EP[i].epMode = (epType == USB_EP_TYPE_ISOC) ?
 661:Generated_Source\PSoC5/USB_std.c ****                                                     USB_MODE_ISO_OUT : USB_MODE_ACK_OUT;
 662:Generated_Source\PSoC5/USB_std.c ****                                 /* Find and initialize CDC IN endpoint number */
 663:Generated_Source\PSoC5/USB_std.c ****                                 #if defined(USB_ENABLE_CDC_CLASS)
 664:Generated_Source\PSoC5/USB_std.c ****                                     if(((pEP->bMisc == USB_CLASS_CDC_DATA) ||
 665:Generated_Source\PSoC5/USB_std.c ****                                         (pEP->bMisc == USB_CLASS_CDC)) &&
 666:Generated_Source\PSoC5/USB_std.c ****                                         (epType != USB_EP_TYPE_INT))
 667:Generated_Source\PSoC5/USB_std.c ****                                     {
 668:Generated_Source\PSoC5/USB_std.c ****                                         USB_cdc_data_out_ep = i;
 669:Generated_Source\PSoC5/USB_std.c ****                                     }
 670:Generated_Source\PSoC5/USB_std.c ****                                 #endif  /*  USB_ENABLE_CDC_CLASS*/
 671:Generated_Source\PSoC5/USB_std.c ****                                 #if ( defined(USB_ENABLE_MIDI_STREAMING) && \
 672:Generated_Source\PSoC5/USB_std.c ****                                              (USB_MIDI_OUT_BUFF_SIZE > 0) )
 673:Generated_Source\PSoC5/USB_std.c ****                                     if((pEP->bMisc == USB_CLASS_AUDIO) &&
 674:Generated_Source\PSoC5/USB_std.c ****                                        (epType == USB_EP_TYPE_BULK))
 675:Generated_Source\PSoC5/USB_std.c ****                                     {
 676:Generated_Source\PSoC5/USB_std.c ****                                         USB_midi_out_ep = i;
 677:Generated_Source\PSoC5/USB_std.c ****                                     }
 678:Generated_Source\PSoC5/USB_std.c ****                                 #endif  /*  USB_ENABLE_MIDI_STREAMING*/
 679:Generated_Source\PSoC5/USB_std.c ****                             }
 680:Generated_Source\PSoC5/USB_std.c ****                             USB_EP[i].addr = pEP->addr;
 681:Generated_Source\PSoC5/USB_std.c ****                             USB_EP[i].attrib = pEP->attributes;
 682:Generated_Source\PSoC5/USB_std.c **** 
 683:Generated_Source\PSoC5/USB_std.c ****                             #if(USB_EP_MM == USB__EP_DMAAUTO)
 684:Generated_Source\PSoC5/USB_std.c ****                                 break;      /* use first EP setting in Auto memory managment */
 685:Generated_Source\PSoC5/USB_std.c ****                             #endif /*  USB_EP_MM == USB__EP_DMAAUTO */
 686:Generated_Source\PSoC5/USB_std.c ****                         }
 687:Generated_Source\PSoC5/USB_std.c ****                     }
 688:Generated_Source\PSoC5/USB_std.c ****                     pEP = &pEP[1u];
 689:Generated_Source\PSoC5/USB_std.c ****                 }
 690:Generated_Source\PSoC5/USB_std.c ****             }
 691:Generated_Source\PSoC5/USB_std.c ****         #endif /*  (USB_EP_MA == USB__MA_DYNAMIC) */
 692:Generated_Source\PSoC5/USB_std.c **** 
 693:Generated_Source\PSoC5/USB_std.c ****         /* Init class array for each interface and interface number for each EP.
 694:Generated_Source\PSoC5/USB_std.c ****         *  It is used for handling Class specific requests directed to either an
 695:Generated_Source\PSoC5/USB_std.c ****         *  interface or the endpoint.
 696:Generated_Source\PSoC5/USB_std.c ****         */
 697:Generated_Source\PSoC5/USB_std.c ****         /* p_list points the endpoint setting table. */
 698:Generated_Source\PSoC5/USB_std.c ****         pEP = (const T_USB_EP_SETTINGS_BLOCK CYCODE *) pTmp->p_list;
 699:Generated_Source\PSoC5/USB_std.c ****         for (i = 0u; i < ep; i++)
 700:Generated_Source\PSoC5/USB_std.c ****         {
 701:Generated_Source\PSoC5/USB_std.c ****             /* Configure interface number for each EP*/
 702:Generated_Source\PSoC5/USB_std.c ****             USB_EP[pEP->addr & USB_DIR_UNUSED].interface = pEP->interface;
 703:Generated_Source\PSoC5/USB_std.c ****             pEP = &pEP[1u];
 704:Generated_Source\PSoC5/USB_std.c ****         }
 705:Generated_Source\PSoC5/USB_std.c ****         /* Init pointer on interface class table*/
 706:Generated_Source\PSoC5/USB_std.c ****         USB_interfaceClass = USB_GetInterfaceClassTablePtr();
 707:Generated_Source\PSoC5/USB_std.c ****         /* Set the endpoint buffer addresses */
 708:Generated_Source\PSoC5/USB_std.c **** 
 709:Generated_Source\PSoC5/USB_std.c ****         #if(USB_EP_MM != USB__EP_DMAAUTO)
 710:Generated_Source\PSoC5/USB_std.c ****             for (ep = USB_EP1; ep < USB_MAX_EP; ep++)
 711:Generated_Source\PSoC5/USB_std.c ****             {
 712:Generated_Source\PSoC5/USB_std.c ****                 USB_EP[ep].buffOffset = buffCount;
 713:Generated_Source\PSoC5/USB_std.c ****                  buffCount += USB_EP[ep].bufferSize;
 714:Generated_Source\PSoC5/USB_std.c ****             }
 715:Generated_Source\PSoC5/USB_std.c ****         #endif /*  USB_EP_MM != USB__EP_DMAAUTO */
 716:Generated_Source\PSoC5/USB_std.c **** 
ARM GAS  C:\Users\mgronber\AppData\Local\Temp\ccohOFIJ.s 			page 14


 717:Generated_Source\PSoC5/USB_std.c ****         /* Configure hardware registers */
 718:Generated_Source\PSoC5/USB_std.c ****         USB_ConfigReg();
 719:Generated_Source\PSoC5/USB_std.c ****     } /* USB_configuration > 0 */
 720:Generated_Source\PSoC5/USB_std.c **** }
 721:Generated_Source\PSoC5/USB_std.c **** 
 722:Generated_Source\PSoC5/USB_std.c **** 
 723:Generated_Source\PSoC5/USB_std.c **** /*******************************************************************************
 724:Generated_Source\PSoC5/USB_std.c **** * Function Name: USB_ConfigAltChanged
 725:Generated_Source\PSoC5/USB_std.c **** ********************************************************************************
 726:Generated_Source\PSoC5/USB_std.c **** *
 727:Generated_Source\PSoC5/USB_std.c **** * Summary:
 728:Generated_Source\PSoC5/USB_std.c **** *  This routine update configuration for the required endpoints only.
 729:Generated_Source\PSoC5/USB_std.c **** *  It is called after SET_INTERFACE request when Static memory allocation used.
 730:Generated_Source\PSoC5/USB_std.c **** *
 731:Generated_Source\PSoC5/USB_std.c **** * Parameters:
 732:Generated_Source\PSoC5/USB_std.c **** *  None.
 733:Generated_Source\PSoC5/USB_std.c **** *
 734:Generated_Source\PSoC5/USB_std.c **** * Return:
 735:Generated_Source\PSoC5/USB_std.c **** *  None.
 736:Generated_Source\PSoC5/USB_std.c **** *
 737:Generated_Source\PSoC5/USB_std.c **** * Reentrant:
 738:Generated_Source\PSoC5/USB_std.c **** *  No.
 739:Generated_Source\PSoC5/USB_std.c **** *
 740:Generated_Source\PSoC5/USB_std.c **** *******************************************************************************/
 741:Generated_Source\PSoC5/USB_std.c **** void USB_ConfigAltChanged(void) 
  26              		.loc 1 741 0
  27              		.cfi_startproc
  28              		@ args = 0, pretend = 0, frame = 8
  29              		@ frame_needed = 0, uses_anonymous_args = 0
 742:Generated_Source\PSoC5/USB_std.c **** {
 743:Generated_Source\PSoC5/USB_std.c ****     uint8 ep;
 744:Generated_Source\PSoC5/USB_std.c ****     uint8 cur_ep;
 745:Generated_Source\PSoC5/USB_std.c ****     uint8 i;
 746:Generated_Source\PSoC5/USB_std.c ****     uint8 epType;
 747:Generated_Source\PSoC5/USB_std.c ****     uint8 ri;
 748:Generated_Source\PSoC5/USB_std.c **** 
 749:Generated_Source\PSoC5/USB_std.c ****     const T_USB_LUT CYCODE *pTmp;
 750:Generated_Source\PSoC5/USB_std.c ****     const T_USB_EP_SETTINGS_BLOCK CYCODE *pEP;
 751:Generated_Source\PSoC5/USB_std.c **** 
 752:Generated_Source\PSoC5/USB_std.c **** 
 753:Generated_Source\PSoC5/USB_std.c ****     /* Init Endpoints and Device Status if configured */
 754:Generated_Source\PSoC5/USB_std.c ****     if(USB_configuration > 0u)
 755:Generated_Source\PSoC5/USB_std.c ****     {
 756:Generated_Source\PSoC5/USB_std.c ****         pTmp = USB_GetConfigTablePtr(USB_configuration - 1u);
  30              		.loc 1 756 0
  31 0000 604B     		ldr	r3, .L20
  32              	.LBB22:
  33              	.LBB23:
 757:Generated_Source\PSoC5/USB_std.c ****         pTmp = &pTmp[1u];
 758:Generated_Source\PSoC5/USB_std.c ****         ep = pTmp->c;  /* For this table, c is the number of endpoints configurations  */
 759:Generated_Source\PSoC5/USB_std.c **** 
 760:Generated_Source\PSoC5/USB_std.c ****         /* Do not touch EP which doesn't need reconfiguration */
 761:Generated_Source\PSoC5/USB_std.c ****         /* When Alt setting changed, the only required endpoints need to be reconfigured */
 762:Generated_Source\PSoC5/USB_std.c ****         /* p_list points the endpoint setting table. */
 763:Generated_Source\PSoC5/USB_std.c ****         pEP = (const T_USB_EP_SETTINGS_BLOCK CYCODE *) pTmp->p_list;
 764:Generated_Source\PSoC5/USB_std.c ****         for (i = 0u; i < ep; i++)
 765:Generated_Source\PSoC5/USB_std.c ****         {
ARM GAS  C:\Users\mgronber\AppData\Local\Temp\ccohOFIJ.s 			page 15


 766:Generated_Source\PSoC5/USB_std.c ****             /*If Alt setting changed and new is same with EP Alt */
 767:Generated_Source\PSoC5/USB_std.c ****             if((USB_interfaceSetting[pEP->interface] !=
 768:Generated_Source\PSoC5/USB_std.c ****                 USB_interfaceSetting_last[pEP->interface] ) &&
 769:Generated_Source\PSoC5/USB_std.c ****                (USB_interfaceSetting[pEP->interface] == pEP->altSetting) &&
 770:Generated_Source\PSoC5/USB_std.c ****                (pEP->interface == CY_GET_REG8(USB_wIndexLo)))
 771:Generated_Source\PSoC5/USB_std.c ****             {
 772:Generated_Source\PSoC5/USB_std.c ****                 cur_ep = pEP->addr & USB_DIR_UNUSED;
 773:Generated_Source\PSoC5/USB_std.c ****                 ri = ((cur_ep - USB_EP1) << USB_EPX_CNTX_ADDR_SHIFT);
 774:Generated_Source\PSoC5/USB_std.c ****                 epType = pEP->attributes & USB_EP_TYPE_MASK;
 775:Generated_Source\PSoC5/USB_std.c ****                 if ((pEP->addr & USB_DIR_IN) != 0u)
 776:Generated_Source\PSoC5/USB_std.c ****                 {
 777:Generated_Source\PSoC5/USB_std.c ****                     /* IN Endpoint */
 778:Generated_Source\PSoC5/USB_std.c ****                     USB_EP[cur_ep].apiEpState = USB_EVENT_PENDING;
 779:Generated_Source\PSoC5/USB_std.c ****                     USB_EP[cur_ep].epMode = (epType == USB_EP_TYPE_ISOC) ?
 780:Generated_Source\PSoC5/USB_std.c ****                                                 USB_MODE_ISO_IN : USB_MODE_ACK_IN;
 781:Generated_Source\PSoC5/USB_std.c ****                 }
 782:Generated_Source\PSoC5/USB_std.c ****                 else
 783:Generated_Source\PSoC5/USB_std.c ****                 {
 784:Generated_Source\PSoC5/USB_std.c ****                     /* OUT Endpoint */
 785:Generated_Source\PSoC5/USB_std.c ****                     USB_EP[cur_ep].apiEpState = USB_NO_EVENT_PENDING;
 786:Generated_Source\PSoC5/USB_std.c ****                     USB_EP[cur_ep].epMode = (epType == USB_EP_TYPE_ISOC) ?
 787:Generated_Source\PSoC5/USB_std.c ****                                                 USB_MODE_ISO_OUT : USB_MODE_ACK_OUT;
 788:Generated_Source\PSoC5/USB_std.c ****                 }
 789:Generated_Source\PSoC5/USB_std.c ****                  /* Change the SIE mode for the selected EP to NAK ALL */
 790:Generated_Source\PSoC5/USB_std.c ****                  CY_SET_REG8((reg8 *)(USB_SIE_EP1_CR0_IND + ri), USB_MODE_NAK_IN_OUT);
 791:Generated_Source\PSoC5/USB_std.c ****                 USB_EP[cur_ep].bufferSize = pEP->bufferSize;
 792:Generated_Source\PSoC5/USB_std.c ****                 USB_EP[cur_ep].addr = pEP->addr;
 793:Generated_Source\PSoC5/USB_std.c ****                 USB_EP[cur_ep].attrib = pEP->attributes;
 794:Generated_Source\PSoC5/USB_std.c **** 
 795:Generated_Source\PSoC5/USB_std.c ****                 /* Clear the data toggle */
 796:Generated_Source\PSoC5/USB_std.c ****                 USB_EP[cur_ep].epToggle = 0u;
 797:Generated_Source\PSoC5/USB_std.c **** 
 798:Generated_Source\PSoC5/USB_std.c ****                 /* Dynamic reconfiguration for mode 3 transfer */
 799:Generated_Source\PSoC5/USB_std.c ****             #if(USB_EP_MM == USB__EP_DMAAUTO)
 800:Generated_Source\PSoC5/USB_std.c ****                 /* In_data_rdy for selected EP should be set to 0 */
 801:Generated_Source\PSoC5/USB_std.c ****                 * (reg8 *)(USB_ARB_EP1_CFG_IND + ri) &= (uint8)~USB_ARB_EPX_CFG_IN_DATA_RDY;
 802:Generated_Source\PSoC5/USB_std.c **** 
 803:Generated_Source\PSoC5/USB_std.c ****                 /* write the EP number for which reconfiguration is required */
 804:Generated_Source\PSoC5/USB_std.c ****                 USB_DYN_RECONFIG_REG = (cur_ep - USB_EP1) <<
 805:Generated_Source\PSoC5/USB_std.c ****                                                     USB_DYN_RECONFIG_EP_SHIFT;
 806:Generated_Source\PSoC5/USB_std.c ****                 /* Set the dyn_config_en bit in dynamic reconfiguration register */
 807:Generated_Source\PSoC5/USB_std.c ****                 USB_DYN_RECONFIG_REG |= USB_DYN_RECONFIG_ENABLE;
 808:Generated_Source\PSoC5/USB_std.c ****                 /* wait for the dyn_config_rdy bit to set by the block,
 809:Generated_Source\PSoC5/USB_std.c ****                 *  this bit will be set to 1 when block is ready for reconfiguration.
 810:Generated_Source\PSoC5/USB_std.c ****                 */
 811:Generated_Source\PSoC5/USB_std.c ****                 while((USB_DYN_RECONFIG_REG & USB_DYN_RECONFIG_RDY_STS) == 0u)
 812:Generated_Source\PSoC5/USB_std.c ****                 {
 813:Generated_Source\PSoC5/USB_std.c ****                     ;
 814:Generated_Source\PSoC5/USB_std.c ****                 }
 815:Generated_Source\PSoC5/USB_std.c ****                 /* Once dyn_config_rdy bit is set, FW can change the EP configuration. */
 816:Generated_Source\PSoC5/USB_std.c ****                 /* Change EP Type with new direction */
 817:Generated_Source\PSoC5/USB_std.c ****                 if((pEP->addr & USB_DIR_IN) == 0u)
 818:Generated_Source\PSoC5/USB_std.c ****                 {
 819:Generated_Source\PSoC5/USB_std.c ****                     USB_EP_TYPE_REG |= (uint8)(0x01u << (cur_ep - USB_EP1));
 820:Generated_Source\PSoC5/USB_std.c ****                 }
 821:Generated_Source\PSoC5/USB_std.c ****                 else
 822:Generated_Source\PSoC5/USB_std.c ****                 {
ARM GAS  C:\Users\mgronber\AppData\Local\Temp\ccohOFIJ.s 			page 16


 823:Generated_Source\PSoC5/USB_std.c ****                     USB_EP_TYPE_REG &= (uint8)~(uint8)(0x01u << (cur_ep - USB_EP1));
 824:Generated_Source\PSoC5/USB_std.c ****                 }
 825:Generated_Source\PSoC5/USB_std.c ****                 /* dynamic reconfiguration enable bit cleared, pointers and control/status
 826:Generated_Source\PSoC5/USB_std.c ****                 *  signals for the selected EP is cleared/re-initialized on negative edge
 827:Generated_Source\PSoC5/USB_std.c ****                 *  of dynamic reconfiguration enable bit).
 828:Generated_Source\PSoC5/USB_std.c ****                 */
 829:Generated_Source\PSoC5/USB_std.c ****                 USB_DYN_RECONFIG_REG &= (uint8)~USB_DYN_RECONFIG_ENABLE;
 830:Generated_Source\PSoC5/USB_std.c ****                 /* The main loop has to re-enable DMA and OUT endpoint*/
 831:Generated_Source\PSoC5/USB_std.c ****             #else
 832:Generated_Source\PSoC5/USB_std.c ****                 CY_SET_REG8((reg8 *)(USB_SIE_EP1_CNT0_IND + ri),
 833:Generated_Source\PSoC5/USB_std.c ****                                                                 USB_EP[cur_ep].bufferSize >> 8u);
 834:Generated_Source\PSoC5/USB_std.c ****                 CY_SET_REG8((reg8 *)(USB_SIE_EP1_CNT1_IND + ri),
 835:Generated_Source\PSoC5/USB_std.c ****                                                                 USB_EP[cur_ep].bufferSize & 0xFFu);
 836:Generated_Source\PSoC5/USB_std.c ****                 CY_SET_REG8((reg8 *)(USB_ARB_RW1_RA_IND + ri),
 837:Generated_Source\PSoC5/USB_std.c ****                                                                 USB_EP[cur_ep].buffOffset & 0xFFu);
 838:Generated_Source\PSoC5/USB_std.c ****                 CY_SET_REG8((reg8 *)(USB_ARB_RW1_RA_MSB_IND + ri),
 839:Generated_Source\PSoC5/USB_std.c ****                                                                 USB_EP[cur_ep].buffOffset >> 8u);
 840:Generated_Source\PSoC5/USB_std.c ****                 CY_SET_REG8((reg8 *)(USB_ARB_RW1_WA_IND + ri),
 841:Generated_Source\PSoC5/USB_std.c ****                                                                 USB_EP[cur_ep].buffOffset & 0xFFu);
 842:Generated_Source\PSoC5/USB_std.c ****                 CY_SET_REG8((reg8 *)(USB_ARB_RW1_WA_MSB_IND + ri),
 843:Generated_Source\PSoC5/USB_std.c ****                                                                 USB_EP[cur_ep].buffOffset >> 8u);
 844:Generated_Source\PSoC5/USB_std.c ****             #endif /*  USB_EP_MM == USB__EP_DMAAUTO */
 845:Generated_Source\PSoC5/USB_std.c ****             }
 846:Generated_Source\PSoC5/USB_std.c ****             /* Get next EP element */
 847:Generated_Source\PSoC5/USB_std.c ****             pEP = &pEP[1u];
 848:Generated_Source\PSoC5/USB_std.c ****         }
 849:Generated_Source\PSoC5/USB_std.c ****     }   /* USB_configuration > 0 */
 850:Generated_Source\PSoC5/USB_std.c **** }
 851:Generated_Source\PSoC5/USB_std.c **** 
 852:Generated_Source\PSoC5/USB_std.c **** 
 853:Generated_Source\PSoC5/USB_std.c **** /*******************************************************************************
 854:Generated_Source\PSoC5/USB_std.c **** * Function Name: USB_GetConfigTablePtr
 855:Generated_Source\PSoC5/USB_std.c **** ********************************************************************************
 856:Generated_Source\PSoC5/USB_std.c **** *
 857:Generated_Source\PSoC5/USB_std.c **** * Summary:
 858:Generated_Source\PSoC5/USB_std.c **** *  This routine returns a pointer a configuration table entry
 859:Generated_Source\PSoC5/USB_std.c **** *
 860:Generated_Source\PSoC5/USB_std.c **** * Parameters:
 861:Generated_Source\PSoC5/USB_std.c **** *  confIndex:  Configuration Index
 862:Generated_Source\PSoC5/USB_std.c **** *
 863:Generated_Source\PSoC5/USB_std.c **** * Return:
 864:Generated_Source\PSoC5/USB_std.c **** *  Device Descriptor pointer or NULL when descriptor isn't exists.
 865:Generated_Source\PSoC5/USB_std.c **** *
 866:Generated_Source\PSoC5/USB_std.c **** *******************************************************************************/
 867:Generated_Source\PSoC5/USB_std.c **** const T_USB_LUT CYCODE *USB_GetConfigTablePtr(uint8 confIndex)
 868:Generated_Source\PSoC5/USB_std.c ****                                                         
 869:Generated_Source\PSoC5/USB_std.c **** {
 870:Generated_Source\PSoC5/USB_std.c ****     /* Device Table */
 871:Generated_Source\PSoC5/USB_std.c ****     const T_USB_LUT CYCODE *pTmp;
 872:Generated_Source\PSoC5/USB_std.c **** 
 873:Generated_Source\PSoC5/USB_std.c ****     pTmp = (const T_USB_LUT CYCODE *) USB_TABLE[USB_device].p_list;
  34              		.loc 1 873 0
  35 0002 6149     		ldr	r1, .L20+4
  36              	.LBE23:
  37              	.LBE22:
 756:Generated_Source\PSoC5/USB_std.c ****         pTmp = &pTmp[1u];
  38              		.loc 1 756 0
ARM GAS  C:\Users\mgronber\AppData\Local\Temp\ccohOFIJ.s 			page 17


  39 0004 1B78     		ldrb	r3, [r3]	@ zero_extendqisi2
  40              	.LBB27:
  41              	.LBB24:
  42              		.loc 1 873 0
  43 0006 614A     		ldr	r2, .L20+8
  44 0008 0978     		ldrb	r1, [r1]	@ zero_extendqisi2
  45              	.LBE24:
  46              	.LBE27:
 756:Generated_Source\PSoC5/USB_std.c ****         pTmp = &pTmp[1u];
  47              		.loc 1 756 0
  48 000a 013B     		subs	r3, r3, #1
  49              	.LBB28:
  50              	.LBB25:
  51              		.loc 1 873 0
  52 000c 02EBC102 		add	r2, r2, r1, lsl #3
  53 0010 5268     		ldr	r2, [r2, #4]
  54              	.LBE25:
  55              	.LBE28:
 756:Generated_Source\PSoC5/USB_std.c ****         pTmp = &pTmp[1u];
  56              		.loc 1 756 0
  57 0012 DBB2     		uxtb	r3, r3
  58              	.LVL0:
  59              	.LBB29:
  60              	.LBB26:
 874:Generated_Source\PSoC5/USB_std.c **** 
 875:Generated_Source\PSoC5/USB_std.c ****     /* The first entry points to the Device Descriptor,
 876:Generated_Source\PSoC5/USB_std.c ****     *  the rest configuration entries.
 877:Generated_Source\PSoC5/USB_std.c ****     *  Set pointer to the first Configuration Descriptor
 878:Generated_Source\PSoC5/USB_std.c ****     */
 879:Generated_Source\PSoC5/USB_std.c ****     pTmp = &pTmp[1u];
 880:Generated_Source\PSoC5/USB_std.c ****     /* For this table, c is the number of configuration descriptors  */
 881:Generated_Source\PSoC5/USB_std.c ****     if(confIndex >= pTmp->c)   /* Verify that required configuration descriptor exists */
  61              		.loc 1 881 0
  62 0014 117A     		ldrb	r1, [r2, #8]	@ zero_extendqisi2
  63 0016 9942     		cmp	r1, r3
  64 0018 40F29B80 		bls	.L2
 882:Generated_Source\PSoC5/USB_std.c ****     {
 883:Generated_Source\PSoC5/USB_std.c ****         pTmp = (const T_USB_LUT CYCODE *) NULL;
 884:Generated_Source\PSoC5/USB_std.c ****     }
 885:Generated_Source\PSoC5/USB_std.c ****     else
 886:Generated_Source\PSoC5/USB_std.c ****     {
 887:Generated_Source\PSoC5/USB_std.c ****         pTmp = (const T_USB_LUT CYCODE *) pTmp[confIndex].p_list;
  65              		.loc 1 887 0
  66 001c 02EBC303 		add	r3, r2, r3, lsl #3
  67              	.LVL1:
  68 0020 DB68     		ldr	r3, [r3, #12]
  69              	.LVL2:
  70              	.LBE26:
  71              	.LBE29:
 758:Generated_Source\PSoC5/USB_std.c **** 
  72              		.loc 1 758 0
  73 0022 1A7A     		ldrb	r2, [r3, #8]	@ zero_extendqisi2
  74              	.LVL3:
 763:Generated_Source\PSoC5/USB_std.c ****         for (i = 0u; i < ep; i++)
  75              		.loc 1 763 0
  76 0024 DB68     		ldr	r3, [r3, #12]
  77              	.LVL4:
ARM GAS  C:\Users\mgronber\AppData\Local\Temp\ccohOFIJ.s 			page 18


 764:Generated_Source\PSoC5/USB_std.c ****         {
  78              		.loc 1 764 0
  79 0026 002A     		cmp	r2, #0
  80 0028 00F0AA80 		beq	.L15
 741:Generated_Source\PSoC5/USB_std.c **** {
  81              		.loc 1 741 0
  82 002c 2DE9F04F 		push	{r4, r5, r6, r7, r8, r9, r10, fp, lr}
  83              		.cfi_def_cfa_offset 36
  84              		.cfi_offset 4, -36
  85              		.cfi_offset 5, -32
  86              		.cfi_offset 6, -28
  87              		.cfi_offset 7, -24
  88              		.cfi_offset 8, -20
  89              		.cfi_offset 9, -16
  90              		.cfi_offset 10, -12
  91              		.cfi_offset 11, -8
  92              		.cfi_offset 14, -4
  93 0030 013A     		subs	r2, r2, #1
  94              	.LVL5:
  95 0032 5749     		ldr	r1, .L20+12
  96 0034 D2B2     		uxtb	r2, r2
  97              	.LVL6:
  98 0036 0232     		adds	r2, r2, #2
  99 0038 03EBC202 		add	r2, r3, r2, lsl #3
 100 003c 83B0     		sub	sp, sp, #12
 101              		.cfi_def_cfa_offset 48
 767:Generated_Source\PSoC5/USB_std.c ****                 USB_interfaceSetting_last[pEP->interface] ) &&
 102              		.loc 1 767 0
 103 003e 0C46     		mov	r4, r1
 104 0040 5448     		ldr	r0, .L20+16
 770:Generated_Source\PSoC5/USB_std.c ****             {
 105              		.loc 1 770 0
 106 0042 DFF86CE1 		ldr	lr, .L20+44
 107 0046 0833     		adds	r3, r3, #8
 108              	.LVL7:
 790:Generated_Source\PSoC5/USB_std.c ****                 USB_EP[cur_ep].bufferSize = pEP->bufferSize;
 109              		.loc 1 790 0
 110 0048 4FF0010A 		mov	r10, #1
 796:Generated_Source\PSoC5/USB_std.c **** 
 111              		.loc 1 796 0
 112 004c 4FF00009 		mov	r9, #0
 113 0050 02E0     		b	.L9
 114              	.LVL8:
 115              	.L4:
 116 0052 0833     		adds	r3, r3, #8
 117              	.LVL9:
 764:Generated_Source\PSoC5/USB_std.c ****         {
 118              		.loc 1 764 0
 119 0054 9342     		cmp	r3, r2
 120 0056 79D0     		beq	.L18
 121              	.LVL10:
 122              	.L9:
 767:Generated_Source\PSoC5/USB_std.c ****                 USB_interfaceSetting_last[pEP->interface] ) &&
 123              		.loc 1 767 0
 124 0058 13F8085C 		ldrb	r5, [r3, #-8]	@ zero_extendqisi2
 125 005c 4F5D     		ldrb	r7, [r1, r5]	@ zero_extendqisi2
 768:Generated_Source\PSoC5/USB_std.c ****                (USB_interfaceSetting[pEP->interface] == pEP->altSetting) &&
ARM GAS  C:\Users\mgronber\AppData\Local\Temp\ccohOFIJ.s 			page 19


 126              		.loc 1 768 0
 127 005e 465D     		ldrb	r6, [r0, r5]	@ zero_extendqisi2
 767:Generated_Source\PSoC5/USB_std.c ****                 USB_interfaceSetting_last[pEP->interface] ) &&
 128              		.loc 1 767 0
 129 0060 B742     		cmp	r7, r6
 130 0062 F6D0     		beq	.L4
 769:Generated_Source\PSoC5/USB_std.c ****                (pEP->interface == CY_GET_REG8(USB_wIndexLo)))
 131              		.loc 1 769 0
 132 0064 665D     		ldrb	r6, [r4, r5]	@ zero_extendqisi2
 768:Generated_Source\PSoC5/USB_std.c ****                (USB_interfaceSetting[pEP->interface] == pEP->altSetting) &&
 133              		.loc 1 768 0
 134 0066 13F8077C 		ldrb	r7, [r3, #-7]	@ zero_extendqisi2
 135 006a B742     		cmp	r7, r6
 136 006c F1D1     		bne	.L4
 770:Generated_Source\PSoC5/USB_std.c ****             {
 137              		.loc 1 770 0
 138 006e 9EF80060 		ldrb	r6, [lr]	@ zero_extendqisi2
 769:Generated_Source\PSoC5/USB_std.c ****                (pEP->interface == CY_GET_REG8(USB_wIndexLo)))
 139              		.loc 1 769 0
 140 0072 B542     		cmp	r5, r6
 141 0074 EDD1     		bne	.L4
 772:Generated_Source\PSoC5/USB_std.c ****                 ri = ((cur_ep - USB_EP1) << USB_EPX_CNTX_ADDR_SHIFT);
 142              		.loc 1 772 0
 143 0076 13F806CC 		ldrb	ip, [r3, #-6]	@ zero_extendqisi2
 774:Generated_Source\PSoC5/USB_std.c ****                 if ((pEP->addr & USB_DIR_IN) != 0u)
 144              		.loc 1 774 0
 145 007a 13F8056C 		ldrb	r6, [r3, #-5]	@ zero_extendqisi2
 772:Generated_Source\PSoC5/USB_std.c ****                 ri = ((cur_ep - USB_EP1) << USB_EPX_CNTX_ADDR_SHIFT);
 146              		.loc 1 772 0
 147 007e 0CF07F07 		and	r7, ip, #127
 148              	.LVL11:
 773:Generated_Source\PSoC5/USB_std.c ****                 epType = pEP->attributes & USB_EP_TYPE_MASK;
 149              		.loc 1 773 0
 150 0082 7D1E     		subs	r5, r7, #1
 151 0084 2D01     		lsls	r5, r5, #4
 775:Generated_Source\PSoC5/USB_std.c ****                 {
 152              		.loc 1 775 0
 153 0086 1CF0800F 		tst	ip, #128
 773:Generated_Source\PSoC5/USB_std.c ****                 epType = pEP->attributes & USB_EP_TYPE_MASK;
 154              		.loc 1 773 0
 155 008a EDB2     		uxtb	r5, r5
 156              	.LVL12:
 774:Generated_Source\PSoC5/USB_std.c ****                 if ((pEP->addr & USB_DIR_IN) != 0u)
 157              		.loc 1 774 0
 158 008c 06F00306 		and	r6, r6, #3
 159              	.LVL13:
 775:Generated_Source\PSoC5/USB_std.c ****                 {
 160              		.loc 1 775 0
 161 0090 62D1     		bne	.L19
 786:Generated_Source\PSoC5/USB_std.c ****                                                 USB_MODE_ISO_OUT : USB_MODE_ACK_OUT;
 162              		.loc 1 786 0
 163 0092 012E     		cmp	r6, #1
 785:Generated_Source\PSoC5/USB_std.c ****                     USB_EP[cur_ep].epMode = (epType == USB_EP_TYPE_ISOC) ?
 164              		.loc 1 785 0
 165 0094 4FEA4706 		lsl	r6, r7, #1
 166              	.LVL14:
 167 0098 06EB070C 		add	ip, r6, r7
ARM GAS  C:\Users\mgronber\AppData\Local\Temp\ccohOFIJ.s 			page 20


 168 009c 0196     		str	r6, [sp, #4]
 169 009e 3E4E     		ldr	r6, .L20+20
 786:Generated_Source\PSoC5/USB_std.c ****                                                 USB_MODE_ISO_OUT : USB_MODE_ACK_OUT;
 170              		.loc 1 786 0
 171 00a0 08BF     		it	eq
 172 00a2 4FF0050B 		moveq	fp, #5
 785:Generated_Source\PSoC5/USB_std.c ****                     USB_EP[cur_ep].epMode = (epType == USB_EP_TYPE_ISOC) ?
 173              		.loc 1 785 0
 174 00a6 B046     		mov	r8, r6
 175 00a8 06EB8C0C 		add	ip, r6, ip, lsl #2
 786:Generated_Source\PSoC5/USB_std.c ****                                                 USB_MODE_ISO_OUT : USB_MODE_ACK_OUT;
 176              		.loc 1 786 0
 177 00ac 18BF     		it	ne
 178 00ae 4FF0090B 		movne	fp, #9
 785:Generated_Source\PSoC5/USB_std.c ****                     USB_EP[cur_ep].epMode = (epType == USB_EP_TYPE_ISOC) ?
 179              		.loc 1 785 0
 180 00b2 8CF80190 		strb	r9, [ip, #1]
 181              	.LVL15:
 786:Generated_Source\PSoC5/USB_std.c ****                                                 USB_MODE_ISO_OUT : USB_MODE_ACK_OUT;
 182              		.loc 1 786 0
 183 00b6 8CF805B0 		strb	fp, [ip, #5]
 184              	.L7:
 790:Generated_Source\PSoC5/USB_std.c ****                 USB_EP[cur_ep].bufferSize = pEP->bufferSize;
 185              		.loc 1 790 0
 186 00ba DFF8F8C0 		ldr	ip, .L20+48
 791:Generated_Source\PSoC5/USB_std.c ****                 USB_EP[cur_ep].addr = pEP->addr;
 187              		.loc 1 791 0
 188 00be 019E     		ldr	r6, [sp, #4]
 790:Generated_Source\PSoC5/USB_std.c ****                 USB_EP[cur_ep].bufferSize = pEP->bufferSize;
 189              		.loc 1 790 0
 190 00c0 AC44     		add	ip, ip, r5
 191 00c2 8CF800A0 		strb	r10, [ip]
 791:Generated_Source\PSoC5/USB_std.c ****                 USB_EP[cur_ep].addr = pEP->addr;
 192              		.loc 1 791 0
 193 00c6 33F804CC 		ldrh	ip, [r3, #-4]
 194 00ca 3744     		add	r7, r7, r6
 195              	.LVL16:
 196 00cc 08EB8706 		add	r6, r8, r7, lsl #2
 197 00d0 A6F808C0 		strh	ip, [r6, #8]	@ movhi
 792:Generated_Source\PSoC5/USB_std.c ****                 USB_EP[cur_ep].attrib = pEP->attributes;
 198              		.loc 1 792 0
 199 00d4 13F806BC 		ldrb	fp, [r3, #-6]	@ zero_extendqisi2
 832:Generated_Source\PSoC5/USB_std.c ****                                                                 USB_EP[cur_ep].bufferSize >> 8u);
 200              		.loc 1 832 0
 201 00d8 DFF8DCC0 		ldr	ip, .L20+52
 792:Generated_Source\PSoC5/USB_std.c ****                 USB_EP[cur_ep].attrib = pEP->attributes;
 202              		.loc 1 792 0
 203 00dc 86F804B0 		strb	fp, [r6, #4]
 793:Generated_Source\PSoC5/USB_std.c **** 
 204              		.loc 1 793 0
 205 00e0 13F805BC 		ldrb	fp, [r3, #-5]	@ zero_extendqisi2
 832:Generated_Source\PSoC5/USB_std.c ****                                                                 USB_EP[cur_ep].bufferSize >> 8u);
 206              		.loc 1 832 0
 207 00e4 AC44     		add	ip, ip, r5
 793:Generated_Source\PSoC5/USB_std.c **** 
 208              		.loc 1 793 0
 209 00e6 08F827B0 		strb	fp, [r8, r7, lsl #2]
ARM GAS  C:\Users\mgronber\AppData\Local\Temp\ccohOFIJ.s 			page 21


 796:Generated_Source\PSoC5/USB_std.c **** 
 210              		.loc 1 796 0
 211 00ea 86F80390 		strb	r9, [r6, #3]
 832:Generated_Source\PSoC5/USB_std.c ****                                                                 USB_EP[cur_ep].bufferSize >> 8u);
 212              		.loc 1 832 0
 213 00ee B6F80880 		ldrh	r8, [r6, #8]
 834:Generated_Source\PSoC5/USB_std.c ****                                                                 USB_EP[cur_ep].bufferSize & 0xFFu);
 214              		.loc 1 834 0
 215 00f2 2A4F     		ldr	r7, .L20+24
 832:Generated_Source\PSoC5/USB_std.c ****                                                                 USB_EP[cur_ep].bufferSize >> 8u);
 216              		.loc 1 832 0
 217 00f4 C8F30728 		ubfx	r8, r8, #8, #8
 218 00f8 8CF80080 		strb	r8, [ip]
 834:Generated_Source\PSoC5/USB_std.c ****                                                                 USB_EP[cur_ep].bufferSize & 0xFFu);
 219              		.loc 1 834 0
 220 00fc B6F808C0 		ldrh	ip, [r6, #8]
 221 0100 2F44     		add	r7, r7, r5
 222 0102 5FFA8CFC 		uxtb	ip, ip
 223 0106 87F800C0 		strb	ip, [r7]
 836:Generated_Source\PSoC5/USB_std.c ****                                                                 USB_EP[cur_ep].buffOffset & 0xFFu);
 224              		.loc 1 836 0
 225 010a B6F806C0 		ldrh	ip, [r6, #6]
 226 010e 244F     		ldr	r7, .L20+28
 227 0110 5FFA8CFC 		uxtb	ip, ip
 228 0114 2F44     		add	r7, r7, r5
 229 0116 87F800C0 		strb	ip, [r7]
 838:Generated_Source\PSoC5/USB_std.c ****                                                                 USB_EP[cur_ep].buffOffset >> 8u);
 230              		.loc 1 838 0
 231 011a B6F806C0 		ldrh	ip, [r6, #6]
 232 011e 214F     		ldr	r7, .L20+32
 233 0120 CCF3072C 		ubfx	ip, ip, #8, #8
 234 0124 2F44     		add	r7, r7, r5
 235 0126 87F800C0 		strb	ip, [r7]
 840:Generated_Source\PSoC5/USB_std.c ****                                                                 USB_EP[cur_ep].buffOffset & 0xFFu);
 236              		.loc 1 840 0
 237 012a B6F806C0 		ldrh	ip, [r6, #6]
 238 012e 1E4F     		ldr	r7, .L20+36
 239 0130 5FFA8CFC 		uxtb	ip, ip
 240 0134 2F44     		add	r7, r7, r5
 241 0136 87F800C0 		strb	ip, [r7]
 842:Generated_Source\PSoC5/USB_std.c ****                                                                 USB_EP[cur_ep].buffOffset >> 8u);
 242              		.loc 1 842 0
 243 013a F788     		ldrh	r7, [r6, #6]
 244 013c 1B4E     		ldr	r6, .L20+40
 245 013e 0833     		adds	r3, r3, #8
 246              	.LVL17:
 247 0140 C7F30727 		ubfx	r7, r7, #8, #8
 248 0144 2E44     		add	r6, r6, r5
 764:Generated_Source\PSoC5/USB_std.c ****         {
 249              		.loc 1 764 0
 250 0146 9342     		cmp	r3, r2
 842:Generated_Source\PSoC5/USB_std.c ****                                                                 USB_EP[cur_ep].buffOffset >> 8u);
 251              		.loc 1 842 0
 252 0148 3770     		strb	r7, [r6]
 253              	.LVL18:
 764:Generated_Source\PSoC5/USB_std.c ****         {
 254              		.loc 1 764 0
ARM GAS  C:\Users\mgronber\AppData\Local\Temp\ccohOFIJ.s 			page 22


 255 014a 85D1     		bne	.L9
 256              	.LVL19:
 257              	.L18:
 850:Generated_Source\PSoC5/USB_std.c **** 
 258              		.loc 1 850 0
 259 014c 03B0     		add	sp, sp, #12
 260              		.cfi_def_cfa_offset 36
 261              		@ sp needed
 262 014e BDE8F08F 		pop	{r4, r5, r6, r7, r8, r9, r10, fp, pc}
 263              	.LVL20:
 264              	.L2:
 265              		.cfi_def_cfa_offset 0
 266              		.cfi_restore 4
 267              		.cfi_restore 5
 268              		.cfi_restore 6
 269              		.cfi_restore 7
 270              		.cfi_restore 8
 271              		.cfi_restore 9
 272              		.cfi_restore 10
 273              		.cfi_restore 11
 274              		.cfi_restore 14
 758:Generated_Source\PSoC5/USB_std.c **** 
 275              		.loc 1 758 0
 276 0152 0023     		movs	r3, #0
 277              	.LVL21:
 278 0154 1B7A     		ldrb	r3, [r3, #8]	@ zero_extendqisi2
 279 0156 FFDE     		.inst	0xdeff
 280              	.LVL22:
 281              	.L19:
 282              		.cfi_def_cfa_offset 48
 283              		.cfi_offset 4, -36
 284              		.cfi_offset 5, -32
 285              		.cfi_offset 6, -28
 286              		.cfi_offset 7, -24
 287              		.cfi_offset 8, -20
 288              		.cfi_offset 9, -16
 289              		.cfi_offset 10, -12
 290              		.cfi_offset 11, -8
 291              		.cfi_offset 14, -4
 779:Generated_Source\PSoC5/USB_std.c ****                                                 USB_MODE_ISO_IN : USB_MODE_ACK_IN;
 292              		.loc 1 779 0
 293 0158 012E     		cmp	r6, #1
 778:Generated_Source\PSoC5/USB_std.c ****                     USB_EP[cur_ep].epMode = (epType == USB_EP_TYPE_ISOC) ?
 294              		.loc 1 778 0
 295 015a 4FEA4706 		lsl	r6, r7, #1
 296              	.LVL23:
 297 015e 06EB070C 		add	ip, r6, r7
 298 0162 0196     		str	r6, [sp, #4]
 299 0164 0C4E     		ldr	r6, .L20+20
 779:Generated_Source\PSoC5/USB_std.c ****                                                 USB_MODE_ISO_IN : USB_MODE_ACK_IN;
 300              		.loc 1 779 0
 301 0166 0CBF     		ite	eq
 302 0168 4FF00708 		moveq	r8, #7
 303 016c 4FF00D08 		movne	r8, #13
 778:Generated_Source\PSoC5/USB_std.c ****                     USB_EP[cur_ep].epMode = (epType == USB_EP_TYPE_ISOC) ?
 304              		.loc 1 778 0
 305 0170 06EB8C0C 		add	ip, r6, ip, lsl #2
ARM GAS  C:\Users\mgronber\AppData\Local\Temp\ccohOFIJ.s 			page 23


 306 0174 8CF801A0 		strb	r10, [ip, #1]
 307              	.LVL24:
 779:Generated_Source\PSoC5/USB_std.c ****                                                 USB_MODE_ISO_IN : USB_MODE_ACK_IN;
 308              		.loc 1 779 0
 309 0178 8CF80580 		strb	r8, [ip, #5]
 778:Generated_Source\PSoC5/USB_std.c ****                     USB_EP[cur_ep].epMode = (epType == USB_EP_TYPE_ISOC) ?
 310              		.loc 1 778 0
 311 017c B046     		mov	r8, r6
 312 017e 9CE7     		b	.L7
 313              	.LVL25:
 314              	.L15:
 315              		.cfi_def_cfa_offset 0
 316              		.cfi_restore 4
 317              		.cfi_restore 5
 318              		.cfi_restore 6
 319              		.cfi_restore 7
 320              		.cfi_restore 8
 321              		.cfi_restore 9
 322              		.cfi_restore 10
 323              		.cfi_restore 11
 324              		.cfi_restore 14
 325 0180 7047     		bx	lr
 326              	.L21:
 327 0182 00BF     		.align	2
 328              	.L20:
 329 0184 00000000 		.word	USB_configuration
 330 0188 00000000 		.word	USB_device
 331 018c 00000000 		.word	USB_TABLE
 332 0190 00000000 		.word	USB_interfaceSetting
 333 0194 00000000 		.word	USB_interfaceSetting_last
 334 0198 00000000 		.word	USB_EP
 335 019c 0D600040 		.word	1073766413
 336 01a0 86600040 		.word	1073766534
 337 01a4 87600040 		.word	1073766535
 338 01a8 84600040 		.word	1073766532
 339 01ac 85600040 		.word	1073766533
 340 01b0 04600040 		.word	1073766404
 341 01b4 0E600040 		.word	1073766414
 342 01b8 0C600040 		.word	1073766412
 343              		.cfi_endproc
 344              	.LFE12:
 345              		.size	USB_ConfigAltChanged.part.0, .-USB_ConfigAltChanged.part.0
 346              		.section	.text.USB_ReadDieID,"ax",%progbits
 347              		.align	2
 348              		.global	USB_ReadDieID
 349              		.thumb
 350              		.thumb_func
 351              		.type	USB_ReadDieID, %function
 352              	USB_ReadDieID:
 353              	.LFB1:
 360:Generated_Source\PSoC5/USB_std.c ****         uint8 i;
 354              		.loc 1 360 0
 355              		.cfi_startproc
 356              		@ args = 0, pretend = 0, frame = 16
 357              		@ frame_needed = 0, uses_anonymous_args = 0
 358              		@ link register save eliminated.
 359              	.LVL26:
ARM GAS  C:\Users\mgronber\AppData\Local\Temp\ccohOFIJ.s 			page 24


 360 0000 30B4     		push	{r4, r5}
 361              		.cfi_def_cfa_offset 8
 362              		.cfi_offset 4, -8
 363              		.cfi_offset 5, -4
 364 0002 0546     		mov	r5, r0
 365 0004 84B0     		sub	sp, sp, #16
 366              		.cfi_def_cfa_offset 24
 364:Generated_Source\PSoC5/USB_std.c **** 
 367              		.loc 1 364 0
 368 0006 114B     		ldr	r3, .L28
 369 0008 04AC     		add	r4, sp, #16
 370 000a 0FCB     		ldmia	r3, {r0, r1, r2, r3}
 371              	.LVL27:
 372 000c 04E90F00 		stmdb	r4, {r0, r1, r2, r3}
 367:Generated_Source\PSoC5/USB_std.c ****         {
 373              		.loc 1 367 0
 374 0010 CDB1     		cbz	r5, .L22
 375 0012 2A46     		mov	r2, r5
 369:Generated_Source\PSoC5/USB_std.c ****             descr[1u] = USB_DESCR_STRING;
 376              		.loc 1 369 0
 377 0014 2221     		movs	r1, #34
 370:Generated_Source\PSoC5/USB_std.c **** 
 378              		.loc 1 370 0
 379 0016 0323     		movs	r3, #3
 380 0018 0D48     		ldr	r0, .L28+4
 381 001a 05F12004 		add	r4, r5, #32
 369:Generated_Source\PSoC5/USB_std.c ****             descr[1u] = USB_DESCR_STRING;
 382              		.loc 1 369 0
 383 001e 2970     		strb	r1, [r5]
 370:Generated_Source\PSoC5/USB_std.c **** 
 384              		.loc 1 370 0
 385 0020 6B70     		strb	r3, [r5, #1]
 386              	.LVL28:
 387              	.L24:
 375:Generated_Source\PSoC5/USB_std.c ****                 j++;
 388              		.loc 1 375 0 discriminator 3
 389 0022 10F8013B 		ldrb	r3, [r0], #1	@ zero_extendqisi2
 390              	.LVL29:
 378:Generated_Source\PSoC5/USB_std.c ****             }
 391              		.loc 1 378 0 discriminator 3
 392 0026 04AD     		add	r5, sp, #16
 375:Generated_Source\PSoC5/USB_std.c ****                 j++;
 393              		.loc 1 375 0 discriminator 3
 394 0028 DBB2     		uxtb	r3, r3
 395              	.LVL30:
 378:Generated_Source\PSoC5/USB_std.c ****             }
 396              		.loc 1 378 0 discriminator 3
 397 002a 03F00F01 		and	r1, r3, #15
 398 002e 2944     		add	r1, r1, r5
 377:Generated_Source\PSoC5/USB_std.c ****                 descr[i + 2u] = (uint8)hex[value & 0x0Fu];
 399              		.loc 1 377 0 discriminator 3
 400 0030 05EB1313 		add	r3, r5, r3, lsr #4
 401              	.LVL31:
 378:Generated_Source\PSoC5/USB_std.c ****             }
 402              		.loc 1 378 0 discriminator 3
 403 0034 11F8101C 		ldrb	r1, [r1, #-16]	@ zero_extendqisi2
 377:Generated_Source\PSoC5/USB_std.c ****                 descr[i + 2u] = (uint8)hex[value & 0x0Fu];
ARM GAS  C:\Users\mgronber\AppData\Local\Temp\ccohOFIJ.s 			page 25


 404              		.loc 1 377 0 discriminator 3
 405 0038 13F8103C 		ldrb	r3, [r3, #-16]	@ zero_extendqisi2
 406 003c 9370     		strb	r3, [r2, #2]
 378:Generated_Source\PSoC5/USB_std.c ****             }
 407              		.loc 1 378 0 discriminator 3
 408 003e 02F8041F 		strb	r1, [r2, #4]!
 409              	.LVL32:
 373:Generated_Source\PSoC5/USB_std.c ****             {
 410              		.loc 1 373 0 discriminator 3
 411 0042 A242     		cmp	r2, r4
 412 0044 EDD1     		bne	.L24
 413              	.LVL33:
 414              	.L22:
 381:Generated_Source\PSoC5/USB_std.c **** 
 415              		.loc 1 381 0
 416 0046 04B0     		add	sp, sp, #16
 417              		.cfi_def_cfa_offset 8
 418              		@ sp needed
 419 0048 30BC     		pop	{r4, r5}
 420              		.cfi_restore 5
 421              		.cfi_restore 4
 422              		.cfi_def_cfa_offset 0
 423 004a 7047     		bx	lr
 424              	.L29:
 425              		.align	2
 426              	.L28:
 427 004c 00000000 		.word	.LANCHOR0
 428 0050 00010049 		.word	1224737024
 429              		.cfi_endproc
 430              	.LFE1:
 431              		.size	USB_ReadDieID, .-USB_ReadDieID
 432              		.section	.text.USB_ConfigReg,"ax",%progbits
 433              		.align	2
 434              		.global	USB_ConfigReg
 435              		.thumb
 436              		.thumb_func
 437              		.type	USB_ConfigReg, %function
 438              	USB_ConfigReg:
 439              	.LFB2:
 403:Generated_Source\PSoC5/USB_std.c ****     uint8 ep;
 440              		.loc 1 403 0
 441              		.cfi_startproc
 442              		@ args = 0, pretend = 0, frame = 0
 443              		@ frame_needed = 0, uses_anonymous_args = 0
 444              	.LVL34:
 445 0000 F0B5     		push	{r4, r5, r6, r7, lr}
 446              		.cfi_def_cfa_offset 20
 447              		.cfi_offset 4, -20
 448              		.cfi_offset 5, -16
 449              		.cfi_offset 6, -12
 450              		.cfi_offset 7, -8
 451              		.cfi_offset 14, -4
 403:Generated_Source\PSoC5/USB_std.c ****     uint8 ep;
 452              		.loc 1 403 0
 453 0002 214A     		ldr	r2, .L39
 454 0004 214C     		ldr	r4, .L39+4
 412:Generated_Source\PSoC5/USB_std.c ****     {
ARM GAS  C:\Users\mgronber\AppData\Local\Temp\ccohOFIJ.s 			page 26


 455              		.loc 1 412 0
 456 0006 224E     		ldr	r6, .L39+8
 403:Generated_Source\PSoC5/USB_std.c ****     uint8 ep;
 457              		.loc 1 403 0
 458 0008 0121     		movs	r1, #1
 414:Generated_Source\PSoC5/USB_std.c ****         #if(USB_EP_MM != USB__EP_MANUAL)
 459              		.loc 1 414 0
 460 000a 0C25     		movs	r5, #12
 437:Generated_Source\PSoC5/USB_std.c ****         }
 461              		.loc 1 437 0
 462 000c 8027     		movs	r7, #128
 428:Generated_Source\PSoC5/USB_std.c ****                 /* Prepare EP type mask for automatic memory allocation */
 463              		.loc 1 428 0
 464 000e 4FF0080E 		mov	lr, #8
 465 0012 27E0     		b	.L34
 466              	.LVL35:
 467              	.L38:
 422:Generated_Source\PSoC5/USB_std.c ****             {
 468              		.loc 1 422 0
 469 0014 0079     		ldrb	r0, [r0, #4]	@ zero_extendqisi2
 470 0016 0006     		lsls	r0, r0, #24
 424:Generated_Source\PSoC5/USB_std.c ****             }
 471              		.loc 1 424 0
 472 0018 4CBF     		ite	mi
 473 001a 1570     		strbmi	r5, [r2]
 428:Generated_Source\PSoC5/USB_std.c ****                 /* Prepare EP type mask for automatic memory allocation */
 474              		.loc 1 428 0
 475 001c 82F800E0 		strbpl	lr, [r2]
 476              	.L33:
 441:Generated_Source\PSoC5/USB_std.c ****             CY_SET_REG8((reg8 *)(USB_SIE_EP1_CNT1_IND + i),   USB_EP[ep].bufferSize & 0xFFu);
 477              		.loc 1 441 0 discriminator 2
 478 0020 0B44     		add	r3, r3, r1
 479 0022 04EB8303 		add	r3, r4, r3, lsl #2
 480 0026 1889     		ldrh	r0, [r3, #8]
 481 0028 1032     		adds	r2, r2, #16
 482              	.LVL36:
 483 002a C0F30720 		ubfx	r0, r0, #8, #8
 484 002e 02F8120C 		strb	r0, [r2, #-18]
 442:Generated_Source\PSoC5/USB_std.c **** 
 485              		.loc 1 442 0 discriminator 2
 486 0032 1889     		ldrh	r0, [r3, #8]
 487 0034 0131     		adds	r1, r1, #1
 488              	.LVL37:
 489 0036 C0B2     		uxtb	r0, r0
 490 0038 02F8110C 		strb	r0, [r2, #-17]
 444:Generated_Source\PSoC5/USB_std.c ****             CY_SET_REG8((reg8 *)(USB_ARB_RW1_RA_MSB_IND + i), USB_EP[ep].buffOffset >> 8u);
 491              		.loc 1 444 0 discriminator 2
 492 003c D888     		ldrh	r0, [r3, #6]
 493 003e C0B2     		uxtb	r0, r0
 494 0040 82F86800 		strb	r0, [r2, #104]
 445:Generated_Source\PSoC5/USB_std.c ****             CY_SET_REG8((reg8 *)(USB_ARB_RW1_WA_IND + i),     USB_EP[ep].buffOffset & 0xFFu);
 495              		.loc 1 445 0 discriminator 2
 496 0044 D888     		ldrh	r0, [r3, #6]
 497 0046 C0F30720 		ubfx	r0, r0, #8, #8
 498 004a 82F86900 		strb	r0, [r2, #105]
 446:Generated_Source\PSoC5/USB_std.c ****             CY_SET_REG8((reg8 *)(USB_ARB_RW1_WA_MSB_IND + i), USB_EP[ep].buffOffset >> 8u);
 499              		.loc 1 446 0 discriminator 2
ARM GAS  C:\Users\mgronber\AppData\Local\Temp\ccohOFIJ.s 			page 27


 500 004e D888     		ldrh	r0, [r3, #6]
 501 0050 C0B2     		uxtb	r0, r0
 502 0052 82F86600 		strb	r0, [r2, #102]
 447:Generated_Source\PSoC5/USB_std.c ****         #endif /*  USB_EP_MM != USB__EP_DMAAUTO */
 503              		.loc 1 447 0 discriminator 2
 504 0056 DB88     		ldrh	r3, [r3, #6]
 505 0058 C3F30723 		ubfx	r3, r3, #8, #8
 506 005c 82F86730 		strb	r3, [r2, #103]
 412:Generated_Source\PSoC5/USB_std.c ****     {
 507              		.loc 1 412 0 discriminator 2
 508 0060 B242     		cmp	r2, r6
 509 0062 0CD0     		beq	.L37
 510              	.L34:
 511              	.LVL38:
 420:Generated_Source\PSoC5/USB_std.c ****         {
 512              		.loc 1 420 0
 513 0064 4B00     		lsls	r3, r1, #1
 514 0066 5818     		adds	r0, r3, r1
 414:Generated_Source\PSoC5/USB_std.c ****         #if(USB_EP_MM != USB__EP_MANUAL)
 515              		.loc 1 414 0
 516 0068 82F87250 		strb	r5, [r2, #114]
 420:Generated_Source\PSoC5/USB_std.c ****         {
 517              		.loc 1 420 0
 518 006c 04EB8000 		add	r0, r4, r0, lsl #2
 519 0070 90F805C0 		ldrb	ip, [r0, #5]	@ zero_extendqisi2
 520 0074 BCF1000F 		cmp	ip, #0
 521 0078 CCD1     		bne	.L38
 437:Generated_Source\PSoC5/USB_std.c ****         }
 522              		.loc 1 437 0
 523 007a 1770     		strb	r7, [r2]
 524 007c D0E7     		b	.L33
 525              	.LVL39:
 526              	.L37:
 467:Generated_Source\PSoC5/USB_std.c **** }
 527              		.loc 1 467 0
 528 007e 054B     		ldr	r3, .L39+12
 529 0080 FF22     		movs	r2, #255
 530 0082 1A70     		strb	r2, [r3]
 531 0084 F0BD     		pop	{r4, r5, r6, r7, pc}
 532              	.L40:
 533 0086 00BF     		.align	2
 534              	.L39:
 535 0088 0E600040 		.word	1073766414
 536 008c 00000000 		.word	USB_EP
 537 0090 8E600040 		.word	1073766542
 538 0094 0A600040 		.word	1073766410
 539              		.cfi_endproc
 540              	.LFE2:
 541              		.size	USB_ConfigReg, .-USB_ConfigReg
 542              		.section	.text.USB_ConfigAltChanged,"ax",%progbits
 543              		.align	2
 544              		.global	USB_ConfigAltChanged
 545              		.thumb
 546              		.thumb_func
 547              		.type	USB_ConfigAltChanged, %function
 548              	USB_ConfigAltChanged:
 549              	.LFB4:
ARM GAS  C:\Users\mgronber\AppData\Local\Temp\ccohOFIJ.s 			page 28


 742:Generated_Source\PSoC5/USB_std.c ****     uint8 ep;
 550              		.loc 1 742 0
 551              		.cfi_startproc
 552              		@ args = 0, pretend = 0, frame = 0
 553              		@ frame_needed = 0, uses_anonymous_args = 0
 554              		@ link register save eliminated.
 754:Generated_Source\PSoC5/USB_std.c ****     {
 555              		.loc 1 754 0
 556 0000 024B     		ldr	r3, .L43
 557 0002 1B78     		ldrb	r3, [r3]	@ zero_extendqisi2
 558 0004 0BB1     		cbz	r3, .L41
 559 0006 FFF7FEBF 		b	USB_ConfigAltChanged.part.0
 560              	.LVL40:
 561              	.L41:
 562 000a 7047     		bx	lr
 563              	.L44:
 564              		.align	2
 565              	.L43:
 566 000c 00000000 		.word	USB_configuration
 567              		.cfi_endproc
 568              	.LFE4:
 569              		.size	USB_ConfigAltChanged, .-USB_ConfigAltChanged
 570              		.section	.text.USB_GetConfigTablePtr,"ax",%progbits
 571              		.align	2
 572              		.global	USB_GetConfigTablePtr
 573              		.thumb
 574              		.thumb_func
 575              		.type	USB_GetConfigTablePtr, %function
 576              	USB_GetConfigTablePtr:
 577              	.LFB5:
 869:Generated_Source\PSoC5/USB_std.c ****     /* Device Table */
 578              		.loc 1 869 0
 579              		.cfi_startproc
 580              		@ args = 0, pretend = 0, frame = 0
 581              		@ frame_needed = 0, uses_anonymous_args = 0
 582              		@ link register save eliminated.
 583              	.LVL41:
 873:Generated_Source\PSoC5/USB_std.c **** 
 584              		.loc 1 873 0
 585 0000 064B     		ldr	r3, .L48
 586 0002 074A     		ldr	r2, .L48+4
 587 0004 1B78     		ldrb	r3, [r3]	@ zero_extendqisi2
 588 0006 02EBC302 		add	r2, r2, r3, lsl #3
 589 000a 5368     		ldr	r3, [r2, #4]
 590              	.LVL42:
 881:Generated_Source\PSoC5/USB_std.c ****     {
 591              		.loc 1 881 0
 592 000c 1A7A     		ldrb	r2, [r3, #8]	@ zero_extendqisi2
 593 000e 8242     		cmp	r2, r0
 594 0010 86BF     		itte	hi
 595 0012 03EBC003 		addhi	r3, r3, r0, lsl #3
 596              	.LVL43:
 597              		.loc 1 887 0
 598 0016 D868     		ldrhi	r0, [r3, #12]
 599              	.LVL44:
 883:Generated_Source\PSoC5/USB_std.c ****     }
 600              		.loc 1 883 0
ARM GAS  C:\Users\mgronber\AppData\Local\Temp\ccohOFIJ.s 			page 29


 601 0018 0020     		movls	r0, #0
 602              	.LVL45:
 888:Generated_Source\PSoC5/USB_std.c ****     }
 889:Generated_Source\PSoC5/USB_std.c ****     
 890:Generated_Source\PSoC5/USB_std.c ****     return( pTmp );
 891:Generated_Source\PSoC5/USB_std.c **** }
 603              		.loc 1 891 0
 604 001a 7047     		bx	lr
 605              	.L49:
 606              		.align	2
 607              	.L48:
 608 001c 00000000 		.word	USB_device
 609 0020 00000000 		.word	USB_TABLE
 610              		.cfi_endproc
 611              	.LFE5:
 612              		.size	USB_GetConfigTablePtr, .-USB_GetConfigTablePtr
 613              		.section	.text.USB_GetDeviceTablePtr,"ax",%progbits
 614              		.align	2
 615              		.global	USB_GetDeviceTablePtr
 616              		.thumb
 617              		.thumb_func
 618              		.type	USB_GetDeviceTablePtr, %function
 619              	USB_GetDeviceTablePtr:
 620              	.LFB6:
 892:Generated_Source\PSoC5/USB_std.c **** 
 893:Generated_Source\PSoC5/USB_std.c **** 
 894:Generated_Source\PSoC5/USB_std.c **** /*******************************************************************************
 895:Generated_Source\PSoC5/USB_std.c **** * Function Name: USB_GetDeviceTablePtr
 896:Generated_Source\PSoC5/USB_std.c **** ********************************************************************************
 897:Generated_Source\PSoC5/USB_std.c **** *
 898:Generated_Source\PSoC5/USB_std.c **** * Summary:
 899:Generated_Source\PSoC5/USB_std.c **** *  This routine returns a pointer to the Device table
 900:Generated_Source\PSoC5/USB_std.c **** *
 901:Generated_Source\PSoC5/USB_std.c **** * Parameters:
 902:Generated_Source\PSoC5/USB_std.c **** *  None.
 903:Generated_Source\PSoC5/USB_std.c **** *
 904:Generated_Source\PSoC5/USB_std.c **** * Return:
 905:Generated_Source\PSoC5/USB_std.c **** *  Device Table pointer
 906:Generated_Source\PSoC5/USB_std.c **** *
 907:Generated_Source\PSoC5/USB_std.c **** *******************************************************************************/
 908:Generated_Source\PSoC5/USB_std.c **** const T_USB_LUT CYCODE *USB_GetDeviceTablePtr(void)
 909:Generated_Source\PSoC5/USB_std.c ****                                                             
 910:Generated_Source\PSoC5/USB_std.c **** {
 621              		.loc 1 910 0
 622              		.cfi_startproc
 623              		@ args = 0, pretend = 0, frame = 0
 624              		@ frame_needed = 0, uses_anonymous_args = 0
 625              		@ link register save eliminated.
 911:Generated_Source\PSoC5/USB_std.c ****     /* Device Table */
 912:Generated_Source\PSoC5/USB_std.c ****     return( (const T_USB_LUT CYCODE *) USB_TABLE[USB_device].p_list );
 626              		.loc 1 912 0
 627 0000 034A     		ldr	r2, .L51
 628 0002 044B     		ldr	r3, .L51+4
 629 0004 1278     		ldrb	r2, [r2]	@ zero_extendqisi2
 630 0006 03EBC203 		add	r3, r3, r2, lsl #3
 913:Generated_Source\PSoC5/USB_std.c **** }
 631              		.loc 1 913 0
ARM GAS  C:\Users\mgronber\AppData\Local\Temp\ccohOFIJ.s 			page 30


 632 000a 5868     		ldr	r0, [r3, #4]
 633 000c 7047     		bx	lr
 634              	.L52:
 635 000e 00BF     		.align	2
 636              	.L51:
 637 0010 00000000 		.word	USB_device
 638 0014 00000000 		.word	USB_TABLE
 639              		.cfi_endproc
 640              	.LFE6:
 641              		.size	USB_GetDeviceTablePtr, .-USB_GetDeviceTablePtr
 642              		.section	.text.USB_GetInterfaceClassTablePtr,"ax",%progbits
 643              		.align	2
 644              		.global	USB_GetInterfaceClassTablePtr
 645              		.thumb
 646              		.thumb_func
 647              		.type	USB_GetInterfaceClassTablePtr, %function
 648              	USB_GetInterfaceClassTablePtr:
 649              	.LFB7:
 914:Generated_Source\PSoC5/USB_std.c **** 
 915:Generated_Source\PSoC5/USB_std.c **** 
 916:Generated_Source\PSoC5/USB_std.c **** /*******************************************************************************
 917:Generated_Source\PSoC5/USB_std.c **** * Function Name: USB_GetInterfaceClassTablePtr
 918:Generated_Source\PSoC5/USB_std.c **** ********************************************************************************
 919:Generated_Source\PSoC5/USB_std.c **** *
 920:Generated_Source\PSoC5/USB_std.c **** * Summary:
 921:Generated_Source\PSoC5/USB_std.c **** *  This routine returns Interface Class table pointer, which contains
 922:Generated_Source\PSoC5/USB_std.c **** *  the relation between interface number and interface class.
 923:Generated_Source\PSoC5/USB_std.c **** *
 924:Generated_Source\PSoC5/USB_std.c **** * Parameters:
 925:Generated_Source\PSoC5/USB_std.c **** *  None.
 926:Generated_Source\PSoC5/USB_std.c **** *
 927:Generated_Source\PSoC5/USB_std.c **** * Return:
 928:Generated_Source\PSoC5/USB_std.c **** *  Interface Class table pointer.
 929:Generated_Source\PSoC5/USB_std.c **** *
 930:Generated_Source\PSoC5/USB_std.c **** *******************************************************************************/
 931:Generated_Source\PSoC5/USB_std.c **** const uint8 CYCODE *USB_GetInterfaceClassTablePtr(void)
 932:Generated_Source\PSoC5/USB_std.c ****                                                         
 933:Generated_Source\PSoC5/USB_std.c **** {
 650              		.loc 1 933 0
 651              		.cfi_startproc
 652              		@ args = 0, pretend = 0, frame = 0
 653              		@ frame_needed = 0, uses_anonymous_args = 0
 654              		@ link register save eliminated.
 934:Generated_Source\PSoC5/USB_std.c ****     const T_USB_LUT CYCODE *pTmp;
 935:Generated_Source\PSoC5/USB_std.c ****     const uint8 CYCODE *pInterfaceClass;
 936:Generated_Source\PSoC5/USB_std.c ****     uint8 currentInterfacesNum;
 937:Generated_Source\PSoC5/USB_std.c **** 
 938:Generated_Source\PSoC5/USB_std.c ****     pTmp = USB_GetConfigTablePtr(USB_configuration - 1u);
 655              		.loc 1 938 0
 656 0000 0D4B     		ldr	r3, .L57
 657              	.LBB30:
 658              	.LBB31:
 873:Generated_Source\PSoC5/USB_std.c **** 
 659              		.loc 1 873 0
 660 0002 0E49     		ldr	r1, .L57+4
 661              	.LBE31:
 662              	.LBE30:
ARM GAS  C:\Users\mgronber\AppData\Local\Temp\ccohOFIJ.s 			page 31


 663              		.loc 1 938 0
 664 0004 1B78     		ldrb	r3, [r3]	@ zero_extendqisi2
 665              	.LBB35:
 666              	.LBB32:
 873:Generated_Source\PSoC5/USB_std.c **** 
 667              		.loc 1 873 0
 668 0006 0E4A     		ldr	r2, .L57+8
 669 0008 0978     		ldrb	r1, [r1]	@ zero_extendqisi2
 670              	.LBE32:
 671              	.LBE35:
 672              		.loc 1 938 0
 673 000a 013B     		subs	r3, r3, #1
 674              	.LBB36:
 675              	.LBB33:
 873:Generated_Source\PSoC5/USB_std.c **** 
 676              		.loc 1 873 0
 677 000c 02EBC102 		add	r2, r2, r1, lsl #3
 678 0010 5268     		ldr	r2, [r2, #4]
 679              	.LBE33:
 680              	.LBE36:
 681              		.loc 1 938 0
 682 0012 DBB2     		uxtb	r3, r3
 683              	.LVL46:
 684              	.LBB37:
 685              	.LBB34:
 881:Generated_Source\PSoC5/USB_std.c ****     {
 686              		.loc 1 881 0
 687 0014 117A     		ldrb	r1, [r2, #8]	@ zero_extendqisi2
 688 0016 9942     		cmp	r1, r3
 689 0018 09D9     		bls	.L55
 887:Generated_Source\PSoC5/USB_std.c ****     }
 690              		.loc 1 887 0
 691 001a 02EBC303 		add	r3, r2, r3, lsl #3
 692              	.LVL47:
 693 001e DB68     		ldr	r3, [r3, #12]
 694              	.LVL48:
 695              	.LBE34:
 696              	.LBE37:
 939:Generated_Source\PSoC5/USB_std.c ****     if( pTmp != NULL )
 697              		.loc 1 939 0
 698 0020 3BB1     		cbz	r3, .L56
 699              	.LVL49:
 940:Generated_Source\PSoC5/USB_std.c ****     {
 941:Generated_Source\PSoC5/USB_std.c ****         currentInterfacesNum  = ((const uint8 *) pTmp->p_list)[USB_CONFIG_DESCR_NUM_INTERFACES];
 700              		.loc 1 941 0
 701 0022 5A68     		ldr	r2, [r3, #4]
 942:Generated_Source\PSoC5/USB_std.c ****         /* Third entry in the LUT starts the Interface Table pointers */
 943:Generated_Source\PSoC5/USB_std.c ****         /* The INTERFACE_CLASS table is located after all interfaces */
 944:Generated_Source\PSoC5/USB_std.c ****         pTmp = &pTmp[currentInterfacesNum + 2u];
 702              		.loc 1 944 0
 703 0024 1279     		ldrb	r2, [r2, #4]	@ zero_extendqisi2
 704              	.LVL50:
 945:Generated_Source\PSoC5/USB_std.c ****         pInterfaceClass = (const uint8 CYCODE *) pTmp->p_list;
 705              		.loc 1 945 0
 706 0026 03EBC203 		add	r3, r3, r2, lsl #3
 707              	.LVL51:
 708 002a 5869     		ldr	r0, [r3, #20]
ARM GAS  C:\Users\mgronber\AppData\Local\Temp\ccohOFIJ.s 			page 32


 709              	.LVL52:
 710 002c 7047     		bx	lr
 711              	.LVL53:
 712              	.L55:
 946:Generated_Source\PSoC5/USB_std.c ****     }
 947:Generated_Source\PSoC5/USB_std.c ****     else
 948:Generated_Source\PSoC5/USB_std.c ****     {
 949:Generated_Source\PSoC5/USB_std.c ****         pInterfaceClass = (const uint8 CYCODE *) NULL;
 713              		.loc 1 949 0
 714 002e 0020     		movs	r0, #0
 715 0030 7047     		bx	lr
 716              	.LVL54:
 717              	.L56:
 718 0032 1846     		mov	r0, r3
 719              	.LVL55:
 950:Generated_Source\PSoC5/USB_std.c ****     }
 951:Generated_Source\PSoC5/USB_std.c ****     
 952:Generated_Source\PSoC5/USB_std.c ****     return( pInterfaceClass );
 953:Generated_Source\PSoC5/USB_std.c **** }
 720              		.loc 1 953 0
 721 0034 7047     		bx	lr
 722              	.L58:
 723 0036 00BF     		.align	2
 724              	.L57:
 725 0038 00000000 		.word	USB_configuration
 726 003c 00000000 		.word	USB_device
 727 0040 00000000 		.word	USB_TABLE
 728              		.cfi_endproc
 729              	.LFE7:
 730              		.size	USB_GetInterfaceClassTablePtr, .-USB_GetInterfaceClassTablePtr
 731              		.section	.text.USB_Config,"ax",%progbits
 732              		.align	2
 733              		.global	USB_Config
 734              		.thumb
 735              		.thumb_func
 736              		.type	USB_Config, %function
 737              	USB_Config:
 738              	.LFB3:
 494:Generated_Source\PSoC5/USB_std.c ****     uint8 ep;
 739              		.loc 1 494 0
 740              		.cfi_startproc
 741              		@ args = 0, pretend = 0, frame = 0
 742              		@ frame_needed = 0, uses_anonymous_args = 0
 743              	.LVL56:
 744 0000 0021     		movs	r1, #0
 745 0002 2DE9F84F 		push	{r3, r4, r5, r6, r7, r8, r9, r10, fp, lr}
 746              		.cfi_def_cfa_offset 40
 747              		.cfi_offset 3, -40
 748              		.cfi_offset 4, -36
 749              		.cfi_offset 5, -32
 750              		.cfi_offset 6, -28
 751              		.cfi_offset 7, -24
 752              		.cfi_offset 8, -20
 753              		.cfi_offset 9, -16
 754              		.cfi_offset 10, -12
 755              		.cfi_offset 11, -8
 756              		.cfi_offset 14, -4
ARM GAS  C:\Users\mgronber\AppData\Local\Temp\ccohOFIJ.s 			page 33


 510:Generated_Source\PSoC5/USB_std.c ****         USB_EP[ep].hwEpState = 0u;
 757              		.loc 1 510 0
 758 0006 0B46     		mov	r3, r1
 759 0008 6C4F     		ldr	r7, .L98
 760              	.LVL57:
 761              	.L60:
 510:Generated_Source\PSoC5/USB_std.c ****         USB_EP[ep].hwEpState = 0u;
 762              		.loc 1 510 0 is_stmt 0 discriminator 3
 763 000a 01EB4104 		add	r4, r1, r1, lsl #1
 764 000e 0131     		adds	r1, r1, #1
 765              	.LVL58:
 766 0010 07EB8402 		add	r2, r7, r4, lsl #2
 508:Generated_Source\PSoC5/USB_std.c ****     {
 767              		.loc 1 508 0 is_stmt 1 discriminator 3
 768 0014 0929     		cmp	r1, #9
 510:Generated_Source\PSoC5/USB_std.c ****         USB_EP[ep].hwEpState = 0u;
 769              		.loc 1 510 0 discriminator 3
 770 0016 07F82430 		strb	r3, [r7, r4, lsl #2]
 511:Generated_Source\PSoC5/USB_std.c ****         USB_EP[ep].apiEpState = USB_NO_EVENT_PENDING;
 771              		.loc 1 511 0 discriminator 3
 772 001a 9370     		strb	r3, [r2, #2]
 510:Generated_Source\PSoC5/USB_std.c ****         USB_EP[ep].hwEpState = 0u;
 773              		.loc 1 510 0 discriminator 3
 774 001c 4FF00004 		mov	r4, #0
 512:Generated_Source\PSoC5/USB_std.c ****         USB_EP[ep].epToggle = 0u;
 775              		.loc 1 512 0 discriminator 3
 776 0020 5370     		strb	r3, [r2, #1]
 513:Generated_Source\PSoC5/USB_std.c ****         USB_EP[ep].epMode = USB_MODE_DISABLE;
 777              		.loc 1 513 0 discriminator 3
 778 0022 D370     		strb	r3, [r2, #3]
 514:Generated_Source\PSoC5/USB_std.c ****         USB_EP[ep].bufferSize = 0u;
 779              		.loc 1 514 0 discriminator 3
 780 0024 5371     		strb	r3, [r2, #5]
 515:Generated_Source\PSoC5/USB_std.c ****         USB_EP[ep].interface = 0u;
 781              		.loc 1 515 0 discriminator 3
 782 0026 1381     		strh	r3, [r2, #8]	@ movhi
 516:Generated_Source\PSoC5/USB_std.c **** 
 783              		.loc 1 516 0 discriminator 3
 784 0028 9372     		strb	r3, [r2, #10]
 508:Generated_Source\PSoC5/USB_std.c ****     {
 785              		.loc 1 508 0 discriminator 3
 786 002a EED1     		bne	.L60
 521:Generated_Source\PSoC5/USB_std.c ****     {
 787              		.loc 1 521 0
 788 002c 28B1     		cbz	r0, .L61
 789              	.LVL59:
 525:Generated_Source\PSoC5/USB_std.c ****             USB_interfaceSetting_last[i] = 0x00u;
 790              		.loc 1 525 0 discriminator 1
 791 002e 644A     		ldr	r2, .L98+4
 526:Generated_Source\PSoC5/USB_std.c ****         }
 792              		.loc 1 526 0 discriminator 1
 793 0030 644B     		ldr	r3, .L98+8
 525:Generated_Source\PSoC5/USB_std.c ****             USB_interfaceSetting_last[i] = 0x00u;
 794              		.loc 1 525 0 discriminator 1
 795 0032 1470     		strb	r4, [r2]
 526:Generated_Source\PSoC5/USB_std.c ****         }
 796              		.loc 1 526 0 discriminator 1
ARM GAS  C:\Users\mgronber\AppData\Local\Temp\ccohOFIJ.s 			page 34


 797 0034 1C70     		strb	r4, [r3]
 798              	.LVL60:
 525:Generated_Source\PSoC5/USB_std.c ****             USB_interfaceSetting_last[i] = 0x00u;
 799              		.loc 1 525 0 discriminator 1
 800 0036 5470     		strb	r4, [r2, #1]
 526:Generated_Source\PSoC5/USB_std.c ****         }
 801              		.loc 1 526 0 discriminator 1
 802 0038 5C70     		strb	r4, [r3, #1]
 803              	.LVL61:
 804              	.L61:
 531:Generated_Source\PSoC5/USB_std.c ****     {
 805              		.loc 1 531 0
 806 003a 634B     		ldr	r3, .L98+12
 807 003c 1A78     		ldrb	r2, [r3]	@ zero_extendqisi2
 808 003e 002A     		cmp	r2, #0
 809 0040 00F0B680 		beq	.L59
 810              	.LVL62:
 811              	.LBB42:
 812              	.LBB43:
 813              	.LBB44:
 814              	.LBB45:
 873:Generated_Source\PSoC5/USB_std.c **** 
 815              		.loc 1 873 0
 816 0044 6149     		ldr	r1, .L98+16
 817              	.LBE45:
 818              	.LBE44:
 533:Generated_Source\PSoC5/USB_std.c ****         /* Set Power status for current configuration */
 819              		.loc 1 533 0
 820 0046 1B78     		ldrb	r3, [r3]	@ zero_extendqisi2
 821              	.LBB49:
 822              	.LBB46:
 873:Generated_Source\PSoC5/USB_std.c **** 
 823              		.loc 1 873 0
 824 0048 614A     		ldr	r2, .L98+20
 825 004a 0978     		ldrb	r1, [r1]	@ zero_extendqisi2
 826              	.LBE46:
 827              	.LBE49:
 533:Generated_Source\PSoC5/USB_std.c ****         /* Set Power status for current configuration */
 828              		.loc 1 533 0
 829 004c 013B     		subs	r3, r3, #1
 830              	.LBB50:
 831              	.LBB47:
 873:Generated_Source\PSoC5/USB_std.c **** 
 832              		.loc 1 873 0
 833 004e 02EBC102 		add	r2, r2, r1, lsl #3
 834 0052 5268     		ldr	r2, [r2, #4]
 835              	.LBE47:
 836              	.LBE50:
 533:Generated_Source\PSoC5/USB_std.c ****         /* Set Power status for current configuration */
 837              		.loc 1 533 0
 838 0054 DBB2     		uxtb	r3, r3
 839              	.LVL63:
 840              	.LBB51:
 841              	.LBB48:
 881:Generated_Source\PSoC5/USB_std.c ****     {
 842              		.loc 1 881 0
 843 0056 117A     		ldrb	r1, [r2, #8]	@ zero_extendqisi2
ARM GAS  C:\Users\mgronber\AppData\Local\Temp\ccohOFIJ.s 			page 35


 844 0058 9942     		cmp	r1, r3
 845 005a 40F28F80 		bls	.L63
 887:Generated_Source\PSoC5/USB_std.c ****     }
 846              		.loc 1 887 0
 847 005e 02EBC303 		add	r3, r2, r3, lsl #3
 848              	.LVL64:
 849 0062 D3F80C90 		ldr	r9, [r3, #12]
 850              	.LVL65:
 851              	.LBE48:
 852              	.LBE51:
 538:Generated_Source\PSoC5/USB_std.c ****         }
 853              		.loc 1 538 0
 854 0066 5B4A     		ldr	r2, .L98+24
 536:Generated_Source\PSoC5/USB_std.c ****         {
 855              		.loc 1 536 0
 856 0068 D9F80430 		ldr	r3, [r9, #4]
 546:Generated_Source\PSoC5/USB_std.c **** 
 857              		.loc 1 546 0
 858 006c 99F80880 		ldrb	r8, [r9, #8]	@ zero_extendqisi2
 536:Generated_Source\PSoC5/USB_std.c ****         {
 859              		.loc 1 536 0
 860 0070 DB79     		ldrb	r3, [r3, #7]	@ zero_extendqisi2
 861 0072 08F1FF3E 		add	lr, r8, #-1
 862 0076 13F0400F 		tst	r3, #64
 538:Generated_Source\PSoC5/USB_std.c ****         }
 863              		.loc 1 538 0
 864 007a 1378     		ldrb	r3, [r2]	@ zero_extendqisi2
 865 007c 5FFA8EFE 		uxtb	lr, lr
 866 0080 14BF     		ite	ne
 867 0082 43F00103 		orrne	r3, r3, #1
 542:Generated_Source\PSoC5/USB_std.c ****         }
 868              		.loc 1 542 0
 869 0086 03F0FE03 		andeq	r3, r3, #254
 870 008a 0EF1020E 		add	lr, lr, #2
 871 008e D9F80C10 		ldr	r1, [r9, #12]
 629:Generated_Source\PSoC5/USB_std.c ****                         {
 872              		.loc 1 629 0
 873 0092 DFF82CC1 		ldr	ip, .L98+4
 542:Generated_Source\PSoC5/USB_std.c ****         }
 874              		.loc 1 542 0
 875 0096 1370     		strb	r3, [r2]
 876              	.LVL66:
 877 0098 4FEACE0E 		lsl	lr, lr, #3
 546:Generated_Source\PSoC5/USB_std.c **** 
 878              		.loc 1 546 0
 879 009c 0120     		movs	r0, #1
 880              	.LVL67:
 659:Generated_Source\PSoC5/USB_std.c ****                                 USB_EP[i].epMode = (epType == USB_EP_TYPE_ISOC) ?
 881              		.loc 1 659 0
 882 009e 4FF0000B 		mov	fp, #0
 883              	.LVL68:
 884              	.L78:
 885 00a2 C6B2     		uxtb	r6, r0
 886              	.LVL69:
 619:Generated_Source\PSoC5/USB_std.c ****                 {
 887              		.loc 1 619 0
 888 00a4 B8F1000F 		cmp	r8, #0
ARM GAS  C:\Users\mgronber\AppData\Local\Temp\ccohOFIJ.s 			page 36


 889 00a8 3CD0     		beq	.L66
 624:Generated_Source\PSoC5/USB_std.c ****                         {
 890              		.loc 1 624 0
 891 00aa 00EB4005 		add	r5, r0, r0, lsl #1
 892 00ae 07EB8505 		add	r5, r7, r5, lsl #2
 893 00b2 01F10803 		add	r3, r1, #8
 894 00b6 01EB0E04 		add	r4, r1, lr
 895 00ba 02E0     		b	.L77
 896              	.LVL70:
 897              	.L68:
 898 00bc 0833     		adds	r3, r3, #8
 899              	.LVL71:
 619:Generated_Source\PSoC5/USB_std.c ****                 {
 900              		.loc 1 619 0
 901 00be A342     		cmp	r3, r4
 902 00c0 2ED0     		beq	.L95
 903              	.LVL72:
 904              	.L77:
 622:Generated_Source\PSoC5/USB_std.c ****                     {
 905              		.loc 1 622 0
 906 00c2 13F8062C 		ldrb	r2, [r3, #-6]	@ zero_extendqisi2
 907 00c6 02F07F01 		and	r1, r2, #127
 908 00ca 8142     		cmp	r1, r0
 909 00cc F6D1     		bne	.L68
 624:Generated_Source\PSoC5/USB_std.c ****                         {
 910              		.loc 1 624 0
 911 00ce 2989     		ldrh	r1, [r5, #8]
 912 00d0 33F804AC 		ldrh	r10, [r3, #-4]
 913 00d4 89B2     		uxth	r1, r1
 914 00d6 5145     		cmp	r1, r10
 626:Generated_Source\PSoC5/USB_std.c ****                         }
 915              		.loc 1 626 0
 916 00d8 38BF     		it	cc
 917 00da A5F808A0 		strhcc	r10, [r5, #8]	@ movhi
 629:Generated_Source\PSoC5/USB_std.c ****                         {
 918              		.loc 1 629 0
 919 00de 13F8081C 		ldrb	r1, [r3, #-8]	@ zero_extendqisi2
 920 00e2 13F807AC 		ldrb	r10, [r3, #-7]	@ zero_extendqisi2
 921 00e6 1CF80110 		ldrb	r1, [ip, r1]	@ zero_extendqisi2
 922 00ea 8A45     		cmp	r10, r1
 923 00ec E6D1     		bne	.L68
 631:Generated_Source\PSoC5/USB_std.c ****                             if ((pEP->addr & USB_DIR_IN) != 0u)
 924              		.loc 1 631 0
 925 00ee 13F8051C 		ldrb	r1, [r3, #-5]	@ zero_extendqisi2
 632:Generated_Source\PSoC5/USB_std.c ****                             {
 926              		.loc 1 632 0
 927 00f2 1206     		lsls	r2, r2, #24
 631:Generated_Source\PSoC5/USB_std.c ****                             if ((pEP->addr & USB_DIR_IN) != 0u)
 928              		.loc 1 631 0
 929 00f4 01F00301 		and	r1, r1, #3
 930              	.LVL73:
 632:Generated_Source\PSoC5/USB_std.c ****                             {
 931              		.loc 1 632 0
 932 00f8 43D4     		bmi	.L96
 660:Generated_Source\PSoC5/USB_std.c ****                                                     USB_MODE_ISO_OUT : USB_MODE_ACK_OUT;
 933              		.loc 1 660 0
 934 00fa 0129     		cmp	r1, #1
ARM GAS  C:\Users\mgronber\AppData\Local\Temp\ccohOFIJ.s 			page 37


 659:Generated_Source\PSoC5/USB_std.c ****                                 USB_EP[i].epMode = (epType == USB_EP_TYPE_ISOC) ?
 935              		.loc 1 659 0
 936 00fc 85F801B0 		strb	fp, [r5, #1]
 660:Generated_Source\PSoC5/USB_std.c ****                                                     USB_MODE_ISO_OUT : USB_MODE_ACK_OUT;
 937              		.loc 1 660 0
 938 0100 4ED0     		beq	.L76
 939 0102 0922     		movs	r2, #9
 940 0104 6A71     		strb	r2, [r5, #5]
 673:Generated_Source\PSoC5/USB_std.c ****                                        (epType == USB_EP_TYPE_BULK))
 941              		.loc 1 673 0
 942 0106 13F8022C 		ldrb	r2, [r3, #-2]	@ zero_extendqisi2
 943 010a 012A     		cmp	r2, #1
 944 010c 4BD0     		beq	.L97
 945              	.L74:
 680:Generated_Source\PSoC5/USB_std.c ****                             USB_EP[i].attrib = pEP->attributes;
 946              		.loc 1 680 0
 947 010e 13F8062C 		ldrb	r2, [r3, #-6]	@ zero_extendqisi2
 948 0112 0833     		adds	r3, r3, #8
 949              	.LVL74:
 950 0114 2A71     		strb	r2, [r5, #4]
 681:Generated_Source\PSoC5/USB_std.c **** 
 951              		.loc 1 681 0
 952 0116 13F80D2C 		ldrb	r2, [r3, #-13]	@ zero_extendqisi2
 619:Generated_Source\PSoC5/USB_std.c ****                 {
 953              		.loc 1 619 0
 954 011a A342     		cmp	r3, r4
 681:Generated_Source\PSoC5/USB_std.c **** 
 955              		.loc 1 681 0
 956 011c 2A70     		strb	r2, [r5]
 957              	.LVL75:
 619:Generated_Source\PSoC5/USB_std.c ****                 {
 958              		.loc 1 619 0
 959 011e D0D1     		bne	.L77
 960              	.LVL76:
 961              	.L95:
 962 0120 D9F80C10 		ldr	r1, [r9, #12]
 963              	.L66:
 964              	.LVL77:
 965 0124 0130     		adds	r0, r0, #1
 966              	.LVL78:
 613:Generated_Source\PSoC5/USB_std.c ****             {
 967              		.loc 1 613 0
 968 0126 0928     		cmp	r0, #9
 969 0128 BBD1     		bne	.L78
 970              	.LVL79:
 699:Generated_Source\PSoC5/USB_std.c ****         {
 971              		.loc 1 699 0
 972 012a B8F1000F 		cmp	r8, #0
 973 012e 10D0     		beq	.L82
 974 0130 8E44     		add	lr, lr, r1
 975 0132 01F10802 		add	r2, r1, #8
 976              	.LVL80:
 977              	.L81:
 702:Generated_Source\PSoC5/USB_std.c ****             pEP = &pEP[1u];
 978              		.loc 1 702 0
 979 0136 12F8063C 		ldrb	r3, [r2, #-6]	@ zero_extendqisi2
 980 013a 12F8081C 		ldrb	r1, [r2, #-8]	@ zero_extendqisi2
ARM GAS  C:\Users\mgronber\AppData\Local\Temp\ccohOFIJ.s 			page 38


 981 013e 03F07F03 		and	r3, r3, #127
 982 0142 03EB4303 		add	r3, r3, r3, lsl #1
 983 0146 0832     		adds	r2, r2, #8
 984              	.LVL81:
 985 0148 07EB8303 		add	r3, r7, r3, lsl #2
 699:Generated_Source\PSoC5/USB_std.c ****         {
 986              		.loc 1 699 0
 987 014c 7245     		cmp	r2, lr
 702:Generated_Source\PSoC5/USB_std.c ****             pEP = &pEP[1u];
 988              		.loc 1 702 0
 989 014e 9972     		strb	r1, [r3, #10]
 990              	.LVL82:
 699:Generated_Source\PSoC5/USB_std.c ****         {
 991              		.loc 1 699 0
 992 0150 F1D1     		bne	.L81
 993              	.L82:
 706:Generated_Source\PSoC5/USB_std.c ****         /* Set the endpoint buffer addresses */
 994              		.loc 1 706 0
 995 0152 FFF7FEFF 		bl	USB_GetInterfaceClassTablePtr
 996              	.LVL83:
 997 0156 204B     		ldr	r3, .L98+28
 998 0158 0121     		movs	r1, #1
 999 015a 1860     		str	r0, [r3]
 1000              	.LVL84:
 501:Generated_Source\PSoC5/USB_std.c ****     #endif /*  USB_EP_MM != USB__EP_DMAAUTO */
 1001              		.loc 1 501 0
 1002 015c 0023     		movs	r3, #0
 1003              	.LVL85:
 1004              	.L80:
 712:Generated_Source\PSoC5/USB_std.c ****                  buffCount += USB_EP[ep].bufferSize;
 1005              		.loc 1 712 0
 1006 015e 01EB4102 		add	r2, r1, r1, lsl #1
 1007 0162 07EB8202 		add	r2, r7, r2, lsl #2
 1008 0166 D380     		strh	r3, [r2, #6]	@ movhi
 713:Generated_Source\PSoC5/USB_std.c ****             }
 1009              		.loc 1 713 0
 1010 0168 1289     		ldrh	r2, [r2, #8]
 1011 016a 0131     		adds	r1, r1, #1
 1012              	.LVL86:
 1013 016c 1344     		add	r3, r3, r2
 1014              	.LVL87:
 710:Generated_Source\PSoC5/USB_std.c ****             {
 1015              		.loc 1 710 0
 1016 016e 0929     		cmp	r1, #9
 713:Generated_Source\PSoC5/USB_std.c ****             }
 1017              		.loc 1 713 0
 1018 0170 9BB2     		uxth	r3, r3
 1019              	.LVL88:
 710:Generated_Source\PSoC5/USB_std.c ****             {
 1020              		.loc 1 710 0
 1021 0172 F4D1     		bne	.L80
 1022              	.LBE43:
 1023              	.LBE42:
 720:Generated_Source\PSoC5/USB_std.c **** 
 1024              		.loc 1 720 0
 1025 0174 BDE8F84F 		pop	{r3, r4, r5, r6, r7, r8, r9, r10, fp, lr}
 1026              		.cfi_remember_state
ARM GAS  C:\Users\mgronber\AppData\Local\Temp\ccohOFIJ.s 			page 39


 1027              		.cfi_restore 14
 1028              		.cfi_restore 11
 1029              		.cfi_restore 10
 1030              		.cfi_restore 9
 1031              		.cfi_restore 8
 1032              		.cfi_restore 7
 1033              		.cfi_restore 6
 1034              		.cfi_restore 5
 1035              		.cfi_restore 4
 1036              		.cfi_restore 3
 1037              		.cfi_def_cfa_offset 0
 1038              	.LVL89:
 1039              	.LBB53:
 1040              	.LBB52:
 718:Generated_Source\PSoC5/USB_std.c ****     } /* USB_configuration > 0 */
 1041              		.loc 1 718 0
 1042 0178 FFF7FEBF 		b	USB_ConfigReg
 1043              	.LVL90:
 1044              	.L63:
 1045              		.cfi_restore_state
 535:Generated_Source\PSoC5/USB_std.c ****         if((pDescr[USB_CONFIG_DESCR_ATTRIB] & USB_CONFIG_DESCR_ATTRIB_SELF_POWERED) != 0u)
 1046              		.loc 1 535 0
 1047 017c 0023     		movs	r3, #0
 1048              	.LVL91:
 1049 017e 5B68     		ldr	r3, [r3, #4]
 1050 0180 FFDE     		.inst	0xdeff
 1051              	.LVL92:
 1052              	.L96:
 635:Generated_Source\PSoC5/USB_std.c ****                                 USB_EP[i].epMode = (epType == USB_EP_TYPE_ISOC) ?
 1053              		.loc 1 635 0
 1054 0182 0122     		movs	r2, #1
 636:Generated_Source\PSoC5/USB_std.c ****                                                         USB_MODE_ISO_IN : USB_MODE_ACK_IN;
 1055              		.loc 1 636 0
 1056 0184 9142     		cmp	r1, r2
 635:Generated_Source\PSoC5/USB_std.c ****                                 USB_EP[i].epMode = (epType == USB_EP_TYPE_ISOC) ?
 1057              		.loc 1 635 0
 1058 0186 6A70     		strb	r2, [r5, #1]
 636:Generated_Source\PSoC5/USB_std.c ****                                                         USB_MODE_ISO_IN : USB_MODE_ACK_IN;
 1059              		.loc 1 636 0
 1060 0188 14D0     		beq	.L72
 1061 018a 0D22     		movs	r2, #13
 1062 018c 6A71     		strb	r2, [r5, #5]
 649:Generated_Source\PSoC5/USB_std.c ****                                        (epType == USB_EP_TYPE_BULK))
 1063              		.loc 1 649 0
 1064 018e 13F8022C 		ldrb	r2, [r3, #-2]	@ zero_extendqisi2
 1065 0192 012A     		cmp	r2, #1
 1066 0194 BBD1     		bne	.L74
 1067 0196 0229     		cmp	r1, #2
 1068 0198 B9D1     		bne	.L74
 652:Generated_Source\PSoC5/USB_std.c ****                                     }
 1069              		.loc 1 652 0
 1070 019a 104A     		ldr	r2, .L98+32
 1071 019c 1670     		strb	r6, [r2]
 1072 019e B6E7     		b	.L74
 1073              	.L76:
 660:Generated_Source\PSoC5/USB_std.c ****                                                     USB_MODE_ISO_OUT : USB_MODE_ACK_OUT;
 1074              		.loc 1 660 0
ARM GAS  C:\Users\mgronber\AppData\Local\Temp\ccohOFIJ.s 			page 40


 1075 01a0 0522     		movs	r2, #5
 1076 01a2 6A71     		strb	r2, [r5, #5]
 1077 01a4 B3E7     		b	.L74
 1078              	.L97:
 673:Generated_Source\PSoC5/USB_std.c ****                                        (epType == USB_EP_TYPE_BULK))
 1079              		.loc 1 673 0
 1080 01a6 0229     		cmp	r1, #2
 676:Generated_Source\PSoC5/USB_std.c ****                                     }
 1081              		.loc 1 676 0
 1082 01a8 04BF     		itt	eq
 1083 01aa 0D4A     		ldreq	r2, .L98+36
 1084 01ac 1670     		strbeq	r6, [r2]
 1085 01ae AEE7     		b	.L74
 1086              	.LVL93:
 1087              	.L59:
 1088 01b0 BDE8F88F 		pop	{r3, r4, r5, r6, r7, r8, r9, r10, fp, pc}
 1089              	.LVL94:
 1090              	.L72:
 636:Generated_Source\PSoC5/USB_std.c ****                                                         USB_MODE_ISO_IN : USB_MODE_ACK_IN;
 1091              		.loc 1 636 0
 1092 01b4 0722     		movs	r2, #7
 1093 01b6 6A71     		strb	r2, [r5, #5]
 1094 01b8 A9E7     		b	.L74
 1095              	.L99:
 1096 01ba 00BF     		.align	2
 1097              	.L98:
 1098 01bc 00000000 		.word	USB_EP
 1099 01c0 00000000 		.word	USB_interfaceSetting
 1100 01c4 00000000 		.word	USB_interfaceSetting_last
 1101 01c8 00000000 		.word	USB_configuration
 1102 01cc 00000000 		.word	USB_device
 1103 01d0 00000000 		.word	USB_TABLE
 1104 01d4 00000000 		.word	USB_deviceStatus
 1105 01d8 00000000 		.word	USB_interfaceClass
 1106 01dc 00000000 		.word	USB_midi_in_ep
 1107 01e0 00000000 		.word	USB_midi_out_ep
 1108              	.LBE52:
 1109              	.LBE53:
 1110              		.cfi_endproc
 1111              	.LFE3:
 1112              		.size	USB_Config, .-USB_Config
 1113              		.section	.text.USB_TerminateEP,"ax",%progbits
 1114              		.align	2
 1115              		.global	USB_TerminateEP
 1116              		.thumb
 1117              		.thumb_func
 1118              		.type	USB_TerminateEP, %function
 1119              	USB_TerminateEP:
 1120              	.LFB8:
 954:Generated_Source\PSoC5/USB_std.c **** 
 955:Generated_Source\PSoC5/USB_std.c **** 
 956:Generated_Source\PSoC5/USB_std.c **** /*******************************************************************************
 957:Generated_Source\PSoC5/USB_std.c **** * Function Name: USB_TerminateEP
 958:Generated_Source\PSoC5/USB_std.c **** ********************************************************************************
 959:Generated_Source\PSoC5/USB_std.c **** *
 960:Generated_Source\PSoC5/USB_std.c **** * Summary:
 961:Generated_Source\PSoC5/USB_std.c **** *  This function terminates the specified USBFS endpoint.
ARM GAS  C:\Users\mgronber\AppData\Local\Temp\ccohOFIJ.s 			page 41


 962:Generated_Source\PSoC5/USB_std.c **** *  This function should be used before endpoint reconfiguration.
 963:Generated_Source\PSoC5/USB_std.c **** *
 964:Generated_Source\PSoC5/USB_std.c **** * Parameters:
 965:Generated_Source\PSoC5/USB_std.c **** *  Endpoint number.
 966:Generated_Source\PSoC5/USB_std.c **** *
 967:Generated_Source\PSoC5/USB_std.c **** * Return:
 968:Generated_Source\PSoC5/USB_std.c **** *  None.
 969:Generated_Source\PSoC5/USB_std.c **** *
 970:Generated_Source\PSoC5/USB_std.c **** * Reentrant:
 971:Generated_Source\PSoC5/USB_std.c **** *  No.
 972:Generated_Source\PSoC5/USB_std.c **** *
 973:Generated_Source\PSoC5/USB_std.c **** *******************************************************************************/
 974:Generated_Source\PSoC5/USB_std.c **** void USB_TerminateEP(uint8 ep) 
 975:Generated_Source\PSoC5/USB_std.c **** {
 1121              		.loc 1 975 0
 1122              		.cfi_startproc
 1123              		@ args = 0, pretend = 0, frame = 0
 1124              		@ frame_needed = 0, uses_anonymous_args = 0
 1125              		@ link register save eliminated.
 976:Generated_Source\PSoC5/USB_std.c ****     uint8 ri;
 977:Generated_Source\PSoC5/USB_std.c **** 
 978:Generated_Source\PSoC5/USB_std.c ****     ep &= USB_DIR_UNUSED;
 1126              		.loc 1 978 0
 1127 0000 00F07F00 		and	r0, r0, #127
 979:Generated_Source\PSoC5/USB_std.c ****     ri = ((ep - USB_EP1) << USB_EPX_CNTX_ADDR_SHIFT);
 1128              		.loc 1 979 0
 1129 0004 431E     		subs	r3, r0, #1
 1130 0006 DBB2     		uxtb	r3, r3
 980:Generated_Source\PSoC5/USB_std.c **** 
 981:Generated_Source\PSoC5/USB_std.c ****     if ((ep > USB_EP0) && (ep < USB_MAX_EP))
 1131              		.loc 1 981 0
 1132 0008 072B     		cmp	r3, #7
 1133 000a 19D8     		bhi	.L105
 975:Generated_Source\PSoC5/USB_std.c ****     uint8 ri;
 1134              		.loc 1 975 0
 1135 000c 10B4     		push	{r4}
 1136              		.cfi_def_cfa_offset 4
 1137              		.cfi_offset 4, -4
 982:Generated_Source\PSoC5/USB_std.c ****     {
 983:Generated_Source\PSoC5/USB_std.c ****         /* Set the endpoint Halt */
 984:Generated_Source\PSoC5/USB_std.c ****         USB_EP[ep].hwEpState |= (USB_ENDPOINT_STATUS_HALT);
 1138              		.loc 1 984 0
 1139 000e 0D4A     		ldr	r2, .L106
 1140 0010 00EB4000 		add	r0, r0, r0, lsl #1
 1141 0014 02EB8000 		add	r0, r2, r0, lsl #2
 1142 0018 8278     		ldrb	r2, [r0, #2]	@ zero_extendqisi2
 985:Generated_Source\PSoC5/USB_std.c **** 
 986:Generated_Source\PSoC5/USB_std.c ****         /* Clear the data toggle */
 987:Generated_Source\PSoC5/USB_std.c ****         USB_EP[ep].epToggle = 0u;
 988:Generated_Source\PSoC5/USB_std.c ****         USB_EP[ep].apiEpState = USB_NO_EVENT_ALLOWED;
 1143              		.loc 1 988 0
 1144 001a 0221     		movs	r1, #2
 987:Generated_Source\PSoC5/USB_std.c ****         USB_EP[ep].apiEpState = USB_NO_EVENT_ALLOWED;
 1145              		.loc 1 987 0
 1146 001c 0024     		movs	r4, #0
 984:Generated_Source\PSoC5/USB_std.c **** 
 1147              		.loc 1 984 0
ARM GAS  C:\Users\mgronber\AppData\Local\Temp\ccohOFIJ.s 			page 42


 1148 001e 42F00102 		orr	r2, r2, #1
 1149 0022 8270     		strb	r2, [r0, #2]
 987:Generated_Source\PSoC5/USB_std.c ****         USB_EP[ep].apiEpState = USB_NO_EVENT_ALLOWED;
 1150              		.loc 1 987 0
 1151 0024 C470     		strb	r4, [r0, #3]
 1152              		.loc 1 988 0
 1153 0026 4170     		strb	r1, [r0, #1]
 989:Generated_Source\PSoC5/USB_std.c **** 
 990:Generated_Source\PSoC5/USB_std.c ****         if ((USB_EP[ep].addr & USB_DIR_IN) != 0u)
 1154              		.loc 1 990 0
 1155 0028 0279     		ldrb	r2, [r0, #4]	@ zero_extendqisi2
 979:Generated_Source\PSoC5/USB_std.c **** 
 1156              		.loc 1 979 0
 1157 002a 1B01     		lsls	r3, r3, #4
 1158              		.loc 1 990 0
 1159 002c 12F0800F 		tst	r2, #128
 991:Generated_Source\PSoC5/USB_std.c ****         {
 992:Generated_Source\PSoC5/USB_std.c ****             /* IN Endpoint */
 993:Generated_Source\PSoC5/USB_std.c ****             CY_SET_REG8((reg8 *)(USB_SIE_EP1_CR0_IND + ri), USB_MODE_NAK_IN);
 1160              		.loc 1 993 0
 1161 0030 054A     		ldr	r2, .L106+4
 979:Generated_Source\PSoC5/USB_std.c **** 
 1162              		.loc 1 979 0
 1163 0032 DBB2     		uxtb	r3, r3
 1164              		.loc 1 993 0
 1165 0034 14BF     		ite	ne
 1166 0036 0C21     		movne	r1, #12
 994:Generated_Source\PSoC5/USB_std.c ****         }
 995:Generated_Source\PSoC5/USB_std.c ****         else
 996:Generated_Source\PSoC5/USB_std.c ****         {
 997:Generated_Source\PSoC5/USB_std.c ****             /* OUT Endpoint */
 998:Generated_Source\PSoC5/USB_std.c ****             CY_SET_REG8((reg8 *)(USB_SIE_EP1_CR0_IND + ri), USB_MODE_NAK_OUT);
 1167              		.loc 1 998 0
 1168 0038 0821     		moveq	r1, #8
 1169 003a 9954     		strb	r1, [r3, r2]
 999:Generated_Source\PSoC5/USB_std.c ****         }
1000:Generated_Source\PSoC5/USB_std.c ****     }
1001:Generated_Source\PSoC5/USB_std.c **** }
 1170              		.loc 1 1001 0
 1171 003c 5DF8044B 		ldr	r4, [sp], #4
 1172              		.cfi_restore 4
 1173              		.cfi_def_cfa_offset 0
 1174              	.L105:
 1175 0040 7047     		bx	lr
 1176              	.L107:
 1177 0042 00BF     		.align	2
 1178              	.L106:
 1179 0044 00000000 		.word	USB_EP
 1180 0048 0E600040 		.word	1073766414
 1181              		.cfi_endproc
 1182              	.LFE8:
 1183              		.size	USB_TerminateEP, .-USB_TerminateEP
 1184              		.section	.text.USB_SetEndpointHalt,"ax",%progbits
 1185              		.align	2
 1186              		.global	USB_SetEndpointHalt
 1187              		.thumb
 1188              		.thumb_func
ARM GAS  C:\Users\mgronber\AppData\Local\Temp\ccohOFIJ.s 			page 43


 1189              		.type	USB_SetEndpointHalt, %function
 1190              	USB_SetEndpointHalt:
 1191              	.LFB9:
1002:Generated_Source\PSoC5/USB_std.c **** 
1003:Generated_Source\PSoC5/USB_std.c **** 
1004:Generated_Source\PSoC5/USB_std.c **** /*******************************************************************************
1005:Generated_Source\PSoC5/USB_std.c **** * Function Name: USB_SetEndpointHalt
1006:Generated_Source\PSoC5/USB_std.c **** ********************************************************************************
1007:Generated_Source\PSoC5/USB_std.c **** *
1008:Generated_Source\PSoC5/USB_std.c **** * Summary:
1009:Generated_Source\PSoC5/USB_std.c **** *  This routine handles set endpoint halt.
1010:Generated_Source\PSoC5/USB_std.c **** *
1011:Generated_Source\PSoC5/USB_std.c **** * Parameters:
1012:Generated_Source\PSoC5/USB_std.c **** *  None.
1013:Generated_Source\PSoC5/USB_std.c **** *
1014:Generated_Source\PSoC5/USB_std.c **** * Return:
1015:Generated_Source\PSoC5/USB_std.c **** *  requestHandled.
1016:Generated_Source\PSoC5/USB_std.c **** *
1017:Generated_Source\PSoC5/USB_std.c **** * Reentrant:
1018:Generated_Source\PSoC5/USB_std.c **** *  No.
1019:Generated_Source\PSoC5/USB_std.c **** *
1020:Generated_Source\PSoC5/USB_std.c **** *******************************************************************************/
1021:Generated_Source\PSoC5/USB_std.c **** uint8 USB_SetEndpointHalt(void) 
1022:Generated_Source\PSoC5/USB_std.c **** {
 1192              		.loc 1 1022 0
 1193              		.cfi_startproc
 1194              		@ args = 0, pretend = 0, frame = 0
 1195              		@ frame_needed = 0, uses_anonymous_args = 0
 1196              		@ link register save eliminated.
 1197              	.LVL95:
1023:Generated_Source\PSoC5/USB_std.c ****     uint8 ep;
1024:Generated_Source\PSoC5/USB_std.c ****     uint8 ri;
1025:Generated_Source\PSoC5/USB_std.c ****     uint8 requestHandled = USB_FALSE;
1026:Generated_Source\PSoC5/USB_std.c **** 
1027:Generated_Source\PSoC5/USB_std.c ****     /* Set endpoint halt */
1028:Generated_Source\PSoC5/USB_std.c ****     ep = CY_GET_REG8(USB_wIndexLo) & USB_DIR_UNUSED;
 1198              		.loc 1 1028 0
 1199 0000 124B     		ldr	r3, .L112
 1200 0002 1A78     		ldrb	r2, [r3]	@ zero_extendqisi2
 1201 0004 02F07F02 		and	r2, r2, #127
 1202              	.LVL96:
1029:Generated_Source\PSoC5/USB_std.c ****     ri = ((ep - USB_EP1) << USB_EPX_CNTX_ADDR_SHIFT);
 1203              		.loc 1 1029 0
 1204 0008 531E     		subs	r3, r2, #1
 1205 000a DBB2     		uxtb	r3, r3
 1206              	.LVL97:
1030:Generated_Source\PSoC5/USB_std.c **** 
1031:Generated_Source\PSoC5/USB_std.c ****     if ((ep > USB_EP0) && (ep < USB_MAX_EP))
 1207              		.loc 1 1031 0
 1208 000c 072B     		cmp	r3, #7
 1209 000e 1AD8     		bhi	.L109
1032:Generated_Source\PSoC5/USB_std.c ****     {
1033:Generated_Source\PSoC5/USB_std.c ****         /* Set the endpoint Halt */
1034:Generated_Source\PSoC5/USB_std.c ****         USB_EP[ep].hwEpState |= (USB_ENDPOINT_STATUS_HALT);
 1210              		.loc 1 1034 0
 1211 0010 0F49     		ldr	r1, .L112+4
 1212 0012 02EB4202 		add	r2, r2, r2, lsl #1
ARM GAS  C:\Users\mgronber\AppData\Local\Temp\ccohOFIJ.s 			page 44


 1213              	.LVL98:
 1214 0016 01EB8202 		add	r2, r1, r2, lsl #2
 1215 001a 9178     		ldrb	r1, [r2, #2]	@ zero_extendqisi2
1035:Generated_Source\PSoC5/USB_std.c **** 
1036:Generated_Source\PSoC5/USB_std.c ****         /* Clear the data toggle */
1037:Generated_Source\PSoC5/USB_std.c ****         USB_EP[ep].epToggle = 0u;
 1216              		.loc 1 1037 0
 1217 001c 0020     		movs	r0, #0
1034:Generated_Source\PSoC5/USB_std.c **** 
 1218              		.loc 1 1034 0
 1219 001e 41F00101 		orr	r1, r1, #1
 1220 0022 9170     		strb	r1, [r2, #2]
 1221              		.loc 1 1037 0
 1222 0024 D070     		strb	r0, [r2, #3]
1038:Generated_Source\PSoC5/USB_std.c ****         USB_EP[ep].apiEpState |= USB_NO_EVENT_ALLOWED;
 1223              		.loc 1 1038 0
 1224 0026 5178     		ldrb	r1, [r2, #1]	@ zero_extendqisi2
1029:Generated_Source\PSoC5/USB_std.c **** 
 1225              		.loc 1 1029 0
 1226 0028 1B01     		lsls	r3, r3, #4
 1227              	.LVL99:
 1228              		.loc 1 1038 0
 1229 002a 41F00201 		orr	r1, r1, #2
 1230 002e 5170     		strb	r1, [r2, #1]
1039:Generated_Source\PSoC5/USB_std.c **** 
1040:Generated_Source\PSoC5/USB_std.c ****         if ((USB_EP[ep].addr & USB_DIR_IN) != 0u)
 1231              		.loc 1 1040 0
 1232 0030 1279     		ldrb	r2, [r2, #4]	@ zero_extendqisi2
1029:Generated_Source\PSoC5/USB_std.c **** 
 1233              		.loc 1 1029 0
 1234 0032 DBB2     		uxtb	r3, r3
 1235              		.loc 1 1040 0
 1236 0034 12F0800F 		tst	r2, #128
1041:Generated_Source\PSoC5/USB_std.c ****         {
1042:Generated_Source\PSoC5/USB_std.c ****             /* IN Endpoint */
1043:Generated_Source\PSoC5/USB_std.c ****             CY_SET_REG8((reg8 *)(USB_SIE_EP1_CR0_IND + ri), USB_MODE_STALL_DATA_EP |
 1237              		.loc 1 1043 0
 1238 0038 064A     		ldr	r2, .L112+8
 1239 003a 14BF     		ite	ne
 1240 003c 8D21     		movne	r1, #141
1044:Generated_Source\PSoC5/USB_std.c ****                                                                USB_MODE_ACK_IN);
1045:Generated_Source\PSoC5/USB_std.c ****         }
1046:Generated_Source\PSoC5/USB_std.c ****         else
1047:Generated_Source\PSoC5/USB_std.c ****         {
1048:Generated_Source\PSoC5/USB_std.c ****             /* OUT Endpoint */
1049:Generated_Source\PSoC5/USB_std.c ****             CY_SET_REG8((reg8 *)(USB_SIE_EP1_CR0_IND + ri), USB_MODE_STALL_DATA_EP |
 1241              		.loc 1 1049 0
 1242 003e 8921     		moveq	r1, #137
 1243 0040 9954     		strb	r1, [r3, r2]
1050:Generated_Source\PSoC5/USB_std.c ****                                                                USB_MODE_ACK_OUT);
1051:Generated_Source\PSoC5/USB_std.c ****         }
1052:Generated_Source\PSoC5/USB_std.c ****         requestHandled = USB_InitNoDataControlTransfer();
 1244              		.loc 1 1052 0
 1245 0042 FFF7FEBF 		b	USB_InitNoDataControlTransfer
 1246              	.LVL100:
 1247              	.L109:
1053:Generated_Source\PSoC5/USB_std.c ****     }
ARM GAS  C:\Users\mgronber\AppData\Local\Temp\ccohOFIJ.s 			page 45


1054:Generated_Source\PSoC5/USB_std.c **** 
1055:Generated_Source\PSoC5/USB_std.c ****     return(requestHandled);
1056:Generated_Source\PSoC5/USB_std.c **** }
 1248              		.loc 1 1056 0
 1249 0046 0020     		movs	r0, #0
 1250 0048 7047     		bx	lr
 1251              	.L113:
 1252 004a 00BF     		.align	2
 1253              	.L112:
 1254 004c 04600040 		.word	1073766404
 1255 0050 00000000 		.word	USB_EP
 1256 0054 0E600040 		.word	1073766414
 1257              		.cfi_endproc
 1258              	.LFE9:
 1259              		.size	USB_SetEndpointHalt, .-USB_SetEndpointHalt
 1260              		.section	.text.USB_ClearEndpointHalt,"ax",%progbits
 1261              		.align	2
 1262              		.global	USB_ClearEndpointHalt
 1263              		.thumb
 1264              		.thumb_func
 1265              		.type	USB_ClearEndpointHalt, %function
 1266              	USB_ClearEndpointHalt:
 1267              	.LFB10:
1057:Generated_Source\PSoC5/USB_std.c **** 
1058:Generated_Source\PSoC5/USB_std.c **** 
1059:Generated_Source\PSoC5/USB_std.c **** /*******************************************************************************
1060:Generated_Source\PSoC5/USB_std.c **** * Function Name: USB_ClearEndpointHalt
1061:Generated_Source\PSoC5/USB_std.c **** ********************************************************************************
1062:Generated_Source\PSoC5/USB_std.c **** *
1063:Generated_Source\PSoC5/USB_std.c **** * Summary:
1064:Generated_Source\PSoC5/USB_std.c **** *  This routine handles clear endpoint halt.
1065:Generated_Source\PSoC5/USB_std.c **** *
1066:Generated_Source\PSoC5/USB_std.c **** * Parameters:
1067:Generated_Source\PSoC5/USB_std.c **** *  None.
1068:Generated_Source\PSoC5/USB_std.c **** *
1069:Generated_Source\PSoC5/USB_std.c **** * Return:
1070:Generated_Source\PSoC5/USB_std.c **** *  requestHandled.
1071:Generated_Source\PSoC5/USB_std.c **** *
1072:Generated_Source\PSoC5/USB_std.c **** * Reentrant:
1073:Generated_Source\PSoC5/USB_std.c **** *  No.
1074:Generated_Source\PSoC5/USB_std.c **** *
1075:Generated_Source\PSoC5/USB_std.c **** *******************************************************************************/
1076:Generated_Source\PSoC5/USB_std.c **** uint8 USB_ClearEndpointHalt(void) 
1077:Generated_Source\PSoC5/USB_std.c **** {
 1268              		.loc 1 1077 0
 1269              		.cfi_startproc
 1270              		@ args = 0, pretend = 0, frame = 0
 1271              		@ frame_needed = 0, uses_anonymous_args = 0
 1272              		@ link register save eliminated.
 1273              	.LVL101:
1078:Generated_Source\PSoC5/USB_std.c ****     uint8 ep;
1079:Generated_Source\PSoC5/USB_std.c ****     uint8 ri;
1080:Generated_Source\PSoC5/USB_std.c ****     uint8 requestHandled = USB_FALSE;
1081:Generated_Source\PSoC5/USB_std.c **** 
1082:Generated_Source\PSoC5/USB_std.c ****     /* Clear endpoint halt */
1083:Generated_Source\PSoC5/USB_std.c ****     ep = CY_GET_REG8(USB_wIndexLo) & USB_DIR_UNUSED;
 1274              		.loc 1 1083 0
ARM GAS  C:\Users\mgronber\AppData\Local\Temp\ccohOFIJ.s 			page 46


 1275 0000 1C4B     		ldr	r3, .L122
 1276 0002 1B78     		ldrb	r3, [r3]	@ zero_extendqisi2
 1277 0004 03F07F03 		and	r3, r3, #127
 1278              	.LVL102:
1084:Generated_Source\PSoC5/USB_std.c ****     ri = ((ep - USB_EP1) << USB_EPX_CNTX_ADDR_SHIFT);
 1279              		.loc 1 1084 0
 1280 0008 591E     		subs	r1, r3, #1
 1281 000a C9B2     		uxtb	r1, r1
 1282              	.LVL103:
1085:Generated_Source\PSoC5/USB_std.c **** 
1086:Generated_Source\PSoC5/USB_std.c ****     if ((ep > USB_EP0) && (ep < USB_MAX_EP))
 1283              		.loc 1 1086 0
 1284 000c 0729     		cmp	r1, #7
 1285 000e 24D8     		bhi	.L115
1077:Generated_Source\PSoC5/USB_std.c ****     uint8 ep;
 1286              		.loc 1 1077 0
 1287 0010 10B4     		push	{r4}
 1288              		.cfi_def_cfa_offset 4
 1289              		.cfi_offset 4, -4
1087:Generated_Source\PSoC5/USB_std.c ****     {
1088:Generated_Source\PSoC5/USB_std.c ****         /* Clear the endpoint Halt */
1089:Generated_Source\PSoC5/USB_std.c ****         USB_EP[ep].hwEpState &= (uint8)~(USB_ENDPOINT_STATUS_HALT);
 1290              		.loc 1 1089 0
 1291 0012 194A     		ldr	r2, .L122+4
 1292 0014 03EB4303 		add	r3, r3, r3, lsl #1
 1293              	.LVL104:
 1294 0018 02EB8303 		add	r3, r2, r3, lsl #2
 1295 001c 9A78     		ldrb	r2, [r3, #2]	@ zero_extendqisi2
1090:Generated_Source\PSoC5/USB_std.c **** 
1091:Generated_Source\PSoC5/USB_std.c ****         /* Clear the data toggle */
1092:Generated_Source\PSoC5/USB_std.c ****         USB_EP[ep].epToggle = 0u;
1093:Generated_Source\PSoC5/USB_std.c ****         /* Clear toggle bit for already armed packet */
1094:Generated_Source\PSoC5/USB_std.c ****         CY_SET_REG8((reg8 *)(USB_SIE_EP1_CNT0_IND + ri), CY_GET_REG8(
 1296              		.loc 1 1094 0
 1297 001e 1748     		ldr	r0, .L122+8
1089:Generated_Source\PSoC5/USB_std.c **** 
 1298              		.loc 1 1089 0
 1299 0020 02F0FE02 		and	r2, r2, #254
1084:Generated_Source\PSoC5/USB_std.c **** 
 1300              		.loc 1 1084 0
 1301 0024 0901     		lsls	r1, r1, #4
 1302              	.LVL105:
1092:Generated_Source\PSoC5/USB_std.c ****         /* Clear toggle bit for already armed packet */
 1303              		.loc 1 1092 0
 1304 0026 0024     		movs	r4, #0
1089:Generated_Source\PSoC5/USB_std.c **** 
 1305              		.loc 1 1089 0
 1306 0028 9A70     		strb	r2, [r3, #2]
 1307              		.loc 1 1094 0
 1308 002a C9B2     		uxtb	r1, r1
1092:Generated_Source\PSoC5/USB_std.c ****         /* Clear toggle bit for already armed packet */
 1309              		.loc 1 1092 0
 1310 002c DC70     		strb	r4, [r3, #3]
 1311              		.loc 1 1094 0
 1312 002e 0A5C     		ldrb	r2, [r1, r0]	@ zero_extendqisi2
 1313 0030 02F07F02 		and	r2, r2, #127
 1314 0034 0A54     		strb	r2, [r1, r0]
ARM GAS  C:\Users\mgronber\AppData\Local\Temp\ccohOFIJ.s 			page 47


1095:Generated_Source\PSoC5/USB_std.c ****                     (reg8 *)(USB_SIE_EP1_CNT0_IND + ri)) & (uint8)~USB_EPX_CNT_DATA_TOGGLE);
1096:Generated_Source\PSoC5/USB_std.c ****         /* Return API State as it was defined before */
1097:Generated_Source\PSoC5/USB_std.c ****         USB_EP[ep].apiEpState &= (uint8)~USB_NO_EVENT_ALLOWED;
 1315              		.loc 1 1097 0
 1316 0036 5A78     		ldrb	r2, [r3, #1]	@ zero_extendqisi2
 1317 0038 02F0FD02 		and	r2, r2, #253
 1318 003c 5A70     		strb	r2, [r3, #1]
1098:Generated_Source\PSoC5/USB_std.c **** 
1099:Generated_Source\PSoC5/USB_std.c ****         if ((USB_EP[ep].addr & USB_DIR_IN) != 0u)
 1319              		.loc 1 1099 0
 1320 003e 1A79     		ldrb	r2, [r3, #4]	@ zero_extendqisi2
1100:Generated_Source\PSoC5/USB_std.c ****         {
1101:Generated_Source\PSoC5/USB_std.c ****             /* IN Endpoint */
1102:Generated_Source\PSoC5/USB_std.c ****             if(USB_EP[ep].apiEpState == USB_IN_BUFFER_EMPTY)
 1321              		.loc 1 1102 0
 1322 0040 5B78     		ldrb	r3, [r3, #1]	@ zero_extendqisi2
1099:Generated_Source\PSoC5/USB_std.c ****         {
 1323              		.loc 1 1099 0
 1324 0042 1206     		lsls	r2, r2, #24
 1325 0044 0BD4     		bmi	.L121
1103:Generated_Source\PSoC5/USB_std.c ****             {       /* Wait for next packet from application */
1104:Generated_Source\PSoC5/USB_std.c ****                 CY_SET_REG8((reg8 *)(USB_SIE_EP1_CR0_IND + ri), USB_MODE_NAK_IN);
1105:Generated_Source\PSoC5/USB_std.c ****             }
1106:Generated_Source\PSoC5/USB_std.c ****             else    /* Continue armed transfer */
1107:Generated_Source\PSoC5/USB_std.c ****             {
1108:Generated_Source\PSoC5/USB_std.c ****                 CY_SET_REG8((reg8 *)(USB_SIE_EP1_CR0_IND + ri), USB_MODE_ACK_IN);
1109:Generated_Source\PSoC5/USB_std.c ****             }
1110:Generated_Source\PSoC5/USB_std.c ****         }
1111:Generated_Source\PSoC5/USB_std.c ****         else
1112:Generated_Source\PSoC5/USB_std.c ****         {
1113:Generated_Source\PSoC5/USB_std.c ****             /* OUT Endpoint */
1114:Generated_Source\PSoC5/USB_std.c ****             if(USB_EP[ep].apiEpState == USB_OUT_BUFFER_FULL)
 1326              		.loc 1 1114 0
 1327 0046 012B     		cmp	r3, #1
1115:Generated_Source\PSoC5/USB_std.c ****             {       /* Allow application to read full buffer */
1116:Generated_Source\PSoC5/USB_std.c ****                 CY_SET_REG8((reg8 *)(USB_SIE_EP1_CR0_IND + ri), USB_MODE_NAK_OUT);
 1328              		.loc 1 1116 0
 1329 0048 0D4B     		ldr	r3, .L122+12
 1330 004a 0CBF     		ite	eq
 1331 004c 0822     		moveq	r2, #8
1117:Generated_Source\PSoC5/USB_std.c ****             }
1118:Generated_Source\PSoC5/USB_std.c ****             else    /* Mark endpoint as empty, so it will be reloaded */
1119:Generated_Source\PSoC5/USB_std.c ****             {
1120:Generated_Source\PSoC5/USB_std.c ****                 CY_SET_REG8((reg8 *)(USB_SIE_EP1_CR0_IND + ri), USB_MODE_ACK_OUT);
 1332              		.loc 1 1120 0
 1333 004e 0922     		movne	r2, #9
 1334 0050 CA54     		strb	r2, [r1, r3]
1121:Generated_Source\PSoC5/USB_std.c ****             }
1122:Generated_Source\PSoC5/USB_std.c ****         }
1123:Generated_Source\PSoC5/USB_std.c ****         requestHandled = USB_InitNoDataControlTransfer();
1124:Generated_Source\PSoC5/USB_std.c ****     }
1125:Generated_Source\PSoC5/USB_std.c **** 
1126:Generated_Source\PSoC5/USB_std.c ****     return(requestHandled);
1127:Generated_Source\PSoC5/USB_std.c **** }
 1335              		.loc 1 1127 0
 1336 0052 5DF8044B 		ldr	r4, [sp], #4
 1337              		.cfi_restore 4
ARM GAS  C:\Users\mgronber\AppData\Local\Temp\ccohOFIJ.s 			page 48


 1338              		.cfi_def_cfa_offset 0
1123:Generated_Source\PSoC5/USB_std.c ****     }
 1339              		.loc 1 1123 0
 1340 0056 FFF7FEBF 		b	USB_InitNoDataControlTransfer
 1341              	.LVL106:
 1342              	.L115:
 1343              		.loc 1 1127 0
 1344 005a 0020     		movs	r0, #0
 1345 005c 7047     		bx	lr
 1346              	.LVL107:
 1347              	.L121:
 1348              		.cfi_def_cfa_offset 4
 1349              		.cfi_offset 4, -4
1102:Generated_Source\PSoC5/USB_std.c ****             {       /* Wait for next packet from application */
 1350              		.loc 1 1102 0
 1351 005e 012B     		cmp	r3, #1
1104:Generated_Source\PSoC5/USB_std.c ****             }
 1352              		.loc 1 1104 0
 1353 0060 074B     		ldr	r3, .L122+12
 1354 0062 0CBF     		ite	eq
 1355 0064 0C22     		moveq	r2, #12
1108:Generated_Source\PSoC5/USB_std.c ****             }
 1356              		.loc 1 1108 0
 1357 0066 0D22     		movne	r2, #13
 1358 0068 CA54     		strb	r2, [r1, r3]
 1359              		.loc 1 1127 0
 1360 006a 5DF8044B 		ldr	r4, [sp], #4
 1361              		.cfi_restore 4
 1362              		.cfi_def_cfa_offset 0
1123:Generated_Source\PSoC5/USB_std.c ****     }
 1363              		.loc 1 1123 0
 1364 006e FFF7FEBF 		b	USB_InitNoDataControlTransfer
 1365              	.LVL108:
 1366              	.L123:
 1367 0072 00BF     		.align	2
 1368              	.L122:
 1369 0074 04600040 		.word	1073766404
 1370 0078 00000000 		.word	USB_EP
 1371 007c 0C600040 		.word	1073766412
 1372 0080 0E600040 		.word	1073766414
 1373              		.cfi_endproc
 1374              	.LFE10:
 1375              		.size	USB_ClearEndpointHalt, .-USB_ClearEndpointHalt
 1376              		.section	.text.USB_ValidateAlternateSetting,"ax",%progbits
 1377              		.align	2
 1378              		.global	USB_ValidateAlternateSetting
 1379              		.thumb
 1380              		.thumb_func
 1381              		.type	USB_ValidateAlternateSetting, %function
 1382              	USB_ValidateAlternateSetting:
 1383              	.LFB11:
1128:Generated_Source\PSoC5/USB_std.c **** 
1129:Generated_Source\PSoC5/USB_std.c **** 
1130:Generated_Source\PSoC5/USB_std.c **** /*******************************************************************************
1131:Generated_Source\PSoC5/USB_std.c **** * Function Name: USB_ValidateAlternateSetting
1132:Generated_Source\PSoC5/USB_std.c **** ********************************************************************************
1133:Generated_Source\PSoC5/USB_std.c **** *
ARM GAS  C:\Users\mgronber\AppData\Local\Temp\ccohOFIJ.s 			page 49


1134:Generated_Source\PSoC5/USB_std.c **** * Summary:
1135:Generated_Source\PSoC5/USB_std.c **** *  Validates (and records) a SET INTERFACE request.
1136:Generated_Source\PSoC5/USB_std.c **** *
1137:Generated_Source\PSoC5/USB_std.c **** * Parameters:
1138:Generated_Source\PSoC5/USB_std.c **** *  None.
1139:Generated_Source\PSoC5/USB_std.c **** *
1140:Generated_Source\PSoC5/USB_std.c **** * Return:
1141:Generated_Source\PSoC5/USB_std.c **** *  requestHandled.
1142:Generated_Source\PSoC5/USB_std.c **** *
1143:Generated_Source\PSoC5/USB_std.c **** * Reentrant:
1144:Generated_Source\PSoC5/USB_std.c **** *  No.
1145:Generated_Source\PSoC5/USB_std.c **** *
1146:Generated_Source\PSoC5/USB_std.c **** *******************************************************************************/
1147:Generated_Source\PSoC5/USB_std.c **** uint8 USB_ValidateAlternateSetting(void) 
1148:Generated_Source\PSoC5/USB_std.c **** {
 1384              		.loc 1 1148 0
 1385              		.cfi_startproc
 1386              		@ args = 0, pretend = 0, frame = 0
 1387              		@ frame_needed = 0, uses_anonymous_args = 0
 1388              		@ link register save eliminated.
 1389              	.LVL109:
1149:Generated_Source\PSoC5/USB_std.c ****     uint8 requestHandled = USB_TRUE;
1150:Generated_Source\PSoC5/USB_std.c ****     uint8 interfaceNum;
1151:Generated_Source\PSoC5/USB_std.c ****     const T_USB_LUT CYCODE *pTmp;
1152:Generated_Source\PSoC5/USB_std.c ****     uint8 currentInterfacesNum;
1153:Generated_Source\PSoC5/USB_std.c **** 
1154:Generated_Source\PSoC5/USB_std.c ****     interfaceNum = CY_GET_REG8(USB_wIndexLo);
 1390              		.loc 1 1154 0
 1391 0000 154A     		ldr	r2, .L133
1155:Generated_Source\PSoC5/USB_std.c ****     /* Validate interface setting, stall if invalid. */
1156:Generated_Source\PSoC5/USB_std.c ****     pTmp = USB_GetConfigTablePtr(USB_configuration - 1u);
 1392              		.loc 1 1156 0
 1393 0002 164B     		ldr	r3, .L133+4
 1394              	.LBB54:
 1395              	.LBB55:
 873:Generated_Source\PSoC5/USB_std.c **** 
 1396              		.loc 1 873 0
 1397 0004 1648     		ldr	r0, .L133+8
 1398              	.LBE55:
 1399              	.LBE54:
1154:Generated_Source\PSoC5/USB_std.c ****     /* Validate interface setting, stall if invalid. */
 1400              		.loc 1 1154 0
 1401 0006 1278     		ldrb	r2, [r2]	@ zero_extendqisi2
 1402              	.LBB61:
 1403              	.LBB56:
 873:Generated_Source\PSoC5/USB_std.c **** 
 1404              		.loc 1 873 0
 1405 0008 1649     		ldr	r1, .L133+12
 1406              	.LBE56:
 1407              	.LBE61:
 1408              		.loc 1 1156 0
 1409 000a 1B78     		ldrb	r3, [r3]	@ zero_extendqisi2
 1410              	.LBB62:
 1411              	.LBB57:
 873:Generated_Source\PSoC5/USB_std.c **** 
 1412              		.loc 1 873 0
 1413 000c 0078     		ldrb	r0, [r0]	@ zero_extendqisi2
ARM GAS  C:\Users\mgronber\AppData\Local\Temp\ccohOFIJ.s 			page 50


 1414              	.LBE57:
 1415              	.LBE62:
 1416              		.loc 1 1156 0
 1417 000e 013B     		subs	r3, r3, #1
 1418              	.LBB63:
 1419              	.LBB58:
 873:Generated_Source\PSoC5/USB_std.c **** 
 1420              		.loc 1 873 0
 1421 0010 01EBC001 		add	r1, r1, r0, lsl #3
 1422 0014 4968     		ldr	r1, [r1, #4]
 1423              	.LBE58:
 1424              	.LBE63:
 1425              		.loc 1 1156 0
 1426 0016 DBB2     		uxtb	r3, r3
 1427              	.LBB64:
 1428              	.LBB59:
 881:Generated_Source\PSoC5/USB_std.c ****     {
 1429              		.loc 1 881 0
 1430 0018 087A     		ldrb	r0, [r1, #8]	@ zero_extendqisi2
 1431              	.LBE59:
 1432              	.LBE64:
1154:Generated_Source\PSoC5/USB_std.c ****     /* Validate interface setting, stall if invalid. */
 1433              		.loc 1 1154 0
 1434 001a D2B2     		uxtb	r2, r2
 1435              	.LVL110:
 1436              	.LBB65:
 1437              	.LBB60:
 881:Generated_Source\PSoC5/USB_std.c ****     {
 1438              		.loc 1 881 0
 1439 001c 9842     		cmp	r0, r3
 1440 001e 0AD9     		bls	.L125
 1441              	.LVL111:
 887:Generated_Source\PSoC5/USB_std.c ****     }
 1442              		.loc 1 887 0
 1443 0020 01EBC303 		add	r3, r1, r3, lsl #3
 1444              	.LVL112:
 1445              	.LBE60:
 1446              	.LBE65:
1157:Generated_Source\PSoC5/USB_std.c ****     currentInterfacesNum  = ((const uint8 *) pTmp->p_list)[USB_CONFIG_DESCR_NUM_INTERFACES];
 1447              		.loc 1 1157 0
 1448 0024 DB68     		ldr	r3, [r3, #12]
 1449 0026 5B68     		ldr	r3, [r3, #4]
1158:Generated_Source\PSoC5/USB_std.c **** 
1159:Generated_Source\PSoC5/USB_std.c ****     if((interfaceNum >= currentInterfacesNum) || (interfaceNum >= USB_MAX_INTERFACES_NUMBER))
 1450              		.loc 1 1159 0
 1451 0028 1B79     		ldrb	r3, [r3, #4]	@ zero_extendqisi2
 1452 002a 9342     		cmp	r3, r2
 1453 002c 01D9     		bls	.L128
 1454              		.loc 1 1159 0 is_stmt 0 discriminator 1
 1455 002e 012A     		cmp	r2, #1
 1456 0030 04D9     		bls	.L132
 1457              	.L128:
1160:Generated_Source\PSoC5/USB_std.c ****     {   /* Wrong interface number */
1161:Generated_Source\PSoC5/USB_std.c ****         requestHandled = USB_FALSE;
 1458              		.loc 1 1161 0 is_stmt 1
 1459 0032 0020     		movs	r0, #0
 1460              	.LVL113:
ARM GAS  C:\Users\mgronber\AppData\Local\Temp\ccohOFIJ.s 			page 51


 1461 0034 7047     		bx	lr
 1462              	.LVL114:
 1463              	.L125:
1157:Generated_Source\PSoC5/USB_std.c **** 
 1464              		.loc 1 1157 0
 1465 0036 0023     		movs	r3, #0
 1466              	.LVL115:
 1467 0038 5B68     		ldr	r3, [r3, #4]
 1468 003a FFDE     		.inst	0xdeff
 1469              	.LVL116:
 1470              	.L132:
1148:Generated_Source\PSoC5/USB_std.c ****     uint8 requestHandled = USB_TRUE;
 1471              		.loc 1 1148 0
 1472 003c 10B4     		push	{r4}
 1473              		.cfi_def_cfa_offset 4
 1474              		.cfi_offset 4, -4
1162:Generated_Source\PSoC5/USB_std.c ****     }
1163:Generated_Source\PSoC5/USB_std.c ****     else
1164:Generated_Source\PSoC5/USB_std.c ****     {
1165:Generated_Source\PSoC5/USB_std.c ****         /* Save current Alt setting to find out the difference in Config() function */
1166:Generated_Source\PSoC5/USB_std.c ****         USB_interfaceSetting_last[interfaceNum] = USB_interfaceSetting[interfaceNum];
 1475              		.loc 1 1166 0
 1476 003e 0A49     		ldr	r1, .L133+16
 1477 0040 0A4C     		ldr	r4, .L133+20
 1478 0042 8B5C     		ldrb	r3, [r1, r2]	@ zero_extendqisi2
1167:Generated_Source\PSoC5/USB_std.c ****         USB_interfaceSetting[interfaceNum] = CY_GET_REG8(USB_wValueLo);
 1479              		.loc 1 1167 0
 1480 0044 0A48     		ldr	r0, .L133+24
1166:Generated_Source\PSoC5/USB_std.c ****         USB_interfaceSetting[interfaceNum] = CY_GET_REG8(USB_wValueLo);
 1481              		.loc 1 1166 0
 1482 0046 DBB2     		uxtb	r3, r3
 1483 0048 A354     		strb	r3, [r4, r2]
 1484              		.loc 1 1167 0
 1485 004a 0378     		ldrb	r3, [r0]	@ zero_extendqisi2
1149:Generated_Source\PSoC5/USB_std.c ****     uint8 interfaceNum;
 1486              		.loc 1 1149 0
 1487 004c 0120     		movs	r0, #1
 1488              		.loc 1 1167 0
 1489 004e DBB2     		uxtb	r3, r3
 1490 0050 8B54     		strb	r3, [r1, r2]
1168:Generated_Source\PSoC5/USB_std.c ****     }
1169:Generated_Source\PSoC5/USB_std.c **** 
1170:Generated_Source\PSoC5/USB_std.c ****     return (requestHandled);
1171:Generated_Source\PSoC5/USB_std.c **** }
 1491              		.loc 1 1171 0
 1492 0052 5DF8044B 		ldr	r4, [sp], #4
 1493              		.cfi_restore 4
 1494              		.cfi_def_cfa_offset 0
 1495 0056 7047     		bx	lr
 1496              	.L134:
 1497              		.align	2
 1498              	.L133:
 1499 0058 04600040 		.word	1073766404
 1500 005c 00000000 		.word	USB_configuration
 1501 0060 00000000 		.word	USB_device
 1502 0064 00000000 		.word	USB_TABLE
 1503 0068 00000000 		.word	USB_interfaceSetting
ARM GAS  C:\Users\mgronber\AppData\Local\Temp\ccohOFIJ.s 			page 52


 1504 006c 00000000 		.word	USB_interfaceSetting_last
 1505 0070 02600040 		.word	1073766402
 1506              		.cfi_endproc
 1507              	.LFE11:
 1508              		.size	USB_ValidateAlternateSetting, .-USB_ValidateAlternateSetting
 1509              		.section	.text.USB_HandleStandardRqst,"ax",%progbits
 1510              		.align	2
 1511              		.global	USB_HandleStandardRqst
 1512              		.thumb
 1513              		.thumb_func
 1514              		.type	USB_HandleStandardRqst, %function
 1515              	USB_HandleStandardRqst:
 1516              	.LFB0:
  89:Generated_Source\PSoC5/USB_std.c ****     uint8 requestHandled = USB_FALSE;
 1517              		.loc 1 89 0
 1518              		.cfi_startproc
 1519              		@ args = 0, pretend = 0, frame = 0
 1520              		@ frame_needed = 0, uses_anonymous_args = 0
 1521              	.LVL117:
 1522 0000 38B5     		push	{r3, r4, r5, lr}
 1523              		.cfi_def_cfa_offset 16
 1524              		.cfi_offset 3, -16
 1525              		.cfi_offset 4, -12
 1526              		.cfi_offset 5, -8
 1527              		.cfi_offset 14, -4
 102:Generated_Source\PSoC5/USB_std.c **** 
 1528              		.loc 1 102 0
 1529 0002 A24C     		ldr	r4, .L209
 1530 0004 0022     		movs	r2, #0
 104:Generated_Source\PSoC5/USB_std.c ****     {
 1531              		.loc 1 104 0
 1532 0006 A24B     		ldr	r3, .L209+4
 102:Generated_Source\PSoC5/USB_std.c **** 
 1533              		.loc 1 102 0
 1534 0008 2280     		strh	r2, [r4]	@ movhi
 104:Generated_Source\PSoC5/USB_std.c ****     {
 1535              		.loc 1 104 0
 1536 000a 1B78     		ldrb	r3, [r3]	@ zero_extendqisi2
 1537 000c 13F0800F 		tst	r3, #128
 107:Generated_Source\PSoC5/USB_std.c ****         {
 1538              		.loc 1 107 0
 1539 0010 A04B     		ldr	r3, .L209+8
 1540 0012 1B78     		ldrb	r3, [r3]	@ zero_extendqisi2
 104:Generated_Source\PSoC5/USB_std.c ****     {
 1541              		.loc 1 104 0
 1542 0014 11D1     		bne	.L202
 229:Generated_Source\PSoC5/USB_std.c ****         {
 1543              		.loc 1 229 0
 1544 0016 013B     		subs	r3, r3, #1
 1545 0018 0A2B     		cmp	r3, #10
 1546 001a 0CD8     		bhi	.L137
 1547 001c DFE803F0 		tbb	[pc, r3]
 1548              	.L155:
 1549 0020 42       		.byte	(.L154-.L155)/2
 1550 0021 0B       		.byte	(.L137-.L155)/2
 1551 0022 60       		.byte	(.L156-.L155)/2
 1552 0023 0B       		.byte	(.L137-.L155)/2
ARM GAS  C:\Users\mgronber\AppData\Local\Temp\ccohOFIJ.s 			page 53


 1553 0024 57       		.byte	(.L157-.L155)/2
 1554 0025 0B       		.byte	(.L137-.L155)/2
 1555 0026 0B       		.byte	(.L137-.L155)/2
 1556 0027 0B       		.byte	(.L137-.L155)/2
 1557 0028 75       		.byte	(.L158-.L155)/2
 1558 0029 0B       		.byte	(.L137-.L155)/2
 1559 002a 28       		.byte	(.L159-.L155)/2
 1560 002b 00       		.p2align 1
 1561              	.L166:
 321:Generated_Source\PSoC5/USB_std.c ****                         {
 1562              		.loc 1 321 0
 1563 002c 9A4B     		ldr	r3, .L209+12
 1564 002e 1A78     		ldrb	r2, [r3]	@ zero_extendqisi2
 1565 0030 012A     		cmp	r2, #1
 1566 0032 40F20481 		bls	.L203
 1567              	.LVL118:
 1568              	.L137:
 337:Generated_Source\PSoC5/USB_std.c **** 
 1569              		.loc 1 337 0
 1570 0036 0020     		movs	r0, #0
 1571 0038 38BD     		pop	{r3, r4, r5, pc}
 1572              	.LVL119:
 1573              	.L202:
 107:Generated_Source\PSoC5/USB_std.c ****         {
 1574              		.loc 1 107 0
 1575 003a 0A2B     		cmp	r3, #10
 1576 003c FBD8     		bhi	.L137
 1577 003e 01A2     		adr	r2, .L139
 1578 0040 52F823F0 		ldr	pc, [r2, r3, lsl #2]
 1579              		.p2align 2
 1580              	.L139:
 1581 0044 D5010000 		.word	.L138+1
 1582 0048 37000000 		.word	.L137+1
 1583 004c 37000000 		.word	.L137+1
 1584 0050 37000000 		.word	.L137+1
 1585 0054 37000000 		.word	.L137+1
 1586 0058 37000000 		.word	.L137+1
 1587 005c 69010000 		.word	.L140+1
 1588 0060 37000000 		.word	.L137+1
 1589 0064 0F020000 		.word	.L141+1
 1590 0068 37000000 		.word	.L137+1
 1591 006c 53010000 		.word	.L142+1
 1592              		.p2align 1
 1593              	.L159:
 255:Generated_Source\PSoC5/USB_std.c ****                 {
 1594              		.loc 1 255 0
 1595 0070 FFF7FEFF 		bl	USB_ValidateAlternateSetting
 1596              	.LVL120:
 1597 0074 0028     		cmp	r0, #0
 1598 0076 DED0     		beq	.L137
 257:Generated_Source\PSoC5/USB_std.c ****                     USB_interfaceNumber = interfaceNumber;
 1599              		.loc 1 257 0
 1600 0078 874B     		ldr	r3, .L209+12
 258:Generated_Source\PSoC5/USB_std.c ****                     USB_configurationChanged = USB_TRUE;
 1601              		.loc 1 258 0
 1602 007a 8848     		ldr	r0, .L209+16
 257:Generated_Source\PSoC5/USB_std.c ****                     USB_interfaceNumber = interfaceNumber;
ARM GAS  C:\Users\mgronber\AppData\Local\Temp\ccohOFIJ.s 			page 54


 1603              		.loc 1 257 0
 1604 007c 1C78     		ldrb	r4, [r3]	@ zero_extendqisi2
 259:Generated_Source\PSoC5/USB_std.c ****                     #if ((USB_EP_MA == USB__MA_DYNAMIC) && \
 1605              		.loc 1 259 0
 1606 007e 884A     		ldr	r2, .L209+20
 257:Generated_Source\PSoC5/USB_std.c ****                     USB_interfaceNumber = interfaceNumber;
 1607              		.loc 1 257 0
 1608 0080 E4B2     		uxtb	r4, r4
 1609              	.LVL121:
 259:Generated_Source\PSoC5/USB_std.c ****                     #if ((USB_EP_MA == USB__MA_DYNAMIC) && \
 1610              		.loc 1 259 0
 1611 0082 0121     		movs	r1, #1
 1612              	.LBB66:
 1613              	.LBB67:
 754:Generated_Source\PSoC5/USB_std.c ****     {
 1614              		.loc 1 754 0
 1615 0084 874B     		ldr	r3, .L209+24
 1616              	.LBE67:
 1617              	.LBE66:
 258:Generated_Source\PSoC5/USB_std.c ****                     USB_configurationChanged = USB_TRUE;
 1618              		.loc 1 258 0
 1619 0086 0470     		strb	r4, [r0]
 259:Generated_Source\PSoC5/USB_std.c ****                     #if ((USB_EP_MA == USB__MA_DYNAMIC) && \
 1620              		.loc 1 259 0
 1621 0088 1170     		strb	r1, [r2]
 1622              	.LBB70:
 1623              	.LBB68:
 754:Generated_Source\PSoC5/USB_std.c ****     {
 1624              		.loc 1 754 0
 1625 008a 1B78     		ldrb	r3, [r3]	@ zero_extendqisi2
 1626 008c 002B     		cmp	r3, #0
 1627 008e 40F0C680 		bne	.L204
 1628              	.L162:
 1629              	.LBE68:
 1630              	.LBE70:
 268:Generated_Source\PSoC5/USB_std.c ****                     requestHandled = USB_InitNoDataControlTransfer();
 1631              		.loc 1 268 0
 1632 0092 854B     		ldr	r3, .L209+28
 267:Generated_Source\PSoC5/USB_std.c ****                          USB_interfaceSetting[interfaceNumber];
 1633              		.loc 1 267 0
 1634 0094 854A     		ldr	r2, .L209+32
 268:Generated_Source\PSoC5/USB_std.c ****                     requestHandled = USB_InitNoDataControlTransfer();
 1635              		.loc 1 268 0
 1636 0096 1B5D     		ldrb	r3, [r3, r4]	@ zero_extendqisi2
 1637 0098 DBB2     		uxtb	r3, r3
 267:Generated_Source\PSoC5/USB_std.c ****                          USB_interfaceSetting[interfaceNumber];
 1638              		.loc 1 267 0
 1639 009a 1355     		strb	r3, [r2, r4]
 337:Generated_Source\PSoC5/USB_std.c **** 
 1640              		.loc 1 337 0
 1641 009c BDE83840 		pop	{r3, r4, r5, lr}
 1642              		.cfi_remember_state
 1643              		.cfi_restore 14
 1644              		.cfi_restore 5
 1645              		.cfi_restore 4
 1646              		.cfi_restore 3
 1647              		.cfi_def_cfa_offset 0
ARM GAS  C:\Users\mgronber\AppData\Local\Temp\ccohOFIJ.s 			page 55


 1648              	.LVL122:
 269:Generated_Source\PSoC5/USB_std.c ****                 }
 1649              		.loc 1 269 0
 1650 00a0 FFF7FEBF 		b	USB_InitNoDataControlTransfer
 1651              	.LVL123:
 1652              	.L154:
 1653              		.cfi_restore_state
 273:Generated_Source\PSoC5/USB_std.c ****                 {
 1654              		.loc 1 273 0
 1655 00a4 7A4B     		ldr	r3, .L209+4
 1656 00a6 1B78     		ldrb	r3, [r3]	@ zero_extendqisi2
 1657 00a8 03F00303 		and	r3, r3, #3
 1658 00ac 012B     		cmp	r3, #1
 1659 00ae BDD0     		beq	.L166
 1660 00b0 C0F01681 		bcc	.L164
 1661 00b4 022B     		cmp	r3, #2
 1662 00b6 BED1     		bne	.L137
 276:Generated_Source\PSoC5/USB_std.c ****                         {
 1663              		.loc 1 276 0
 1664 00b8 03F18043 		add	r3, r3, #1073741824
 1665 00bc 03F5C043 		add	r3, r3, #24576
 1666 00c0 1B78     		ldrb	r3, [r3]	@ zero_extendqisi2
 1667 00c2 002B     		cmp	r3, #0
 1668 00c4 B7D1     		bne	.L137
 337:Generated_Source\PSoC5/USB_std.c **** 
 1669              		.loc 1 337 0
 1670 00c6 BDE83840 		pop	{r3, r4, r5, lr}
 1671              		.cfi_remember_state
 1672              		.cfi_restore 14
 1673              		.cfi_restore 5
 1674              		.cfi_restore 4
 1675              		.cfi_restore 3
 1676              		.cfi_def_cfa_offset 0
 278:Generated_Source\PSoC5/USB_std.c ****                         }
 1677              		.loc 1 278 0
 1678 00ca FFF7FEBF 		b	USB_ClearEndpointHalt
 1679              	.LVL124:
 1680              	.L157:
 1681              		.cfi_restore_state
 232:Generated_Source\PSoC5/USB_std.c ****                 requestHandled = USB_InitNoDataControlTransfer();
 1682              		.loc 1 232 0
 1683 00ce 784B     		ldr	r3, .L209+36
 1684 00d0 784A     		ldr	r2, .L209+40
 1685 00d2 1B78     		ldrb	r3, [r3]	@ zero_extendqisi2
 1686 00d4 DBB2     		uxtb	r3, r3
 1687 00d6 1370     		strb	r3, [r2]
 337:Generated_Source\PSoC5/USB_std.c **** 
 1688              		.loc 1 337 0
 1689 00d8 BDE83840 		pop	{r3, r4, r5, lr}
 1690              		.cfi_remember_state
 1691              		.cfi_restore 14
 1692              		.cfi_restore 5
 1693              		.cfi_restore 4
 1694              		.cfi_restore 3
 1695              		.cfi_def_cfa_offset 0
 233:Generated_Source\PSoC5/USB_std.c ****                 break;
 1696              		.loc 1 233 0
ARM GAS  C:\Users\mgronber\AppData\Local\Temp\ccohOFIJ.s 			page 56


 1697 00dc FFF7FEBF 		b	USB_InitNoDataControlTransfer
 1698              	.LVL125:
 1699              	.L156:
 1700              		.cfi_restore_state
 303:Generated_Source\PSoC5/USB_std.c ****                 {
 1701              		.loc 1 303 0
 1702 00e0 6B4B     		ldr	r3, .L209+4
 1703 00e2 1B78     		ldrb	r3, [r3]	@ zero_extendqisi2
 1704 00e4 03F00303 		and	r3, r3, #3
 1705 00e8 012B     		cmp	r3, #1
 1706 00ea 9FD0     		beq	.L166
 1707 00ec C0F0BF80 		bcc	.L167
 1708 00f0 022B     		cmp	r3, #2
 1709 00f2 A0D1     		bne	.L137
 306:Generated_Source\PSoC5/USB_std.c ****                         {
 1710              		.loc 1 306 0
 1711 00f4 03F18043 		add	r3, r3, #1073741824
 1712 00f8 03F5C043 		add	r3, r3, #24576
 1713 00fc 1B78     		ldrb	r3, [r3]	@ zero_extendqisi2
 1714 00fe 002B     		cmp	r3, #0
 1715 0100 99D1     		bne	.L137
 337:Generated_Source\PSoC5/USB_std.c **** 
 1716              		.loc 1 337 0
 1717 0102 BDE83840 		pop	{r3, r4, r5, lr}
 1718              		.cfi_remember_state
 1719              		.cfi_restore 14
 1720              		.cfi_restore 5
 1721              		.cfi_restore 4
 1722              		.cfi_restore 3
 1723              		.cfi_def_cfa_offset 0
 308:Generated_Source\PSoC5/USB_std.c ****                         }
 1724              		.loc 1 308 0
 1725 0106 FFF7FEBF 		b	USB_SetEndpointHalt
 1726              	.LVL126:
 1727              	.L158:
 1728              		.cfi_restore_state
 236:Generated_Source\PSoC5/USB_std.c ****                 if(configurationN > 0)
 1729              		.loc 1 236 0
 1730 010a 694B     		ldr	r3, .L209+36
 1731 010c 1B78     		ldrb	r3, [r3]	@ zero_extendqisi2
 1732              	.LVL127:
 237:Generated_Source\PSoC5/USB_std.c ****                 {   /* Verify that configuration descriptor exists */
 1733              		.loc 1 237 0
 1734 010e 03F0FF02 		and	r2, r3, #255
 1735 0112 7BB1     		cbz	r3, .L160
 1736              	.LBB71:
 1737              	.LBB72:
 873:Generated_Source\PSoC5/USB_std.c **** 
 1738              		.loc 1 873 0
 1739 0114 684B     		ldr	r3, .L209+44
 1740              	.LVL128:
 1741 0116 6949     		ldr	r1, .L209+48
 1742 0118 1878     		ldrb	r0, [r3]	@ zero_extendqisi2
 1743              	.LBE72:
 1744              	.LBE71:
 239:Generated_Source\PSoC5/USB_std.c ****                 }
 1745              		.loc 1 239 0
ARM GAS  C:\Users\mgronber\AppData\Local\Temp\ccohOFIJ.s 			page 57


 1746 011a 531E     		subs	r3, r2, #1
 1747              	.LBB75:
 1748              	.LBB73:
 873:Generated_Source\PSoC5/USB_std.c **** 
 1749              		.loc 1 873 0
 1750 011c 01EBC001 		add	r1, r1, r0, lsl #3
 1751 0120 4968     		ldr	r1, [r1, #4]
 1752              	.LBE73:
 1753              	.LBE75:
 239:Generated_Source\PSoC5/USB_std.c ****                 }
 1754              		.loc 1 239 0
 1755 0122 DBB2     		uxtb	r3, r3
 1756              	.LVL129:
 1757              	.LBB76:
 1758              	.LBB74:
 881:Generated_Source\PSoC5/USB_std.c ****     {
 1759              		.loc 1 881 0
 1760 0124 087A     		ldrb	r0, [r1, #8]	@ zero_extendqisi2
 1761 0126 9842     		cmp	r0, r3
 1762 0128 85D9     		bls	.L137
 1763              	.LVL130:
 887:Generated_Source\PSoC5/USB_std.c ****     }
 1764              		.loc 1 887 0
 1765 012a 01EBC303 		add	r3, r1, r3, lsl #3
 1766              	.LVL131:
 1767              	.LBE74:
 1768              	.LBE76:
 242:Generated_Source\PSoC5/USB_std.c ****                 {
 1769              		.loc 1 242 0
 1770 012e DB68     		ldr	r3, [r3, #12]
 1771 0130 002B     		cmp	r3, #0
 1772 0132 80D0     		beq	.L137
 1773              	.LVL132:
 1774              	.L160:
 245:Generated_Source\PSoC5/USB_std.c ****                     {
 1775              		.loc 1 245 0
 1776 0134 5B4B     		ldr	r3, .L209+24
 1777 0136 1978     		ldrb	r1, [r3]	@ zero_extendqisi2
 1778 0138 8A42     		cmp	r2, r1
 1779 013a 06D0     		beq	.L199
 248:Generated_Source\PSoC5/USB_std.c ****                         USB_Config(USB_TRUE);
 1780              		.loc 1 248 0
 1781 013c 0121     		movs	r1, #1
 1782 013e 584C     		ldr	r4, .L209+20
 249:Generated_Source\PSoC5/USB_std.c ****                     }
 1783              		.loc 1 249 0
 1784 0140 0846     		mov	r0, r1
 247:Generated_Source\PSoC5/USB_std.c ****                         USB_configurationChanged = USB_TRUE;
 1785              		.loc 1 247 0
 1786 0142 1A70     		strb	r2, [r3]
 248:Generated_Source\PSoC5/USB_std.c ****                         USB_Config(USB_TRUE);
 1787              		.loc 1 248 0
 1788 0144 2170     		strb	r1, [r4]
 249:Generated_Source\PSoC5/USB_std.c ****                     }
 1789              		.loc 1 249 0
 1790 0146 FFF7FEFF 		bl	USB_Config
 1791              	.LVL133:
ARM GAS  C:\Users\mgronber\AppData\Local\Temp\ccohOFIJ.s 			page 58


 1792              	.L199:
 337:Generated_Source\PSoC5/USB_std.c **** 
 1793              		.loc 1 337 0
 1794 014a BDE83840 		pop	{r3, r4, r5, lr}
 1795              		.cfi_remember_state
 1796              		.cfi_restore 14
 1797              		.cfi_restore 5
 1798              		.cfi_restore 4
 1799              		.cfi_restore 3
 1800              		.cfi_def_cfa_offset 0
 325:Generated_Source\PSoC5/USB_std.c ****                         }
 1801              		.loc 1 325 0
 1802 014e FFF7FEBF 		b	USB_InitNoDataControlTransfer
 1803              	.LVL134:
 1804              	.L142:
 1805              		.cfi_restore_state
 218:Generated_Source\PSoC5/USB_std.c ****                 USB_currentTD.pData = (volatile uint8 *)&USB_interfaceSetting[ \
 1806              		.loc 1 218 0
 1807 0152 0122     		movs	r2, #1
 220:Generated_Source\PSoC5/USB_std.c ****                 requestHandled  = USB_InitControlRead();
 1808              		.loc 1 220 0
 1809 0154 504B     		ldr	r3, .L209+12
 218:Generated_Source\PSoC5/USB_std.c ****                 USB_currentTD.pData = (volatile uint8 *)&USB_interfaceSetting[ \
 1810              		.loc 1 218 0
 1811 0156 2280     		strh	r2, [r4]	@ movhi
 220:Generated_Source\PSoC5/USB_std.c ****                 requestHandled  = USB_InitControlRead();
 1812              		.loc 1 220 0
 1813 0158 1B78     		ldrb	r3, [r3]	@ zero_extendqisi2
 219:Generated_Source\PSoC5/USB_std.c ****                                                                             CY_GET_REG8(USB_wIndexL
 1814              		.loc 1 219 0
 1815 015a 534A     		ldr	r2, .L209+28
 1816 015c 1344     		add	r3, r3, r2
 1817 015e 6360     		str	r3, [r4, #4]
 337:Generated_Source\PSoC5/USB_std.c **** 
 1818              		.loc 1 337 0
 1819 0160 BDE83840 		pop	{r3, r4, r5, lr}
 1820              		.cfi_remember_state
 1821              		.cfi_restore 14
 1822              		.cfi_restore 5
 1823              		.cfi_restore 4
 1824              		.cfi_restore 3
 1825              		.cfi_def_cfa_offset 0
 221:Generated_Source\PSoC5/USB_std.c ****                 break;
 1826              		.loc 1 221 0
 1827 0164 FFF7FEBF 		b	USB_InitControlRead
 1828              	.LVL135:
 1829              	.L140:
 1830              		.cfi_restore_state
 110:Generated_Source\PSoC5/USB_std.c ****                 {
 1831              		.loc 1 110 0
 1832 0168 554B     		ldr	r3, .L209+52
 1833 016a 1A78     		ldrb	r2, [r3]	@ zero_extendqisi2
 1834 016c 012A     		cmp	r2, #1
 1835 016e 70D0     		beq	.L205
 117:Generated_Source\PSoC5/USB_std.c ****                 {
 1836              		.loc 1 117 0
 1837 0170 1A78     		ldrb	r2, [r3]	@ zero_extendqisi2
ARM GAS  C:\Users\mgronber\AppData\Local\Temp\ccohOFIJ.s 			page 59


 1838 0172 022A     		cmp	r2, #2
 1839 0174 00F0C680 		beq	.L206
 130:Generated_Source\PSoC5/USB_std.c ****                 {
 1840              		.loc 1 130 0
 1841 0178 1B78     		ldrb	r3, [r3]	@ zero_extendqisi2
 1842 017a 032B     		cmp	r3, #3
 1843 017c 40F0BE80 		bne	.L147
 1844              	.LVL136:
 136:Generated_Source\PSoC5/USB_std.c ****                         {
 1845              		.loc 1 136 0
 1846 0180 4B4D     		ldr	r5, .L209+36
 1847 0182 504A     		ldr	r2, .L209+56
 1848 0184 2B78     		ldrb	r3, [r5]	@ zero_extendqisi2
 1849 0186 63B1     		cbz	r3, .L148
 1850 0188 1378     		ldrb	r3, [r2]	@ zero_extendqisi2
 1851 018a 53B1     		cbz	r3, .L148
 1852 018c 0023     		movs	r3, #0
 1853 018e 01E0     		b	.L149
 1854              	.LVL137:
 1855              	.L207:
 136:Generated_Source\PSoC5/USB_std.c ****                         {
 1856              		.loc 1 136 0 is_stmt 0 discriminator 1
 1857 0190 1178     		ldrb	r1, [r2]	@ zero_extendqisi2
 1858 0192 31B1     		cbz	r1, .L148
 1859              	.LVL138:
 1860              	.L149:
 139:Generated_Source\PSoC5/USB_std.c ****                             /* Move to next string descriptor */
 1861              		.loc 1 139 0 is_stmt 1
 1862 0194 1078     		ldrb	r0, [r2]	@ zero_extendqisi2
 1863              	.LVL139:
 142:Generated_Source\PSoC5/USB_std.c ****                         }
 1864              		.loc 1 142 0
 1865 0196 0133     		adds	r3, r3, #1
 1866              	.LVL140:
 136:Generated_Source\PSoC5/USB_std.c ****                         {
 1867              		.loc 1 136 0
 1868 0198 2978     		ldrb	r1, [r5]	@ zero_extendqisi2
 142:Generated_Source\PSoC5/USB_std.c ****                         }
 1869              		.loc 1 142 0
 1870 019a DBB2     		uxtb	r3, r3
 136:Generated_Source\PSoC5/USB_std.c ****                         {
 1871              		.loc 1 136 0
 1872 019c 9942     		cmp	r1, r3
 141:Generated_Source\PSoC5/USB_std.c ****                             nStr++;
 1873              		.loc 1 141 0
 1874 019e 0244     		add	r2, r2, r0
 1875              	.LVL141:
 136:Generated_Source\PSoC5/USB_std.c ****                         {
 1876              		.loc 1 136 0
 1877 01a0 F6D8     		bhi	.L207
 1878              	.LVL142:
 1879              	.L148:
 147:Generated_Source\PSoC5/USB_std.c ****                         {
 1880              		.loc 1 147 0
 1881 01a2 434B     		ldr	r3, .L209+36
 149:Generated_Source\PSoC5/USB_std.c ****                         }
 1882              		.loc 1 149 0
ARM GAS  C:\Users\mgronber\AppData\Local\Temp\ccohOFIJ.s 			page 60


 1883 01a4 4848     		ldr	r0, .L209+60
 147:Generated_Source\PSoC5/USB_std.c ****                         {
 1884              		.loc 1 147 0
 1885 01a6 1D78     		ldrb	r5, [r3]	@ zero_extendqisi2
 154:Generated_Source\PSoC5/USB_std.c ****                             (CY_GET_REG8(USB_wValueLo) ==
 1886              		.loc 1 154 0
 1887 01a8 1978     		ldrb	r1, [r3]	@ zero_extendqisi2
 149:Generated_Source\PSoC5/USB_std.c ****                         }
 1888              		.loc 1 149 0
 1889 01aa EE2D     		cmp	r5, #238
 1890 01ac 08BF     		it	eq
 1891 01ae 0246     		moveq	r2, r0
 1892              	.LVL143:
 154:Generated_Source\PSoC5/USB_std.c ****                             (CY_GET_REG8(USB_wValueLo) ==
 1893              		.loc 1 154 0
 1894 01b0 29B1     		cbz	r1, .L151
 156:Generated_Source\PSoC5/USB_std.c ****                         {
 1895              		.loc 1 156 0 discriminator 1
 1896 01b2 4649     		ldr	r1, .L209+64
 155:Generated_Source\PSoC5/USB_std.c ****                             USB_DEVICE0_DESCR[USB_DEVICE_DESCR_SN_SHIFT]) )
 1897              		.loc 1 155 0 discriminator 1
 1898 01b4 1B78     		ldrb	r3, [r3]	@ zero_extendqisi2
 154:Generated_Source\PSoC5/USB_std.c ****                             (CY_GET_REG8(USB_wValueLo) ==
 1899              		.loc 1 154 0 discriminator 1
 1900 01b6 097C     		ldrb	r1, [r1, #16]	@ zero_extendqisi2
 1901 01b8 9942     		cmp	r1, r3
 1902 01ba 00F0C380 		beq	.L208
 1903              	.LVL144:
 1904              	.L151:
 177:Generated_Source\PSoC5/USB_std.c ****                     {
 1905              		.loc 1 177 0
 1906 01be 1378     		ldrb	r3, [r2]	@ zero_extendqisi2
 1907 01c0 002B     		cmp	r3, #0
 1908 01c2 3FF438AF 		beq	.L137
 179:Generated_Source\PSoC5/USB_std.c ****                         USB_currentTD.pData = pStr;
 1909              		.loc 1 179 0
 1910 01c6 1378     		ldrb	r3, [r2]	@ zero_extendqisi2
 1911 01c8 2380     		strh	r3, [r4]	@ movhi
 180:Generated_Source\PSoC5/USB_std.c ****                         requestHandled  = USB_InitControlRead();
 1912              		.loc 1 180 0
 1913 01ca 6260     		str	r2, [r4, #4]
 337:Generated_Source\PSoC5/USB_std.c **** 
 1914              		.loc 1 337 0
 1915 01cc BDE83840 		pop	{r3, r4, r5, lr}
 1916              		.cfi_remember_state
 1917              		.cfi_restore 14
 1918              		.cfi_restore 5
 1919              		.cfi_restore 4
 1920              		.cfi_restore 3
 1921              		.cfi_def_cfa_offset 0
 181:Generated_Source\PSoC5/USB_std.c ****                     }
 1922              		.loc 1 181 0
 1923 01d0 FFF7FEBF 		b	USB_InitControlRead
 1924              	.LVL145:
 1925              	.L138:
 1926              		.cfi_restore_state
 191:Generated_Source\PSoC5/USB_std.c ****                 {
ARM GAS  C:\Users\mgronber\AppData\Local\Temp\ccohOFIJ.s 			page 61


 1927              		.loc 1 191 0
 1928 01d4 2E4B     		ldr	r3, .L209+4
 1929 01d6 1B78     		ldrb	r3, [r3]	@ zero_extendqisi2
 1930 01d8 13F00303 		ands	r3, r3, #3
 1931 01dc 22D0     		beq	.L152
 1932 01de 022B     		cmp	r3, #2
 1933 01e0 7FF429AF 		bne	.L137
 196:Generated_Source\PSoC5/USB_std.c ****                         USB_tBuffer[1u] = 0u;
 1934              		.loc 1 196 0
 1935 01e4 2C4A     		ldr	r2, .L209+12
 194:Generated_Source\PSoC5/USB_std.c ****                         USB_tBuffer[0u] = USB_EP[ \
 1936              		.loc 1 194 0
 1937 01e6 2380     		strh	r3, [r4]	@ movhi
 196:Generated_Source\PSoC5/USB_std.c ****                         USB_tBuffer[1u] = 0u;
 1938              		.loc 1 196 0
 1939 01e8 1378     		ldrb	r3, [r2]	@ zero_extendqisi2
 1940 01ea 394A     		ldr	r2, .L209+68
 1941 01ec 03F07F03 		and	r3, r3, #127
 1942 01f0 03EB4303 		add	r3, r3, r3, lsl #1
 1943 01f4 02EB8303 		add	r3, r2, r3, lsl #2
 1944 01f8 9A78     		ldrb	r2, [r3, #2]	@ zero_extendqisi2
 195:Generated_Source\PSoC5/USB_std.c ****                                         CY_GET_REG8(USB_wIndexLo) & USB_DIR_UNUSED].hwEpState;
 1945              		.loc 1 195 0
 1946 01fa 364B     		ldr	r3, .L209+72
 196:Generated_Source\PSoC5/USB_std.c ****                         USB_tBuffer[1u] = 0u;
 1947              		.loc 1 196 0
 1948 01fc D2B2     		uxtb	r2, r2
 197:Generated_Source\PSoC5/USB_std.c ****                         USB_currentTD.pData = &USB_tBuffer[0u];
 1949              		.loc 1 197 0
 1950 01fe 0021     		movs	r1, #0
 195:Generated_Source\PSoC5/USB_std.c ****                                         CY_GET_REG8(USB_wIndexLo) & USB_DIR_UNUSED].hwEpState;
 1951              		.loc 1 195 0
 1952 0200 1A70     		strb	r2, [r3]
 197:Generated_Source\PSoC5/USB_std.c ****                         USB_currentTD.pData = &USB_tBuffer[0u];
 1953              		.loc 1 197 0
 1954 0202 5970     		strb	r1, [r3, #1]
 198:Generated_Source\PSoC5/USB_std.c ****                         requestHandled  = USB_InitControlRead();
 1955              		.loc 1 198 0
 1956 0204 6360     		str	r3, [r4, #4]
 337:Generated_Source\PSoC5/USB_std.c **** 
 1957              		.loc 1 337 0
 1958 0206 BDE83840 		pop	{r3, r4, r5, lr}
 1959              		.cfi_remember_state
 1960              		.cfi_restore 14
 1961              		.cfi_restore 5
 1962              		.cfi_restore 4
 1963              		.cfi_restore 3
 1964              		.cfi_def_cfa_offset 0
 199:Generated_Source\PSoC5/USB_std.c ****                         break;
 1965              		.loc 1 199 0
 1966 020a FFF7FEBF 		b	USB_InitControlRead
 1967              	.LVL146:
 1968              	.L141:
 1969              		.cfi_restore_state
 214:Generated_Source\PSoC5/USB_std.c ****                 requestHandled  = USB_InitControlRead();
 1970              		.loc 1 214 0
 1971 020e 254B     		ldr	r3, .L209+24
ARM GAS  C:\Users\mgronber\AppData\Local\Temp\ccohOFIJ.s 			page 62


 213:Generated_Source\PSoC5/USB_std.c ****                 USB_currentTD.pData = (volatile uint8 *)&USB_configuration;
 1972              		.loc 1 213 0
 1973 0210 0122     		movs	r2, #1
 1974 0212 2280     		strh	r2, [r4]	@ movhi
 214:Generated_Source\PSoC5/USB_std.c ****                 requestHandled  = USB_InitControlRead();
 1975              		.loc 1 214 0
 1976 0214 6360     		str	r3, [r4, #4]
 337:Generated_Source\PSoC5/USB_std.c **** 
 1977              		.loc 1 337 0
 1978 0216 BDE83840 		pop	{r3, r4, r5, lr}
 1979              		.cfi_remember_state
 1980              		.cfi_restore 14
 1981              		.cfi_restore 5
 1982              		.cfi_restore 4
 1983              		.cfi_restore 3
 1984              		.cfi_def_cfa_offset 0
 215:Generated_Source\PSoC5/USB_std.c ****                 break;
 1985              		.loc 1 215 0
 1986 021a FFF7FEBF 		b	USB_InitControlRead
 1987              	.LVL147:
 1988              	.L204:
 1989              		.cfi_restore_state
 1990              	.LBB77:
 1991              	.LBB69:
 1992 021e FFF7FEFF 		bl	USB_ConfigAltChanged.part.0
 1993              	.LVL148:
 1994 0222 36E7     		b	.L162
 1995              	.LVL149:
 1996              	.L152:
 1997              	.LBE69:
 1998              	.LBE77:
 202:Generated_Source\PSoC5/USB_std.c ****                         USB_tBuffer[0u] = USB_deviceStatus;
 1999              		.loc 1 202 0
 2000 0224 0221     		movs	r1, #2
 203:Generated_Source\PSoC5/USB_std.c ****                         USB_tBuffer[1u] = 0u;
 2001              		.loc 1 203 0
 2002 0226 2C4A     		ldr	r2, .L209+76
 202:Generated_Source\PSoC5/USB_std.c ****                         USB_tBuffer[0u] = USB_deviceStatus;
 2003              		.loc 1 202 0
 2004 0228 2180     		strh	r1, [r4]	@ movhi
 203:Generated_Source\PSoC5/USB_std.c ****                         USB_tBuffer[1u] = 0u;
 2005              		.loc 1 203 0
 2006 022a 1178     		ldrb	r1, [r2]	@ zero_extendqisi2
 2007 022c 294A     		ldr	r2, .L209+72
 2008 022e C9B2     		uxtb	r1, r1
 2009 0230 1170     		strb	r1, [r2]
 204:Generated_Source\PSoC5/USB_std.c ****                         USB_currentTD.pData = &USB_tBuffer[0u];
 2010              		.loc 1 204 0
 2011 0232 5370     		strb	r3, [r2, #1]
 205:Generated_Source\PSoC5/USB_std.c ****                         requestHandled  = USB_InitControlRead();
 2012              		.loc 1 205 0
 2013 0234 6260     		str	r2, [r4, #4]
 337:Generated_Source\PSoC5/USB_std.c **** 
 2014              		.loc 1 337 0
 2015 0236 BDE83840 		pop	{r3, r4, r5, lr}
 2016              		.cfi_remember_state
 2017              		.cfi_restore 14
ARM GAS  C:\Users\mgronber\AppData\Local\Temp\ccohOFIJ.s 			page 63


 2018              		.cfi_restore 5
 2019              		.cfi_restore 4
 2020              		.cfi_restore 3
 2021              		.cfi_def_cfa_offset 0
 206:Generated_Source\PSoC5/USB_std.c ****                         break;
 2022              		.loc 1 206 0
 2023 023a FFF7FEBF 		b	USB_InitControlRead
 2024              	.LVL150:
 2025              	.L203:
 2026              		.cfi_restore_state
 324:Generated_Source\PSoC5/USB_std.c ****                             requestHandled = USB_InitNoDataControlTransfer();
 2027              		.loc 1 324 0
 2028 023e 1C4A     		ldr	r2, .L209+36
 323:Generated_Source\PSoC5/USB_std.c ****                                                                 (uint8)~(CY_GET_REG8(USB_wValueLo))
 2029              		.loc 1 323 0
 2030 0240 2649     		ldr	r1, .L209+80
 324:Generated_Source\PSoC5/USB_std.c ****                             requestHandled = USB_InitNoDataControlTransfer();
 2031              		.loc 1 324 0
 2032 0242 1078     		ldrb	r0, [r2]	@ zero_extendqisi2
 323:Generated_Source\PSoC5/USB_std.c ****                                                                 (uint8)~(CY_GET_REG8(USB_wValueLo))
 2033              		.loc 1 323 0
 2034 0244 1B78     		ldrb	r3, [r3]	@ zero_extendqisi2
 2035 0246 DBB2     		uxtb	r3, r3
 2036 0248 CA5C     		ldrb	r2, [r1, r3]	@ zero_extendqisi2
 2037 024a 22EA0002 		bic	r2, r2, r0
 2038 024e CA54     		strb	r2, [r1, r3]
 2039 0250 7BE7     		b	.L199
 2040              	.L205:
 2041              	.LBB78:
 2042              	.LBB79:
 912:Generated_Source\PSoC5/USB_std.c **** }
 2043              		.loc 1 912 0
 2044 0252 194A     		ldr	r2, .L209+44
 2045 0254 194B     		ldr	r3, .L209+48
 2046 0256 1178     		ldrb	r1, [r2]	@ zero_extendqisi2
 2047              	.LBE79:
 2048              	.LBE78:
 114:Generated_Source\PSoC5/USB_std.c ****                     requestHandled  = USB_InitControlRead();
 2049              		.loc 1 114 0
 2050 0258 1222     		movs	r2, #18
 113:Generated_Source\PSoC5/USB_std.c ****                     USB_currentTD.count = USB_DEVICE_DESCR_LENGTH;
 2051              		.loc 1 113 0
 2052 025a 03EBC103 		add	r3, r3, r1, lsl #3
 2053 025e 5B68     		ldr	r3, [r3, #4]
 2054 0260 5B68     		ldr	r3, [r3, #4]
 2055 0262 6360     		str	r3, [r4, #4]
 114:Generated_Source\PSoC5/USB_std.c ****                     requestHandled  = USB_InitControlRead();
 2056              		.loc 1 114 0
 2057 0264 2280     		strh	r2, [r4]	@ movhi
 337:Generated_Source\PSoC5/USB_std.c **** 
 2058              		.loc 1 337 0
 2059 0266 BDE83840 		pop	{r3, r4, r5, lr}
 2060              		.cfi_remember_state
 2061              		.cfi_restore 14
 2062              		.cfi_restore 5
 2063              		.cfi_restore 4
 2064              		.cfi_restore 3
ARM GAS  C:\Users\mgronber\AppData\Local\Temp\ccohOFIJ.s 			page 64


 2065              		.cfi_def_cfa_offset 0
 115:Generated_Source\PSoC5/USB_std.c ****                 }
 2066              		.loc 1 115 0
 2067 026a FFF7FEBF 		b	USB_InitControlRead
 2068              	.LVL151:
 2069              	.L167:
 2070              		.cfi_restore_state
 313:Generated_Source\PSoC5/USB_std.c ****                         {
 2071              		.loc 1 313 0
 2072 026e 104B     		ldr	r3, .L209+36
 2073 0270 1B78     		ldrb	r3, [r3]	@ zero_extendqisi2
 2074 0272 012B     		cmp	r3, #1
 2075 0274 7FF4DFAE 		bne	.L137
 315:Generated_Source\PSoC5/USB_std.c ****                             requestHandled = USB_InitNoDataControlTransfer();
 2076              		.loc 1 315 0
 2077 0278 174A     		ldr	r2, .L209+76
 2078 027a 1378     		ldrb	r3, [r2]	@ zero_extendqisi2
 2079 027c 43F00203 		orr	r3, r3, #2
 2080 0280 1370     		strb	r3, [r2]
 337:Generated_Source\PSoC5/USB_std.c **** 
 2081              		.loc 1 337 0
 2082 0282 BDE83840 		pop	{r3, r4, r5, lr}
 2083              		.cfi_remember_state
 2084              		.cfi_restore 14
 2085              		.cfi_restore 5
 2086              		.cfi_restore 4
 2087              		.cfi_restore 3
 2088              		.cfi_def_cfa_offset 0
 316:Generated_Source\PSoC5/USB_std.c ****                         }
 2089              		.loc 1 316 0
 2090 0286 FFF7FEBF 		b	USB_InitNoDataControlTransfer
 2091              	.LVL152:
 2092              	.L210:
 2093 028a 00BF     		.align	2
 2094              	.L209:
 2095 028c 00000000 		.word	USB_currentTD
 2096 0290 00600040 		.word	1073766400
 2097 0294 01600040 		.word	1073766401
 2098 0298 04600040 		.word	1073766404
 2099 029c 00000000 		.word	USB_interfaceNumber
 2100 02a0 00000000 		.word	USB_configurationChanged
 2101 02a4 00000000 		.word	USB_configuration
 2102 02a8 00000000 		.word	USB_interfaceSetting
 2103 02ac 00000000 		.word	USB_interfaceSetting_last
 2104 02b0 02600040 		.word	1073766402
 2105 02b4 00000000 		.word	USB_deviceAddress
 2106 02b8 00000000 		.word	USB_device
 2107 02bc 00000000 		.word	USB_TABLE
 2108 02c0 03600040 		.word	1073766403
 2109 02c4 00000000 		.word	USB_STRING_DESCRIPTORS
 2110 02c8 00000000 		.word	USB_MSOS_DESCRIPTOR
 2111 02cc 00000000 		.word	USB_DEVICE0_DESCR
 2112 02d0 00000000 		.word	USB_EP
 2113 02d4 00000000 		.word	.LANCHOR1
 2114 02d8 00000000 		.word	USB_deviceStatus
 2115 02dc 00000000 		.word	USB_interfaceStatus
 2116              	.L164:
ARM GAS  C:\Users\mgronber\AppData\Local\Temp\ccohOFIJ.s 			page 65


 2117              		.cfi_restore_state
 283:Generated_Source\PSoC5/USB_std.c ****                         {
 2118              		.loc 1 283 0
 2119 02e0 1B4B     		ldr	r3, .L211
 2120 02e2 1B78     		ldrb	r3, [r3]	@ zero_extendqisi2
 2121 02e4 012B     		cmp	r3, #1
 2122 02e6 7FF4A6AE 		bne	.L137
 285:Generated_Source\PSoC5/USB_std.c ****                             requestHandled = USB_InitNoDataControlTransfer();
 2123              		.loc 1 285 0
 2124 02ea 1A4A     		ldr	r2, .L211+4
 2125 02ec 1378     		ldrb	r3, [r2]	@ zero_extendqisi2
 2126 02ee 03F0FD03 		and	r3, r3, #253
 2127 02f2 1370     		strb	r3, [r2]
 337:Generated_Source\PSoC5/USB_std.c **** 
 2128              		.loc 1 337 0
 2129 02f4 BDE83840 		pop	{r3, r4, r5, lr}
 2130              		.cfi_remember_state
 2131              		.cfi_restore 14
 2132              		.cfi_restore 5
 2133              		.cfi_restore 4
 2134              		.cfi_restore 3
 2135              		.cfi_def_cfa_offset 0
 286:Generated_Source\PSoC5/USB_std.c ****                         }
 2136              		.loc 1 286 0
 2137 02f8 FFF7FEBF 		b	USB_InitNoDataControlTransfer
 2138              	.LVL153:
 2139              	.L147:
 2140              		.cfi_restore_state
 337:Generated_Source\PSoC5/USB_std.c **** 
 2141              		.loc 1 337 0
 2142 02fc BDE83840 		pop	{r3, r4, r5, lr}
 2143              		.cfi_remember_state
 2144              		.cfi_restore 14
 2145              		.cfi_restore 5
 2146              		.cfi_restore 4
 2147              		.cfi_restore 3
 2148              		.cfi_def_cfa_offset 0
 187:Generated_Source\PSoC5/USB_std.c ****                 }
 2149              		.loc 1 187 0
 2150 0300 FFF7FEBF 		b	USB_DispatchClassRqst
 2151              	.LVL154:
 2152              	.L206:
 2153              		.cfi_restore_state
 119:Generated_Source\PSoC5/USB_std.c ****                     if( pTmp != NULL )  /* Verify that requested descriptor exists */
 2154              		.loc 1 119 0
 2155 0304 124B     		ldr	r3, .L211
 2156              	.LBB80:
 2157              	.LBB81:
 873:Generated_Source\PSoC5/USB_std.c **** 
 2158              		.loc 1 873 0
 2159 0306 1449     		ldr	r1, .L211+8
 2160              	.LBE81:
 2161              	.LBE80:
 119:Generated_Source\PSoC5/USB_std.c ****                     if( pTmp != NULL )  /* Verify that requested descriptor exists */
 2162              		.loc 1 119 0
 2163 0308 1B78     		ldrb	r3, [r3]	@ zero_extendqisi2
 2164              	.LBB84:
ARM GAS  C:\Users\mgronber\AppData\Local\Temp\ccohOFIJ.s 			page 66


 2165              	.LBB82:
 873:Generated_Source\PSoC5/USB_std.c **** 
 2166              		.loc 1 873 0
 2167 030a 144A     		ldr	r2, .L211+12
 2168 030c 0978     		ldrb	r1, [r1]	@ zero_extendqisi2
 2169              	.LBE82:
 2170              	.LBE84:
 119:Generated_Source\PSoC5/USB_std.c ****                     if( pTmp != NULL )  /* Verify that requested descriptor exists */
 2171              		.loc 1 119 0
 2172 030e DBB2     		uxtb	r3, r3
 2173              	.LVL155:
 2174              	.LBB85:
 2175              	.LBB83:
 873:Generated_Source\PSoC5/USB_std.c **** 
 2176              		.loc 1 873 0
 2177 0310 02EBC102 		add	r2, r2, r1, lsl #3
 2178 0314 5268     		ldr	r2, [r2, #4]
 2179              	.LVL156:
 881:Generated_Source\PSoC5/USB_std.c ****     {
 2180              		.loc 1 881 0
 2181 0316 117A     		ldrb	r1, [r2, #8]	@ zero_extendqisi2
 2182 0318 9942     		cmp	r1, r3
 2183 031a 7FF68CAE 		bls	.L137
 887:Generated_Source\PSoC5/USB_std.c ****     }
 2184              		.loc 1 887 0
 2185 031e 02EBC303 		add	r3, r2, r3, lsl #3
 2186              	.LVL157:
 2187 0322 DB68     		ldr	r3, [r3, #12]
 2188              	.LVL158:
 2189              	.LBE83:
 2190              	.LBE85:
 120:Generated_Source\PSoC5/USB_std.c ****                     {
 2191              		.loc 1 120 0
 2192 0324 002B     		cmp	r3, #0
 2193 0326 3FF486AE 		beq	.L137
 122:Generated_Source\PSoC5/USB_std.c ****                         USB_currentTD.count = ((uint16)(USB_currentTD.pData)[ \
 2194              		.loc 1 122 0
 2195 032a 5B68     		ldr	r3, [r3, #4]
 2196              	.LVL159:
 2197 032c 6360     		str	r3, [r4, #4]
 123:Generated_Source\PSoC5/USB_std.c ****                                           USB_CONFIG_DESCR_TOTAL_LENGTH_HI] << 8u) | \
 2198              		.loc 1 123 0
 2199 032e 6368     		ldr	r3, [r4, #4]
 2200 0330 DA78     		ldrb	r2, [r3, #3]	@ zero_extendqisi2
 125:Generated_Source\PSoC5/USB_std.c ****                         requestHandled  = USB_InitControlRead();
 2201              		.loc 1 125 0
 2202 0332 6368     		ldr	r3, [r4, #4]
 2203 0334 9B78     		ldrb	r3, [r3, #2]	@ zero_extendqisi2
 123:Generated_Source\PSoC5/USB_std.c ****                                           USB_CONFIG_DESCR_TOTAL_LENGTH_HI] << 8u) | \
 2204              		.loc 1 123 0
 2205 0336 43EA0223 		orr	r3, r3, r2, lsl #8
 2206 033a 2380     		strh	r3, [r4]	@ movhi
 337:Generated_Source\PSoC5/USB_std.c **** 
 2207              		.loc 1 337 0
 2208 033c BDE83840 		pop	{r3, r4, r5, lr}
 2209              		.cfi_remember_state
 2210              		.cfi_restore 14
ARM GAS  C:\Users\mgronber\AppData\Local\Temp\ccohOFIJ.s 			page 67


 2211              		.cfi_restore 5
 2212              		.cfi_restore 4
 2213              		.cfi_restore 3
 2214              		.cfi_def_cfa_offset 0
 126:Generated_Source\PSoC5/USB_std.c ****                     }
 2215              		.loc 1 126 0
 2216 0340 FFF7FEBF 		b	USB_InitControlRead
 2217              	.LVL160:
 2218              	.L208:
 2219              		.cfi_restore_state
 161:Generated_Source\PSoC5/USB_std.c ****                                 pStr = USB_idSerialNumberStringDescriptor;
 2220              		.loc 1 161 0
 2221 0344 0648     		ldr	r0, .L211+16
 2222 0346 FFF7FEFF 		bl	USB_ReadDieID
 2223              	.LVL161:
 162:Generated_Source\PSoC5/USB_std.c ****                             #elif defined(USB_ENABLE_FWSN_STRING)
 2224              		.loc 1 162 0
 2225 034a 054A     		ldr	r2, .L211+16
 2226 034c 37E7     		b	.L151
 2227              	.L212:
 2228 034e 00BF     		.align	2
 2229              	.L211:
 2230 0350 02600040 		.word	1073766402
 2231 0354 00000000 		.word	USB_deviceStatus
 2232 0358 00000000 		.word	USB_device
 2233 035c 00000000 		.word	USB_TABLE
 2234 0360 00000000 		.word	USB_idSerialNumberStringDescriptor
 2235              		.cfi_endproc
 2236              	.LFE0:
 2237              		.size	USB_HandleStandardRqst, .-USB_HandleStandardRqst
 2238              		.section	.rodata
 2239              		.align	2
 2240              		.set	.LANCHOR0,. + 0
 2241              	.LC0:
 2242 0000 30313233 		.ascii	"0123456789ABCDEF\000"
 2242      34353637 
 2242      38394142 
 2242      43444546 
 2242      00
 2243 0011 000000   		.bss
 2244              		.align	2
 2245              		.set	.LANCHOR1,. + 0
 2246              		.type	USB_tBuffer.5191, %object
 2247              		.size	USB_tBuffer.5191, 2
 2248              	USB_tBuffer.5191:
 2249 0000 0000     		.space	2
 2250 0002 0000     		.text
 2251              	.Letext0:
 2252              		.file 2 "Generated_Source\\PSoC5\\cytypes.h"
 2253              		.file 3 "Generated_Source\\PSoC5\\USB.h"
 2254              		.file 4 "Generated_Source\\PSoC5\\USB_pvt.h"
 2255              		.file 5 "Generated_Source\\PSoC5\\USB_midi.h"
 2256              		.section	.debug_info,"",%progbits
 2257              	.Ldebug_info0:
 2258 0000 2B0B0000 		.4byte	0xb2b
 2259 0004 0400     		.2byte	0x4
 2260 0006 00000000 		.4byte	.Ldebug_abbrev0
ARM GAS  C:\Users\mgronber\AppData\Local\Temp\ccohOFIJ.s 			page 68


 2261 000a 04       		.byte	0x4
 2262 000b 01       		.uleb128 0x1
 2263 000c 85020000 		.4byte	.LASF92
 2264 0010 01       		.byte	0x1
 2265 0011 97040000 		.4byte	.LASF93
 2266 0015 E1000000 		.4byte	.LASF94
 2267 0019 28010000 		.4byte	.Ldebug_ranges0+0x128
 2268 001d 00000000 		.4byte	0
 2269 0021 00000000 		.4byte	.Ldebug_line0
 2270 0025 02       		.uleb128 0x2
 2271 0026 01       		.byte	0x1
 2272 0027 06       		.byte	0x6
 2273 0028 D5000000 		.4byte	.LASF0
 2274 002c 02       		.uleb128 0x2
 2275 002d 01       		.byte	0x1
 2276 002e 08       		.byte	0x8
 2277 002f 2E040000 		.4byte	.LASF1
 2278 0033 02       		.uleb128 0x2
 2279 0034 02       		.byte	0x2
 2280 0035 05       		.byte	0x5
 2281 0036 5F040000 		.4byte	.LASF2
 2282 003a 02       		.uleb128 0x2
 2283 003b 02       		.byte	0x2
 2284 003c 07       		.byte	0x7
 2285 003d 2B020000 		.4byte	.LASF3
 2286 0041 02       		.uleb128 0x2
 2287 0042 04       		.byte	0x4
 2288 0043 05       		.byte	0x5
 2289 0044 50010000 		.4byte	.LASF4
 2290 0048 02       		.uleb128 0x2
 2291 0049 04       		.byte	0x4
 2292 004a 07       		.byte	0x7
 2293 004b 19020000 		.4byte	.LASF5
 2294 004f 02       		.uleb128 0x2
 2295 0050 08       		.byte	0x8
 2296 0051 05       		.byte	0x5
 2297 0052 C7000000 		.4byte	.LASF6
 2298 0056 02       		.uleb128 0x2
 2299 0057 08       		.byte	0x8
 2300 0058 07       		.byte	0x7
 2301 0059 55000000 		.4byte	.LASF7
 2302 005d 03       		.uleb128 0x3
 2303 005e 04       		.byte	0x4
 2304 005f 05       		.byte	0x5
 2305 0060 696E7400 		.ascii	"int\000"
 2306 0064 02       		.uleb128 0x2
 2307 0065 04       		.byte	0x4
 2308 0066 07       		.byte	0x7
 2309 0067 FA010000 		.4byte	.LASF8
 2310 006b 04       		.uleb128 0x4
 2311 006c 6D010000 		.4byte	.LASF9
 2312 0070 02       		.byte	0x2
 2313 0071 5B       		.byte	0x5b
 2314 0072 2C000000 		.4byte	0x2c
 2315 0076 04       		.uleb128 0x4
 2316 0077 1E000000 		.4byte	.LASF10
 2317 007b 02       		.byte	0x2
ARM GAS  C:\Users\mgronber\AppData\Local\Temp\ccohOFIJ.s 			page 69


 2318 007c 5C       		.byte	0x5c
 2319 007d 3A000000 		.4byte	0x3a
 2320 0081 02       		.uleb128 0x2
 2321 0082 04       		.byte	0x4
 2322 0083 04       		.byte	0x4
 2323 0084 D9030000 		.4byte	.LASF11
 2324 0088 02       		.uleb128 0x2
 2325 0089 08       		.byte	0x8
 2326 008a 04       		.byte	0x4
 2327 008b 7C010000 		.4byte	.LASF12
 2328 008f 04       		.uleb128 0x4
 2329 0090 40050000 		.4byte	.LASF13
 2330 0094 02       		.byte	0x2
 2331 0095 6C       		.byte	0x6c
 2332 0096 9A000000 		.4byte	0x9a
 2333 009a 02       		.uleb128 0x2
 2334 009b 01       		.byte	0x1
 2335 009c 08       		.byte	0x8
 2336 009d F9040000 		.4byte	.LASF14
 2337 00a1 04       		.uleb128 0x4
 2338 00a2 23040000 		.4byte	.LASF15
 2339 00a6 02       		.byte	0x2
 2340 00a7 F0       		.byte	0xf0
 2341 00a8 AC000000 		.4byte	0xac
 2342 00ac 05       		.uleb128 0x5
 2343 00ad 6B000000 		.4byte	0x6b
 2344 00b1 02       		.uleb128 0x2
 2345 00b2 04       		.byte	0x4
 2346 00b3 07       		.byte	0x7
 2347 00b4 29030000 		.4byte	.LASF16
 2348 00b8 06       		.uleb128 0x6
 2349 00b9 0C       		.byte	0xc
 2350 00ba 03       		.byte	0x3
 2351 00bb 7D       		.byte	0x7d
 2352 00bc 2D010000 		.4byte	0x12d
 2353 00c0 07       		.uleb128 0x7
 2354 00c1 87030000 		.4byte	.LASF17
 2355 00c5 03       		.byte	0x3
 2356 00c6 7F       		.byte	0x7f
 2357 00c7 6B000000 		.4byte	0x6b
 2358 00cb 00       		.byte	0
 2359 00cc 07       		.uleb128 0x7
 2360 00cd F2030000 		.4byte	.LASF18
 2361 00d1 03       		.byte	0x3
 2362 00d2 80       		.byte	0x80
 2363 00d3 6B000000 		.4byte	0x6b
 2364 00d7 01       		.byte	0x1
 2365 00d8 07       		.uleb128 0x7
 2366 00d9 13030000 		.4byte	.LASF19
 2367 00dd 03       		.byte	0x3
 2368 00de 81       		.byte	0x81
 2369 00df 6B000000 		.4byte	0x6b
 2370 00e3 02       		.byte	0x2
 2371 00e4 07       		.uleb128 0x7
 2372 00e5 73010000 		.4byte	.LASF20
 2373 00e9 03       		.byte	0x3
 2374 00ea 82       		.byte	0x82
ARM GAS  C:\Users\mgronber\AppData\Local\Temp\ccohOFIJ.s 			page 70


 2375 00eb 6B000000 		.4byte	0x6b
 2376 00ef 03       		.byte	0x3
 2377 00f0 07       		.uleb128 0x7
 2378 00f1 6C000000 		.4byte	.LASF21
 2379 00f5 03       		.byte	0x3
 2380 00f6 83       		.byte	0x83
 2381 00f7 6B000000 		.4byte	0x6b
 2382 00fb 04       		.byte	0x4
 2383 00fc 07       		.uleb128 0x7
 2384 00fd C0010000 		.4byte	.LASF22
 2385 0101 03       		.byte	0x3
 2386 0102 84       		.byte	0x84
 2387 0103 6B000000 		.4byte	0x6b
 2388 0107 05       		.byte	0x5
 2389 0108 07       		.uleb128 0x7
 2390 0109 35050000 		.4byte	.LASF23
 2391 010d 03       		.byte	0x3
 2392 010e 85       		.byte	0x85
 2393 010f 76000000 		.4byte	0x76
 2394 0113 06       		.byte	0x6
 2395 0114 07       		.uleb128 0x7
 2396 0115 0A050000 		.4byte	.LASF24
 2397 0119 03       		.byte	0x3
 2398 011a 86       		.byte	0x86
 2399 011b 76000000 		.4byte	0x76
 2400 011f 08       		.byte	0x8
 2401 0120 07       		.uleb128 0x7
 2402 0121 6B020000 		.4byte	.LASF25
 2403 0125 03       		.byte	0x3
 2404 0126 87       		.byte	0x87
 2405 0127 6B000000 		.4byte	0x6b
 2406 012b 0A       		.byte	0xa
 2407 012c 00       		.byte	0
 2408 012d 04       		.uleb128 0x4
 2409 012e 96000000 		.4byte	.LASF26
 2410 0132 03       		.byte	0x3
 2411 0133 88       		.byte	0x88
 2412 0134 B8000000 		.4byte	0xb8
 2413 0138 06       		.uleb128 0x6
 2414 0139 08       		.byte	0x8
 2415 013a 03       		.byte	0x3
 2416 013b 8A       		.byte	0x8a
 2417 013c 89010000 		.4byte	0x189
 2418 0140 07       		.uleb128 0x7
 2419 0141 6B020000 		.4byte	.LASF25
 2420 0145 03       		.byte	0x3
 2421 0146 8C       		.byte	0x8c
 2422 0147 6B000000 		.4byte	0x6b
 2423 014b 00       		.byte	0
 2424 014c 07       		.uleb128 0x7
 2425 014d EE040000 		.4byte	.LASF27
 2426 0151 03       		.byte	0x3
 2427 0152 8D       		.byte	0x8d
 2428 0153 6B000000 		.4byte	0x6b
 2429 0157 01       		.byte	0x1
 2430 0158 07       		.uleb128 0x7
 2431 0159 6C000000 		.4byte	.LASF21
ARM GAS  C:\Users\mgronber\AppData\Local\Temp\ccohOFIJ.s 			page 71


 2432 015d 03       		.byte	0x3
 2433 015e 8E       		.byte	0x8e
 2434 015f 6B000000 		.4byte	0x6b
 2435 0163 02       		.byte	0x2
 2436 0164 07       		.uleb128 0x7
 2437 0165 CF040000 		.4byte	.LASF28
 2438 0169 03       		.byte	0x3
 2439 016a 8F       		.byte	0x8f
 2440 016b 6B000000 		.4byte	0x6b
 2441 016f 03       		.byte	0x3
 2442 0170 07       		.uleb128 0x7
 2443 0171 0A050000 		.4byte	.LASF24
 2444 0175 03       		.byte	0x3
 2445 0176 90       		.byte	0x90
 2446 0177 76000000 		.4byte	0x76
 2447 017b 04       		.byte	0x4
 2448 017c 07       		.uleb128 0x7
 2449 017d A5050000 		.4byte	.LASF29
 2450 0181 03       		.byte	0x3
 2451 0182 91       		.byte	0x91
 2452 0183 6B000000 		.4byte	0x6b
 2453 0187 06       		.byte	0x6
 2454 0188 00       		.byte	0
 2455 0189 04       		.uleb128 0x4
 2456 018a 69040000 		.4byte	.LASF30
 2457 018e 03       		.byte	0x3
 2458 018f 92       		.byte	0x92
 2459 0190 38010000 		.4byte	0x138
 2460 0194 06       		.uleb128 0x6
 2461 0195 04       		.byte	0x4
 2462 0196 03       		.byte	0x3
 2463 0197 94       		.byte	0x94
 2464 0198 B5010000 		.4byte	0x1b5
 2465 019c 07       		.uleb128 0x7
 2466 019d 69050000 		.4byte	.LASF31
 2467 01a1 03       		.byte	0x3
 2468 01a2 96       		.byte	0x96
 2469 01a3 6B000000 		.4byte	0x6b
 2470 01a7 00       		.byte	0
 2471 01a8 07       		.uleb128 0x7
 2472 01a9 56050000 		.4byte	.LASF32
 2473 01ad 03       		.byte	0x3
 2474 01ae 97       		.byte	0x97
 2475 01af 76000000 		.4byte	0x76
 2476 01b3 02       		.byte	0x2
 2477 01b4 00       		.byte	0
 2478 01b5 04       		.uleb128 0x4
 2479 01b6 E2010000 		.4byte	.LASF33
 2480 01ba 03       		.byte	0x3
 2481 01bb 98       		.byte	0x98
 2482 01bc 94010000 		.4byte	0x194
 2483 01c0 06       		.uleb128 0x6
 2484 01c1 0C       		.byte	0xc
 2485 01c2 03       		.byte	0x3
 2486 01c3 9A       		.byte	0x9a
 2487 01c4 ED010000 		.4byte	0x1ed
 2488 01c8 07       		.uleb128 0x7
ARM GAS  C:\Users\mgronber\AppData\Local\Temp\ccohOFIJ.s 			page 72


 2489 01c9 18000000 		.4byte	.LASF34
 2490 01cd 03       		.byte	0x3
 2491 01ce 9C       		.byte	0x9c
 2492 01cf 76000000 		.4byte	0x76
 2493 01d3 00       		.byte	0
 2494 01d4 07       		.uleb128 0x7
 2495 01d5 9D010000 		.4byte	.LASF35
 2496 01d9 03       		.byte	0x3
 2497 01da 9D       		.byte	0x9d
 2498 01db ED010000 		.4byte	0x1ed
 2499 01df 04       		.byte	0x4
 2500 01e0 07       		.uleb128 0x7
 2501 01e1 00000000 		.4byte	.LASF36
 2502 01e5 03       		.byte	0x3
 2503 01e6 9E       		.byte	0x9e
 2504 01e7 F3010000 		.4byte	0x1f3
 2505 01eb 08       		.byte	0x8
 2506 01ec 00       		.byte	0
 2507 01ed 08       		.uleb128 0x8
 2508 01ee 04       		.byte	0x4
 2509 01ef AC000000 		.4byte	0xac
 2510 01f3 08       		.uleb128 0x8
 2511 01f4 04       		.byte	0x4
 2512 01f5 B5010000 		.4byte	0x1b5
 2513 01f9 04       		.uleb128 0x4
 2514 01fa 57030000 		.4byte	.LASF37
 2515 01fe 03       		.byte	0x3
 2516 01ff 9F       		.byte	0x9f
 2517 0200 C0010000 		.4byte	0x1c0
 2518 0204 06       		.uleb128 0x6
 2519 0205 08       		.byte	0x8
 2520 0206 03       		.byte	0x3
 2521 0207 A2       		.byte	0xa2
 2522 0208 23020000 		.4byte	0x223
 2523 020c 09       		.uleb128 0x9
 2524 020d 6300     		.ascii	"c\000"
 2525 020f 03       		.byte	0x3
 2526 0210 A4       		.byte	0xa4
 2527 0211 6B000000 		.4byte	0x6b
 2528 0215 00       		.byte	0
 2529 0216 07       		.uleb128 0x7
 2530 0217 76030000 		.4byte	.LASF38
 2531 021b 03       		.byte	0x3
 2532 021c A5       		.byte	0xa5
 2533 021d 23020000 		.4byte	0x223
 2534 0221 04       		.byte	0x4
 2535 0222 00       		.byte	0
 2536 0223 08       		.uleb128 0x8
 2537 0224 04       		.byte	0x4
 2538 0225 29020000 		.4byte	0x229
 2539 0229 0A       		.uleb128 0xa
 2540 022a 04       		.uleb128 0x4
 2541 022b 46010000 		.4byte	.LASF39
 2542 022f 03       		.byte	0x3
 2543 0230 A6       		.byte	0xa6
 2544 0231 04020000 		.4byte	0x204
 2545 0235 0B       		.uleb128 0xb
ARM GAS  C:\Users\mgronber\AppData\Local\Temp\ccohOFIJ.s 			page 73


 2546 0236 45020000 		.4byte	.LASF95
 2547 023a 01       		.byte	0x1
 2548 023b 6303     		.2byte	0x363
 2549 023d 5F020000 		.4byte	0x25f
 2550 0241 01       		.byte	0x1
 2551 0242 5F020000 		.4byte	0x25f
 2552 0246 0C       		.uleb128 0xc
 2553 0247 4B000000 		.4byte	.LASF45
 2554 024b 01       		.byte	0x1
 2555 024c 6303     		.2byte	0x363
 2556 024e 6B000000 		.4byte	0x6b
 2557 0252 0D       		.uleb128 0xd
 2558 0253 84050000 		.4byte	.LASF40
 2559 0257 01       		.byte	0x1
 2560 0258 6703     		.2byte	0x367
 2561 025a 5F020000 		.4byte	0x25f
 2562 025e 00       		.byte	0
 2563 025f 08       		.uleb128 0x8
 2564 0260 04       		.byte	0x4
 2565 0261 65020000 		.4byte	0x265
 2566 0265 0E       		.uleb128 0xe
 2567 0266 2A020000 		.4byte	0x22a
 2568 026a 0F       		.uleb128 0xf
 2569 026b F6050000 		.4byte	.LASF43
 2570 026f 01       		.byte	0x1
 2571 0270 E502     		.2byte	0x2e5
 2572 0272 01       		.byte	0x1
 2573 0273 C8020000 		.4byte	0x2c8
 2574 0277 10       		.uleb128 0x10
 2575 0278 657000   		.ascii	"ep\000"
 2576 027b 01       		.byte	0x1
 2577 027c E702     		.2byte	0x2e7
 2578 027e 6B000000 		.4byte	0x6b
 2579 0282 0D       		.uleb128 0xd
 2580 0283 62050000 		.4byte	.LASF41
 2581 0287 01       		.byte	0x1
 2582 0288 E802     		.2byte	0x2e8
 2583 028a 6B000000 		.4byte	0x6b
 2584 028e 10       		.uleb128 0x10
 2585 028f 6900     		.ascii	"i\000"
 2586 0291 01       		.byte	0x1
 2587 0292 E902     		.2byte	0x2e9
 2588 0294 6B000000 		.4byte	0x6b
 2589 0298 0D       		.uleb128 0xd
 2590 0299 C7010000 		.4byte	.LASF42
 2591 029d 01       		.byte	0x1
 2592 029e EA02     		.2byte	0x2ea
 2593 02a0 6B000000 		.4byte	0x6b
 2594 02a4 10       		.uleb128 0x10
 2595 02a5 726900   		.ascii	"ri\000"
 2596 02a8 01       		.byte	0x1
 2597 02a9 EB02     		.2byte	0x2eb
 2598 02ab 6B000000 		.4byte	0x6b
 2599 02af 0D       		.uleb128 0xd
 2600 02b0 84050000 		.4byte	.LASF40
 2601 02b4 01       		.byte	0x1
 2602 02b5 ED02     		.2byte	0x2ed
ARM GAS  C:\Users\mgronber\AppData\Local\Temp\ccohOFIJ.s 			page 74


 2603 02b7 5F020000 		.4byte	0x25f
 2604 02bb 10       		.uleb128 0x10
 2605 02bc 70455000 		.ascii	"pEP\000"
 2606 02c0 01       		.byte	0x1
 2607 02c1 EE02     		.2byte	0x2ee
 2608 02c3 C8020000 		.4byte	0x2c8
 2609 02c7 00       		.byte	0
 2610 02c8 08       		.uleb128 0x8
 2611 02c9 04       		.byte	0x4
 2612 02ca CE020000 		.4byte	0x2ce
 2613 02ce 0E       		.uleb128 0xe
 2614 02cf 89010000 		.4byte	0x189
 2615 02d3 0F       		.uleb128 0xf
 2616 02d4 0D000000 		.4byte	.LASF44
 2617 02d8 01       		.byte	0x1
 2618 02d9 ED01     		.2byte	0x1ed
 2619 02db 01       		.byte	0x1
 2620 02dc 4A030000 		.4byte	0x34a
 2621 02e0 0C       		.uleb128 0xc
 2622 02e1 2C010000 		.4byte	.LASF46
 2623 02e5 01       		.byte	0x1
 2624 02e6 ED01     		.2byte	0x1ed
 2625 02e8 6B000000 		.4byte	0x6b
 2626 02ec 10       		.uleb128 0x10
 2627 02ed 657000   		.ascii	"ep\000"
 2628 02f0 01       		.byte	0x1
 2629 02f1 EF01     		.2byte	0x1ef
 2630 02f3 6B000000 		.4byte	0x6b
 2631 02f7 0D       		.uleb128 0xd
 2632 02f8 62050000 		.4byte	.LASF41
 2633 02fc 01       		.byte	0x1
 2634 02fd F001     		.2byte	0x1f0
 2635 02ff 6B000000 		.4byte	0x6b
 2636 0303 10       		.uleb128 0x10
 2637 0304 6900     		.ascii	"i\000"
 2638 0306 01       		.byte	0x1
 2639 0307 F101     		.2byte	0x1f1
 2640 0309 6B000000 		.4byte	0x6b
 2641 030d 0D       		.uleb128 0xd
 2642 030e C7010000 		.4byte	.LASF42
 2643 0312 01       		.byte	0x1
 2644 0313 F201     		.2byte	0x1f2
 2645 0315 6B000000 		.4byte	0x6b
 2646 0319 0D       		.uleb128 0xd
 2647 031a 3E020000 		.4byte	.LASF47
 2648 031e 01       		.byte	0x1
 2649 031f F301     		.2byte	0x1f3
 2650 0321 4A030000 		.4byte	0x34a
 2651 0325 0D       		.uleb128 0xd
 2652 0326 7D030000 		.4byte	.LASF48
 2653 032a 01       		.byte	0x1
 2654 032b F501     		.2byte	0x1f5
 2655 032d 76000000 		.4byte	0x76
 2656 0331 0D       		.uleb128 0xd
 2657 0332 84050000 		.4byte	.LASF40
 2658 0336 01       		.byte	0x1
 2659 0337 F801     		.2byte	0x1f8
ARM GAS  C:\Users\mgronber\AppData\Local\Temp\ccohOFIJ.s 			page 75


 2660 0339 5F020000 		.4byte	0x25f
 2661 033d 10       		.uleb128 0x10
 2662 033e 70455000 		.ascii	"pEP\000"
 2663 0342 01       		.byte	0x1
 2664 0343 F901     		.2byte	0x1f9
 2665 0345 C8020000 		.4byte	0x2c8
 2666 0349 00       		.byte	0
 2667 034a 08       		.uleb128 0x8
 2668 034b 04       		.byte	0x4
 2669 034c 50030000 		.4byte	0x350
 2670 0350 0E       		.uleb128 0xe
 2671 0351 6B000000 		.4byte	0x6b
 2672 0355 11       		.uleb128 0x11
 2673 0356 60030000 		.4byte	.LASF88
 2674 035a 01       		.byte	0x1
 2675 035b 8C03     		.2byte	0x38c
 2676 035d 5F020000 		.4byte	0x25f
 2677 0361 01       		.byte	0x1
 2678 0362 12       		.uleb128 0x12
 2679 0363 6A020000 		.4byte	0x26a
 2680 0367 00000000 		.4byte	.LFB12
 2681 036b BC010000 		.4byte	.LFE12-.LFB12
 2682 036f 01       		.uleb128 0x1
 2683 0370 9C       		.byte	0x9c
 2684 0371 DE030000 		.4byte	0x3de
 2685 0375 13       		.uleb128 0x13
 2686 0376 77020000 		.4byte	0x277
 2687 037a 00000000 		.4byte	.LLST0
 2688 037e 13       		.uleb128 0x13
 2689 037f 82020000 		.4byte	0x282
 2690 0383 2B000000 		.4byte	.LLST1
 2691 0387 13       		.uleb128 0x13
 2692 0388 8E020000 		.4byte	0x28e
 2693 038c 49000000 		.4byte	.LLST2
 2694 0390 13       		.uleb128 0x13
 2695 0391 98020000 		.4byte	0x298
 2696 0395 69000000 		.4byte	.LLST3
 2697 0399 13       		.uleb128 0x13
 2698 039a A4020000 		.4byte	0x2a4
 2699 039e A9000000 		.4byte	.LLST4
 2700 03a2 13       		.uleb128 0x13
 2701 03a3 AF020000 		.4byte	0x2af
 2702 03a7 C7000000 		.4byte	.LLST5
 2703 03ab 13       		.uleb128 0x13
 2704 03ac BB020000 		.4byte	0x2bb
 2705 03b0 E8000000 		.4byte	.LLST6
 2706 03b4 14       		.uleb128 0x14
 2707 03b5 35020000 		.4byte	0x235
 2708 03b9 02000000 		.4byte	.LBB22
 2709 03bd 00000000 		.4byte	.Ldebug_ranges0+0
 2710 03c1 01       		.byte	0x1
 2711 03c2 F402     		.2byte	0x2f4
 2712 03c4 15       		.uleb128 0x15
 2713 03c5 46020000 		.4byte	0x246
 2714 03c9 45010000 		.4byte	.LLST7
 2715 03cd 16       		.uleb128 0x16
 2716 03ce 00000000 		.4byte	.Ldebug_ranges0+0
ARM GAS  C:\Users\mgronber\AppData\Local\Temp\ccohOFIJ.s 			page 76


 2717 03d2 13       		.uleb128 0x13
 2718 03d3 52020000 		.4byte	0x252
 2719 03d7 63010000 		.4byte	.LLST8
 2720 03db 00       		.byte	0
 2721 03dc 00       		.byte	0
 2722 03dd 00       		.byte	0
 2723 03de 17       		.uleb128 0x17
 2724 03df CE010000 		.4byte	.LASF50
 2725 03e3 01       		.byte	0x1
 2726 03e4 6701     		.2byte	0x167
 2727 03e6 00000000 		.4byte	.LFB1
 2728 03ea 54000000 		.4byte	.LFE1-.LFB1
 2729 03ee 01       		.uleb128 0x1
 2730 03ef 9C       		.byte	0x9c
 2731 03f0 40040000 		.4byte	0x440
 2732 03f4 18       		.uleb128 0x18
 2733 03f5 28040000 		.4byte	.LASF55
 2734 03f9 01       		.byte	0x1
 2735 03fa 6701     		.2byte	0x167
 2736 03fc 40040000 		.4byte	0x440
 2737 0400 8F010000 		.4byte	.LLST9
 2738 0404 19       		.uleb128 0x19
 2739 0405 6900     		.ascii	"i\000"
 2740 0407 01       		.byte	0x1
 2741 0408 6901     		.2byte	0x169
 2742 040a 6B000000 		.4byte	0x6b
 2743 040e C8010000 		.4byte	.LLST10
 2744 0412 19       		.uleb128 0x19
 2745 0413 6A00     		.ascii	"j\000"
 2746 0415 01       		.byte	0x1
 2747 0416 6A01     		.2byte	0x16a
 2748 0418 6B000000 		.4byte	0x6b
 2749 041c F4010000 		.4byte	.LLST11
 2750 0420 1A       		.uleb128 0x1a
 2751 0421 DC010000 		.4byte	.LASF49
 2752 0425 01       		.byte	0x1
 2753 0426 6B01     		.2byte	0x16b
 2754 0428 6B000000 		.4byte	0x6b
 2755 042c 20020000 		.4byte	.LLST12
 2756 0430 1B       		.uleb128 0x1b
 2757 0431 68657800 		.ascii	"hex\000"
 2758 0435 01       		.byte	0x1
 2759 0436 6C01     		.2byte	0x16c
 2760 0438 56040000 		.4byte	0x456
 2761 043c 02       		.uleb128 0x2
 2762 043d 91       		.byte	0x91
 2763 043e 68       		.sleb128 -24
 2764 043f 00       		.byte	0
 2765 0440 08       		.uleb128 0x8
 2766 0441 04       		.byte	0x4
 2767 0442 6B000000 		.4byte	0x6b
 2768 0446 1C       		.uleb128 0x1c
 2769 0447 8F000000 		.4byte	0x8f
 2770 044b 56040000 		.4byte	0x456
 2771 044f 1D       		.uleb128 0x1d
 2772 0450 B1000000 		.4byte	0xb1
 2773 0454 0F       		.byte	0xf
ARM GAS  C:\Users\mgronber\AppData\Local\Temp\ccohOFIJ.s 			page 77


 2774 0455 00       		.byte	0
 2775 0456 0E       		.uleb128 0xe
 2776 0457 46040000 		.4byte	0x446
 2777 045b 17       		.uleb128 0x17
 2778 045c 99030000 		.4byte	.LASF51
 2779 0460 01       		.byte	0x1
 2780 0461 9201     		.2byte	0x192
 2781 0463 00000000 		.4byte	.LFB2
 2782 0467 98000000 		.4byte	.LFE2-.LFB2
 2783 046b 01       		.uleb128 0x1
 2784 046c 9C       		.byte	0x9c
 2785 046d 8F040000 		.4byte	0x48f
 2786 0471 19       		.uleb128 0x19
 2787 0472 657000   		.ascii	"ep\000"
 2788 0475 01       		.byte	0x1
 2789 0476 9401     		.2byte	0x194
 2790 0478 6B000000 		.4byte	0x6b
 2791 047c 33020000 		.4byte	.LLST13
 2792 0480 19       		.uleb128 0x19
 2793 0481 6900     		.ascii	"i\000"
 2794 0483 01       		.byte	0x1
 2795 0484 9501     		.2byte	0x195
 2796 0486 6B000000 		.4byte	0x6b
 2797 048a 5D020000 		.4byte	.LLST14
 2798 048e 00       		.byte	0
 2799 048f 12       		.uleb128 0x12
 2800 0490 6A020000 		.4byte	0x26a
 2801 0494 00000000 		.4byte	.LFB4
 2802 0498 10000000 		.4byte	.LFE4-.LFB4
 2803 049c 01       		.uleb128 0x1
 2804 049d 9C       		.byte	0x9c
 2805 049e CF040000 		.4byte	0x4cf
 2806 04a2 1E       		.uleb128 0x1e
 2807 04a3 77020000 		.4byte	0x277
 2808 04a7 1E       		.uleb128 0x1e
 2809 04a8 82020000 		.4byte	0x282
 2810 04ac 1E       		.uleb128 0x1e
 2811 04ad 8E020000 		.4byte	0x28e
 2812 04b1 1E       		.uleb128 0x1e
 2813 04b2 98020000 		.4byte	0x298
 2814 04b6 1E       		.uleb128 0x1e
 2815 04b7 A4020000 		.4byte	0x2a4
 2816 04bb 1E       		.uleb128 0x1e
 2817 04bc AF020000 		.4byte	0x2af
 2818 04c0 1E       		.uleb128 0x1e
 2819 04c1 BB020000 		.4byte	0x2bb
 2820 04c5 1F       		.uleb128 0x1f
 2821 04c6 0A000000 		.4byte	.LVL40
 2822 04ca 62030000 		.4byte	0x362
 2823 04ce 00       		.byte	0
 2824 04cf 12       		.uleb128 0x12
 2825 04d0 35020000 		.4byte	0x235
 2826 04d4 00000000 		.4byte	.LFB5
 2827 04d8 24000000 		.4byte	.LFE5-.LFB5
 2828 04dc 01       		.uleb128 0x1
 2829 04dd 9C       		.byte	0x9c
 2830 04de F5040000 		.4byte	0x4f5
ARM GAS  C:\Users\mgronber\AppData\Local\Temp\ccohOFIJ.s 			page 78


 2831 04e2 15       		.uleb128 0x15
 2832 04e3 46020000 		.4byte	0x246
 2833 04e7 8B020000 		.4byte	.LLST15
 2834 04eb 13       		.uleb128 0x13
 2835 04ec 52020000 		.4byte	0x252
 2836 04f0 AC020000 		.4byte	.LLST16
 2837 04f4 00       		.byte	0
 2838 04f5 20       		.uleb128 0x20
 2839 04f6 55030000 		.4byte	0x355
 2840 04fa 00000000 		.4byte	.LFB6
 2841 04fe 18000000 		.4byte	.LFE6-.LFB6
 2842 0502 01       		.uleb128 0x1
 2843 0503 9C       		.byte	0x9c
 2844 0504 21       		.uleb128 0x21
 2845 0505 A9000000 		.4byte	.LASF56
 2846 0509 01       		.byte	0x1
 2847 050a A303     		.2byte	0x3a3
 2848 050c 4A030000 		.4byte	0x34a
 2849 0510 00000000 		.4byte	.LFB7
 2850 0514 44000000 		.4byte	.LFE7-.LFB7
 2851 0518 01       		.uleb128 0x1
 2852 0519 9C       		.byte	0x9c
 2853 051a 78050000 		.4byte	0x578
 2854 051e 1A       		.uleb128 0x1a
 2855 051f 84050000 		.4byte	.LASF40
 2856 0523 01       		.byte	0x1
 2857 0524 A603     		.2byte	0x3a6
 2858 0526 5F020000 		.4byte	0x25f
 2859 052a CC020000 		.4byte	.LLST17
 2860 052e 1A       		.uleb128 0x1a
 2861 052f 5B020000 		.4byte	.LASF52
 2862 0533 01       		.byte	0x1
 2863 0534 A703     		.2byte	0x3a7
 2864 0536 4A030000 		.4byte	0x34a
 2865 053a E6020000 		.4byte	.LLST18
 2866 053e 1A       		.uleb128 0x1a
 2867 053f A7030000 		.4byte	.LASF53
 2868 0543 01       		.byte	0x1
 2869 0544 A803     		.2byte	0x3a8
 2870 0546 6B000000 		.4byte	0x6b
 2871 054a 04030000 		.4byte	.LLST19
 2872 054e 14       		.uleb128 0x14
 2873 054f 35020000 		.4byte	0x235
 2874 0553 02000000 		.4byte	.LBB30
 2875 0557 28000000 		.4byte	.Ldebug_ranges0+0x28
 2876 055b 01       		.byte	0x1
 2877 055c AA03     		.2byte	0x3aa
 2878 055e 15       		.uleb128 0x15
 2879 055f 46020000 		.4byte	0x246
 2880 0563 26030000 		.4byte	.LLST20
 2881 0567 16       		.uleb128 0x16
 2882 0568 28000000 		.4byte	.Ldebug_ranges0+0x28
 2883 056c 13       		.uleb128 0x13
 2884 056d 52020000 		.4byte	0x252
 2885 0571 44030000 		.4byte	.LLST21
 2886 0575 00       		.byte	0
 2887 0576 00       		.byte	0
ARM GAS  C:\Users\mgronber\AppData\Local\Temp\ccohOFIJ.s 			page 79


 2888 0577 00       		.byte	0
 2889 0578 12       		.uleb128 0x12
 2890 0579 D3020000 		.4byte	0x2d3
 2891 057d 00000000 		.4byte	.LFB3
 2892 0581 E4010000 		.4byte	.LFE3-.LFB3
 2893 0585 01       		.uleb128 0x1
 2894 0586 9C       		.byte	0x9c
 2895 0587 62060000 		.4byte	0x662
 2896 058b 15       		.uleb128 0x15
 2897 058c E0020000 		.4byte	0x2e0
 2898 0590 7C030000 		.4byte	.LLST22
 2899 0594 13       		.uleb128 0x13
 2900 0595 EC020000 		.4byte	0x2ec
 2901 0599 CF030000 		.4byte	.LLST23
 2902 059d 1E       		.uleb128 0x1e
 2903 059e F7020000 		.4byte	0x2f7
 2904 05a2 13       		.uleb128 0x13
 2905 05a3 03030000 		.4byte	0x303
 2906 05a7 EE030000 		.4byte	.LLST24
 2907 05ab 1E       		.uleb128 0x1e
 2908 05ac 0D030000 		.4byte	0x30d
 2909 05b0 1E       		.uleb128 0x1e
 2910 05b1 19030000 		.4byte	0x319
 2911 05b5 22       		.uleb128 0x22
 2912 05b6 25030000 		.4byte	0x325
 2913 05ba 00       		.byte	0
 2914 05bb 1E       		.uleb128 0x1e
 2915 05bc 31030000 		.4byte	0x331
 2916 05c0 1E       		.uleb128 0x1e
 2917 05c1 3D030000 		.4byte	0x33d
 2918 05c5 16       		.uleb128 0x16
 2919 05c6 50000000 		.4byte	.Ldebug_ranges0+0x50
 2920 05ca 15       		.uleb128 0x15
 2921 05cb E0020000 		.4byte	0x2e0
 2922 05cf 0E040000 		.4byte	.LLST25
 2923 05d3 16       		.uleb128 0x16
 2924 05d4 50000000 		.4byte	.Ldebug_ranges0+0x50
 2925 05d8 13       		.uleb128 0x13
 2926 05d9 EC020000 		.4byte	0x2ec
 2927 05dd 2C040000 		.4byte	.LLST26
 2928 05e1 13       		.uleb128 0x13
 2929 05e2 F7020000 		.4byte	0x2f7
 2930 05e6 6C040000 		.4byte	.LLST27
 2931 05ea 13       		.uleb128 0x13
 2932 05eb 03030000 		.4byte	0x303
 2933 05ef 80040000 		.4byte	.LLST28
 2934 05f3 13       		.uleb128 0x13
 2935 05f4 0D030000 		.4byte	0x30d
 2936 05f8 DB040000 		.4byte	.LLST29
 2937 05fc 13       		.uleb128 0x13
 2938 05fd 19030000 		.4byte	0x319
 2939 0601 04050000 		.4byte	.LLST30
 2940 0605 13       		.uleb128 0x13
 2941 0606 25030000 		.4byte	0x325
 2942 060a 18050000 		.4byte	.LLST31
 2943 060e 13       		.uleb128 0x13
 2944 060f 31030000 		.4byte	0x331
ARM GAS  C:\Users\mgronber\AppData\Local\Temp\ccohOFIJ.s 			page 80


 2945 0613 57050000 		.4byte	.LLST32
 2946 0617 13       		.uleb128 0x13
 2947 0618 3D030000 		.4byte	0x33d
 2948 061c 86050000 		.4byte	.LLST33
 2949 0620 23       		.uleb128 0x23
 2950 0621 35020000 		.4byte	0x235
 2951 0625 44000000 		.4byte	.LBB44
 2952 0629 68000000 		.4byte	.Ldebug_ranges0+0x68
 2953 062d 01       		.byte	0x1
 2954 062e 1502     		.2byte	0x215
 2955 0630 4D060000 		.4byte	0x64d
 2956 0634 15       		.uleb128 0x15
 2957 0635 46020000 		.4byte	0x246
 2958 0639 FD050000 		.4byte	.LLST34
 2959 063d 16       		.uleb128 0x16
 2960 063e 68000000 		.4byte	.Ldebug_ranges0+0x68
 2961 0642 13       		.uleb128 0x13
 2962 0643 52020000 		.4byte	0x252
 2963 0647 1B060000 		.4byte	.LLST35
 2964 064b 00       		.byte	0
 2965 064c 00       		.byte	0
 2966 064d 24       		.uleb128 0x24
 2967 064e 56010000 		.4byte	.LVL83
 2968 0652 04050000 		.4byte	0x504
 2969 0656 1F       		.uleb128 0x1f
 2970 0657 7C010000 		.4byte	.LVL90
 2971 065b 5B040000 		.4byte	0x45b
 2972 065f 00       		.byte	0
 2973 0660 00       		.byte	0
 2974 0661 00       		.byte	0
 2975 0662 17       		.uleb128 0x17
 2976 0663 75020000 		.4byte	.LASF54
 2977 0667 01       		.byte	0x1
 2978 0668 CE03     		.2byte	0x3ce
 2979 066a 00000000 		.4byte	.LFB8
 2980 066e 4C000000 		.4byte	.LFE8-.LFB8
 2981 0672 01       		.uleb128 0x1
 2982 0673 9C       		.byte	0x9c
 2983 0674 93060000 		.4byte	0x693
 2984 0678 25       		.uleb128 0x25
 2985 0679 657000   		.ascii	"ep\000"
 2986 067c 01       		.byte	0x1
 2987 067d CE03     		.2byte	0x3ce
 2988 067f 6B000000 		.4byte	0x6b
 2989 0683 01       		.uleb128 0x1
 2990 0684 50       		.byte	0x50
 2991 0685 1B       		.uleb128 0x1b
 2992 0686 726900   		.ascii	"ri\000"
 2993 0689 01       		.byte	0x1
 2994 068a D003     		.2byte	0x3d0
 2995 068c 6B000000 		.4byte	0x6b
 2996 0690 01       		.uleb128 0x1
 2997 0691 53       		.byte	0x53
 2998 0692 00       		.byte	0
 2999 0693 21       		.uleb128 0x21
 3000 0694 37000000 		.4byte	.LASF57
 3001 0698 01       		.byte	0x1
ARM GAS  C:\Users\mgronber\AppData\Local\Temp\ccohOFIJ.s 			page 81


 3002 0699 FD03     		.2byte	0x3fd
 3003 069b 6B000000 		.4byte	0x6b
 3004 069f 00000000 		.4byte	.LFB9
 3005 06a3 58000000 		.4byte	.LFE9-.LFB9
 3006 06a7 01       		.uleb128 0x1
 3007 06a8 9C       		.byte	0x9c
 3008 06a9 E2060000 		.4byte	0x6e2
 3009 06ad 19       		.uleb128 0x19
 3010 06ae 657000   		.ascii	"ep\000"
 3011 06b1 01       		.byte	0x1
 3012 06b2 FF03     		.2byte	0x3ff
 3013 06b4 6B000000 		.4byte	0x6b
 3014 06b8 5D060000 		.4byte	.LLST36
 3015 06bc 19       		.uleb128 0x19
 3016 06bd 726900   		.ascii	"ri\000"
 3017 06c0 01       		.byte	0x1
 3018 06c1 0004     		.2byte	0x400
 3019 06c3 6B000000 		.4byte	0x6b
 3020 06c7 7B060000 		.4byte	.LLST37
 3021 06cb 26       		.uleb128 0x26
 3022 06cc 15050000 		.4byte	.LASF58
 3023 06d0 01       		.byte	0x1
 3024 06d1 0104     		.2byte	0x401
 3025 06d3 6B000000 		.4byte	0x6b
 3026 06d7 00       		.byte	0
 3027 06d8 1F       		.uleb128 0x1f
 3028 06d9 46000000 		.4byte	.LVL100
 3029 06dd 0D0B0000 		.4byte	0xb0d
 3030 06e1 00       		.byte	0
 3031 06e2 21       		.uleb128 0x21
 3032 06e3 C3030000 		.4byte	.LASF59
 3033 06e7 01       		.byte	0x1
 3034 06e8 3404     		.2byte	0x434
 3035 06ea 6B000000 		.4byte	0x6b
 3036 06ee 00000000 		.4byte	.LFB10
 3037 06f2 84000000 		.4byte	.LFE10-.LFB10
 3038 06f6 01       		.uleb128 0x1
 3039 06f7 9C       		.byte	0x9c
 3040 06f8 3A070000 		.4byte	0x73a
 3041 06fc 19       		.uleb128 0x19
 3042 06fd 657000   		.ascii	"ep\000"
 3043 0700 01       		.byte	0x1
 3044 0701 3604     		.2byte	0x436
 3045 0703 6B000000 		.4byte	0x6b
 3046 0707 A1060000 		.4byte	.LLST38
 3047 070b 19       		.uleb128 0x19
 3048 070c 726900   		.ascii	"ri\000"
 3049 070f 01       		.byte	0x1
 3050 0710 3704     		.2byte	0x437
 3051 0712 6B000000 		.4byte	0x6b
 3052 0716 BF060000 		.4byte	.LLST39
 3053 071a 26       		.uleb128 0x26
 3054 071b 15050000 		.4byte	.LASF58
 3055 071f 01       		.byte	0x1
 3056 0720 3804     		.2byte	0x438
 3057 0722 6B000000 		.4byte	0x6b
 3058 0726 00       		.byte	0
ARM GAS  C:\Users\mgronber\AppData\Local\Temp\ccohOFIJ.s 			page 82


 3059 0727 1F       		.uleb128 0x1f
 3060 0728 5A000000 		.4byte	.LVL106
 3061 072c 0D0B0000 		.4byte	0xb0d
 3062 0730 1F       		.uleb128 0x1f
 3063 0731 72000000 		.4byte	.LVL108
 3064 0735 0D0B0000 		.4byte	0xb0d
 3065 0739 00       		.byte	0
 3066 073a 21       		.uleb128 0x21
 3067 073b A3010000 		.4byte	.LASF60
 3068 073f 01       		.byte	0x1
 3069 0740 7B04     		.2byte	0x47b
 3070 0742 6B000000 		.4byte	0x6b
 3071 0746 00000000 		.4byte	.LFB11
 3072 074a 74000000 		.4byte	.LFE11-.LFB11
 3073 074e 01       		.uleb128 0x1
 3074 074f 9C       		.byte	0x9c
 3075 0750 B8070000 		.4byte	0x7b8
 3076 0754 1A       		.uleb128 0x1a
 3077 0755 15050000 		.4byte	.LASF58
 3078 0759 01       		.byte	0x1
 3079 075a 7D04     		.2byte	0x47d
 3080 075c 6B000000 		.4byte	0x6b
 3081 0760 E5060000 		.4byte	.LLST40
 3082 0764 27       		.uleb128 0x27
 3083 0765 89050000 		.4byte	.LASF61
 3084 0769 01       		.byte	0x1
 3085 076a 7E04     		.2byte	0x47e
 3086 076c 6B000000 		.4byte	0x6b
 3087 0770 01       		.uleb128 0x1
 3088 0771 52       		.byte	0x52
 3089 0772 0D       		.uleb128 0xd
 3090 0773 84050000 		.4byte	.LASF40
 3091 0777 01       		.byte	0x1
 3092 0778 7F04     		.2byte	0x47f
 3093 077a 5F020000 		.4byte	0x25f
 3094 077e 1A       		.uleb128 0x1a
 3095 077f A7030000 		.4byte	.LASF53
 3096 0783 01       		.byte	0x1
 3097 0784 8004     		.2byte	0x480
 3098 0786 6B000000 		.4byte	0x6b
 3099 078a 10070000 		.4byte	.LLST41
 3100 078e 14       		.uleb128 0x14
 3101 078f 35020000 		.4byte	0x235
 3102 0793 04000000 		.4byte	.LBB54
 3103 0797 90000000 		.4byte	.Ldebug_ranges0+0x90
 3104 079b 01       		.byte	0x1
 3105 079c 8404     		.2byte	0x484
 3106 079e 15       		.uleb128 0x15
 3107 079f 46020000 		.4byte	0x246
 3108 07a3 34070000 		.4byte	.LLST42
 3109 07a7 16       		.uleb128 0x16
 3110 07a8 90000000 		.4byte	.Ldebug_ranges0+0x90
 3111 07ac 13       		.uleb128 0x13
 3112 07ad 52020000 		.4byte	0x252
 3113 07b1 52070000 		.4byte	.LLST43
 3114 07b5 00       		.byte	0
 3115 07b6 00       		.byte	0
ARM GAS  C:\Users\mgronber\AppData\Local\Temp\ccohOFIJ.s 			page 83


 3116 07b7 00       		.byte	0
 3117 07b8 28       		.uleb128 0x28
 3118 07b9 32030000 		.4byte	.LASF62
 3119 07bd 01       		.byte	0x1
 3120 07be 58       		.byte	0x58
 3121 07bf 6B000000 		.4byte	0x6b
 3122 07c3 00000000 		.4byte	.LFB0
 3123 07c7 64030000 		.4byte	.LFE0-.LFB0
 3124 07cb 01       		.uleb128 0x1
 3125 07cc 9C       		.byte	0x9c
 3126 07cd A6090000 		.4byte	0x9a6
 3127 07d1 29       		.uleb128 0x29
 3128 07d2 15050000 		.4byte	.LASF58
 3129 07d6 01       		.byte	0x1
 3130 07d7 5A       		.byte	0x5a
 3131 07d8 6B000000 		.4byte	0x6b
 3132 07dc 89070000 		.4byte	.LLST44
 3133 07e0 29       		.uleb128 0x29
 3134 07e1 71000000 		.4byte	.LASF63
 3135 07e5 01       		.byte	0x1
 3136 07e6 5B       		.byte	0x5b
 3137 07e7 6B000000 		.4byte	0x6b
 3138 07eb A9070000 		.4byte	.LLST45
 3139 07ef 29       		.uleb128 0x29
 3140 07f0 FD030000 		.4byte	.LASF64
 3141 07f4 01       		.byte	0x1
 3142 07f5 5C       		.byte	0x5c
 3143 07f6 6B000000 		.4byte	0x6b
 3144 07fa C7070000 		.4byte	.LLST46
 3145 07fe 29       		.uleb128 0x29
 3146 07ff 1E040000 		.4byte	.LASF65
 3147 0803 01       		.byte	0x1
 3148 0804 5E       		.byte	0x5e
 3149 0805 ED010000 		.4byte	0x1ed
 3150 0809 DA070000 		.4byte	.LLST47
 3151 080d 29       		.uleb128 0x29
 3152 080e 5D050000 		.4byte	.LASF66
 3153 0812 01       		.byte	0x1
 3154 0813 60       		.byte	0x60
 3155 0814 6B000000 		.4byte	0x6b
 3156 0818 27080000 		.4byte	.LLST48
 3157 081c 29       		.uleb128 0x29
 3158 081d 1D030000 		.4byte	.LASF67
 3159 0821 01       		.byte	0x1
 3160 0822 61       		.byte	0x61
 3161 0823 6B000000 		.4byte	0x6b
 3162 0827 51080000 		.4byte	.LLST49
 3163 082b 2A       		.uleb128 0x2a
 3164 082c FE040000 		.4byte	.LASF68
 3165 0830 01       		.byte	0x1
 3166 0831 64       		.byte	0x64
 3167 0832 B6090000 		.4byte	0x9b6
 3168 0836 05       		.uleb128 0x5
 3169 0837 03       		.byte	0x3
 3170 0838 00000000 		.4byte	USB_tBuffer.5191
 3171 083c 29       		.uleb128 0x29
 3172 083d 84050000 		.4byte	.LASF40
ARM GAS  C:\Users\mgronber\AppData\Local\Temp\ccohOFIJ.s 			page 84


 3173 0841 01       		.byte	0x1
 3174 0842 65       		.byte	0x65
 3175 0843 5F020000 		.4byte	0x25f
 3176 0847 6F080000 		.4byte	.LLST50
 3177 084b 23       		.uleb128 0x23
 3178 084c 6A020000 		.4byte	0x26a
 3179 0850 84000000 		.4byte	.LBB66
 3180 0854 C8000000 		.4byte	.Ldebug_ranges0+0xc8
 3181 0858 01       		.byte	0x1
 3182 0859 0801     		.2byte	0x108
 3183 085b 92080000 		.4byte	0x892
 3184 085f 16       		.uleb128 0x16
 3185 0860 C8000000 		.4byte	.Ldebug_ranges0+0xc8
 3186 0864 1E       		.uleb128 0x1e
 3187 0865 77020000 		.4byte	0x277
 3188 0869 1E       		.uleb128 0x1e
 3189 086a 82020000 		.4byte	0x282
 3190 086e 1E       		.uleb128 0x1e
 3191 086f 8E020000 		.4byte	0x28e
 3192 0873 1E       		.uleb128 0x1e
 3193 0874 98020000 		.4byte	0x298
 3194 0878 1E       		.uleb128 0x1e
 3195 0879 A4020000 		.4byte	0x2a4
 3196 087d 1E       		.uleb128 0x1e
 3197 087e AF020000 		.4byte	0x2af
 3198 0882 1E       		.uleb128 0x1e
 3199 0883 BB020000 		.4byte	0x2bb
 3200 0887 24       		.uleb128 0x24
 3201 0888 22020000 		.4byte	.LVL148
 3202 088c 62030000 		.4byte	0x362
 3203 0890 00       		.byte	0
 3204 0891 00       		.byte	0
 3205 0892 2B       		.uleb128 0x2b
 3206 0893 35020000 		.4byte	0x235
 3207 0897 14010000 		.4byte	.LBB71
 3208 089b E8000000 		.4byte	.Ldebug_ranges0+0xe8
 3209 089f 01       		.byte	0x1
 3210 08a0 EF       		.byte	0xef
 3211 08a1 BE080000 		.4byte	0x8be
 3212 08a5 15       		.uleb128 0x15
 3213 08a6 46020000 		.4byte	0x246
 3214 08aa A3080000 		.4byte	.LLST51
 3215 08ae 16       		.uleb128 0x16
 3216 08af E8000000 		.4byte	.Ldebug_ranges0+0xe8
 3217 08b3 13       		.uleb128 0x13
 3218 08b4 52020000 		.4byte	0x252
 3219 08b8 C3080000 		.4byte	.LLST52
 3220 08bc 00       		.byte	0
 3221 08bd 00       		.byte	0
 3222 08be 2C       		.uleb128 0x2c
 3223 08bf 55030000 		.4byte	0x355
 3224 08c3 52020000 		.4byte	.LBB78
 3225 08c7 06000000 		.4byte	.LBE78-.LBB78
 3226 08cb 01       		.byte	0x1
 3227 08cc 70       		.byte	0x70
 3228 08cd 2B       		.uleb128 0x2b
 3229 08ce 35020000 		.4byte	0x235
ARM GAS  C:\Users\mgronber\AppData\Local\Temp\ccohOFIJ.s 			page 85


 3230 08d2 06030000 		.4byte	.LBB80
 3231 08d6 08010000 		.4byte	.Ldebug_ranges0+0x108
 3232 08da 01       		.byte	0x1
 3233 08db 77       		.byte	0x77
 3234 08dc F9080000 		.4byte	0x8f9
 3235 08e0 15       		.uleb128 0x15
 3236 08e1 46020000 		.4byte	0x246
 3237 08e5 04090000 		.4byte	.LLST53
 3238 08e9 16       		.uleb128 0x16
 3239 08ea 08010000 		.4byte	.Ldebug_ranges0+0x108
 3240 08ee 13       		.uleb128 0x13
 3241 08ef 52020000 		.4byte	0x252
 3242 08f3 17090000 		.4byte	.LLST54
 3243 08f7 00       		.byte	0
 3244 08f8 00       		.byte	0
 3245 08f9 24       		.uleb128 0x24
 3246 08fa 74000000 		.4byte	.LVL120
 3247 08fe 3A070000 		.4byte	0x73a
 3248 0902 1F       		.uleb128 0x1f
 3249 0903 A4000000 		.4byte	.LVL123
 3250 0907 0D0B0000 		.4byte	0xb0d
 3251 090b 1F       		.uleb128 0x1f
 3252 090c CE000000 		.4byte	.LVL124
 3253 0910 E2060000 		.4byte	0x6e2
 3254 0914 1F       		.uleb128 0x1f
 3255 0915 E0000000 		.4byte	.LVL125
 3256 0919 0D0B0000 		.4byte	0xb0d
 3257 091d 1F       		.uleb128 0x1f
 3258 091e 0A010000 		.4byte	.LVL126
 3259 0922 93060000 		.4byte	0x693
 3260 0926 2D       		.uleb128 0x2d
 3261 0927 4A010000 		.4byte	.LVL133
 3262 092b D3020000 		.4byte	0x2d3
 3263 092f 39090000 		.4byte	0x939
 3264 0933 2E       		.uleb128 0x2e
 3265 0934 01       		.uleb128 0x1
 3266 0935 50       		.byte	0x50
 3267 0936 01       		.uleb128 0x1
 3268 0937 31       		.byte	0x31
 3269 0938 00       		.byte	0
 3270 0939 1F       		.uleb128 0x1f
 3271 093a 52010000 		.4byte	.LVL134
 3272 093e 0D0B0000 		.4byte	0xb0d
 3273 0942 1F       		.uleb128 0x1f
 3274 0943 68010000 		.4byte	.LVL135
 3275 0947 180B0000 		.4byte	0xb18
 3276 094b 1F       		.uleb128 0x1f
 3277 094c D4010000 		.4byte	.LVL145
 3278 0950 180B0000 		.4byte	0xb18
 3279 0954 1F       		.uleb128 0x1f
 3280 0955 0E020000 		.4byte	.LVL146
 3281 0959 180B0000 		.4byte	0xb18
 3282 095d 1F       		.uleb128 0x1f
 3283 095e 1E020000 		.4byte	.LVL147
 3284 0962 180B0000 		.4byte	0xb18
 3285 0966 1F       		.uleb128 0x1f
 3286 0967 3E020000 		.4byte	.LVL150
ARM GAS  C:\Users\mgronber\AppData\Local\Temp\ccohOFIJ.s 			page 86


 3287 096b 180B0000 		.4byte	0xb18
 3288 096f 1F       		.uleb128 0x1f
 3289 0970 6E020000 		.4byte	.LVL151
 3290 0974 180B0000 		.4byte	0xb18
 3291 0978 1F       		.uleb128 0x1f
 3292 0979 8A020000 		.4byte	.LVL152
 3293 097d 0D0B0000 		.4byte	0xb0d
 3294 0981 1F       		.uleb128 0x1f
 3295 0982 FC020000 		.4byte	.LVL153
 3296 0986 0D0B0000 		.4byte	0xb0d
 3297 098a 1F       		.uleb128 0x1f
 3298 098b 04030000 		.4byte	.LVL154
 3299 098f 230B0000 		.4byte	0xb23
 3300 0993 1F       		.uleb128 0x1f
 3301 0994 44030000 		.4byte	.LVL160
 3302 0998 180B0000 		.4byte	0xb18
 3303 099c 24       		.uleb128 0x24
 3304 099d 4A030000 		.4byte	.LVL161
 3305 09a1 DE030000 		.4byte	0x3de
 3306 09a5 00       		.byte	0
 3307 09a6 1C       		.uleb128 0x1c
 3308 09a7 6B000000 		.4byte	0x6b
 3309 09ab B6090000 		.4byte	0x9b6
 3310 09af 1D       		.uleb128 0x1d
 3311 09b0 B1000000 		.4byte	0xb1
 3312 09b4 01       		.byte	0x1
 3313 09b5 00       		.byte	0
 3314 09b6 05       		.uleb128 0x5
 3315 09b7 A6090000 		.4byte	0x9a6
 3316 09bb 2F       		.uleb128 0x2f
 3317 09bc 8E030000 		.4byte	.LASF69
 3318 09c0 03       		.byte	0x3
 3319 09c1 4F02     		.2byte	0x24f
 3320 09c3 AC000000 		.4byte	0xac
 3321 09c7 2F       		.uleb128 0x2f
 3322 09c8 25000000 		.4byte	.LASF70
 3323 09cc 03       		.byte	0x3
 3324 09cd 5102     		.2byte	0x251
 3325 09cf AC000000 		.4byte	0xac
 3326 09d3 2F       		.uleb128 0x2f
 3327 09d4 C9050000 		.4byte	.LASF71
 3328 09d8 03       		.byte	0x3
 3329 09d9 5202     		.2byte	0x252
 3330 09db AC000000 		.4byte	0xac
 3331 09df 2F       		.uleb128 0x2f
 3332 09e0 24050000 		.4byte	.LASF72
 3333 09e4 03       		.byte	0x3
 3334 09e5 5302     		.2byte	0x253
 3335 09e7 AC000000 		.4byte	0xac
 3336 09eb 1C       		.uleb128 0x1c
 3337 09ec 6B000000 		.4byte	0x6b
 3338 09f0 FB090000 		.4byte	0x9fb
 3339 09f4 1D       		.uleb128 0x1d
 3340 09f5 B1000000 		.4byte	0xb1
 3341 09f9 11       		.byte	0x11
 3342 09fa 00       		.byte	0
 3343 09fb 30       		.uleb128 0x30
ARM GAS  C:\Users\mgronber\AppData\Local\Temp\ccohOFIJ.s 			page 87


 3344 09fc 07020000 		.4byte	.LASF73
 3345 0a00 04       		.byte	0x4
 3346 0a01 1C       		.byte	0x1c
 3347 0a02 060A0000 		.4byte	0xa06
 3348 0a06 0E       		.uleb128 0xe
 3349 0a07 EB090000 		.4byte	0x9eb
 3350 0a0b 1C       		.uleb128 0x1c
 3351 0a0c 2A020000 		.4byte	0x22a
 3352 0a10 1B0A0000 		.4byte	0xa1b
 3353 0a14 1D       		.uleb128 0x1d
 3354 0a15 B1000000 		.4byte	0xb1
 3355 0a19 00       		.byte	0
 3356 0a1a 00       		.byte	0
 3357 0a1b 30       		.uleb128 0x30
 3358 0a1c 3C010000 		.4byte	.LASF74
 3359 0a20 04       		.byte	0x4
 3360 0a21 22       		.byte	0x22
 3361 0a22 260A0000 		.4byte	0xa26
 3362 0a26 0E       		.uleb128 0xe
 3363 0a27 0B0A0000 		.4byte	0xa0b
 3364 0a2b 1C       		.uleb128 0x1c
 3365 0a2c 6B000000 		.4byte	0x6b
 3366 0a30 3B0A0000 		.4byte	0xa3b
 3367 0a34 1D       		.uleb128 0x1d
 3368 0a35 B1000000 		.4byte	0xb1
 3369 0a39 B8       		.byte	0xb8
 3370 0a3a 00       		.byte	0
 3371 0a3b 30       		.uleb128 0x30
 3372 0a3c B8040000 		.4byte	.LASF75
 3373 0a40 04       		.byte	0x4
 3374 0a41 24       		.byte	0x24
 3375 0a42 460A0000 		.4byte	0xa46
 3376 0a46 0E       		.uleb128 0xe
 3377 0a47 2B0A0000 		.4byte	0xa2b
 3378 0a4b 30       		.uleb128 0x30
 3379 0a4c 59010000 		.4byte	.LASF76
 3380 0a50 04       		.byte	0x4
 3381 0a51 27       		.byte	0x27
 3382 0a52 560A0000 		.4byte	0xa56
 3383 0a56 0E       		.uleb128 0xe
 3384 0a57 EB090000 		.4byte	0x9eb
 3385 0a5b 1C       		.uleb128 0x1c
 3386 0a5c 6B000000 		.4byte	0x6b
 3387 0a60 6B0A0000 		.4byte	0xa6b
 3388 0a64 1D       		.uleb128 0x1d
 3389 0a65 B1000000 		.4byte	0xb1
 3390 0a69 21       		.byte	0x21
 3391 0a6a 00       		.byte	0
 3392 0a6b 30       		.uleb128 0x30
 3393 0a6c 3C040000 		.4byte	.LASF77
 3394 0a70 04       		.byte	0x4
 3395 0a71 2A       		.byte	0x2a
 3396 0a72 5B0A0000 		.4byte	0xa5b
 3397 0a76 30       		.uleb128 0x30
 3398 0a77 E2050000 		.4byte	.LASF78
 3399 0a7b 04       		.byte	0x4
 3400 0a7c 2D       		.byte	0x2d
ARM GAS  C:\Users\mgronber\AppData\Local\Temp\ccohOFIJ.s 			page 88


 3401 0a7d AC000000 		.4byte	0xac
 3402 0a81 30       		.uleb128 0x30
 3403 0a82 81000000 		.4byte	.LASF79
 3404 0a86 04       		.byte	0x4
 3405 0a87 2E       		.byte	0x2e
 3406 0a88 8C0A0000 		.4byte	0xa8c
 3407 0a8c 05       		.uleb128 0x5
 3408 0a8d A6090000 		.4byte	0x9a6
 3409 0a91 30       		.uleb128 0x30
 3410 0a92 83010000 		.4byte	.LASF80
 3411 0a96 04       		.byte	0x4
 3412 0a97 2F       		.byte	0x2f
 3413 0a98 9C0A0000 		.4byte	0xa9c
 3414 0a9c 05       		.uleb128 0x5
 3415 0a9d A6090000 		.4byte	0x9a6
 3416 0aa1 30       		.uleb128 0x30
 3417 0aa2 0C040000 		.4byte	.LASF81
 3418 0aa6 04       		.byte	0x4
 3419 0aa7 30       		.byte	0x30
 3420 0aa8 AC000000 		.4byte	0xac
 3421 0aac 30       		.uleb128 0x30
 3422 0aad DA040000 		.4byte	.LASF82
 3423 0ab1 04       		.byte	0x4
 3424 0ab2 31       		.byte	0x31
 3425 0ab3 B70A0000 		.4byte	0xab7
 3426 0ab7 05       		.uleb128 0x5
 3427 0ab8 A6090000 		.4byte	0x9a6
 3428 0abc 30       		.uleb128 0x30
 3429 0abd DF030000 		.4byte	.LASF83
 3430 0ac1 04       		.byte	0x4
 3431 0ac2 32       		.byte	0x32
 3432 0ac3 4A030000 		.4byte	0x34a
 3433 0ac7 1C       		.uleb128 0x1c
 3434 0ac8 2D010000 		.4byte	0x12d
 3435 0acc D70A0000 		.4byte	0xad7
 3436 0ad0 1D       		.uleb128 0x1d
 3437 0ad1 B1000000 		.4byte	0xb1
 3438 0ad5 08       		.byte	0x8
 3439 0ad6 00       		.byte	0
 3440 0ad7 30       		.uleb128 0x30
 3441 0ad8 BC030000 		.4byte	.LASF84
 3442 0adc 04       		.byte	0x4
 3443 0add 34       		.byte	0x34
 3444 0ade E20A0000 		.4byte	0xae2
 3445 0ae2 05       		.uleb128 0x5
 3446 0ae3 C70A0000 		.4byte	0xac7
 3447 0ae7 30       		.uleb128 0x30
 3448 0ae8 49030000 		.4byte	.LASF85
 3449 0aec 04       		.byte	0x4
 3450 0aed 35       		.byte	0x35
 3451 0aee F20A0000 		.4byte	0xaf2
 3452 0af2 05       		.uleb128 0x5
 3453 0af3 F9010000 		.4byte	0x1f9
 3454 0af7 30       		.uleb128 0x30
 3455 0af8 96050000 		.4byte	.LASF86
 3456 0afc 05       		.byte	0x5
 3457 0afd B7       		.byte	0xb7
ARM GAS  C:\Users\mgronber\AppData\Local\Temp\ccohOFIJ.s 			page 89


 3458 0afe AC000000 		.4byte	0xac
 3459 0b02 30       		.uleb128 0x30
 3460 0b03 46050000 		.4byte	.LASF87
 3461 0b07 05       		.byte	0x5
 3462 0b08 BC       		.byte	0xbc
 3463 0b09 AC000000 		.4byte	0xac
 3464 0b0d 31       		.uleb128 0x31
 3465 0b0e AB050000 		.4byte	.LASF89
 3466 0b12 04       		.byte	0x4
 3467 0b13 5E       		.byte	0x5e
 3468 0b14 6B000000 		.4byte	0x6b
 3469 0b18 31       		.uleb128 0x31
 3470 0b19 70050000 		.4byte	.LASF90
 3471 0b1d 04       		.byte	0x4
 3472 0b1e 51       		.byte	0x51
 3473 0b1f 6B000000 		.4byte	0x6b
 3474 0b23 31       		.uleb128 0x31
 3475 0b24 81040000 		.4byte	.LASF91
 3476 0b28 04       		.byte	0x4
 3477 0b29 B3       		.byte	0xb3
 3478 0b2a 6B000000 		.4byte	0x6b
 3479 0b2e 00       		.byte	0
 3480              		.section	.debug_abbrev,"",%progbits
 3481              	.Ldebug_abbrev0:
 3482 0000 01       		.uleb128 0x1
 3483 0001 11       		.uleb128 0x11
 3484 0002 01       		.byte	0x1
 3485 0003 25       		.uleb128 0x25
 3486 0004 0E       		.uleb128 0xe
 3487 0005 13       		.uleb128 0x13
 3488 0006 0B       		.uleb128 0xb
 3489 0007 03       		.uleb128 0x3
 3490 0008 0E       		.uleb128 0xe
 3491 0009 1B       		.uleb128 0x1b
 3492 000a 0E       		.uleb128 0xe
 3493 000b 55       		.uleb128 0x55
 3494 000c 17       		.uleb128 0x17
 3495 000d 11       		.uleb128 0x11
 3496 000e 01       		.uleb128 0x1
 3497 000f 10       		.uleb128 0x10
 3498 0010 17       		.uleb128 0x17
 3499 0011 00       		.byte	0
 3500 0012 00       		.byte	0
 3501 0013 02       		.uleb128 0x2
 3502 0014 24       		.uleb128 0x24
 3503 0015 00       		.byte	0
 3504 0016 0B       		.uleb128 0xb
 3505 0017 0B       		.uleb128 0xb
 3506 0018 3E       		.uleb128 0x3e
 3507 0019 0B       		.uleb128 0xb
 3508 001a 03       		.uleb128 0x3
 3509 001b 0E       		.uleb128 0xe
 3510 001c 00       		.byte	0
 3511 001d 00       		.byte	0
 3512 001e 03       		.uleb128 0x3
 3513 001f 24       		.uleb128 0x24
 3514 0020 00       		.byte	0
ARM GAS  C:\Users\mgronber\AppData\Local\Temp\ccohOFIJ.s 			page 90


 3515 0021 0B       		.uleb128 0xb
 3516 0022 0B       		.uleb128 0xb
 3517 0023 3E       		.uleb128 0x3e
 3518 0024 0B       		.uleb128 0xb
 3519 0025 03       		.uleb128 0x3
 3520 0026 08       		.uleb128 0x8
 3521 0027 00       		.byte	0
 3522 0028 00       		.byte	0
 3523 0029 04       		.uleb128 0x4
 3524 002a 16       		.uleb128 0x16
 3525 002b 00       		.byte	0
 3526 002c 03       		.uleb128 0x3
 3527 002d 0E       		.uleb128 0xe
 3528 002e 3A       		.uleb128 0x3a
 3529 002f 0B       		.uleb128 0xb
 3530 0030 3B       		.uleb128 0x3b
 3531 0031 0B       		.uleb128 0xb
 3532 0032 49       		.uleb128 0x49
 3533 0033 13       		.uleb128 0x13
 3534 0034 00       		.byte	0
 3535 0035 00       		.byte	0
 3536 0036 05       		.uleb128 0x5
 3537 0037 35       		.uleb128 0x35
 3538 0038 00       		.byte	0
 3539 0039 49       		.uleb128 0x49
 3540 003a 13       		.uleb128 0x13
 3541 003b 00       		.byte	0
 3542 003c 00       		.byte	0
 3543 003d 06       		.uleb128 0x6
 3544 003e 13       		.uleb128 0x13
 3545 003f 01       		.byte	0x1
 3546 0040 0B       		.uleb128 0xb
 3547 0041 0B       		.uleb128 0xb
 3548 0042 3A       		.uleb128 0x3a
 3549 0043 0B       		.uleb128 0xb
 3550 0044 3B       		.uleb128 0x3b
 3551 0045 0B       		.uleb128 0xb
 3552 0046 01       		.uleb128 0x1
 3553 0047 13       		.uleb128 0x13
 3554 0048 00       		.byte	0
 3555 0049 00       		.byte	0
 3556 004a 07       		.uleb128 0x7
 3557 004b 0D       		.uleb128 0xd
 3558 004c 00       		.byte	0
 3559 004d 03       		.uleb128 0x3
 3560 004e 0E       		.uleb128 0xe
 3561 004f 3A       		.uleb128 0x3a
 3562 0050 0B       		.uleb128 0xb
 3563 0051 3B       		.uleb128 0x3b
 3564 0052 0B       		.uleb128 0xb
 3565 0053 49       		.uleb128 0x49
 3566 0054 13       		.uleb128 0x13
 3567 0055 38       		.uleb128 0x38
 3568 0056 0B       		.uleb128 0xb
 3569 0057 00       		.byte	0
 3570 0058 00       		.byte	0
 3571 0059 08       		.uleb128 0x8
ARM GAS  C:\Users\mgronber\AppData\Local\Temp\ccohOFIJ.s 			page 91


 3572 005a 0F       		.uleb128 0xf
 3573 005b 00       		.byte	0
 3574 005c 0B       		.uleb128 0xb
 3575 005d 0B       		.uleb128 0xb
 3576 005e 49       		.uleb128 0x49
 3577 005f 13       		.uleb128 0x13
 3578 0060 00       		.byte	0
 3579 0061 00       		.byte	0
 3580 0062 09       		.uleb128 0x9
 3581 0063 0D       		.uleb128 0xd
 3582 0064 00       		.byte	0
 3583 0065 03       		.uleb128 0x3
 3584 0066 08       		.uleb128 0x8
 3585 0067 3A       		.uleb128 0x3a
 3586 0068 0B       		.uleb128 0xb
 3587 0069 3B       		.uleb128 0x3b
 3588 006a 0B       		.uleb128 0xb
 3589 006b 49       		.uleb128 0x49
 3590 006c 13       		.uleb128 0x13
 3591 006d 38       		.uleb128 0x38
 3592 006e 0B       		.uleb128 0xb
 3593 006f 00       		.byte	0
 3594 0070 00       		.byte	0
 3595 0071 0A       		.uleb128 0xa
 3596 0072 26       		.uleb128 0x26
 3597 0073 00       		.byte	0
 3598 0074 00       		.byte	0
 3599 0075 00       		.byte	0
 3600 0076 0B       		.uleb128 0xb
 3601 0077 2E       		.uleb128 0x2e
 3602 0078 01       		.byte	0x1
 3603 0079 3F       		.uleb128 0x3f
 3604 007a 19       		.uleb128 0x19
 3605 007b 03       		.uleb128 0x3
 3606 007c 0E       		.uleb128 0xe
 3607 007d 3A       		.uleb128 0x3a
 3608 007e 0B       		.uleb128 0xb
 3609 007f 3B       		.uleb128 0x3b
 3610 0080 05       		.uleb128 0x5
 3611 0081 27       		.uleb128 0x27
 3612 0082 19       		.uleb128 0x19
 3613 0083 49       		.uleb128 0x49
 3614 0084 13       		.uleb128 0x13
 3615 0085 20       		.uleb128 0x20
 3616 0086 0B       		.uleb128 0xb
 3617 0087 01       		.uleb128 0x1
 3618 0088 13       		.uleb128 0x13
 3619 0089 00       		.byte	0
 3620 008a 00       		.byte	0
 3621 008b 0C       		.uleb128 0xc
 3622 008c 05       		.uleb128 0x5
 3623 008d 00       		.byte	0
 3624 008e 03       		.uleb128 0x3
 3625 008f 0E       		.uleb128 0xe
 3626 0090 3A       		.uleb128 0x3a
 3627 0091 0B       		.uleb128 0xb
 3628 0092 3B       		.uleb128 0x3b
ARM GAS  C:\Users\mgronber\AppData\Local\Temp\ccohOFIJ.s 			page 92


 3629 0093 05       		.uleb128 0x5
 3630 0094 49       		.uleb128 0x49
 3631 0095 13       		.uleb128 0x13
 3632 0096 00       		.byte	0
 3633 0097 00       		.byte	0
 3634 0098 0D       		.uleb128 0xd
 3635 0099 34       		.uleb128 0x34
 3636 009a 00       		.byte	0
 3637 009b 03       		.uleb128 0x3
 3638 009c 0E       		.uleb128 0xe
 3639 009d 3A       		.uleb128 0x3a
 3640 009e 0B       		.uleb128 0xb
 3641 009f 3B       		.uleb128 0x3b
 3642 00a0 05       		.uleb128 0x5
 3643 00a1 49       		.uleb128 0x49
 3644 00a2 13       		.uleb128 0x13
 3645 00a3 00       		.byte	0
 3646 00a4 00       		.byte	0
 3647 00a5 0E       		.uleb128 0xe
 3648 00a6 26       		.uleb128 0x26
 3649 00a7 00       		.byte	0
 3650 00a8 49       		.uleb128 0x49
 3651 00a9 13       		.uleb128 0x13
 3652 00aa 00       		.byte	0
 3653 00ab 00       		.byte	0
 3654 00ac 0F       		.uleb128 0xf
 3655 00ad 2E       		.uleb128 0x2e
 3656 00ae 01       		.byte	0x1
 3657 00af 3F       		.uleb128 0x3f
 3658 00b0 19       		.uleb128 0x19
 3659 00b1 03       		.uleb128 0x3
 3660 00b2 0E       		.uleb128 0xe
 3661 00b3 3A       		.uleb128 0x3a
 3662 00b4 0B       		.uleb128 0xb
 3663 00b5 3B       		.uleb128 0x3b
 3664 00b6 05       		.uleb128 0x5
 3665 00b7 27       		.uleb128 0x27
 3666 00b8 19       		.uleb128 0x19
 3667 00b9 20       		.uleb128 0x20
 3668 00ba 0B       		.uleb128 0xb
 3669 00bb 01       		.uleb128 0x1
 3670 00bc 13       		.uleb128 0x13
 3671 00bd 00       		.byte	0
 3672 00be 00       		.byte	0
 3673 00bf 10       		.uleb128 0x10
 3674 00c0 34       		.uleb128 0x34
 3675 00c1 00       		.byte	0
 3676 00c2 03       		.uleb128 0x3
 3677 00c3 08       		.uleb128 0x8
 3678 00c4 3A       		.uleb128 0x3a
 3679 00c5 0B       		.uleb128 0xb
 3680 00c6 3B       		.uleb128 0x3b
 3681 00c7 05       		.uleb128 0x5
 3682 00c8 49       		.uleb128 0x49
 3683 00c9 13       		.uleb128 0x13
 3684 00ca 00       		.byte	0
 3685 00cb 00       		.byte	0
ARM GAS  C:\Users\mgronber\AppData\Local\Temp\ccohOFIJ.s 			page 93


 3686 00cc 11       		.uleb128 0x11
 3687 00cd 2E       		.uleb128 0x2e
 3688 00ce 00       		.byte	0
 3689 00cf 3F       		.uleb128 0x3f
 3690 00d0 19       		.uleb128 0x19
 3691 00d1 03       		.uleb128 0x3
 3692 00d2 0E       		.uleb128 0xe
 3693 00d3 3A       		.uleb128 0x3a
 3694 00d4 0B       		.uleb128 0xb
 3695 00d5 3B       		.uleb128 0x3b
 3696 00d6 05       		.uleb128 0x5
 3697 00d7 27       		.uleb128 0x27
 3698 00d8 19       		.uleb128 0x19
 3699 00d9 49       		.uleb128 0x49
 3700 00da 13       		.uleb128 0x13
 3701 00db 20       		.uleb128 0x20
 3702 00dc 0B       		.uleb128 0xb
 3703 00dd 00       		.byte	0
 3704 00de 00       		.byte	0
 3705 00df 12       		.uleb128 0x12
 3706 00e0 2E       		.uleb128 0x2e
 3707 00e1 01       		.byte	0x1
 3708 00e2 31       		.uleb128 0x31
 3709 00e3 13       		.uleb128 0x13
 3710 00e4 11       		.uleb128 0x11
 3711 00e5 01       		.uleb128 0x1
 3712 00e6 12       		.uleb128 0x12
 3713 00e7 06       		.uleb128 0x6
 3714 00e8 40       		.uleb128 0x40
 3715 00e9 18       		.uleb128 0x18
 3716 00ea 9742     		.uleb128 0x2117
 3717 00ec 19       		.uleb128 0x19
 3718 00ed 01       		.uleb128 0x1
 3719 00ee 13       		.uleb128 0x13
 3720 00ef 00       		.byte	0
 3721 00f0 00       		.byte	0
 3722 00f1 13       		.uleb128 0x13
 3723 00f2 34       		.uleb128 0x34
 3724 00f3 00       		.byte	0
 3725 00f4 31       		.uleb128 0x31
 3726 00f5 13       		.uleb128 0x13
 3727 00f6 02       		.uleb128 0x2
 3728 00f7 17       		.uleb128 0x17
 3729 00f8 00       		.byte	0
 3730 00f9 00       		.byte	0
 3731 00fa 14       		.uleb128 0x14
 3732 00fb 1D       		.uleb128 0x1d
 3733 00fc 01       		.byte	0x1
 3734 00fd 31       		.uleb128 0x31
 3735 00fe 13       		.uleb128 0x13
 3736 00ff 52       		.uleb128 0x52
 3737 0100 01       		.uleb128 0x1
 3738 0101 55       		.uleb128 0x55
 3739 0102 17       		.uleb128 0x17
 3740 0103 58       		.uleb128 0x58
 3741 0104 0B       		.uleb128 0xb
 3742 0105 59       		.uleb128 0x59
ARM GAS  C:\Users\mgronber\AppData\Local\Temp\ccohOFIJ.s 			page 94


 3743 0106 05       		.uleb128 0x5
 3744 0107 00       		.byte	0
 3745 0108 00       		.byte	0
 3746 0109 15       		.uleb128 0x15
 3747 010a 05       		.uleb128 0x5
 3748 010b 00       		.byte	0
 3749 010c 31       		.uleb128 0x31
 3750 010d 13       		.uleb128 0x13
 3751 010e 02       		.uleb128 0x2
 3752 010f 17       		.uleb128 0x17
 3753 0110 00       		.byte	0
 3754 0111 00       		.byte	0
 3755 0112 16       		.uleb128 0x16
 3756 0113 0B       		.uleb128 0xb
 3757 0114 01       		.byte	0x1
 3758 0115 55       		.uleb128 0x55
 3759 0116 17       		.uleb128 0x17
 3760 0117 00       		.byte	0
 3761 0118 00       		.byte	0
 3762 0119 17       		.uleb128 0x17
 3763 011a 2E       		.uleb128 0x2e
 3764 011b 01       		.byte	0x1
 3765 011c 3F       		.uleb128 0x3f
 3766 011d 19       		.uleb128 0x19
 3767 011e 03       		.uleb128 0x3
 3768 011f 0E       		.uleb128 0xe
 3769 0120 3A       		.uleb128 0x3a
 3770 0121 0B       		.uleb128 0xb
 3771 0122 3B       		.uleb128 0x3b
 3772 0123 05       		.uleb128 0x5
 3773 0124 27       		.uleb128 0x27
 3774 0125 19       		.uleb128 0x19
 3775 0126 11       		.uleb128 0x11
 3776 0127 01       		.uleb128 0x1
 3777 0128 12       		.uleb128 0x12
 3778 0129 06       		.uleb128 0x6
 3779 012a 40       		.uleb128 0x40
 3780 012b 18       		.uleb128 0x18
 3781 012c 9742     		.uleb128 0x2117
 3782 012e 19       		.uleb128 0x19
 3783 012f 01       		.uleb128 0x1
 3784 0130 13       		.uleb128 0x13
 3785 0131 00       		.byte	0
 3786 0132 00       		.byte	0
 3787 0133 18       		.uleb128 0x18
 3788 0134 05       		.uleb128 0x5
 3789 0135 00       		.byte	0
 3790 0136 03       		.uleb128 0x3
 3791 0137 0E       		.uleb128 0xe
 3792 0138 3A       		.uleb128 0x3a
 3793 0139 0B       		.uleb128 0xb
 3794 013a 3B       		.uleb128 0x3b
 3795 013b 05       		.uleb128 0x5
 3796 013c 49       		.uleb128 0x49
 3797 013d 13       		.uleb128 0x13
 3798 013e 02       		.uleb128 0x2
 3799 013f 17       		.uleb128 0x17
ARM GAS  C:\Users\mgronber\AppData\Local\Temp\ccohOFIJ.s 			page 95


 3800 0140 00       		.byte	0
 3801 0141 00       		.byte	0
 3802 0142 19       		.uleb128 0x19
 3803 0143 34       		.uleb128 0x34
 3804 0144 00       		.byte	0
 3805 0145 03       		.uleb128 0x3
 3806 0146 08       		.uleb128 0x8
 3807 0147 3A       		.uleb128 0x3a
 3808 0148 0B       		.uleb128 0xb
 3809 0149 3B       		.uleb128 0x3b
 3810 014a 05       		.uleb128 0x5
 3811 014b 49       		.uleb128 0x49
 3812 014c 13       		.uleb128 0x13
 3813 014d 02       		.uleb128 0x2
 3814 014e 17       		.uleb128 0x17
 3815 014f 00       		.byte	0
 3816 0150 00       		.byte	0
 3817 0151 1A       		.uleb128 0x1a
 3818 0152 34       		.uleb128 0x34
 3819 0153 00       		.byte	0
 3820 0154 03       		.uleb128 0x3
 3821 0155 0E       		.uleb128 0xe
 3822 0156 3A       		.uleb128 0x3a
 3823 0157 0B       		.uleb128 0xb
 3824 0158 3B       		.uleb128 0x3b
 3825 0159 05       		.uleb128 0x5
 3826 015a 49       		.uleb128 0x49
 3827 015b 13       		.uleb128 0x13
 3828 015c 02       		.uleb128 0x2
 3829 015d 17       		.uleb128 0x17
 3830 015e 00       		.byte	0
 3831 015f 00       		.byte	0
 3832 0160 1B       		.uleb128 0x1b
 3833 0161 34       		.uleb128 0x34
 3834 0162 00       		.byte	0
 3835 0163 03       		.uleb128 0x3
 3836 0164 08       		.uleb128 0x8
 3837 0165 3A       		.uleb128 0x3a
 3838 0166 0B       		.uleb128 0xb
 3839 0167 3B       		.uleb128 0x3b
 3840 0168 05       		.uleb128 0x5
 3841 0169 49       		.uleb128 0x49
 3842 016a 13       		.uleb128 0x13
 3843 016b 02       		.uleb128 0x2
 3844 016c 18       		.uleb128 0x18
 3845 016d 00       		.byte	0
 3846 016e 00       		.byte	0
 3847 016f 1C       		.uleb128 0x1c
 3848 0170 01       		.uleb128 0x1
 3849 0171 01       		.byte	0x1
 3850 0172 49       		.uleb128 0x49
 3851 0173 13       		.uleb128 0x13
 3852 0174 01       		.uleb128 0x1
 3853 0175 13       		.uleb128 0x13
 3854 0176 00       		.byte	0
 3855 0177 00       		.byte	0
 3856 0178 1D       		.uleb128 0x1d
ARM GAS  C:\Users\mgronber\AppData\Local\Temp\ccohOFIJ.s 			page 96


 3857 0179 21       		.uleb128 0x21
 3858 017a 00       		.byte	0
 3859 017b 49       		.uleb128 0x49
 3860 017c 13       		.uleb128 0x13
 3861 017d 2F       		.uleb128 0x2f
 3862 017e 0B       		.uleb128 0xb
 3863 017f 00       		.byte	0
 3864 0180 00       		.byte	0
 3865 0181 1E       		.uleb128 0x1e
 3866 0182 34       		.uleb128 0x34
 3867 0183 00       		.byte	0
 3868 0184 31       		.uleb128 0x31
 3869 0185 13       		.uleb128 0x13
 3870 0186 00       		.byte	0
 3871 0187 00       		.byte	0
 3872 0188 1F       		.uleb128 0x1f
 3873 0189 898201   		.uleb128 0x4109
 3874 018c 00       		.byte	0
 3875 018d 11       		.uleb128 0x11
 3876 018e 01       		.uleb128 0x1
 3877 018f 9542     		.uleb128 0x2115
 3878 0191 19       		.uleb128 0x19
 3879 0192 31       		.uleb128 0x31
 3880 0193 13       		.uleb128 0x13
 3881 0194 00       		.byte	0
 3882 0195 00       		.byte	0
 3883 0196 20       		.uleb128 0x20
 3884 0197 2E       		.uleb128 0x2e
 3885 0198 00       		.byte	0
 3886 0199 31       		.uleb128 0x31
 3887 019a 13       		.uleb128 0x13
 3888 019b 11       		.uleb128 0x11
 3889 019c 01       		.uleb128 0x1
 3890 019d 12       		.uleb128 0x12
 3891 019e 06       		.uleb128 0x6
 3892 019f 40       		.uleb128 0x40
 3893 01a0 18       		.uleb128 0x18
 3894 01a1 9742     		.uleb128 0x2117
 3895 01a3 19       		.uleb128 0x19
 3896 01a4 00       		.byte	0
 3897 01a5 00       		.byte	0
 3898 01a6 21       		.uleb128 0x21
 3899 01a7 2E       		.uleb128 0x2e
 3900 01a8 01       		.byte	0x1
 3901 01a9 3F       		.uleb128 0x3f
 3902 01aa 19       		.uleb128 0x19
 3903 01ab 03       		.uleb128 0x3
 3904 01ac 0E       		.uleb128 0xe
 3905 01ad 3A       		.uleb128 0x3a
 3906 01ae 0B       		.uleb128 0xb
 3907 01af 3B       		.uleb128 0x3b
 3908 01b0 05       		.uleb128 0x5
 3909 01b1 27       		.uleb128 0x27
 3910 01b2 19       		.uleb128 0x19
 3911 01b3 49       		.uleb128 0x49
 3912 01b4 13       		.uleb128 0x13
 3913 01b5 11       		.uleb128 0x11
ARM GAS  C:\Users\mgronber\AppData\Local\Temp\ccohOFIJ.s 			page 97


 3914 01b6 01       		.uleb128 0x1
 3915 01b7 12       		.uleb128 0x12
 3916 01b8 06       		.uleb128 0x6
 3917 01b9 40       		.uleb128 0x40
 3918 01ba 18       		.uleb128 0x18
 3919 01bb 9742     		.uleb128 0x2117
 3920 01bd 19       		.uleb128 0x19
 3921 01be 01       		.uleb128 0x1
 3922 01bf 13       		.uleb128 0x13
 3923 01c0 00       		.byte	0
 3924 01c1 00       		.byte	0
 3925 01c2 22       		.uleb128 0x22
 3926 01c3 34       		.uleb128 0x34
 3927 01c4 00       		.byte	0
 3928 01c5 31       		.uleb128 0x31
 3929 01c6 13       		.uleb128 0x13
 3930 01c7 1C       		.uleb128 0x1c
 3931 01c8 0B       		.uleb128 0xb
 3932 01c9 00       		.byte	0
 3933 01ca 00       		.byte	0
 3934 01cb 23       		.uleb128 0x23
 3935 01cc 1D       		.uleb128 0x1d
 3936 01cd 01       		.byte	0x1
 3937 01ce 31       		.uleb128 0x31
 3938 01cf 13       		.uleb128 0x13
 3939 01d0 52       		.uleb128 0x52
 3940 01d1 01       		.uleb128 0x1
 3941 01d2 55       		.uleb128 0x55
 3942 01d3 17       		.uleb128 0x17
 3943 01d4 58       		.uleb128 0x58
 3944 01d5 0B       		.uleb128 0xb
 3945 01d6 59       		.uleb128 0x59
 3946 01d7 05       		.uleb128 0x5
 3947 01d8 01       		.uleb128 0x1
 3948 01d9 13       		.uleb128 0x13
 3949 01da 00       		.byte	0
 3950 01db 00       		.byte	0
 3951 01dc 24       		.uleb128 0x24
 3952 01dd 898201   		.uleb128 0x4109
 3953 01e0 00       		.byte	0
 3954 01e1 11       		.uleb128 0x11
 3955 01e2 01       		.uleb128 0x1
 3956 01e3 31       		.uleb128 0x31
 3957 01e4 13       		.uleb128 0x13
 3958 01e5 00       		.byte	0
 3959 01e6 00       		.byte	0
 3960 01e7 25       		.uleb128 0x25
 3961 01e8 05       		.uleb128 0x5
 3962 01e9 00       		.byte	0
 3963 01ea 03       		.uleb128 0x3
 3964 01eb 08       		.uleb128 0x8
 3965 01ec 3A       		.uleb128 0x3a
 3966 01ed 0B       		.uleb128 0xb
 3967 01ee 3B       		.uleb128 0x3b
 3968 01ef 05       		.uleb128 0x5
 3969 01f0 49       		.uleb128 0x49
 3970 01f1 13       		.uleb128 0x13
ARM GAS  C:\Users\mgronber\AppData\Local\Temp\ccohOFIJ.s 			page 98


 3971 01f2 02       		.uleb128 0x2
 3972 01f3 18       		.uleb128 0x18
 3973 01f4 00       		.byte	0
 3974 01f5 00       		.byte	0
 3975 01f6 26       		.uleb128 0x26
 3976 01f7 34       		.uleb128 0x34
 3977 01f8 00       		.byte	0
 3978 01f9 03       		.uleb128 0x3
 3979 01fa 0E       		.uleb128 0xe
 3980 01fb 3A       		.uleb128 0x3a
 3981 01fc 0B       		.uleb128 0xb
 3982 01fd 3B       		.uleb128 0x3b
 3983 01fe 05       		.uleb128 0x5
 3984 01ff 49       		.uleb128 0x49
 3985 0200 13       		.uleb128 0x13
 3986 0201 1C       		.uleb128 0x1c
 3987 0202 0B       		.uleb128 0xb
 3988 0203 00       		.byte	0
 3989 0204 00       		.byte	0
 3990 0205 27       		.uleb128 0x27
 3991 0206 34       		.uleb128 0x34
 3992 0207 00       		.byte	0
 3993 0208 03       		.uleb128 0x3
 3994 0209 0E       		.uleb128 0xe
 3995 020a 3A       		.uleb128 0x3a
 3996 020b 0B       		.uleb128 0xb
 3997 020c 3B       		.uleb128 0x3b
 3998 020d 05       		.uleb128 0x5
 3999 020e 49       		.uleb128 0x49
 4000 020f 13       		.uleb128 0x13
 4001 0210 02       		.uleb128 0x2
 4002 0211 18       		.uleb128 0x18
 4003 0212 00       		.byte	0
 4004 0213 00       		.byte	0
 4005 0214 28       		.uleb128 0x28
 4006 0215 2E       		.uleb128 0x2e
 4007 0216 01       		.byte	0x1
 4008 0217 3F       		.uleb128 0x3f
 4009 0218 19       		.uleb128 0x19
 4010 0219 03       		.uleb128 0x3
 4011 021a 0E       		.uleb128 0xe
 4012 021b 3A       		.uleb128 0x3a
 4013 021c 0B       		.uleb128 0xb
 4014 021d 3B       		.uleb128 0x3b
 4015 021e 0B       		.uleb128 0xb
 4016 021f 27       		.uleb128 0x27
 4017 0220 19       		.uleb128 0x19
 4018 0221 49       		.uleb128 0x49
 4019 0222 13       		.uleb128 0x13
 4020 0223 11       		.uleb128 0x11
 4021 0224 01       		.uleb128 0x1
 4022 0225 12       		.uleb128 0x12
 4023 0226 06       		.uleb128 0x6
 4024 0227 40       		.uleb128 0x40
 4025 0228 18       		.uleb128 0x18
 4026 0229 9742     		.uleb128 0x2117
 4027 022b 19       		.uleb128 0x19
ARM GAS  C:\Users\mgronber\AppData\Local\Temp\ccohOFIJ.s 			page 99


 4028 022c 01       		.uleb128 0x1
 4029 022d 13       		.uleb128 0x13
 4030 022e 00       		.byte	0
 4031 022f 00       		.byte	0
 4032 0230 29       		.uleb128 0x29
 4033 0231 34       		.uleb128 0x34
 4034 0232 00       		.byte	0
 4035 0233 03       		.uleb128 0x3
 4036 0234 0E       		.uleb128 0xe
 4037 0235 3A       		.uleb128 0x3a
 4038 0236 0B       		.uleb128 0xb
 4039 0237 3B       		.uleb128 0x3b
 4040 0238 0B       		.uleb128 0xb
 4041 0239 49       		.uleb128 0x49
 4042 023a 13       		.uleb128 0x13
 4043 023b 02       		.uleb128 0x2
 4044 023c 17       		.uleb128 0x17
 4045 023d 00       		.byte	0
 4046 023e 00       		.byte	0
 4047 023f 2A       		.uleb128 0x2a
 4048 0240 34       		.uleb128 0x34
 4049 0241 00       		.byte	0
 4050 0242 03       		.uleb128 0x3
 4051 0243 0E       		.uleb128 0xe
 4052 0244 3A       		.uleb128 0x3a
 4053 0245 0B       		.uleb128 0xb
 4054 0246 3B       		.uleb128 0x3b
 4055 0247 0B       		.uleb128 0xb
 4056 0248 49       		.uleb128 0x49
 4057 0249 13       		.uleb128 0x13
 4058 024a 02       		.uleb128 0x2
 4059 024b 18       		.uleb128 0x18
 4060 024c 00       		.byte	0
 4061 024d 00       		.byte	0
 4062 024e 2B       		.uleb128 0x2b
 4063 024f 1D       		.uleb128 0x1d
 4064 0250 01       		.byte	0x1
 4065 0251 31       		.uleb128 0x31
 4066 0252 13       		.uleb128 0x13
 4067 0253 52       		.uleb128 0x52
 4068 0254 01       		.uleb128 0x1
 4069 0255 55       		.uleb128 0x55
 4070 0256 17       		.uleb128 0x17
 4071 0257 58       		.uleb128 0x58
 4072 0258 0B       		.uleb128 0xb
 4073 0259 59       		.uleb128 0x59
 4074 025a 0B       		.uleb128 0xb
 4075 025b 01       		.uleb128 0x1
 4076 025c 13       		.uleb128 0x13
 4077 025d 00       		.byte	0
 4078 025e 00       		.byte	0
 4079 025f 2C       		.uleb128 0x2c
 4080 0260 1D       		.uleb128 0x1d
 4081 0261 00       		.byte	0
 4082 0262 31       		.uleb128 0x31
 4083 0263 13       		.uleb128 0x13
 4084 0264 11       		.uleb128 0x11
ARM GAS  C:\Users\mgronber\AppData\Local\Temp\ccohOFIJ.s 			page 100


 4085 0265 01       		.uleb128 0x1
 4086 0266 12       		.uleb128 0x12
 4087 0267 06       		.uleb128 0x6
 4088 0268 58       		.uleb128 0x58
 4089 0269 0B       		.uleb128 0xb
 4090 026a 59       		.uleb128 0x59
 4091 026b 0B       		.uleb128 0xb
 4092 026c 00       		.byte	0
 4093 026d 00       		.byte	0
 4094 026e 2D       		.uleb128 0x2d
 4095 026f 898201   		.uleb128 0x4109
 4096 0272 01       		.byte	0x1
 4097 0273 11       		.uleb128 0x11
 4098 0274 01       		.uleb128 0x1
 4099 0275 31       		.uleb128 0x31
 4100 0276 13       		.uleb128 0x13
 4101 0277 01       		.uleb128 0x1
 4102 0278 13       		.uleb128 0x13
 4103 0279 00       		.byte	0
 4104 027a 00       		.byte	0
 4105 027b 2E       		.uleb128 0x2e
 4106 027c 8A8201   		.uleb128 0x410a
 4107 027f 00       		.byte	0
 4108 0280 02       		.uleb128 0x2
 4109 0281 18       		.uleb128 0x18
 4110 0282 9142     		.uleb128 0x2111
 4111 0284 18       		.uleb128 0x18
 4112 0285 00       		.byte	0
 4113 0286 00       		.byte	0
 4114 0287 2F       		.uleb128 0x2f
 4115 0288 34       		.uleb128 0x34
 4116 0289 00       		.byte	0
 4117 028a 03       		.uleb128 0x3
 4118 028b 0E       		.uleb128 0xe
 4119 028c 3A       		.uleb128 0x3a
 4120 028d 0B       		.uleb128 0xb
 4121 028e 3B       		.uleb128 0x3b
 4122 028f 05       		.uleb128 0x5
 4123 0290 49       		.uleb128 0x49
 4124 0291 13       		.uleb128 0x13
 4125 0292 3F       		.uleb128 0x3f
 4126 0293 19       		.uleb128 0x19
 4127 0294 3C       		.uleb128 0x3c
 4128 0295 19       		.uleb128 0x19
 4129 0296 00       		.byte	0
 4130 0297 00       		.byte	0
 4131 0298 30       		.uleb128 0x30
 4132 0299 34       		.uleb128 0x34
 4133 029a 00       		.byte	0
 4134 029b 03       		.uleb128 0x3
 4135 029c 0E       		.uleb128 0xe
 4136 029d 3A       		.uleb128 0x3a
 4137 029e 0B       		.uleb128 0xb
 4138 029f 3B       		.uleb128 0x3b
 4139 02a0 0B       		.uleb128 0xb
 4140 02a1 49       		.uleb128 0x49
 4141 02a2 13       		.uleb128 0x13
ARM GAS  C:\Users\mgronber\AppData\Local\Temp\ccohOFIJ.s 			page 101


 4142 02a3 3F       		.uleb128 0x3f
 4143 02a4 19       		.uleb128 0x19
 4144 02a5 3C       		.uleb128 0x3c
 4145 02a6 19       		.uleb128 0x19
 4146 02a7 00       		.byte	0
 4147 02a8 00       		.byte	0
 4148 02a9 31       		.uleb128 0x31
 4149 02aa 2E       		.uleb128 0x2e
 4150 02ab 00       		.byte	0
 4151 02ac 3F       		.uleb128 0x3f
 4152 02ad 19       		.uleb128 0x19
 4153 02ae 03       		.uleb128 0x3
 4154 02af 0E       		.uleb128 0xe
 4155 02b0 3A       		.uleb128 0x3a
 4156 02b1 0B       		.uleb128 0xb
 4157 02b2 3B       		.uleb128 0x3b
 4158 02b3 0B       		.uleb128 0xb
 4159 02b4 27       		.uleb128 0x27
 4160 02b5 19       		.uleb128 0x19
 4161 02b6 49       		.uleb128 0x49
 4162 02b7 13       		.uleb128 0x13
 4163 02b8 3C       		.uleb128 0x3c
 4164 02b9 19       		.uleb128 0x19
 4165 02ba 00       		.byte	0
 4166 02bb 00       		.byte	0
 4167 02bc 00       		.byte	0
 4168              		.section	.debug_loc,"",%progbits
 4169              	.Ldebug_loc0:
 4170              	.LLST0:
 4171 0000 24000000 		.4byte	.LVL3
 4172 0004 32000000 		.4byte	.LVL5
 4173 0008 0100     		.2byte	0x1
 4174 000a 52       		.byte	0x52
 4175 000b 32000000 		.4byte	.LVL5
 4176 000f 36000000 		.4byte	.LVL6
 4177 0013 0300     		.2byte	0x3
 4178 0015 72       		.byte	0x72
 4179 0016 01       		.sleb128 1
 4180 0017 9F       		.byte	0x9f
 4181 0018 80010000 		.4byte	.LVL25
 4182 001c BC010000 		.4byte	.LFE12
 4183 0020 0100     		.2byte	0x1
 4184 0022 52       		.byte	0x52
 4185 0023 00000000 		.4byte	0
 4186 0027 00000000 		.4byte	0
 4187              	.LLST1:
 4188 002b 82000000 		.4byte	.LVL11
 4189 002f CC000000 		.4byte	.LVL16
 4190 0033 0100     		.2byte	0x1
 4191 0035 57       		.byte	0x57
 4192 0036 58010000 		.4byte	.LVL22
 4193 003a 80010000 		.4byte	.LVL25
 4194 003e 0100     		.2byte	0x1
 4195 0040 57       		.byte	0x57
 4196 0041 00000000 		.4byte	0
 4197 0045 00000000 		.4byte	0
 4198              	.LLST2:
ARM GAS  C:\Users\mgronber\AppData\Local\Temp\ccohOFIJ.s 			page 102


 4199 0049 26000000 		.4byte	.LVL4
 4200 004d 52000000 		.4byte	.LVL8
 4201 0051 0200     		.2byte	0x2
 4202 0053 30       		.byte	0x30
 4203 0054 9F       		.byte	0x9f
 4204 0055 80010000 		.4byte	.LVL25
 4205 0059 BC010000 		.4byte	.LFE12
 4206 005d 0200     		.2byte	0x2
 4207 005f 30       		.byte	0x30
 4208 0060 9F       		.byte	0x9f
 4209 0061 00000000 		.4byte	0
 4210 0065 00000000 		.4byte	0
 4211              	.LLST3:
 4212 0069 90000000 		.4byte	.LVL13
 4213 006d 98000000 		.4byte	.LVL14
 4214 0071 0100     		.2byte	0x1
 4215 0073 56       		.byte	0x56
 4216 0074 98000000 		.4byte	.LVL14
 4217 0078 B6000000 		.4byte	.LVL15
 4218 007c 0700     		.2byte	0x7
 4219 007e 73       		.byte	0x73
 4220 007f 7B       		.sleb128 -5
 4221 0080 94       		.byte	0x94
 4222 0081 01       		.byte	0x1
 4223 0082 33       		.byte	0x33
 4224 0083 1A       		.byte	0x1a
 4225 0084 9F       		.byte	0x9f
 4226 0085 58010000 		.4byte	.LVL22
 4227 0089 5E010000 		.4byte	.LVL23
 4228 008d 0100     		.2byte	0x1
 4229 008f 56       		.byte	0x56
 4230 0090 5E010000 		.4byte	.LVL23
 4231 0094 78010000 		.4byte	.LVL24
 4232 0098 0700     		.2byte	0x7
 4233 009a 73       		.byte	0x73
 4234 009b 7B       		.sleb128 -5
 4235 009c 94       		.byte	0x94
 4236 009d 01       		.byte	0x1
 4237 009e 33       		.byte	0x33
 4238 009f 1A       		.byte	0x1a
 4239 00a0 9F       		.byte	0x9f
 4240 00a1 00000000 		.4byte	0
 4241 00a5 00000000 		.4byte	0
 4242              	.LLST4:
 4243 00a9 8C000000 		.4byte	.LVL12
 4244 00ad 4C010000 		.4byte	.LVL19
 4245 00b1 0100     		.2byte	0x1
 4246 00b3 55       		.byte	0x55
 4247 00b4 58010000 		.4byte	.LVL22
 4248 00b8 80010000 		.4byte	.LVL25
 4249 00bc 0100     		.2byte	0x1
 4250 00be 55       		.byte	0x55
 4251 00bf 00000000 		.4byte	0
 4252 00c3 00000000 		.4byte	0
 4253              	.LLST5:
 4254 00c7 22000000 		.4byte	.LVL2
 4255 00cb 26000000 		.4byte	.LVL4
ARM GAS  C:\Users\mgronber\AppData\Local\Temp\ccohOFIJ.s 			page 103


 4256 00cf 0300     		.2byte	0x3
 4257 00d1 73       		.byte	0x73
 4258 00d2 08       		.sleb128 8
 4259 00d3 9F       		.byte	0x9f
 4260 00d4 52010000 		.4byte	.LVL20
 4261 00d8 58010000 		.4byte	.LVL22
 4262 00dc 0200     		.2byte	0x2
 4263 00de 38       		.byte	0x38
 4264 00df 9F       		.byte	0x9f
 4265 00e0 00000000 		.4byte	0
 4266 00e4 00000000 		.4byte	0
 4267              	.LLST6:
 4268 00e8 26000000 		.4byte	.LVL4
 4269 00ec 48000000 		.4byte	.LVL7
 4270 00f0 0100     		.2byte	0x1
 4271 00f2 53       		.byte	0x53
 4272 00f3 48000000 		.4byte	.LVL7
 4273 00f7 52000000 		.4byte	.LVL8
 4274 00fb 0300     		.2byte	0x3
 4275 00fd 73       		.byte	0x73
 4276 00fe 78       		.sleb128 -8
 4277 00ff 9F       		.byte	0x9f
 4278 0100 52000000 		.4byte	.LVL8
 4279 0104 54000000 		.4byte	.LVL9
 4280 0108 0100     		.2byte	0x1
 4281 010a 53       		.byte	0x53
 4282 010b 54000000 		.4byte	.LVL9
 4283 010f 40010000 		.4byte	.LVL17
 4284 0113 0300     		.2byte	0x3
 4285 0115 73       		.byte	0x73
 4286 0116 78       		.sleb128 -8
 4287 0117 9F       		.byte	0x9f
 4288 0118 40010000 		.4byte	.LVL17
 4289 011c 4A010000 		.4byte	.LVL18
 4290 0120 0300     		.2byte	0x3
 4291 0122 73       		.byte	0x73
 4292 0123 70       		.sleb128 -16
 4293 0124 9F       		.byte	0x9f
 4294 0125 58010000 		.4byte	.LVL22
 4295 0129 80010000 		.4byte	.LVL25
 4296 012d 0300     		.2byte	0x3
 4297 012f 73       		.byte	0x73
 4298 0130 78       		.sleb128 -8
 4299 0131 9F       		.byte	0x9f
 4300 0132 80010000 		.4byte	.LVL25
 4301 0136 BC010000 		.4byte	.LFE12
 4302 013a 0100     		.2byte	0x1
 4303 013c 53       		.byte	0x53
 4304 013d 00000000 		.4byte	0
 4305 0141 00000000 		.4byte	0
 4306              	.LLST7:
 4307 0145 14000000 		.4byte	.LVL0
 4308 0149 20000000 		.4byte	.LVL1
 4309 014d 0100     		.2byte	0x1
 4310 014f 53       		.byte	0x53
 4311 0150 52010000 		.4byte	.LVL20
 4312 0154 54010000 		.4byte	.LVL21
ARM GAS  C:\Users\mgronber\AppData\Local\Temp\ccohOFIJ.s 			page 104


 4313 0158 0100     		.2byte	0x1
 4314 015a 53       		.byte	0x53
 4315 015b 00000000 		.4byte	0
 4316 015f 00000000 		.4byte	0
 4317              	.LLST8:
 4318 0163 14000000 		.4byte	.LVL0
 4319 0167 22000000 		.4byte	.LVL2
 4320 016b 0300     		.2byte	0x3
 4321 016d 72       		.byte	0x72
 4322 016e 08       		.sleb128 8
 4323 016f 9F       		.byte	0x9f
 4324 0170 22000000 		.4byte	.LVL2
 4325 0174 26000000 		.4byte	.LVL4
 4326 0178 0100     		.2byte	0x1
 4327 017a 53       		.byte	0x53
 4328 017b 52010000 		.4byte	.LVL20
 4329 017f 58010000 		.4byte	.LVL22
 4330 0183 0200     		.2byte	0x2
 4331 0185 30       		.byte	0x30
 4332 0186 9F       		.byte	0x9f
 4333 0187 00000000 		.4byte	0
 4334 018b 00000000 		.4byte	0
 4335              	.LLST9:
 4336 018f 00000000 		.4byte	.LVL26
 4337 0193 0C000000 		.4byte	.LVL27
 4338 0197 0100     		.2byte	0x1
 4339 0199 50       		.byte	0x50
 4340 019a 0C000000 		.4byte	.LVL27
 4341 019e 22000000 		.4byte	.LVL28
 4342 01a2 0100     		.2byte	0x1
 4343 01a4 55       		.byte	0x55
 4344 01a5 22000000 		.4byte	.LVL28
 4345 01a9 46000000 		.4byte	.LVL33
 4346 01ad 0300     		.2byte	0x3
 4347 01af 74       		.byte	0x74
 4348 01b0 60       		.sleb128 -32
 4349 01b1 9F       		.byte	0x9f
 4350 01b2 46000000 		.4byte	.LVL33
 4351 01b6 54000000 		.4byte	.LFE1
 4352 01ba 0400     		.2byte	0x4
 4353 01bc F3       		.byte	0xf3
 4354 01bd 01       		.uleb128 0x1
 4355 01be 50       		.byte	0x50
 4356 01bf 9F       		.byte	0x9f
 4357 01c0 00000000 		.4byte	0
 4358 01c4 00000000 		.4byte	0
 4359              	.LLST10:
 4360 01c8 22000000 		.4byte	.LVL28
 4361 01cc 42000000 		.4byte	.LVL32
 4362 01d0 0800     		.2byte	0x8
 4363 01d2 72       		.byte	0x72
 4364 01d3 00       		.sleb128 0
 4365 01d4 74       		.byte	0x74
 4366 01d5 60       		.sleb128 -32
 4367 01d6 1C       		.byte	0x1c
 4368 01d7 23       		.byte	0x23
 4369 01d8 02       		.uleb128 0x2
ARM GAS  C:\Users\mgronber\AppData\Local\Temp\ccohOFIJ.s 			page 105


 4370 01d9 9F       		.byte	0x9f
 4371 01da 42000000 		.4byte	.LVL32
 4372 01de 46000000 		.4byte	.LVL33
 4373 01e2 0800     		.2byte	0x8
 4374 01e4 72       		.byte	0x72
 4375 01e5 00       		.sleb128 0
 4376 01e6 74       		.byte	0x74
 4377 01e7 60       		.sleb128 -32
 4378 01e8 1C       		.byte	0x1c
 4379 01e9 23       		.byte	0x23
 4380 01ea 06       		.uleb128 0x6
 4381 01eb 9F       		.byte	0x9f
 4382 01ec 00000000 		.4byte	0
 4383 01f0 00000000 		.4byte	0
 4384              	.LLST11:
 4385 01f4 00000000 		.4byte	.LVL26
 4386 01f8 22000000 		.4byte	.LVL28
 4387 01fc 0200     		.2byte	0x2
 4388 01fe 30       		.byte	0x30
 4389 01ff 9F       		.byte	0x9f
 4390 0200 22000000 		.4byte	.LVL28
 4391 0204 26000000 		.4byte	.LVL29
 4392 0208 0100     		.2byte	0x1
 4393 020a 50       		.byte	0x50
 4394 020b 2A000000 		.4byte	.LVL30
 4395 020f 46000000 		.4byte	.LVL33
 4396 0213 0300     		.2byte	0x3
 4397 0215 70       		.byte	0x70
 4398 0216 01       		.sleb128 1
 4399 0217 9F       		.byte	0x9f
 4400 0218 00000000 		.4byte	0
 4401 021c 00000000 		.4byte	0
 4402              	.LLST12:
 4403 0220 2A000000 		.4byte	.LVL30
 4404 0224 34000000 		.4byte	.LVL31
 4405 0228 0100     		.2byte	0x1
 4406 022a 53       		.byte	0x53
 4407 022b 00000000 		.4byte	0
 4408 022f 00000000 		.4byte	0
 4409              	.LLST13:
 4410 0233 00000000 		.4byte	.LVL34
 4411 0237 14000000 		.4byte	.LVL35
 4412 023b 0200     		.2byte	0x2
 4413 023d 31       		.byte	0x31
 4414 023e 9F       		.byte	0x9f
 4415 023f 14000000 		.4byte	.LVL35
 4416 0243 36000000 		.4byte	.LVL37
 4417 0247 0100     		.2byte	0x1
 4418 0249 51       		.byte	0x51
 4419 024a 64000000 		.4byte	.LVL38
 4420 024e 7E000000 		.4byte	.LVL39
 4421 0252 0100     		.2byte	0x1
 4422 0254 51       		.byte	0x51
 4423 0255 00000000 		.4byte	0
 4424 0259 00000000 		.4byte	0
 4425              	.LLST14:
 4426 025d 00000000 		.4byte	.LVL34
ARM GAS  C:\Users\mgronber\AppData\Local\Temp\ccohOFIJ.s 			page 106


 4427 0261 14000000 		.4byte	.LVL35
 4428 0265 0200     		.2byte	0x2
 4429 0267 30       		.byte	0x30
 4430 0268 9F       		.byte	0x9f
 4431 0269 14000000 		.4byte	.LVL35
 4432 026d 2A000000 		.4byte	.LVL36
 4433 0271 0300     		.2byte	0x3
 4434 0273 72       		.byte	0x72
 4435 0274 72       		.sleb128 -14
 4436 0275 9F       		.byte	0x9f
 4437 0276 64000000 		.4byte	.LVL38
 4438 027a 7E000000 		.4byte	.LVL39
 4439 027e 0300     		.2byte	0x3
 4440 0280 72       		.byte	0x72
 4441 0281 72       		.sleb128 -14
 4442 0282 9F       		.byte	0x9f
 4443 0283 00000000 		.4byte	0
 4444 0287 00000000 		.4byte	0
 4445              	.LLST15:
 4446 028b 00000000 		.4byte	.LVL41
 4447 028f 18000000 		.4byte	.LVL44
 4448 0293 0100     		.2byte	0x1
 4449 0295 50       		.byte	0x50
 4450 0296 18000000 		.4byte	.LVL44
 4451 029a 24000000 		.4byte	.LFE5
 4452 029e 0400     		.2byte	0x4
 4453 02a0 F3       		.byte	0xf3
 4454 02a1 01       		.uleb128 0x1
 4455 02a2 50       		.byte	0x50
 4456 02a3 9F       		.byte	0x9f
 4457 02a4 00000000 		.4byte	0
 4458 02a8 00000000 		.4byte	0
 4459              	.LLST16:
 4460 02ac 0C000000 		.4byte	.LVL42
 4461 02b0 16000000 		.4byte	.LVL43
 4462 02b4 0300     		.2byte	0x3
 4463 02b6 73       		.byte	0x73
 4464 02b7 08       		.sleb128 8
 4465 02b8 9F       		.byte	0x9f
 4466 02b9 18000000 		.4byte	.LVL44
 4467 02bd 24000000 		.4byte	.LFE5
 4468 02c1 0100     		.2byte	0x1
 4469 02c3 50       		.byte	0x50
 4470 02c4 00000000 		.4byte	0
 4471 02c8 00000000 		.4byte	0
 4472              	.LLST17:
 4473 02cc 26000000 		.4byte	.LVL50
 4474 02d0 2A000000 		.4byte	.LVL51
 4475 02d4 0800     		.2byte	0x8
 4476 02d6 72       		.byte	0x72
 4477 02d7 02       		.sleb128 2
 4478 02d8 33       		.byte	0x33
 4479 02d9 24       		.byte	0x24
 4480 02da 73       		.byte	0x73
 4481 02db 00       		.sleb128 0
 4482 02dc 22       		.byte	0x22
 4483 02dd 9F       		.byte	0x9f
ARM GAS  C:\Users\mgronber\AppData\Local\Temp\ccohOFIJ.s 			page 107


 4484 02de 00000000 		.4byte	0
 4485 02e2 00000000 		.4byte	0
 4486              	.LLST18:
 4487 02e6 2C000000 		.4byte	.LVL52
 4488 02ea 2E000000 		.4byte	.LVL53
 4489 02ee 0100     		.2byte	0x1
 4490 02f0 50       		.byte	0x50
 4491 02f1 34000000 		.4byte	.LVL55
 4492 02f5 44000000 		.4byte	.LFE7
 4493 02f9 0100     		.2byte	0x1
 4494 02fb 50       		.byte	0x50
 4495 02fc 00000000 		.4byte	0
 4496 0300 00000000 		.4byte	0
 4497              	.LLST19:
 4498 0304 22000000 		.4byte	.LVL49
 4499 0308 2A000000 		.4byte	.LVL51
 4500 030c 0500     		.2byte	0x5
 4501 030e 73       		.byte	0x73
 4502 030f 04       		.sleb128 4
 4503 0310 06       		.byte	0x6
 4504 0311 23       		.byte	0x23
 4505 0312 04       		.uleb128 0x4
 4506 0313 2A000000 		.4byte	.LVL51
 4507 0317 2E000000 		.4byte	.LVL53
 4508 031b 0100     		.2byte	0x1
 4509 031d 52       		.byte	0x52
 4510 031e 00000000 		.4byte	0
 4511 0322 00000000 		.4byte	0
 4512              	.LLST20:
 4513 0326 14000000 		.4byte	.LVL46
 4514 032a 1E000000 		.4byte	.LVL47
 4515 032e 0100     		.2byte	0x1
 4516 0330 53       		.byte	0x53
 4517 0331 2E000000 		.4byte	.LVL53
 4518 0335 32000000 		.4byte	.LVL54
 4519 0339 0100     		.2byte	0x1
 4520 033b 53       		.byte	0x53
 4521 033c 00000000 		.4byte	0
 4522 0340 00000000 		.4byte	0
 4523              	.LLST21:
 4524 0344 14000000 		.4byte	.LVL46
 4525 0348 20000000 		.4byte	.LVL48
 4526 034c 0300     		.2byte	0x3
 4527 034e 72       		.byte	0x72
 4528 034f 08       		.sleb128 8
 4529 0350 9F       		.byte	0x9f
 4530 0351 20000000 		.4byte	.LVL48
 4531 0355 2A000000 		.4byte	.LVL51
 4532 0359 0100     		.2byte	0x1
 4533 035b 53       		.byte	0x53
 4534 035c 2E000000 		.4byte	.LVL53
 4535 0360 32000000 		.4byte	.LVL54
 4536 0364 0300     		.2byte	0x3
 4537 0366 72       		.byte	0x72
 4538 0367 08       		.sleb128 8
 4539 0368 9F       		.byte	0x9f
 4540 0369 32000000 		.4byte	.LVL54
ARM GAS  C:\Users\mgronber\AppData\Local\Temp\ccohOFIJ.s 			page 108


 4541 036d 44000000 		.4byte	.LFE7
 4542 0371 0100     		.2byte	0x1
 4543 0373 53       		.byte	0x53
 4544 0374 00000000 		.4byte	0
 4545 0378 00000000 		.4byte	0
 4546              	.LLST22:
 4547 037c 00000000 		.4byte	.LVL56
 4548 0380 9E000000 		.4byte	.LVL67
 4549 0384 0100     		.2byte	0x1
 4550 0386 50       		.byte	0x50
 4551 0387 9E000000 		.4byte	.LVL67
 4552 038b 7C010000 		.4byte	.LVL90
 4553 038f 0400     		.2byte	0x4
 4554 0391 F3       		.byte	0xf3
 4555 0392 01       		.uleb128 0x1
 4556 0393 50       		.byte	0x50
 4557 0394 9F       		.byte	0x9f
 4558 0395 7C010000 		.4byte	.LVL90
 4559 0399 82010000 		.4byte	.LVL92
 4560 039d 0100     		.2byte	0x1
 4561 039f 50       		.byte	0x50
 4562 03a0 82010000 		.4byte	.LVL92
 4563 03a4 B0010000 		.4byte	.LVL93
 4564 03a8 0400     		.2byte	0x4
 4565 03aa F3       		.byte	0xf3
 4566 03ab 01       		.uleb128 0x1
 4567 03ac 50       		.byte	0x50
 4568 03ad 9F       		.byte	0x9f
 4569 03ae B0010000 		.4byte	.LVL93
 4570 03b2 B4010000 		.4byte	.LVL94
 4571 03b6 0100     		.2byte	0x1
 4572 03b8 50       		.byte	0x50
 4573 03b9 B4010000 		.4byte	.LVL94
 4574 03bd E4010000 		.4byte	.LFE3
 4575 03c1 0400     		.2byte	0x4
 4576 03c3 F3       		.byte	0xf3
 4577 03c4 01       		.uleb128 0x1
 4578 03c5 50       		.byte	0x50
 4579 03c6 9F       		.byte	0x9f
 4580 03c7 00000000 		.4byte	0
 4581 03cb 00000000 		.4byte	0
 4582              	.LLST23:
 4583 03cf 00000000 		.4byte	.LVL56
 4584 03d3 0A000000 		.4byte	.LVL57
 4585 03d7 0200     		.2byte	0x2
 4586 03d9 30       		.byte	0x30
 4587 03da 9F       		.byte	0x9f
 4588 03db 0A000000 		.4byte	.LVL57
 4589 03df 10000000 		.4byte	.LVL58
 4590 03e3 0100     		.2byte	0x1
 4591 03e5 51       		.byte	0x51
 4592 03e6 00000000 		.4byte	0
 4593 03ea 00000000 		.4byte	0
 4594              	.LLST24:
 4595 03ee 2E000000 		.4byte	.LVL59
 4596 03f2 36000000 		.4byte	.LVL60
 4597 03f6 0200     		.2byte	0x2
ARM GAS  C:\Users\mgronber\AppData\Local\Temp\ccohOFIJ.s 			page 109


 4598 03f8 30       		.byte	0x30
 4599 03f9 9F       		.byte	0x9f
 4600 03fa 36000000 		.4byte	.LVL60
 4601 03fe 3A000000 		.4byte	.LVL61
 4602 0402 0200     		.2byte	0x2
 4603 0404 31       		.byte	0x31
 4604 0405 9F       		.byte	0x9f
 4605 0406 00000000 		.4byte	0
 4606 040a 00000000 		.4byte	0
 4607              	.LLST25:
 4608 040e 44000000 		.4byte	.LVL62
 4609 0412 9E000000 		.4byte	.LVL67
 4610 0416 0100     		.2byte	0x1
 4611 0418 50       		.byte	0x50
 4612 0419 7C010000 		.4byte	.LVL90
 4613 041d 82010000 		.4byte	.LVL92
 4614 0421 0100     		.2byte	0x1
 4615 0423 50       		.byte	0x50
 4616 0424 00000000 		.4byte	0
 4617 0428 00000000 		.4byte	0
 4618              	.LLST26:
 4619 042c 98000000 		.4byte	.LVL66
 4620 0430 5C010000 		.4byte	.LVL84
 4621 0434 0100     		.2byte	0x1
 4622 0436 58       		.byte	0x58
 4623 0437 5C010000 		.4byte	.LVL84
 4624 043b 5E010000 		.4byte	.LVL85
 4625 043f 0200     		.2byte	0x2
 4626 0441 31       		.byte	0x31
 4627 0442 9F       		.byte	0x9f
 4628 0443 5E010000 		.4byte	.LVL85
 4629 0447 6C010000 		.4byte	.LVL86
 4630 044b 0100     		.2byte	0x1
 4631 044d 51       		.byte	0x51
 4632 044e 82010000 		.4byte	.LVL92
 4633 0452 B0010000 		.4byte	.LVL93
 4634 0456 0100     		.2byte	0x1
 4635 0458 58       		.byte	0x58
 4636 0459 B4010000 		.4byte	.LVL94
 4637 045d E4010000 		.4byte	.LFE3
 4638 0461 0100     		.2byte	0x1
 4639 0463 58       		.byte	0x58
 4640 0464 00000000 		.4byte	0
 4641 0468 00000000 		.4byte	0
 4642              	.LLST27:
 4643 046c A4000000 		.4byte	.LVL69
 4644 0470 BC000000 		.4byte	.LVL70
 4645 0474 0200     		.2byte	0x2
 4646 0476 30       		.byte	0x30
 4647 0477 9F       		.byte	0x9f
 4648 0478 00000000 		.4byte	0
 4649 047c 00000000 		.4byte	0
 4650              	.LLST28:
 4651 0480 98000000 		.4byte	.LVL66
 4652 0484 A2000000 		.4byte	.LVL68
 4653 0488 0200     		.2byte	0x2
 4654 048a 31       		.byte	0x31
ARM GAS  C:\Users\mgronber\AppData\Local\Temp\ccohOFIJ.s 			page 110


 4655 048b 9F       		.byte	0x9f
 4656 048c A4000000 		.4byte	.LVL69
 4657 0490 24010000 		.4byte	.LVL77
 4658 0494 0100     		.2byte	0x1
 4659 0496 56       		.byte	0x56
 4660 0497 24010000 		.4byte	.LVL77
 4661 049b 26010000 		.4byte	.LVL78
 4662 049f 0300     		.2byte	0x3
 4663 04a1 70       		.byte	0x70
 4664 04a2 01       		.sleb128 1
 4665 04a3 9F       		.byte	0x9f
 4666 04a4 26010000 		.4byte	.LVL78
 4667 04a8 2A010000 		.4byte	.LVL79
 4668 04ac 0300     		.2byte	0x3
 4669 04ae 76       		.byte	0x76
 4670 04af 01       		.sleb128 1
 4671 04b0 9F       		.byte	0x9f
 4672 04b1 2A010000 		.4byte	.LVL79
 4673 04b5 36010000 		.4byte	.LVL80
 4674 04b9 0200     		.2byte	0x2
 4675 04bb 30       		.byte	0x30
 4676 04bc 9F       		.byte	0x9f
 4677 04bd 82010000 		.4byte	.LVL92
 4678 04c1 B0010000 		.4byte	.LVL93
 4679 04c5 0100     		.2byte	0x1
 4680 04c7 56       		.byte	0x56
 4681 04c8 B4010000 		.4byte	.LVL94
 4682 04cc E4010000 		.4byte	.LFE3
 4683 04d0 0100     		.2byte	0x1
 4684 04d2 56       		.byte	0x56
 4685 04d3 00000000 		.4byte	0
 4686 04d7 00000000 		.4byte	0
 4687              	.LLST29:
 4688 04db F8000000 		.4byte	.LVL73
 4689 04df 20010000 		.4byte	.LVL76
 4690 04e3 0100     		.2byte	0x1
 4691 04e5 51       		.byte	0x51
 4692 04e6 82010000 		.4byte	.LVL92
 4693 04ea B0010000 		.4byte	.LVL93
 4694 04ee 0100     		.2byte	0x1
 4695 04f0 51       		.byte	0x51
 4696 04f1 B4010000 		.4byte	.LVL94
 4697 04f5 E4010000 		.4byte	.LFE3
 4698 04f9 0100     		.2byte	0x1
 4699 04fb 51       		.byte	0x51
 4700 04fc 00000000 		.4byte	0
 4701 0500 00000000 		.4byte	0
 4702              	.LLST30:
 4703 0504 66000000 		.4byte	.LVL65
 4704 0508 A2000000 		.4byte	.LVL68
 4705 050c 0200     		.2byte	0x2
 4706 050e 79       		.byte	0x79
 4707 050f 04       		.sleb128 4
 4708 0510 00000000 		.4byte	0
 4709 0514 00000000 		.4byte	0
 4710              	.LLST31:
 4711 0518 5C010000 		.4byte	.LVL84
ARM GAS  C:\Users\mgronber\AppData\Local\Temp\ccohOFIJ.s 			page 111


 4712 051c 5E010000 		.4byte	.LVL85
 4713 0520 0200     		.2byte	0x2
 4714 0522 30       		.byte	0x30
 4715 0523 9F       		.byte	0x9f
 4716 0524 5E010000 		.4byte	.LVL85
 4717 0528 6E010000 		.4byte	.LVL87
 4718 052c 0100     		.2byte	0x1
 4719 052e 53       		.byte	0x53
 4720 052f 6E010000 		.4byte	.LVL87
 4721 0533 72010000 		.4byte	.LVL88
 4722 0537 0B00     		.2byte	0xb
 4723 0539 71       		.byte	0x71
 4724 053a 7F       		.sleb128 -1
 4725 053b 33       		.byte	0x33
 4726 053c 1E       		.byte	0x1e
 4727 053d 32       		.byte	0x32
 4728 053e 24       		.byte	0x24
 4729 053f 77       		.byte	0x77
 4730 0540 00       		.sleb128 0
 4731 0541 22       		.byte	0x22
 4732 0542 23       		.byte	0x23
 4733 0543 06       		.uleb128 0x6
 4734 0544 72010000 		.4byte	.LVL88
 4735 0548 78010000 		.4byte	.LVL89
 4736 054c 0100     		.2byte	0x1
 4737 054e 53       		.byte	0x53
 4738 054f 00000000 		.4byte	0
 4739 0553 00000000 		.4byte	0
 4740              	.LLST32:
 4741 0557 98000000 		.4byte	.LVL66
 4742 055b 78010000 		.4byte	.LVL89
 4743 055f 0300     		.2byte	0x3
 4744 0561 79       		.byte	0x79
 4745 0562 08       		.sleb128 8
 4746 0563 9F       		.byte	0x9f
 4747 0564 82010000 		.4byte	.LVL92
 4748 0568 B0010000 		.4byte	.LVL93
 4749 056c 0300     		.2byte	0x3
 4750 056e 79       		.byte	0x79
 4751 056f 08       		.sleb128 8
 4752 0570 9F       		.byte	0x9f
 4753 0571 B4010000 		.4byte	.LVL94
 4754 0575 E4010000 		.4byte	.LFE3
 4755 0579 0300     		.2byte	0x3
 4756 057b 79       		.byte	0x79
 4757 057c 08       		.sleb128 8
 4758 057d 9F       		.byte	0x9f
 4759 057e 00000000 		.4byte	0
 4760 0582 00000000 		.4byte	0
 4761              	.LLST33:
 4762 0586 A4000000 		.4byte	.LVL69
 4763 058a BC000000 		.4byte	.LVL70
 4764 058e 0100     		.2byte	0x1
 4765 0590 51       		.byte	0x51
 4766 0591 BC000000 		.4byte	.LVL70
 4767 0595 BE000000 		.4byte	.LVL71
 4768 0599 0100     		.2byte	0x1
ARM GAS  C:\Users\mgronber\AppData\Local\Temp\ccohOFIJ.s 			page 112


 4769 059b 53       		.byte	0x53
 4770 059c BE000000 		.4byte	.LVL71
 4771 05a0 14010000 		.4byte	.LVL74
 4772 05a4 0300     		.2byte	0x3
 4773 05a6 73       		.byte	0x73
 4774 05a7 78       		.sleb128 -8
 4775 05a8 9F       		.byte	0x9f
 4776 05a9 14010000 		.4byte	.LVL74
 4777 05ad 1E010000 		.4byte	.LVL75
 4778 05b1 0300     		.2byte	0x3
 4779 05b3 73       		.byte	0x73
 4780 05b4 70       		.sleb128 -16
 4781 05b5 9F       		.byte	0x9f
 4782 05b6 2A010000 		.4byte	.LVL79
 4783 05ba 36010000 		.4byte	.LVL80
 4784 05be 0100     		.2byte	0x1
 4785 05c0 51       		.byte	0x51
 4786 05c1 36010000 		.4byte	.LVL80
 4787 05c5 48010000 		.4byte	.LVL81
 4788 05c9 0300     		.2byte	0x3
 4789 05cb 72       		.byte	0x72
 4790 05cc 78       		.sleb128 -8
 4791 05cd 9F       		.byte	0x9f
 4792 05ce 48010000 		.4byte	.LVL81
 4793 05d2 50010000 		.4byte	.LVL82
 4794 05d6 0300     		.2byte	0x3
 4795 05d8 72       		.byte	0x72
 4796 05d9 70       		.sleb128 -16
 4797 05da 9F       		.byte	0x9f
 4798 05db 82010000 		.4byte	.LVL92
 4799 05df B0010000 		.4byte	.LVL93
 4800 05e3 0300     		.2byte	0x3
 4801 05e5 73       		.byte	0x73
 4802 05e6 78       		.sleb128 -8
 4803 05e7 9F       		.byte	0x9f
 4804 05e8 B4010000 		.4byte	.LVL94
 4805 05ec E4010000 		.4byte	.LFE3
 4806 05f0 0300     		.2byte	0x3
 4807 05f2 73       		.byte	0x73
 4808 05f3 78       		.sleb128 -8
 4809 05f4 9F       		.byte	0x9f
 4810 05f5 00000000 		.4byte	0
 4811 05f9 00000000 		.4byte	0
 4812              	.LLST34:
 4813 05fd 56000000 		.4byte	.LVL63
 4814 0601 62000000 		.4byte	.LVL64
 4815 0605 0100     		.2byte	0x1
 4816 0607 53       		.byte	0x53
 4817 0608 7C010000 		.4byte	.LVL90
 4818 060c 7E010000 		.4byte	.LVL91
 4819 0610 0100     		.2byte	0x1
 4820 0612 53       		.byte	0x53
 4821 0613 00000000 		.4byte	0
 4822 0617 00000000 		.4byte	0
 4823              	.LLST35:
 4824 061b 56000000 		.4byte	.LVL63
 4825 061f 66000000 		.4byte	.LVL65
ARM GAS  C:\Users\mgronber\AppData\Local\Temp\ccohOFIJ.s 			page 113


 4826 0623 0300     		.2byte	0x3
 4827 0625 72       		.byte	0x72
 4828 0626 08       		.sleb128 8
 4829 0627 9F       		.byte	0x9f
 4830 0628 66000000 		.4byte	.LVL65
 4831 062c 78010000 		.4byte	.LVL89
 4832 0630 0100     		.2byte	0x1
 4833 0632 59       		.byte	0x59
 4834 0633 7C010000 		.4byte	.LVL90
 4835 0637 82010000 		.4byte	.LVL92
 4836 063b 0200     		.2byte	0x2
 4837 063d 30       		.byte	0x30
 4838 063e 9F       		.byte	0x9f
 4839 063f 82010000 		.4byte	.LVL92
 4840 0643 B0010000 		.4byte	.LVL93
 4841 0647 0100     		.2byte	0x1
 4842 0649 59       		.byte	0x59
 4843 064a B4010000 		.4byte	.LVL94
 4844 064e E4010000 		.4byte	.LFE3
 4845 0652 0100     		.2byte	0x1
 4846 0654 59       		.byte	0x59
 4847 0655 00000000 		.4byte	0
 4848 0659 00000000 		.4byte	0
 4849              	.LLST36:
 4850 065d 08000000 		.4byte	.LVL96
 4851 0661 16000000 		.4byte	.LVL98
 4852 0665 0100     		.2byte	0x1
 4853 0667 52       		.byte	0x52
 4854 0668 46000000 		.4byte	.LVL100
 4855 066c 58000000 		.4byte	.LFE9
 4856 0670 0100     		.2byte	0x1
 4857 0672 52       		.byte	0x52
 4858 0673 00000000 		.4byte	0
 4859 0677 00000000 		.4byte	0
 4860              	.LLST37:
 4861 067b 0C000000 		.4byte	.LVL97
 4862 067f 2A000000 		.4byte	.LVL99
 4863 0683 0500     		.2byte	0x5
 4864 0685 73       		.byte	0x73
 4865 0686 00       		.sleb128 0
 4866 0687 34       		.byte	0x34
 4867 0688 24       		.byte	0x24
 4868 0689 9F       		.byte	0x9f
 4869 068a 46000000 		.4byte	.LVL100
 4870 068e 58000000 		.4byte	.LFE9
 4871 0692 0500     		.2byte	0x5
 4872 0694 73       		.byte	0x73
 4873 0695 00       		.sleb128 0
 4874 0696 34       		.byte	0x34
 4875 0697 24       		.byte	0x24
 4876 0698 9F       		.byte	0x9f
 4877 0699 00000000 		.4byte	0
 4878 069d 00000000 		.4byte	0
 4879              	.LLST38:
 4880 06a1 08000000 		.4byte	.LVL102
 4881 06a5 18000000 		.4byte	.LVL104
 4882 06a9 0100     		.2byte	0x1
ARM GAS  C:\Users\mgronber\AppData\Local\Temp\ccohOFIJ.s 			page 114


 4883 06ab 53       		.byte	0x53
 4884 06ac 5A000000 		.4byte	.LVL106
 4885 06b0 5E000000 		.4byte	.LVL107
 4886 06b4 0100     		.2byte	0x1
 4887 06b6 53       		.byte	0x53
 4888 06b7 00000000 		.4byte	0
 4889 06bb 00000000 		.4byte	0
 4890              	.LLST39:
 4891 06bf 0C000000 		.4byte	.LVL103
 4892 06c3 26000000 		.4byte	.LVL105
 4893 06c7 0500     		.2byte	0x5
 4894 06c9 71       		.byte	0x71
 4895 06ca 00       		.sleb128 0
 4896 06cb 34       		.byte	0x34
 4897 06cc 24       		.byte	0x24
 4898 06cd 9F       		.byte	0x9f
 4899 06ce 5A000000 		.4byte	.LVL106
 4900 06d2 5E000000 		.4byte	.LVL107
 4901 06d6 0500     		.2byte	0x5
 4902 06d8 71       		.byte	0x71
 4903 06d9 00       		.sleb128 0
 4904 06da 34       		.byte	0x34
 4905 06db 24       		.byte	0x24
 4906 06dc 9F       		.byte	0x9f
 4907 06dd 00000000 		.4byte	0
 4908 06e1 00000000 		.4byte	0
 4909              	.LLST40:
 4910 06e5 00000000 		.4byte	.LVL109
 4911 06e9 34000000 		.4byte	.LVL113
 4912 06ed 0200     		.2byte	0x2
 4913 06ef 31       		.byte	0x31
 4914 06f0 9F       		.byte	0x9f
 4915 06f1 34000000 		.4byte	.LVL113
 4916 06f5 36000000 		.4byte	.LVL114
 4917 06f9 0100     		.2byte	0x1
 4918 06fb 50       		.byte	0x50
 4919 06fc 36000000 		.4byte	.LVL114
 4920 0700 74000000 		.4byte	.LFE11
 4921 0704 0200     		.2byte	0x2
 4922 0706 31       		.byte	0x31
 4923 0707 9F       		.byte	0x9f
 4924 0708 00000000 		.4byte	0
 4925 070c 00000000 		.4byte	0
 4926              	.LLST41:
 4927 0710 20000000 		.4byte	.LVL111
 4928 0714 24000000 		.4byte	.LVL112
 4929 0718 1200     		.2byte	0x12
 4930 071a 73       		.byte	0x73
 4931 071b 00       		.sleb128 0
 4932 071c 08       		.byte	0x8
 4933 071d FF       		.byte	0xff
 4934 071e 1A       		.byte	0x1a
 4935 071f 33       		.byte	0x33
 4936 0720 24       		.byte	0x24
 4937 0721 71       		.byte	0x71
 4938 0722 00       		.sleb128 0
 4939 0723 22       		.byte	0x22
ARM GAS  C:\Users\mgronber\AppData\Local\Temp\ccohOFIJ.s 			page 115


 4940 0724 23       		.byte	0x23
 4941 0725 0C       		.uleb128 0xc
 4942 0726 06       		.byte	0x6
 4943 0727 23       		.byte	0x23
 4944 0728 04       		.uleb128 0x4
 4945 0729 06       		.byte	0x6
 4946 072a 23       		.byte	0x23
 4947 072b 04       		.uleb128 0x4
 4948 072c 00000000 		.4byte	0
 4949 0730 00000000 		.4byte	0
 4950              	.LLST42:
 4951 0734 1C000000 		.4byte	.LVL110
 4952 0738 24000000 		.4byte	.LVL112
 4953 073c 0100     		.2byte	0x1
 4954 073e 53       		.byte	0x53
 4955 073f 36000000 		.4byte	.LVL114
 4956 0743 38000000 		.4byte	.LVL115
 4957 0747 0100     		.2byte	0x1
 4958 0749 53       		.byte	0x53
 4959 074a 00000000 		.4byte	0
 4960 074e 00000000 		.4byte	0
 4961              	.LLST43:
 4962 0752 1C000000 		.4byte	.LVL110
 4963 0756 20000000 		.4byte	.LVL111
 4964 075a 0300     		.2byte	0x3
 4965 075c 71       		.byte	0x71
 4966 075d 08       		.sleb128 8
 4967 075e 9F       		.byte	0x9f
 4968 075f 20000000 		.4byte	.LVL111
 4969 0763 24000000 		.4byte	.LVL112
 4970 0767 0C00     		.2byte	0xc
 4971 0769 73       		.byte	0x73
 4972 076a 00       		.sleb128 0
 4973 076b 08       		.byte	0x8
 4974 076c FF       		.byte	0xff
 4975 076d 1A       		.byte	0x1a
 4976 076e 33       		.byte	0x33
 4977 076f 24       		.byte	0x24
 4978 0770 71       		.byte	0x71
 4979 0771 00       		.sleb128 0
 4980 0772 22       		.byte	0x22
 4981 0773 23       		.byte	0x23
 4982 0774 0C       		.uleb128 0xc
 4983 0775 36000000 		.4byte	.LVL114
 4984 0779 3C000000 		.4byte	.LVL116
 4985 077d 0200     		.2byte	0x2
 4986 077f 30       		.byte	0x30
 4987 0780 9F       		.byte	0x9f
 4988 0781 00000000 		.4byte	0
 4989 0785 00000000 		.4byte	0
 4990              	.LLST44:
 4991 0789 00000000 		.4byte	.LVL117
 4992 078d 36000000 		.4byte	.LVL118
 4993 0791 0200     		.2byte	0x2
 4994 0793 30       		.byte	0x30
 4995 0794 9F       		.byte	0x9f
 4996 0795 3A000000 		.4byte	.LVL119
ARM GAS  C:\Users\mgronber\AppData\Local\Temp\ccohOFIJ.s 			page 116


 4997 0799 64030000 		.4byte	.LFE0
 4998 079d 0200     		.2byte	0x2
 4999 079f 30       		.byte	0x30
 5000 07a0 9F       		.byte	0x9f
 5001 07a1 00000000 		.4byte	0
 5002 07a5 00000000 		.4byte	0
 5003              	.LLST45:
 5004 07a9 82000000 		.4byte	.LVL121
 5005 07ad A0000000 		.4byte	.LVL122
 5006 07b1 0100     		.2byte	0x1
 5007 07b3 54       		.byte	0x54
 5008 07b4 1E020000 		.4byte	.LVL147
 5009 07b8 24020000 		.4byte	.LVL149
 5010 07bc 0100     		.2byte	0x1
 5011 07be 54       		.byte	0x54
 5012 07bf 00000000 		.4byte	0
 5013 07c3 00000000 		.4byte	0
 5014              	.LLST46:
 5015 07c7 0E010000 		.4byte	.LVL127
 5016 07cb 16010000 		.4byte	.LVL128
 5017 07cf 0100     		.2byte	0x1
 5018 07d1 53       		.byte	0x53
 5019 07d2 00000000 		.4byte	0
 5020 07d6 00000000 		.4byte	0
 5021              	.LLST47:
 5022 07da 00000000 		.4byte	.LVL117
 5023 07de 36000000 		.4byte	.LVL118
 5024 07e2 0200     		.2byte	0x2
 5025 07e4 30       		.byte	0x30
 5026 07e5 9F       		.byte	0x9f
 5027 07e6 3A000000 		.4byte	.LVL119
 5028 07ea 80010000 		.4byte	.LVL136
 5029 07ee 0200     		.2byte	0x2
 5030 07f0 30       		.byte	0x30
 5031 07f1 9F       		.byte	0x9f
 5032 07f2 90010000 		.4byte	.LVL137
 5033 07f6 A2010000 		.4byte	.LVL142
 5034 07fa 0100     		.2byte	0x1
 5035 07fc 52       		.byte	0x52
 5036 07fd B0010000 		.4byte	.LVL143
 5037 0801 D3010000 		.4byte	.LVL145-1
 5038 0805 0100     		.2byte	0x1
 5039 0807 52       		.byte	0x52
 5040 0808 D4010000 		.4byte	.LVL145
 5041 080c 44030000 		.4byte	.LVL160
 5042 0810 0200     		.2byte	0x2
 5043 0812 30       		.byte	0x30
 5044 0813 9F       		.byte	0x9f
 5045 0814 44030000 		.4byte	.LVL160
 5046 0818 49030000 		.4byte	.LVL161-1
 5047 081c 0100     		.2byte	0x1
 5048 081e 52       		.byte	0x52
 5049 081f 00000000 		.4byte	0
 5050 0823 00000000 		.4byte	0
 5051              	.LLST48:
 5052 0827 80010000 		.4byte	.LVL136
 5053 082b 90010000 		.4byte	.LVL137
ARM GAS  C:\Users\mgronber\AppData\Local\Temp\ccohOFIJ.s 			page 117


 5054 082f 0200     		.2byte	0x2
 5055 0831 30       		.byte	0x30
 5056 0832 9F       		.byte	0x9f
 5057 0833 90010000 		.4byte	.LVL137
 5058 0837 98010000 		.4byte	.LVL140
 5059 083b 0100     		.2byte	0x1
 5060 083d 53       		.byte	0x53
 5061 083e A0010000 		.4byte	.LVL141
 5062 0842 A2010000 		.4byte	.LVL142
 5063 0846 0100     		.2byte	0x1
 5064 0848 53       		.byte	0x53
 5065 0849 00000000 		.4byte	0
 5066 084d 00000000 		.4byte	0
 5067              	.LLST49:
 5068 0851 90010000 		.4byte	.LVL137
 5069 0855 94010000 		.4byte	.LVL138
 5070 0859 0100     		.2byte	0x1
 5071 085b 50       		.byte	0x50
 5072 085c 96010000 		.4byte	.LVL139
 5073 0860 A2010000 		.4byte	.LVL142
 5074 0864 0100     		.2byte	0x1
 5075 0866 50       		.byte	0x50
 5076 0867 00000000 		.4byte	0
 5077 086b 00000000 		.4byte	0
 5078              	.LLST50:
 5079 086f 2A010000 		.4byte	.LVL130
 5080 0873 2E010000 		.4byte	.LVL131
 5081 0877 0C00     		.2byte	0xc
 5082 0879 73       		.byte	0x73
 5083 087a 00       		.sleb128 0
 5084 087b 08       		.byte	0x8
 5085 087c FF       		.byte	0xff
 5086 087d 1A       		.byte	0x1a
 5087 087e 33       		.byte	0x33
 5088 087f 24       		.byte	0x24
 5089 0880 71       		.byte	0x71
 5090 0881 00       		.sleb128 0
 5091 0882 22       		.byte	0x22
 5092 0883 23       		.byte	0x23
 5093 0884 0C       		.uleb128 0xc
 5094 0885 2E010000 		.4byte	.LVL131
 5095 0889 34010000 		.4byte	.LVL132
 5096 088d 0C00     		.2byte	0xc
 5097 088f 72       		.byte	0x72
 5098 0890 7F       		.sleb128 -1
 5099 0891 08       		.byte	0x8
 5100 0892 FF       		.byte	0xff
 5101 0893 1A       		.byte	0x1a
 5102 0894 33       		.byte	0x33
 5103 0895 24       		.byte	0x24
 5104 0896 71       		.byte	0x71
 5105 0897 00       		.sleb128 0
 5106 0898 22       		.byte	0x22
 5107 0899 23       		.byte	0x23
 5108 089a 0C       		.uleb128 0xc
 5109 089b 00000000 		.4byte	0
 5110 089f 00000000 		.4byte	0
ARM GAS  C:\Users\mgronber\AppData\Local\Temp\ccohOFIJ.s 			page 118


 5111              	.LLST51:
 5112 08a3 24010000 		.4byte	.LVL129
 5113 08a7 2E010000 		.4byte	.LVL131
 5114 08ab 0100     		.2byte	0x1
 5115 08ad 53       		.byte	0x53
 5116 08ae 2E010000 		.4byte	.LVL131
 5117 08b2 34010000 		.4byte	.LVL132
 5118 08b6 0300     		.2byte	0x3
 5119 08b8 72       		.byte	0x72
 5120 08b9 7F       		.sleb128 -1
 5121 08ba 9F       		.byte	0x9f
 5122 08bb 00000000 		.4byte	0
 5123 08bf 00000000 		.4byte	0
 5124              	.LLST52:
 5125 08c3 24010000 		.4byte	.LVL129
 5126 08c7 2A010000 		.4byte	.LVL130
 5127 08cb 0300     		.2byte	0x3
 5128 08cd 71       		.byte	0x71
 5129 08ce 08       		.sleb128 8
 5130 08cf 9F       		.byte	0x9f
 5131 08d0 2A010000 		.4byte	.LVL130
 5132 08d4 2E010000 		.4byte	.LVL131
 5133 08d8 0C00     		.2byte	0xc
 5134 08da 73       		.byte	0x73
 5135 08db 00       		.sleb128 0
 5136 08dc 08       		.byte	0x8
 5137 08dd FF       		.byte	0xff
 5138 08de 1A       		.byte	0x1a
 5139 08df 33       		.byte	0x33
 5140 08e0 24       		.byte	0x24
 5141 08e1 71       		.byte	0x71
 5142 08e2 00       		.sleb128 0
 5143 08e3 22       		.byte	0x22
 5144 08e4 23       		.byte	0x23
 5145 08e5 0C       		.uleb128 0xc
 5146 08e6 2E010000 		.4byte	.LVL131
 5147 08ea 34010000 		.4byte	.LVL132
 5148 08ee 0C00     		.2byte	0xc
 5149 08f0 72       		.byte	0x72
 5150 08f1 7F       		.sleb128 -1
 5151 08f2 08       		.byte	0x8
 5152 08f3 FF       		.byte	0xff
 5153 08f4 1A       		.byte	0x1a
 5154 08f5 33       		.byte	0x33
 5155 08f6 24       		.byte	0x24
 5156 08f7 71       		.byte	0x71
 5157 08f8 00       		.sleb128 0
 5158 08f9 22       		.byte	0x22
 5159 08fa 23       		.byte	0x23
 5160 08fb 0C       		.uleb128 0xc
 5161 08fc 00000000 		.4byte	0
 5162 0900 00000000 		.4byte	0
 5163              	.LLST53:
 5164 0904 10030000 		.4byte	.LVL155
 5165 0908 22030000 		.4byte	.LVL157
 5166 090c 0100     		.2byte	0x1
 5167 090e 53       		.byte	0x53
ARM GAS  C:\Users\mgronber\AppData\Local\Temp\ccohOFIJ.s 			page 119


 5168 090f 00000000 		.4byte	0
 5169 0913 00000000 		.4byte	0
 5170              	.LLST54:
 5171 0917 16030000 		.4byte	.LVL156
 5172 091b 24030000 		.4byte	.LVL158
 5173 091f 0300     		.2byte	0x3
 5174 0921 72       		.byte	0x72
 5175 0922 08       		.sleb128 8
 5176 0923 9F       		.byte	0x9f
 5177 0924 24030000 		.4byte	.LVL158
 5178 0928 2C030000 		.4byte	.LVL159
 5179 092c 0100     		.2byte	0x1
 5180 092e 53       		.byte	0x53
 5181 092f 00000000 		.4byte	0
 5182 0933 00000000 		.4byte	0
 5183              		.section	.debug_aranges,"",%progbits
 5184 0000 7C000000 		.4byte	0x7c
 5185 0004 0200     		.2byte	0x2
 5186 0006 00000000 		.4byte	.Ldebug_info0
 5187 000a 04       		.byte	0x4
 5188 000b 00       		.byte	0
 5189 000c 0000     		.2byte	0
 5190 000e 0000     		.2byte	0
 5191 0010 00000000 		.4byte	.LFB12
 5192 0014 BC010000 		.4byte	.LFE12-.LFB12
 5193 0018 00000000 		.4byte	.LFB1
 5194 001c 54000000 		.4byte	.LFE1-.LFB1
 5195 0020 00000000 		.4byte	.LFB2
 5196 0024 98000000 		.4byte	.LFE2-.LFB2
 5197 0028 00000000 		.4byte	.LFB4
 5198 002c 10000000 		.4byte	.LFE4-.LFB4
 5199 0030 00000000 		.4byte	.LFB5
 5200 0034 24000000 		.4byte	.LFE5-.LFB5
 5201 0038 00000000 		.4byte	.LFB6
 5202 003c 18000000 		.4byte	.LFE6-.LFB6
 5203 0040 00000000 		.4byte	.LFB7
 5204 0044 44000000 		.4byte	.LFE7-.LFB7
 5205 0048 00000000 		.4byte	.LFB3
 5206 004c E4010000 		.4byte	.LFE3-.LFB3
 5207 0050 00000000 		.4byte	.LFB8
 5208 0054 4C000000 		.4byte	.LFE8-.LFB8
 5209 0058 00000000 		.4byte	.LFB9
 5210 005c 58000000 		.4byte	.LFE9-.LFB9
 5211 0060 00000000 		.4byte	.LFB10
 5212 0064 84000000 		.4byte	.LFE10-.LFB10
 5213 0068 00000000 		.4byte	.LFB11
 5214 006c 74000000 		.4byte	.LFE11-.LFB11
 5215 0070 00000000 		.4byte	.LFB0
 5216 0074 64030000 		.4byte	.LFE0-.LFB0
 5217 0078 00000000 		.4byte	0
 5218 007c 00000000 		.4byte	0
 5219              		.section	.debug_ranges,"",%progbits
 5220              	.Ldebug_ranges0:
 5221 0000 02000000 		.4byte	.LBB22
 5222 0004 04000000 		.4byte	.LBE22
 5223 0008 06000000 		.4byte	.LBB27
 5224 000c 0A000000 		.4byte	.LBE27
ARM GAS  C:\Users\mgronber\AppData\Local\Temp\ccohOFIJ.s 			page 120


 5225 0010 0C000000 		.4byte	.LBB28
 5226 0014 12000000 		.4byte	.LBE28
 5227 0018 14000000 		.4byte	.LBB29
 5228 001c 22000000 		.4byte	.LBE29
 5229 0020 00000000 		.4byte	0
 5230 0024 00000000 		.4byte	0
 5231 0028 02000000 		.4byte	.LBB30
 5232 002c 04000000 		.4byte	.LBE30
 5233 0030 06000000 		.4byte	.LBB35
 5234 0034 0A000000 		.4byte	.LBE35
 5235 0038 0C000000 		.4byte	.LBB36
 5236 003c 12000000 		.4byte	.LBE36
 5237 0040 14000000 		.4byte	.LBB37
 5238 0044 20000000 		.4byte	.LBE37
 5239 0048 00000000 		.4byte	0
 5240 004c 00000000 		.4byte	0
 5241 0050 44000000 		.4byte	.LBB42
 5242 0054 74010000 		.4byte	.LBE42
 5243 0058 78010000 		.4byte	.LBB53
 5244 005c E4010000 		.4byte	.LBE53
 5245 0060 00000000 		.4byte	0
 5246 0064 00000000 		.4byte	0
 5247 0068 44000000 		.4byte	.LBB44
 5248 006c 46000000 		.4byte	.LBE44
 5249 0070 48000000 		.4byte	.LBB49
 5250 0074 4C000000 		.4byte	.LBE49
 5251 0078 4E000000 		.4byte	.LBB50
 5252 007c 54000000 		.4byte	.LBE50
 5253 0080 56000000 		.4byte	.LBB51
 5254 0084 66000000 		.4byte	.LBE51
 5255 0088 00000000 		.4byte	0
 5256 008c 00000000 		.4byte	0
 5257 0090 04000000 		.4byte	.LBB54
 5258 0094 06000000 		.4byte	.LBE54
 5259 0098 08000000 		.4byte	.LBB61
 5260 009c 0A000000 		.4byte	.LBE61
 5261 00a0 0C000000 		.4byte	.LBB62
 5262 00a4 0E000000 		.4byte	.LBE62
 5263 00a8 10000000 		.4byte	.LBB63
 5264 00ac 16000000 		.4byte	.LBE63
 5265 00b0 18000000 		.4byte	.LBB64
 5266 00b4 1A000000 		.4byte	.LBE64
 5267 00b8 1C000000 		.4byte	.LBB65
 5268 00bc 24000000 		.4byte	.LBE65
 5269 00c0 00000000 		.4byte	0
 5270 00c4 00000000 		.4byte	0
 5271 00c8 84000000 		.4byte	.LBB66
 5272 00cc 86000000 		.4byte	.LBE66
 5273 00d0 8A000000 		.4byte	.LBB70
 5274 00d4 92000000 		.4byte	.LBE70
 5275 00d8 1E020000 		.4byte	.LBB77
 5276 00dc 24020000 		.4byte	.LBE77
 5277 00e0 00000000 		.4byte	0
 5278 00e4 00000000 		.4byte	0
 5279 00e8 14010000 		.4byte	.LBB71
 5280 00ec 1A010000 		.4byte	.LBE71
 5281 00f0 1C010000 		.4byte	.LBB75
ARM GAS  C:\Users\mgronber\AppData\Local\Temp\ccohOFIJ.s 			page 121


 5282 00f4 22010000 		.4byte	.LBE75
 5283 00f8 24010000 		.4byte	.LBB76
 5284 00fc 2E010000 		.4byte	.LBE76
 5285 0100 00000000 		.4byte	0
 5286 0104 00000000 		.4byte	0
 5287 0108 06030000 		.4byte	.LBB80
 5288 010c 08030000 		.4byte	.LBE80
 5289 0110 0A030000 		.4byte	.LBB84
 5290 0114 0E030000 		.4byte	.LBE84
 5291 0118 10030000 		.4byte	.LBB85
 5292 011c 24030000 		.4byte	.LBE85
 5293 0120 00000000 		.4byte	0
 5294 0124 00000000 		.4byte	0
 5295 0128 00000000 		.4byte	.LFB12
 5296 012c BC010000 		.4byte	.LFE12
 5297 0130 00000000 		.4byte	.LFB1
 5298 0134 54000000 		.4byte	.LFE1
 5299 0138 00000000 		.4byte	.LFB2
 5300 013c 98000000 		.4byte	.LFE2
 5301 0140 00000000 		.4byte	.LFB4
 5302 0144 10000000 		.4byte	.LFE4
 5303 0148 00000000 		.4byte	.LFB5
 5304 014c 24000000 		.4byte	.LFE5
 5305 0150 00000000 		.4byte	.LFB6
 5306 0154 18000000 		.4byte	.LFE6
 5307 0158 00000000 		.4byte	.LFB7
 5308 015c 44000000 		.4byte	.LFE7
 5309 0160 00000000 		.4byte	.LFB3
 5310 0164 E4010000 		.4byte	.LFE3
 5311 0168 00000000 		.4byte	.LFB8
 5312 016c 4C000000 		.4byte	.LFE8
 5313 0170 00000000 		.4byte	.LFB9
 5314 0174 58000000 		.4byte	.LFE9
 5315 0178 00000000 		.4byte	.LFB10
 5316 017c 84000000 		.4byte	.LFE10
 5317 0180 00000000 		.4byte	.LFB11
 5318 0184 74000000 		.4byte	.LFE11
 5319 0188 00000000 		.4byte	.LFB0
 5320 018c 64030000 		.4byte	.LFE0
 5321 0190 00000000 		.4byte	0
 5322 0194 00000000 		.4byte	0
 5323              		.section	.debug_line,"",%progbits
 5324              	.Ldebug_line0:
 5325 0000 6C050000 		.section	.debug_str,"MS",%progbits,1
 5325      02006800 
 5325      00000201 
 5325      FB0E0D00 
 5325      01010101 
 5326              	.LASF36:
 5327 0000 70537461 		.ascii	"pStatusBlock\000"
 5327      74757342 
 5327      6C6F636B 
 5327      00
 5328              	.LASF44:
 5329 000d 5553425F 		.ascii	"USB_Config\000"
 5329      436F6E66 
 5329      696700
ARM GAS  C:\Users\mgronber\AppData\Local\Temp\ccohOFIJ.s 			page 122


 5330              	.LASF34:
 5331 0018 636F756E 		.ascii	"count\000"
 5331      7400
 5332              	.LASF10:
 5333 001e 75696E74 		.ascii	"uint16\000"
 5333      313600
 5334              	.LASF70:
 5335 0025 5553425F 		.ascii	"USB_configuration\000"
 5335      636F6E66 
 5335      69677572 
 5335      6174696F 
 5335      6E00
 5336              	.LASF57:
 5337 0037 5553425F 		.ascii	"USB_SetEndpointHalt\000"
 5337      53657445 
 5337      6E64706F 
 5337      696E7448 
 5337      616C7400 
 5338              	.LASF45:
 5339 004b 636F6E66 		.ascii	"confIndex\000"
 5339      496E6465 
 5339      7800
 5340              	.LASF7:
 5341 0055 6C6F6E67 		.ascii	"long long unsigned int\000"
 5341      206C6F6E 
 5341      6720756E 
 5341      7369676E 
 5341      65642069 
 5342              	.LASF21:
 5343 006c 61646472 		.ascii	"addr\000"
 5343      00
 5344              	.LASF63:
 5345 0071 696E7465 		.ascii	"interfaceNumber\000"
 5345      72666163 
 5345      654E756D 
 5345      62657200 
 5346              	.LASF79:
 5347 0081 5553425F 		.ascii	"USB_interfaceSetting\000"
 5347      696E7465 
 5347      72666163 
 5347      65536574 
 5347      74696E67 
 5348              	.LASF26:
 5349 0096 545F5553 		.ascii	"T_USB_EP_CTL_BLOCK\000"
 5349      425F4550 
 5349      5F43544C 
 5349      5F424C4F 
 5349      434B00
 5350              	.LASF56:
 5351 00a9 5553425F 		.ascii	"USB_GetInterfaceClassTablePtr\000"
 5351      47657449 
 5351      6E746572 
 5351      66616365 
 5351      436C6173 
 5352              	.LASF6:
 5353 00c7 6C6F6E67 		.ascii	"long long int\000"
 5353      206C6F6E 
ARM GAS  C:\Users\mgronber\AppData\Local\Temp\ccohOFIJ.s 			page 123


 5353      6720696E 
 5353      7400
 5354              	.LASF0:
 5355 00d5 7369676E 		.ascii	"signed char\000"
 5355      65642063 
 5355      68617200 
 5356              	.LASF94:
 5357 00e1 433A5C55 		.ascii	"C:\\Users\\mgronber\\Desktop\\Hummingbird\\Hummingb"
 5357      73657273 
 5357      5C6D6772 
 5357      6F6E6265 
 5357      725C4465 
 5358 010f 69726428 		.ascii	"ird(Continuous Output).cydsn\000"
 5358      436F6E74 
 5358      696E756F 
 5358      7573204F 
 5358      75747075 
 5359              	.LASF46:
 5360 012c 636C6561 		.ascii	"clearAltSetting\000"
 5360      72416C74 
 5360      53657474 
 5360      696E6700 
 5361              	.LASF74:
 5362 013c 5553425F 		.ascii	"USB_TABLE\000"
 5362      5441424C 
 5362      4500
 5363              	.LASF39:
 5364 0146 545F5553 		.ascii	"T_USB_LUT\000"
 5364      425F4C55 
 5364      5400
 5365              	.LASF4:
 5366 0150 6C6F6E67 		.ascii	"long int\000"
 5366      20696E74 
 5366      00
 5367              	.LASF76:
 5368 0159 5553425F 		.ascii	"USB_MSOS_DESCRIPTOR\000"
 5368      4D534F53 
 5368      5F444553 
 5368      43524950 
 5368      544F5200 
 5369              	.LASF9:
 5370 016d 75696E74 		.ascii	"uint8\000"
 5370      3800
 5371              	.LASF20:
 5372 0173 6570546F 		.ascii	"epToggle\000"
 5372      67676C65 
 5372      00
 5373              	.LASF12:
 5374 017c 646F7562 		.ascii	"double\000"
 5374      6C6500
 5375              	.LASF80:
 5376 0183 5553425F 		.ascii	"USB_interfaceSetting_last\000"
 5376      696E7465 
 5376      72666163 
 5376      65536574 
 5376      74696E67 
 5377              	.LASF35:
ARM GAS  C:\Users\mgronber\AppData\Local\Temp\ccohOFIJ.s 			page 124


 5378 019d 70446174 		.ascii	"pData\000"
 5378      6100
 5379              	.LASF60:
 5380 01a3 5553425F 		.ascii	"USB_ValidateAlternateSetting\000"
 5380      56616C69 
 5380      64617465 
 5380      416C7465 
 5380      726E6174 
 5381              	.LASF22:
 5382 01c0 65704D6F 		.ascii	"epMode\000"
 5382      646500
 5383              	.LASF42:
 5384 01c7 65705479 		.ascii	"epType\000"
 5384      706500
 5385              	.LASF50:
 5386 01ce 5553425F 		.ascii	"USB_ReadDieID\000"
 5386      52656164 
 5386      44696549 
 5386      4400
 5387              	.LASF49:
 5388 01dc 76616C75 		.ascii	"value\000"
 5388      6500
 5389              	.LASF33:
 5390 01e2 545F5553 		.ascii	"T_USB_XFER_STATUS_BLOCK\000"
 5390      425F5846 
 5390      45525F53 
 5390      54415455 
 5390      535F424C 
 5391              	.LASF8:
 5392 01fa 756E7369 		.ascii	"unsigned int\000"
 5392      676E6564 
 5392      20696E74 
 5392      00
 5393              	.LASF73:
 5394 0207 5553425F 		.ascii	"USB_DEVICE0_DESCR\000"
 5394      44455649 
 5394      4345305F 
 5394      44455343 
 5394      5200
 5395              	.LASF5:
 5396 0219 6C6F6E67 		.ascii	"long unsigned int\000"
 5396      20756E73 
 5396      69676E65 
 5396      6420696E 
 5396      7400
 5397              	.LASF3:
 5398 022b 73686F72 		.ascii	"short unsigned int\000"
 5398      7420756E 
 5398      7369676E 
 5398      65642069 
 5398      6E7400
 5399              	.LASF47:
 5400 023e 70446573 		.ascii	"pDescr\000"
 5400      637200
 5401              	.LASF95:
 5402 0245 5553425F 		.ascii	"USB_GetConfigTablePtr\000"
 5402      47657443 
ARM GAS  C:\Users\mgronber\AppData\Local\Temp\ccohOFIJ.s 			page 125


 5402      6F6E6669 
 5402      67546162 
 5402      6C655074 
 5403              	.LASF52:
 5404 025b 70496E74 		.ascii	"pInterfaceClass\000"
 5404      65726661 
 5404      6365436C 
 5404      61737300 
 5405              	.LASF25:
 5406 026b 696E7465 		.ascii	"interface\000"
 5406      72666163 
 5406      6500
 5407              	.LASF54:
 5408 0275 5553425F 		.ascii	"USB_TerminateEP\000"
 5408      5465726D 
 5408      696E6174 
 5408      65455000 
 5409              	.LASF92:
 5410 0285 474E5520 		.ascii	"GNU C 4.9.3 20150303 (release) [ARM/embedded-4_9-br"
 5410      4320342E 
 5410      392E3320 
 5410      32303135 
 5410      30333033 
 5411 02b8 616E6368 		.ascii	"anch revision 221220] -mcpu=cortex-m3 -mthumb -g -O"
 5411      20726576 
 5411      6973696F 
 5411      6E203232 
 5411      31323230 
 5412 02eb 32202D66 		.ascii	"2 -ffunction-sections -ffat-lto-objects\000"
 5412      66756E63 
 5412      74696F6E 
 5412      2D736563 
 5412      74696F6E 
 5413              	.LASF19:
 5414 0313 68774570 		.ascii	"hwEpState\000"
 5414      53746174 
 5414      6500
 5415              	.LASF67:
 5416 031d 64657363 		.ascii	"descrLength\000"
 5416      724C656E 
 5416      67746800 
 5417              	.LASF16:
 5418 0329 73697A65 		.ascii	"sizetype\000"
 5418      74797065 
 5418      00
 5419              	.LASF62:
 5420 0332 5553425F 		.ascii	"USB_HandleStandardRqst\000"
 5420      48616E64 
 5420      6C655374 
 5420      616E6461 
 5420      72645271 
 5421              	.LASF85:
 5422 0349 5553425F 		.ascii	"USB_currentTD\000"
 5422      63757272 
 5422      656E7454 
 5422      4400
 5423              	.LASF37:
ARM GAS  C:\Users\mgronber\AppData\Local\Temp\ccohOFIJ.s 			page 126


 5424 0357 545F5553 		.ascii	"T_USB_TD\000"
 5424      425F5444 
 5424      00
 5425              	.LASF88:
 5426 0360 5553425F 		.ascii	"USB_GetDeviceTablePtr\000"
 5426      47657444 
 5426      65766963 
 5426      65546162 
 5426      6C655074 
 5427              	.LASF38:
 5428 0376 705F6C69 		.ascii	"p_list\000"
 5428      737400
 5429              	.LASF48:
 5430 037d 62756666 		.ascii	"buffCount\000"
 5430      436F756E 
 5430      7400
 5431              	.LASF17:
 5432 0387 61747472 		.ascii	"attrib\000"
 5432      696200
 5433              	.LASF69:
 5434 038e 5553425F 		.ascii	"USB_device\000"
 5434      64657669 
 5434      636500
 5435              	.LASF51:
 5436 0399 5553425F 		.ascii	"USB_ConfigReg\000"
 5436      436F6E66 
 5436      69675265 
 5436      6700
 5437              	.LASF53:
 5438 03a7 63757272 		.ascii	"currentInterfacesNum\000"
 5438      656E7449 
 5438      6E746572 
 5438      66616365 
 5438      734E756D 
 5439              	.LASF84:
 5440 03bc 5553425F 		.ascii	"USB_EP\000"
 5440      455000
 5441              	.LASF59:
 5442 03c3 5553425F 		.ascii	"USB_ClearEndpointHalt\000"
 5442      436C6561 
 5442      72456E64 
 5442      706F696E 
 5442      7448616C 
 5443              	.LASF11:
 5444 03d9 666C6F61 		.ascii	"float\000"
 5444      7400
 5445              	.LASF83:
 5446 03df 5553425F 		.ascii	"USB_interfaceClass\000"
 5446      696E7465 
 5446      72666163 
 5446      65436C61 
 5446      737300
 5447              	.LASF18:
 5448 03f2 61706945 		.ascii	"apiEpState\000"
 5448      70537461 
 5448      746500
 5449              	.LASF64:
ARM GAS  C:\Users\mgronber\AppData\Local\Temp\ccohOFIJ.s 			page 127


 5450 03fd 636F6E66 		.ascii	"configurationN\000"
 5450      69677572 
 5450      6174696F 
 5450      6E4E00
 5451              	.LASF81:
 5452 040c 5553425F 		.ascii	"USB_deviceAddress\000"
 5452      64657669 
 5452      63654164 
 5452      64726573 
 5452      7300
 5453              	.LASF65:
 5454 041e 70537472 		.ascii	"pStr\000"
 5454      00
 5455              	.LASF15:
 5456 0423 72656738 		.ascii	"reg8\000"
 5456      00
 5457              	.LASF55:
 5458 0428 64657363 		.ascii	"descr\000"
 5458      7200
 5459              	.LASF1:
 5460 042e 756E7369 		.ascii	"unsigned char\000"
 5460      676E6564 
 5460      20636861 
 5460      7200
 5461              	.LASF77:
 5462 043c 5553425F 		.ascii	"USB_idSerialNumberStringDescriptor\000"
 5462      69645365 
 5462      7269616C 
 5462      4E756D62 
 5462      65725374 
 5463              	.LASF2:
 5464 045f 73686F72 		.ascii	"short int\000"
 5464      7420696E 
 5464      7400
 5465              	.LASF30:
 5466 0469 545F5553 		.ascii	"T_USB_EP_SETTINGS_BLOCK\000"
 5466      425F4550 
 5466      5F534554 
 5466      54494E47 
 5466      535F424C 
 5467              	.LASF91:
 5468 0481 5553425F 		.ascii	"USB_DispatchClassRqst\000"
 5468      44697370 
 5468      61746368 
 5468      436C6173 
 5468      73527173 
 5469              	.LASF93:
 5470 0497 47656E65 		.ascii	"Generated_Source\\PSoC5\\USB_std.c\000"
 5470      72617465 
 5470      645F536F 
 5470      75726365 
 5470      5C50536F 
 5471              	.LASF75:
 5472 04b8 5553425F 		.ascii	"USB_STRING_DESCRIPTORS\000"
 5472      53545249 
 5472      4E475F44 
 5472      45534352 
ARM GAS  C:\Users\mgronber\AppData\Local\Temp\ccohOFIJ.s 			page 128


 5472      4950544F 
 5473              	.LASF28:
 5474 04cf 61747472 		.ascii	"attributes\000"
 5474      69627574 
 5474      657300
 5475              	.LASF82:
 5476 04da 5553425F 		.ascii	"USB_interfaceStatus\000"
 5476      696E7465 
 5476      72666163 
 5476      65537461 
 5476      74757300 
 5477              	.LASF27:
 5478 04ee 616C7453 		.ascii	"altSetting\000"
 5478      65747469 
 5478      6E6700
 5479              	.LASF14:
 5480 04f9 63686172 		.ascii	"char\000"
 5480      00
 5481              	.LASF68:
 5482 04fe 5553425F 		.ascii	"USB_tBuffer\000"
 5482      74427566 
 5482      66657200 
 5483              	.LASF24:
 5484 050a 62756666 		.ascii	"bufferSize\000"
 5484      65725369 
 5484      7A6500
 5485              	.LASF58:
 5486 0515 72657175 		.ascii	"requestHandled\000"
 5486      65737448 
 5486      616E646C 
 5486      656400
 5487              	.LASF72:
 5488 0524 5553425F 		.ascii	"USB_deviceStatus\000"
 5488      64657669 
 5488      63655374 
 5488      61747573 
 5488      00
 5489              	.LASF23:
 5490 0535 62756666 		.ascii	"buffOffset\000"
 5490      4F666673 
 5490      657400
 5491              	.LASF13:
 5492 0540 63686172 		.ascii	"char8\000"
 5492      3800
 5493              	.LASF87:
 5494 0546 5553425F 		.ascii	"USB_midi_out_ep\000"
 5494      6D696469 
 5494      5F6F7574 
 5494      5F657000 
 5495              	.LASF32:
 5496 0556 6C656E67 		.ascii	"length\000"
 5496      746800
 5497              	.LASF66:
 5498 055d 6E537472 		.ascii	"nStr\000"
 5498      00
 5499              	.LASF41:
 5500 0562 6375725F 		.ascii	"cur_ep\000"
ARM GAS  C:\Users\mgronber\AppData\Local\Temp\ccohOFIJ.s 			page 129


 5500      657000
 5501              	.LASF31:
 5502 0569 73746174 		.ascii	"status\000"
 5502      757300
 5503              	.LASF90:
 5504 0570 5553425F 		.ascii	"USB_InitControlRead\000"
 5504      496E6974 
 5504      436F6E74 
 5504      726F6C52 
 5504      65616400 
 5505              	.LASF40:
 5506 0584 70546D70 		.ascii	"pTmp\000"
 5506      00
 5507              	.LASF61:
 5508 0589 696E7465 		.ascii	"interfaceNum\000"
 5508      72666163 
 5508      654E756D 
 5508      00
 5509              	.LASF86:
 5510 0596 5553425F 		.ascii	"USB_midi_in_ep\000"
 5510      6D696469 
 5510      5F696E5F 
 5510      657000
 5511              	.LASF29:
 5512 05a5 624D6973 		.ascii	"bMisc\000"
 5512      6300
 5513              	.LASF89:
 5514 05ab 5553425F 		.ascii	"USB_InitNoDataControlTransfer\000"
 5514      496E6974 
 5514      4E6F4461 
 5514      7461436F 
 5514      6E74726F 
 5515              	.LASF71:
 5516 05c9 5553425F 		.ascii	"USB_configurationChanged\000"
 5516      636F6E66 
 5516      69677572 
 5516      6174696F 
 5516      6E436861 
 5517              	.LASF78:
 5518 05e2 5553425F 		.ascii	"USB_interfaceNumber\000"
 5518      696E7465 
 5518      72666163 
 5518      654E756D 
 5518      62657200 
 5519              	.LASF43:
 5520 05f6 5553425F 		.ascii	"USB_ConfigAltChanged\000"
 5520      436F6E66 
 5520      6967416C 
 5520      74436861 
 5520      6E676564 
 5521              		.ident	"GCC: (GNU Tools for ARM Embedded Processors) 4.9.3 20150303 (release) [ARM/embedded-4_9-br
