ARM GAS  C:\Users\anjmarqu\AppData\Local\Temp\ccm2MHx4.s 			page 1


   1              		.syntax unified
   2              		.cpu cortex-m3
   3              		.fpu softvfp
   4              		.eabi_attribute 20, 1
   5              		.eabi_attribute 21, 1
   6              		.eabi_attribute 23, 3
   7              		.eabi_attribute 24, 1
   8              		.eabi_attribute 25, 1
   9              		.eabi_attribute 26, 1
  10              		.eabi_attribute 30, 2
  11              		.eabi_attribute 34, 1
  12              		.eabi_attribute 18, 4
  13              		.thumb
  14              		.file	"USB_drv.c"
  15              		.text
  16              	.Ltext0:
  17              		.cfi_sections	.debug_frame
  18              		.section	.text.USB_HandleSetup,"ax",%progbits
  19              		.align	2
  20              		.global	USB_HandleSetup
  21              		.thumb
  22              		.thumb_func
  23              		.type	USB_HandleSetup, %function
  24              	USB_HandleSetup:
  25              	.LFB1:
  26              		.file 1 "Generated_Source\\PSoC5\\USB_drv.c"
   1:Generated_Source\PSoC5/USB_drv.c **** /*******************************************************************************
   2:Generated_Source\PSoC5/USB_drv.c **** * File Name: USB_drv.c
   3:Generated_Source\PSoC5/USB_drv.c **** * Version 2.70
   4:Generated_Source\PSoC5/USB_drv.c **** *
   5:Generated_Source\PSoC5/USB_drv.c **** * Description:
   6:Generated_Source\PSoC5/USB_drv.c **** *  Endpoint 0 Driver for the USBFS Component.
   7:Generated_Source\PSoC5/USB_drv.c **** *
   8:Generated_Source\PSoC5/USB_drv.c **** * Note:
   9:Generated_Source\PSoC5/USB_drv.c **** *
  10:Generated_Source\PSoC5/USB_drv.c **** ********************************************************************************
  11:Generated_Source\PSoC5/USB_drv.c **** * Copyright 2008-2013, Cypress Semiconductor Corporation.  All rights reserved.
  12:Generated_Source\PSoC5/USB_drv.c **** * You may use this file only in accordance with the license, terms, conditions,
  13:Generated_Source\PSoC5/USB_drv.c **** * disclaimers, and limitations in the end user license agreement accompanying
  14:Generated_Source\PSoC5/USB_drv.c **** * the software package with which this file was provided.
  15:Generated_Source\PSoC5/USB_drv.c **** *******************************************************************************/
  16:Generated_Source\PSoC5/USB_drv.c **** 
  17:Generated_Source\PSoC5/USB_drv.c **** #include "USB.h"
  18:Generated_Source\PSoC5/USB_drv.c **** #include "USB_pvt.h"
  19:Generated_Source\PSoC5/USB_drv.c **** 
  20:Generated_Source\PSoC5/USB_drv.c **** 
  21:Generated_Source\PSoC5/USB_drv.c **** /***************************************
  22:Generated_Source\PSoC5/USB_drv.c **** * Global data allocation
  23:Generated_Source\PSoC5/USB_drv.c **** ***************************************/
  24:Generated_Source\PSoC5/USB_drv.c **** 
  25:Generated_Source\PSoC5/USB_drv.c **** volatile T_USB_EP_CTL_BLOCK USB_EP[USB_MAX_EP];
  26:Generated_Source\PSoC5/USB_drv.c **** volatile uint8 USB_configuration;
  27:Generated_Source\PSoC5/USB_drv.c **** volatile uint8 USB_interfaceNumber;
  28:Generated_Source\PSoC5/USB_drv.c **** volatile uint8 USB_configurationChanged;
  29:Generated_Source\PSoC5/USB_drv.c **** volatile uint8 USB_deviceAddress;
  30:Generated_Source\PSoC5/USB_drv.c **** volatile uint8 USB_deviceStatus;
  31:Generated_Source\PSoC5/USB_drv.c **** volatile uint8 USB_interfaceSetting[USB_MAX_INTERFACES_NUMBER];
ARM GAS  C:\Users\anjmarqu\AppData\Local\Temp\ccm2MHx4.s 			page 2


  32:Generated_Source\PSoC5/USB_drv.c **** volatile uint8 USB_interfaceSetting_last[USB_MAX_INTERFACES_NUMBER];
  33:Generated_Source\PSoC5/USB_drv.c **** volatile uint8 USB_interfaceStatus[USB_MAX_INTERFACES_NUMBER];
  34:Generated_Source\PSoC5/USB_drv.c **** volatile uint8 USB_device;
  35:Generated_Source\PSoC5/USB_drv.c **** const uint8 CYCODE *USB_interfaceClass;
  36:Generated_Source\PSoC5/USB_drv.c **** 
  37:Generated_Source\PSoC5/USB_drv.c **** 
  38:Generated_Source\PSoC5/USB_drv.c **** /***************************************
  39:Generated_Source\PSoC5/USB_drv.c **** * Local data allocation
  40:Generated_Source\PSoC5/USB_drv.c **** ***************************************/
  41:Generated_Source\PSoC5/USB_drv.c **** 
  42:Generated_Source\PSoC5/USB_drv.c **** volatile uint8 USB_ep0Toggle;
  43:Generated_Source\PSoC5/USB_drv.c **** volatile uint8 USB_lastPacketSize;
  44:Generated_Source\PSoC5/USB_drv.c **** volatile uint8 USB_transferState;
  45:Generated_Source\PSoC5/USB_drv.c **** volatile T_USB_TD USB_currentTD;
  46:Generated_Source\PSoC5/USB_drv.c **** volatile uint8 USB_ep0Mode;
  47:Generated_Source\PSoC5/USB_drv.c **** volatile uint8 USB_ep0Count;
  48:Generated_Source\PSoC5/USB_drv.c **** volatile uint16 USB_transferByteCount;
  49:Generated_Source\PSoC5/USB_drv.c **** 
  50:Generated_Source\PSoC5/USB_drv.c **** 
  51:Generated_Source\PSoC5/USB_drv.c **** /*******************************************************************************
  52:Generated_Source\PSoC5/USB_drv.c **** * Function Name: USB_ep_0_Interrupt
  53:Generated_Source\PSoC5/USB_drv.c **** ********************************************************************************
  54:Generated_Source\PSoC5/USB_drv.c **** *
  55:Generated_Source\PSoC5/USB_drv.c **** * Summary:
  56:Generated_Source\PSoC5/USB_drv.c **** *  This Interrupt Service Routine handles Endpoint 0 (Control Pipe) traffic.
  57:Generated_Source\PSoC5/USB_drv.c **** *  It dispatches setup requests and handles the data and status stages.
  58:Generated_Source\PSoC5/USB_drv.c **** *
  59:Generated_Source\PSoC5/USB_drv.c **** * Parameters:
  60:Generated_Source\PSoC5/USB_drv.c **** *  None.
  61:Generated_Source\PSoC5/USB_drv.c **** *
  62:Generated_Source\PSoC5/USB_drv.c **** * Return:
  63:Generated_Source\PSoC5/USB_drv.c **** *  None.
  64:Generated_Source\PSoC5/USB_drv.c **** *
  65:Generated_Source\PSoC5/USB_drv.c **** *******************************************************************************/
  66:Generated_Source\PSoC5/USB_drv.c **** CY_ISR(USB_EP_0_ISR)
  67:Generated_Source\PSoC5/USB_drv.c **** {
  68:Generated_Source\PSoC5/USB_drv.c ****     uint8 bRegTemp;
  69:Generated_Source\PSoC5/USB_drv.c ****     uint8 modifyReg;
  70:Generated_Source\PSoC5/USB_drv.c **** 
  71:Generated_Source\PSoC5/USB_drv.c **** 
  72:Generated_Source\PSoC5/USB_drv.c ****     bRegTemp = CY_GET_REG8(USB_EP0_CR_PTR);
  73:Generated_Source\PSoC5/USB_drv.c ****     if ((bRegTemp & USB_MODE_ACKD) != 0u)
  74:Generated_Source\PSoC5/USB_drv.c ****     {
  75:Generated_Source\PSoC5/USB_drv.c ****         modifyReg = 1u;
  76:Generated_Source\PSoC5/USB_drv.c ****         if ((bRegTemp & USB_MODE_SETUP_RCVD) != 0u)
  77:Generated_Source\PSoC5/USB_drv.c ****         {
  78:Generated_Source\PSoC5/USB_drv.c ****             if((bRegTemp & USB_MODE_MASK) != USB_MODE_NAK_IN_OUT)
  79:Generated_Source\PSoC5/USB_drv.c ****             {
  80:Generated_Source\PSoC5/USB_drv.c ****                 modifyReg = 0u;                                     /* When mode not NAK_IN_OUT => 
  81:Generated_Source\PSoC5/USB_drv.c ****             }
  82:Generated_Source\PSoC5/USB_drv.c ****             else
  83:Generated_Source\PSoC5/USB_drv.c ****             {
  84:Generated_Source\PSoC5/USB_drv.c ****                 USB_HandleSetup();
  85:Generated_Source\PSoC5/USB_drv.c ****                 if((USB_ep0Mode & USB_MODE_SETUP_RCVD) != 0u)
  86:Generated_Source\PSoC5/USB_drv.c ****                 {
  87:Generated_Source\PSoC5/USB_drv.c ****                     modifyReg = 0u;                         /* if SETUP bit set -> exit without mod
  88:Generated_Source\PSoC5/USB_drv.c ****                 }
ARM GAS  C:\Users\anjmarqu\AppData\Local\Temp\ccm2MHx4.s 			page 3


  89:Generated_Source\PSoC5/USB_drv.c **** 
  90:Generated_Source\PSoC5/USB_drv.c ****             }
  91:Generated_Source\PSoC5/USB_drv.c ****         }
  92:Generated_Source\PSoC5/USB_drv.c ****         else if ((bRegTemp & USB_MODE_IN_RCVD) != 0u)
  93:Generated_Source\PSoC5/USB_drv.c ****         {
  94:Generated_Source\PSoC5/USB_drv.c ****             USB_HandleIN();
  95:Generated_Source\PSoC5/USB_drv.c ****         }
  96:Generated_Source\PSoC5/USB_drv.c ****         else if ((bRegTemp & USB_MODE_OUT_RCVD) != 0u)
  97:Generated_Source\PSoC5/USB_drv.c ****         {
  98:Generated_Source\PSoC5/USB_drv.c ****             USB_HandleOUT();
  99:Generated_Source\PSoC5/USB_drv.c ****         }
 100:Generated_Source\PSoC5/USB_drv.c ****         else
 101:Generated_Source\PSoC5/USB_drv.c ****         {
 102:Generated_Source\PSoC5/USB_drv.c ****             modifyReg = 0u;
 103:Generated_Source\PSoC5/USB_drv.c ****         }
 104:Generated_Source\PSoC5/USB_drv.c ****         if(modifyReg != 0u)
 105:Generated_Source\PSoC5/USB_drv.c ****         {
 106:Generated_Source\PSoC5/USB_drv.c ****             bRegTemp = CY_GET_REG8(USB_EP0_CR_PTR);    /* unlock registers */
 107:Generated_Source\PSoC5/USB_drv.c ****             if((bRegTemp & USB_MODE_SETUP_RCVD) == 0u)  /* Check if SETUP bit is not set, otherwise
 108:Generated_Source\PSoC5/USB_drv.c ****             {
 109:Generated_Source\PSoC5/USB_drv.c ****                 /* Update the count register */
 110:Generated_Source\PSoC5/USB_drv.c ****                 bRegTemp = USB_ep0Toggle | USB_ep0Count;
 111:Generated_Source\PSoC5/USB_drv.c ****                 CY_SET_REG8(USB_EP0_CNT_PTR, bRegTemp);
 112:Generated_Source\PSoC5/USB_drv.c ****                 if(bRegTemp == CY_GET_REG8(USB_EP0_CNT_PTR))   /* continue if writing was successfu
 113:Generated_Source\PSoC5/USB_drv.c ****                 {
 114:Generated_Source\PSoC5/USB_drv.c ****                     do
 115:Generated_Source\PSoC5/USB_drv.c ****                     {
 116:Generated_Source\PSoC5/USB_drv.c ****                         modifyReg = USB_ep0Mode;       /* Init temporary variable */
 117:Generated_Source\PSoC5/USB_drv.c ****                         /* Unlock registers */
 118:Generated_Source\PSoC5/USB_drv.c ****                         bRegTemp = CY_GET_REG8(USB_EP0_CR_PTR) & USB_MODE_SETUP_RCVD;
 119:Generated_Source\PSoC5/USB_drv.c ****                         if(bRegTemp == 0u)                          /* Check if SETUP bit is not se
 120:Generated_Source\PSoC5/USB_drv.c ****                         {
 121:Generated_Source\PSoC5/USB_drv.c ****                             /* Set the Mode Register  */
 122:Generated_Source\PSoC5/USB_drv.c ****                             CY_SET_REG8(USB_EP0_CR_PTR, USB_ep0Mode);
 123:Generated_Source\PSoC5/USB_drv.c ****                             /* Writing check */
 124:Generated_Source\PSoC5/USB_drv.c ****                             modifyReg = CY_GET_REG8(USB_EP0_CR_PTR) & USB_MODE_MASK;
 125:Generated_Source\PSoC5/USB_drv.c ****                         }
 126:Generated_Source\PSoC5/USB_drv.c ****                     }while(modifyReg != USB_ep0Mode);  /* Repeat if writing was not successful */
 127:Generated_Source\PSoC5/USB_drv.c ****                 }
 128:Generated_Source\PSoC5/USB_drv.c ****             }
 129:Generated_Source\PSoC5/USB_drv.c ****         }
 130:Generated_Source\PSoC5/USB_drv.c ****     }
 131:Generated_Source\PSoC5/USB_drv.c **** }
 132:Generated_Source\PSoC5/USB_drv.c **** 
 133:Generated_Source\PSoC5/USB_drv.c **** 
 134:Generated_Source\PSoC5/USB_drv.c **** /*******************************************************************************
 135:Generated_Source\PSoC5/USB_drv.c **** * Function Name: USB_HandleSetup
 136:Generated_Source\PSoC5/USB_drv.c **** ********************************************************************************
 137:Generated_Source\PSoC5/USB_drv.c **** *
 138:Generated_Source\PSoC5/USB_drv.c **** * Summary:
 139:Generated_Source\PSoC5/USB_drv.c **** *  This Routine dispatches requests for the four USB request types
 140:Generated_Source\PSoC5/USB_drv.c **** *
 141:Generated_Source\PSoC5/USB_drv.c **** * Parameters:
 142:Generated_Source\PSoC5/USB_drv.c **** *  None.
 143:Generated_Source\PSoC5/USB_drv.c **** *
 144:Generated_Source\PSoC5/USB_drv.c **** * Return:
 145:Generated_Source\PSoC5/USB_drv.c **** *  None.
ARM GAS  C:\Users\anjmarqu\AppData\Local\Temp\ccm2MHx4.s 			page 4


 146:Generated_Source\PSoC5/USB_drv.c **** *
 147:Generated_Source\PSoC5/USB_drv.c **** * Reentrant:
 148:Generated_Source\PSoC5/USB_drv.c **** *  No.
 149:Generated_Source\PSoC5/USB_drv.c **** *
 150:Generated_Source\PSoC5/USB_drv.c **** *******************************************************************************/
 151:Generated_Source\PSoC5/USB_drv.c **** void USB_HandleSetup(void) 
 152:Generated_Source\PSoC5/USB_drv.c **** {
  27              		.loc 1 152 0
  28              		.cfi_startproc
  29              		@ args = 0, pretend = 0, frame = 0
  30              		@ frame_needed = 0, uses_anonymous_args = 0
  31 0000 08B5     		push	{r3, lr}
  32              		.cfi_def_cfa_offset 8
  33              		.cfi_offset 3, -8
  34              		.cfi_offset 14, -4
 153:Generated_Source\PSoC5/USB_drv.c ****     uint8 requestHandled;
 154:Generated_Source\PSoC5/USB_drv.c **** 
 155:Generated_Source\PSoC5/USB_drv.c ****     requestHandled = CY_GET_REG8(USB_EP0_CR_PTR);      /* unlock registers */
  35              		.loc 1 155 0
  36 0002 194B     		ldr	r3, .L18
  37 0004 1A78     		ldrb	r2, [r3]	@ zero_extendqisi2
  38 0006 D2B2     		uxtb	r2, r2
  39              	.LVL0:
 156:Generated_Source\PSoC5/USB_drv.c ****     CY_SET_REG8(USB_EP0_CR_PTR, requestHandled);       /* clear setup bit */
  40              		.loc 1 156 0
  41 0008 1A70     		strb	r2, [r3]
 157:Generated_Source\PSoC5/USB_drv.c ****     requestHandled = CY_GET_REG8(USB_EP0_CR_PTR);      /* reread register */
  42              		.loc 1 157 0
  43 000a 1B78     		ldrb	r3, [r3]	@ zero_extendqisi2
  44 000c DBB2     		uxtb	r3, r3
  45              	.LVL1:
 158:Generated_Source\PSoC5/USB_drv.c ****     if((requestHandled & USB_MODE_SETUP_RCVD) != 0u)
  46              		.loc 1 158 0
  47 000e 1A06     		lsls	r2, r3, #24
  48 0010 27D4     		bmi	.L16
  49              	.LVL2:
  50              	.LBB32:
  51              	.LBB33:
 159:Generated_Source\PSoC5/USB_drv.c ****     {
 160:Generated_Source\PSoC5/USB_drv.c ****         USB_ep0Mode = requestHandled;        /* if SETUP bit set -> exit without modifying the mode
 161:Generated_Source\PSoC5/USB_drv.c ****     }
 162:Generated_Source\PSoC5/USB_drv.c ****     else
 163:Generated_Source\PSoC5/USB_drv.c ****     {
 164:Generated_Source\PSoC5/USB_drv.c ****         /* In case the previous transfer did not complete, close it out */
 165:Generated_Source\PSoC5/USB_drv.c ****         USB_UpdateStatusBlock(USB_XFER_PREMATURE);
 166:Generated_Source\PSoC5/USB_drv.c **** 
 167:Generated_Source\PSoC5/USB_drv.c ****         switch (CY_GET_REG8(USB_bmRequestType) & USB_RQST_TYPE_MASK)
 168:Generated_Source\PSoC5/USB_drv.c ****         {
 169:Generated_Source\PSoC5/USB_drv.c ****             case USB_RQST_TYPE_STD:
 170:Generated_Source\PSoC5/USB_drv.c ****                 requestHandled = USB_HandleStandardRqst();
 171:Generated_Source\PSoC5/USB_drv.c ****                 break;
 172:Generated_Source\PSoC5/USB_drv.c ****             case USB_RQST_TYPE_CLS:
 173:Generated_Source\PSoC5/USB_drv.c ****                 requestHandled = USB_DispatchClassRqst();
 174:Generated_Source\PSoC5/USB_drv.c ****                 break;
 175:Generated_Source\PSoC5/USB_drv.c ****             case USB_RQST_TYPE_VND:
 176:Generated_Source\PSoC5/USB_drv.c ****                 requestHandled = USB_HandleVendorRqst();
 177:Generated_Source\PSoC5/USB_drv.c ****                 break;
ARM GAS  C:\Users\anjmarqu\AppData\Local\Temp\ccm2MHx4.s 			page 5


 178:Generated_Source\PSoC5/USB_drv.c ****             default:
 179:Generated_Source\PSoC5/USB_drv.c ****                 requestHandled = USB_FALSE;
 180:Generated_Source\PSoC5/USB_drv.c ****                 break;
 181:Generated_Source\PSoC5/USB_drv.c ****         }
 182:Generated_Source\PSoC5/USB_drv.c ****         if (requestHandled == USB_FALSE)
 183:Generated_Source\PSoC5/USB_drv.c ****         {
 184:Generated_Source\PSoC5/USB_drv.c ****             USB_ep0Mode = USB_MODE_STALL_IN_OUT;
 185:Generated_Source\PSoC5/USB_drv.c ****         }
 186:Generated_Source\PSoC5/USB_drv.c ****     }
 187:Generated_Source\PSoC5/USB_drv.c **** }
 188:Generated_Source\PSoC5/USB_drv.c **** 
 189:Generated_Source\PSoC5/USB_drv.c **** 
 190:Generated_Source\PSoC5/USB_drv.c **** /*******************************************************************************
 191:Generated_Source\PSoC5/USB_drv.c **** * Function Name: USB_HandleIN
 192:Generated_Source\PSoC5/USB_drv.c **** ********************************************************************************
 193:Generated_Source\PSoC5/USB_drv.c **** *
 194:Generated_Source\PSoC5/USB_drv.c **** * Summary:
 195:Generated_Source\PSoC5/USB_drv.c **** *  This routine handles EP0 IN transfers.
 196:Generated_Source\PSoC5/USB_drv.c **** *
 197:Generated_Source\PSoC5/USB_drv.c **** * Parameters:
 198:Generated_Source\PSoC5/USB_drv.c **** *  None.
 199:Generated_Source\PSoC5/USB_drv.c **** *
 200:Generated_Source\PSoC5/USB_drv.c **** * Return:
 201:Generated_Source\PSoC5/USB_drv.c **** *  None.
 202:Generated_Source\PSoC5/USB_drv.c **** *
 203:Generated_Source\PSoC5/USB_drv.c **** * Reentrant:
 204:Generated_Source\PSoC5/USB_drv.c **** *  No.
 205:Generated_Source\PSoC5/USB_drv.c **** *
 206:Generated_Source\PSoC5/USB_drv.c **** *******************************************************************************/
 207:Generated_Source\PSoC5/USB_drv.c **** void USB_HandleIN(void) 
 208:Generated_Source\PSoC5/USB_drv.c **** {
 209:Generated_Source\PSoC5/USB_drv.c ****     switch (USB_transferState)
 210:Generated_Source\PSoC5/USB_drv.c ****     {
 211:Generated_Source\PSoC5/USB_drv.c ****         case USB_TRANS_STATE_IDLE:
 212:Generated_Source\PSoC5/USB_drv.c ****             break;
 213:Generated_Source\PSoC5/USB_drv.c ****         case USB_TRANS_STATE_CONTROL_READ:
 214:Generated_Source\PSoC5/USB_drv.c ****             USB_ControlReadDataStage();
 215:Generated_Source\PSoC5/USB_drv.c ****             break;
 216:Generated_Source\PSoC5/USB_drv.c ****         case USB_TRANS_STATE_CONTROL_WRITE:
 217:Generated_Source\PSoC5/USB_drv.c ****             USB_ControlWriteStatusStage();
 218:Generated_Source\PSoC5/USB_drv.c ****             break;
 219:Generated_Source\PSoC5/USB_drv.c ****         case USB_TRANS_STATE_NO_DATA_CONTROL:
 220:Generated_Source\PSoC5/USB_drv.c ****             USB_NoDataControlStatusStage();
 221:Generated_Source\PSoC5/USB_drv.c ****             break;
 222:Generated_Source\PSoC5/USB_drv.c ****         default:    /* there are no more states */
 223:Generated_Source\PSoC5/USB_drv.c ****             break;
 224:Generated_Source\PSoC5/USB_drv.c ****     }
 225:Generated_Source\PSoC5/USB_drv.c **** }
 226:Generated_Source\PSoC5/USB_drv.c **** 
 227:Generated_Source\PSoC5/USB_drv.c **** 
 228:Generated_Source\PSoC5/USB_drv.c **** /*******************************************************************************
 229:Generated_Source\PSoC5/USB_drv.c **** * Function Name: USB_HandleOUT
 230:Generated_Source\PSoC5/USB_drv.c **** ********************************************************************************
 231:Generated_Source\PSoC5/USB_drv.c **** *
 232:Generated_Source\PSoC5/USB_drv.c **** * Summary:
 233:Generated_Source\PSoC5/USB_drv.c **** *  This routine handles EP0 OUT transfers.
 234:Generated_Source\PSoC5/USB_drv.c **** *
ARM GAS  C:\Users\anjmarqu\AppData\Local\Temp\ccm2MHx4.s 			page 6


 235:Generated_Source\PSoC5/USB_drv.c **** * Parameters:
 236:Generated_Source\PSoC5/USB_drv.c **** *  None.
 237:Generated_Source\PSoC5/USB_drv.c **** *
 238:Generated_Source\PSoC5/USB_drv.c **** * Return:
 239:Generated_Source\PSoC5/USB_drv.c **** *  None.
 240:Generated_Source\PSoC5/USB_drv.c **** *
 241:Generated_Source\PSoC5/USB_drv.c **** * Reentrant:
 242:Generated_Source\PSoC5/USB_drv.c **** *  No.
 243:Generated_Source\PSoC5/USB_drv.c **** *
 244:Generated_Source\PSoC5/USB_drv.c **** *******************************************************************************/
 245:Generated_Source\PSoC5/USB_drv.c **** void USB_HandleOUT(void) 
 246:Generated_Source\PSoC5/USB_drv.c **** {
 247:Generated_Source\PSoC5/USB_drv.c ****     switch (USB_transferState)
 248:Generated_Source\PSoC5/USB_drv.c ****     {
 249:Generated_Source\PSoC5/USB_drv.c ****         case USB_TRANS_STATE_IDLE:
 250:Generated_Source\PSoC5/USB_drv.c ****             break;
 251:Generated_Source\PSoC5/USB_drv.c ****         case USB_TRANS_STATE_CONTROL_READ:
 252:Generated_Source\PSoC5/USB_drv.c ****             USB_ControlReadStatusStage();
 253:Generated_Source\PSoC5/USB_drv.c ****             break;
 254:Generated_Source\PSoC5/USB_drv.c ****         case USB_TRANS_STATE_CONTROL_WRITE:
 255:Generated_Source\PSoC5/USB_drv.c ****             USB_ControlWriteDataStage();
 256:Generated_Source\PSoC5/USB_drv.c ****             break;
 257:Generated_Source\PSoC5/USB_drv.c ****         case USB_TRANS_STATE_NO_DATA_CONTROL:
 258:Generated_Source\PSoC5/USB_drv.c ****             /* Update the completion block */
 259:Generated_Source\PSoC5/USB_drv.c ****             USB_UpdateStatusBlock(USB_XFER_ERROR);
 260:Generated_Source\PSoC5/USB_drv.c ****             /* We expect no more data, so stall INs and OUTs */
 261:Generated_Source\PSoC5/USB_drv.c ****             USB_ep0Mode = USB_MODE_STALL_IN_OUT;
 262:Generated_Source\PSoC5/USB_drv.c ****             break;
 263:Generated_Source\PSoC5/USB_drv.c ****         default:    /* There are no more states */
 264:Generated_Source\PSoC5/USB_drv.c ****             break;
 265:Generated_Source\PSoC5/USB_drv.c ****     }
 266:Generated_Source\PSoC5/USB_drv.c **** }
 267:Generated_Source\PSoC5/USB_drv.c **** 
 268:Generated_Source\PSoC5/USB_drv.c **** 
 269:Generated_Source\PSoC5/USB_drv.c **** /*******************************************************************************
 270:Generated_Source\PSoC5/USB_drv.c **** * Function Name: USB_LoadEP0
 271:Generated_Source\PSoC5/USB_drv.c **** ********************************************************************************
 272:Generated_Source\PSoC5/USB_drv.c **** *
 273:Generated_Source\PSoC5/USB_drv.c **** * Summary:
 274:Generated_Source\PSoC5/USB_drv.c **** *  This routine loads the EP0 data registers for OUT transfers.  It uses the
 275:Generated_Source\PSoC5/USB_drv.c **** *  currentTD (previously initialized by the _InitControlWrite function and
 276:Generated_Source\PSoC5/USB_drv.c **** *  updated for each OUT transfer, and the bLastPacketSize) to determine how
 277:Generated_Source\PSoC5/USB_drv.c **** *  many uint8s to transfer on the current OUT.
 278:Generated_Source\PSoC5/USB_drv.c **** *
 279:Generated_Source\PSoC5/USB_drv.c **** *  If the number of uint8s remaining is zero and the last transfer was full,
 280:Generated_Source\PSoC5/USB_drv.c **** *  we need to send a zero length packet.  Otherwise we send the minimum
 281:Generated_Source\PSoC5/USB_drv.c **** *  of the control endpoint size (8) or remaining number of uint8s for the
 282:Generated_Source\PSoC5/USB_drv.c **** *  transaction.
 283:Generated_Source\PSoC5/USB_drv.c **** *
 284:Generated_Source\PSoC5/USB_drv.c **** * Parameters:
 285:Generated_Source\PSoC5/USB_drv.c **** *  None.
 286:Generated_Source\PSoC5/USB_drv.c **** *
 287:Generated_Source\PSoC5/USB_drv.c **** * Return:
 288:Generated_Source\PSoC5/USB_drv.c **** *  None.
 289:Generated_Source\PSoC5/USB_drv.c **** *
 290:Generated_Source\PSoC5/USB_drv.c **** * Global variables:
 291:Generated_Source\PSoC5/USB_drv.c **** *  USB_transferByteCount - Update the transfer byte count from the
ARM GAS  C:\Users\anjmarqu\AppData\Local\Temp\ccm2MHx4.s 			page 7


 292:Generated_Source\PSoC5/USB_drv.c **** *     last transaction.
 293:Generated_Source\PSoC5/USB_drv.c **** *  USB_ep0Count - counts the data loaded to the SIE memory in
 294:Generated_Source\PSoC5/USB_drv.c **** *     current packet.
 295:Generated_Source\PSoC5/USB_drv.c **** *  USB_lastPacketSize - remembers the USBFS_ep0Count value for the
 296:Generated_Source\PSoC5/USB_drv.c **** *     next packet.
 297:Generated_Source\PSoC5/USB_drv.c **** *  USB_transferByteCount - sum of the previous bytes transferred
 298:Generated_Source\PSoC5/USB_drv.c **** *     on previous packets(sum of USBFS_lastPacketSize)
 299:Generated_Source\PSoC5/USB_drv.c **** *  USB_ep0Toggle - inverted
 300:Generated_Source\PSoC5/USB_drv.c **** *  USB_ep0Mode  - prepare for mode register content.
 301:Generated_Source\PSoC5/USB_drv.c **** *  USB_transferState - set to TRANS_STATE_CONTROL_READ
 302:Generated_Source\PSoC5/USB_drv.c **** *
 303:Generated_Source\PSoC5/USB_drv.c **** * Reentrant:
 304:Generated_Source\PSoC5/USB_drv.c **** *  No.
 305:Generated_Source\PSoC5/USB_drv.c **** *
 306:Generated_Source\PSoC5/USB_drv.c **** *******************************************************************************/
 307:Generated_Source\PSoC5/USB_drv.c **** void USB_LoadEP0(void) 
 308:Generated_Source\PSoC5/USB_drv.c **** {
 309:Generated_Source\PSoC5/USB_drv.c ****     uint8 ep0Count = 0u;
 310:Generated_Source\PSoC5/USB_drv.c **** 
 311:Generated_Source\PSoC5/USB_drv.c ****     /* Update the transfer byte count from the last transaction */
 312:Generated_Source\PSoC5/USB_drv.c ****     USB_transferByteCount += USB_lastPacketSize;
 313:Generated_Source\PSoC5/USB_drv.c ****     /* Now load the next transaction */
 314:Generated_Source\PSoC5/USB_drv.c ****     while ((USB_currentTD.count > 0u) && (ep0Count < 8u))
 315:Generated_Source\PSoC5/USB_drv.c ****     {
 316:Generated_Source\PSoC5/USB_drv.c ****         CY_SET_REG8((reg8 *)(USB_EP0_DR0_IND + ep0Count), *USB_currentTD.pData);
 317:Generated_Source\PSoC5/USB_drv.c ****         USB_currentTD.pData = &USB_currentTD.pData[1u];
 318:Generated_Source\PSoC5/USB_drv.c ****         ep0Count++;
 319:Generated_Source\PSoC5/USB_drv.c ****         USB_currentTD.count--;
 320:Generated_Source\PSoC5/USB_drv.c ****     }
 321:Generated_Source\PSoC5/USB_drv.c ****     /* Support zero-length packet*/
 322:Generated_Source\PSoC5/USB_drv.c ****     if( (USB_lastPacketSize == 8u) || (ep0Count > 0u) )
 323:Generated_Source\PSoC5/USB_drv.c ****     {
 324:Generated_Source\PSoC5/USB_drv.c ****         /* Update the data toggle */
 325:Generated_Source\PSoC5/USB_drv.c ****         USB_ep0Toggle ^= USB_EP0_CNT_DATA_TOGGLE;
 326:Generated_Source\PSoC5/USB_drv.c ****         /* Set the Mode Register  */
 327:Generated_Source\PSoC5/USB_drv.c ****         USB_ep0Mode = USB_MODE_ACK_IN_STATUS_OUT;
 328:Generated_Source\PSoC5/USB_drv.c ****         /* Update the state (or stay the same) */
 329:Generated_Source\PSoC5/USB_drv.c ****         USB_transferState = USB_TRANS_STATE_CONTROL_READ;
 330:Generated_Source\PSoC5/USB_drv.c ****     }
 331:Generated_Source\PSoC5/USB_drv.c ****     else
 332:Generated_Source\PSoC5/USB_drv.c ****     {
 333:Generated_Source\PSoC5/USB_drv.c ****         /* Expect Status Stage Out */
 334:Generated_Source\PSoC5/USB_drv.c ****         USB_ep0Mode = USB_MODE_STATUS_OUT_ONLY;
 335:Generated_Source\PSoC5/USB_drv.c ****         /* Update the state (or stay the same) */
 336:Generated_Source\PSoC5/USB_drv.c ****         USB_transferState = USB_TRANS_STATE_CONTROL_READ;
 337:Generated_Source\PSoC5/USB_drv.c ****     }
 338:Generated_Source\PSoC5/USB_drv.c **** 
 339:Generated_Source\PSoC5/USB_drv.c ****     /* Save the packet size for next time */
 340:Generated_Source\PSoC5/USB_drv.c ****     USB_lastPacketSize = ep0Count;
 341:Generated_Source\PSoC5/USB_drv.c ****     USB_ep0Count = ep0Count;
 342:Generated_Source\PSoC5/USB_drv.c **** }
 343:Generated_Source\PSoC5/USB_drv.c **** 
 344:Generated_Source\PSoC5/USB_drv.c **** 
 345:Generated_Source\PSoC5/USB_drv.c **** /*******************************************************************************
 346:Generated_Source\PSoC5/USB_drv.c **** * Function Name: USB_InitControlRead
 347:Generated_Source\PSoC5/USB_drv.c **** ********************************************************************************
 348:Generated_Source\PSoC5/USB_drv.c **** *
ARM GAS  C:\Users\anjmarqu\AppData\Local\Temp\ccm2MHx4.s 			page 8


 349:Generated_Source\PSoC5/USB_drv.c **** * Summary:
 350:Generated_Source\PSoC5/USB_drv.c **** *  Initialize a control read transaction, usable to send data to the host.
 351:Generated_Source\PSoC5/USB_drv.c **** *  The following global variables should be initialized before this function
 352:Generated_Source\PSoC5/USB_drv.c **** *  called. To send zero length packet use InitZeroLengthControlTransfer
 353:Generated_Source\PSoC5/USB_drv.c **** *  function.
 354:Generated_Source\PSoC5/USB_drv.c **** *
 355:Generated_Source\PSoC5/USB_drv.c **** * Parameters:
 356:Generated_Source\PSoC5/USB_drv.c **** *  None.
 357:Generated_Source\PSoC5/USB_drv.c **** *
 358:Generated_Source\PSoC5/USB_drv.c **** * Return:
 359:Generated_Source\PSoC5/USB_drv.c **** *  requestHandled state.
 360:Generated_Source\PSoC5/USB_drv.c **** *
 361:Generated_Source\PSoC5/USB_drv.c **** * Global variables:
 362:Generated_Source\PSoC5/USB_drv.c **** *  USB_currentTD.count - counts of data to be sent.
 363:Generated_Source\PSoC5/USB_drv.c **** *  USB_currentTD.pData - data pointer.
 364:Generated_Source\PSoC5/USB_drv.c **** *
 365:Generated_Source\PSoC5/USB_drv.c **** * Reentrant:
 366:Generated_Source\PSoC5/USB_drv.c **** *  No.
 367:Generated_Source\PSoC5/USB_drv.c **** *
 368:Generated_Source\PSoC5/USB_drv.c **** *******************************************************************************/
 369:Generated_Source\PSoC5/USB_drv.c **** uint8 USB_InitControlRead(void) 
 370:Generated_Source\PSoC5/USB_drv.c **** {
 371:Generated_Source\PSoC5/USB_drv.c ****     uint16 xferCount;
 372:Generated_Source\PSoC5/USB_drv.c ****     if(USB_currentTD.count == 0u)
 373:Generated_Source\PSoC5/USB_drv.c ****     {
 374:Generated_Source\PSoC5/USB_drv.c ****         (void) USB_InitZeroLengthControlTransfer();
 375:Generated_Source\PSoC5/USB_drv.c ****     }
 376:Generated_Source\PSoC5/USB_drv.c ****     else
 377:Generated_Source\PSoC5/USB_drv.c ****     {
 378:Generated_Source\PSoC5/USB_drv.c ****         /* Set up the state machine */
 379:Generated_Source\PSoC5/USB_drv.c ****         USB_transferState = USB_TRANS_STATE_CONTROL_READ;
 380:Generated_Source\PSoC5/USB_drv.c ****         /* Set the toggle, it gets updated in LoadEP */
 381:Generated_Source\PSoC5/USB_drv.c ****         USB_ep0Toggle = 0u;
 382:Generated_Source\PSoC5/USB_drv.c ****         /* Initialize the Status Block */
 383:Generated_Source\PSoC5/USB_drv.c ****         USB_InitializeStatusBlock();
 384:Generated_Source\PSoC5/USB_drv.c ****         xferCount = (((uint16)CY_GET_REG8(USB_lengthHi) << 8u) | (CY_GET_REG8(USB_lengthLo)));
 385:Generated_Source\PSoC5/USB_drv.c **** 
 386:Generated_Source\PSoC5/USB_drv.c ****         if (USB_currentTD.count > xferCount)
 387:Generated_Source\PSoC5/USB_drv.c ****         {
 388:Generated_Source\PSoC5/USB_drv.c ****             USB_currentTD.count = xferCount;
 389:Generated_Source\PSoC5/USB_drv.c ****         }
 390:Generated_Source\PSoC5/USB_drv.c ****         USB_LoadEP0();
 391:Generated_Source\PSoC5/USB_drv.c ****     }
 392:Generated_Source\PSoC5/USB_drv.c **** 
 393:Generated_Source\PSoC5/USB_drv.c ****     return(USB_TRUE);
 394:Generated_Source\PSoC5/USB_drv.c **** }
 395:Generated_Source\PSoC5/USB_drv.c **** 
 396:Generated_Source\PSoC5/USB_drv.c **** 
 397:Generated_Source\PSoC5/USB_drv.c **** /*******************************************************************************
 398:Generated_Source\PSoC5/USB_drv.c **** * Function Name: USB_InitZeroLengthControlTransfer
 399:Generated_Source\PSoC5/USB_drv.c **** ********************************************************************************
 400:Generated_Source\PSoC5/USB_drv.c **** *
 401:Generated_Source\PSoC5/USB_drv.c **** * Summary:
 402:Generated_Source\PSoC5/USB_drv.c **** *  Initialize a zero length data IN transfer.
 403:Generated_Source\PSoC5/USB_drv.c **** *
 404:Generated_Source\PSoC5/USB_drv.c **** * Parameters:
 405:Generated_Source\PSoC5/USB_drv.c **** *  None.
ARM GAS  C:\Users\anjmarqu\AppData\Local\Temp\ccm2MHx4.s 			page 9


 406:Generated_Source\PSoC5/USB_drv.c **** *
 407:Generated_Source\PSoC5/USB_drv.c **** * Return:
 408:Generated_Source\PSoC5/USB_drv.c **** *  requestHandled state.
 409:Generated_Source\PSoC5/USB_drv.c **** *
 410:Generated_Source\PSoC5/USB_drv.c **** * Global variables:
 411:Generated_Source\PSoC5/USB_drv.c **** *  USB_ep0Toggle - set to EP0_CNT_DATA_TOGGLE
 412:Generated_Source\PSoC5/USB_drv.c **** *  USB_ep0Mode  - prepare for mode register content.
 413:Generated_Source\PSoC5/USB_drv.c **** *  USB_transferState - set to TRANS_STATE_CONTROL_READ
 414:Generated_Source\PSoC5/USB_drv.c **** *  USB_ep0Count - cleared, means the zero-length packet.
 415:Generated_Source\PSoC5/USB_drv.c **** *  USB_lastPacketSize - cleared.
 416:Generated_Source\PSoC5/USB_drv.c **** *
 417:Generated_Source\PSoC5/USB_drv.c **** * Reentrant:
 418:Generated_Source\PSoC5/USB_drv.c **** *  No.
 419:Generated_Source\PSoC5/USB_drv.c **** *
 420:Generated_Source\PSoC5/USB_drv.c **** *******************************************************************************/
 421:Generated_Source\PSoC5/USB_drv.c **** uint8 USB_InitZeroLengthControlTransfer(void)
 422:Generated_Source\PSoC5/USB_drv.c ****                                                 
 423:Generated_Source\PSoC5/USB_drv.c **** {
 424:Generated_Source\PSoC5/USB_drv.c ****     /* Update the state */
 425:Generated_Source\PSoC5/USB_drv.c ****     USB_transferState = USB_TRANS_STATE_CONTROL_READ;
 426:Generated_Source\PSoC5/USB_drv.c ****     /* Set the data toggle */
 427:Generated_Source\PSoC5/USB_drv.c ****     USB_ep0Toggle = USB_EP0_CNT_DATA_TOGGLE;
 428:Generated_Source\PSoC5/USB_drv.c ****     /* Set the Mode Register  */
 429:Generated_Source\PSoC5/USB_drv.c ****     USB_ep0Mode = USB_MODE_ACK_IN_STATUS_OUT;
 430:Generated_Source\PSoC5/USB_drv.c ****     /* Save the packet size for next time */
 431:Generated_Source\PSoC5/USB_drv.c ****     USB_lastPacketSize = 0u;
 432:Generated_Source\PSoC5/USB_drv.c ****     USB_ep0Count = 0u;
 433:Generated_Source\PSoC5/USB_drv.c **** 
 434:Generated_Source\PSoC5/USB_drv.c ****     return(USB_TRUE);
 435:Generated_Source\PSoC5/USB_drv.c **** }
 436:Generated_Source\PSoC5/USB_drv.c **** 
 437:Generated_Source\PSoC5/USB_drv.c **** 
 438:Generated_Source\PSoC5/USB_drv.c **** /*******************************************************************************
 439:Generated_Source\PSoC5/USB_drv.c **** * Function Name: USB_ControlReadDataStage
 440:Generated_Source\PSoC5/USB_drv.c **** ********************************************************************************
 441:Generated_Source\PSoC5/USB_drv.c **** *
 442:Generated_Source\PSoC5/USB_drv.c **** * Summary:
 443:Generated_Source\PSoC5/USB_drv.c **** *  Handle the Data Stage of a control read transfer.
 444:Generated_Source\PSoC5/USB_drv.c **** *
 445:Generated_Source\PSoC5/USB_drv.c **** * Parameters:
 446:Generated_Source\PSoC5/USB_drv.c **** *  None.
 447:Generated_Source\PSoC5/USB_drv.c **** *
 448:Generated_Source\PSoC5/USB_drv.c **** * Return:
 449:Generated_Source\PSoC5/USB_drv.c **** *  None.
 450:Generated_Source\PSoC5/USB_drv.c **** *
 451:Generated_Source\PSoC5/USB_drv.c **** * Reentrant:
 452:Generated_Source\PSoC5/USB_drv.c **** *  No.
 453:Generated_Source\PSoC5/USB_drv.c **** *
 454:Generated_Source\PSoC5/USB_drv.c **** *******************************************************************************/
 455:Generated_Source\PSoC5/USB_drv.c **** void USB_ControlReadDataStage(void) 
 456:Generated_Source\PSoC5/USB_drv.c **** 
 457:Generated_Source\PSoC5/USB_drv.c **** {
 458:Generated_Source\PSoC5/USB_drv.c ****     USB_LoadEP0();
 459:Generated_Source\PSoC5/USB_drv.c **** }
 460:Generated_Source\PSoC5/USB_drv.c **** 
 461:Generated_Source\PSoC5/USB_drv.c **** 
 462:Generated_Source\PSoC5/USB_drv.c **** /*******************************************************************************
ARM GAS  C:\Users\anjmarqu\AppData\Local\Temp\ccm2MHx4.s 			page 10


 463:Generated_Source\PSoC5/USB_drv.c **** * Function Name: USB_ControlReadStatusStage
 464:Generated_Source\PSoC5/USB_drv.c **** ********************************************************************************
 465:Generated_Source\PSoC5/USB_drv.c **** *
 466:Generated_Source\PSoC5/USB_drv.c **** * Summary:
 467:Generated_Source\PSoC5/USB_drv.c **** *  Handle the Status Stage of a control read transfer.
 468:Generated_Source\PSoC5/USB_drv.c **** *
 469:Generated_Source\PSoC5/USB_drv.c **** * Parameters:
 470:Generated_Source\PSoC5/USB_drv.c **** *  None.
 471:Generated_Source\PSoC5/USB_drv.c **** *
 472:Generated_Source\PSoC5/USB_drv.c **** * Return:
 473:Generated_Source\PSoC5/USB_drv.c **** *  None.
 474:Generated_Source\PSoC5/USB_drv.c **** *
 475:Generated_Source\PSoC5/USB_drv.c **** * Global variables:
 476:Generated_Source\PSoC5/USB_drv.c **** *  USB_USBFS_transferByteCount - updated with last packet size.
 477:Generated_Source\PSoC5/USB_drv.c **** *  USB_transferState - set to TRANS_STATE_IDLE.
 478:Generated_Source\PSoC5/USB_drv.c **** *  USB_ep0Mode  - set to MODE_STALL_IN_OUT.
 479:Generated_Source\PSoC5/USB_drv.c **** *
 480:Generated_Source\PSoC5/USB_drv.c **** * Reentrant:
 481:Generated_Source\PSoC5/USB_drv.c **** *  No.
 482:Generated_Source\PSoC5/USB_drv.c **** *
 483:Generated_Source\PSoC5/USB_drv.c **** *******************************************************************************/
 484:Generated_Source\PSoC5/USB_drv.c **** void USB_ControlReadStatusStage(void) 
 485:Generated_Source\PSoC5/USB_drv.c **** {
 486:Generated_Source\PSoC5/USB_drv.c ****     /* Update the transfer byte count */
 487:Generated_Source\PSoC5/USB_drv.c ****     USB_transferByteCount += USB_lastPacketSize;
 488:Generated_Source\PSoC5/USB_drv.c ****     /* Go Idle */
 489:Generated_Source\PSoC5/USB_drv.c ****     USB_transferState = USB_TRANS_STATE_IDLE;
 490:Generated_Source\PSoC5/USB_drv.c ****     /* Update the completion block */
 491:Generated_Source\PSoC5/USB_drv.c ****     USB_UpdateStatusBlock(USB_XFER_STATUS_ACK);
 492:Generated_Source\PSoC5/USB_drv.c ****     /* We expect no more data, so stall INs and OUTs */
 493:Generated_Source\PSoC5/USB_drv.c ****     USB_ep0Mode =  USB_MODE_STALL_IN_OUT;
 494:Generated_Source\PSoC5/USB_drv.c **** }
 495:Generated_Source\PSoC5/USB_drv.c **** 
 496:Generated_Source\PSoC5/USB_drv.c **** 
 497:Generated_Source\PSoC5/USB_drv.c **** /*******************************************************************************
 498:Generated_Source\PSoC5/USB_drv.c **** * Function Name: USB_InitControlWrite
 499:Generated_Source\PSoC5/USB_drv.c **** ********************************************************************************
 500:Generated_Source\PSoC5/USB_drv.c **** *
 501:Generated_Source\PSoC5/USB_drv.c **** * Summary:
 502:Generated_Source\PSoC5/USB_drv.c **** *  Initialize a control write transaction
 503:Generated_Source\PSoC5/USB_drv.c **** *
 504:Generated_Source\PSoC5/USB_drv.c **** * Parameters:
 505:Generated_Source\PSoC5/USB_drv.c **** *  None.
 506:Generated_Source\PSoC5/USB_drv.c **** *
 507:Generated_Source\PSoC5/USB_drv.c **** * Return:
 508:Generated_Source\PSoC5/USB_drv.c **** *  requestHandled state.
 509:Generated_Source\PSoC5/USB_drv.c **** *
 510:Generated_Source\PSoC5/USB_drv.c **** * Global variables:
 511:Generated_Source\PSoC5/USB_drv.c **** *  USB_USBFS_transferState - set to TRANS_STATE_CONTROL_WRITE
 512:Generated_Source\PSoC5/USB_drv.c **** *  USB_ep0Toggle - set to EP0_CNT_DATA_TOGGLE
 513:Generated_Source\PSoC5/USB_drv.c **** *  USB_ep0Mode  - set to MODE_ACK_OUT_STATUS_IN
 514:Generated_Source\PSoC5/USB_drv.c **** *
 515:Generated_Source\PSoC5/USB_drv.c **** * Reentrant:
 516:Generated_Source\PSoC5/USB_drv.c **** *  No.
 517:Generated_Source\PSoC5/USB_drv.c **** *
 518:Generated_Source\PSoC5/USB_drv.c **** *******************************************************************************/
 519:Generated_Source\PSoC5/USB_drv.c **** uint8 USB_InitControlWrite(void) 
ARM GAS  C:\Users\anjmarqu\AppData\Local\Temp\ccm2MHx4.s 			page 11


 520:Generated_Source\PSoC5/USB_drv.c **** {
 521:Generated_Source\PSoC5/USB_drv.c ****     uint16 xferCount;
 522:Generated_Source\PSoC5/USB_drv.c **** 
 523:Generated_Source\PSoC5/USB_drv.c ****     /* Set up the state machine */
 524:Generated_Source\PSoC5/USB_drv.c ****     USB_transferState = USB_TRANS_STATE_CONTROL_WRITE;
 525:Generated_Source\PSoC5/USB_drv.c ****     /* This might not be necessary */
 526:Generated_Source\PSoC5/USB_drv.c ****     USB_ep0Toggle = USB_EP0_CNT_DATA_TOGGLE;
 527:Generated_Source\PSoC5/USB_drv.c ****     /* Initialize the Status Block */
 528:Generated_Source\PSoC5/USB_drv.c ****     USB_InitializeStatusBlock();
 529:Generated_Source\PSoC5/USB_drv.c **** 
 530:Generated_Source\PSoC5/USB_drv.c ****     xferCount = (((uint16)CY_GET_REG8(USB_lengthHi) << 8u) | (CY_GET_REG8(USB_lengthLo)));
 531:Generated_Source\PSoC5/USB_drv.c **** 
 532:Generated_Source\PSoC5/USB_drv.c ****     if (USB_currentTD.count > xferCount)
 533:Generated_Source\PSoC5/USB_drv.c ****     {
 534:Generated_Source\PSoC5/USB_drv.c ****         USB_currentTD.count = xferCount;
 535:Generated_Source\PSoC5/USB_drv.c ****     }
 536:Generated_Source\PSoC5/USB_drv.c **** 
 537:Generated_Source\PSoC5/USB_drv.c ****     /* Expect Data or Status Stage */
 538:Generated_Source\PSoC5/USB_drv.c ****     USB_ep0Mode = USB_MODE_ACK_OUT_STATUS_IN;
 539:Generated_Source\PSoC5/USB_drv.c **** 
 540:Generated_Source\PSoC5/USB_drv.c ****     return(USB_TRUE);
 541:Generated_Source\PSoC5/USB_drv.c **** }
 542:Generated_Source\PSoC5/USB_drv.c **** 
 543:Generated_Source\PSoC5/USB_drv.c **** 
 544:Generated_Source\PSoC5/USB_drv.c **** /*******************************************************************************
 545:Generated_Source\PSoC5/USB_drv.c **** * Function Name: USB_ControlWriteDataStage
 546:Generated_Source\PSoC5/USB_drv.c **** ********************************************************************************
 547:Generated_Source\PSoC5/USB_drv.c **** *
 548:Generated_Source\PSoC5/USB_drv.c **** * Summary:
 549:Generated_Source\PSoC5/USB_drv.c **** *  Handle the Data Stage of a control write transfer
 550:Generated_Source\PSoC5/USB_drv.c **** *       1. Get the data (We assume the destination was validated previously)
 551:Generated_Source\PSoC5/USB_drv.c **** *       2. Update the count and data toggle
 552:Generated_Source\PSoC5/USB_drv.c **** *       3. Update the mode register for the next transaction
 553:Generated_Source\PSoC5/USB_drv.c **** *
 554:Generated_Source\PSoC5/USB_drv.c **** * Parameters:
 555:Generated_Source\PSoC5/USB_drv.c **** *  None.
 556:Generated_Source\PSoC5/USB_drv.c **** *
 557:Generated_Source\PSoC5/USB_drv.c **** * Return:
 558:Generated_Source\PSoC5/USB_drv.c **** *  None.
 559:Generated_Source\PSoC5/USB_drv.c **** *
 560:Generated_Source\PSoC5/USB_drv.c **** * Global variables:
 561:Generated_Source\PSoC5/USB_drv.c **** *  USB_transferByteCount - Update the transfer byte count from the
 562:Generated_Source\PSoC5/USB_drv.c **** *    last transaction.
 563:Generated_Source\PSoC5/USB_drv.c **** *  USB_ep0Count - counts the data loaded from the SIE memory
 564:Generated_Source\PSoC5/USB_drv.c **** *    in current packet.
 565:Generated_Source\PSoC5/USB_drv.c **** *  USB_transferByteCount - sum of the previous bytes transferred
 566:Generated_Source\PSoC5/USB_drv.c **** *    on previous packets(sum of USBFS_lastPacketSize)
 567:Generated_Source\PSoC5/USB_drv.c **** *  USB_ep0Toggle - inverted
 568:Generated_Source\PSoC5/USB_drv.c **** *  USB_ep0Mode  - set to MODE_ACK_OUT_STATUS_IN.
 569:Generated_Source\PSoC5/USB_drv.c **** *
 570:Generated_Source\PSoC5/USB_drv.c **** * Reentrant:
 571:Generated_Source\PSoC5/USB_drv.c **** *  No.
 572:Generated_Source\PSoC5/USB_drv.c **** *
 573:Generated_Source\PSoC5/USB_drv.c **** *******************************************************************************/
 574:Generated_Source\PSoC5/USB_drv.c **** void USB_ControlWriteDataStage(void) 
 575:Generated_Source\PSoC5/USB_drv.c **** {
 576:Generated_Source\PSoC5/USB_drv.c ****     uint8 ep0Count;
ARM GAS  C:\Users\anjmarqu\AppData\Local\Temp\ccm2MHx4.s 			page 12


 577:Generated_Source\PSoC5/USB_drv.c ****     uint8 regIndex = 0u;
 578:Generated_Source\PSoC5/USB_drv.c **** 
 579:Generated_Source\PSoC5/USB_drv.c ****     ep0Count = (CY_GET_REG8(USB_EP0_CNT_PTR) & USB_EPX_CNT0_MASK) -
 580:Generated_Source\PSoC5/USB_drv.c ****                USB_EPX_CNTX_CRC_COUNT;
 581:Generated_Source\PSoC5/USB_drv.c **** 
 582:Generated_Source\PSoC5/USB_drv.c ****     USB_transferByteCount += ep0Count;
 583:Generated_Source\PSoC5/USB_drv.c **** 
 584:Generated_Source\PSoC5/USB_drv.c ****     while ((USB_currentTD.count > 0u) && (ep0Count > 0u))
 585:Generated_Source\PSoC5/USB_drv.c ****     {
 586:Generated_Source\PSoC5/USB_drv.c ****         *USB_currentTD.pData = CY_GET_REG8((reg8 *)(USB_EP0_DR0_IND + regIndex));
 587:Generated_Source\PSoC5/USB_drv.c ****         USB_currentTD.pData = &USB_currentTD.pData[1u];
 588:Generated_Source\PSoC5/USB_drv.c ****         regIndex++;
 589:Generated_Source\PSoC5/USB_drv.c ****         ep0Count--;
 590:Generated_Source\PSoC5/USB_drv.c ****         USB_currentTD.count--;
 591:Generated_Source\PSoC5/USB_drv.c ****     }
 592:Generated_Source\PSoC5/USB_drv.c ****     USB_ep0Count = ep0Count;
 593:Generated_Source\PSoC5/USB_drv.c ****     /* Update the data toggle */
 594:Generated_Source\PSoC5/USB_drv.c ****     USB_ep0Toggle ^= USB_EP0_CNT_DATA_TOGGLE;
 595:Generated_Source\PSoC5/USB_drv.c ****     /* Expect Data or Status Stage */
 596:Generated_Source\PSoC5/USB_drv.c ****     USB_ep0Mode = USB_MODE_ACK_OUT_STATUS_IN;
 597:Generated_Source\PSoC5/USB_drv.c **** }
 598:Generated_Source\PSoC5/USB_drv.c **** 
 599:Generated_Source\PSoC5/USB_drv.c **** 
 600:Generated_Source\PSoC5/USB_drv.c **** /*******************************************************************************
 601:Generated_Source\PSoC5/USB_drv.c **** * Function Name: USB_ControlWriteStatusStage
 602:Generated_Source\PSoC5/USB_drv.c **** ********************************************************************************
 603:Generated_Source\PSoC5/USB_drv.c **** *
 604:Generated_Source\PSoC5/USB_drv.c **** * Summary:
 605:Generated_Source\PSoC5/USB_drv.c **** *  Handle the Status Stage of a control write transfer
 606:Generated_Source\PSoC5/USB_drv.c **** *
 607:Generated_Source\PSoC5/USB_drv.c **** * Parameters:
 608:Generated_Source\PSoC5/USB_drv.c **** *  None.
 609:Generated_Source\PSoC5/USB_drv.c **** *
 610:Generated_Source\PSoC5/USB_drv.c **** * Return:
 611:Generated_Source\PSoC5/USB_drv.c **** *  None.
 612:Generated_Source\PSoC5/USB_drv.c **** *
 613:Generated_Source\PSoC5/USB_drv.c **** * Global variables:
 614:Generated_Source\PSoC5/USB_drv.c **** *  USB_transferState - set to TRANS_STATE_IDLE.
 615:Generated_Source\PSoC5/USB_drv.c **** *  USB_USBFS_ep0Mode  - set to MODE_STALL_IN_OUT.
 616:Generated_Source\PSoC5/USB_drv.c **** *
 617:Generated_Source\PSoC5/USB_drv.c **** * Reentrant:
 618:Generated_Source\PSoC5/USB_drv.c **** *  No.
 619:Generated_Source\PSoC5/USB_drv.c **** *
 620:Generated_Source\PSoC5/USB_drv.c **** *******************************************************************************/
 621:Generated_Source\PSoC5/USB_drv.c **** void USB_ControlWriteStatusStage(void) 
 622:Generated_Source\PSoC5/USB_drv.c **** {
 623:Generated_Source\PSoC5/USB_drv.c ****     /* Go Idle */
 624:Generated_Source\PSoC5/USB_drv.c ****     USB_transferState = USB_TRANS_STATE_IDLE;
 625:Generated_Source\PSoC5/USB_drv.c ****     /* Update the completion block */
 626:Generated_Source\PSoC5/USB_drv.c ****     USB_UpdateStatusBlock(USB_XFER_STATUS_ACK);
 627:Generated_Source\PSoC5/USB_drv.c ****     /* We expect no more data, so stall INs and OUTs */
 628:Generated_Source\PSoC5/USB_drv.c ****     USB_ep0Mode = USB_MODE_STALL_IN_OUT;
 629:Generated_Source\PSoC5/USB_drv.c **** }
 630:Generated_Source\PSoC5/USB_drv.c **** 
 631:Generated_Source\PSoC5/USB_drv.c **** 
 632:Generated_Source\PSoC5/USB_drv.c **** /*******************************************************************************
 633:Generated_Source\PSoC5/USB_drv.c **** * Function Name: USB_InitNoDataControlTransfer
ARM GAS  C:\Users\anjmarqu\AppData\Local\Temp\ccm2MHx4.s 			page 13


 634:Generated_Source\PSoC5/USB_drv.c **** ********************************************************************************
 635:Generated_Source\PSoC5/USB_drv.c **** *
 636:Generated_Source\PSoC5/USB_drv.c **** * Summary:
 637:Generated_Source\PSoC5/USB_drv.c **** *  Initialize a no data control transfer
 638:Generated_Source\PSoC5/USB_drv.c **** *
 639:Generated_Source\PSoC5/USB_drv.c **** * Parameters:
 640:Generated_Source\PSoC5/USB_drv.c **** *  None.
 641:Generated_Source\PSoC5/USB_drv.c **** *
 642:Generated_Source\PSoC5/USB_drv.c **** * Return:
 643:Generated_Source\PSoC5/USB_drv.c **** *  requestHandled state.
 644:Generated_Source\PSoC5/USB_drv.c **** *
 645:Generated_Source\PSoC5/USB_drv.c **** * Global variables:
 646:Generated_Source\PSoC5/USB_drv.c **** *  USB_transferState - set to TRANS_STATE_NO_DATA_CONTROL.
 647:Generated_Source\PSoC5/USB_drv.c **** *  USB_ep0Mode  - set to MODE_STATUS_IN_ONLY.
 648:Generated_Source\PSoC5/USB_drv.c **** *  USB_ep0Count - cleared.
 649:Generated_Source\PSoC5/USB_drv.c **** *  USB_ep0Toggle - set to EP0_CNT_DATA_TOGGLE
 650:Generated_Source\PSoC5/USB_drv.c **** *
 651:Generated_Source\PSoC5/USB_drv.c **** * Reentrant:
 652:Generated_Source\PSoC5/USB_drv.c **** *  No.
 653:Generated_Source\PSoC5/USB_drv.c **** *
 654:Generated_Source\PSoC5/USB_drv.c **** *******************************************************************************/
 655:Generated_Source\PSoC5/USB_drv.c **** uint8 USB_InitNoDataControlTransfer(void) 
 656:Generated_Source\PSoC5/USB_drv.c **** {
 657:Generated_Source\PSoC5/USB_drv.c ****     USB_transferState = USB_TRANS_STATE_NO_DATA_CONTROL;
 658:Generated_Source\PSoC5/USB_drv.c ****     USB_ep0Mode = USB_MODE_STATUS_IN_ONLY;
 659:Generated_Source\PSoC5/USB_drv.c ****     USB_ep0Toggle = USB_EP0_CNT_DATA_TOGGLE;
 660:Generated_Source\PSoC5/USB_drv.c ****     USB_ep0Count = 0u;
 661:Generated_Source\PSoC5/USB_drv.c **** 
 662:Generated_Source\PSoC5/USB_drv.c ****     return(USB_TRUE);
 663:Generated_Source\PSoC5/USB_drv.c **** }
 664:Generated_Source\PSoC5/USB_drv.c **** 
 665:Generated_Source\PSoC5/USB_drv.c **** 
 666:Generated_Source\PSoC5/USB_drv.c **** /*******************************************************************************
 667:Generated_Source\PSoC5/USB_drv.c **** * Function Name: USB_NoDataControlStatusStage
 668:Generated_Source\PSoC5/USB_drv.c **** ********************************************************************************
 669:Generated_Source\PSoC5/USB_drv.c **** * Summary:
 670:Generated_Source\PSoC5/USB_drv.c **** *  Handle the Status Stage of a no data control transfer.
 671:Generated_Source\PSoC5/USB_drv.c **** *
 672:Generated_Source\PSoC5/USB_drv.c **** *  SET_ADDRESS is special, since we need to receive the status stage with
 673:Generated_Source\PSoC5/USB_drv.c **** *  the old address.
 674:Generated_Source\PSoC5/USB_drv.c **** *
 675:Generated_Source\PSoC5/USB_drv.c **** * Parameters:
 676:Generated_Source\PSoC5/USB_drv.c **** *  None.
 677:Generated_Source\PSoC5/USB_drv.c **** *
 678:Generated_Source\PSoC5/USB_drv.c **** * Return:
 679:Generated_Source\PSoC5/USB_drv.c **** *  None.
 680:Generated_Source\PSoC5/USB_drv.c **** *
 681:Generated_Source\PSoC5/USB_drv.c **** * Global variables:
 682:Generated_Source\PSoC5/USB_drv.c **** *  USB_transferState - set to TRANS_STATE_IDLE.
 683:Generated_Source\PSoC5/USB_drv.c **** *  USB_ep0Mode  - set to MODE_STALL_IN_OUT.
 684:Generated_Source\PSoC5/USB_drv.c **** *  USB_ep0Toggle - set to EP0_CNT_DATA_TOGGLE
 685:Generated_Source\PSoC5/USB_drv.c **** *  USB_deviceAddress - used to set new address and cleared
 686:Generated_Source\PSoC5/USB_drv.c **** *
 687:Generated_Source\PSoC5/USB_drv.c **** * Reentrant:
 688:Generated_Source\PSoC5/USB_drv.c **** *  No.
 689:Generated_Source\PSoC5/USB_drv.c **** *
 690:Generated_Source\PSoC5/USB_drv.c **** *******************************************************************************/
ARM GAS  C:\Users\anjmarqu\AppData\Local\Temp\ccm2MHx4.s 			page 14


 691:Generated_Source\PSoC5/USB_drv.c **** void USB_NoDataControlStatusStage(void) 
 692:Generated_Source\PSoC5/USB_drv.c **** {
 693:Generated_Source\PSoC5/USB_drv.c ****     /* Change the USB address register if we got a SET_ADDRESS. */
 694:Generated_Source\PSoC5/USB_drv.c ****     if (USB_deviceAddress != 0u)
 695:Generated_Source\PSoC5/USB_drv.c ****     {
 696:Generated_Source\PSoC5/USB_drv.c ****         CY_SET_REG8(USB_CR0_PTR, USB_deviceAddress | USB_CR0_ENABLE);
 697:Generated_Source\PSoC5/USB_drv.c ****         USB_deviceAddress = 0u;
 698:Generated_Source\PSoC5/USB_drv.c ****     }
 699:Generated_Source\PSoC5/USB_drv.c ****     /* Go Idle */
 700:Generated_Source\PSoC5/USB_drv.c ****     USB_transferState = USB_TRANS_STATE_IDLE;
 701:Generated_Source\PSoC5/USB_drv.c ****     /* Update the completion block */
 702:Generated_Source\PSoC5/USB_drv.c ****     USB_UpdateStatusBlock(USB_XFER_STATUS_ACK);
 703:Generated_Source\PSoC5/USB_drv.c ****      /* We expect no more data, so stall INs and OUTs */
 704:Generated_Source\PSoC5/USB_drv.c ****     USB_ep0Mode = USB_MODE_STALL_IN_OUT;
 705:Generated_Source\PSoC5/USB_drv.c **** }
 706:Generated_Source\PSoC5/USB_drv.c **** 
 707:Generated_Source\PSoC5/USB_drv.c **** 
 708:Generated_Source\PSoC5/USB_drv.c **** /*******************************************************************************
 709:Generated_Source\PSoC5/USB_drv.c **** * Function Name: USB_UpdateStatusBlock
 710:Generated_Source\PSoC5/USB_drv.c **** ********************************************************************************
 711:Generated_Source\PSoC5/USB_drv.c **** *
 712:Generated_Source\PSoC5/USB_drv.c **** * Summary:
 713:Generated_Source\PSoC5/USB_drv.c **** *  Update the Completion Status Block for a Request.  The block is updated
 714:Generated_Source\PSoC5/USB_drv.c **** *  with the completion code the USB_transferByteCount.  The
 715:Generated_Source\PSoC5/USB_drv.c **** *  StatusBlock Pointer is set to NULL.
 716:Generated_Source\PSoC5/USB_drv.c **** *
 717:Generated_Source\PSoC5/USB_drv.c **** * Parameters:
 718:Generated_Source\PSoC5/USB_drv.c **** *  completionCode - status.
 719:Generated_Source\PSoC5/USB_drv.c **** *
 720:Generated_Source\PSoC5/USB_drv.c **** * Return:
 721:Generated_Source\PSoC5/USB_drv.c **** *  None.
 722:Generated_Source\PSoC5/USB_drv.c **** *
 723:Generated_Source\PSoC5/USB_drv.c **** * Global variables:
 724:Generated_Source\PSoC5/USB_drv.c **** *  USB_currentTD.pStatusBlock->status - updated by the
 725:Generated_Source\PSoC5/USB_drv.c **** *    completionCode parameter.
 726:Generated_Source\PSoC5/USB_drv.c **** *  USB_currentTD.pStatusBlock->length - updated.
 727:Generated_Source\PSoC5/USB_drv.c **** *  USB_currentTD.pStatusBlock - cleared.
 728:Generated_Source\PSoC5/USB_drv.c **** *
 729:Generated_Source\PSoC5/USB_drv.c **** * Reentrant:
 730:Generated_Source\PSoC5/USB_drv.c **** *  No.
 731:Generated_Source\PSoC5/USB_drv.c **** *
 732:Generated_Source\PSoC5/USB_drv.c **** *******************************************************************************/
 733:Generated_Source\PSoC5/USB_drv.c **** void USB_UpdateStatusBlock(uint8 completionCode) 
 734:Generated_Source\PSoC5/USB_drv.c **** {
 735:Generated_Source\PSoC5/USB_drv.c ****     if (USB_currentTD.pStatusBlock != NULL)
  52              		.loc 1 735 0
  53 0012 164B     		ldr	r3, .L18+4
  54              	.LVL3:
  55 0014 9A68     		ldr	r2, [r3, #8]
  56 0016 42B1     		cbz	r2, .L4
 736:Generated_Source\PSoC5/USB_drv.c ****     {
 737:Generated_Source\PSoC5/USB_drv.c ****         USB_currentTD.pStatusBlock->status = completionCode;
  57              		.loc 1 737 0
  58 0018 9968     		ldr	r1, [r3, #8]
  59 001a 0220     		movs	r0, #2
 738:Generated_Source\PSoC5/USB_drv.c ****         USB_currentTD.pStatusBlock->length = USB_transferByteCount;
  60              		.loc 1 738 0
ARM GAS  C:\Users\anjmarqu\AppData\Local\Temp\ccm2MHx4.s 			page 15


  61 001c 144A     		ldr	r2, .L18+8
 737:Generated_Source\PSoC5/USB_drv.c ****         USB_currentTD.pStatusBlock->length = USB_transferByteCount;
  62              		.loc 1 737 0
  63 001e 0870     		strb	r0, [r1]
  64              		.loc 1 738 0
  65 0020 9968     		ldr	r1, [r3, #8]
  66 0022 1088     		ldrh	r0, [r2]
 739:Generated_Source\PSoC5/USB_drv.c ****         USB_currentTD.pStatusBlock = NULL;
  67              		.loc 1 739 0
  68 0024 0022     		movs	r2, #0
 738:Generated_Source\PSoC5/USB_drv.c ****         USB_currentTD.pStatusBlock->length = USB_transferByteCount;
  69              		.loc 1 738 0
  70 0026 4880     		strh	r0, [r1, #2]	@ movhi
  71              		.loc 1 739 0
  72 0028 9A60     		str	r2, [r3, #8]
  73              	.L4:
  74              	.LBE33:
  75              	.LBE32:
 167:Generated_Source\PSoC5/USB_drv.c ****         {
  76              		.loc 1 167 0
  77 002a 124B     		ldr	r3, .L18+12
  78 002c 1B78     		ldrb	r3, [r3]	@ zero_extendqisi2
  79 002e 03F06003 		and	r3, r3, #96
  80 0032 202B     		cmp	r3, #32
  81 0034 10D0     		beq	.L6
  82 0036 402B     		cmp	r3, #64
  83 0038 04D0     		beq	.L7
  84 003a 43B1     		cbz	r3, .L17
  85              	.L5:
 184:Generated_Source\PSoC5/USB_drv.c ****         }
  86              		.loc 1 184 0
  87 003c 0E4B     		ldr	r3, .L18+16
  88 003e 0322     		movs	r2, #3
  89 0040 1A70     		strb	r2, [r3]
  90 0042 08BD     		pop	{r3, pc}
  91              	.L7:
 176:Generated_Source\PSoC5/USB_drv.c ****                 break;
  92              		.loc 1 176 0
  93 0044 FFF7FEFF 		bl	USB_HandleVendorRqst
  94              	.LVL4:
 182:Generated_Source\PSoC5/USB_drv.c ****         {
  95              		.loc 1 182 0
  96 0048 0028     		cmp	r0, #0
  97 004a F7D0     		beq	.L5
  98              	.L15:
  99 004c 08BD     		pop	{r3, pc}
 100              	.LVL5:
 101              	.L17:
 170:Generated_Source\PSoC5/USB_drv.c ****                 break;
 102              		.loc 1 170 0
 103 004e FFF7FEFF 		bl	USB_HandleStandardRqst
 104              	.LVL6:
 182:Generated_Source\PSoC5/USB_drv.c ****         {
 105              		.loc 1 182 0
 106 0052 0028     		cmp	r0, #0
 107 0054 FAD1     		bne	.L15
 108 0056 F1E7     		b	.L5
ARM GAS  C:\Users\anjmarqu\AppData\Local\Temp\ccm2MHx4.s 			page 16


 109              	.LVL7:
 110              	.L6:
 173:Generated_Source\PSoC5/USB_drv.c ****                 break;
 111              		.loc 1 173 0
 112 0058 FFF7FEFF 		bl	USB_DispatchClassRqst
 113              	.LVL8:
 182:Generated_Source\PSoC5/USB_drv.c ****         {
 114              		.loc 1 182 0
 115 005c 0028     		cmp	r0, #0
 116 005e F5D1     		bne	.L15
 117 0060 ECE7     		b	.L5
 118              	.LVL9:
 119              	.L16:
 160:Generated_Source\PSoC5/USB_drv.c ****     }
 120              		.loc 1 160 0
 121 0062 054A     		ldr	r2, .L18+16
 122 0064 1370     		strb	r3, [r2]
 123 0066 08BD     		pop	{r3, pc}
 124              	.LVL10:
 125              	.L19:
 126              		.align	2
 127              	.L18:
 128 0068 28600040 		.word	1073766440
 129 006c 00000000 		.word	USB_currentTD
 130 0070 00000000 		.word	USB_transferByteCount
 131 0074 00600040 		.word	1073766400
 132 0078 00000000 		.word	USB_ep0Mode
 133              		.cfi_endproc
 134              	.LFE1:
 135              		.size	USB_HandleSetup, .-USB_HandleSetup
 136              		.section	.text.USB_LoadEP0,"ax",%progbits
 137              		.align	2
 138              		.global	USB_LoadEP0
 139              		.thumb
 140              		.thumb_func
 141              		.type	USB_LoadEP0, %function
 142              	USB_LoadEP0:
 143              	.LFB4:
 308:Generated_Source\PSoC5/USB_drv.c ****     uint8 ep0Count = 0u;
 144              		.loc 1 308 0
 145              		.cfi_startproc
 146              		@ args = 0, pretend = 0, frame = 0
 147              		@ frame_needed = 0, uses_anonymous_args = 0
 148              		@ link register save eliminated.
 149              	.LVL11:
 150 0000 F0B4     		push	{r4, r5, r6, r7}
 151              		.cfi_def_cfa_offset 16
 152              		.cfi_offset 4, -16
 153              		.cfi_offset 5, -12
 154              		.cfi_offset 6, -8
 155              		.cfi_offset 7, -4
 312:Generated_Source\PSoC5/USB_drv.c ****     /* Now load the next transaction */
 156              		.loc 1 312 0
 157 0002 2049     		ldr	r1, .L35
 158 0004 204C     		ldr	r4, .L35+4
 314:Generated_Source\PSoC5/USB_drv.c ****     {
 159              		.loc 1 314 0
ARM GAS  C:\Users\anjmarqu\AppData\Local\Temp\ccm2MHx4.s 			page 17


 160 0006 214A     		ldr	r2, .L35+8
 312:Generated_Source\PSoC5/USB_drv.c ****     /* Now load the next transaction */
 161              		.loc 1 312 0
 162 0008 2078     		ldrb	r0, [r4]	@ zero_extendqisi2
 163 000a 0B88     		ldrh	r3, [r1]
 164 000c 0344     		add	r3, r3, r0
 165 000e 9BB2     		uxth	r3, r3
 166 0010 0B80     		strh	r3, [r1]	@ movhi
 314:Generated_Source\PSoC5/USB_drv.c ****     {
 167              		.loc 1 314 0
 168 0012 1588     		ldrh	r5, [r2]
 169 0014 ADB2     		uxth	r5, r5
 170 0016 3DB3     		cbz	r5, .L21
 171 0018 1D4B     		ldr	r3, .L35+12
 172 001a 1E48     		ldr	r0, .L35+16
 173              	.LVL12:
 174              	.L23:
 316:Generated_Source\PSoC5/USB_drv.c ****         USB_currentTD.pData = &USB_currentTD.pData[1u];
 175              		.loc 1 316 0
 176 001c 5168     		ldr	r1, [r2, #4]
 177 001e 0978     		ldrb	r1, [r1]	@ zero_extendqisi2
 178 0020 C9B2     		uxtb	r1, r1
 179 0022 03F8011B 		strb	r1, [r3], #1
 180              	.LVL13:
 317:Generated_Source\PSoC5/USB_drv.c ****         ep0Count++;
 181              		.loc 1 317 0
 182 0026 5168     		ldr	r1, [r2, #4]
 183 0028 DDB2     		uxtb	r5, r3
 184              	.LVL14:
 185 002a 0131     		adds	r1, r1, #1
 186 002c 5160     		str	r1, [r2, #4]
 319:Generated_Source\PSoC5/USB_drv.c ****     }
 187              		.loc 1 319 0
 188 002e 1188     		ldrh	r1, [r2]
 189 0030 0139     		subs	r1, r1, #1
 190 0032 89B2     		uxth	r1, r1
 191 0034 1180     		strh	r1, [r2]	@ movhi
 314:Generated_Source\PSoC5/USB_drv.c ****     {
 192              		.loc 1 314 0
 193 0036 1188     		ldrh	r1, [r2]
 194 0038 89B2     		uxth	r1, r1
 195 003a 99B1     		cbz	r1, .L22
 314:Generated_Source\PSoC5/USB_drv.c ****     {
 196              		.loc 1 314 0 is_stmt 0 discriminator 1
 197 003c 8342     		cmp	r3, r0
 198 003e EDD1     		bne	.L23
 322:Generated_Source\PSoC5/USB_drv.c ****     {
 199              		.loc 1 322 0 is_stmt 1
 200 0040 2378     		ldrb	r3, [r4]	@ zero_extendqisi2
 201 0042 0825     		movs	r5, #8
 202              	.LVL15:
 203              	.L26:
 325:Generated_Source\PSoC5/USB_drv.c ****         /* Set the Mode Register  */
 204              		.loc 1 325 0
 205 0044 144A     		ldr	r2, .L35+20
 327:Generated_Source\PSoC5/USB_drv.c ****         /* Update the state (or stay the same) */
 206              		.loc 1 327 0
ARM GAS  C:\Users\anjmarqu\AppData\Local\Temp\ccm2MHx4.s 			page 18


 207 0046 154E     		ldr	r6, .L35+24
 325:Generated_Source\PSoC5/USB_drv.c ****         /* Set the Mode Register  */
 208              		.loc 1 325 0
 209 0048 1378     		ldrb	r3, [r2]	@ zero_extendqisi2
 329:Generated_Source\PSoC5/USB_drv.c ****     }
 210              		.loc 1 329 0
 211 004a 1549     		ldr	r1, .L35+28
 325:Generated_Source\PSoC5/USB_drv.c ****         /* Set the Mode Register  */
 212              		.loc 1 325 0
 213 004c 83F08003 		eor	r3, r3, #128
 214 0050 1370     		strb	r3, [r2]
 341:Generated_Source\PSoC5/USB_drv.c **** }
 215              		.loc 1 341 0
 216 0052 144B     		ldr	r3, .L35+32
 327:Generated_Source\PSoC5/USB_drv.c ****         /* Update the state (or stay the same) */
 217              		.loc 1 327 0
 218 0054 0F27     		movs	r7, #15
 329:Generated_Source\PSoC5/USB_drv.c ****     }
 219              		.loc 1 329 0
 220 0056 0220     		movs	r0, #2
 327:Generated_Source\PSoC5/USB_drv.c ****         /* Update the state (or stay the same) */
 221              		.loc 1 327 0
 222 0058 3770     		strb	r7, [r6]
 329:Generated_Source\PSoC5/USB_drv.c ****     }
 223              		.loc 1 329 0
 224 005a 0870     		strb	r0, [r1]
 340:Generated_Source\PSoC5/USB_drv.c ****     USB_ep0Count = ep0Count;
 225              		.loc 1 340 0
 226 005c 2570     		strb	r5, [r4]
 341:Generated_Source\PSoC5/USB_drv.c **** }
 227              		.loc 1 341 0
 228 005e 1D70     		strb	r5, [r3]
 342:Generated_Source\PSoC5/USB_drv.c **** 
 229              		.loc 1 342 0
 230 0060 F0BC     		pop	{r4, r5, r6, r7}
 231              		.cfi_remember_state
 232              		.cfi_restore 7
 233              		.cfi_restore 6
 234              		.cfi_restore 5
 235              		.cfi_restore 4
 236              		.cfi_def_cfa_offset 0
 237 0062 7047     		bx	lr
 238              	.LVL16:
 239              	.L22:
 240              		.cfi_restore_state
 322:Generated_Source\PSoC5/USB_drv.c ****     {
 241              		.loc 1 322 0
 242 0064 2378     		ldrb	r3, [r4]	@ zero_extendqisi2
 243 0066 EDE7     		b	.L26
 244              	.LVL17:
 245              	.L21:
 246 0068 2378     		ldrb	r3, [r4]	@ zero_extendqisi2
 247 006a 082B     		cmp	r3, #8
 248 006c EAD0     		beq	.L26
 334:Generated_Source\PSoC5/USB_drv.c ****         /* Update the state (or stay the same) */
 249              		.loc 1 334 0
 250 006e 0B49     		ldr	r1, .L35+24
ARM GAS  C:\Users\anjmarqu\AppData\Local\Temp\ccm2MHx4.s 			page 19


 336:Generated_Source\PSoC5/USB_drv.c ****     }
 251              		.loc 1 336 0
 252 0070 0B4A     		ldr	r2, .L35+28
 334:Generated_Source\PSoC5/USB_drv.c ****         /* Update the state (or stay the same) */
 253              		.loc 1 334 0
 254 0072 0223     		movs	r3, #2
 255 0074 0B70     		strb	r3, [r1]
 336:Generated_Source\PSoC5/USB_drv.c ****     }
 256              		.loc 1 336 0
 257 0076 1370     		strb	r3, [r2]
 341:Generated_Source\PSoC5/USB_drv.c **** }
 258              		.loc 1 341 0
 259 0078 0A4B     		ldr	r3, .L35+32
 340:Generated_Source\PSoC5/USB_drv.c ****     USB_ep0Count = ep0Count;
 260              		.loc 1 340 0
 261 007a 2570     		strb	r5, [r4]
 341:Generated_Source\PSoC5/USB_drv.c **** }
 262              		.loc 1 341 0
 263 007c 1D70     		strb	r5, [r3]
 342:Generated_Source\PSoC5/USB_drv.c **** 
 264              		.loc 1 342 0
 265 007e F0BC     		pop	{r4, r5, r6, r7}
 266              		.cfi_restore 4
 267              		.cfi_restore 5
 268              		.cfi_restore 6
 269              		.cfi_restore 7
 270              		.cfi_def_cfa_offset 0
 271 0080 7047     		bx	lr
 272              	.L36:
 273 0082 00BF     		.align	2
 274              	.L35:
 275 0084 00000000 		.word	USB_transferByteCount
 276 0088 00000000 		.word	USB_lastPacketSize
 277 008c 00000000 		.word	USB_currentTD
 278 0090 00600040 		.word	1073766400
 279 0094 08600040 		.word	1073766408
 280 0098 00000000 		.word	USB_ep0Toggle
 281 009c 00000000 		.word	USB_ep0Mode
 282 00a0 00000000 		.word	USB_transferState
 283 00a4 00000000 		.word	USB_ep0Count
 284              		.cfi_endproc
 285              	.LFE4:
 286              		.size	USB_LoadEP0, .-USB_LoadEP0
 287              		.section	.text.USB_InitControlRead,"ax",%progbits
 288              		.align	2
 289              		.global	USB_InitControlRead
 290              		.thumb
 291              		.thumb_func
 292              		.type	USB_InitControlRead, %function
 293              	USB_InitControlRead:
 294              	.LFB5:
 370:Generated_Source\PSoC5/USB_drv.c ****     uint16 xferCount;
 295              		.loc 1 370 0
 296              		.cfi_startproc
 297              		@ args = 0, pretend = 0, frame = 0
 298              		@ frame_needed = 0, uses_anonymous_args = 0
 372:Generated_Source\PSoC5/USB_drv.c ****     {
ARM GAS  C:\Users\anjmarqu\AppData\Local\Temp\ccm2MHx4.s 			page 20


 299              		.loc 1 372 0
 300 0000 194A     		ldr	r2, .L47
 370:Generated_Source\PSoC5/USB_drv.c ****     uint16 xferCount;
 301              		.loc 1 370 0
 302 0002 F8B5     		push	{r3, r4, r5, r6, r7, lr}
 303              		.cfi_def_cfa_offset 24
 304              		.cfi_offset 3, -24
 305              		.cfi_offset 4, -20
 306              		.cfi_offset 5, -16
 307              		.cfi_offset 6, -12
 308              		.cfi_offset 7, -8
 309              		.cfi_offset 14, -4
 372:Generated_Source\PSoC5/USB_drv.c ****     {
 310              		.loc 1 372 0
 311 0004 1388     		ldrh	r3, [r2]
 312 0006 9BB2     		uxth	r3, r3
 313 0008 EBB1     		cbz	r3, .L46
 314              	.LBB34:
 315              	.LBB35:
 740:Generated_Source\PSoC5/USB_drv.c ****     }
 741:Generated_Source\PSoC5/USB_drv.c **** }
 742:Generated_Source\PSoC5/USB_drv.c **** 
 743:Generated_Source\PSoC5/USB_drv.c **** 
 744:Generated_Source\PSoC5/USB_drv.c **** /*******************************************************************************
 745:Generated_Source\PSoC5/USB_drv.c **** * Function Name: USB_InitializeStatusBlock
 746:Generated_Source\PSoC5/USB_drv.c **** ********************************************************************************
 747:Generated_Source\PSoC5/USB_drv.c **** *
 748:Generated_Source\PSoC5/USB_drv.c **** * Summary:
 749:Generated_Source\PSoC5/USB_drv.c **** *  Initialize the Completion Status Block for a Request.  The completion
 750:Generated_Source\PSoC5/USB_drv.c **** *  code is set to USB_XFER_IDLE.
 751:Generated_Source\PSoC5/USB_drv.c **** *
 752:Generated_Source\PSoC5/USB_drv.c **** *  Also, initializes USB_transferByteCount.  Save some space,
 753:Generated_Source\PSoC5/USB_drv.c **** *  this is the only consumer.
 754:Generated_Source\PSoC5/USB_drv.c **** *
 755:Generated_Source\PSoC5/USB_drv.c **** * Parameters:
 756:Generated_Source\PSoC5/USB_drv.c **** *  None.
 757:Generated_Source\PSoC5/USB_drv.c **** *
 758:Generated_Source\PSoC5/USB_drv.c **** * Return:
 759:Generated_Source\PSoC5/USB_drv.c **** *  None.
 760:Generated_Source\PSoC5/USB_drv.c **** *
 761:Generated_Source\PSoC5/USB_drv.c **** * Global variables:
 762:Generated_Source\PSoC5/USB_drv.c **** *  USB_currentTD.pStatusBlock->status - set to XFER_IDLE.
 763:Generated_Source\PSoC5/USB_drv.c **** *  USB_currentTD.pStatusBlock->length - cleared.
 764:Generated_Source\PSoC5/USB_drv.c **** *  USB_transferByteCount - cleared.
 765:Generated_Source\PSoC5/USB_drv.c **** *
 766:Generated_Source\PSoC5/USB_drv.c **** * Reentrant:
 767:Generated_Source\PSoC5/USB_drv.c **** *  No.
 768:Generated_Source\PSoC5/USB_drv.c **** *
 769:Generated_Source\PSoC5/USB_drv.c **** *******************************************************************************/
 770:Generated_Source\PSoC5/USB_drv.c **** void USB_InitializeStatusBlock(void) 
 771:Generated_Source\PSoC5/USB_drv.c **** {
 772:Generated_Source\PSoC5/USB_drv.c ****     USB_transferByteCount = 0u;
 316              		.loc 1 772 0
 317 000a 1849     		ldr	r1, .L47+4
 318              	.LBE35:
 319              	.LBE34:
 379:Generated_Source\PSoC5/USB_drv.c ****         /* Set the toggle, it gets updated in LoadEP */
ARM GAS  C:\Users\anjmarqu\AppData\Local\Temp\ccm2MHx4.s 			page 21


 320              		.loc 1 379 0
 321 000c 184C     		ldr	r4, .L47+8
 381:Generated_Source\PSoC5/USB_drv.c ****         /* Initialize the Status Block */
 322              		.loc 1 381 0
 323 000e 1948     		ldr	r0, .L47+12
 324 0010 0023     		movs	r3, #0
 379:Generated_Source\PSoC5/USB_drv.c ****         /* Set the toggle, it gets updated in LoadEP */
 325              		.loc 1 379 0
 326 0012 0225     		movs	r5, #2
 327 0014 2570     		strb	r5, [r4]
 381:Generated_Source\PSoC5/USB_drv.c ****         /* Initialize the Status Block */
 328              		.loc 1 381 0
 329 0016 0370     		strb	r3, [r0]
 330              	.LBB37:
 331              	.LBB36:
 332              		.loc 1 772 0
 333 0018 0B80     		strh	r3, [r1]	@ movhi
 773:Generated_Source\PSoC5/USB_drv.c ****     if(USB_currentTD.pStatusBlock != NULL)
 334              		.loc 1 773 0
 335 001a 9168     		ldr	r1, [r2, #8]
 336 001c 19B1     		cbz	r1, .L40
 774:Generated_Source\PSoC5/USB_drv.c ****     {
 775:Generated_Source\PSoC5/USB_drv.c ****         USB_currentTD.pStatusBlock->status = USB_XFER_IDLE;
 337              		.loc 1 775 0
 338 001e 9168     		ldr	r1, [r2, #8]
 339 0020 0B70     		strb	r3, [r1]
 776:Generated_Source\PSoC5/USB_drv.c ****         USB_currentTD.pStatusBlock->length = 0u;
 340              		.loc 1 776 0
 341 0022 9168     		ldr	r1, [r2, #8]
 342 0024 4B80     		strh	r3, [r1, #2]	@ movhi
 343              	.L40:
 344              	.LBE36:
 345              	.LBE37:
 384:Generated_Source\PSoC5/USB_drv.c **** 
 346              		.loc 1 384 0
 347 0026 1449     		ldr	r1, .L47+16
 348 0028 144B     		ldr	r3, .L47+20
 349 002a 0978     		ldrb	r1, [r1]	@ zero_extendqisi2
 350 002c 1B78     		ldrb	r3, [r3]	@ zero_extendqisi2
 386:Generated_Source\PSoC5/USB_drv.c ****         {
 351              		.loc 1 386 0
 352 002e 1288     		ldrh	r2, [r2]
 384:Generated_Source\PSoC5/USB_drv.c **** 
 353              		.loc 1 384 0
 354 0030 43EA0123 		orr	r3, r3, r1, lsl #8
 355              	.LVL18:
 386:Generated_Source\PSoC5/USB_drv.c ****         {
 356              		.loc 1 386 0
 357 0034 92B2     		uxth	r2, r2
 358 0036 0C49     		ldr	r1, .L47
 359 0038 9342     		cmp	r3, r2
 388:Generated_Source\PSoC5/USB_drv.c ****         }
 360              		.loc 1 388 0
 361 003a 38BF     		it	cc
 362 003c 0B80     		strhcc	r3, [r1]	@ movhi
 390:Generated_Source\PSoC5/USB_drv.c ****     }
 363              		.loc 1 390 0
ARM GAS  C:\Users\anjmarqu\AppData\Local\Temp\ccm2MHx4.s 			page 22


 364 003e FFF7FEFF 		bl	USB_LoadEP0
 365              	.LVL19:
 394:Generated_Source\PSoC5/USB_drv.c **** 
 366              		.loc 1 394 0
 367 0042 0120     		movs	r0, #1
 368 0044 F8BD     		pop	{r3, r4, r5, r6, r7, pc}
 369              	.L46:
 370              	.LBB38:
 371              	.LBB39:
 425:Generated_Source\PSoC5/USB_drv.c ****     /* Set the data toggle */
 372              		.loc 1 425 0
 373 0046 0A4F     		ldr	r7, .L47+8
 427:Generated_Source\PSoC5/USB_drv.c ****     /* Set the Mode Register  */
 374              		.loc 1 427 0
 375 0048 0A4D     		ldr	r5, .L47+12
 429:Generated_Source\PSoC5/USB_drv.c ****     /* Save the packet size for next time */
 376              		.loc 1 429 0
 377 004a 0D48     		ldr	r0, .L47+24
 431:Generated_Source\PSoC5/USB_drv.c ****     USB_ep0Count = 0u;
 378              		.loc 1 431 0
 379 004c 0D49     		ldr	r1, .L47+28
 432:Generated_Source\PSoC5/USB_drv.c **** 
 380              		.loc 1 432 0
 381 004e 0E4A     		ldr	r2, .L47+32
 425:Generated_Source\PSoC5/USB_drv.c ****     /* Set the data toggle */
 382              		.loc 1 425 0
 383 0050 4FF0020E 		mov	lr, #2
 427:Generated_Source\PSoC5/USB_drv.c ****     /* Set the Mode Register  */
 384              		.loc 1 427 0
 385 0054 8026     		movs	r6, #128
 429:Generated_Source\PSoC5/USB_drv.c ****     /* Save the packet size for next time */
 386              		.loc 1 429 0
 387 0056 0F24     		movs	r4, #15
 425:Generated_Source\PSoC5/USB_drv.c ****     /* Set the data toggle */
 388              		.loc 1 425 0
 389 0058 87F800E0 		strb	lr, [r7]
 427:Generated_Source\PSoC5/USB_drv.c ****     /* Set the Mode Register  */
 390              		.loc 1 427 0
 391 005c 2E70     		strb	r6, [r5]
 429:Generated_Source\PSoC5/USB_drv.c ****     /* Save the packet size for next time */
 392              		.loc 1 429 0
 393 005e 0470     		strb	r4, [r0]
 431:Generated_Source\PSoC5/USB_drv.c ****     USB_ep0Count = 0u;
 394              		.loc 1 431 0
 395 0060 0B70     		strb	r3, [r1]
 432:Generated_Source\PSoC5/USB_drv.c **** 
 396              		.loc 1 432 0
 397 0062 1370     		strb	r3, [r2]
 398              	.LBE39:
 399              	.LBE38:
 394:Generated_Source\PSoC5/USB_drv.c **** 
 400              		.loc 1 394 0
 401 0064 0120     		movs	r0, #1
 402 0066 F8BD     		pop	{r3, r4, r5, r6, r7, pc}
 403              	.L48:
 404              		.align	2
 405              	.L47:
ARM GAS  C:\Users\anjmarqu\AppData\Local\Temp\ccm2MHx4.s 			page 23


 406 0068 00000000 		.word	USB_currentTD
 407 006c 00000000 		.word	USB_transferByteCount
 408 0070 00000000 		.word	USB_transferState
 409 0074 00000000 		.word	USB_ep0Toggle
 410 0078 07600040 		.word	1073766407
 411 007c 06600040 		.word	1073766406
 412 0080 00000000 		.word	USB_ep0Mode
 413 0084 00000000 		.word	USB_lastPacketSize
 414 0088 00000000 		.word	USB_ep0Count
 415              		.cfi_endproc
 416              	.LFE5:
 417              		.size	USB_InitControlRead, .-USB_InitControlRead
 418              		.section	.text.USB_InitZeroLengthControlTransfer,"ax",%progbits
 419              		.align	2
 420              		.global	USB_InitZeroLengthControlTransfer
 421              		.thumb
 422              		.thumb_func
 423              		.type	USB_InitZeroLengthControlTransfer, %function
 424              	USB_InitZeroLengthControlTransfer:
 425              	.LFB6:
 423:Generated_Source\PSoC5/USB_drv.c ****     /* Update the state */
 426              		.loc 1 423 0
 427              		.cfi_startproc
 428              		@ args = 0, pretend = 0, frame = 0
 429              		@ frame_needed = 0, uses_anonymous_args = 0
 430 0000 F0B5     		push	{r4, r5, r6, r7, lr}
 431              		.cfi_def_cfa_offset 20
 432              		.cfi_offset 4, -20
 433              		.cfi_offset 5, -16
 434              		.cfi_offset 6, -12
 435              		.cfi_offset 7, -8
 436              		.cfi_offset 14, -4
 425:Generated_Source\PSoC5/USB_drv.c ****     /* Set the data toggle */
 437              		.loc 1 425 0
 438 0002 0948     		ldr	r0, .L51
 427:Generated_Source\PSoC5/USB_drv.c ****     /* Set the Mode Register  */
 439              		.loc 1 427 0
 440 0004 094E     		ldr	r6, .L51+4
 429:Generated_Source\PSoC5/USB_drv.c ****     /* Save the packet size for next time */
 441              		.loc 1 429 0
 442 0006 0A4C     		ldr	r4, .L51+8
 431:Generated_Source\PSoC5/USB_drv.c ****     USB_ep0Count = 0u;
 443              		.loc 1 431 0
 444 0008 0A49     		ldr	r1, .L51+12
 432:Generated_Source\PSoC5/USB_drv.c **** 
 445              		.loc 1 432 0
 446 000a 0B4A     		ldr	r2, .L51+16
 431:Generated_Source\PSoC5/USB_drv.c ****     USB_ep0Count = 0u;
 447              		.loc 1 431 0
 448 000c 0023     		movs	r3, #0
 425:Generated_Source\PSoC5/USB_drv.c ****     /* Set the data toggle */
 449              		.loc 1 425 0
 450 000e 4FF0020E 		mov	lr, #2
 427:Generated_Source\PSoC5/USB_drv.c ****     /* Set the Mode Register  */
 451              		.loc 1 427 0
 452 0012 8027     		movs	r7, #128
 429:Generated_Source\PSoC5/USB_drv.c ****     /* Save the packet size for next time */
ARM GAS  C:\Users\anjmarqu\AppData\Local\Temp\ccm2MHx4.s 			page 24


 453              		.loc 1 429 0
 454 0014 0F25     		movs	r5, #15
 425:Generated_Source\PSoC5/USB_drv.c ****     /* Set the data toggle */
 455              		.loc 1 425 0
 456 0016 80F800E0 		strb	lr, [r0]
 427:Generated_Source\PSoC5/USB_drv.c ****     /* Set the Mode Register  */
 457              		.loc 1 427 0
 458 001a 3770     		strb	r7, [r6]
 429:Generated_Source\PSoC5/USB_drv.c ****     /* Save the packet size for next time */
 459              		.loc 1 429 0
 460 001c 2570     		strb	r5, [r4]
 431:Generated_Source\PSoC5/USB_drv.c ****     USB_ep0Count = 0u;
 461              		.loc 1 431 0
 462 001e 0B70     		strb	r3, [r1]
 432:Generated_Source\PSoC5/USB_drv.c **** 
 463              		.loc 1 432 0
 464 0020 1370     		strb	r3, [r2]
 435:Generated_Source\PSoC5/USB_drv.c **** 
 465              		.loc 1 435 0
 466 0022 0120     		movs	r0, #1
 467 0024 F0BD     		pop	{r4, r5, r6, r7, pc}
 468              	.L52:
 469 0026 00BF     		.align	2
 470              	.L51:
 471 0028 00000000 		.word	USB_transferState
 472 002c 00000000 		.word	USB_ep0Toggle
 473 0030 00000000 		.word	USB_ep0Mode
 474 0034 00000000 		.word	USB_lastPacketSize
 475 0038 00000000 		.word	USB_ep0Count
 476              		.cfi_endproc
 477              	.LFE6:
 478              		.size	USB_InitZeroLengthControlTransfer, .-USB_InitZeroLengthControlTransfer
 479              		.section	.text.USB_ControlReadDataStage,"ax",%progbits
 480              		.align	2
 481              		.global	USB_ControlReadDataStage
 482              		.thumb
 483              		.thumb_func
 484              		.type	USB_ControlReadDataStage, %function
 485              	USB_ControlReadDataStage:
 486              	.LFB7:
 457:Generated_Source\PSoC5/USB_drv.c ****     USB_LoadEP0();
 487              		.loc 1 457 0
 488              		.cfi_startproc
 489              		@ args = 0, pretend = 0, frame = 0
 490              		@ frame_needed = 0, uses_anonymous_args = 0
 491              		@ link register save eliminated.
 458:Generated_Source\PSoC5/USB_drv.c **** }
 492              		.loc 1 458 0
 493 0000 FFF7FEBF 		b	USB_LoadEP0
 494              	.LVL20:
 495              		.cfi_endproc
 496              	.LFE7:
 497              		.size	USB_ControlReadDataStage, .-USB_ControlReadDataStage
 498              		.section	.text.USB_ControlReadStatusStage,"ax",%progbits
 499              		.align	2
 500              		.global	USB_ControlReadStatusStage
 501              		.thumb
ARM GAS  C:\Users\anjmarqu\AppData\Local\Temp\ccm2MHx4.s 			page 25


 502              		.thumb_func
 503              		.type	USB_ControlReadStatusStage, %function
 504              	USB_ControlReadStatusStage:
 505              	.LFB8:
 485:Generated_Source\PSoC5/USB_drv.c ****     /* Update the transfer byte count */
 506              		.loc 1 485 0
 507              		.cfi_startproc
 508              		@ args = 0, pretend = 0, frame = 0
 509              		@ frame_needed = 0, uses_anonymous_args = 0
 510              		@ link register save eliminated.
 511 0000 10B4     		push	{r4}
 512              		.cfi_def_cfa_offset 4
 513              		.cfi_offset 4, -4
 487:Generated_Source\PSoC5/USB_drv.c ****     /* Go Idle */
 514              		.loc 1 487 0
 515 0002 0D4B     		ldr	r3, .L60
 516 0004 0D49     		ldr	r1, .L60+4
 517 0006 1A78     		ldrb	r2, [r3]	@ zero_extendqisi2
 518 0008 0B88     		ldrh	r3, [r1]
 489:Generated_Source\PSoC5/USB_drv.c ****     /* Update the completion block */
 519              		.loc 1 489 0
 520 000a 0D4C     		ldr	r4, .L60+8
 487:Generated_Source\PSoC5/USB_drv.c ****     /* Go Idle */
 521              		.loc 1 487 0
 522 000c 1344     		add	r3, r3, r2
 523 000e 9BB2     		uxth	r3, r3
 489:Generated_Source\PSoC5/USB_drv.c ****     /* Update the completion block */
 524              		.loc 1 489 0
 525 0010 0020     		movs	r0, #0
 526              	.LBB40:
 527              	.LBB41:
 735:Generated_Source\PSoC5/USB_drv.c ****     {
 528              		.loc 1 735 0
 529 0012 0C4A     		ldr	r2, .L60+12
 530              	.LBE41:
 531              	.LBE40:
 487:Generated_Source\PSoC5/USB_drv.c ****     /* Go Idle */
 532              		.loc 1 487 0
 533 0014 0B80     		strh	r3, [r1]	@ movhi
 489:Generated_Source\PSoC5/USB_drv.c ****     /* Update the completion block */
 534              		.loc 1 489 0
 535 0016 2070     		strb	r0, [r4]
 536              	.LVL21:
 537              	.LBB43:
 538              	.LBB42:
 735:Generated_Source\PSoC5/USB_drv.c ****     {
 539              		.loc 1 735 0
 540 0018 9368     		ldr	r3, [r2, #8]
 541 001a 33B1     		cbz	r3, .L55
 737:Generated_Source\PSoC5/USB_drv.c ****         USB_currentTD.pStatusBlock->length = USB_transferByteCount;
 542              		.loc 1 737 0
 543 001c 9368     		ldr	r3, [r2, #8]
 544 001e 0124     		movs	r4, #1
 545 0020 1C70     		strb	r4, [r3]
 738:Generated_Source\PSoC5/USB_drv.c ****         USB_currentTD.pStatusBlock = NULL;
 546              		.loc 1 738 0
 547 0022 9368     		ldr	r3, [r2, #8]
ARM GAS  C:\Users\anjmarqu\AppData\Local\Temp\ccm2MHx4.s 			page 26


 548 0024 0988     		ldrh	r1, [r1]
 549 0026 5980     		strh	r1, [r3, #2]	@ movhi
 739:Generated_Source\PSoC5/USB_drv.c ****     }
 550              		.loc 1 739 0
 551 0028 9060     		str	r0, [r2, #8]
 552              	.L55:
 553              	.LBE42:
 554              	.LBE43:
 493:Generated_Source\PSoC5/USB_drv.c **** }
 555              		.loc 1 493 0
 556 002a 074B     		ldr	r3, .L60+16
 557 002c 0322     		movs	r2, #3
 558 002e 1A70     		strb	r2, [r3]
 494:Generated_Source\PSoC5/USB_drv.c **** 
 559              		.loc 1 494 0
 560 0030 5DF8044B 		ldr	r4, [sp], #4
 561              		.cfi_restore 4
 562              		.cfi_def_cfa_offset 0
 563 0034 7047     		bx	lr
 564              	.L61:
 565 0036 00BF     		.align	2
 566              	.L60:
 567 0038 00000000 		.word	USB_lastPacketSize
 568 003c 00000000 		.word	USB_transferByteCount
 569 0040 00000000 		.word	USB_transferState
 570 0044 00000000 		.word	USB_currentTD
 571 0048 00000000 		.word	USB_ep0Mode
 572              		.cfi_endproc
 573              	.LFE8:
 574              		.size	USB_ControlReadStatusStage, .-USB_ControlReadStatusStage
 575              		.section	.text.USB_InitControlWrite,"ax",%progbits
 576              		.align	2
 577              		.global	USB_InitControlWrite
 578              		.thumb
 579              		.thumb_func
 580              		.type	USB_InitControlWrite, %function
 581              	USB_InitControlWrite:
 582              	.LFB9:
 520:Generated_Source\PSoC5/USB_drv.c ****     uint16 xferCount;
 583              		.loc 1 520 0
 584              		.cfi_startproc
 585              		@ args = 0, pretend = 0, frame = 0
 586              		@ frame_needed = 0, uses_anonymous_args = 0
 587              		@ link register save eliminated.
 588 0000 70B4     		push	{r4, r5, r6}
 589              		.cfi_def_cfa_offset 12
 590              		.cfi_offset 4, -12
 591              		.cfi_offset 5, -8
 592              		.cfi_offset 6, -4
 593              	.LBB44:
 594              	.LBB45:
 772:Generated_Source\PSoC5/USB_drv.c ****     if(USB_currentTD.pStatusBlock != NULL)
 595              		.loc 1 772 0
 596 0002 1149     		ldr	r1, .L69
 597              	.LBE45:
 598              	.LBE44:
 524:Generated_Source\PSoC5/USB_drv.c ****     /* This might not be necessary */
ARM GAS  C:\Users\anjmarqu\AppData\Local\Temp\ccm2MHx4.s 			page 27


 599              		.loc 1 524 0
 600 0004 114D     		ldr	r5, .L69+4
 526:Generated_Source\PSoC5/USB_drv.c ****     /* Initialize the Status Block */
 601              		.loc 1 526 0
 602 0006 1248     		ldr	r0, .L69+8
 524:Generated_Source\PSoC5/USB_drv.c ****     /* This might not be necessary */
 603              		.loc 1 524 0
 604 0008 0426     		movs	r6, #4
 526:Generated_Source\PSoC5/USB_drv.c ****     /* Initialize the Status Block */
 605              		.loc 1 526 0
 606 000a 8024     		movs	r4, #128
 607              	.LBB48:
 608              	.LBB46:
 772:Generated_Source\PSoC5/USB_drv.c ****     if(USB_currentTD.pStatusBlock != NULL)
 609              		.loc 1 772 0
 610 000c 0022     		movs	r2, #0
 773:Generated_Source\PSoC5/USB_drv.c ****     {
 611              		.loc 1 773 0
 612 000e 114B     		ldr	r3, .L69+12
 613              	.LBE46:
 614              	.LBE48:
 524:Generated_Source\PSoC5/USB_drv.c ****     /* This might not be necessary */
 615              		.loc 1 524 0
 616 0010 2E70     		strb	r6, [r5]
 526:Generated_Source\PSoC5/USB_drv.c ****     /* Initialize the Status Block */
 617              		.loc 1 526 0
 618 0012 0470     		strb	r4, [r0]
 619              	.LBB49:
 620              	.LBB47:
 772:Generated_Source\PSoC5/USB_drv.c ****     if(USB_currentTD.pStatusBlock != NULL)
 621              		.loc 1 772 0
 622 0014 0A80     		strh	r2, [r1]	@ movhi
 773:Generated_Source\PSoC5/USB_drv.c ****     {
 623              		.loc 1 773 0
 624 0016 9968     		ldr	r1, [r3, #8]
 625 0018 19B1     		cbz	r1, .L63
 775:Generated_Source\PSoC5/USB_drv.c ****         USB_currentTD.pStatusBlock->length = 0u;
 626              		.loc 1 775 0
 627 001a 9968     		ldr	r1, [r3, #8]
 628 001c 0A70     		strb	r2, [r1]
 629              		.loc 1 776 0
 630 001e 9968     		ldr	r1, [r3, #8]
 631 0020 4A80     		strh	r2, [r1, #2]	@ movhi
 632              	.L63:
 633              	.LBE47:
 634              	.LBE49:
 530:Generated_Source\PSoC5/USB_drv.c **** 
 635              		.loc 1 530 0
 636 0022 0D49     		ldr	r1, .L69+16
 637 0024 0D4A     		ldr	r2, .L69+20
 638 0026 0878     		ldrb	r0, [r1]	@ zero_extendqisi2
 639 0028 1278     		ldrb	r2, [r2]	@ zero_extendqisi2
 532:Generated_Source\PSoC5/USB_drv.c ****     {
 640              		.loc 1 532 0
 641 002a 1988     		ldrh	r1, [r3]
 530:Generated_Source\PSoC5/USB_drv.c **** 
 642              		.loc 1 530 0
ARM GAS  C:\Users\anjmarqu\AppData\Local\Temp\ccm2MHx4.s 			page 28


 643 002c 42EA0023 		orr	r3, r2, r0, lsl #8
 644              	.LVL22:
 532:Generated_Source\PSoC5/USB_drv.c ****     {
 645              		.loc 1 532 0
 646 0030 8AB2     		uxth	r2, r1
 647 0032 0849     		ldr	r1, .L69+12
 648 0034 9342     		cmp	r3, r2
 534:Generated_Source\PSoC5/USB_drv.c ****     }
 649              		.loc 1 534 0
 650 0036 38BF     		it	cc
 651 0038 0B80     		strhcc	r3, [r1]	@ movhi
 538:Generated_Source\PSoC5/USB_drv.c **** 
 652              		.loc 1 538 0
 653 003a 094B     		ldr	r3, .L69+24
 654              	.LVL23:
 655 003c 0B22     		movs	r2, #11
 656 003e 1A70     		strb	r2, [r3]
 541:Generated_Source\PSoC5/USB_drv.c **** 
 657              		.loc 1 541 0
 658 0040 0120     		movs	r0, #1
 659 0042 70BC     		pop	{r4, r5, r6}
 660              		.cfi_restore 6
 661              		.cfi_restore 5
 662              		.cfi_restore 4
 663              		.cfi_def_cfa_offset 0
 664 0044 7047     		bx	lr
 665              	.L70:
 666 0046 00BF     		.align	2
 667              	.L69:
 668 0048 00000000 		.word	USB_transferByteCount
 669 004c 00000000 		.word	USB_transferState
 670 0050 00000000 		.word	USB_ep0Toggle
 671 0054 00000000 		.word	USB_currentTD
 672 0058 07600040 		.word	1073766407
 673 005c 06600040 		.word	1073766406
 674 0060 00000000 		.word	USB_ep0Mode
 675              		.cfi_endproc
 676              	.LFE9:
 677              		.size	USB_InitControlWrite, .-USB_InitControlWrite
 678              		.section	.text.USB_ControlWriteDataStage,"ax",%progbits
 679              		.align	2
 680              		.global	USB_ControlWriteDataStage
 681              		.thumb
 682              		.thumb_func
 683              		.type	USB_ControlWriteDataStage, %function
 684              	USB_ControlWriteDataStage:
 685              	.LFB10:
 575:Generated_Source\PSoC5/USB_drv.c ****     uint8 ep0Count;
 686              		.loc 1 575 0
 687              		.cfi_startproc
 688              		@ args = 0, pretend = 0, frame = 0
 689              		@ frame_needed = 0, uses_anonymous_args = 0
 690              		@ link register save eliminated.
 691              	.LVL24:
 692 0000 10B4     		push	{r4}
 693              		.cfi_def_cfa_offset 4
 694              		.cfi_offset 4, -4
ARM GAS  C:\Users\anjmarqu\AppData\Local\Temp\ccm2MHx4.s 			page 29


 579:Generated_Source\PSoC5/USB_drv.c ****                USB_EPX_CNTX_CRC_COUNT;
 695              		.loc 1 579 0
 696 0002 1C4B     		ldr	r3, .L85
 582:Generated_Source\PSoC5/USB_drv.c **** 
 697              		.loc 1 582 0
 698 0004 1C48     		ldr	r0, .L85+4
 579:Generated_Source\PSoC5/USB_drv.c ****                USB_EPX_CNTX_CRC_COUNT;
 699              		.loc 1 579 0
 700 0006 1978     		ldrb	r1, [r3]	@ zero_extendqisi2
 582:Generated_Source\PSoC5/USB_drv.c **** 
 701              		.loc 1 582 0
 702 0008 0288     		ldrh	r2, [r0]
 579:Generated_Source\PSoC5/USB_drv.c ****                USB_EPX_CNTX_CRC_COUNT;
 703              		.loc 1 579 0
 704 000a 01F00F01 		and	r1, r1, #15
 705 000e 0239     		subs	r1, r1, #2
 706 0010 C9B2     		uxtb	r1, r1
 707              	.LVL25:
 582:Generated_Source\PSoC5/USB_drv.c **** 
 708              		.loc 1 582 0
 709 0012 0A44     		add	r2, r2, r1
 710 0014 92B2     		uxth	r2, r2
 584:Generated_Source\PSoC5/USB_drv.c ****     {
 711              		.loc 1 584 0
 712 0016 194B     		ldr	r3, .L85+8
 582:Generated_Source\PSoC5/USB_drv.c **** 
 713              		.loc 1 582 0
 714 0018 0280     		strh	r2, [r0]	@ movhi
 584:Generated_Source\PSoC5/USB_drv.c ****     {
 715              		.loc 1 584 0
 716 001a 1A88     		ldrh	r2, [r3]
 717 001c 92B2     		uxth	r2, r2
 718 001e CAB1     		cbz	r2, .L72
 719 0020 0020     		movs	r0, #0
 720 0022 09B9     		cbnz	r1, .L74
 721 0024 23E0     		b	.L75
 722              	.LVL26:
 723              	.L84:
 584:Generated_Source\PSoC5/USB_drv.c ****     {
 724              		.loc 1 584 0 is_stmt 0 discriminator 1
 725 0026 11B3     		cbz	r1, .L75
 726              	.L74:
 727              	.LVL27:
 586:Generated_Source\PSoC5/USB_drv.c ****         USB_currentTD.pData = &USB_currentTD.pData[1u];
 728              		.loc 1 586 0 is_stmt 1
 729 0028 00F18042 		add	r2, r0, #1073741824
 730 002c 02F5C042 		add	r2, r2, #24576
 731 0030 5C68     		ldr	r4, [r3, #4]
 732 0032 1278     		ldrb	r2, [r2]	@ zero_extendqisi2
 589:Generated_Source\PSoC5/USB_drv.c ****         USB_currentTD.count--;
 733              		.loc 1 589 0
 734 0034 0139     		subs	r1, r1, #1
 735              	.LVL28:
 586:Generated_Source\PSoC5/USB_drv.c ****         USB_currentTD.pData = &USB_currentTD.pData[1u];
 736              		.loc 1 586 0
 737 0036 D2B2     		uxtb	r2, r2
 738 0038 2270     		strb	r2, [r4]
ARM GAS  C:\Users\anjmarqu\AppData\Local\Temp\ccm2MHx4.s 			page 30


 587:Generated_Source\PSoC5/USB_drv.c ****         regIndex++;
 739              		.loc 1 587 0
 740 003a 5A68     		ldr	r2, [r3, #4]
 589:Generated_Source\PSoC5/USB_drv.c ****         USB_currentTD.count--;
 741              		.loc 1 589 0
 742 003c C9B2     		uxtb	r1, r1
 587:Generated_Source\PSoC5/USB_drv.c ****         regIndex++;
 743              		.loc 1 587 0
 744 003e 0132     		adds	r2, r2, #1
 745 0040 5A60     		str	r2, [r3, #4]
 746              	.LVL29:
 590:Generated_Source\PSoC5/USB_drv.c ****     }
 747              		.loc 1 590 0
 748 0042 1A88     		ldrh	r2, [r3]
 749 0044 0130     		adds	r0, r0, #1
 750              	.LVL30:
 751 0046 013A     		subs	r2, r2, #1
 752 0048 92B2     		uxth	r2, r2
 753 004a 1A80     		strh	r2, [r3]	@ movhi
 584:Generated_Source\PSoC5/USB_drv.c ****     {
 754              		.loc 1 584 0
 755 004c 1A88     		ldrh	r2, [r3]
 756 004e 92B2     		uxth	r2, r2
 757 0050 002A     		cmp	r2, #0
 758 0052 E8D1     		bne	.L84
 759              	.LVL31:
 760              	.L72:
 592:Generated_Source\PSoC5/USB_drv.c ****     /* Update the data toggle */
 761              		.loc 1 592 0
 762 0054 0A4B     		ldr	r3, .L85+12
 594:Generated_Source\PSoC5/USB_drv.c ****     /* Expect Data or Status Stage */
 763              		.loc 1 594 0
 764 0056 0B4A     		ldr	r2, .L85+16
 592:Generated_Source\PSoC5/USB_drv.c ****     /* Update the data toggle */
 765              		.loc 1 592 0
 766 0058 1970     		strb	r1, [r3]
 594:Generated_Source\PSoC5/USB_drv.c ****     /* Expect Data or Status Stage */
 767              		.loc 1 594 0
 768 005a 1378     		ldrb	r3, [r2]	@ zero_extendqisi2
 596:Generated_Source\PSoC5/USB_drv.c **** }
 769              		.loc 1 596 0
 770 005c 0A49     		ldr	r1, .L85+20
 594:Generated_Source\PSoC5/USB_drv.c ****     /* Expect Data or Status Stage */
 771              		.loc 1 594 0
 772 005e 83F08003 		eor	r3, r3, #128
 596:Generated_Source\PSoC5/USB_drv.c **** }
 773              		.loc 1 596 0
 774 0062 0B20     		movs	r0, #11
 594:Generated_Source\PSoC5/USB_drv.c ****     /* Expect Data or Status Stage */
 775              		.loc 1 594 0
 776 0064 1370     		strb	r3, [r2]
 596:Generated_Source\PSoC5/USB_drv.c **** }
 777              		.loc 1 596 0
 778 0066 0870     		strb	r0, [r1]
 597:Generated_Source\PSoC5/USB_drv.c **** 
 779              		.loc 1 597 0
 780 0068 5DF8044B 		ldr	r4, [sp], #4
ARM GAS  C:\Users\anjmarqu\AppData\Local\Temp\ccm2MHx4.s 			page 31


 781              		.cfi_remember_state
 782              		.cfi_restore 4
 783              		.cfi_def_cfa_offset 0
 784 006c 7047     		bx	lr
 785              	.LVL32:
 786              	.L75:
 787              		.cfi_restore_state
 584:Generated_Source\PSoC5/USB_drv.c ****     {
 788              		.loc 1 584 0
 789 006e 0021     		movs	r1, #0
 790              	.LVL33:
 791 0070 F0E7     		b	.L72
 792              	.L86:
 793 0072 00BF     		.align	2
 794              	.L85:
 795 0074 29600040 		.word	1073766441
 796 0078 00000000 		.word	USB_transferByteCount
 797 007c 00000000 		.word	USB_currentTD
 798 0080 00000000 		.word	USB_ep0Count
 799 0084 00000000 		.word	USB_ep0Toggle
 800 0088 00000000 		.word	USB_ep0Mode
 801              		.cfi_endproc
 802              	.LFE10:
 803              		.size	USB_ControlWriteDataStage, .-USB_ControlWriteDataStage
 804              		.section	.text.USB_HandleOUT,"ax",%progbits
 805              		.align	2
 806              		.global	USB_HandleOUT
 807              		.thumb
 808              		.thumb_func
 809              		.type	USB_HandleOUT, %function
 810              	USB_HandleOUT:
 811              	.LFB3:
 246:Generated_Source\PSoC5/USB_drv.c ****     switch (USB_transferState)
 812              		.loc 1 246 0
 813              		.cfi_startproc
 814              		@ args = 0, pretend = 0, frame = 0
 815              		@ frame_needed = 0, uses_anonymous_args = 0
 816              		@ link register save eliminated.
 247:Generated_Source\PSoC5/USB_drv.c ****     {
 817              		.loc 1 247 0
 818 0000 0E4B     		ldr	r3, .L97
 819 0002 1B78     		ldrb	r3, [r3]	@ zero_extendqisi2
 820 0004 DBB2     		uxtb	r3, r3
 821 0006 042B     		cmp	r3, #4
 822 0008 16D0     		beq	.L89
 823 000a 062B     		cmp	r3, #6
 824 000c 04D0     		beq	.L90
 825 000e 022B     		cmp	r3, #2
 826 0010 00D0     		beq	.L96
 827 0012 7047     		bx	lr
 828              	.L96:
 252:Generated_Source\PSoC5/USB_drv.c ****             break;
 829              		.loc 1 252 0
 830 0014 FFF7FEBF 		b	USB_ControlReadStatusStage
 831              	.LVL34:
 832              	.L90:
 833              	.LBB54:
ARM GAS  C:\Users\anjmarqu\AppData\Local\Temp\ccm2MHx4.s 			page 32


 834              	.LBB55:
 835              	.LBB56:
 735:Generated_Source\PSoC5/USB_drv.c ****     {
 836              		.loc 1 735 0
 837 0018 094B     		ldr	r3, .L97+4
 838 001a 9A68     		ldr	r2, [r3, #8]
 839 001c 42B1     		cbz	r2, .L92
 737:Generated_Source\PSoC5/USB_drv.c ****         USB_currentTD.pStatusBlock->length = USB_transferByteCount;
 840              		.loc 1 737 0
 841 001e 9968     		ldr	r1, [r3, #8]
 842 0020 0320     		movs	r0, #3
 738:Generated_Source\PSoC5/USB_drv.c ****         USB_currentTD.pStatusBlock = NULL;
 843              		.loc 1 738 0
 844 0022 084A     		ldr	r2, .L97+8
 737:Generated_Source\PSoC5/USB_drv.c ****         USB_currentTD.pStatusBlock->length = USB_transferByteCount;
 845              		.loc 1 737 0
 846 0024 0870     		strb	r0, [r1]
 738:Generated_Source\PSoC5/USB_drv.c ****         USB_currentTD.pStatusBlock = NULL;
 847              		.loc 1 738 0
 848 0026 9968     		ldr	r1, [r3, #8]
 849 0028 1088     		ldrh	r0, [r2]
 739:Generated_Source\PSoC5/USB_drv.c ****     }
 850              		.loc 1 739 0
 851 002a 0022     		movs	r2, #0
 738:Generated_Source\PSoC5/USB_drv.c ****         USB_currentTD.pStatusBlock = NULL;
 852              		.loc 1 738 0
 853 002c 4880     		strh	r0, [r1, #2]	@ movhi
 739:Generated_Source\PSoC5/USB_drv.c ****     }
 854              		.loc 1 739 0
 855 002e 9A60     		str	r2, [r3, #8]
 856              	.L92:
 857              	.LBE56:
 858              	.LBE55:
 261:Generated_Source\PSoC5/USB_drv.c ****             break;
 859              		.loc 1 261 0
 860 0030 054B     		ldr	r3, .L97+12
 861 0032 0322     		movs	r2, #3
 862 0034 1A70     		strb	r2, [r3]
 863 0036 7047     		bx	lr
 864              	.LVL35:
 865              	.L89:
 866              	.LBE54:
 255:Generated_Source\PSoC5/USB_drv.c ****             break;
 867              		.loc 1 255 0
 868 0038 FFF7FEBF 		b	USB_ControlWriteDataStage
 869              	.LVL36:
 870              	.L98:
 871              		.align	2
 872              	.L97:
 873 003c 00000000 		.word	USB_transferState
 874 0040 00000000 		.word	USB_currentTD
 875 0044 00000000 		.word	USB_transferByteCount
 876 0048 00000000 		.word	USB_ep0Mode
 877              		.cfi_endproc
 878              	.LFE3:
 879              		.size	USB_HandleOUT, .-USB_HandleOUT
 880              		.section	.text.USB_ControlWriteStatusStage,"ax",%progbits
ARM GAS  C:\Users\anjmarqu\AppData\Local\Temp\ccm2MHx4.s 			page 33


 881              		.align	2
 882              		.global	USB_ControlWriteStatusStage
 883              		.thumb
 884              		.thumb_func
 885              		.type	USB_ControlWriteStatusStage, %function
 886              	USB_ControlWriteStatusStage:
 887              	.LFB11:
 622:Generated_Source\PSoC5/USB_drv.c ****     /* Go Idle */
 888              		.loc 1 622 0
 889              		.cfi_startproc
 890              		@ args = 0, pretend = 0, frame = 0
 891              		@ frame_needed = 0, uses_anonymous_args = 0
 892              		@ link register save eliminated.
 624:Generated_Source\PSoC5/USB_drv.c ****     /* Update the completion block */
 893              		.loc 1 624 0
 894 0000 0C49     		ldr	r1, .L106
 895 0002 0022     		movs	r2, #0
 896              	.LBB57:
 897              	.LBB58:
 735:Generated_Source\PSoC5/USB_drv.c ****     {
 898              		.loc 1 735 0
 899 0004 0C4B     		ldr	r3, .L106+4
 900              	.LBE58:
 901              	.LBE57:
 624:Generated_Source\PSoC5/USB_drv.c ****     /* Update the completion block */
 902              		.loc 1 624 0
 903 0006 0A70     		strb	r2, [r1]
 904              	.LVL37:
 905              	.LBB61:
 906              	.LBB59:
 735:Generated_Source\PSoC5/USB_drv.c ****     {
 907              		.loc 1 735 0
 908 0008 9968     		ldr	r1, [r3, #8]
 909 000a 71B1     		cbz	r1, .L105
 737:Generated_Source\PSoC5/USB_drv.c ****         USB_currentTD.pStatusBlock->length = USB_transferByteCount;
 910              		.loc 1 737 0
 911 000c 9968     		ldr	r1, [r3, #8]
 912              	.LBE59:
 913              	.LBE61:
 622:Generated_Source\PSoC5/USB_drv.c ****     /* Go Idle */
 914              		.loc 1 622 0
 915 000e 10B4     		push	{r4}
 916              		.cfi_def_cfa_offset 4
 917              		.cfi_offset 4, -4
 918              	.LBB62:
 919              	.LBB60:
 738:Generated_Source\PSoC5/USB_drv.c ****         USB_currentTD.pStatusBlock = NULL;
 920              		.loc 1 738 0
 921 0010 0A48     		ldr	r0, .L106+8
 737:Generated_Source\PSoC5/USB_drv.c ****         USB_currentTD.pStatusBlock->length = USB_transferByteCount;
 922              		.loc 1 737 0
 923 0012 0124     		movs	r4, #1
 924 0014 0C70     		strb	r4, [r1]
 738:Generated_Source\PSoC5/USB_drv.c ****         USB_currentTD.pStatusBlock = NULL;
 925              		.loc 1 738 0
 926 0016 9968     		ldr	r1, [r3, #8]
 927 0018 0088     		ldrh	r0, [r0]
ARM GAS  C:\Users\anjmarqu\AppData\Local\Temp\ccm2MHx4.s 			page 34


 928 001a 4880     		strh	r0, [r1, #2]	@ movhi
 739:Generated_Source\PSoC5/USB_drv.c ****     }
 929              		.loc 1 739 0
 930 001c 9A60     		str	r2, [r3, #8]
 931              	.LBE60:
 932              	.LBE62:
 628:Generated_Source\PSoC5/USB_drv.c **** }
 933              		.loc 1 628 0
 934 001e 084B     		ldr	r3, .L106+12
 935 0020 0322     		movs	r2, #3
 936 0022 1A70     		strb	r2, [r3]
 629:Generated_Source\PSoC5/USB_drv.c **** 
 937              		.loc 1 629 0
 938 0024 5DF8044B 		ldr	r4, [sp], #4
 939              		.cfi_restore 4
 940              		.cfi_def_cfa_offset 0
 941 0028 7047     		bx	lr
 942              	.L105:
 628:Generated_Source\PSoC5/USB_drv.c **** }
 943              		.loc 1 628 0
 944 002a 054B     		ldr	r3, .L106+12
 945 002c 0322     		movs	r2, #3
 946 002e 1A70     		strb	r2, [r3]
 947 0030 7047     		bx	lr
 948              	.L107:
 949 0032 00BF     		.align	2
 950              	.L106:
 951 0034 00000000 		.word	USB_transferState
 952 0038 00000000 		.word	USB_currentTD
 953 003c 00000000 		.word	USB_transferByteCount
 954 0040 00000000 		.word	USB_ep0Mode
 955              		.cfi_endproc
 956              	.LFE11:
 957              		.size	USB_ControlWriteStatusStage, .-USB_ControlWriteStatusStage
 958              		.section	.text.USB_InitNoDataControlTransfer,"ax",%progbits
 959              		.align	2
 960              		.global	USB_InitNoDataControlTransfer
 961              		.thumb
 962              		.thumb_func
 963              		.type	USB_InitNoDataControlTransfer, %function
 964              	USB_InitNoDataControlTransfer:
 965              	.LFB12:
 656:Generated_Source\PSoC5/USB_drv.c ****     USB_transferState = USB_TRANS_STATE_NO_DATA_CONTROL;
 966              		.loc 1 656 0
 967              		.cfi_startproc
 968              		@ args = 0, pretend = 0, frame = 0
 969              		@ frame_needed = 0, uses_anonymous_args = 0
 970              		@ link register save eliminated.
 971 0000 70B4     		push	{r4, r5, r6}
 972              		.cfi_def_cfa_offset 12
 973              		.cfi_offset 4, -12
 974              		.cfi_offset 5, -8
 975              		.cfi_offset 6, -4
 657:Generated_Source\PSoC5/USB_drv.c ****     USB_ep0Mode = USB_MODE_STATUS_IN_ONLY;
 976              		.loc 1 657 0
 977 0002 0748     		ldr	r0, .L110
 658:Generated_Source\PSoC5/USB_drv.c ****     USB_ep0Toggle = USB_EP0_CNT_DATA_TOGGLE;
ARM GAS  C:\Users\anjmarqu\AppData\Local\Temp\ccm2MHx4.s 			page 35


 978              		.loc 1 658 0
 979 0004 074E     		ldr	r6, .L110+4
 659:Generated_Source\PSoC5/USB_drv.c ****     USB_ep0Count = 0u;
 980              		.loc 1 659 0
 981 0006 084C     		ldr	r4, .L110+8
 660:Generated_Source\PSoC5/USB_drv.c **** 
 982              		.loc 1 660 0
 983 0008 084A     		ldr	r2, .L110+12
 657:Generated_Source\PSoC5/USB_drv.c ****     USB_ep0Mode = USB_MODE_STATUS_IN_ONLY;
 984              		.loc 1 657 0
 985 000a 0623     		movs	r3, #6
 659:Generated_Source\PSoC5/USB_drv.c ****     USB_ep0Count = 0u;
 986              		.loc 1 659 0
 987 000c 8025     		movs	r5, #128
 660:Generated_Source\PSoC5/USB_drv.c **** 
 988              		.loc 1 660 0
 989 000e 0021     		movs	r1, #0
 657:Generated_Source\PSoC5/USB_drv.c ****     USB_ep0Mode = USB_MODE_STATUS_IN_ONLY;
 990              		.loc 1 657 0
 991 0010 0370     		strb	r3, [r0]
 658:Generated_Source\PSoC5/USB_drv.c ****     USB_ep0Toggle = USB_EP0_CNT_DATA_TOGGLE;
 992              		.loc 1 658 0
 993 0012 3370     		strb	r3, [r6]
 659:Generated_Source\PSoC5/USB_drv.c ****     USB_ep0Count = 0u;
 994              		.loc 1 659 0
 995 0014 2570     		strb	r5, [r4]
 660:Generated_Source\PSoC5/USB_drv.c **** 
 996              		.loc 1 660 0
 997 0016 1170     		strb	r1, [r2]
 663:Generated_Source\PSoC5/USB_drv.c **** 
 998              		.loc 1 663 0
 999 0018 0120     		movs	r0, #1
 1000 001a 70BC     		pop	{r4, r5, r6}
 1001              		.cfi_restore 6
 1002              		.cfi_restore 5
 1003              		.cfi_restore 4
 1004              		.cfi_def_cfa_offset 0
 1005 001c 7047     		bx	lr
 1006              	.L111:
 1007 001e 00BF     		.align	2
 1008              	.L110:
 1009 0020 00000000 		.word	USB_transferState
 1010 0024 00000000 		.word	USB_ep0Mode
 1011 0028 00000000 		.word	USB_ep0Toggle
 1012 002c 00000000 		.word	USB_ep0Count
 1013              		.cfi_endproc
 1014              	.LFE12:
 1015              		.size	USB_InitNoDataControlTransfer, .-USB_InitNoDataControlTransfer
 1016              		.section	.text.USB_NoDataControlStatusStage,"ax",%progbits
 1017              		.align	2
 1018              		.global	USB_NoDataControlStatusStage
 1019              		.thumb
 1020              		.thumb_func
 1021              		.type	USB_NoDataControlStatusStage, %function
 1022              	USB_NoDataControlStatusStage:
 1023              	.LFB13:
 692:Generated_Source\PSoC5/USB_drv.c ****     /* Change the USB address register if we got a SET_ADDRESS. */
ARM GAS  C:\Users\anjmarqu\AppData\Local\Temp\ccm2MHx4.s 			page 36


 1024              		.loc 1 692 0
 1025              		.cfi_startproc
 1026              		@ args = 0, pretend = 0, frame = 0
 1027              		@ frame_needed = 0, uses_anonymous_args = 0
 1028              		@ link register save eliminated.
 694:Generated_Source\PSoC5/USB_drv.c ****     {
 1029              		.loc 1 694 0
 1030 0000 114B     		ldr	r3, .L123
 1031 0002 1A78     		ldrb	r2, [r3]	@ zero_extendqisi2
 1032 0004 32B1     		cbz	r2, .L113
 696:Generated_Source\PSoC5/USB_drv.c ****         USB_deviceAddress = 0u;
 1033              		.loc 1 696 0
 1034 0006 1A78     		ldrb	r2, [r3]	@ zero_extendqisi2
 1035 0008 1048     		ldr	r0, .L123+4
 1036 000a 42F08002 		orr	r2, r2, #128
 697:Generated_Source\PSoC5/USB_drv.c ****     }
 1037              		.loc 1 697 0
 1038 000e 0021     		movs	r1, #0
 696:Generated_Source\PSoC5/USB_drv.c ****         USB_deviceAddress = 0u;
 1039              		.loc 1 696 0
 1040 0010 0270     		strb	r2, [r0]
 697:Generated_Source\PSoC5/USB_drv.c ****     }
 1041              		.loc 1 697 0
 1042 0012 1970     		strb	r1, [r3]
 1043              	.L113:
 700:Generated_Source\PSoC5/USB_drv.c ****     /* Update the completion block */
 1044              		.loc 1 700 0
 1045 0014 0E49     		ldr	r1, .L123+8
 1046 0016 0022     		movs	r2, #0
 1047              	.LBB63:
 1048              	.LBB64:
 735:Generated_Source\PSoC5/USB_drv.c ****     {
 1049              		.loc 1 735 0
 1050 0018 0E4B     		ldr	r3, .L123+12
 1051              	.LBE64:
 1052              	.LBE63:
 700:Generated_Source\PSoC5/USB_drv.c ****     /* Update the completion block */
 1053              		.loc 1 700 0
 1054 001a 0A70     		strb	r2, [r1]
 1055              	.LVL38:
 1056              	.LBB67:
 1057              	.LBB65:
 735:Generated_Source\PSoC5/USB_drv.c ****     {
 1058              		.loc 1 735 0
 1059 001c 9968     		ldr	r1, [r3, #8]
 1060 001e 71B1     		cbz	r1, .L122
 737:Generated_Source\PSoC5/USB_drv.c ****         USB_currentTD.pStatusBlock->length = USB_transferByteCount;
 1061              		.loc 1 737 0
 1062 0020 9968     		ldr	r1, [r3, #8]
 1063              	.LBE65:
 1064              	.LBE67:
 692:Generated_Source\PSoC5/USB_drv.c ****     /* Change the USB address register if we got a SET_ADDRESS. */
 1065              		.loc 1 692 0
 1066 0022 10B4     		push	{r4}
 1067              		.cfi_def_cfa_offset 4
 1068              		.cfi_offset 4, -4
 1069              	.LBB68:
ARM GAS  C:\Users\anjmarqu\AppData\Local\Temp\ccm2MHx4.s 			page 37


 1070              	.LBB66:
 738:Generated_Source\PSoC5/USB_drv.c ****         USB_currentTD.pStatusBlock = NULL;
 1071              		.loc 1 738 0
 1072 0024 0C48     		ldr	r0, .L123+16
 737:Generated_Source\PSoC5/USB_drv.c ****         USB_currentTD.pStatusBlock->length = USB_transferByteCount;
 1073              		.loc 1 737 0
 1074 0026 0124     		movs	r4, #1
 1075 0028 0C70     		strb	r4, [r1]
 738:Generated_Source\PSoC5/USB_drv.c ****         USB_currentTD.pStatusBlock = NULL;
 1076              		.loc 1 738 0
 1077 002a 9968     		ldr	r1, [r3, #8]
 1078 002c 0088     		ldrh	r0, [r0]
 1079 002e 4880     		strh	r0, [r1, #2]	@ movhi
 739:Generated_Source\PSoC5/USB_drv.c ****     }
 1080              		.loc 1 739 0
 1081 0030 9A60     		str	r2, [r3, #8]
 1082              	.LBE66:
 1083              	.LBE68:
 704:Generated_Source\PSoC5/USB_drv.c **** }
 1084              		.loc 1 704 0
 1085 0032 0A4B     		ldr	r3, .L123+20
 1086 0034 0322     		movs	r2, #3
 1087 0036 1A70     		strb	r2, [r3]
 705:Generated_Source\PSoC5/USB_drv.c **** 
 1088              		.loc 1 705 0
 1089 0038 5DF8044B 		ldr	r4, [sp], #4
 1090              		.cfi_restore 4
 1091              		.cfi_def_cfa_offset 0
 1092 003c 7047     		bx	lr
 1093              	.L122:
 704:Generated_Source\PSoC5/USB_drv.c **** }
 1094              		.loc 1 704 0
 1095 003e 074B     		ldr	r3, .L123+20
 1096 0040 0322     		movs	r2, #3
 1097 0042 1A70     		strb	r2, [r3]
 1098 0044 7047     		bx	lr
 1099              	.L124:
 1100 0046 00BF     		.align	2
 1101              	.L123:
 1102 0048 00000000 		.word	USB_deviceAddress
 1103 004c 08600040 		.word	1073766408
 1104 0050 00000000 		.word	USB_transferState
 1105 0054 00000000 		.word	USB_currentTD
 1106 0058 00000000 		.word	USB_transferByteCount
 1107 005c 00000000 		.word	USB_ep0Mode
 1108              		.cfi_endproc
 1109              	.LFE13:
 1110              		.size	USB_NoDataControlStatusStage, .-USB_NoDataControlStatusStage
 1111              		.section	.text.USB_HandleIN,"ax",%progbits
 1112              		.align	2
 1113              		.global	USB_HandleIN
 1114              		.thumb
 1115              		.thumb_func
 1116              		.type	USB_HandleIN, %function
 1117              	USB_HandleIN:
 1118              	.LFB2:
 208:Generated_Source\PSoC5/USB_drv.c ****     switch (USB_transferState)
ARM GAS  C:\Users\anjmarqu\AppData\Local\Temp\ccm2MHx4.s 			page 38


 1119              		.loc 1 208 0
 1120              		.cfi_startproc
 1121              		@ args = 0, pretend = 0, frame = 0
 1122              		@ frame_needed = 0, uses_anonymous_args = 0
 1123              		@ link register save eliminated.
 209:Generated_Source\PSoC5/USB_drv.c ****     {
 1124              		.loc 1 209 0
 1125 0000 124A     		ldr	r2, .L138
 1126 0002 1378     		ldrb	r3, [r2]	@ zero_extendqisi2
 1127 0004 DBB2     		uxtb	r3, r3
 1128 0006 042B     		cmp	r3, #4
 1129 0008 07D0     		beq	.L127
 1130 000a 062B     		cmp	r3, #6
 1131 000c 03D0     		beq	.L128
 1132 000e 022B     		cmp	r3, #2
 1133 0010 16D1     		bne	.L137
 1134              	.LBB79:
 1135              	.LBB80:
 458:Generated_Source\PSoC5/USB_drv.c **** }
 1136              		.loc 1 458 0
 1137 0012 FFF7FEBF 		b	USB_LoadEP0
 1138              	.L128:
 1139              	.LBE80:
 1140              	.LBE79:
 220:Generated_Source\PSoC5/USB_drv.c ****             break;
 1141              		.loc 1 220 0
 1142 0016 FFF7FEBF 		b	USB_NoDataControlStatusStage
 1143              	.L127:
 1144              	.LBB81:
 1145              	.LBB82:
 624:Generated_Source\PSoC5/USB_drv.c ****     /* Update the completion block */
 1146              		.loc 1 624 0
 1147 001a 0021     		movs	r1, #0
 1148              	.LBB83:
 1149              	.LBB84:
 735:Generated_Source\PSoC5/USB_drv.c ****     {
 1150              		.loc 1 735 0
 1151 001c 0C4B     		ldr	r3, .L138+4
 1152              	.LBE84:
 1153              	.LBE83:
 624:Generated_Source\PSoC5/USB_drv.c ****     /* Update the completion block */
 1154              		.loc 1 624 0
 1155 001e 1170     		strb	r1, [r2]
 1156              	.LBB87:
 1157              	.LBB85:
 735:Generated_Source\PSoC5/USB_drv.c ****     {
 1158              		.loc 1 735 0
 1159 0020 9A68     		ldr	r2, [r3, #8]
 1160 0022 72B1     		cbz	r2, .L135
 737:Generated_Source\PSoC5/USB_drv.c ****         USB_currentTD.pStatusBlock->length = USB_transferByteCount;
 1161              		.loc 1 737 0
 1162 0024 9A68     		ldr	r2, [r3, #8]
 1163              	.LBE85:
 1164              	.LBE87:
 1165              	.LBE82:
 1166              	.LBE81:
 208:Generated_Source\PSoC5/USB_drv.c ****     switch (USB_transferState)
ARM GAS  C:\Users\anjmarqu\AppData\Local\Temp\ccm2MHx4.s 			page 39


 1167              		.loc 1 208 0
 1168 0026 10B4     		push	{r4}
 1169              		.cfi_def_cfa_offset 4
 1170              		.cfi_offset 4, -4
 1171              	.LBB91:
 1172              	.LBB89:
 1173              	.LBB88:
 1174              	.LBB86:
 738:Generated_Source\PSoC5/USB_drv.c ****         USB_currentTD.pStatusBlock = NULL;
 1175              		.loc 1 738 0
 1176 0028 0A48     		ldr	r0, .L138+8
 737:Generated_Source\PSoC5/USB_drv.c ****         USB_currentTD.pStatusBlock->length = USB_transferByteCount;
 1177              		.loc 1 737 0
 1178 002a 0124     		movs	r4, #1
 1179 002c 1470     		strb	r4, [r2]
 738:Generated_Source\PSoC5/USB_drv.c ****         USB_currentTD.pStatusBlock = NULL;
 1180              		.loc 1 738 0
 1181 002e 9A68     		ldr	r2, [r3, #8]
 1182 0030 0088     		ldrh	r0, [r0]
 1183 0032 5080     		strh	r0, [r2, #2]	@ movhi
 739:Generated_Source\PSoC5/USB_drv.c ****     }
 1184              		.loc 1 739 0
 1185 0034 9960     		str	r1, [r3, #8]
 1186              	.LBE86:
 1187              	.LBE88:
 628:Generated_Source\PSoC5/USB_drv.c **** }
 1188              		.loc 1 628 0
 1189 0036 084B     		ldr	r3, .L138+12
 1190 0038 0322     		movs	r2, #3
 1191 003a 1A70     		strb	r2, [r3]
 1192              	.LBE89:
 1193              	.LBE91:
 225:Generated_Source\PSoC5/USB_drv.c **** 
 1194              		.loc 1 225 0
 1195 003c 5DF8044B 		ldr	r4, [sp], #4
 1196              		.cfi_restore 4
 1197              		.cfi_def_cfa_offset 0
 1198              	.L137:
 1199 0040 7047     		bx	lr
 1200              	.L135:
 1201              	.LBB92:
 1202              	.LBB90:
 628:Generated_Source\PSoC5/USB_drv.c **** }
 1203              		.loc 1 628 0
 1204 0042 054B     		ldr	r3, .L138+12
 1205 0044 0322     		movs	r2, #3
 1206 0046 1A70     		strb	r2, [r3]
 1207 0048 7047     		bx	lr
 1208              	.L139:
 1209 004a 00BF     		.align	2
 1210              	.L138:
 1211 004c 00000000 		.word	USB_transferState
 1212 0050 00000000 		.word	USB_currentTD
 1213 0054 00000000 		.word	USB_transferByteCount
 1214 0058 00000000 		.word	USB_ep0Mode
 1215              	.LBE90:
 1216              	.LBE92:
ARM GAS  C:\Users\anjmarqu\AppData\Local\Temp\ccm2MHx4.s 			page 40


 1217              		.cfi_endproc
 1218              	.LFE2:
 1219              		.size	USB_HandleIN, .-USB_HandleIN
 1220              		.section	.text.USB_EP_0_ISR,"ax",%progbits
 1221              		.align	2
 1222              		.global	USB_EP_0_ISR
 1223              		.thumb
 1224              		.thumb_func
 1225              		.type	USB_EP_0_ISR, %function
 1226              	USB_EP_0_ISR:
 1227              	.LFB0:
  67:Generated_Source\PSoC5/USB_drv.c ****     uint8 bRegTemp;
 1228              		.loc 1 67 0
 1229              		.cfi_startproc
 1230              		@ args = 0, pretend = 0, frame = 0
 1231              		@ frame_needed = 0, uses_anonymous_args = 0
 1232 0000 10B5     		push	{r4, lr}
 1233              		.cfi_def_cfa_offset 8
 1234              		.cfi_offset 4, -8
 1235              		.cfi_offset 14, -4
  72:Generated_Source\PSoC5/USB_drv.c ****     if ((bRegTemp & USB_MODE_ACKD) != 0u)
 1236              		.loc 1 72 0
 1237 0002 1D4B     		ldr	r3, .L159
 1238 0004 1B78     		ldrb	r3, [r3]	@ zero_extendqisi2
 1239 0006 DBB2     		uxtb	r3, r3
 1240              	.LVL39:
  73:Generated_Source\PSoC5/USB_drv.c ****     {
 1241              		.loc 1 73 0
 1242 0008 DC06     		lsls	r4, r3, #27
 1243 000a 05D5     		bpl	.L140
 1244              	.LVL40:
  76:Generated_Source\PSoC5/USB_drv.c ****         {
 1245              		.loc 1 76 0
 1246 000c 1806     		lsls	r0, r3, #24
 1247 000e 04D4     		bmi	.L156
  92:Generated_Source\PSoC5/USB_drv.c ****         {
 1248              		.loc 1 92 0
 1249 0010 5A06     		lsls	r2, r3, #25
 1250 0012 2ED4     		bmi	.L157
  96:Generated_Source\PSoC5/USB_drv.c ****         {
 1251              		.loc 1 96 0
 1252 0014 9C06     		lsls	r4, r3, #26
 1253 0016 0BD4     		bmi	.L158
 1254              	.LVL41:
 1255              	.L140:
 1256 0018 10BD     		pop	{r4, pc}
 1257              	.LVL42:
 1258              	.L156:
  78:Generated_Source\PSoC5/USB_drv.c ****             {
 1259              		.loc 1 78 0
 1260 001a 03F00F03 		and	r3, r3, #15
 1261              	.LVL43:
 1262 001e 012B     		cmp	r3, #1
 1263 0020 FAD1     		bne	.L140
  84:Generated_Source\PSoC5/USB_drv.c ****                 if((USB_ep0Mode & USB_MODE_SETUP_RCVD) != 0u)
 1264              		.loc 1 84 0
 1265 0022 FFF7FEFF 		bl	USB_HandleSetup
ARM GAS  C:\Users\anjmarqu\AppData\Local\Temp\ccm2MHx4.s 			page 41


 1266              	.LVL44:
  85:Generated_Source\PSoC5/USB_drv.c ****                 {
 1267              		.loc 1 85 0
 1268 0026 1549     		ldr	r1, .L159+4
 1269 0028 0B78     		ldrb	r3, [r1]	@ zero_extendqisi2
 1270 002a 1906     		lsls	r1, r3, #24
 1271 002c 02D5     		bpl	.L145
 1272 002e 10BD     		pop	{r4, pc}
 1273              	.LVL45:
 1274              	.L158:
  98:Generated_Source\PSoC5/USB_drv.c ****         }
 1275              		.loc 1 98 0
 1276 0030 FFF7FEFF 		bl	USB_HandleOUT
 1277              	.LVL46:
 1278              	.L145:
 106:Generated_Source\PSoC5/USB_drv.c ****             if((bRegTemp & USB_MODE_SETUP_RCVD) == 0u)  /* Check if SETUP bit is not set, otherwise
 1279              		.loc 1 106 0
 1280 0034 104A     		ldr	r2, .L159
 1281 0036 1378     		ldrb	r3, [r2]	@ zero_extendqisi2
 1282              	.LVL47:
 107:Generated_Source\PSoC5/USB_drv.c ****             {
 1283              		.loc 1 107 0
 1284 0038 1B06     		lsls	r3, r3, #24
 1285              	.LVL48:
 1286 003a EDD4     		bmi	.L140
 110:Generated_Source\PSoC5/USB_drv.c ****                 CY_SET_REG8(USB_EP0_CNT_PTR, bRegTemp);
 1287              		.loc 1 110 0
 1288 003c 1049     		ldr	r1, .L159+8
 1289 003e 114B     		ldr	r3, .L159+12
 1290 0040 1B78     		ldrb	r3, [r3]	@ zero_extendqisi2
 1291 0042 0878     		ldrb	r0, [r1]	@ zero_extendqisi2
 111:Generated_Source\PSoC5/USB_drv.c ****                 if(bRegTemp == CY_GET_REG8(USB_EP0_CNT_PTR))   /* continue if writing was successfu
 1292              		.loc 1 111 0
 1293 0044 1049     		ldr	r1, .L159+16
 110:Generated_Source\PSoC5/USB_drv.c ****                 CY_SET_REG8(USB_EP0_CNT_PTR, bRegTemp);
 1294              		.loc 1 110 0
 1295 0046 0343     		orrs	r3, r3, r0
 1296              	.LVL49:
 111:Generated_Source\PSoC5/USB_drv.c ****                 if(bRegTemp == CY_GET_REG8(USB_EP0_CNT_PTR))   /* continue if writing was successfu
 1297              		.loc 1 111 0
 1298 0048 0B70     		strb	r3, [r1]
 112:Generated_Source\PSoC5/USB_drv.c ****                 {
 1299              		.loc 1 112 0
 1300 004a 0978     		ldrb	r1, [r1]	@ zero_extendqisi2
 1301 004c 9942     		cmp	r1, r3
 1302 004e E3D1     		bne	.L140
 1303 0050 0A49     		ldr	r1, .L159+4
 116:Generated_Source\PSoC5/USB_drv.c ****                         /* Unlock registers */
 1304              		.loc 1 116 0
 1305 0052 0C46     		mov	r4, r1
 1306              	.LVL50:
 1307              	.L149:
 1308 0054 0B78     		ldrb	r3, [r1]	@ zero_extendqisi2
 118:Generated_Source\PSoC5/USB_drv.c ****                         if(bRegTemp == 0u)                          /* Check if SETUP bit is not se
 1309              		.loc 1 118 0
 1310 0056 1078     		ldrb	r0, [r2]	@ zero_extendqisi2
 116:Generated_Source\PSoC5/USB_drv.c ****                         /* Unlock registers */
ARM GAS  C:\Users\anjmarqu\AppData\Local\Temp\ccm2MHx4.s 			page 42


 1311              		.loc 1 116 0
 1312 0058 DBB2     		uxtb	r3, r3
 1313              	.LVL51:
 119:Generated_Source\PSoC5/USB_drv.c ****                         {
 1314              		.loc 1 119 0
 1315 005a 0006     		lsls	r0, r0, #24
 1316              	.LVL52:
 1317 005c 05D4     		bmi	.L148
 122:Generated_Source\PSoC5/USB_drv.c ****                             /* Writing check */
 1318              		.loc 1 122 0
 1319 005e 2378     		ldrb	r3, [r4]	@ zero_extendqisi2
 1320              	.LVL53:
 1321 0060 DBB2     		uxtb	r3, r3
 1322 0062 1370     		strb	r3, [r2]
 124:Generated_Source\PSoC5/USB_drv.c ****                         }
 1323              		.loc 1 124 0
 1324 0064 1378     		ldrb	r3, [r2]	@ zero_extendqisi2
 1325 0066 03F00F03 		and	r3, r3, #15
 1326              	.LVL54:
 1327              	.L148:
 126:Generated_Source\PSoC5/USB_drv.c ****                 }
 1328              		.loc 1 126 0
 1329 006a 0878     		ldrb	r0, [r1]	@ zero_extendqisi2
 1330 006c 8342     		cmp	r3, r0
 1331 006e F1D1     		bne	.L149
 1332 0070 10BD     		pop	{r4, pc}
 1333              	.LVL55:
 1334              	.L157:
  94:Generated_Source\PSoC5/USB_drv.c ****         }
 1335              		.loc 1 94 0
 1336 0072 FFF7FEFF 		bl	USB_HandleIN
 1337              	.LVL56:
 1338 0076 DDE7     		b	.L145
 1339              	.L160:
 1340              		.align	2
 1341              	.L159:
 1342 0078 28600040 		.word	1073766440
 1343 007c 00000000 		.word	USB_ep0Mode
 1344 0080 00000000 		.word	USB_ep0Count
 1345 0084 00000000 		.word	USB_ep0Toggle
 1346 0088 29600040 		.word	1073766441
 1347              		.cfi_endproc
 1348              	.LFE0:
 1349              		.size	USB_EP_0_ISR, .-USB_EP_0_ISR
 1350              		.section	.text.USB_UpdateStatusBlock,"ax",%progbits
 1351              		.align	2
 1352              		.global	USB_UpdateStatusBlock
 1353              		.thumb
 1354              		.thumb_func
 1355              		.type	USB_UpdateStatusBlock, %function
 1356              	USB_UpdateStatusBlock:
 1357              	.LFB14:
 734:Generated_Source\PSoC5/USB_drv.c ****     if (USB_currentTD.pStatusBlock != NULL)
 1358              		.loc 1 734 0
 1359              		.cfi_startproc
 1360              		@ args = 0, pretend = 0, frame = 0
 1361              		@ frame_needed = 0, uses_anonymous_args = 0
ARM GAS  C:\Users\anjmarqu\AppData\Local\Temp\ccm2MHx4.s 			page 43


 1362              		@ link register save eliminated.
 1363              	.LVL57:
 735:Generated_Source\PSoC5/USB_drv.c ****     {
 1364              		.loc 1 735 0
 1365 0000 054B     		ldr	r3, .L166
 1366 0002 9A68     		ldr	r2, [r3, #8]
 1367 0004 3AB1     		cbz	r2, .L161
 737:Generated_Source\PSoC5/USB_drv.c ****         USB_currentTD.pStatusBlock->length = USB_transferByteCount;
 1368              		.loc 1 737 0
 1369 0006 9968     		ldr	r1, [r3, #8]
 738:Generated_Source\PSoC5/USB_drv.c ****         USB_currentTD.pStatusBlock = NULL;
 1370              		.loc 1 738 0
 1371 0008 044A     		ldr	r2, .L166+4
 737:Generated_Source\PSoC5/USB_drv.c ****         USB_currentTD.pStatusBlock->length = USB_transferByteCount;
 1372              		.loc 1 737 0
 1373 000a 0870     		strb	r0, [r1]
 738:Generated_Source\PSoC5/USB_drv.c ****         USB_currentTD.pStatusBlock = NULL;
 1374              		.loc 1 738 0
 1375 000c 9968     		ldr	r1, [r3, #8]
 1376 000e 1088     		ldrh	r0, [r2]
 1377              	.LVL58:
 739:Generated_Source\PSoC5/USB_drv.c ****     }
 1378              		.loc 1 739 0
 1379 0010 0022     		movs	r2, #0
 738:Generated_Source\PSoC5/USB_drv.c ****         USB_currentTD.pStatusBlock = NULL;
 1380              		.loc 1 738 0
 1381 0012 4880     		strh	r0, [r1, #2]	@ movhi
 739:Generated_Source\PSoC5/USB_drv.c ****     }
 1382              		.loc 1 739 0
 1383 0014 9A60     		str	r2, [r3, #8]
 1384              	.L161:
 1385 0016 7047     		bx	lr
 1386              	.L167:
 1387              		.align	2
 1388              	.L166:
 1389 0018 00000000 		.word	USB_currentTD
 1390 001c 00000000 		.word	USB_transferByteCount
 1391              		.cfi_endproc
 1392              	.LFE14:
 1393              		.size	USB_UpdateStatusBlock, .-USB_UpdateStatusBlock
 1394              		.section	.text.USB_InitializeStatusBlock,"ax",%progbits
 1395              		.align	2
 1396              		.global	USB_InitializeStatusBlock
 1397              		.thumb
 1398              		.thumb_func
 1399              		.type	USB_InitializeStatusBlock, %function
 1400              	USB_InitializeStatusBlock:
 1401              	.LFB15:
 771:Generated_Source\PSoC5/USB_drv.c ****     USB_transferByteCount = 0u;
 1402              		.loc 1 771 0
 1403              		.cfi_startproc
 1404              		@ args = 0, pretend = 0, frame = 0
 1405              		@ frame_needed = 0, uses_anonymous_args = 0
 1406              		@ link register save eliminated.
 772:Generated_Source\PSoC5/USB_drv.c ****     if(USB_currentTD.pStatusBlock != NULL)
 1407              		.loc 1 772 0
 1408 0000 0549     		ldr	r1, .L173
ARM GAS  C:\Users\anjmarqu\AppData\Local\Temp\ccm2MHx4.s 			page 44


 1409 0002 0023     		movs	r3, #0
 773:Generated_Source\PSoC5/USB_drv.c ****     {
 1410              		.loc 1 773 0
 1411 0004 054A     		ldr	r2, .L173+4
 772:Generated_Source\PSoC5/USB_drv.c ****     if(USB_currentTD.pStatusBlock != NULL)
 1412              		.loc 1 772 0
 1413 0006 0B80     		strh	r3, [r1]	@ movhi
 773:Generated_Source\PSoC5/USB_drv.c ****     {
 1414              		.loc 1 773 0
 1415 0008 9168     		ldr	r1, [r2, #8]
 1416 000a 19B1     		cbz	r1, .L168
 775:Generated_Source\PSoC5/USB_drv.c ****         USB_currentTD.pStatusBlock->length = 0u;
 1417              		.loc 1 775 0
 1418 000c 9168     		ldr	r1, [r2, #8]
 1419 000e 0B70     		strb	r3, [r1]
 1420              		.loc 1 776 0
 1421 0010 9268     		ldr	r2, [r2, #8]
 1422 0012 5380     		strh	r3, [r2, #2]	@ movhi
 1423              	.L168:
 1424 0014 7047     		bx	lr
 1425              	.L174:
 1426 0016 00BF     		.align	2
 1427              	.L173:
 1428 0018 00000000 		.word	USB_transferByteCount
 1429 001c 00000000 		.word	USB_currentTD
 1430              		.cfi_endproc
 1431              	.LFE15:
 1432              		.size	USB_InitializeStatusBlock, .-USB_InitializeStatusBlock
 1433              		.comm	USB_transferByteCount,2,2
 1434              		.comm	USB_ep0Count,1,1
 1435              		.comm	USB_ep0Mode,1,1
 1436              		.comm	USB_currentTD,12,4
 1437              		.comm	USB_transferState,1,1
 1438              		.comm	USB_lastPacketSize,1,1
 1439              		.comm	USB_ep0Toggle,1,1
 1440              		.comm	USB_interfaceClass,4,4
 1441              		.comm	USB_device,1,1
 1442              		.comm	USB_interfaceStatus,2,4
 1443              		.comm	USB_interfaceSetting_last,2,4
 1444              		.comm	USB_interfaceSetting,2,4
 1445              		.comm	USB_deviceStatus,1,1
 1446              		.comm	USB_deviceAddress,1,1
 1447              		.comm	USB_configurationChanged,1,1
 1448              		.comm	USB_interfaceNumber,1,1
 1449              		.comm	USB_configuration,1,1
 1450              		.comm	USB_EP,108,4
 1451              		.text
 1452              	.Letext0:
 1453              		.file 2 "Generated_Source\\PSoC5\\cytypes.h"
 1454              		.file 3 "Generated_Source\\PSoC5\\USB.h"
 1455              		.file 4 "Generated_Source\\PSoC5\\USB_pvt.h"