ARM GAS  C:\Users\mgronber\AppData\Local\Temp\ccC6jz8z.s 			page 1


   1              		.syntax unified
   2              		.cpu cortex-m3
   3              		.fpu softvfp
   4              		.eabi_attribute 20, 1
   5              		.eabi_attribute 21, 1
   6              		.eabi_attribute 23, 3
   7              		.eabi_attribute 24, 1
   8              		.eabi_attribute 25, 1
   9              		.eabi_attribute 26, 1
  10              		.eabi_attribute 30, 2
  11              		.eabi_attribute 34, 1
  12              		.eabi_attribute 18, 4
  13              		.thumb
  14              		.file	"USB_pm.c"
  15              		.text
  16              	.Ltext0:
  17              		.cfi_sections	.debug_frame
  18              		.section	.text.USB_DP_ISR,"ax",%progbits
  19              		.align	2
  20              		.global	USB_DP_ISR
  21              		.thumb
  22              		.thumb_func
  23              		.type	USB_DP_ISR, %function
  24              	USB_DP_ISR:
  25              	.LFB56:
  26              		.file 1 "Generated_Source\\PSoC5\\USB_pm.c"
   1:Generated_Source\PSoC5/USB_pm.c **** /*******************************************************************************
   2:Generated_Source\PSoC5/USB_pm.c **** * File Name: USB_pm.c
   3:Generated_Source\PSoC5/USB_pm.c **** * Version 2.70
   4:Generated_Source\PSoC5/USB_pm.c **** *
   5:Generated_Source\PSoC5/USB_pm.c **** * Description:
   6:Generated_Source\PSoC5/USB_pm.c **** *  This file provides Suspend/Resume APIs functionality.
   7:Generated_Source\PSoC5/USB_pm.c **** *
   8:Generated_Source\PSoC5/USB_pm.c **** * Note:
   9:Generated_Source\PSoC5/USB_pm.c **** *
  10:Generated_Source\PSoC5/USB_pm.c **** ********************************************************************************
  11:Generated_Source\PSoC5/USB_pm.c **** * Copyright 2008-2013, Cypress Semiconductor Corporation.  All rights reserved.
  12:Generated_Source\PSoC5/USB_pm.c **** * You may use this file only in accordance with the license, terms, conditions,
  13:Generated_Source\PSoC5/USB_pm.c **** * disclaimers, and limitations in the end user license agreement accompanying
  14:Generated_Source\PSoC5/USB_pm.c **** * the software package with which this file was provided.
  15:Generated_Source\PSoC5/USB_pm.c **** *******************************************************************************/
  16:Generated_Source\PSoC5/USB_pm.c **** 
  17:Generated_Source\PSoC5/USB_pm.c **** #include "project.h"
  18:Generated_Source\PSoC5/USB_pm.c **** #include "USB.h"
  19:Generated_Source\PSoC5/USB_pm.c **** #include "USB_pvt.h"
  20:Generated_Source\PSoC5/USB_pm.c **** 
  21:Generated_Source\PSoC5/USB_pm.c **** 
  22:Generated_Source\PSoC5/USB_pm.c **** /***************************************
  23:Generated_Source\PSoC5/USB_pm.c **** * Custom Declarations
  24:Generated_Source\PSoC5/USB_pm.c **** ***************************************/
  25:Generated_Source\PSoC5/USB_pm.c **** /* `#START PM_CUSTOM_DECLARATIONS` Place your declaration here */
  26:Generated_Source\PSoC5/USB_pm.c **** 
  27:Generated_Source\PSoC5/USB_pm.c **** /* `#END` */
  28:Generated_Source\PSoC5/USB_pm.c **** 
  29:Generated_Source\PSoC5/USB_pm.c **** 
  30:Generated_Source\PSoC5/USB_pm.c **** /***************************************
  31:Generated_Source\PSoC5/USB_pm.c **** * Local data allocation
ARM GAS  C:\Users\mgronber\AppData\Local\Temp\ccC6jz8z.s 			page 2


  32:Generated_Source\PSoC5/USB_pm.c **** ***************************************/
  33:Generated_Source\PSoC5/USB_pm.c **** 
  34:Generated_Source\PSoC5/USB_pm.c **** static USB_BACKUP_STRUCT  USB_backup;
  35:Generated_Source\PSoC5/USB_pm.c **** 
  36:Generated_Source\PSoC5/USB_pm.c **** 
  37:Generated_Source\PSoC5/USB_pm.c **** #if(USB_DP_ISR_REMOVE == 0u)
  38:Generated_Source\PSoC5/USB_pm.c **** 
  39:Generated_Source\PSoC5/USB_pm.c ****     /*******************************************************************************
  40:Generated_Source\PSoC5/USB_pm.c ****     * Function Name: USB_DP_Interrupt
  41:Generated_Source\PSoC5/USB_pm.c ****     ********************************************************************************
  42:Generated_Source\PSoC5/USB_pm.c ****     *
  43:Generated_Source\PSoC5/USB_pm.c ****     * Summary:
  44:Generated_Source\PSoC5/USB_pm.c ****     *  This Interrupt Service Routine handles DP pin changes for wake-up from
  45:Generated_Source\PSoC5/USB_pm.c ****     *  the sleep mode.
  46:Generated_Source\PSoC5/USB_pm.c ****     *
  47:Generated_Source\PSoC5/USB_pm.c ****     * Parameters:
  48:Generated_Source\PSoC5/USB_pm.c ****     *  None.
  49:Generated_Source\PSoC5/USB_pm.c ****     *
  50:Generated_Source\PSoC5/USB_pm.c ****     * Return:
  51:Generated_Source\PSoC5/USB_pm.c ****     *  None.
  52:Generated_Source\PSoC5/USB_pm.c ****     *
  53:Generated_Source\PSoC5/USB_pm.c ****     *******************************************************************************/
  54:Generated_Source\PSoC5/USB_pm.c ****     CY_ISR(USB_DP_ISR)
  55:Generated_Source\PSoC5/USB_pm.c ****     {
  27              		.loc 1 55 0
  28              		.cfi_startproc
  29              		@ args = 0, pretend = 0, frame = 0
  30              		@ frame_needed = 0, uses_anonymous_args = 0
  31              		@ link register save eliminated.
  56:Generated_Source\PSoC5/USB_pm.c ****         /* `#START DP_USER_CODE` Place your code here */
  57:Generated_Source\PSoC5/USB_pm.c **** 
  58:Generated_Source\PSoC5/USB_pm.c ****         /* `#END` */
  59:Generated_Source\PSoC5/USB_pm.c **** 
  60:Generated_Source\PSoC5/USB_pm.c ****         /* Clears active interrupt */
  61:Generated_Source\PSoC5/USB_pm.c ****         CY_GET_REG8(USB_DP_INTSTAT_PTR);
  32              		.loc 1 61 0
  33 0000 014B     		ldr	r3, .L2
  34 0002 1B78     		ldrb	r3, [r3]	@ zero_extendqisi2
  35 0004 7047     		bx	lr
  36              	.L3:
  37 0006 00BF     		.align	2
  38              	.L2:
  39 0008 8F450040 		.word	1073759631
  40              		.cfi_endproc
  41              	.LFE56:
  42              		.size	USB_DP_ISR, .-USB_DP_ISR
  43              		.section	.text.USB_SaveConfig,"ax",%progbits
  44              		.align	2
  45              		.global	USB_SaveConfig
  46              		.thumb
  47              		.thumb_func
  48              		.type	USB_SaveConfig, %function
  49              	USB_SaveConfig:
  50              	.LFB57:
  62:Generated_Source\PSoC5/USB_pm.c ****     }
  63:Generated_Source\PSoC5/USB_pm.c **** 
  64:Generated_Source\PSoC5/USB_pm.c **** #endif /* (USB_DP_ISR_REMOVE == 0u) */
ARM GAS  C:\Users\mgronber\AppData\Local\Temp\ccC6jz8z.s 			page 3


  65:Generated_Source\PSoC5/USB_pm.c **** 
  66:Generated_Source\PSoC5/USB_pm.c **** 
  67:Generated_Source\PSoC5/USB_pm.c **** /*******************************************************************************
  68:Generated_Source\PSoC5/USB_pm.c **** * Function Name: USB_SaveConfig
  69:Generated_Source\PSoC5/USB_pm.c **** ********************************************************************************
  70:Generated_Source\PSoC5/USB_pm.c **** *
  71:Generated_Source\PSoC5/USB_pm.c **** * Summary:
  72:Generated_Source\PSoC5/USB_pm.c **** *  Saves the current user configuration.
  73:Generated_Source\PSoC5/USB_pm.c **** *
  74:Generated_Source\PSoC5/USB_pm.c **** * Parameters:
  75:Generated_Source\PSoC5/USB_pm.c **** *  None.
  76:Generated_Source\PSoC5/USB_pm.c **** *
  77:Generated_Source\PSoC5/USB_pm.c **** * Return:
  78:Generated_Source\PSoC5/USB_pm.c **** *  None.
  79:Generated_Source\PSoC5/USB_pm.c **** *
  80:Generated_Source\PSoC5/USB_pm.c **** * Reentrant:
  81:Generated_Source\PSoC5/USB_pm.c **** *  No.
  82:Generated_Source\PSoC5/USB_pm.c **** *
  83:Generated_Source\PSoC5/USB_pm.c **** *******************************************************************************/
  84:Generated_Source\PSoC5/USB_pm.c **** void USB_SaveConfig(void) 
  85:Generated_Source\PSoC5/USB_pm.c **** {
  51              		.loc 1 85 0
  52              		.cfi_startproc
  53              		@ args = 0, pretend = 0, frame = 0
  54              		@ frame_needed = 0, uses_anonymous_args = 0
  55              		@ link register save eliminated.
  56 0000 7047     		bx	lr
  57              		.cfi_endproc
  58              	.LFE57:
  59              		.size	USB_SaveConfig, .-USB_SaveConfig
  60 0002 00BF     		.section	.text.USB_RestoreConfig,"ax",%progbits
  61              		.align	2
  62              		.global	USB_RestoreConfig
  63              		.thumb
  64              		.thumb_func
  65              		.type	USB_RestoreConfig, %function
  66              	USB_RestoreConfig:
  67              	.LFB58:
  86:Generated_Source\PSoC5/USB_pm.c **** 
  87:Generated_Source\PSoC5/USB_pm.c **** }
  88:Generated_Source\PSoC5/USB_pm.c **** 
  89:Generated_Source\PSoC5/USB_pm.c **** 
  90:Generated_Source\PSoC5/USB_pm.c **** /*******************************************************************************
  91:Generated_Source\PSoC5/USB_pm.c **** * Function Name: USB_RestoreConfig
  92:Generated_Source\PSoC5/USB_pm.c **** ********************************************************************************
  93:Generated_Source\PSoC5/USB_pm.c **** *
  94:Generated_Source\PSoC5/USB_pm.c **** * Summary:
  95:Generated_Source\PSoC5/USB_pm.c **** *  Restores the current user configuration.
  96:Generated_Source\PSoC5/USB_pm.c **** *
  97:Generated_Source\PSoC5/USB_pm.c **** * Parameters:
  98:Generated_Source\PSoC5/USB_pm.c **** *  None.
  99:Generated_Source\PSoC5/USB_pm.c **** *
 100:Generated_Source\PSoC5/USB_pm.c **** * Return:
 101:Generated_Source\PSoC5/USB_pm.c **** *  None.
 102:Generated_Source\PSoC5/USB_pm.c **** *
 103:Generated_Source\PSoC5/USB_pm.c **** * Reentrant:
 104:Generated_Source\PSoC5/USB_pm.c **** *  No.
ARM GAS  C:\Users\mgronber\AppData\Local\Temp\ccC6jz8z.s 			page 4


 105:Generated_Source\PSoC5/USB_pm.c **** *
 106:Generated_Source\PSoC5/USB_pm.c **** *******************************************************************************/
 107:Generated_Source\PSoC5/USB_pm.c **** void USB_RestoreConfig(void) 
 108:Generated_Source\PSoC5/USB_pm.c **** {
  68              		.loc 1 108 0
  69              		.cfi_startproc
  70              		@ args = 0, pretend = 0, frame = 0
  71              		@ frame_needed = 0, uses_anonymous_args = 0
  72              		@ link register save eliminated.
 109:Generated_Source\PSoC5/USB_pm.c ****     if(USB_configuration != 0u)
  73              		.loc 1 109 0
  74 0000 024B     		ldr	r3, .L9
  75 0002 1B78     		ldrb	r3, [r3]	@ zero_extendqisi2
  76 0004 03B9     		cbnz	r3, .L8
  77 0006 7047     		bx	lr
  78              	.L8:
 110:Generated_Source\PSoC5/USB_pm.c ****     {
 111:Generated_Source\PSoC5/USB_pm.c ****         USB_ConfigReg();
  79              		.loc 1 111 0
  80 0008 FFF7FEBF 		b	USB_ConfigReg
  81              	.LVL0:
  82              	.L10:
  83              		.align	2
  84              	.L9:
  85 000c 00000000 		.word	USB_configuration
  86              		.cfi_endproc
  87              	.LFE58:
  88              		.size	USB_RestoreConfig, .-USB_RestoreConfig
  89              		.section	.text.USB_Suspend,"ax",%progbits
  90              		.align	2
  91              		.global	USB_Suspend
  92              		.thumb
  93              		.thumb_func
  94              		.type	USB_Suspend, %function
  95              	USB_Suspend:
  96              	.LFB59:
 112:Generated_Source\PSoC5/USB_pm.c ****     }
 113:Generated_Source\PSoC5/USB_pm.c **** }
 114:Generated_Source\PSoC5/USB_pm.c **** 
 115:Generated_Source\PSoC5/USB_pm.c **** 
 116:Generated_Source\PSoC5/USB_pm.c **** /*******************************************************************************
 117:Generated_Source\PSoC5/USB_pm.c **** * Function Name: USB_Suspend
 118:Generated_Source\PSoC5/USB_pm.c **** ********************************************************************************
 119:Generated_Source\PSoC5/USB_pm.c **** *
 120:Generated_Source\PSoC5/USB_pm.c **** * Summary:
 121:Generated_Source\PSoC5/USB_pm.c **** *  This function disables the USBFS block and prepares for power down mode.
 122:Generated_Source\PSoC5/USB_pm.c **** *
 123:Generated_Source\PSoC5/USB_pm.c **** * Parameters:
 124:Generated_Source\PSoC5/USB_pm.c **** *  None.
 125:Generated_Source\PSoC5/USB_pm.c **** *
 126:Generated_Source\PSoC5/USB_pm.c **** * Return:
 127:Generated_Source\PSoC5/USB_pm.c **** *   None.
 128:Generated_Source\PSoC5/USB_pm.c **** *
 129:Generated_Source\PSoC5/USB_pm.c **** * Global variables:
 130:Generated_Source\PSoC5/USB_pm.c **** *  USB_backup.enable:  modified.
 131:Generated_Source\PSoC5/USB_pm.c **** *
 132:Generated_Source\PSoC5/USB_pm.c **** * Reentrant:
ARM GAS  C:\Users\mgronber\AppData\Local\Temp\ccC6jz8z.s 			page 5


 133:Generated_Source\PSoC5/USB_pm.c **** *  No.
 134:Generated_Source\PSoC5/USB_pm.c **** *
 135:Generated_Source\PSoC5/USB_pm.c **** *******************************************************************************/
 136:Generated_Source\PSoC5/USB_pm.c **** void USB_Suspend(void) 
 137:Generated_Source\PSoC5/USB_pm.c **** {
  97              		.loc 1 137 0
  98              		.cfi_startproc
  99              		@ args = 0, pretend = 0, frame = 0
 100              		@ frame_needed = 0, uses_anonymous_args = 0
 101 0000 2DE9F041 		push	{r4, r5, r6, r7, r8, lr}
 102              		.cfi_def_cfa_offset 24
 103              		.cfi_offset 4, -24
 104              		.cfi_offset 5, -20
 105              		.cfi_offset 6, -16
 106              		.cfi_offset 7, -12
 107              		.cfi_offset 8, -8
 108              		.cfi_offset 14, -4
 138:Generated_Source\PSoC5/USB_pm.c ****     uint8 enableInterrupts;
 139:Generated_Source\PSoC5/USB_pm.c ****     enableInterrupts = CyEnterCriticalSection();
 109              		.loc 1 139 0
 110 0004 FFF7FEFF 		bl	CyEnterCriticalSection
 111              	.LVL1:
 140:Generated_Source\PSoC5/USB_pm.c **** 
 141:Generated_Source\PSoC5/USB_pm.c ****     if((CY_GET_REG8(USB_CR0_PTR) & USB_CR0_ENABLE) != 0u)
 112              		.loc 1 141 0
 113 0008 2C4C     		ldr	r4, .L16
 139:Generated_Source\PSoC5/USB_pm.c **** 
 114              		.loc 1 139 0
 115 000a 0546     		mov	r5, r0
 116              	.LVL2:
 117              		.loc 1 141 0
 118 000c 2378     		ldrb	r3, [r4]	@ zero_extendqisi2
 119 000e 1B06     		lsls	r3, r3, #24
 120 0010 15D4     		bmi	.L15
 142:Generated_Source\PSoC5/USB_pm.c ****     {   /* USB block is enabled */
 143:Generated_Source\PSoC5/USB_pm.c ****         USB_backup.enableState = 1u;
 144:Generated_Source\PSoC5/USB_pm.c **** 
 145:Generated_Source\PSoC5/USB_pm.c ****         #if(USB_EP_MM != USB__EP_MANUAL)
 146:Generated_Source\PSoC5/USB_pm.c ****             USB_Stop_DMA(USB_MAX_EP);     /* Stop all DMAs */
 147:Generated_Source\PSoC5/USB_pm.c ****         #endif   /*  USB_EP_MM != USB__EP_MANUAL */
 148:Generated_Source\PSoC5/USB_pm.c **** 
 149:Generated_Source\PSoC5/USB_pm.c ****         /* Ensure USB transmit enable is low (USB_USBIO_CR0.ten). - Manual Transmission - Disabled 
 150:Generated_Source\PSoC5/USB_pm.c ****         USB_USBIO_CR0_REG &= (uint8)~USB_USBIO_CR0_TEN;
 151:Generated_Source\PSoC5/USB_pm.c ****         CyDelayUs(0u);  /*~50ns delay */
 152:Generated_Source\PSoC5/USB_pm.c **** 
 153:Generated_Source\PSoC5/USB_pm.c ****         /* Disable the USBIO by asserting PM.USB_CR0.fsusbio_pd_n(Inverted) and pd_pullup_hv(Invert
 154:Generated_Source\PSoC5/USB_pm.c ****         USB_PM_USB_CR0_REG &=
 155:Generated_Source\PSoC5/USB_pm.c ****                                 (uint8)~(USB_PM_USB_CR0_PD_N | USB_PM_USB_CR0_PD_PULLUP_N);
 156:Generated_Source\PSoC5/USB_pm.c **** 
 157:Generated_Source\PSoC5/USB_pm.c ****         /* Disable the SIE */
 158:Generated_Source\PSoC5/USB_pm.c ****         USB_CR0_REG &= (uint8)~USB_CR0_ENABLE;
 159:Generated_Source\PSoC5/USB_pm.c **** 
 160:Generated_Source\PSoC5/USB_pm.c ****         CyDelayUs(0u);  /* ~50ns delay */
 161:Generated_Source\PSoC5/USB_pm.c ****         /* Store mode and Disable VRegulator*/
 162:Generated_Source\PSoC5/USB_pm.c ****         USB_backup.mode = USB_CR1_REG & USB_CR1_REG_ENABLE;
 163:Generated_Source\PSoC5/USB_pm.c ****         USB_CR1_REG &= (uint8)~USB_CR1_REG_ENABLE;
 164:Generated_Source\PSoC5/USB_pm.c **** 
ARM GAS  C:\Users\mgronber\AppData\Local\Temp\ccC6jz8z.s 			page 6


 165:Generated_Source\PSoC5/USB_pm.c ****         CyDelayUs(1u);  /* 0.5 us min delay */
 166:Generated_Source\PSoC5/USB_pm.c ****         /* Disable the USBIO reference by setting PM.USB_CR0.fsusbio_ref_en.*/
 167:Generated_Source\PSoC5/USB_pm.c ****         USB_PM_USB_CR0_REG &= (uint8)~USB_PM_USB_CR0_REF_EN;
 168:Generated_Source\PSoC5/USB_pm.c **** 
 169:Generated_Source\PSoC5/USB_pm.c ****         /* Switch DP and DM terminals to GPIO mode and disconnect 1.5k pullup*/
 170:Generated_Source\PSoC5/USB_pm.c ****         USB_USBIO_CR1_REG |= USB_USBIO_CR1_IOMODE;
 171:Generated_Source\PSoC5/USB_pm.c **** 
 172:Generated_Source\PSoC5/USB_pm.c ****         /* Disable USB in ACT PM */
 173:Generated_Source\PSoC5/USB_pm.c ****         USB_PM_ACT_CFG_REG &= (uint8)~USB_PM_ACT_EN_FSUSB;
 174:Generated_Source\PSoC5/USB_pm.c ****         /* Disable USB block for Standby Power Mode */
 175:Generated_Source\PSoC5/USB_pm.c ****         USB_PM_STBY_CFG_REG &= (uint8)~USB_PM_STBY_EN_FSUSB;
 176:Generated_Source\PSoC5/USB_pm.c ****         CyDelayUs(1u); /* min  0.5us delay required */
 177:Generated_Source\PSoC5/USB_pm.c **** 
 178:Generated_Source\PSoC5/USB_pm.c ****     }
 179:Generated_Source\PSoC5/USB_pm.c ****     else
 180:Generated_Source\PSoC5/USB_pm.c ****     {
 181:Generated_Source\PSoC5/USB_pm.c ****         USB_backup.enableState = 0u;
 121              		.loc 1 181 0
 122 0012 2B4B     		ldr	r3, .L16+4
 123 0014 0022     		movs	r2, #0
 124 0016 1A70     		strb	r2, [r3]
 125              	.L13:
 182:Generated_Source\PSoC5/USB_pm.c ****     }
 183:Generated_Source\PSoC5/USB_pm.c ****     
 184:Generated_Source\PSoC5/USB_pm.c ****     CyExitCriticalSection(enableInterrupts);
 126              		.loc 1 184 0
 127 0018 2846     		mov	r0, r5
 128 001a FFF7FEFF 		bl	CyExitCriticalSection
 129              	.LVL3:
 185:Generated_Source\PSoC5/USB_pm.c **** 
 186:Generated_Source\PSoC5/USB_pm.c ****     /* Set the DP Interrupt for wake-up from sleep mode. */
 187:Generated_Source\PSoC5/USB_pm.c ****     #if(USB_DP_ISR_REMOVE == 0u)
 188:Generated_Source\PSoC5/USB_pm.c ****         (void) CyIntSetVector(USB_DP_INTC_VECT_NUM, &USB_DP_ISR);
 130              		.loc 1 188 0
 131 001e 2949     		ldr	r1, .L16+8
 132 0020 0C20     		movs	r0, #12
 133 0022 FFF7FEFF 		bl	CyIntSetVector
 134              	.LVL4:
 189:Generated_Source\PSoC5/USB_pm.c ****         CyIntSetPriority(USB_DP_INTC_VECT_NUM, USB_DP_INTC_PRIOR);
 135              		.loc 1 189 0
 136 0026 0721     		movs	r1, #7
 137 0028 0C20     		movs	r0, #12
 138 002a FFF7FEFF 		bl	CyIntSetPriority
 139              	.LVL5:
 190:Generated_Source\PSoC5/USB_pm.c ****         CyIntClearPending(USB_DP_INTC_VECT_NUM);
 140              		.loc 1 190 0
 141 002e 2649     		ldr	r1, .L16+12
 191:Generated_Source\PSoC5/USB_pm.c ****         CyIntEnable(USB_DP_INTC_VECT_NUM);
 142              		.loc 1 191 0
 143 0030 264A     		ldr	r2, .L16+16
 190:Generated_Source\PSoC5/USB_pm.c ****         CyIntClearPending(USB_DP_INTC_VECT_NUM);
 144              		.loc 1 190 0
 145 0032 4FF48053 		mov	r3, #4096
 146 0036 0B60     		str	r3, [r1]
 147              		.loc 1 191 0
 148 0038 1360     		str	r3, [r2]
 149 003a BDE8F081 		pop	{r4, r5, r6, r7, r8, pc}
ARM GAS  C:\Users\mgronber\AppData\Local\Temp\ccC6jz8z.s 			page 7


 150              	.LVL6:
 151              	.L15:
 143:Generated_Source\PSoC5/USB_pm.c **** 
 152              		.loc 1 143 0
 153 003e DFF88080 		ldr	r8, .L16+4
 154 0042 0127     		movs	r7, #1
 150:Generated_Source\PSoC5/USB_pm.c ****         CyDelayUs(0u);  /*~50ns delay */
 155              		.loc 1 150 0
 156 0044 224A     		ldr	r2, .L16+20
 143:Generated_Source\PSoC5/USB_pm.c **** 
 157              		.loc 1 143 0
 158 0046 88F80070 		strb	r7, [r8]
 150:Generated_Source\PSoC5/USB_pm.c ****         CyDelayUs(0u);  /*~50ns delay */
 159              		.loc 1 150 0
 160 004a 1378     		ldrb	r3, [r2]	@ zero_extendqisi2
 154:Generated_Source\PSoC5/USB_pm.c ****                                 (uint8)~(USB_PM_USB_CR0_PD_N | USB_PM_USB_CR0_PD_PULLUP_N);
 161              		.loc 1 154 0
 162 004c 214E     		ldr	r6, .L16+24
 150:Generated_Source\PSoC5/USB_pm.c ****         CyDelayUs(0u);  /*~50ns delay */
 163              		.loc 1 150 0
 164 004e 03F07F03 		and	r3, r3, #127
 165 0052 1370     		strb	r3, [r2]
 151:Generated_Source\PSoC5/USB_pm.c **** 
 166              		.loc 1 151 0
 167 0054 0020     		movs	r0, #0
 168 0056 FFF7FEFF 		bl	CyDelayUs
 169              	.LVL7:
 154:Generated_Source\PSoC5/USB_pm.c ****                                 (uint8)~(USB_PM_USB_CR0_PD_N | USB_PM_USB_CR0_PD_PULLUP_N);
 170              		.loc 1 154 0
 171 005a 3378     		ldrb	r3, [r6]	@ zero_extendqisi2
 160:Generated_Source\PSoC5/USB_pm.c ****         /* Store mode and Disable VRegulator*/
 172              		.loc 1 160 0
 173 005c 0020     		movs	r0, #0
 154:Generated_Source\PSoC5/USB_pm.c ****                                 (uint8)~(USB_PM_USB_CR0_PD_N | USB_PM_USB_CR0_PD_PULLUP_N);
 174              		.loc 1 154 0
 175 005e 03F0F903 		and	r3, r3, #249
 176 0062 3370     		strb	r3, [r6]
 158:Generated_Source\PSoC5/USB_pm.c **** 
 177              		.loc 1 158 0
 178 0064 2378     		ldrb	r3, [r4]	@ zero_extendqisi2
 179 0066 03F07F03 		and	r3, r3, #127
 180 006a 2370     		strb	r3, [r4]
 160:Generated_Source\PSoC5/USB_pm.c ****         /* Store mode and Disable VRegulator*/
 181              		.loc 1 160 0
 182 006c FFF7FEFF 		bl	CyDelayUs
 183              	.LVL8:
 162:Generated_Source\PSoC5/USB_pm.c ****         USB_CR1_REG &= (uint8)~USB_CR1_REG_ENABLE;
 184              		.loc 1 162 0
 185 0070 194A     		ldr	r2, .L16+28
 165:Generated_Source\PSoC5/USB_pm.c ****         /* Disable the USBIO reference by setting PM.USB_CR0.fsusbio_ref_en.*/
 186              		.loc 1 165 0
 187 0072 3846     		mov	r0, r7
 162:Generated_Source\PSoC5/USB_pm.c ****         USB_CR1_REG &= (uint8)~USB_CR1_REG_ENABLE;
 188              		.loc 1 162 0
 189 0074 1378     		ldrb	r3, [r2]	@ zero_extendqisi2
 163:Generated_Source\PSoC5/USB_pm.c **** 
 190              		.loc 1 163 0
ARM GAS  C:\Users\mgronber\AppData\Local\Temp\ccC6jz8z.s 			page 8


 191 0076 1178     		ldrb	r1, [r2]	@ zero_extendqisi2
 162:Generated_Source\PSoC5/USB_pm.c ****         USB_CR1_REG &= (uint8)~USB_CR1_REG_ENABLE;
 192              		.loc 1 162 0
 193 0078 3B40     		ands	r3, r3, r7
 163:Generated_Source\PSoC5/USB_pm.c **** 
 194              		.loc 1 163 0
 195 007a 01F0FE01 		and	r1, r1, #254
 196 007e 1170     		strb	r1, [r2]
 162:Generated_Source\PSoC5/USB_pm.c ****         USB_CR1_REG &= (uint8)~USB_CR1_REG_ENABLE;
 197              		.loc 1 162 0
 198 0080 88F80130 		strb	r3, [r8, #1]
 165:Generated_Source\PSoC5/USB_pm.c ****         /* Disable the USBIO reference by setting PM.USB_CR0.fsusbio_ref_en.*/
 199              		.loc 1 165 0
 200 0084 FFF7FEFF 		bl	CyDelayUs
 201              	.LVL9:
 167:Generated_Source\PSoC5/USB_pm.c **** 
 202              		.loc 1 167 0
 203 0088 3378     		ldrb	r3, [r6]	@ zero_extendqisi2
 170:Generated_Source\PSoC5/USB_pm.c **** 
 204              		.loc 1 170 0
 205 008a 144A     		ldr	r2, .L16+32
 167:Generated_Source\PSoC5/USB_pm.c **** 
 206              		.loc 1 167 0
 207 008c 03F0FE03 		and	r3, r3, #254
 208 0090 3370     		strb	r3, [r6]
 170:Generated_Source\PSoC5/USB_pm.c **** 
 209              		.loc 1 170 0
 210 0092 1378     		ldrb	r3, [r2]	@ zero_extendqisi2
 173:Generated_Source\PSoC5/USB_pm.c ****         /* Disable USB block for Standby Power Mode */
 211              		.loc 1 173 0
 212 0094 1249     		ldr	r1, .L16+36
 170:Generated_Source\PSoC5/USB_pm.c **** 
 213              		.loc 1 170 0
 214 0096 43F02003 		orr	r3, r3, #32
 215 009a 1370     		strb	r3, [r2]
 173:Generated_Source\PSoC5/USB_pm.c ****         /* Disable USB block for Standby Power Mode */
 216              		.loc 1 173 0
 217 009c 0B78     		ldrb	r3, [r1]	@ zero_extendqisi2
 175:Generated_Source\PSoC5/USB_pm.c ****         CyDelayUs(1u); /* min  0.5us delay required */
 218              		.loc 1 175 0
 219 009e A2F5E252 		sub	r2, r2, #7232
 173:Generated_Source\PSoC5/USB_pm.c ****         /* Disable USB block for Standby Power Mode */
 220              		.loc 1 173 0
 221 00a2 03F0FE03 		and	r3, r3, #254
 175:Generated_Source\PSoC5/USB_pm.c ****         CyDelayUs(1u); /* min  0.5us delay required */
 222              		.loc 1 175 0
 223 00a6 1D3A     		subs	r2, r2, #29
 173:Generated_Source\PSoC5/USB_pm.c ****         /* Disable USB block for Standby Power Mode */
 224              		.loc 1 173 0
 225 00a8 0B70     		strb	r3, [r1]
 175:Generated_Source\PSoC5/USB_pm.c ****         CyDelayUs(1u); /* min  0.5us delay required */
 226              		.loc 1 175 0
 227 00aa 1378     		ldrb	r3, [r2]	@ zero_extendqisi2
 176:Generated_Source\PSoC5/USB_pm.c **** 
 228              		.loc 1 176 0
 229 00ac 3846     		mov	r0, r7
 175:Generated_Source\PSoC5/USB_pm.c ****         CyDelayUs(1u); /* min  0.5us delay required */
ARM GAS  C:\Users\mgronber\AppData\Local\Temp\ccC6jz8z.s 			page 9


 230              		.loc 1 175 0
 231 00ae 03F0FE03 		and	r3, r3, #254
 232 00b2 1370     		strb	r3, [r2]
 176:Generated_Source\PSoC5/USB_pm.c **** 
 233              		.loc 1 176 0
 234 00b4 FFF7FEFF 		bl	CyDelayUs
 235              	.LVL10:
 236 00b8 AEE7     		b	.L13
 237              	.L17:
 238 00ba 00BF     		.align	2
 239              	.L16:
 240 00bc 08600040 		.word	1073766408
 241 00c0 00000000 		.word	.LANCHOR0
 242 00c4 00000000 		.word	USB_DP_ISR
 243 00c8 80E200E0 		.word	-536812928
 244 00cc 00E100E0 		.word	-536813312
 245 00d0 10600040 		.word	1073766416
 246 00d4 94430040 		.word	1073759124
 247 00d8 09600040 		.word	1073766409
 248 00dc 12600040 		.word	1073766418
 249 00e0 A5430040 		.word	1073759141
 250              		.cfi_endproc
 251              	.LFE59:
 252              		.size	USB_Suspend, .-USB_Suspend
 253              		.section	.text.USB_Resume,"ax",%progbits
 254              		.align	2
 255              		.global	USB_Resume
 256              		.thumb
 257              		.thumb_func
 258              		.type	USB_Resume, %function
 259              	USB_Resume:
 260              	.LFB60:
 192:Generated_Source\PSoC5/USB_pm.c ****     #endif /* (USB_DP_ISR_REMOVE == 0u) */
 193:Generated_Source\PSoC5/USB_pm.c **** }
 194:Generated_Source\PSoC5/USB_pm.c **** 
 195:Generated_Source\PSoC5/USB_pm.c **** 
 196:Generated_Source\PSoC5/USB_pm.c **** /*******************************************************************************
 197:Generated_Source\PSoC5/USB_pm.c **** * Function Name: USB_Resume
 198:Generated_Source\PSoC5/USB_pm.c **** ********************************************************************************
 199:Generated_Source\PSoC5/USB_pm.c **** *
 200:Generated_Source\PSoC5/USB_pm.c **** * Summary:
 201:Generated_Source\PSoC5/USB_pm.c **** *  This function enables the USBFS block after power down mode.
 202:Generated_Source\PSoC5/USB_pm.c **** *
 203:Generated_Source\PSoC5/USB_pm.c **** * Parameters:
 204:Generated_Source\PSoC5/USB_pm.c **** *  None.
 205:Generated_Source\PSoC5/USB_pm.c **** *
 206:Generated_Source\PSoC5/USB_pm.c **** * Return:
 207:Generated_Source\PSoC5/USB_pm.c **** *  None.
 208:Generated_Source\PSoC5/USB_pm.c **** *
 209:Generated_Source\PSoC5/USB_pm.c **** * Global variables:
 210:Generated_Source\PSoC5/USB_pm.c **** *  USB_backup - checked.
 211:Generated_Source\PSoC5/USB_pm.c **** *
 212:Generated_Source\PSoC5/USB_pm.c **** * Reentrant:
 213:Generated_Source\PSoC5/USB_pm.c **** *  No.
 214:Generated_Source\PSoC5/USB_pm.c **** *
 215:Generated_Source\PSoC5/USB_pm.c **** *******************************************************************************/
 216:Generated_Source\PSoC5/USB_pm.c **** void USB_Resume(void) 
ARM GAS  C:\Users\mgronber\AppData\Local\Temp\ccC6jz8z.s 			page 10


 217:Generated_Source\PSoC5/USB_pm.c **** {
 261              		.loc 1 217 0
 262              		.cfi_startproc
 263              		@ args = 0, pretend = 0, frame = 0
 264              		@ frame_needed = 0, uses_anonymous_args = 0
 265 0000 70B5     		push	{r4, r5, r6, lr}
 266              		.cfi_def_cfa_offset 16
 267              		.cfi_offset 4, -16
 268              		.cfi_offset 5, -12
 269              		.cfi_offset 6, -8
 270              		.cfi_offset 14, -4
 218:Generated_Source\PSoC5/USB_pm.c ****     uint8 enableInterrupts;
 219:Generated_Source\PSoC5/USB_pm.c ****     enableInterrupts = CyEnterCriticalSection();
 271              		.loc 1 219 0
 272 0002 FFF7FEFF 		bl	CyEnterCriticalSection
 273              	.LVL11:
 220:Generated_Source\PSoC5/USB_pm.c **** 
 221:Generated_Source\PSoC5/USB_pm.c ****     if(USB_backup.enableState != 0u)
 274              		.loc 1 221 0
 275 0006 284D     		ldr	r5, .L27
 219:Generated_Source\PSoC5/USB_pm.c **** 
 276              		.loc 1 219 0
 277 0008 0646     		mov	r6, r0
 278              	.LVL12:
 279              		.loc 1 221 0
 280 000a 2B78     		ldrb	r3, [r5]	@ zero_extendqisi2
 281 000c 23B9     		cbnz	r3, .L26
 282              	.L20:
 222:Generated_Source\PSoC5/USB_pm.c ****     {
 223:Generated_Source\PSoC5/USB_pm.c ****         #if(USB_DP_ISR_REMOVE == 0u)
 224:Generated_Source\PSoC5/USB_pm.c ****             CyIntDisable(USB_DP_INTC_VECT_NUM);
 225:Generated_Source\PSoC5/USB_pm.c ****         #endif /*  USB_DP_ISR_REMOVE */
 226:Generated_Source\PSoC5/USB_pm.c **** 
 227:Generated_Source\PSoC5/USB_pm.c ****         /* Enable USB block */
 228:Generated_Source\PSoC5/USB_pm.c ****         USB_PM_ACT_CFG_REG |= USB_PM_ACT_EN_FSUSB;
 229:Generated_Source\PSoC5/USB_pm.c ****         /* Enable USB block for Standby Power Mode */
 230:Generated_Source\PSoC5/USB_pm.c ****         USB_PM_STBY_CFG_REG |= USB_PM_STBY_EN_FSUSB;
 231:Generated_Source\PSoC5/USB_pm.c ****         /* Enable core clock */
 232:Generated_Source\PSoC5/USB_pm.c ****         USB_USB_CLK_EN_REG |= USB_USB_CLK_ENABLE;
 233:Generated_Source\PSoC5/USB_pm.c **** 
 234:Generated_Source\PSoC5/USB_pm.c ****         /* Enable the USBIO reference by setting PM.USB_CR0.fsusbio_ref_en.*/
 235:Generated_Source\PSoC5/USB_pm.c ****         USB_PM_USB_CR0_REG |= USB_PM_USB_CR0_REF_EN;
 236:Generated_Source\PSoC5/USB_pm.c ****         /* The reference will be available ~40us after power restored */
 237:Generated_Source\PSoC5/USB_pm.c ****         CyDelayUs(40u);
 238:Generated_Source\PSoC5/USB_pm.c ****         /* Return VRegulator*/
 239:Generated_Source\PSoC5/USB_pm.c ****         USB_CR1_REG |= USB_backup.mode;
 240:Generated_Source\PSoC5/USB_pm.c ****         CyDelayUs(0u);  /*~50ns delay */
 241:Generated_Source\PSoC5/USB_pm.c ****         /* Enable USBIO */
 242:Generated_Source\PSoC5/USB_pm.c ****         USB_PM_USB_CR0_REG |= USB_PM_USB_CR0_PD_N;
 243:Generated_Source\PSoC5/USB_pm.c ****         CyDelayUs(2u);
 244:Generated_Source\PSoC5/USB_pm.c ****         /* Set the USBIO pull-up enable */
 245:Generated_Source\PSoC5/USB_pm.c ****         USB_PM_USB_CR0_REG |= USB_PM_USB_CR0_PD_PULLUP_N;
 246:Generated_Source\PSoC5/USB_pm.c **** 
 247:Generated_Source\PSoC5/USB_pm.c ****         /* Re-init Arbiter configuration for DMA transfers */
 248:Generated_Source\PSoC5/USB_pm.c ****         #if(USB_EP_MM != USB__EP_MANUAL)
 249:Generated_Source\PSoC5/USB_pm.c ****             /* Usb arb interrupt enable */
 250:Generated_Source\PSoC5/USB_pm.c ****             USB_ARB_INT_EN_REG = USB_ARB_INT_MASK;
ARM GAS  C:\Users\mgronber\AppData\Local\Temp\ccC6jz8z.s 			page 11


 251:Generated_Source\PSoC5/USB_pm.c ****             #if(USB_EP_MM == USB__EP_DMAMANUAL)
 252:Generated_Source\PSoC5/USB_pm.c ****                 USB_ARB_CFG_REG = USB_ARB_CFG_MANUAL_DMA;
 253:Generated_Source\PSoC5/USB_pm.c ****             #endif   /*  USB_EP_MM == USB__EP_DMAMANUAL */
 254:Generated_Source\PSoC5/USB_pm.c ****             #if(USB_EP_MM == USB__EP_DMAAUTO)
 255:Generated_Source\PSoC5/USB_pm.c ****                 /*Set cfg cmplt this rises DMA request when the full configuration is done */
 256:Generated_Source\PSoC5/USB_pm.c ****                 USB_ARB_CFG_REG = USB_ARB_CFG_AUTO_DMA | USB_ARB_CFG_AUTO_MEM;
 257:Generated_Source\PSoC5/USB_pm.c ****             #endif   /*  USB_EP_MM == USB__EP_DMAAUTO */
 258:Generated_Source\PSoC5/USB_pm.c ****         #endif   /*  USB_EP_MM != USB__EP_MANUAL */
 259:Generated_Source\PSoC5/USB_pm.c **** 
 260:Generated_Source\PSoC5/USB_pm.c ****         /* STALL_IN_OUT */
 261:Generated_Source\PSoC5/USB_pm.c ****         CY_SET_REG8(USB_EP0_CR_PTR, USB_MODE_STALL_IN_OUT);
 262:Generated_Source\PSoC5/USB_pm.c ****         /* Enable the SIE with a last address */
 263:Generated_Source\PSoC5/USB_pm.c ****         USB_CR0_REG |= USB_CR0_ENABLE;
 264:Generated_Source\PSoC5/USB_pm.c ****         CyDelayCycles(1u);
 265:Generated_Source\PSoC5/USB_pm.c ****         /* Finally, Enable d+ pullup and select iomode to USB mode*/
 266:Generated_Source\PSoC5/USB_pm.c ****         CY_SET_REG8(USB_USBIO_CR1_PTR, USB_USBIO_CR1_USBPUEN);
 267:Generated_Source\PSoC5/USB_pm.c **** 
 268:Generated_Source\PSoC5/USB_pm.c ****         /* Restore USB register settings */
 269:Generated_Source\PSoC5/USB_pm.c ****         USB_RestoreConfig();
 270:Generated_Source\PSoC5/USB_pm.c ****     }
 271:Generated_Source\PSoC5/USB_pm.c **** 
 272:Generated_Source\PSoC5/USB_pm.c ****     CyExitCriticalSection(enableInterrupts);
 283              		.loc 1 272 0
 284 000e 3046     		mov	r0, r6
 273:Generated_Source\PSoC5/USB_pm.c **** }
 285              		.loc 1 273 0
 286 0010 BDE87040 		pop	{r4, r5, r6, lr}
 287              		.cfi_remember_state
 288              		.cfi_restore 14
 289              		.cfi_restore 6
 290              		.cfi_restore 5
 291              		.cfi_restore 4
 292              		.cfi_def_cfa_offset 0
 293              	.LVL13:
 272:Generated_Source\PSoC5/USB_pm.c **** }
 294              		.loc 1 272 0
 295 0014 FFF7FEBF 		b	CyExitCriticalSection
 296              	.LVL14:
 297              	.L26:
 298              		.cfi_restore_state
 224:Generated_Source\PSoC5/USB_pm.c ****         #endif /*  USB_DP_ISR_REMOVE */
 299              		.loc 1 224 0
 300 0018 244B     		ldr	r3, .L27+4
 228:Generated_Source\PSoC5/USB_pm.c ****         /* Enable USB block for Standby Power Mode */
 301              		.loc 1 228 0
 302 001a 254A     		ldr	r2, .L27+8
 224:Generated_Source\PSoC5/USB_pm.c ****         #endif /*  USB_DP_ISR_REMOVE */
 303              		.loc 1 224 0
 304 001c 4FF48051 		mov	r1, #4096
 305 0020 1960     		str	r1, [r3]
 228:Generated_Source\PSoC5/USB_pm.c ****         /* Enable USB block for Standby Power Mode */
 306              		.loc 1 228 0
 307 0022 1378     		ldrb	r3, [r2]	@ zero_extendqisi2
 230:Generated_Source\PSoC5/USB_pm.c ****         /* Enable core clock */
 308              		.loc 1 230 0
 309 0024 2349     		ldr	r1, .L27+12
 228:Generated_Source\PSoC5/USB_pm.c ****         /* Enable USB block for Standby Power Mode */
ARM GAS  C:\Users\mgronber\AppData\Local\Temp\ccC6jz8z.s 			page 12


 310              		.loc 1 228 0
 311 0026 43F00103 		orr	r3, r3, #1
 312 002a 1370     		strb	r3, [r2]
 230:Generated_Source\PSoC5/USB_pm.c ****         /* Enable core clock */
 313              		.loc 1 230 0
 314 002c 0B78     		ldrb	r3, [r1]	@ zero_extendqisi2
 232:Generated_Source\PSoC5/USB_pm.c **** 
 315              		.loc 1 232 0
 316 002e 02F5E752 		add	r2, r2, #7392
 230:Generated_Source\PSoC5/USB_pm.c ****         /* Enable core clock */
 317              		.loc 1 230 0
 318 0032 43F00103 		orr	r3, r3, #1
 319 0036 0B70     		strb	r3, [r1]
 232:Generated_Source\PSoC5/USB_pm.c **** 
 320              		.loc 1 232 0
 321 0038 1832     		adds	r2, r2, #24
 322 003a 1378     		ldrb	r3, [r2]	@ zero_extendqisi2
 235:Generated_Source\PSoC5/USB_pm.c ****         /* The reference will be available ~40us after power restored */
 323              		.loc 1 235 0
 324 003c 1E4C     		ldr	r4, .L27+16
 232:Generated_Source\PSoC5/USB_pm.c **** 
 325              		.loc 1 232 0
 326 003e 43F00103 		orr	r3, r3, #1
 327 0042 1370     		strb	r3, [r2]
 235:Generated_Source\PSoC5/USB_pm.c ****         /* The reference will be available ~40us after power restored */
 328              		.loc 1 235 0
 329 0044 2378     		ldrb	r3, [r4]	@ zero_extendqisi2
 237:Generated_Source\PSoC5/USB_pm.c ****         /* Return VRegulator*/
 330              		.loc 1 237 0
 331 0046 2820     		movs	r0, #40
 235:Generated_Source\PSoC5/USB_pm.c ****         /* The reference will be available ~40us after power restored */
 332              		.loc 1 235 0
 333 0048 43F00103 		orr	r3, r3, #1
 334 004c 2370     		strb	r3, [r4]
 237:Generated_Source\PSoC5/USB_pm.c ****         /* Return VRegulator*/
 335              		.loc 1 237 0
 336 004e FFF7FEFF 		bl	CyDelayUs
 337              	.LVL15:
 239:Generated_Source\PSoC5/USB_pm.c ****         CyDelayUs(0u);  /*~50ns delay */
 338              		.loc 1 239 0
 339 0052 1A4A     		ldr	r2, .L27+20
 340 0054 6B78     		ldrb	r3, [r5, #1]	@ zero_extendqisi2
 341 0056 1178     		ldrb	r1, [r2]	@ zero_extendqisi2
 240:Generated_Source\PSoC5/USB_pm.c ****         /* Enable USBIO */
 342              		.loc 1 240 0
 343 0058 0020     		movs	r0, #0
 239:Generated_Source\PSoC5/USB_pm.c ****         CyDelayUs(0u);  /*~50ns delay */
 344              		.loc 1 239 0
 345 005a 0B43     		orrs	r3, r3, r1
 346 005c 1370     		strb	r3, [r2]
 240:Generated_Source\PSoC5/USB_pm.c ****         /* Enable USBIO */
 347              		.loc 1 240 0
 348 005e FFF7FEFF 		bl	CyDelayUs
 349              	.LVL16:
 242:Generated_Source\PSoC5/USB_pm.c ****         CyDelayUs(2u);
 350              		.loc 1 242 0
 351 0062 2378     		ldrb	r3, [r4]	@ zero_extendqisi2
ARM GAS  C:\Users\mgronber\AppData\Local\Temp\ccC6jz8z.s 			page 13


 243:Generated_Source\PSoC5/USB_pm.c ****         /* Set the USBIO pull-up enable */
 352              		.loc 1 243 0
 353 0064 0220     		movs	r0, #2
 242:Generated_Source\PSoC5/USB_pm.c ****         CyDelayUs(2u);
 354              		.loc 1 242 0
 355 0066 0343     		orrs	r3, r3, r0
 356 0068 2370     		strb	r3, [r4]
 243:Generated_Source\PSoC5/USB_pm.c ****         /* Set the USBIO pull-up enable */
 357              		.loc 1 243 0
 358 006a FFF7FEFF 		bl	CyDelayUs
 359              	.LVL17:
 245:Generated_Source\PSoC5/USB_pm.c **** 
 360              		.loc 1 245 0
 361 006e 2378     		ldrb	r3, [r4]	@ zero_extendqisi2
 261:Generated_Source\PSoC5/USB_pm.c ****         /* Enable the SIE with a last address */
 362              		.loc 1 261 0
 363 0070 1349     		ldr	r1, .L27+24
 263:Generated_Source\PSoC5/USB_pm.c ****         CyDelayCycles(1u);
 364              		.loc 1 263 0
 365 0072 144A     		ldr	r2, .L27+28
 245:Generated_Source\PSoC5/USB_pm.c **** 
 366              		.loc 1 245 0
 367 0074 43F00403 		orr	r3, r3, #4
 261:Generated_Source\PSoC5/USB_pm.c ****         /* Enable the SIE with a last address */
 368              		.loc 1 261 0
 369 0078 0320     		movs	r0, #3
 245:Generated_Source\PSoC5/USB_pm.c **** 
 370              		.loc 1 245 0
 371 007a 2370     		strb	r3, [r4]
 261:Generated_Source\PSoC5/USB_pm.c ****         /* Enable the SIE with a last address */
 372              		.loc 1 261 0
 373 007c 0870     		strb	r0, [r1]
 263:Generated_Source\PSoC5/USB_pm.c ****         CyDelayCycles(1u);
 374              		.loc 1 263 0
 375 007e 1378     		ldrb	r3, [r2]	@ zero_extendqisi2
 264:Generated_Source\PSoC5/USB_pm.c ****         /* Finally, Enable d+ pullup and select iomode to USB mode*/
 376              		.loc 1 264 0
 377 0080 0120     		movs	r0, #1
 263:Generated_Source\PSoC5/USB_pm.c ****         CyDelayCycles(1u);
 378              		.loc 1 263 0
 379 0082 43F08003 		orr	r3, r3, #128
 380 0086 1370     		strb	r3, [r2]
 264:Generated_Source\PSoC5/USB_pm.c ****         /* Finally, Enable d+ pullup and select iomode to USB mode*/
 381              		.loc 1 264 0
 382 0088 FFF7FEFF 		bl	CyDelayCycles
 383              	.LVL18:
 266:Generated_Source\PSoC5/USB_pm.c **** 
 384              		.loc 1 266 0
 385 008c 0E4A     		ldr	r2, .L27+32
 386 008e 0421     		movs	r1, #4
 387              	.LBB4:
 388              	.LBB5:
 109:Generated_Source\PSoC5/USB_pm.c ****     {
 389              		.loc 1 109 0
 390 0090 0E4B     		ldr	r3, .L27+36
 391              	.LBE5:
 392              	.LBE4:
ARM GAS  C:\Users\mgronber\AppData\Local\Temp\ccC6jz8z.s 			page 14


 266:Generated_Source\PSoC5/USB_pm.c **** 
 393              		.loc 1 266 0
 394 0092 1170     		strb	r1, [r2]
 395              	.LBB7:
 396              	.LBB6:
 109:Generated_Source\PSoC5/USB_pm.c ****     {
 397              		.loc 1 109 0
 398 0094 1B78     		ldrb	r3, [r3]	@ zero_extendqisi2
 399 0096 002B     		cmp	r3, #0
 400 0098 B9D0     		beq	.L20
 111:Generated_Source\PSoC5/USB_pm.c ****     }
 401              		.loc 1 111 0
 402 009a FFF7FEFF 		bl	USB_ConfigReg
 403              	.LVL19:
 404              	.LBE6:
 405              	.LBE7:
 272:Generated_Source\PSoC5/USB_pm.c **** }
 406              		.loc 1 272 0
 407 009e 3046     		mov	r0, r6
 408              		.loc 1 273 0
 409 00a0 BDE87040 		pop	{r4, r5, r6, lr}
 410              		.cfi_restore 4
 411              		.cfi_restore 5
 412              		.cfi_restore 6
 413              		.cfi_restore 14
 414              		.cfi_def_cfa_offset 0
 415              	.LVL20:
 272:Generated_Source\PSoC5/USB_pm.c **** }
 416              		.loc 1 272 0
 417 00a4 FFF7FEBF 		b	CyExitCriticalSection
 418              	.LVL21:
 419              	.L28:
 420              		.align	2
 421              	.L27:
 422 00a8 00000000 		.word	.LANCHOR0
 423 00ac 80E100E0 		.word	-536813184
 424 00b0 A5430040 		.word	1073759141
 425 00b4 B5430040 		.word	1073759157
 426 00b8 94430040 		.word	1073759124
 427 00bc 09600040 		.word	1073766409
 428 00c0 28600040 		.word	1073766440
 429 00c4 08600040 		.word	1073766408
 430 00c8 12600040 		.word	1073766418
 431 00cc 00000000 		.word	USB_configuration
 432              		.cfi_endproc
 433              	.LFE60:
 434              		.size	USB_Resume, .-USB_Resume
 435              		.bss
 436              		.align	2
 437              		.set	.LANCHOR0,. + 0
 438              		.type	USB_backup, %object
 439              		.size	USB_backup, 2
 440              	USB_backup:
 441 0000 0000     		.space	2
 442 0002 0000     		.text
 443              	.Letext0:
 444              		.file 2 "c:\\program files (x86)\\cypress\\psoc creator\\4.0\\psoc creator\\import\\gnu\\arm\\4.9.
ARM GAS  C:\Users\mgronber\AppData\Local\Temp\ccC6jz8z.s 			page 15


 445              		.file 3 "c:\\program files (x86)\\cypress\\psoc creator\\4.0\\psoc creator\\import\\gnu\\arm\\4.9.
 446              		.file 4 "Generated_Source\\PSoC5\\cytypes.h"
 447              		.file 5 "Generated_Source\\PSoC5\\USB.h"
 448              		.file 6 "Generated_Source\\PSoC5/core_cm3.h"
 449              		.file 7 "Generated_Source\\PSoC5\\USB_pvt.h"
 450              		.file 8 "Generated_Source\\PSoC5\\CyLib.h"