ARM GAS  C:\Users\jmdevoto\AppData\Local\Temp\ccqEX70v.s 			page 1


   1              		.syntax unified
   2              		.cpu cortex-m3
   3              		.fpu softvfp
   4              		.eabi_attribute 20, 1
   5              		.eabi_attribute 21, 1
   6              		.eabi_attribute 23, 3
   7              		.eabi_attribute 24, 1
   8              		.eabi_attribute 25, 1
   9              		.eabi_attribute 26, 1
  10              		.eabi_attribute 30, 2
  11              		.eabi_attribute 34, 1
  12              		.eabi_attribute 18, 4
  13              		.thumb
  14              		.file	"hbird.c"
  15              		.text
  16              	.Ltext0:
  17              		.cfi_sections	.debug_frame
  18              		.section	.text.map,"ax",%progbits
  19              		.align	2
  20              		.global	map
  21              		.thumb
  22              		.thumb_func
  23              		.type	map, %function
  24              	map:
  25              	.LFB56:
  26              		.file 1 "hbird.c"
   1:hbird.c       **** /* 
   2:hbird.c       **** *   hbird.c
   3:hbird.c       **** *   
   4:hbird.c       **** */
   5:hbird.c       **** #include "hbird.h"
   6:hbird.c       **** 
   7:hbird.c       **** 
   8:hbird.c       **** long map(long x, long in_min, long in_max, long out_min, long out_max)
   9:hbird.c       **** {
  27              		.loc 1 9 0
  28              		.cfi_startproc
  29              		@ args = 4, pretend = 0, frame = 0
  30              		@ frame_needed = 0, uses_anonymous_args = 0
  31              		@ link register save eliminated.
  32              	.LVL0:
  33 0000 10B4     		push	{r4}
  34              		.cfi_def_cfa_offset 4
  35              		.cfi_offset 4, -4
  36              		.loc 1 9 0
  37 0002 019C     		ldr	r4, [sp, #4]
  10:hbird.c       ****   return (x - in_min) * (out_max - out_min) / (in_max - in_min) + out_min;
  38              		.loc 1 10 0
  39 0004 401A     		subs	r0, r0, r1
  40              	.LVL1:
  41 0006 E41A     		subs	r4, r4, r3
  42 0008 04FB00F0 		mul	r0, r4, r0
  43 000c 521A     		subs	r2, r2, r1
  44              	.LVL2:
  45 000e 90FBF2F0 		sdiv	r0, r0, r2
  11:hbird.c       **** }
  46              		.loc 1 11 0
ARM GAS  C:\Users\jmdevoto\AppData\Local\Temp\ccqEX70v.s 			page 2


  47 0012 5DF8044B 		ldr	r4, [sp], #4
  48              		.cfi_restore 4
  49              		.cfi_def_cfa_offset 0
  50              	.LVL3:
  51 0016 1844     		add	r0, r0, r3
  52 0018 7047     		bx	lr
  53              		.cfi_endproc
  54              	.LFE56:
  55              		.size	map, .-map
  56 001a 00BF     		.section	.text.UpdateScaleLCD,"ax",%progbits
  57              		.align	2
  58              		.global	UpdateScaleLCD
  59              		.thumb
  60              		.thumb_func
  61              		.type	UpdateScaleLCD, %function
  62              	UpdateScaleLCD:
  63              	.LFB57:
  12:hbird.c       **** 
  13:hbird.c       **** enum MusicScale UpdateScaleLCD()
  14:hbird.c       **** {
  64              		.loc 1 14 0
  65              		.cfi_startproc
  66              		@ args = 0, pretend = 0, frame = 0
  67              		@ frame_needed = 0, uses_anonymous_args = 0
  68 0000 10B5     		push	{r4, lr}
  69              		.cfi_def_cfa_offset 8
  70              		.cfi_offset 4, -8
  71              		.cfi_offset 14, -4
  15:hbird.c       ****     // Sets the LCD to the right position
  16:hbird.c       ****     CharLCD_Position(0,6);
  72              		.loc 1 16 0
  73 0002 0621     		movs	r1, #6
  74 0004 0020     		movs	r0, #0
  75 0006 FFF7FEFF 		bl	CharLCD_Position
  76              	.LVL4:
  17:hbird.c       ****     
  18:hbird.c       ****     // Grabs the ADC value from the scale pot, maps it to one of the scales
  19:hbird.c       ****     UI_ADC_IsEndConversion(UI_ADC_WAIT_FOR_RESULT);
  77              		.loc 1 19 0
  78 000a 0020     		movs	r0, #0
  79 000c FFF7FEFF 		bl	UI_ADC_IsEndConversion
  80              	.LVL5:
  20:hbird.c       ****     enum MusicScale scale = map(UI_ADC_GetResult16(0u), 0, 255, 0, 5);
  81              		.loc 1 20 0
  82 0010 0020     		movs	r0, #0
  83 0012 FFF7FEFF 		bl	UI_ADC_GetResult16
  84              	.LVL6:
  85              	.LBB6:
  86              	.LBB7:
  10:hbird.c       **** }
  87              		.loc 1 10 0
  88 0016 174C     		ldr	r4, .L14
  89 0018 00EB8000 		add	r0, r0, r0, lsl #2
  90              	.LVL7:
  91 001c 84FB0034 		smull	r3, r4, r4, r0
  92 0020 C317     		asrs	r3, r0, #31
  93 0022 0444     		add	r4, r4, r0
ARM GAS  C:\Users\jmdevoto\AppData\Local\Temp\ccqEX70v.s 			page 3


  94 0024 C3EBE414 		rsb	r4, r3, r4, asr #7
  95              	.LBE7:
  96              	.LBE6:
  97              		.loc 1 20 0
  98 0028 E4B2     		uxtb	r4, r4
  99              	.LVL8:
  21:hbird.c       ****     // Prints the string to the LCD
  22:hbird.c       ****     switch(scale){
 100              		.loc 1 22 0
 101 002a 052C     		cmp	r4, #5
 102 002c 07D8     		bhi	.L4
 103 002e DFE804F0 		tbb	[pc, r4]
 104              	.L6:
 105 0032 08       		.byte	(.L5-.L6)/2
 106 0033 0D       		.byte	(.L7-.L6)/2
 107 0034 12       		.byte	(.L8-.L6)/2
 108 0035 17       		.byte	(.L9-.L6)/2
 109 0036 1C       		.byte	(.L10-.L6)/2
 110 0037 03       		.byte	(.L11-.L6)/2
 111              		.p2align 1
 112              	.L11:
  23:hbird.c       ****         case MAJOR:
  24:hbird.c       ****             CharLCD_PrintString("Maj");
  25:hbird.c       ****             break;        
  26:hbird.c       ****         case NATURAL_MINOR:
  27:hbird.c       ****             CharLCD_PrintString("NatMin");
  28:hbird.c       ****             break;        
  29:hbird.c       ****         case MAJOR_PENT:
  30:hbird.c       ****             CharLCD_PrintString("MajPnt");
  31:hbird.c       ****             break;        
  32:hbird.c       ****         case MINOR_PENT:
  33:hbird.c       ****             CharLCD_PrintString("MinPnt");
  34:hbird.c       ****             break;        
  35:hbird.c       ****         case WHOLE_TONE:
  36:hbird.c       ****             CharLCD_PrintString("Whole");
  37:hbird.c       ****             break;        
  38:hbird.c       ****         case BLUES:
  39:hbird.c       ****             CharLCD_PrintString("Blues");
 113              		.loc 1 39 0
 114 0038 0F48     		ldr	r0, .L14+4
 115 003a FFF7FEFF 		bl	CharLCD_PrintString
 116              	.LVL9:
 117              	.L4:
  40:hbird.c       ****             break;
  41:hbird.c       ****     }
  42:hbird.c       ****     // Returns the scale enum to main
  43:hbird.c       ****     return scale;
  44:hbird.c       **** }
 118              		.loc 1 44 0
 119 003e 2046     		mov	r0, r4
 120 0040 10BD     		pop	{r4, pc}
 121              	.LVL10:
 122              	.L5:
  24:hbird.c       ****             break;        
 123              		.loc 1 24 0
 124 0042 0E48     		ldr	r0, .L14+8
 125 0044 FFF7FEFF 		bl	CharLCD_PrintString
ARM GAS  C:\Users\jmdevoto\AppData\Local\Temp\ccqEX70v.s 			page 4


 126              	.LVL11:
 127              		.loc 1 44 0
 128 0048 2046     		mov	r0, r4
 129 004a 10BD     		pop	{r4, pc}
 130              	.LVL12:
 131              	.L7:
  27:hbird.c       ****             break;        
 132              		.loc 1 27 0
 133 004c 0C48     		ldr	r0, .L14+12
 134 004e FFF7FEFF 		bl	CharLCD_PrintString
 135              	.LVL13:
 136              		.loc 1 44 0
 137 0052 2046     		mov	r0, r4
 138 0054 10BD     		pop	{r4, pc}
 139              	.LVL14:
 140              	.L8:
  30:hbird.c       ****             break;        
 141              		.loc 1 30 0
 142 0056 0B48     		ldr	r0, .L14+16
 143 0058 FFF7FEFF 		bl	CharLCD_PrintString
 144              	.LVL15:
 145              		.loc 1 44 0
 146 005c 2046     		mov	r0, r4
 147 005e 10BD     		pop	{r4, pc}
 148              	.LVL16:
 149              	.L9:
  33:hbird.c       ****             break;        
 150              		.loc 1 33 0
 151 0060 0948     		ldr	r0, .L14+20
 152 0062 FFF7FEFF 		bl	CharLCD_PrintString
 153              	.LVL17:
 154              		.loc 1 44 0
 155 0066 2046     		mov	r0, r4
 156 0068 10BD     		pop	{r4, pc}
 157              	.LVL18:
 158              	.L10:
  36:hbird.c       ****             break;        
 159              		.loc 1 36 0
 160 006a 0848     		ldr	r0, .L14+24
 161 006c FFF7FEFF 		bl	CharLCD_PrintString
 162              	.LVL19:
 163              		.loc 1 44 0
 164 0070 2046     		mov	r0, r4
 165 0072 10BD     		pop	{r4, pc}
 166              	.LVL20:
 167              	.L15:
 168              		.align	2
 169              	.L14:
 170 0074 81808080 		.word	-2139062143
 171 0078 24000000 		.word	.LC5
 172 007c 00000000 		.word	.LC0
 173 0080 04000000 		.word	.LC1
 174 0084 0C000000 		.word	.LC2
 175 0088 14000000 		.word	.LC3
 176 008c 1C000000 		.word	.LC4
 177              		.cfi_endproc
 178              	.LFE57:
ARM GAS  C:\Users\jmdevoto\AppData\Local\Temp\ccqEX70v.s 			page 5


 179              		.size	UpdateScaleLCD, .-UpdateScaleLCD
 180              		.section	.text.UpdateKeyLCD,"ax",%progbits
 181              		.align	2
 182              		.global	UpdateKeyLCD
 183              		.thumb
 184              		.thumb_func
 185              		.type	UpdateKeyLCD, %function
 186              	UpdateKeyLCD:
 187              	.LFB58:
  45:hbird.c       **** 
  46:hbird.c       **** enum MusicKey UpdateKeyLCD()
  47:hbird.c       **** {
 188              		.loc 1 47 0
 189              		.cfi_startproc
 190              		@ args = 0, pretend = 0, frame = 0
 191              		@ frame_needed = 0, uses_anonymous_args = 0
 192 0000 10B5     		push	{r4, lr}
 193              		.cfi_def_cfa_offset 8
 194              		.cfi_offset 4, -8
 195              		.cfi_offset 14, -4
  48:hbird.c       ****     // Sets the LCD to the right position
  49:hbird.c       ****     CharLCD_Position(1,6);
 196              		.loc 1 49 0
 197 0002 0621     		movs	r1, #6
 198 0004 0120     		movs	r0, #1
 199 0006 FFF7FEFF 		bl	CharLCD_Position
 200              	.LVL21:
  50:hbird.c       ****     
  51:hbird.c       ****     // Grabs the ADC value from the key pot, maps it to one of the keys
  52:hbird.c       ****     UI_ADC_IsEndConversion(UI_ADC_WAIT_FOR_RESULT);
 201              		.loc 1 52 0
 202 000a 0020     		movs	r0, #0
 203 000c FFF7FEFF 		bl	UI_ADC_IsEndConversion
 204              	.LVL22:
  53:hbird.c       ****     enum MusicKey key = map(UI_ADC_GetResult16(1u), 0, 255, 0, 11);
 205              		.loc 1 53 0
 206 0010 0120     		movs	r0, #1
 207 0012 FFF7FEFF 		bl	UI_ADC_GetResult16
 208              	.LVL23:
 209              	.LBB8:
 210              	.LBB9:
  10:hbird.c       **** }
 211              		.loc 1 10 0
 212 0016 094A     		ldr	r2, .L18
 213 0018 00EB8003 		add	r3, r0, r0, lsl #2
 214 001c 00EB4300 		add	r0, r0, r3, lsl #1
 215              	.LVL24:
 216 0020 82FB0032 		smull	r3, r2, r2, r0
 217 0024 C417     		asrs	r4, r0, #31
 218 0026 1044     		add	r0, r0, r2
 219 0028 C4EBE010 		rsb	r0, r4, r0, asr #7
 220              	.LVL25:
 221              	.LBE9:
 222              	.LBE8:
  54:hbird.c       ****     // Prints the string to the LCD, borrowing funciton from midi.c
  55:hbird.c       ****     CharLCD_PrintString(midi_note_basename(key));
 223              		.loc 1 55 0
ARM GAS  C:\Users\jmdevoto\AppData\Local\Temp\ccqEX70v.s 			page 6


 224 002c C4B2     		uxtb	r4, r0
 225 002e 2046     		mov	r0, r4
 226 0030 FFF7FEFF 		bl	midi_note_basename
 227              	.LVL26:
 228 0034 FFF7FEFF 		bl	CharLCD_PrintString
 229              	.LVL27:
  56:hbird.c       ****     
  57:hbird.c       ****     // Returns the key enum to main
  58:hbird.c       ****     return key;
  59:hbird.c       **** }
 230              		.loc 1 59 0
 231 0038 2046     		mov	r0, r4
 232 003a 10BD     		pop	{r4, pc}
 233              	.LVL28:
 234              	.L19:
 235              		.align	2
 236              	.L18:
 237 003c 81808080 		.word	-2139062143
 238              		.cfi_endproc
 239              	.LFE58:
 240              		.size	UpdateKeyLCD, .-UpdateKeyLCD
 241              		.section	.rodata.str1.4,"aMS",%progbits,1
 242              		.align	2
 243              	.LC0:
 244 0000 4D616A00 		.ascii	"Maj\000"
 245              	.LC1:
 246 0004 4E61744D 		.ascii	"NatMin\000"
 246      696E00
 247 000b 00       		.space	1
 248              	.LC2:
 249 000c 4D616A50 		.ascii	"MajPnt\000"
 249      6E7400
 250 0013 00       		.space	1
 251              	.LC3:
 252 0014 4D696E50 		.ascii	"MinPnt\000"
 252      6E7400
 253 001b 00       		.space	1
 254              	.LC4:
 255 001c 57686F6C 		.ascii	"Whole\000"
 255      6500
 256 0022 0000     		.space	2
 257              	.LC5:
 258 0024 426C7565 		.ascii	"Blues\000"
 258      7300
 259 002a 0000     		.text
 260              	.Letext0:
 261              		.file 2 "c:\\program files (x86)\\cypress\\psoc creator\\4.0\\psoc creator\\import\\gnu\\arm\\4.9.
 262              		.file 3 "c:\\program files (x86)\\cypress\\psoc creator\\4.0\\psoc creator\\import\\gnu\\arm\\4.9.
 263              		.file 4 "Generated_Source\\PSoC5/cytypes.h"
 264              		.file 5 "./midi.h"
 265              		.file 6 "Generated_Source\\PSoC5/UI_ADC.h"
 266              		.file 7 "Generated_Source\\PSoC5/CharLCD_I2C.h"
 267              		.file 8 "Generated_Source\\PSoC5/core_cm3.h"