ARM GAS  C:\Users\jmdevoto\AppData\Local\Temp\cce8AF7b.s 			page 1


   1              		.syntax unified
   2              		.cpu cortex-m3
   3              		.fpu softvfp
   4              		.eabi_attribute 20, 1
   5              		.eabi_attribute 21, 1
   6              		.eabi_attribute 23, 3
   7              		.eabi_attribute 24, 1
   8              		.eabi_attribute 25, 1
   9              		.eabi_attribute 26, 1
  10              		.eabi_attribute 30, 2
  11              		.eabi_attribute 34, 1
  12              		.eabi_attribute 18, 4
  13              		.thumb
  14              		.file	"main.c"
  15              		.text
  16              	.Ltext0:
  17              		.cfi_sections	.debug_frame
  18              		.section	.text.GetSample,"ax",%progbits
  19              		.align	2
  20              		.global	GetSample
  21              		.thumb
  22              		.thumb_func
  23              		.type	GetSample, %function
  24              	GetSample:
  25              	.LFB60:
  26              		.file 1 "main.c"
   1:main.c        **** /*******************************************************************************
   2:main.c        **** * File Name: main.c
   3:main.c        **** *
   4:main.c        **** * Version: 1.0
   5:main.c        **** *
   6:main.c        **** * Description:
   7:main.c        **** *  This is source code for the datasheet example of the USBFS component.
   8:main.c        **** *   
   9:main.c        **** * Related Document:
  10:main.c        **** *  Universal Serial Bus Specification Revision 2.0 
  11:main.c        **** *  Universal Serial Bus Device Class Definition for MIDI Devices Release 1.0
  12:main.c        **** *  MIDI 1.0 Detailed Specification Document Version 4.2
  13:main.c        **** *
  14:main.c        **** ********************************************************************************
  15:main.c        **** * Copyright 2012-2013, Cypress Semiconductor Corporation. All rights reserved.
  16:main.c        **** * This software is owned by Cypress Semiconductor Corporation and is protected
  17:main.c        **** * by and subject to worldwide patent and copyright laws and treaties.
  18:main.c        **** * Therefore, you may use this software only as provided in the license agreement
  19:main.c        **** * accompanying the software package from which you obtained this software.
  20:main.c        **** * CYPRESS AND ITS SUPPLIERS MAKE NO WARRANTY OF ANY KIND, EXPRESS OR IMPLIED,
  21:main.c        **** * WITH REGARD TO THIS SOFTWARE, INCLUDING, BUT NOT LIMITED TO, NONINFRINGEMENT,
  22:main.c        **** * IMPLIED WARRANTIES OF MERCHANTABILITY AND FITNESS FOR A PARTICULAR PURPOSE.
  23:main.c        **** *******************************************************************************/
  24:main.c        **** 
  25:main.c        **** #include <device.h>
  26:main.c        **** // Hummingbird Includes
  27:main.c        **** #include <fft.h>
  28:main.c        **** #include <midi.h>
  29:main.c        **** #include <pitch.h>
  30:main.c        **** #include <hbird.h>
  31:main.c        **** 
ARM GAS  C:\Users\jmdevoto\AppData\Local\Temp\cce8AF7b.s 			page 2


  32:main.c        **** /**** Defines ****/
  33:main.c        **** #define BUTT1	(0x01u)
  34:main.c        **** #define BUTT2	(0x02u)
  35:main.c        **** 
  36:main.c        **** #define THRESHHOLD 110
  37:main.c        **** 
  38:main.c        **** // Variables for Button I/O
  39:main.c        **** uint8 csButtStates = 0u;
  40:main.c        **** uint8 csButtStates_old = 0u;
  41:main.c        **** uint8 csButtChange = 0u;
  42:main.c        **** uint8 inqFlags_old = 0u;
  43:main.c        **** char8 LCDstr[10];
  44:main.c        **** 
  45:main.c        **** // Variables for audio aquisition ISR
  46:main.c        **** int16 dataFrames[2][FRAME_LEN];
  47:main.c        **** 
  48:main.c        **** int16 ADCoutput;
  49:main.c        **** uint16 frameIndex = 0;
  50:main.c        **** uint8 currFrame = 0;
  51:main.c        **** uint8 sampleFrame = 0;              // Frame for main to process on.
  52:main.c        **** 
  53:main.c        **** int max_value = 0;
  54:main.c        **** 
  55:main.c        **** // Flags
  56:main.c        **** bool frameReady[2] = {};          // Flag frame as valid for processing.
  57:main.c        **** bool frameLocked[2] = {};          // Sample is being processed and should not be overwritten
  58:main.c        **** bool sustain = false;                   // flag for holding a note until the user is done singing
  59:main.c        **** bool frameProcessed=false;          // Flag to prevent us from processing the same frame twice whil
  60:main.c        **** 
  61:main.c        **** // Variables for MIDI/PDA
  62:main.c        **** uint8 midiMsg[4];  
  63:main.c        **** int lastNote = -1;                  // Last sent MIDI note. -1 means no MIDI signal was active.
  64:main.c        **** int i=0;
  65:main.c        **** float pitchHz;
  66:main.c        **** double noteTable[MIDI_LEN]; //(index=midi note, value=frequency)
  67:main.c        **** uint8 frame1InUse=0;
  68:main.c        **** uint8 frame2InUse=0;
  69:main.c        **** enum MusicScale curScale=MAJOR;
  70:main.c        **** enum MusicKey   curKey=KEY_OF_C;
  71:main.c        **** 
  72:main.c        **** int test_max;
  73:main.c        **** 
  74:main.c        **** 
  75:main.c        **** /* Identity Reply message */
  76:main.c        **** const uint8 CYCODE MIDI_IDENTITY_REPLY[] = {
  77:main.c        ****     0xF0u,      /* SysEx */
  78:main.c        ****     0x7Eu,      /* Non-Realtime */
  79:main.c        ****     0x7Fu,      /* ID of target device (7F - "All Call") */
  80:main.c        ****     0x06u,      /* Sub-ID#1 - General Information */
  81:main.c        ****     0x02u,      /* Sub-ID#2 - Identity Reply */
  82:main.c        ****     0x7Du,      /* Manufacturer's ID: 7D - Educational Use */
  83:main.c        ****     0xB4u, 0x04u,               /* Family code */
  84:main.c        ****     0x32u, 0xD2u,               /* Model number */
  85:main.c        ****     0x01u, 0x00u, 0x00u, 0x00u, /* Version number */
  86:main.c        ****     /*0xF7         End of SysEx automatically appended */
  87:main.c        **** };
  88:main.c        **** 
ARM GAS  C:\Users\jmdevoto\AppData\Local\Temp\cce8AF7b.s 			page 3


  89:main.c        **** /* Need for Identity Reply message */
  90:main.c        **** extern volatile uint8 USB_MIDI1_InqFlags;
  91:main.c        **** extern volatile uint8 USB_MIDI2_InqFlags;
  92:main.c        **** 
  93:main.c        **** volatile uint8 usbActivityCounter = 0u;
  94:main.c        **** 
  95:main.c        **** 
  96:main.c        **** 
  97:main.c        **** 
  98:main.c        **** /*******************************************************************************
  99:main.c        **** * Function Name: SleepIsr
 100:main.c        **** *******************************************************************************/
 101:main.c        **** CY_ISR(SleepIsr)
 102:main.c        **** {
 103:main.c        ****     /* Chech USB activity */
 104:main.c        ****     if( USB_CheckActivity() != 0u ){
 105:main.c        ****         usbActivityCounter = 0u;
 106:main.c        ****     }else{
 107:main.c        ****         usbActivityCounter++;
 108:main.c        ****     }
 109:main.c        ****     /* Clear Pending Interrupt */
 110:main.c        ****     SleepTimer_GetStatus();
 111:main.c        **** }
 112:main.c        **** 
 113:main.c        **** /*******************************************************************************
 114:main.c        **** * Function Name: GenerateMidiArray
 115:main.c        **** ********************************************************************************
 116:main.c        **** * Summary:
 117:main.c        **** *  Aquires command, note, and velocity bytes and tosses them into an array (supplied by user)
 118:main.c        **** *
 119:main.c        **** * Parameters:
 120:main.c        **** *  midiArray[4], cmd, note, vel
 121:main.c        **** *
 122:main.c        **** * Return:
 123:main.c        **** *  None, modifies midiArray[]
 124:main.c        **** *
 125:main.c        **** *******************************************************************************/
 126:main.c        **** void GenerateMidiArray(uint8 midiArray[4], uint8 cmd, uint8 note, uint8 vel)
 127:main.c        **** {
 128:main.c        ****     midiArray[0]=cmd;
 129:main.c        ****     midiArray[1]=note;
 130:main.c        ****     midiArray[2]=vel;
 131:main.c        **** }
 132:main.c        **** 
 133:main.c        **** int main()
 134:main.c        **** {
 135:main.c        ****     /**** Initilizations ****/
 136:main.c        ****         
 137:main.c        ****     // Enable global interrupts 
 138:main.c        ****     CyGlobalIntEnable;
 139:main.c        ****     CY_ISR_PROTO(GetSample);  //declare the audio sampling interrupt
 140:main.c        ****     //CY_ISR_PROTO(UI_isr_Interrupt);     //declare the user interface interrupt
 141:main.c        ****     
 142:main.c        ****     I2C_CharLCD_Start();
 143:main.c        ****     CharLCD_Start();
 144:main.c        ****     
 145:main.c        ****     // Start the interrupt
ARM GAS  C:\Users\jmdevoto\AppData\Local\Temp\cce8AF7b.s 			page 4


 146:main.c        ****     isr_1_StartEx(GetSample);
 147:main.c        ****     //UI_isr_StartEx(UI_isr_Interrupt);
 148:main.c        ****         
 149:main.c        ****     // Start the data sample timer
 150:main.c        ****     Timer_1_Start();
 151:main.c        ****     
 152:main.c        ****     // Start the ADC conversion
 153:main.c        ****     ADC_SAR_1_Start();
 154:main.c        ****     ADC_SAR_1_StartConvert();
 155:main.c        ****     UI_ADC_Start();
 156:main.c        ****     UI_ADC_StartConvert();
 157:main.c        ****      
 158:main.c        ****     UART_Start();
 159:main.c        ****     
 160:main.c        ****     pitch_init();
 161:main.c        ****     
 162:main.c        ****     //Populates Note-MIDI array 
 163:main.c        ****     populate_midi_array(noteTable);    
 164:main.c        **** 
 165:main.c        ****     /* Start USBFS device 0 with VDDD operation */
 166:main.c        ****     USB_Start(0u, USB_DWR_VDDD_OPERATION); 
 167:main.c        ****     
 168:main.c        ****     /**** End of initilizations ****/
 169:main.c        ****     
 170:main.c        ****     /****************************************************** M A I N  L O O P **********************
 171:main.c        ****     while(1u)
 172:main.c        ****     {
 173:main.c        ****         #if 0
 174:main.c        ****         if(USB_IsConfigurationChanged() != 0u) /* Host could send double SET_INTERFACE request */
 175:main.c        ****         {
 176:main.c        ****             if(USB_GetConfiguration() != 0u)   /* Init IN endpoints when device configured */
 177:main.c        ****             {
 178:main.c        ****                 MIDI_PWR_Write(0u); /* Power ON CY8CKIT-044 board */ //WE DON'T HAVE THIS BOARD?? -
 179:main.c        ****                 /* Start ISR to determine the sleep condition */
 180:main.c        ****                 Sleep_isr_StartEx(SleepIsr);
 181:main.c        ****                 /* Start SleepTimer's operation */
 182:main.c        ****                 SleepTimer_Start();
 183:main.c        ****             	/* Enable the output endpoint */
 184:main.c        ****                 USB_MIDI_EP_Init();
 185:main.c        ****             }
 186:main.c        ****             else
 187:main.c        ****             {
 188:main.c        ****                 SleepTimer_Stop();
 189:main.c        ****             }    
 190:main.c        ****         }        
 191:main.c        ****         #endif
 192:main.c        ****         
 193:main.c        ****         if (1)
 194:main.c        ****         //if(USB_GetConfiguration() != 0u)    /* Service USB MIDI when device configured */
 195:main.c        ****         {
 196:main.c        ****             #if 0
 197:main.c        ****             /* Call this API from UART RX ISR for Auto DMA mode */
 198:main.c        ****             #if(USB_EP_MM != USB__EP_DMAAUTO) 
 199:main.c        ****                 USB_MIDI_IN_Service();
 200:main.c        ****             #endif
 201:main.c        ****             /* In Manual EP Memory Management mode OUT_EP_Service() 
 202:main.c        ****             *  may have to be called from main foreground or from OUT EP ISR
ARM GAS  C:\Users\jmdevoto\AppData\Local\Temp\cce8AF7b.s 			page 5


 203:main.c        ****             */
 204:main.c        ****             #if(USB_EP_MM != USB__EP_DMAAUTO) 
 205:main.c        ****                 USB_MIDI_OUT_EP_Service();
 206:main.c        ****             #endif
 207:main.c        **** 
 208:main.c        ****             /* Sending an Identity Reply Universal Sysex message back to the computer */
 209:main.c        ****             if((USB_MIDI1_InqFlags & USB_INQ_IDENTITY_REQ_FLAG) != 0u)
 210:main.c        ****             {
 211:main.c        ****                 USB_PutUsbMidiIn(sizeof(MIDI_IDENTITY_REPLY), (uint8 *)MIDI_IDENTITY_REPLY, USB_MID
 212:main.c        ****                 USB_MIDI1_InqFlags &= ~USB_INQ_IDENTITY_REQ_FLAG;
 213:main.c        ****             }
 214:main.c        ****             #if (USB_MIDI_EXT_MODE >= USB_TWO_EXT_INTRF)
 215:main.c        ****                 if((USB_MIDI2_InqFlags & USB_INQ_IDENTITY_REQ_FLAG) != 0u)
 216:main.c        ****                 {
 217:main.c        ****                     USB_PutUsbMidiIn(sizeof(MIDI_IDENTITY_REPLY), (uint8 *)MIDI_IDENTITY_REPLY, USB
 218:main.c        ****                     USB_MIDI2_InqFlags &= ~USB_INQ_IDENTITY_REQ_FLAG;
 219:main.c        ****                 }
 220:main.c        ****             #endif /* End USB_MIDI_EXT_MODE >= USB_TWO_EXT_INTRF */
 221:main.c        ****             #endif
 222:main.c        ****             
 223:main.c        ****             /*********************** M I D I  O U T P U T ****************************/
 224:main.c        ****             // This is the frame we are operating on. It is always the opposite of the current fram
 225:main.c        ****             sampleFrame = currFrame ^ 0b01; 
 226:main.c        ****             if (frameReady[sampleFrame]&&!frameProcessed) {
 227:main.c        ****                 // Lock the current frame and unset the current flag.
 228:main.c        ****                 frameLocked[sampleFrame] = true;
 229:main.c        ****                 frameProcessed = true;
 230:main.c        ****                 
 231:main.c        ****                 // Runs Pitch Detection Algorithm        
 232:main.c        ****                 //pitchHz = pitch_fft(dataFrames[sampleFrame], sampImg);
 233:main.c        ****                 //pitchHz = pitch_zero_cross(dataFrames[sampleFrame]);
 234:main.c        ****                 //pitchHz = auto_correlate(dataFrames[sampleFrame]);
 235:main.c        ****                 pitchHz = pitch_auto_fft(dataFrames[sampleFrame]);
 236:main.c        ****                 
 237:main.c        ****                 // Unlocks the frame
 238:main.c        ****                 frameLocked[sampleFrame] = false;
 239:main.c        ****                 
 240:main.c        ****                 //int note = NoteSnap(noteTable, pitchHz, curKey, curScale);
 241:main.c        ****                 int note = lastNote;
 242:main.c        ****                 
 243:main.c        ****                 if(pitchHz < 600 && pitchHz > 80){  //eliminate extreme, unintentional freqs
 244:main.c        ****                     if (midi_note_changed(pitchHz, lastNote, noteTable)) {
 245:main.c        ****                         note = NoteSnap(noteTable, pitchHz, curKey, curScale);
 246:main.c        ****                         //note = midi_note_from_freq(pitchHz);
 247:main.c        ****                     }
 248:main.c        ****                 }
 249:main.c        ****                 
 250:main.c        ****                 // If the new note is not the same as the last and does not = -1, the error value f
 251:main.c        ****                 if (note != lastNote && note != -1) {
 252:main.c        ****                     // If not the initial condition, send a note off signal when new note is detect
 253:main.c        ****                     if (lastNote != -1) {
 254:main.c        ****                         midiMsg[0] = USB_MIDI_NOTE_OFF;
 255:main.c        ****                         midiMsg[1] = lastNote;
 256:main.c        ****                         midiMsg[2] = 0u;        
 257:main.c        ****                         
 258:main.c        ****                         UART_PutChar(midiMsg[0]);
 259:main.c        ****                         UART_PutChar(midiMsg[1]);
ARM GAS  C:\Users\jmdevoto\AppData\Local\Temp\cce8AF7b.s 			page 6


 260:main.c        ****                         UART_PutChar(midiMsg[2]);
 261:main.c        ****                         //USB_PutUsbMidiIn(3u, midiMsg, USB_MIDI_CABLE_00);
 262:main.c        ****                         
 263:main.c        ****                         
 264:main.c        ****                     }
 265:main.c        ****                     
 266:main.c        ****                     midiMsg[0] = USB_MIDI_NOTE_ON;
 267:main.c        ****                     midiMsg[1] = note;
 268:main.c        ****                     midiMsg[2] = 100u;
 269:main.c        ****                     
 270:main.c        ****                     UART_PutChar(midiMsg[0]);
 271:main.c        ****                     UART_PutChar(midiMsg[1]);
 272:main.c        ****                     UART_PutChar(midiMsg[2]);
 273:main.c        ****                     //USB_PutUsbMidiIn(3u, midiMsg, USB_MIDI_CABLE_00);                            
 274:main.c        ****                     
 275:main.c        ****                     lastNote = note;
 276:main.c        ****                 }
 277:main.c        ****          
 278:main.c        ****                 // Updates display for debugging
 279:main.c        ****                 CharLCD_ClearDisplay();
 280:main.c        ****                 CharLCD_Position(0,0);
 281:main.c        ****                 CharLCD_PrintNumber(pitchHz);
 282:main.c        ****                 CharLCD_Position(1,0);
 283:main.c        ****                 CharLCD_PrintString(midi_note_basename(midiMsg[1]));
 284:main.c        ****                 CharLCD_Position(1,2);
 285:main.c        ****                 CharLCD_PrintNumber(midiMsg[1]);
 286:main.c        ****                 
 287:main.c        ****                 /**** TEST: Output for UI ADC (Disabled for testing note on/off functionallity)****
 288:main.c        ****                 curScale = UpdateScaleLCD();
 289:main.c        ****                 curKey = UpdateKeyLCD();
 290:main.c        ****                                             
 291:main.c        ****                 
 292:main.c        ****             } // If the frameReady was low, meaning no note is being hummed, send MIDI note off
 293:main.c        ****                 if(!frameReady[sampleFrame])
 294:main.c        ****                 {
 295:main.c        ****                     midiMsg[0] = USB_MIDI_NOTE_OFF;
 296:main.c        ****                     midiMsg[1] = lastNote;
 297:main.c        ****                     midiMsg[2] = 0u;
 298:main.c        ****                     
 299:main.c        ****                     UART_PutChar(midiMsg[0]);
 300:main.c        ****                     UART_PutChar(midiMsg[1]);
 301:main.c        ****                     UART_PutChar(midiMsg[2]);
 302:main.c        **** 
 303:main.c        ****                     //USB_PutUsbMidiIn(3u, midiMsg, USB_MIDI_CABLE_00);  
 304:main.c        ****                 }
 305:main.c        ****            
 306:main.c        **** 
 307:main.c        ****                 #if 0
 308:main.c        ****                 #if(USB_EP_MM == USB__EP_DMAAUTO) 
 309:main.c        ****                    #if (USB_MIDI_EXT_MODE >= USB_ONE_EXT_INTRF)
 310:main.c        ****                         MIDI1_UART_DisableRxInt();
 311:main.c        ****                         #if (USB_MIDI_EXT_MODE >= USB_TWO_EXT_INTRF)
 312:main.c        ****                             MIDI2_UART_DisableRxInt();
 313:main.c        ****                         #endif /* End USB_MIDI_EXT_MODE >= USB_TWO_EXT_INTRF */
 314:main.c        ****                     #endif /* End USB_MIDI_EXT_MODE >= USB_ONE_EXT_INTRF */            
 315:main.c        ****                     USB_MIDI_IN_Service();
 316:main.c        ****                     #if (USB_MIDI_EXT_MODE >= USB_ONE_EXT_INTRF)
ARM GAS  C:\Users\jmdevoto\AppData\Local\Temp\cce8AF7b.s 			page 7


 317:main.c        ****                         MIDI1_UART_EnableRxInt();
 318:main.c        ****                         #if (USB_MIDI_EXT_MODE >= USB_TWO_EXT_INTRF)
 319:main.c        ****                             MIDI2_UART_EnableRxInt();
 320:main.c        ****                         #endif /* End USB_MIDI_EXT_MODE >= USB_TWO_EXT_INTRF */
 321:main.c        ****                     #endif /* End USB_MIDI_EXT_MODE >= USB_ONE_EXT_INTRF */                
 322:main.c        ****                 #endif
 323:main.c        ****                 #endif
 324:main.c        ****         } /* END USB CHECK */
 325:main.c        ****         
 326:main.c        ****         if( usbActivityCounter >= 2u ) 
 327:main.c        ****         {
 328:main.c        ****             MIDI1_UART_Sleep();
 329:main.c        ****             MIDI2_UART_Sleep();
 330:main.c        ****             MIDI_PWR_Write(1u);     /* Power OFF CY8CKIT-044 board */
 331:main.c        ****                 
 332:main.c        ****             /*******************************************************************
 333:main.c        ****             * Disable the USBFS block and set DP Interrupt for wake-up 
 334:main.c        ****             * from sleep mode. 
 335:main.c        ****             *******************************************************************/
 336:main.c        ****             USB_Suspend(); 
 337:main.c        ****             /* Prepares system clocks for the Sleep mode */
 338:main.c        ****             CyPmSaveClocks();
 339:main.c        ****             /*******************************************************************
 340:main.c        ****             * Switch to the Sleep Mode for the PSoC 3 or PSoC 5LP devices:
 341:main.c        ****             *  - PM_SLEEP_TIME_NONE: wakeup time is defined by PICU source
 342:main.c        ****             *  - PM_SLEEP_SRC_PICU: PICU wakeup source 
 343:main.c        ****             *******************************************************************/
 344:main.c        ****             CyPmSleep(PM_SLEEP_TIME_NONE, PM_SLEEP_SRC_PICU);
 345:main.c        ****             /* Restore clock configuration */
 346:main.c        ****             CyPmRestoreClocks();
 347:main.c        ****             /* Enable the USBFS block after power down mode */
 348:main.c        ****             USB_Resume();
 349:main.c        ****             
 350:main.c        ****             /* Enable the output endpoint */
 351:main.c        ****             USB_MIDI_EP_Init();
 352:main.c        ****             MIDI_PWR_Write(0u);     /* Power ON CY8CKIT-044 board */
 353:main.c        ****             MIDI1_UART_Wakeup();
 354:main.c        ****             MIDI2_UART_Wakeup();
 355:main.c        ****             usbActivityCounter = 0u; /* Re-init USB Activity Counter*/
 356:main.c        ****         }
 357:main.c        ****     } /* END Service USB MIDI when device configured */
 358:main.c        ****     
 359:main.c        ****     return 0;
 360:main.c        **** } /**** END MAIN LOOP ****/    
 361:main.c        **** 
 362:main.c        **** 
 363:main.c        **** /* Local processing of USB MIDI out events here */
 364:main.c        **** void USB_callbackLocalMidiEvent(uint8 cable, uint8 *midiMsg) CYREENTRANT
 365:main.c        **** {
 366:main.c        ****     /* Support General System On/Off Message. */
 367:main.c        ****     if(((USB_MIDI1_InqFlags & USB_INQ_SYSEX_FLAG) == 0u) && ((inqFlags_old & USB_INQ_SYSEX_FLAG) !=
 368:main.c        ****     {
 369:main.c        ****         if(midiMsg[USB_EVENT_BYTE0] == USB_MIDI_SYSEX_GEN_MESSAGE)
 370:main.c        ****         {
 371:main.c        ****             if(midiMsg[USB_EVENT_BYTE1] == USB_MIDI_SYSEX_SYSTEM_ON)
 372:main.c        ****             {
 373:main.c        ****                 MIDI_PWR_Write(0u); /* Power ON */
ARM GAS  C:\Users\jmdevoto\AppData\Local\Temp\cce8AF7b.s 			page 8


 374:main.c        ****             }
 375:main.c        ****             else if(midiMsg[USB_EVENT_BYTE1] == USB_MIDI_SYSEX_SYSTEM_OFF)
 376:main.c        ****             {
 377:main.c        ****                 MIDI_PWR_Write(1u); /* Power OFF */
 378:main.c        ****             }
 379:main.c        ****         }
 380:main.c        ****     }
 381:main.c        ****     inqFlags_old = USB_MIDI1_InqFlags;
 382:main.c        ****     cable = cable;
 383:main.c        **** }    
 384:main.c        **** 
 385:main.c        **** // ***** GetSample ISR *****
 386:main.c        **** // This ISR fills each audio frame. It runs on a timer which gives us our sampling rate.
 387:main.c        **** // Each frame is 1024 samples stored in an array.
 388:main.c        **** 
 389:main.c        **** CY_ISR(GetSample){
  27              		.loc 1 389 0
  28              		.cfi_startproc
  29              		@ args = 0, pretend = 0, frame = 0
  30              		@ frame_needed = 0, uses_anonymous_args = 0
  31 0000 70B5     		push	{r4, r5, r6, lr}
  32              		.cfi_def_cfa_offset 16
  33              		.cfi_offset 4, -16
  34              		.cfi_offset 5, -12
  35              		.cfi_offset 6, -8
  36              		.cfi_offset 14, -4
 390:main.c        ****     /* Clear pending Interrupt */
 391:main.c        ****     //isr_1_ClearPending();
 392:main.c        ****     Timer_1_STATUS;
  37              		.loc 1 392 0
  38 0002 1C4B     		ldr	r3, .L12
 393:main.c        ****     
 394:main.c        ****     if (ADC_SAR_1_IsEndConversion(ADC_SAR_1_WAIT_FOR_RESULT)) {
  39              		.loc 1 394 0
  40 0004 0020     		movs	r0, #0
 392:main.c        ****     
  41              		.loc 1 392 0
  42 0006 1B78     		ldrb	r3, [r3]	@ zero_extendqisi2
  43              		.loc 1 394 0
  44 0008 FFF7FEFF 		bl	ADC_SAR_1_IsEndConversion
  45              	.LVL0:
  46 000c 38B1     		cbz	r0, .L1
 395:main.c        ****         if (!frameLocked[currFrame]) {
  47              		.loc 1 395 0
  48 000e 1A4C     		ldr	r4, .L12+4
  49 0010 2378     		ldrb	r3, [r4]	@ zero_extendqisi2
  50 0012 E218     		adds	r2, r4, r3
  51 0014 1279     		ldrb	r2, [r2, #4]	@ zero_extendqisi2
  52 0016 1AB1     		cbz	r2, .L11
 396:main.c        ****             ADCoutput = ADC_SAR_1_GetResult16();
 397:main.c        ****             
 398:main.c        ****             if (ADCoutput > max_value) {                        // Updates the max value if applica
 399:main.c        ****                 max_value = ADCoutput;
 400:main.c        ****             }
 401:main.c        ****             
 402:main.c        ****             if (frameIndex < FRAME_LEN) {
 403:main.c        ****                 dataFrames[currFrame][frameIndex] = ADCoutput;
ARM GAS  C:\Users\jmdevoto\AppData\Local\Temp\cce8AF7b.s 			page 9


 404:main.c        ****                 frameIndex++;
 405:main.c        ****             } else {                                            // Frame is getting the last value 
 406:main.c        ****                 frameReady[currFrame] = max_value >= THRESHHOLD;  // Sets the frameReady (note is o
 407:main.c        ****                                                                     //  noise threshold
 408:main.c        ****                 test_max = max_value;
 409:main.c        ****                 frameIndex = 0;
 410:main.c        ****                 max_value = 0;
 411:main.c        ****                 currFrame = currFrame ^ 0b01;                   // Swap current frame index.
 412:main.c        ****                 frameProcessed = false;                         // Signals to main that there is a 
 413:main.c        ****             }
 414:main.c        ****         } else {
 415:main.c        ****             currFrame = currFrame ^ 0b01;                       // If a frame is processing, update
  53              		.loc 1 415 0
  54 0018 83F00103 		eor	r3, r3, #1
  55 001c 2370     		strb	r3, [r4]
  56              	.L1:
  57 001e 70BD     		pop	{r4, r5, r6, pc}
  58              	.L11:
 396:main.c        ****             ADCoutput = ADC_SAR_1_GetResult16();
  59              		.loc 1 396 0
  60 0020 FFF7FEFF 		bl	ADC_SAR_1_GetResult16
  61              	.LVL1:
  62 0024 154A     		ldr	r2, .L12+8
 398:main.c        ****                 max_value = ADCoutput;
  63              		.loc 1 398 0
  64 0026 A368     		ldr	r3, [r4, #8]
 396:main.c        ****             ADCoutput = ADC_SAR_1_GetResult16();
  65              		.loc 1 396 0
  66 0028 1080     		strh	r0, [r2]	@ movhi
 402:main.c        ****                 dataFrames[currFrame][frameIndex] = ADCoutput;
  67              		.loc 1 402 0
  68 002a A289     		ldrh	r2, [r4, #12]
 398:main.c        ****                 max_value = ADCoutput;
  69              		.loc 1 398 0
  70 002c 9842     		cmp	r0, r3
 399:main.c        ****             }
  71              		.loc 1 399 0
  72 002e C8BF     		it	gt
  73 0030 A060     		strgt	r0, [r4, #8]
 402:main.c        ****                 dataFrames[currFrame][frameIndex] = ADCoutput;
  74              		.loc 1 402 0
  75 0032 FF2A     		cmp	r2, #255
  76 0034 104B     		ldr	r3, .L12+4
  77 0036 08D8     		bhi	.L5
 403:main.c        ****                 frameIndex++;
  78              		.loc 1 403 0
  79 0038 1978     		ldrb	r1, [r3]	@ zero_extendqisi2
  80 003a 114C     		ldr	r4, .L12+12
  81 003c 02EB0121 		add	r1, r2, r1, lsl #8
 404:main.c        ****             } else {                                            // Frame is getting the last value 
  82              		.loc 1 404 0
  83 0040 0132     		adds	r2, r2, #1
  84 0042 9A81     		strh	r2, [r3, #12]	@ movhi
 403:main.c        ****                 frameIndex++;
  85              		.loc 1 403 0
  86 0044 24F81100 		strh	r0, [r4, r1, lsl #1]	@ movhi
  87 0048 70BD     		pop	{r4, r5, r6, pc}
ARM GAS  C:\Users\jmdevoto\AppData\Local\Temp\cce8AF7b.s 			page 10


  88              	.L5:
  89              	.LBB4:
  90              	.LBB5:
 406:main.c        ****                                                                     //  noise threshold
  91              		.loc 1 406 0
  92 004a 9868     		ldr	r0, [r3, #8]
  93 004c 1A78     		ldrb	r2, [r3]	@ zero_extendqisi2
  94 004e 6D28     		cmp	r0, #109
  95 0050 03EB0204 		add	r4, r3, r2
 408:main.c        ****                 frameIndex = 0;
  96              		.loc 1 408 0
  97 0054 0B4E     		ldr	r6, .L12+16
 411:main.c        ****                 frameProcessed = false;                         // Signals to main that there is a 
  98              		.loc 1 411 0
  99 0056 82F00102 		eor	r2, r2, #1
 409:main.c        ****                 max_value = 0;
 100              		.loc 1 409 0
 101 005a 4FF00001 		mov	r1, #0
 406:main.c        ****                                                                     //  noise threshold
 102              		.loc 1 406 0
 103 005e D4BF     		ite	le
 104 0060 0025     		movle	r5, #0
 105 0062 0125     		movgt	r5, #1
 411:main.c        ****                 frameProcessed = false;                         // Signals to main that there is a 
 106              		.loc 1 411 0
 107 0064 1A70     		strb	r2, [r3]
 408:main.c        ****                 frameIndex = 0;
 108              		.loc 1 408 0
 109 0066 3060     		str	r0, [r6]
 406:main.c        ****                                                                     //  noise threshold
 110              		.loc 1 406 0
 111 0068 2574     		strb	r5, [r4, #16]
 409:main.c        ****                 max_value = 0;
 112              		.loc 1 409 0
 113 006a 9981     		strh	r1, [r3, #12]	@ movhi
 410:main.c        ****                 currFrame = currFrame ^ 0b01;                   // Swap current frame index.
 114              		.loc 1 410 0
 115 006c 9960     		str	r1, [r3, #8]
 412:main.c        ****             }
 116              		.loc 1 412 0
 117 006e 9974     		strb	r1, [r3, #18]
 118 0070 70BD     		pop	{r4, r5, r6, pc}
 119              	.L13:
 120 0072 00BF     		.align	2
 121              	.L12:
 122 0074 69650040 		.word	1073767785
 123 0078 00000000 		.word	.LANCHOR0
 124 007c 00000000 		.word	ADCoutput
 125 0080 00000000 		.word	dataFrames
 126 0084 00000000 		.word	test_max
 127              	.LBE5:
 128              	.LBE4:
 129              		.cfi_endproc
 130              	.LFE60:
 131              		.size	GetSample, .-GetSample
 132              		.section	.text.SleepIsr,"ax",%progbits
 133              		.align	2
ARM GAS  C:\Users\jmdevoto\AppData\Local\Temp\cce8AF7b.s 			page 11


 134              		.global	SleepIsr
 135              		.thumb
 136              		.thumb_func
 137              		.type	SleepIsr, %function
 138              	SleepIsr:
 139              	.LFB56:
 102:main.c        ****     /* Chech USB activity */
 140              		.loc 1 102 0
 141              		.cfi_startproc
 142              		@ args = 0, pretend = 0, frame = 0
 143              		@ frame_needed = 0, uses_anonymous_args = 0
 144 0000 08B5     		push	{r3, lr}
 145              		.cfi_def_cfa_offset 8
 146              		.cfi_offset 3, -8
 147              		.cfi_offset 14, -4
 104:main.c        ****         usbActivityCounter = 0u;
 148              		.loc 1 104 0
 149 0002 FFF7FEFF 		bl	USB_CheckActivity
 150              	.LVL2:
 151 0006 40B9     		cbnz	r0, .L18
 107:main.c        ****     }
 152              		.loc 1 107 0
 153 0008 074A     		ldr	r2, .L19
 154 000a D37C     		ldrb	r3, [r2, #19]	@ zero_extendqisi2
 155 000c 0133     		adds	r3, r3, #1
 156 000e DBB2     		uxtb	r3, r3
 157 0010 D374     		strb	r3, [r2, #19]
 111:main.c        **** 
 158              		.loc 1 111 0
 159 0012 BDE80840 		pop	{r3, lr}
 160              		.cfi_remember_state
 161              		.cfi_restore 14
 162              		.cfi_restore 3
 163              		.cfi_def_cfa_offset 0
 110:main.c        **** }
 164              		.loc 1 110 0
 165 0016 FFF7FEBF 		b	SleepTimer_GetStatus
 166              	.LVL3:
 167              	.L18:
 168              		.cfi_restore_state
 105:main.c        ****     }else{
 169              		.loc 1 105 0
 170 001a 034B     		ldr	r3, .L19
 171 001c 0022     		movs	r2, #0
 172 001e DA74     		strb	r2, [r3, #19]
 111:main.c        **** 
 173              		.loc 1 111 0
 174 0020 BDE80840 		pop	{r3, lr}
 175              		.cfi_restore 3
 176              		.cfi_restore 14
 177              		.cfi_def_cfa_offset 0
 110:main.c        **** }
 178              		.loc 1 110 0
 179 0024 FFF7FEBF 		b	SleepTimer_GetStatus
 180              	.LVL4:
 181              	.L20:
 182              		.align	2
ARM GAS  C:\Users\jmdevoto\AppData\Local\Temp\cce8AF7b.s 			page 12


 183              	.L19:
 184 0028 00000000 		.word	.LANCHOR0
 185              		.cfi_endproc
 186              	.LFE56:
 187              		.size	SleepIsr, .-SleepIsr
 188              		.section	.text.GenerateMidiArray,"ax",%progbits
 189              		.align	2
 190              		.global	GenerateMidiArray
 191              		.thumb
 192              		.thumb_func
 193              		.type	GenerateMidiArray, %function
 194              	GenerateMidiArray:
 195              	.LFB57:
 127:main.c        ****     midiArray[0]=cmd;
 196              		.loc 1 127 0
 197              		.cfi_startproc
 198              		@ args = 0, pretend = 0, frame = 0
 199              		@ frame_needed = 0, uses_anonymous_args = 0
 200              		@ link register save eliminated.
 201              	.LVL5:
 128:main.c        ****     midiArray[1]=note;
 202              		.loc 1 128 0
 203 0000 0170     		strb	r1, [r0]
 129:main.c        ****     midiArray[2]=vel;
 204              		.loc 1 129 0
 205 0002 4270     		strb	r2, [r0, #1]
 130:main.c        **** }
 206              		.loc 1 130 0
 207 0004 8370     		strb	r3, [r0, #2]
 208 0006 7047     		bx	lr
 209              		.cfi_endproc
 210              	.LFE57:
 211              		.size	GenerateMidiArray, .-GenerateMidiArray
 212              		.global	__aeabi_fcmplt
 213              		.global	__aeabi_fcmpgt
 214              		.global	__aeabi_f2d
 215              		.global	__aeabi_f2uiz
 216              		.section	.text.startup.main,"ax",%progbits
 217              		.align	2
 218              		.global	main
 219              		.thumb
 220              		.thumb_func
 221              		.type	main, %function
 222              	main:
 223              	.LFB58:
 134:main.c        ****     /**** Initilizations ****/
 224              		.loc 1 134 0
 225              		.cfi_startproc
 226              		@ args = 0, pretend = 0, frame = 0
 227              		@ frame_needed = 0, uses_anonymous_args = 0
 228 0000 2DE9F84F 		push	{r3, r4, r5, r6, r7, r8, r9, r10, fp, lr}
 229              		.cfi_def_cfa_offset 40
 230              		.cfi_offset 3, -40
 231              		.cfi_offset 4, -36
 232              		.cfi_offset 5, -32
 233              		.cfi_offset 6, -28
 234              		.cfi_offset 7, -24
ARM GAS  C:\Users\jmdevoto\AppData\Local\Temp\cce8AF7b.s 			page 13


 235              		.cfi_offset 8, -20
 236              		.cfi_offset 9, -16
 237              		.cfi_offset 10, -12
 238              		.cfi_offset 11, -8
 239              		.cfi_offset 14, -4
 138:main.c        ****     CY_ISR_PROTO(GetSample);  //declare the audio sampling interrupt
 240              		.loc 1 138 0
 241              	@ 138 "main.c" 1
 242 0004 62B6     		CPSIE   i
 243              	@ 0 "" 2
 142:main.c        ****     CharLCD_Start();
 244              		.loc 1 142 0
 245              		.thumb
 246 0006 FFF7FEFF 		bl	I2C_CharLCD_Start
 247              	.LVL6:
 143:main.c        ****     
 248              		.loc 1 143 0
 249 000a FFF7FEFF 		bl	CharLCD_Start
 250              	.LVL7:
 146:main.c        ****     //UI_isr_StartEx(UI_isr_Interrupt);
 251              		.loc 1 146 0
 252 000e 7148     		ldr	r0, .L51
 253 0010 FFF7FEFF 		bl	isr_1_StartEx
 254              	.LVL8:
 255 0014 DFF8CCA1 		ldr	r10, .L51+16
 150:main.c        ****     
 256              		.loc 1 150 0
 257 0018 FFF7FEFF 		bl	Timer_1_Start
 258              	.LVL9:
 153:main.c        ****     ADC_SAR_1_StartConvert();
 259              		.loc 1 153 0
 260 001c FFF7FEFF 		bl	ADC_SAR_1_Start
 261              	.LVL10:
 154:main.c        ****     UI_ADC_Start();
 262              		.loc 1 154 0
 263 0020 FFF7FEFF 		bl	ADC_SAR_1_StartConvert
 264              	.LVL11:
 155:main.c        ****     UI_ADC_StartConvert();
 265              		.loc 1 155 0
 266 0024 FFF7FEFF 		bl	UI_ADC_Start
 267              	.LVL12:
 156:main.c        ****      
 268              		.loc 1 156 0
 269 0028 FFF7FEFF 		bl	UI_ADC_StartConvert
 270              	.LVL13:
 158:main.c        ****     
 271              		.loc 1 158 0
 272 002c FFF7FEFF 		bl	UART_Start
 273              	.LVL14:
 160:main.c        ****     
 274              		.loc 1 160 0
 275 0030 FFF7FEFF 		bl	pitch_init
 276              	.LVL15:
 163:main.c        **** 
 277              		.loc 1 163 0
 278 0034 6848     		ldr	r0, .L51+4
 279 0036 FFF7FEFF 		bl	populate_midi_array
ARM GAS  C:\Users\jmdevoto\AppData\Local\Temp\cce8AF7b.s 			page 14


 280              	.LVL16:
 166:main.c        ****     
 281              		.loc 1 166 0
 282 003a 0020     		movs	r0, #0
 283 003c 0221     		movs	r1, #2
 284 003e FFF7FEFF 		bl	USB_Start
 285              	.LVL17:
 225:main.c        ****             if (frameReady[sampleFrame]&&!frameProcessed) {
 286              		.loc 1 225 0
 287 0042 5546     		mov	r5, r10
 288 0044 654C     		ldr	r4, .L51+8
 289 0046 664E     		ldr	r6, .L51+12
 290 0048 DFF8A8B1 		ldr	fp, .L51+32
 291 004c DFF8A091 		ldr	r9, .L51+28
 292 0050 13E0     		b	.L34
 293              	.L33:
 295:main.c        ****                     midiMsg[1] = lastNote;
 294              		.loc 1 295 0
 295 0052 8023     		movs	r3, #128
 296:main.c        ****                     midiMsg[2] = 0u;
 296              		.loc 1 296 0
 297 0054 3168     		ldr	r1, [r6]
 299:main.c        ****                     UART_PutChar(midiMsg[1]);
 298              		.loc 1 299 0
 299 0056 1846     		mov	r0, r3
 297:main.c        ****                     
 300              		.loc 1 297 0
 301 0058 0022     		movs	r2, #0
 295:main.c        ****                     midiMsg[1] = lastNote;
 302              		.loc 1 295 0
 303 005a 2370     		strb	r3, [r4]
 296:main.c        ****                     midiMsg[2] = 0u;
 304              		.loc 1 296 0
 305 005c 6170     		strb	r1, [r4, #1]
 297:main.c        ****                     
 306              		.loc 1 297 0
 307 005e A270     		strb	r2, [r4, #2]
 299:main.c        ****                     UART_PutChar(midiMsg[1]);
 308              		.loc 1 299 0
 309 0060 FFF7FEFF 		bl	UART_PutChar
 310              	.LVL18:
 300:main.c        ****                     UART_PutChar(midiMsg[2]);
 311              		.loc 1 300 0
 312 0064 6078     		ldrb	r0, [r4, #1]	@ zero_extendqisi2
 313 0066 FFF7FEFF 		bl	UART_PutChar
 314              	.LVL19:
 301:main.c        **** 
 315              		.loc 1 301 0
 316 006a A078     		ldrb	r0, [r4, #2]	@ zero_extendqisi2
 317 006c FFF7FEFF 		bl	UART_PutChar
 318              	.LVL20:
 319              	.L24:
 326:main.c        ****         {
 320              		.loc 1 326 0
 321 0070 9AF81330 		ldrb	r3, [r10, #19]	@ zero_extendqisi2
 322 0074 5B4F     		ldr	r7, .L51+16
 323 0076 012B     		cmp	r3, #1
ARM GAS  C:\Users\jmdevoto\AppData\Local\Temp\cce8AF7b.s 			page 15


 324 0078 56D8     		bhi	.L48
 325              	.L34:
 225:main.c        ****             if (frameReady[sampleFrame]&&!frameProcessed) {
 326              		.loc 1 225 0
 327 007a 9AF80000 		ldrb	r0, [r10]	@ zero_extendqisi2
 328 007e 80F00100 		eor	r0, r0, #1
 226:main.c        ****                 // Lock the current frame and unset the current flag.
 329              		.loc 1 226 0
 330 0082 0AEB0003 		add	r3, r10, r0
 331 0086 1A7C     		ldrb	r2, [r3, #16]	@ zero_extendqisi2
 225:main.c        ****             if (frameReady[sampleFrame]&&!frameProcessed) {
 332              		.loc 1 225 0
 333 0088 8AF81400 		strb	r0, [r10, #20]
 226:main.c        ****                 // Lock the current frame and unset the current flag.
 334              		.loc 1 226 0
 335 008c 002A     		cmp	r2, #0
 336 008e E0D0     		beq	.L33
 226:main.c        ****                 // Lock the current frame and unset the current flag.
 337              		.loc 1 226 0 is_stmt 0 discriminator 1
 338 0090 AF7C     		ldrb	r7, [r5, #18]	@ zero_extendqisi2
 339 0092 002F     		cmp	r7, #0
 340 0094 ECD1     		bne	.L24
 341              	.LBB6:
 228:main.c        ****                 frameProcessed = true;
 342              		.loc 1 228 0 is_stmt 1
 343 0096 0122     		movs	r2, #1
 235:main.c        ****                 
 344              		.loc 1 235 0
 345 0098 0BEB4020 		add	r0, fp, r0, lsl #9
 228:main.c        ****                 frameProcessed = true;
 346              		.loc 1 228 0
 347 009c 1A71     		strb	r2, [r3, #4]
 229:main.c        ****                 
 348              		.loc 1 229 0
 349 009e AA74     		strb	r2, [r5, #18]
 235:main.c        ****                 
 350              		.loc 1 235 0
 351 00a0 FFF7FEFF 		bl	pitch_auto_fft
 352              	.LVL21:
 238:main.c        ****                 
 353              		.loc 1 238 0
 354 00a4 2B7D     		ldrb	r3, [r5, #20]	@ zero_extendqisi2
 243:main.c        ****                     if (midi_note_changed(pitchHz, lastNote, noteTable)) {
 355              		.loc 1 243 0
 356 00a6 5049     		ldr	r1, .L51+20
 238:main.c        ****                 
 357              		.loc 1 238 0
 358 00a8 2B44     		add	r3, r3, r5
 359 00aa 1F71     		strb	r7, [r3, #4]
 235:main.c        ****                 
 360              		.loc 1 235 0
 361 00ac 8046     		mov	r8, r0
 362 00ae C9F80000 		str	r0, [r9]	@ float
 241:main.c        ****                 
 363              		.loc 1 241 0
 364 00b2 3768     		ldr	r7, [r6]
 365              	.LVL22:
ARM GAS  C:\Users\jmdevoto\AppData\Local\Temp\cce8AF7b.s 			page 16


 243:main.c        ****                     if (midi_note_changed(pitchHz, lastNote, noteTable)) {
 366              		.loc 1 243 0
 367 00b4 FFF7FEFF 		bl	__aeabi_fcmplt
 368              	.LVL23:
 369 00b8 28B1     		cbz	r0, .L27
 243:main.c        ****                     if (midi_note_changed(pitchHz, lastNote, noteTable)) {
 370              		.loc 1 243 0 is_stmt 0 discriminator 1
 371 00ba 4046     		mov	r0, r8
 372 00bc 4B49     		ldr	r1, .L51+24
 373 00be FFF7FEFF 		bl	__aeabi_fcmpgt
 374              	.LVL24:
 375 00c2 0028     		cmp	r0, #0
 376 00c4 4FD1     		bne	.L49
 377              	.L27:
 279:main.c        ****                 CharLCD_Position(0,0);
 378              		.loc 1 279 0 is_stmt 1
 379 00c6 0120     		movs	r0, #1
 380 00c8 FFF7FEFF 		bl	CharLCD_WriteControl
 381              	.LVL25:
 280:main.c        ****                 CharLCD_PrintNumber(pitchHz);
 382              		.loc 1 280 0
 383 00cc 0020     		movs	r0, #0
 384 00ce 0146     		mov	r1, r0
 385 00d0 FFF7FEFF 		bl	CharLCD_Position
 386              	.LVL26:
 281:main.c        ****                 CharLCD_Position(1,0);
 387              		.loc 1 281 0
 388 00d4 D9F80000 		ldr	r0, [r9]	@ float
 389 00d8 FFF7FEFF 		bl	__aeabi_f2uiz
 390              	.LVL27:
 391 00dc 80B2     		uxth	r0, r0
 392 00de FFF7FEFF 		bl	CharLCD_PrintNumber
 393              	.LVL28:
 282:main.c        ****                 CharLCD_PrintString(midi_note_basename(midiMsg[1]));
 394              		.loc 1 282 0
 395 00e2 0021     		movs	r1, #0
 396 00e4 0120     		movs	r0, #1
 397 00e6 FFF7FEFF 		bl	CharLCD_Position
 398              	.LVL29:
 283:main.c        ****                 CharLCD_Position(1,2);
 399              		.loc 1 283 0
 400 00ea 6078     		ldrb	r0, [r4, #1]	@ zero_extendqisi2
 401 00ec FFF7FEFF 		bl	midi_note_basename
 402              	.LVL30:
 403 00f0 FFF7FEFF 		bl	CharLCD_PrintString
 404              	.LVL31:
 284:main.c        ****                 CharLCD_PrintNumber(midiMsg[1]);
 405              		.loc 1 284 0
 406 00f4 0221     		movs	r1, #2
 407 00f6 0120     		movs	r0, #1
 408 00f8 FFF7FEFF 		bl	CharLCD_Position
 409              	.LVL32:
 285:main.c        ****                 
 410              		.loc 1 285 0
 411 00fc 6078     		ldrb	r0, [r4, #1]	@ zero_extendqisi2
 412 00fe FFF7FEFF 		bl	CharLCD_PrintNumber
 413              	.LVL33:
ARM GAS  C:\Users\jmdevoto\AppData\Local\Temp\cce8AF7b.s 			page 17


 288:main.c        ****                 curKey = UpdateKeyLCD();
 414              		.loc 1 288 0
 415 0102 FFF7FEFF 		bl	UpdateScaleLCD
 416              	.LVL34:
 417 0106 8AF81600 		strb	r0, [r10, #22]
 289:main.c        ****                                             
 418              		.loc 1 289 0
 419 010a FFF7FEFF 		bl	UpdateKeyLCD
 420              	.LVL35:
 421              	.LBE6:
 293:main.c        ****                 {
 422              		.loc 1 293 0
 423 010e 9AF81430 		ldrb	r3, [r10, #20]	@ zero_extendqisi2
 424              	.LBB7:
 289:main.c        ****                                             
 425              		.loc 1 289 0
 426 0112 8AF81500 		strb	r0, [r10, #21]
 427              	.LBE7:
 293:main.c        ****                 {
 428              		.loc 1 293 0
 429 0116 5344     		add	r3, r3, r10
 430 0118 1B7C     		ldrb	r3, [r3, #16]	@ zero_extendqisi2
 431 011a 002B     		cmp	r3, #0
 432 011c 99D0     		beq	.L33
 326:main.c        ****         {
 433              		.loc 1 326 0
 434 011e 9AF81330 		ldrb	r3, [r10, #19]	@ zero_extendqisi2
 435 0122 304F     		ldr	r7, .L51+16
 436              	.LVL36:
 437 0124 012B     		cmp	r3, #1
 438 0126 A8D9     		bls	.L34
 439              	.L48:
 328:main.c        ****             MIDI2_UART_Sleep();
 440              		.loc 1 328 0
 441 0128 FFF7FEFF 		bl	MIDI1_UART_Sleep
 442              	.LVL37:
 329:main.c        ****             MIDI_PWR_Write(1u);     /* Power OFF CY8CKIT-044 board */
 443              		.loc 1 329 0
 444 012c FFF7FEFF 		bl	MIDI2_UART_Sleep
 445              	.LVL38:
 330:main.c        ****                 
 446              		.loc 1 330 0
 447 0130 0120     		movs	r0, #1
 448 0132 FFF7FEFF 		bl	MIDI_PWR_Write
 449              	.LVL39:
 336:main.c        ****             /* Prepares system clocks for the Sleep mode */
 450              		.loc 1 336 0
 451 0136 FFF7FEFF 		bl	USB_Suspend
 452              	.LVL40:
 338:main.c        ****             /*******************************************************************
 453              		.loc 1 338 0
 454 013a FFF7FEFF 		bl	CyPmSaveClocks
 455              	.LVL41:
 344:main.c        ****             /* Restore clock configuration */
 456              		.loc 1 344 0
 457 013e 4021     		movs	r1, #64
 458 0140 0020     		movs	r0, #0
ARM GAS  C:\Users\jmdevoto\AppData\Local\Temp\cce8AF7b.s 			page 18


 459 0142 FFF7FEFF 		bl	CyPmSleep
 460              	.LVL42:
 346:main.c        ****             /* Enable the USBFS block after power down mode */
 461              		.loc 1 346 0
 462 0146 FFF7FEFF 		bl	CyPmRestoreClocks
 463              	.LVL43:
 348:main.c        ****             
 464              		.loc 1 348 0
 465 014a FFF7FEFF 		bl	USB_Resume
 466              	.LVL44:
 351:main.c        ****             MIDI_PWR_Write(0u);     /* Power ON CY8CKIT-044 board */
 467              		.loc 1 351 0
 468 014e FFF7FEFF 		bl	USB_MIDI_EP_Init
 469              	.LVL45:
 352:main.c        ****             MIDI1_UART_Wakeup();
 470              		.loc 1 352 0
 471 0152 0020     		movs	r0, #0
 472 0154 FFF7FEFF 		bl	MIDI_PWR_Write
 473              	.LVL46:
 353:main.c        ****             MIDI2_UART_Wakeup();
 474              		.loc 1 353 0
 475 0158 FFF7FEFF 		bl	MIDI1_UART_Wakeup
 476              	.LVL47:
 354:main.c        ****             usbActivityCounter = 0u; /* Re-init USB Activity Counter*/
 477              		.loc 1 354 0
 478 015c FFF7FEFF 		bl	MIDI2_UART_Wakeup
 479              	.LVL48:
 355:main.c        ****         }
 480              		.loc 1 355 0
 481 0160 0023     		movs	r3, #0
 482 0162 FB74     		strb	r3, [r7, #19]
 483 0164 89E7     		b	.L34
 484              	.LVL49:
 485              	.L49:
 486              	.LBB8:
 244:main.c        ****                         note = NoteSnap(noteTable, pitchHz, curKey, curScale);
 487              		.loc 1 244 0
 488 0166 4046     		mov	r0, r8
 489 0168 FFF7FEFF 		bl	__aeabi_f2d
 490              	.LVL50:
 491 016c 3A46     		mov	r2, r7
 492 016e 1A4B     		ldr	r3, .L51+4
 493 0170 FFF7FEFF 		bl	midi_note_changed
 494              	.LVL51:
 495 0174 20BB     		cbnz	r0, .L50
 496              	.L30:
 251:main.c        ****                     // If not the initial condition, send a note off signal when new note is detect
 497              		.loc 1 251 0
 498 0176 3368     		ldr	r3, [r6]
 499 0178 9F42     		cmp	r7, r3
 500 017a A4D0     		beq	.L27
 251:main.c        ****                     // If not the initial condition, send a note off signal when new note is detect
 501              		.loc 1 251 0 is_stmt 0 discriminator 1
 502 017c 791C     		adds	r1, r7, #1
 503 017e A2D0     		beq	.L27
 253:main.c        ****                         midiMsg[0] = USB_MIDI_NOTE_OFF;
 504              		.loc 1 253 0 is_stmt 1
ARM GAS  C:\Users\jmdevoto\AppData\Local\Temp\cce8AF7b.s 			page 19


 505 0180 5A1C     		adds	r2, r3, #1
 506 0182 0DD0     		beq	.L31
 254:main.c        ****                         midiMsg[1] = lastNote;
 507              		.loc 1 254 0
 508 0184 8022     		movs	r2, #128
 258:main.c        ****                         UART_PutChar(midiMsg[1]);
 509              		.loc 1 258 0
 510 0186 1046     		mov	r0, r2
 256:main.c        ****                         
 511              		.loc 1 256 0
 512 0188 0021     		movs	r1, #0
 255:main.c        ****                         midiMsg[2] = 0u;        
 513              		.loc 1 255 0
 514 018a 6370     		strb	r3, [r4, #1]
 254:main.c        ****                         midiMsg[1] = lastNote;
 515              		.loc 1 254 0
 516 018c 2270     		strb	r2, [r4]
 256:main.c        ****                         
 517              		.loc 1 256 0
 518 018e A170     		strb	r1, [r4, #2]
 258:main.c        ****                         UART_PutChar(midiMsg[1]);
 519              		.loc 1 258 0
 520 0190 FFF7FEFF 		bl	UART_PutChar
 521              	.LVL52:
 259:main.c        ****                         UART_PutChar(midiMsg[2]);
 522              		.loc 1 259 0
 523 0194 6078     		ldrb	r0, [r4, #1]	@ zero_extendqisi2
 524 0196 FFF7FEFF 		bl	UART_PutChar
 525              	.LVL53:
 260:main.c        ****                         //USB_PutUsbMidiIn(3u, midiMsg, USB_MIDI_CABLE_00);
 526              		.loc 1 260 0
 527 019a A078     		ldrb	r0, [r4, #2]	@ zero_extendqisi2
 528 019c FFF7FEFF 		bl	UART_PutChar
 529              	.LVL54:
 530              	.L31:
 266:main.c        ****                     midiMsg[1] = note;
 531              		.loc 1 266 0
 532 01a0 9023     		movs	r3, #144
 270:main.c        ****                     UART_PutChar(midiMsg[1]);
 533              		.loc 1 270 0
 534 01a2 1846     		mov	r0, r3
 268:main.c        ****                     
 535              		.loc 1 268 0
 536 01a4 6422     		movs	r2, #100
 266:main.c        ****                     midiMsg[1] = note;
 537              		.loc 1 266 0
 538 01a6 2370     		strb	r3, [r4]
 268:main.c        ****                     
 539              		.loc 1 268 0
 540 01a8 A270     		strb	r2, [r4, #2]
 267:main.c        ****                     midiMsg[2] = 100u;
 541              		.loc 1 267 0
 542 01aa 6770     		strb	r7, [r4, #1]
 270:main.c        ****                     UART_PutChar(midiMsg[1]);
 543              		.loc 1 270 0
 544 01ac FFF7FEFF 		bl	UART_PutChar
 545              	.LVL55:
ARM GAS  C:\Users\jmdevoto\AppData\Local\Temp\cce8AF7b.s 			page 20


 271:main.c        ****                     UART_PutChar(midiMsg[2]);
 546              		.loc 1 271 0
 547 01b0 6078     		ldrb	r0, [r4, #1]	@ zero_extendqisi2
 548 01b2 FFF7FEFF 		bl	UART_PutChar
 549              	.LVL56:
 272:main.c        ****                     //USB_PutUsbMidiIn(3u, midiMsg, USB_MIDI_CABLE_00);                            
 550              		.loc 1 272 0
 551 01b6 A078     		ldrb	r0, [r4, #2]	@ zero_extendqisi2
 552 01b8 FFF7FEFF 		bl	UART_PutChar
 553              	.LVL57:
 275:main.c        ****                 }
 554              		.loc 1 275 0
 555 01bc 3760     		str	r7, [r6]
 556 01be 82E7     		b	.L27
 557              	.L50:
 245:main.c        ****                         //note = midi_note_from_freq(pitchHz);
 558              		.loc 1 245 0
 559 01c0 0B4B     		ldr	r3, .L51+28
 560 01c2 0548     		ldr	r0, .L51+4
 561 01c4 1968     		ldr	r1, [r3]	@ float
 562 01c6 6A7D     		ldrb	r2, [r5, #21]	@ zero_extendqisi2
 563 01c8 AB7D     		ldrb	r3, [r5, #22]	@ zero_extendqisi2
 564 01ca FFF7FEFF 		bl	NoteSnap
 565              	.LVL58:
 566 01ce 0746     		mov	r7, r0
 567              	.LVL59:
 568 01d0 D1E7     		b	.L30
 569              	.L52:
 570 01d2 00BF     		.align	2
 571              	.L51:
 572 01d4 00000000 		.word	GetSample
 573 01d8 00000000 		.word	noteTable
 574 01dc 00000000 		.word	midiMsg
 575 01e0 00000000 		.word	.LANCHOR1
 576 01e4 00000000 		.word	.LANCHOR0
 577 01e8 00001644 		.word	1142292480
 578 01ec 0000A042 		.word	1117782016
 579 01f0 00000000 		.word	pitchHz
 580 01f4 00000000 		.word	dataFrames
 581              	.LBE8:
 582              		.cfi_endproc
 583              	.LFE58:
 584              		.size	main, .-main
 585              		.section	.text.USB_callbackLocalMidiEvent,"ax",%progbits
 586              		.align	2
 587              		.global	USB_callbackLocalMidiEvent
 588              		.thumb
 589              		.thumb_func
 590              		.type	USB_callbackLocalMidiEvent, %function
 591              	USB_callbackLocalMidiEvent:
 592              	.LFB59:
 365:main.c        ****     /* Support General System On/Off Message. */
 593              		.loc 1 365 0
 594              		.cfi_startproc
 595              		@ args = 0, pretend = 0, frame = 0
 596              		@ frame_needed = 0, uses_anonymous_args = 0
 597              	.LVL60:
ARM GAS  C:\Users\jmdevoto\AppData\Local\Temp\cce8AF7b.s 			page 21


 598 0000 38B5     		push	{r3, r4, r5, lr}
 599              		.cfi_def_cfa_offset 16
 600              		.cfi_offset 3, -16
 601              		.cfi_offset 4, -12
 602              		.cfi_offset 5, -8
 603              		.cfi_offset 14, -4
 367:main.c        ****     {
 604              		.loc 1 367 0
 605 0002 0C4C     		ldr	r4, .L64
 606 0004 0C4D     		ldr	r5, .L64+4
 607 0006 2078     		ldrb	r0, [r4]	@ zero_extendqisi2
 608              	.LVL61:
 609 0008 10F00100 		ands	r0, r0, #1
 610 000c 05D1     		bne	.L54
 367:main.c        ****     {
 611              		.loc 1 367 0 is_stmt 0 discriminator 1
 612 000e EB7D     		ldrb	r3, [r5, #23]	@ zero_extendqisi2
 613 0010 DB07     		lsls	r3, r3, #31
 614 0012 02D5     		bpl	.L54
 369:main.c        ****         {
 615              		.loc 1 369 0 is_stmt 1
 616 0014 0B78     		ldrb	r3, [r1]	@ zero_extendqisi2
 617 0016 092B     		cmp	r3, #9
 618 0018 02D0     		beq	.L63
 619              	.LVL62:
 620              	.L54:
 381:main.c        ****     cable = cable;
 621              		.loc 1 381 0
 622 001a 2378     		ldrb	r3, [r4]	@ zero_extendqisi2
 623 001c EB75     		strb	r3, [r5, #23]
 624              	.LVL63:
 625 001e 38BD     		pop	{r3, r4, r5, pc}
 626              	.LVL64:
 627              	.L63:
 371:main.c        ****             {
 628              		.loc 1 371 0
 629 0020 4B78     		ldrb	r3, [r1, #1]	@ zero_extendqisi2
 630 0022 012B     		cmp	r3, #1
 631 0024 02D0     		beq	.L62
 375:main.c        ****             {
 632              		.loc 1 375 0
 633 0026 022B     		cmp	r3, #2
 634 0028 F7D1     		bne	.L54
 377:main.c        ****             }
 635              		.loc 1 377 0
 636 002a 0120     		movs	r0, #1
 637              	.L62:
 638 002c FFF7FEFF 		bl	MIDI_PWR_Write
 639              	.LVL65:
 640 0030 F3E7     		b	.L54
 641              	.L65:
 642 0032 00BF     		.align	2
 643              	.L64:
 644 0034 00000000 		.word	USB_MIDI1_InqFlags
 645 0038 00000000 		.word	.LANCHOR0
 646              		.cfi_endproc
 647              	.LFE59:
ARM GAS  C:\Users\jmdevoto\AppData\Local\Temp\cce8AF7b.s 			page 22


 648              		.size	USB_callbackLocalMidiEvent, .-USB_callbackLocalMidiEvent
 649              		.global	usbActivityCounter
 650              		.global	MIDI_IDENTITY_REPLY
 651              		.comm	test_max,4,4
 652              		.global	curKey
 653              		.global	curScale
 654              		.global	frame2InUse
 655              		.global	frame1InUse
 656              		.comm	noteTable,1024,8
 657              		.comm	pitchHz,4,4
 658              		.global	i
 659              		.global	lastNote
 660              		.comm	midiMsg,4,4
 661              		.global	frameProcessed
 662              		.global	sustain
 663              		.global	frameLocked
 664              		.global	frameReady
 665              		.global	max_value
 666              		.global	sampleFrame
 667              		.global	currFrame
 668              		.global	frameIndex
 669              		.comm	ADCoutput,2,2
 670              		.comm	dataFrames,1024,4
 671              		.comm	LCDstr,10,4
 672              		.global	inqFlags_old
 673              		.global	csButtChange
 674              		.global	csButtStates_old
 675              		.global	csButtStates
 676              		.section	.rodata
 677              		.align	2
 678              		.type	MIDI_IDENTITY_REPLY, %object
 679              		.size	MIDI_IDENTITY_REPLY, 14
 680              	MIDI_IDENTITY_REPLY:
 681 0000 F0       		.byte	-16
 682 0001 7E       		.byte	126
 683 0002 7F       		.byte	127
 684 0003 06       		.byte	6
 685 0004 02       		.byte	2
 686 0005 7D       		.byte	125
 687 0006 B4       		.byte	-76
 688 0007 04       		.byte	4
 689 0008 32       		.byte	50
 690 0009 D2       		.byte	-46
 691 000a 01       		.byte	1
 692 000b 00       		.byte	0
 693 000c 00       		.byte	0
 694 000d 00       		.byte	0
 695 000e 0000     		.data
 696              		.align	2
 697              		.set	.LANCHOR1,. + 0
 698              		.type	lastNote, %object
 699              		.size	lastNote, 4
 700              	lastNote:
 701 0000 FFFFFFFF 		.word	-1
 702              		.bss
 703              		.align	2
 704              		.set	.LANCHOR0,. + 0
ARM GAS  C:\Users\jmdevoto\AppData\Local\Temp\cce8AF7b.s 			page 23


 705              		.type	currFrame, %object
 706              		.size	currFrame, 1
 707              	currFrame:
 708 0000 00       		.space	1
 709 0001 000000   		.space	3
 710              		.type	frameLocked, %object
 711              		.size	frameLocked, 2
 712              	frameLocked:
 713 0004 0000     		.space	2
 714 0006 0000     		.space	2
 715              		.type	max_value, %object
 716              		.size	max_value, 4
 717              	max_value:
 718 0008 00000000 		.space	4
 719              		.type	frameIndex, %object
 720              		.size	frameIndex, 2
 721              	frameIndex:
 722 000c 0000     		.space	2
 723 000e 0000     		.space	2
 724              		.type	frameReady, %object
 725              		.size	frameReady, 2
 726              	frameReady:
 727 0010 0000     		.space	2
 728              		.type	frameProcessed, %object
 729              		.size	frameProcessed, 1
 730              	frameProcessed:
 731 0012 00       		.space	1
 732              		.type	usbActivityCounter, %object
 733              		.size	usbActivityCounter, 1
 734              	usbActivityCounter:
 735 0013 00       		.space	1
 736              		.type	sampleFrame, %object
 737              		.size	sampleFrame, 1
 738              	sampleFrame:
 739 0014 00       		.space	1
 740              		.type	curKey, %object
 741              		.size	curKey, 1
 742              	curKey:
 743 0015 00       		.space	1
 744              		.type	curScale, %object
 745              		.size	curScale, 1
 746              	curScale:
 747 0016 00       		.space	1
 748              		.type	inqFlags_old, %object
 749              		.size	inqFlags_old, 1
 750              	inqFlags_old:
 751 0017 00       		.space	1
 752              		.type	frame2InUse, %object
 753              		.size	frame2InUse, 1
 754              	frame2InUse:
 755 0018 00       		.space	1
 756              		.type	frame1InUse, %object
 757              		.size	frame1InUse, 1
 758              	frame1InUse:
 759 0019 00       		.space	1
 760 001a 0000     		.space	2
 761              		.type	i, %object
ARM GAS  C:\Users\jmdevoto\AppData\Local\Temp\cce8AF7b.s 			page 24


 762              		.size	i, 4
 763              	i:
 764 001c 00000000 		.space	4
 765              		.type	sustain, %object
 766              		.size	sustain, 1
 767              	sustain:
 768 0020 00       		.space	1
 769              		.type	csButtChange, %object
 770              		.size	csButtChange, 1
 771              	csButtChange:
 772 0021 00       		.space	1
 773              		.type	csButtStates_old, %object
 774              		.size	csButtStates_old, 1
 775              	csButtStates_old:
 776 0022 00       		.space	1
 777              		.type	csButtStates, %object
 778              		.size	csButtStates, 1
 779              	csButtStates:
 780 0023 00       		.space	1
 781              		.text
 782              	.Letext0:
 783              		.file 2 "c:\\program files (x86)\\cypress\\psoc creator\\4.0\\psoc creator\\import\\gnu\\arm\\4.9.
 784              		.file 3 "c:\\program files (x86)\\cypress\\psoc creator\\4.0\\psoc creator\\import\\gnu\\arm\\4.9.
 785              		.file 4 "Generated_Source\\PSoC5/cytypes.h"
 786              		.file 5 "./midi.h"
 787              		.file 6 "Generated_Source\\PSoC5/core_cm3.h"
 788              		.file 7 "Generated_Source\\PSoC5/ADC_SAR_1.h"
 789              		.file 8 "Generated_Source\\PSoC5/USB.h"
 790              		.file 9 "Generated_Source\\PSoC5/SleepTimer.h"
 791              		.file 10 "./pitch.h"
 792              		.file 11 "Generated_Source\\PSoC5/CharLCD_I2C.h"
 793              		.file 12 "./hbird.h"
 794              		.file 13 "Generated_Source\\PSoC5/UART.h"
 795              		.file 14 "Generated_Source\\PSoC5/I2C_CharLCD.h"
 796              		.file 15 "Generated_Source\\PSoC5/isr_1.h"
 797              		.file 16 "Generated_Source\\PSoC5/Timer_1.h"
 798              		.file 17 "Generated_Source\\PSoC5/UI_ADC.h"
 799              		.file 18 "Generated_Source\\PSoC5/MIDI1_UART.h"
 800              		.file 19 "Generated_Source\\PSoC5/MIDI2_UART.h"
 801              		.file 20 "Generated_Source\\PSoC5/MIDI_PWR.h"
 802              		.file 21 "Generated_Source\\PSoC5/cyPm.h"