ARM GAS  C:\Users\jmdevoto\AppData\Local\Temp\ccuXeskX.s 			page 1


   1              		.syntax unified
   2              		.cpu cortex-m3
   3              		.fpu softvfp
   4              		.eabi_attribute 20, 1
   5              		.eabi_attribute 21, 1
   6              		.eabi_attribute 23, 3
   7              		.eabi_attribute 24, 1
   8              		.eabi_attribute 25, 1
   9              		.eabi_attribute 26, 1
  10              		.eabi_attribute 30, 2
  11              		.eabi_attribute 34, 1
  12              		.eabi_attribute 18, 4
  13              		.thumb
  14              		.file	"UI_TIMER_PM.c"
  15              		.text
  16              	.Ltext0:
  17              		.cfi_sections	.debug_frame
  18              		.section	.text.UI_TIMER_SaveConfig,"ax",%progbits
  19              		.align	2
  20              		.global	UI_TIMER_SaveConfig
  21              		.thumb
  22              		.thumb_func
  23              		.type	UI_TIMER_SaveConfig, %function
  24              	UI_TIMER_SaveConfig:
  25              	.LFB0:
  26              		.file 1 "Generated_Source\\PSoC5\\UI_TIMER_PM.c"
   1:Generated_Source\PSoC5/UI_TIMER_PM.c **** /*******************************************************************************
   2:Generated_Source\PSoC5/UI_TIMER_PM.c **** * File Name: UI_TIMER_PM.c
   3:Generated_Source\PSoC5/UI_TIMER_PM.c **** * Version 2.70
   4:Generated_Source\PSoC5/UI_TIMER_PM.c **** *
   5:Generated_Source\PSoC5/UI_TIMER_PM.c **** *  Description:
   6:Generated_Source\PSoC5/UI_TIMER_PM.c **** *     This file provides the power management source code to API for the
   7:Generated_Source\PSoC5/UI_TIMER_PM.c **** *     Timer.
   8:Generated_Source\PSoC5/UI_TIMER_PM.c **** *
   9:Generated_Source\PSoC5/UI_TIMER_PM.c **** *   Note:
  10:Generated_Source\PSoC5/UI_TIMER_PM.c **** *     None
  11:Generated_Source\PSoC5/UI_TIMER_PM.c **** *
  12:Generated_Source\PSoC5/UI_TIMER_PM.c **** *******************************************************************************
  13:Generated_Source\PSoC5/UI_TIMER_PM.c **** * Copyright 2008-2014, Cypress Semiconductor Corporation.  All rights reserved.
  14:Generated_Source\PSoC5/UI_TIMER_PM.c **** * You may use this file only in accordance with the license, terms, conditions,
  15:Generated_Source\PSoC5/UI_TIMER_PM.c **** * disclaimers, and limitations in the end user license agreement accompanying
  16:Generated_Source\PSoC5/UI_TIMER_PM.c **** * the software package with which this file was provided.
  17:Generated_Source\PSoC5/UI_TIMER_PM.c **** ********************************************************************************/
  18:Generated_Source\PSoC5/UI_TIMER_PM.c **** 
  19:Generated_Source\PSoC5/UI_TIMER_PM.c **** #include "UI_TIMER.h"
  20:Generated_Source\PSoC5/UI_TIMER_PM.c **** 
  21:Generated_Source\PSoC5/UI_TIMER_PM.c **** static UI_TIMER_backupStruct UI_TIMER_backup;
  22:Generated_Source\PSoC5/UI_TIMER_PM.c **** 
  23:Generated_Source\PSoC5/UI_TIMER_PM.c **** 
  24:Generated_Source\PSoC5/UI_TIMER_PM.c **** /*******************************************************************************
  25:Generated_Source\PSoC5/UI_TIMER_PM.c **** * Function Name: UI_TIMER_SaveConfig
  26:Generated_Source\PSoC5/UI_TIMER_PM.c **** ********************************************************************************
  27:Generated_Source\PSoC5/UI_TIMER_PM.c **** *
  28:Generated_Source\PSoC5/UI_TIMER_PM.c **** * Summary:
  29:Generated_Source\PSoC5/UI_TIMER_PM.c **** *     Save the current user configuration
  30:Generated_Source\PSoC5/UI_TIMER_PM.c **** *
  31:Generated_Source\PSoC5/UI_TIMER_PM.c **** * Parameters:
ARM GAS  C:\Users\jmdevoto\AppData\Local\Temp\ccuXeskX.s 			page 2


  32:Generated_Source\PSoC5/UI_TIMER_PM.c **** *  void
  33:Generated_Source\PSoC5/UI_TIMER_PM.c **** *
  34:Generated_Source\PSoC5/UI_TIMER_PM.c **** * Return:
  35:Generated_Source\PSoC5/UI_TIMER_PM.c **** *  void
  36:Generated_Source\PSoC5/UI_TIMER_PM.c **** *
  37:Generated_Source\PSoC5/UI_TIMER_PM.c **** * Global variables:
  38:Generated_Source\PSoC5/UI_TIMER_PM.c **** *  UI_TIMER_backup:  Variables of this global structure are modified to
  39:Generated_Source\PSoC5/UI_TIMER_PM.c **** *  store the values of non retention configuration registers when Sleep() API is
  40:Generated_Source\PSoC5/UI_TIMER_PM.c **** *  called.
  41:Generated_Source\PSoC5/UI_TIMER_PM.c **** *
  42:Generated_Source\PSoC5/UI_TIMER_PM.c **** *******************************************************************************/
  43:Generated_Source\PSoC5/UI_TIMER_PM.c **** void UI_TIMER_SaveConfig(void) 
  44:Generated_Source\PSoC5/UI_TIMER_PM.c **** {
  27              		.loc 1 44 0
  28              		.cfi_startproc
  29              		@ args = 0, pretend = 0, frame = 0
  30              		@ frame_needed = 0, uses_anonymous_args = 0
  31              		@ link register save eliminated.
  32 0000 7047     		bx	lr
  33              		.cfi_endproc
  34              	.LFE0:
  35              		.size	UI_TIMER_SaveConfig, .-UI_TIMER_SaveConfig
  36 0002 00BF     		.section	.text.UI_TIMER_RestoreConfig,"ax",%progbits
  37              		.align	2
  38              		.global	UI_TIMER_RestoreConfig
  39              		.thumb
  40              		.thumb_func
  41              		.type	UI_TIMER_RestoreConfig, %function
  42              	UI_TIMER_RestoreConfig:
  43              	.LFB1:
  45:Generated_Source\PSoC5/UI_TIMER_PM.c ****     #if (!UI_TIMER_UsingFixedFunction)
  46:Generated_Source\PSoC5/UI_TIMER_PM.c ****         UI_TIMER_backup.TimerUdb = UI_TIMER_ReadCounter();
  47:Generated_Source\PSoC5/UI_TIMER_PM.c ****         UI_TIMER_backup.InterruptMaskValue = UI_TIMER_STATUS_MASK;
  48:Generated_Source\PSoC5/UI_TIMER_PM.c ****         #if (UI_TIMER_UsingHWCaptureCounter)
  49:Generated_Source\PSoC5/UI_TIMER_PM.c ****             UI_TIMER_backup.TimerCaptureCounter = UI_TIMER_ReadCaptureCount();
  50:Generated_Source\PSoC5/UI_TIMER_PM.c ****         #endif /* Back Up capture counter register  */
  51:Generated_Source\PSoC5/UI_TIMER_PM.c **** 
  52:Generated_Source\PSoC5/UI_TIMER_PM.c ****         #if(!UI_TIMER_UDB_CONTROL_REG_REMOVED)
  53:Generated_Source\PSoC5/UI_TIMER_PM.c ****             UI_TIMER_backup.TimerControlRegister = UI_TIMER_ReadControlRegister();
  54:Generated_Source\PSoC5/UI_TIMER_PM.c ****         #endif /* Backup the enable state of the Timer component */
  55:Generated_Source\PSoC5/UI_TIMER_PM.c ****     #endif /* Backup non retention registers in UDB implementation. All fixed function registers ar
  56:Generated_Source\PSoC5/UI_TIMER_PM.c **** }
  57:Generated_Source\PSoC5/UI_TIMER_PM.c **** 
  58:Generated_Source\PSoC5/UI_TIMER_PM.c **** 
  59:Generated_Source\PSoC5/UI_TIMER_PM.c **** /*******************************************************************************
  60:Generated_Source\PSoC5/UI_TIMER_PM.c **** * Function Name: UI_TIMER_RestoreConfig
  61:Generated_Source\PSoC5/UI_TIMER_PM.c **** ********************************************************************************
  62:Generated_Source\PSoC5/UI_TIMER_PM.c **** *
  63:Generated_Source\PSoC5/UI_TIMER_PM.c **** * Summary:
  64:Generated_Source\PSoC5/UI_TIMER_PM.c **** *  Restores the current user configuration.
  65:Generated_Source\PSoC5/UI_TIMER_PM.c **** *
  66:Generated_Source\PSoC5/UI_TIMER_PM.c **** * Parameters:
  67:Generated_Source\PSoC5/UI_TIMER_PM.c **** *  void
  68:Generated_Source\PSoC5/UI_TIMER_PM.c **** *
  69:Generated_Source\PSoC5/UI_TIMER_PM.c **** * Return:
  70:Generated_Source\PSoC5/UI_TIMER_PM.c **** *  void
  71:Generated_Source\PSoC5/UI_TIMER_PM.c **** *
ARM GAS  C:\Users\jmdevoto\AppData\Local\Temp\ccuXeskX.s 			page 3


  72:Generated_Source\PSoC5/UI_TIMER_PM.c **** * Global variables:
  73:Generated_Source\PSoC5/UI_TIMER_PM.c **** *  UI_TIMER_backup:  Variables of this global structure are used to
  74:Generated_Source\PSoC5/UI_TIMER_PM.c **** *  restore the values of non retention registers on wakeup from sleep mode.
  75:Generated_Source\PSoC5/UI_TIMER_PM.c **** *
  76:Generated_Source\PSoC5/UI_TIMER_PM.c **** *******************************************************************************/
  77:Generated_Source\PSoC5/UI_TIMER_PM.c **** void UI_TIMER_RestoreConfig(void) 
  78:Generated_Source\PSoC5/UI_TIMER_PM.c **** {   
  44              		.loc 1 78 0
  45              		.cfi_startproc
  46              		@ args = 0, pretend = 0, frame = 0
  47              		@ frame_needed = 0, uses_anonymous_args = 0
  48              		@ link register save eliminated.
  49 0000 7047     		bx	lr
  50              		.cfi_endproc
  51              	.LFE1:
  52              		.size	UI_TIMER_RestoreConfig, .-UI_TIMER_RestoreConfig
  53 0002 00BF     		.section	.text.UI_TIMER_Sleep,"ax",%progbits
  54              		.align	2
  55              		.global	UI_TIMER_Sleep
  56              		.thumb
  57              		.thumb_func
  58              		.type	UI_TIMER_Sleep, %function
  59              	UI_TIMER_Sleep:
  60              	.LFB2:
  79:Generated_Source\PSoC5/UI_TIMER_PM.c ****     #if (!UI_TIMER_UsingFixedFunction)
  80:Generated_Source\PSoC5/UI_TIMER_PM.c **** 
  81:Generated_Source\PSoC5/UI_TIMER_PM.c ****         UI_TIMER_WriteCounter(UI_TIMER_backup.TimerUdb);
  82:Generated_Source\PSoC5/UI_TIMER_PM.c ****         UI_TIMER_STATUS_MASK =UI_TIMER_backup.InterruptMaskValue;
  83:Generated_Source\PSoC5/UI_TIMER_PM.c ****         #if (UI_TIMER_UsingHWCaptureCounter)
  84:Generated_Source\PSoC5/UI_TIMER_PM.c ****             UI_TIMER_SetCaptureCount(UI_TIMER_backup.TimerCaptureCounter);
  85:Generated_Source\PSoC5/UI_TIMER_PM.c ****         #endif /* Restore Capture counter register*/
  86:Generated_Source\PSoC5/UI_TIMER_PM.c **** 
  87:Generated_Source\PSoC5/UI_TIMER_PM.c ****         #if(!UI_TIMER_UDB_CONTROL_REG_REMOVED)
  88:Generated_Source\PSoC5/UI_TIMER_PM.c ****             UI_TIMER_WriteControlRegister(UI_TIMER_backup.TimerControlRegister);
  89:Generated_Source\PSoC5/UI_TIMER_PM.c ****         #endif /* Restore the enable state of the Timer component */
  90:Generated_Source\PSoC5/UI_TIMER_PM.c ****     #endif /* Restore non retention registers in the UDB implementation only */
  91:Generated_Source\PSoC5/UI_TIMER_PM.c **** }
  92:Generated_Source\PSoC5/UI_TIMER_PM.c **** 
  93:Generated_Source\PSoC5/UI_TIMER_PM.c **** 
  94:Generated_Source\PSoC5/UI_TIMER_PM.c **** /*******************************************************************************
  95:Generated_Source\PSoC5/UI_TIMER_PM.c **** * Function Name: UI_TIMER_Sleep
  96:Generated_Source\PSoC5/UI_TIMER_PM.c **** ********************************************************************************
  97:Generated_Source\PSoC5/UI_TIMER_PM.c **** *
  98:Generated_Source\PSoC5/UI_TIMER_PM.c **** * Summary:
  99:Generated_Source\PSoC5/UI_TIMER_PM.c **** *     Stop and Save the user configuration
 100:Generated_Source\PSoC5/UI_TIMER_PM.c **** *
 101:Generated_Source\PSoC5/UI_TIMER_PM.c **** * Parameters:
 102:Generated_Source\PSoC5/UI_TIMER_PM.c **** *  void
 103:Generated_Source\PSoC5/UI_TIMER_PM.c **** *
 104:Generated_Source\PSoC5/UI_TIMER_PM.c **** * Return:
 105:Generated_Source\PSoC5/UI_TIMER_PM.c **** *  void
 106:Generated_Source\PSoC5/UI_TIMER_PM.c **** *
 107:Generated_Source\PSoC5/UI_TIMER_PM.c **** * Global variables:
 108:Generated_Source\PSoC5/UI_TIMER_PM.c **** *  UI_TIMER_backup.TimerEnableState:  Is modified depending on the
 109:Generated_Source\PSoC5/UI_TIMER_PM.c **** *  enable state of the block before entering sleep mode.
 110:Generated_Source\PSoC5/UI_TIMER_PM.c **** *
 111:Generated_Source\PSoC5/UI_TIMER_PM.c **** *******************************************************************************/
ARM GAS  C:\Users\jmdevoto\AppData\Local\Temp\ccuXeskX.s 			page 4


 112:Generated_Source\PSoC5/UI_TIMER_PM.c **** void UI_TIMER_Sleep(void) 
 113:Generated_Source\PSoC5/UI_TIMER_PM.c **** {
  61              		.loc 1 113 0
  62              		.cfi_startproc
  63              		@ args = 0, pretend = 0, frame = 0
  64              		@ frame_needed = 0, uses_anonymous_args = 0
  65              		@ link register save eliminated.
 114:Generated_Source\PSoC5/UI_TIMER_PM.c ****     #if(!UI_TIMER_UDB_CONTROL_REG_REMOVED)
 115:Generated_Source\PSoC5/UI_TIMER_PM.c ****         /* Save Counter's enable state */
 116:Generated_Source\PSoC5/UI_TIMER_PM.c ****         if(UI_TIMER_CTRL_ENABLE == (UI_TIMER_CONTROL & UI_TIMER_CTRL_ENABLE))
  66              		.loc 1 116 0
  67 0000 064B     		ldr	r3, .L8
  68 0002 1B78     		ldrb	r3, [r3]	@ zero_extendqisi2
  69 0004 13F00103 		ands	r3, r3, #1
  70 0008 03D1     		bne	.L7
 117:Generated_Source\PSoC5/UI_TIMER_PM.c ****         {
 118:Generated_Source\PSoC5/UI_TIMER_PM.c ****             /* Timer is enabled */
 119:Generated_Source\PSoC5/UI_TIMER_PM.c ****             UI_TIMER_backup.TimerEnableState = 1u;
 120:Generated_Source\PSoC5/UI_TIMER_PM.c ****         }
 121:Generated_Source\PSoC5/UI_TIMER_PM.c ****         else
 122:Generated_Source\PSoC5/UI_TIMER_PM.c ****         {
 123:Generated_Source\PSoC5/UI_TIMER_PM.c ****             /* Timer is disabled */
 124:Generated_Source\PSoC5/UI_TIMER_PM.c ****             UI_TIMER_backup.TimerEnableState = 0u;
  71              		.loc 1 124 0
  72 000a 054A     		ldr	r2, .L8+4
  73 000c 1370     		strb	r3, [r2]
 125:Generated_Source\PSoC5/UI_TIMER_PM.c ****         }
 126:Generated_Source\PSoC5/UI_TIMER_PM.c ****     #endif /* Back up enable state from the Timer control register */
 127:Generated_Source\PSoC5/UI_TIMER_PM.c ****     UI_TIMER_Stop();
  74              		.loc 1 127 0
  75 000e FFF7FEBF 		b	UI_TIMER_Stop
  76              	.LVL0:
  77              	.L7:
 119:Generated_Source\PSoC5/UI_TIMER_PM.c ****         }
  78              		.loc 1 119 0
  79 0012 034B     		ldr	r3, .L8+4
  80 0014 0122     		movs	r2, #1
  81 0016 1A70     		strb	r2, [r3]
  82              		.loc 1 127 0
  83 0018 FFF7FEBF 		b	UI_TIMER_Stop
  84              	.LVL1:
  85              	.L9:
  86              		.align	2
  87              	.L8:
  88 001c 004F0040 		.word	1073762048
  89 0020 00000000 		.word	.LANCHOR0
  90              		.cfi_endproc
  91              	.LFE2:
  92              		.size	UI_TIMER_Sleep, .-UI_TIMER_Sleep
  93              		.section	.text.UI_TIMER_Wakeup,"ax",%progbits
  94              		.align	2
  95              		.global	UI_TIMER_Wakeup
  96              		.thumb
  97              		.thumb_func
  98              		.type	UI_TIMER_Wakeup, %function
  99              	UI_TIMER_Wakeup:
 100              	.LFB3:
ARM GAS  C:\Users\jmdevoto\AppData\Local\Temp\ccuXeskX.s 			page 5


 128:Generated_Source\PSoC5/UI_TIMER_PM.c ****     UI_TIMER_SaveConfig();
 129:Generated_Source\PSoC5/UI_TIMER_PM.c **** }
 130:Generated_Source\PSoC5/UI_TIMER_PM.c **** 
 131:Generated_Source\PSoC5/UI_TIMER_PM.c **** 
 132:Generated_Source\PSoC5/UI_TIMER_PM.c **** /*******************************************************************************
 133:Generated_Source\PSoC5/UI_TIMER_PM.c **** * Function Name: UI_TIMER_Wakeup
 134:Generated_Source\PSoC5/UI_TIMER_PM.c **** ********************************************************************************
 135:Generated_Source\PSoC5/UI_TIMER_PM.c **** *
 136:Generated_Source\PSoC5/UI_TIMER_PM.c **** * Summary:
 137:Generated_Source\PSoC5/UI_TIMER_PM.c **** *  Restores and enables the user configuration
 138:Generated_Source\PSoC5/UI_TIMER_PM.c **** *
 139:Generated_Source\PSoC5/UI_TIMER_PM.c **** * Parameters:
 140:Generated_Source\PSoC5/UI_TIMER_PM.c **** *  void
 141:Generated_Source\PSoC5/UI_TIMER_PM.c **** *
 142:Generated_Source\PSoC5/UI_TIMER_PM.c **** * Return:
 143:Generated_Source\PSoC5/UI_TIMER_PM.c **** *  void
 144:Generated_Source\PSoC5/UI_TIMER_PM.c **** *
 145:Generated_Source\PSoC5/UI_TIMER_PM.c **** * Global variables:
 146:Generated_Source\PSoC5/UI_TIMER_PM.c **** *  UI_TIMER_backup.enableState:  Is used to restore the enable state of
 147:Generated_Source\PSoC5/UI_TIMER_PM.c **** *  block on wakeup from sleep mode.
 148:Generated_Source\PSoC5/UI_TIMER_PM.c **** *
 149:Generated_Source\PSoC5/UI_TIMER_PM.c **** *******************************************************************************/
 150:Generated_Source\PSoC5/UI_TIMER_PM.c **** void UI_TIMER_Wakeup(void) 
 151:Generated_Source\PSoC5/UI_TIMER_PM.c **** {
 101              		.loc 1 151 0
 102              		.cfi_startproc
 103              		@ args = 0, pretend = 0, frame = 0
 104              		@ frame_needed = 0, uses_anonymous_args = 0
 105              		@ link register save eliminated.
 152:Generated_Source\PSoC5/UI_TIMER_PM.c ****     UI_TIMER_RestoreConfig();
 153:Generated_Source\PSoC5/UI_TIMER_PM.c ****     #if(!UI_TIMER_UDB_CONTROL_REG_REMOVED)
 154:Generated_Source\PSoC5/UI_TIMER_PM.c ****         if(UI_TIMER_backup.TimerEnableState == 1u)
 106              		.loc 1 154 0
 107 0000 034B     		ldr	r3, .L13
 108 0002 1B78     		ldrb	r3, [r3]	@ zero_extendqisi2
 109 0004 012B     		cmp	r3, #1
 110 0006 00D0     		beq	.L12
 111 0008 7047     		bx	lr
 112              	.L12:
 155:Generated_Source\PSoC5/UI_TIMER_PM.c ****         {     /* Enable Timer's operation */
 156:Generated_Source\PSoC5/UI_TIMER_PM.c ****                 UI_TIMER_Enable();
 113              		.loc 1 156 0
 114 000a FFF7FEBF 		b	UI_TIMER_Enable
 115              	.LVL2:
 116              	.L14:
 117 000e 00BF     		.align	2
 118              	.L13:
 119 0010 00000000 		.word	.LANCHOR0
 120              		.cfi_endproc
 121              	.LFE3:
 122              		.size	UI_TIMER_Wakeup, .-UI_TIMER_Wakeup
 123              		.bss
 124              		.align	2
 125              		.set	.LANCHOR0,. + 0
 126              		.type	UI_TIMER_backup, %object
 127              		.size	UI_TIMER_backup, 1
 128              	UI_TIMER_backup:
ARM GAS  C:\Users\jmdevoto\AppData\Local\Temp\ccuXeskX.s 			page 6


 129 0000 00       		.space	1
 130 0001 000000   		.text
 131              	.Letext0:
 132              		.file 2 "Generated_Source\\PSoC5\\cytypes.h"
 133              		.file 3 "Generated_Source\\PSoC5\\UI_TIMER.h"