ARM GAS  C:\Users\jmdevoto\AppData\Local\Temp\cccgutyM.s 			page 1


   1              		.syntax unified
   2              		.cpu cortex-m3
   3              		.fpu softvfp
   4              		.eabi_attribute 20, 1
   5              		.eabi_attribute 21, 1
   6              		.eabi_attribute 23, 3
   7              		.eabi_attribute 24, 1
   8              		.eabi_attribute 25, 1
   9              		.eabi_attribute 26, 1
  10              		.eabi_attribute 30, 2
  11              		.eabi_attribute 34, 1
  12              		.eabi_attribute 18, 4
  13              		.thumb
  14              		.file	"UI_TIMER.c"
  15              		.text
  16              	.Ltext0:
  17              		.cfi_sections	.debug_frame
  18              		.section	.text.UI_TIMER_Init,"ax",%progbits
  19              		.align	2
  20              		.global	UI_TIMER_Init
  21              		.thumb
  22              		.thumb_func
  23              		.type	UI_TIMER_Init, %function
  24              	UI_TIMER_Init:
  25              	.LFB0:
  26              		.file 1 "Generated_Source\\PSoC5\\UI_TIMER.c"
   1:Generated_Source\PSoC5/UI_TIMER.c **** /*******************************************************************************
   2:Generated_Source\PSoC5/UI_TIMER.c **** * File Name: UI_TIMER.c
   3:Generated_Source\PSoC5/UI_TIMER.c **** * Version 2.70
   4:Generated_Source\PSoC5/UI_TIMER.c **** *
   5:Generated_Source\PSoC5/UI_TIMER.c **** * Description:
   6:Generated_Source\PSoC5/UI_TIMER.c **** *  The Timer component consists of a 8, 16, 24 or 32-bit timer with
   7:Generated_Source\PSoC5/UI_TIMER.c **** *  a selectable period between 2 and 2^Width - 1.  The timer may free run
   8:Generated_Source\PSoC5/UI_TIMER.c **** *  or be used as a capture timer as well.  The capture can be initiated
   9:Generated_Source\PSoC5/UI_TIMER.c **** *  by a positive or negative edge signal as well as via software.
  10:Generated_Source\PSoC5/UI_TIMER.c **** *  A trigger input can be programmed to enable the timer on rising edge
  11:Generated_Source\PSoC5/UI_TIMER.c **** *  falling edge, either edge or continous run.
  12:Generated_Source\PSoC5/UI_TIMER.c **** *  Interrupts may be generated due to a terminal count condition
  13:Generated_Source\PSoC5/UI_TIMER.c **** *  or a capture event.
  14:Generated_Source\PSoC5/UI_TIMER.c **** *
  15:Generated_Source\PSoC5/UI_TIMER.c **** * Note:
  16:Generated_Source\PSoC5/UI_TIMER.c **** *
  17:Generated_Source\PSoC5/UI_TIMER.c **** ********************************************************************************
  18:Generated_Source\PSoC5/UI_TIMER.c **** * Copyright 2008-2014, Cypress Semiconductor Corporation.  All rights reserved.
  19:Generated_Source\PSoC5/UI_TIMER.c **** * You may use this file only in accordance with the license, terms, conditions,
  20:Generated_Source\PSoC5/UI_TIMER.c **** * disclaimers, and limitations in the end user license agreement accompanying
  21:Generated_Source\PSoC5/UI_TIMER.c **** * the software package with which this file was provided.
  22:Generated_Source\PSoC5/UI_TIMER.c **** ********************************************************************************/
  23:Generated_Source\PSoC5/UI_TIMER.c **** 
  24:Generated_Source\PSoC5/UI_TIMER.c **** #include "UI_TIMER.h"
  25:Generated_Source\PSoC5/UI_TIMER.c **** 
  26:Generated_Source\PSoC5/UI_TIMER.c **** uint8 UI_TIMER_initVar = 0u;
  27:Generated_Source\PSoC5/UI_TIMER.c **** 
  28:Generated_Source\PSoC5/UI_TIMER.c **** 
  29:Generated_Source\PSoC5/UI_TIMER.c **** /*******************************************************************************
  30:Generated_Source\PSoC5/UI_TIMER.c **** * Function Name: UI_TIMER_Init
  31:Generated_Source\PSoC5/UI_TIMER.c **** ********************************************************************************
ARM GAS  C:\Users\jmdevoto\AppData\Local\Temp\cccgutyM.s 			page 2


  32:Generated_Source\PSoC5/UI_TIMER.c **** *
  33:Generated_Source\PSoC5/UI_TIMER.c **** * Summary:
  34:Generated_Source\PSoC5/UI_TIMER.c **** *  Initialize to the schematic state
  35:Generated_Source\PSoC5/UI_TIMER.c **** *
  36:Generated_Source\PSoC5/UI_TIMER.c **** * Parameters:
  37:Generated_Source\PSoC5/UI_TIMER.c **** *  void
  38:Generated_Source\PSoC5/UI_TIMER.c **** *
  39:Generated_Source\PSoC5/UI_TIMER.c **** * Return:
  40:Generated_Source\PSoC5/UI_TIMER.c **** *  void
  41:Generated_Source\PSoC5/UI_TIMER.c **** *
  42:Generated_Source\PSoC5/UI_TIMER.c **** *******************************************************************************/
  43:Generated_Source\PSoC5/UI_TIMER.c **** void UI_TIMER_Init(void) 
  44:Generated_Source\PSoC5/UI_TIMER.c **** {
  27              		.loc 1 44 0
  28              		.cfi_startproc
  29              		@ args = 0, pretend = 0, frame = 0
  30              		@ frame_needed = 0, uses_anonymous_args = 0
  31              		@ link register save eliminated.
  32 0000 70B4     		push	{r4, r5, r6}
  33              		.cfi_def_cfa_offset 12
  34              		.cfi_offset 4, -12
  35              		.cfi_offset 5, -8
  36              		.cfi_offset 6, -4
  45:Generated_Source\PSoC5/UI_TIMER.c ****     #if(!UI_TIMER_UsingFixedFunction)
  46:Generated_Source\PSoC5/UI_TIMER.c ****             /* Interrupt State Backup for Critical Region*/
  47:Generated_Source\PSoC5/UI_TIMER.c ****             uint8 UI_TIMER_interruptState;
  48:Generated_Source\PSoC5/UI_TIMER.c ****     #endif /* Interrupt state back up for Fixed Function only */
  49:Generated_Source\PSoC5/UI_TIMER.c **** 
  50:Generated_Source\PSoC5/UI_TIMER.c ****     #if (UI_TIMER_UsingFixedFunction)
  51:Generated_Source\PSoC5/UI_TIMER.c ****         /* Clear all bits but the enable bit (if it's already set) for Timer operation */
  52:Generated_Source\PSoC5/UI_TIMER.c ****         UI_TIMER_CONTROL &= UI_TIMER_CTRL_ENABLE;
  37              		.loc 1 52 0
  38 0002 1449     		ldr	r1, .L3
  53:Generated_Source\PSoC5/UI_TIMER.c **** 
  54:Generated_Source\PSoC5/UI_TIMER.c ****         /* Clear the mode bits for continuous run mode */
  55:Generated_Source\PSoC5/UI_TIMER.c ****         #if (CY_PSOC5A)
  56:Generated_Source\PSoC5/UI_TIMER.c ****             UI_TIMER_CONTROL2 &= ((uint8)(~UI_TIMER_CTRL_MODE_MASK));
  57:Generated_Source\PSoC5/UI_TIMER.c ****         #endif /* Clear bits in CONTROL2 only in PSOC5A */
  58:Generated_Source\PSoC5/UI_TIMER.c **** 
  59:Generated_Source\PSoC5/UI_TIMER.c ****         #if (CY_PSOC3 || CY_PSOC5LP)
  60:Generated_Source\PSoC5/UI_TIMER.c ****             UI_TIMER_CONTROL3 &= ((uint8)(~UI_TIMER_CTRL_MODE_MASK));
  39              		.loc 1 60 0
  40 0004 1448     		ldr	r0, .L3+4
  52:Generated_Source\PSoC5/UI_TIMER.c **** 
  41              		.loc 1 52 0
  42 0006 0A78     		ldrb	r2, [r1]	@ zero_extendqisi2
  61:Generated_Source\PSoC5/UI_TIMER.c ****         #endif /* CONTROL3 register exists only in PSoC3 OR PSoC5LP */
  62:Generated_Source\PSoC5/UI_TIMER.c **** 
  63:Generated_Source\PSoC5/UI_TIMER.c ****         /* Check if One Shot mode is enabled i.e. RunMode !=0*/
  64:Generated_Source\PSoC5/UI_TIMER.c ****         #if (UI_TIMER_RunModeUsed != 0x0u)
  65:Generated_Source\PSoC5/UI_TIMER.c ****             /* Set 3rd bit of Control register to enable one shot mode */
  66:Generated_Source\PSoC5/UI_TIMER.c ****             UI_TIMER_CONTROL |= 0x04u;
  67:Generated_Source\PSoC5/UI_TIMER.c ****         #endif /* One Shot enabled only when RunModeUsed is not Continuous*/
  68:Generated_Source\PSoC5/UI_TIMER.c **** 
  69:Generated_Source\PSoC5/UI_TIMER.c ****         #if (UI_TIMER_RunModeUsed == 2)
  70:Generated_Source\PSoC5/UI_TIMER.c ****             #if (CY_PSOC5A)
  71:Generated_Source\PSoC5/UI_TIMER.c ****                 /* Set last 2 bits of control2 register if one shot(halt on
ARM GAS  C:\Users\jmdevoto\AppData\Local\Temp\cccgutyM.s 			page 3


  72:Generated_Source\PSoC5/UI_TIMER.c ****                 interrupt) is enabled*/
  73:Generated_Source\PSoC5/UI_TIMER.c ****                 UI_TIMER_CONTROL2 |= 0x03u;
  74:Generated_Source\PSoC5/UI_TIMER.c ****             #endif /* Set One-Shot Halt on Interrupt bit in CONTROL2 for PSoC5A */
  75:Generated_Source\PSoC5/UI_TIMER.c **** 
  76:Generated_Source\PSoC5/UI_TIMER.c ****             #if (CY_PSOC3 || CY_PSOC5LP)
  77:Generated_Source\PSoC5/UI_TIMER.c ****                 /* Set last 2 bits of control3 register if one shot(halt on
  78:Generated_Source\PSoC5/UI_TIMER.c ****                 interrupt) is enabled*/
  79:Generated_Source\PSoC5/UI_TIMER.c ****                 UI_TIMER_CONTROL3 |= 0x03u;
  80:Generated_Source\PSoC5/UI_TIMER.c ****             #endif /* Set One-Shot Halt on Interrupt bit in CONTROL3 for PSoC3 or PSoC5LP */
  81:Generated_Source\PSoC5/UI_TIMER.c **** 
  82:Generated_Source\PSoC5/UI_TIMER.c ****         #endif /* Remove section if One Shot Halt on Interrupt is not enabled */
  83:Generated_Source\PSoC5/UI_TIMER.c **** 
  84:Generated_Source\PSoC5/UI_TIMER.c ****         #if (UI_TIMER_UsingHWEnable != 0)
  85:Generated_Source\PSoC5/UI_TIMER.c ****             #if (CY_PSOC5A)
  86:Generated_Source\PSoC5/UI_TIMER.c ****                 /* Set the default Run Mode of the Timer to Continuous */
  87:Generated_Source\PSoC5/UI_TIMER.c ****                 UI_TIMER_CONTROL2 |= UI_TIMER_CTRL_MODE_PULSEWIDTH;
  88:Generated_Source\PSoC5/UI_TIMER.c ****             #endif /* Set Continuous Run Mode in CONTROL2 for PSoC5A */
  89:Generated_Source\PSoC5/UI_TIMER.c **** 
  90:Generated_Source\PSoC5/UI_TIMER.c ****             #if (CY_PSOC3 || CY_PSOC5LP)
  91:Generated_Source\PSoC5/UI_TIMER.c ****                 /* Clear and Set ROD and COD bits of CFG2 register */
  92:Generated_Source\PSoC5/UI_TIMER.c ****                 UI_TIMER_CONTROL3 &= ((uint8)(~UI_TIMER_CTRL_RCOD_MASK));
  93:Generated_Source\PSoC5/UI_TIMER.c ****                 UI_TIMER_CONTROL3 |= UI_TIMER_CTRL_RCOD;
  94:Generated_Source\PSoC5/UI_TIMER.c **** 
  95:Generated_Source\PSoC5/UI_TIMER.c ****                 /* Clear and Enable the HW enable bit in CFG2 register */
  96:Generated_Source\PSoC5/UI_TIMER.c ****                 UI_TIMER_CONTROL3 &= ((uint8)(~UI_TIMER_CTRL_ENBL_MASK));
  97:Generated_Source\PSoC5/UI_TIMER.c ****                 UI_TIMER_CONTROL3 |= UI_TIMER_CTRL_ENBL;
  98:Generated_Source\PSoC5/UI_TIMER.c **** 
  99:Generated_Source\PSoC5/UI_TIMER.c ****                 /* Set the default Run Mode of the Timer to Continuous */
 100:Generated_Source\PSoC5/UI_TIMER.c ****                 UI_TIMER_CONTROL3 |= UI_TIMER_CTRL_MODE_CONTINUOUS;
 101:Generated_Source\PSoC5/UI_TIMER.c ****             #endif /* Set Continuous Run Mode in CONTROL3 for PSoC3ES3 or PSoC5A */
 102:Generated_Source\PSoC5/UI_TIMER.c **** 
 103:Generated_Source\PSoC5/UI_TIMER.c ****         #endif /* Configure Run Mode with hardware enable */
 104:Generated_Source\PSoC5/UI_TIMER.c **** 
 105:Generated_Source\PSoC5/UI_TIMER.c ****         /* Clear and Set SYNCTC and SYNCCMP bits of RT1 register */
 106:Generated_Source\PSoC5/UI_TIMER.c ****         UI_TIMER_RT1 &= ((uint8)(~UI_TIMER_RT1_MASK));
  43              		.loc 1 106 0
  44 0008 144B     		ldr	r3, .L3+8
  52:Generated_Source\PSoC5/UI_TIMER.c **** 
  45              		.loc 1 52 0
  46 000a 02F00102 		and	r2, r2, #1
  47 000e 0A70     		strb	r2, [r1]
  60:Generated_Source\PSoC5/UI_TIMER.c ****         #endif /* CONTROL3 register exists only in PSoC3 OR PSoC5LP */
  48              		.loc 1 60 0
  49 0010 0278     		ldrb	r2, [r0]	@ zero_extendqisi2
  50              	.LBB10:
  51              	.LBB11:
 107:Generated_Source\PSoC5/UI_TIMER.c ****         UI_TIMER_RT1 |= UI_TIMER_SYNC;
 108:Generated_Source\PSoC5/UI_TIMER.c **** 
 109:Generated_Source\PSoC5/UI_TIMER.c ****         /*Enable DSI Sync all all inputs of the Timer*/
 110:Generated_Source\PSoC5/UI_TIMER.c ****         UI_TIMER_RT1 &= ((uint8)(~UI_TIMER_SYNCDSI_MASK));
 111:Generated_Source\PSoC5/UI_TIMER.c ****         UI_TIMER_RT1 |= UI_TIMER_SYNCDSI_EN;
 112:Generated_Source\PSoC5/UI_TIMER.c **** 
 113:Generated_Source\PSoC5/UI_TIMER.c ****         /* Set the IRQ to use the status register interrupts */
 114:Generated_Source\PSoC5/UI_TIMER.c ****         UI_TIMER_CONTROL2 |= UI_TIMER_CTRL2_IRQ_SEL;
 115:Generated_Source\PSoC5/UI_TIMER.c ****     #endif /* Configuring registers of fixed function implementation */
 116:Generated_Source\PSoC5/UI_TIMER.c **** 
 117:Generated_Source\PSoC5/UI_TIMER.c ****     /* Set Initial values from Configuration */
ARM GAS  C:\Users\jmdevoto\AppData\Local\Temp\cccgutyM.s 			page 4


 118:Generated_Source\PSoC5/UI_TIMER.c ****     UI_TIMER_WritePeriod(UI_TIMER_INIT_PERIOD);
 119:Generated_Source\PSoC5/UI_TIMER.c ****     UI_TIMER_WriteCounter(UI_TIMER_INIT_PERIOD);
 120:Generated_Source\PSoC5/UI_TIMER.c **** 
 121:Generated_Source\PSoC5/UI_TIMER.c ****     #if (UI_TIMER_UsingHWCaptureCounter)/* Capture counter is enabled */
 122:Generated_Source\PSoC5/UI_TIMER.c ****         UI_TIMER_CAPTURE_COUNT_CTRL |= UI_TIMER_CNTR_ENABLE;
 123:Generated_Source\PSoC5/UI_TIMER.c ****         UI_TIMER_SetCaptureCount(UI_TIMER_INIT_CAPTURE_COUNT);
 124:Generated_Source\PSoC5/UI_TIMER.c ****     #endif /* Configure capture counter value */
 125:Generated_Source\PSoC5/UI_TIMER.c **** 
 126:Generated_Source\PSoC5/UI_TIMER.c ****     #if (!UI_TIMER_UsingFixedFunction)
 127:Generated_Source\PSoC5/UI_TIMER.c ****         #if (UI_TIMER_SoftwareCaptureMode)
 128:Generated_Source\PSoC5/UI_TIMER.c ****             UI_TIMER_SetCaptureMode(UI_TIMER_INIT_CAPTURE_MODE);
 129:Generated_Source\PSoC5/UI_TIMER.c ****         #endif /* Set Capture Mode for UDB implementation if capture mode is software controlled */
 130:Generated_Source\PSoC5/UI_TIMER.c **** 
 131:Generated_Source\PSoC5/UI_TIMER.c ****         #if (UI_TIMER_SoftwareTriggerMode)
 132:Generated_Source\PSoC5/UI_TIMER.c ****             #if (!UI_TIMER_UDB_CONTROL_REG_REMOVED)
 133:Generated_Source\PSoC5/UI_TIMER.c ****                 if (0u == (UI_TIMER_CONTROL & UI_TIMER__B_TIMER__TM_SOFTWARE))
 134:Generated_Source\PSoC5/UI_TIMER.c ****                 {
 135:Generated_Source\PSoC5/UI_TIMER.c ****                     UI_TIMER_SetTriggerMode(UI_TIMER_INIT_TRIGGER_MODE);
 136:Generated_Source\PSoC5/UI_TIMER.c ****                 }
 137:Generated_Source\PSoC5/UI_TIMER.c ****             #endif /* (!UI_TIMER_UDB_CONTROL_REG_REMOVED) */
 138:Generated_Source\PSoC5/UI_TIMER.c ****         #endif /* Set trigger mode for UDB Implementation if trigger mode is software controlled */
 139:Generated_Source\PSoC5/UI_TIMER.c **** 
 140:Generated_Source\PSoC5/UI_TIMER.c ****         /* CyEnterCriticalRegion and CyExitCriticalRegion are used to mark following region critica
 141:Generated_Source\PSoC5/UI_TIMER.c ****         /* Enter Critical Region*/
 142:Generated_Source\PSoC5/UI_TIMER.c ****         UI_TIMER_interruptState = CyEnterCriticalSection();
 143:Generated_Source\PSoC5/UI_TIMER.c **** 
 144:Generated_Source\PSoC5/UI_TIMER.c ****         /* Use the interrupt output of the status register for IRQ output */
 145:Generated_Source\PSoC5/UI_TIMER.c ****         UI_TIMER_STATUS_AUX_CTRL |= UI_TIMER_STATUS_ACTL_INT_EN_MASK;
 146:Generated_Source\PSoC5/UI_TIMER.c **** 
 147:Generated_Source\PSoC5/UI_TIMER.c ****         /* Exit Critical Region*/
 148:Generated_Source\PSoC5/UI_TIMER.c ****         CyExitCriticalSection(UI_TIMER_interruptState);
 149:Generated_Source\PSoC5/UI_TIMER.c **** 
 150:Generated_Source\PSoC5/UI_TIMER.c ****         #if (UI_TIMER_EnableTriggerMode)
 151:Generated_Source\PSoC5/UI_TIMER.c ****             UI_TIMER_EnableTrigger();
 152:Generated_Source\PSoC5/UI_TIMER.c ****         #endif /* Set Trigger enable bit for UDB implementation in the control register*/
 153:Generated_Source\PSoC5/UI_TIMER.c **** 		
 154:Generated_Source\PSoC5/UI_TIMER.c **** 		
 155:Generated_Source\PSoC5/UI_TIMER.c ****         #if (UI_TIMER_InterruptOnCaptureCount && !UI_TIMER_UDB_CONTROL_REG_REMOVED)
 156:Generated_Source\PSoC5/UI_TIMER.c ****             UI_TIMER_SetInterruptCount(UI_TIMER_INIT_INT_CAPTURE_COUNT);
 157:Generated_Source\PSoC5/UI_TIMER.c ****         #endif /* Set interrupt count in UDB implementation if interrupt count feature is checked.*
 158:Generated_Source\PSoC5/UI_TIMER.c **** 
 159:Generated_Source\PSoC5/UI_TIMER.c ****         UI_TIMER_ClearFIFO();
 160:Generated_Source\PSoC5/UI_TIMER.c ****     #endif /* Configure additional features of UDB implementation */
 161:Generated_Source\PSoC5/UI_TIMER.c **** 
 162:Generated_Source\PSoC5/UI_TIMER.c ****     UI_TIMER_SetInterruptMode(UI_TIMER_INIT_INTERRUPT_MODE);
 163:Generated_Source\PSoC5/UI_TIMER.c **** }
 164:Generated_Source\PSoC5/UI_TIMER.c **** 
 165:Generated_Source\PSoC5/UI_TIMER.c **** 
 166:Generated_Source\PSoC5/UI_TIMER.c **** /*******************************************************************************
 167:Generated_Source\PSoC5/UI_TIMER.c **** * Function Name: UI_TIMER_Enable
 168:Generated_Source\PSoC5/UI_TIMER.c **** ********************************************************************************
 169:Generated_Source\PSoC5/UI_TIMER.c **** *
 170:Generated_Source\PSoC5/UI_TIMER.c **** * Summary:
 171:Generated_Source\PSoC5/UI_TIMER.c **** *  Enable the Timer
 172:Generated_Source\PSoC5/UI_TIMER.c **** *
 173:Generated_Source\PSoC5/UI_TIMER.c **** * Parameters:
 174:Generated_Source\PSoC5/UI_TIMER.c **** *  void
ARM GAS  C:\Users\jmdevoto\AppData\Local\Temp\cccgutyM.s 			page 5


 175:Generated_Source\PSoC5/UI_TIMER.c **** *
 176:Generated_Source\PSoC5/UI_TIMER.c **** * Return:
 177:Generated_Source\PSoC5/UI_TIMER.c **** *  void
 178:Generated_Source\PSoC5/UI_TIMER.c **** *
 179:Generated_Source\PSoC5/UI_TIMER.c **** *******************************************************************************/
 180:Generated_Source\PSoC5/UI_TIMER.c **** void UI_TIMER_Enable(void) 
 181:Generated_Source\PSoC5/UI_TIMER.c **** {
 182:Generated_Source\PSoC5/UI_TIMER.c ****     /* Globally Enable the Fixed Function Block chosen */
 183:Generated_Source\PSoC5/UI_TIMER.c ****     #if (UI_TIMER_UsingFixedFunction)
 184:Generated_Source\PSoC5/UI_TIMER.c ****         UI_TIMER_GLOBAL_ENABLE |= UI_TIMER_BLOCK_EN_MASK;
 185:Generated_Source\PSoC5/UI_TIMER.c ****         UI_TIMER_GLOBAL_STBY_ENABLE |= UI_TIMER_BLOCK_STBY_EN_MASK;
 186:Generated_Source\PSoC5/UI_TIMER.c ****     #endif /* Set Enable bit for enabling Fixed function timer*/
 187:Generated_Source\PSoC5/UI_TIMER.c **** 
 188:Generated_Source\PSoC5/UI_TIMER.c ****     /* Remove assignment if control register is removed */
 189:Generated_Source\PSoC5/UI_TIMER.c ****     #if (!UI_TIMER_UDB_CONTROL_REG_REMOVED || UI_TIMER_UsingFixedFunction)
 190:Generated_Source\PSoC5/UI_TIMER.c ****         UI_TIMER_CONTROL |= UI_TIMER_CTRL_ENABLE;
 191:Generated_Source\PSoC5/UI_TIMER.c ****     #endif /* Remove assignment if control register is removed */
 192:Generated_Source\PSoC5/UI_TIMER.c **** }
 193:Generated_Source\PSoC5/UI_TIMER.c **** 
 194:Generated_Source\PSoC5/UI_TIMER.c **** 
 195:Generated_Source\PSoC5/UI_TIMER.c **** /*******************************************************************************
 196:Generated_Source\PSoC5/UI_TIMER.c **** * Function Name: UI_TIMER_Start
 197:Generated_Source\PSoC5/UI_TIMER.c **** ********************************************************************************
 198:Generated_Source\PSoC5/UI_TIMER.c **** *
 199:Generated_Source\PSoC5/UI_TIMER.c **** * Summary:
 200:Generated_Source\PSoC5/UI_TIMER.c **** *  The start function initializes the timer with the default values, the
 201:Generated_Source\PSoC5/UI_TIMER.c **** *  enables the timerto begin counting.  It does not enable interrupts,
 202:Generated_Source\PSoC5/UI_TIMER.c **** *  the EnableInt command should be called if interrupt generation is required.
 203:Generated_Source\PSoC5/UI_TIMER.c **** *
 204:Generated_Source\PSoC5/UI_TIMER.c **** * Parameters:
 205:Generated_Source\PSoC5/UI_TIMER.c **** *  void
 206:Generated_Source\PSoC5/UI_TIMER.c **** *
 207:Generated_Source\PSoC5/UI_TIMER.c **** * Return:
 208:Generated_Source\PSoC5/UI_TIMER.c **** *  void
 209:Generated_Source\PSoC5/UI_TIMER.c **** *
 210:Generated_Source\PSoC5/UI_TIMER.c **** * Global variables:
 211:Generated_Source\PSoC5/UI_TIMER.c **** *  UI_TIMER_initVar: Is modified when this function is called for the
 212:Generated_Source\PSoC5/UI_TIMER.c **** *   first time. Is used to ensure that initialization happens only once.
 213:Generated_Source\PSoC5/UI_TIMER.c **** *
 214:Generated_Source\PSoC5/UI_TIMER.c **** *******************************************************************************/
 215:Generated_Source\PSoC5/UI_TIMER.c **** void UI_TIMER_Start(void) 
 216:Generated_Source\PSoC5/UI_TIMER.c **** {
 217:Generated_Source\PSoC5/UI_TIMER.c ****     if(UI_TIMER_initVar == 0u)
 218:Generated_Source\PSoC5/UI_TIMER.c ****     {
 219:Generated_Source\PSoC5/UI_TIMER.c ****         UI_TIMER_Init();
 220:Generated_Source\PSoC5/UI_TIMER.c **** 
 221:Generated_Source\PSoC5/UI_TIMER.c ****         UI_TIMER_initVar = 1u;   /* Clear this bit for Initialization */
 222:Generated_Source\PSoC5/UI_TIMER.c ****     }
 223:Generated_Source\PSoC5/UI_TIMER.c **** 
 224:Generated_Source\PSoC5/UI_TIMER.c ****     /* Enable the Timer */
 225:Generated_Source\PSoC5/UI_TIMER.c ****     UI_TIMER_Enable();
 226:Generated_Source\PSoC5/UI_TIMER.c **** }
 227:Generated_Source\PSoC5/UI_TIMER.c **** 
 228:Generated_Source\PSoC5/UI_TIMER.c **** 
 229:Generated_Source\PSoC5/UI_TIMER.c **** /*******************************************************************************
 230:Generated_Source\PSoC5/UI_TIMER.c **** * Function Name: UI_TIMER_Stop
 231:Generated_Source\PSoC5/UI_TIMER.c **** ********************************************************************************
ARM GAS  C:\Users\jmdevoto\AppData\Local\Temp\cccgutyM.s 			page 6


 232:Generated_Source\PSoC5/UI_TIMER.c **** *
 233:Generated_Source\PSoC5/UI_TIMER.c **** * Summary:
 234:Generated_Source\PSoC5/UI_TIMER.c **** *  The stop function halts the timer, but does not change any modes or disable
 235:Generated_Source\PSoC5/UI_TIMER.c **** *  interrupts.
 236:Generated_Source\PSoC5/UI_TIMER.c **** *
 237:Generated_Source\PSoC5/UI_TIMER.c **** * Parameters:
 238:Generated_Source\PSoC5/UI_TIMER.c **** *  void
 239:Generated_Source\PSoC5/UI_TIMER.c **** *
 240:Generated_Source\PSoC5/UI_TIMER.c **** * Return:
 241:Generated_Source\PSoC5/UI_TIMER.c **** *  void
 242:Generated_Source\PSoC5/UI_TIMER.c **** *
 243:Generated_Source\PSoC5/UI_TIMER.c **** * Side Effects: If the Enable mode is set to Hardware only then this function
 244:Generated_Source\PSoC5/UI_TIMER.c **** *               has no effect on the operation of the timer.
 245:Generated_Source\PSoC5/UI_TIMER.c **** *
 246:Generated_Source\PSoC5/UI_TIMER.c **** *******************************************************************************/
 247:Generated_Source\PSoC5/UI_TIMER.c **** void UI_TIMER_Stop(void) 
 248:Generated_Source\PSoC5/UI_TIMER.c **** {
 249:Generated_Source\PSoC5/UI_TIMER.c ****     /* Disable Timer */
 250:Generated_Source\PSoC5/UI_TIMER.c ****     #if(!UI_TIMER_UDB_CONTROL_REG_REMOVED || UI_TIMER_UsingFixedFunction)
 251:Generated_Source\PSoC5/UI_TIMER.c ****         UI_TIMER_CONTROL &= ((uint8)(~UI_TIMER_CTRL_ENABLE));
 252:Generated_Source\PSoC5/UI_TIMER.c ****     #endif /* Remove assignment if control register is removed */
 253:Generated_Source\PSoC5/UI_TIMER.c **** 
 254:Generated_Source\PSoC5/UI_TIMER.c ****     /* Globally disable the Fixed Function Block chosen */
 255:Generated_Source\PSoC5/UI_TIMER.c ****     #if (UI_TIMER_UsingFixedFunction)
 256:Generated_Source\PSoC5/UI_TIMER.c ****         UI_TIMER_GLOBAL_ENABLE &= ((uint8)(~UI_TIMER_BLOCK_EN_MASK));
 257:Generated_Source\PSoC5/UI_TIMER.c ****         UI_TIMER_GLOBAL_STBY_ENABLE &= ((uint8)(~UI_TIMER_BLOCK_STBY_EN_MASK));
 258:Generated_Source\PSoC5/UI_TIMER.c ****     #endif /* Disable global enable for the Timer Fixed function block to stop the Timer*/
 259:Generated_Source\PSoC5/UI_TIMER.c **** }
 260:Generated_Source\PSoC5/UI_TIMER.c **** 
 261:Generated_Source\PSoC5/UI_TIMER.c **** 
 262:Generated_Source\PSoC5/UI_TIMER.c **** /*******************************************************************************
 263:Generated_Source\PSoC5/UI_TIMER.c **** * Function Name: UI_TIMER_SetInterruptMode
 264:Generated_Source\PSoC5/UI_TIMER.c **** ********************************************************************************
 265:Generated_Source\PSoC5/UI_TIMER.c **** *
 266:Generated_Source\PSoC5/UI_TIMER.c **** * Summary:
 267:Generated_Source\PSoC5/UI_TIMER.c **** *  This function selects which of the interrupt inputs may cause an interrupt.
 268:Generated_Source\PSoC5/UI_TIMER.c **** *  The twosources are caputure and terminal.  One, both or neither may
 269:Generated_Source\PSoC5/UI_TIMER.c **** *  be selected.
 270:Generated_Source\PSoC5/UI_TIMER.c **** *
 271:Generated_Source\PSoC5/UI_TIMER.c **** * Parameters:
 272:Generated_Source\PSoC5/UI_TIMER.c **** *  interruptMode:   This parameter is used to enable interrups on either/or
 273:Generated_Source\PSoC5/UI_TIMER.c **** *                   terminal count or capture.
 274:Generated_Source\PSoC5/UI_TIMER.c **** *
 275:Generated_Source\PSoC5/UI_TIMER.c **** * Return:
 276:Generated_Source\PSoC5/UI_TIMER.c **** *  void
 277:Generated_Source\PSoC5/UI_TIMER.c **** *
 278:Generated_Source\PSoC5/UI_TIMER.c **** *******************************************************************************/
 279:Generated_Source\PSoC5/UI_TIMER.c **** void UI_TIMER_SetInterruptMode(uint8 interruptMode) 
 280:Generated_Source\PSoC5/UI_TIMER.c **** {
 281:Generated_Source\PSoC5/UI_TIMER.c ****     UI_TIMER_STATUS_MASK = interruptMode;
 282:Generated_Source\PSoC5/UI_TIMER.c **** }
 283:Generated_Source\PSoC5/UI_TIMER.c **** 
 284:Generated_Source\PSoC5/UI_TIMER.c **** 
 285:Generated_Source\PSoC5/UI_TIMER.c **** /*******************************************************************************
 286:Generated_Source\PSoC5/UI_TIMER.c **** * Function Name: UI_TIMER_SoftwareCapture
 287:Generated_Source\PSoC5/UI_TIMER.c **** ********************************************************************************
 288:Generated_Source\PSoC5/UI_TIMER.c **** *
ARM GAS  C:\Users\jmdevoto\AppData\Local\Temp\cccgutyM.s 			page 7


 289:Generated_Source\PSoC5/UI_TIMER.c **** * Summary:
 290:Generated_Source\PSoC5/UI_TIMER.c **** *  This function forces a capture independent of the capture signal.
 291:Generated_Source\PSoC5/UI_TIMER.c **** *
 292:Generated_Source\PSoC5/UI_TIMER.c **** * Parameters:
 293:Generated_Source\PSoC5/UI_TIMER.c **** *  void
 294:Generated_Source\PSoC5/UI_TIMER.c **** *
 295:Generated_Source\PSoC5/UI_TIMER.c **** * Return:
 296:Generated_Source\PSoC5/UI_TIMER.c **** *  void
 297:Generated_Source\PSoC5/UI_TIMER.c **** *
 298:Generated_Source\PSoC5/UI_TIMER.c **** * Side Effects:
 299:Generated_Source\PSoC5/UI_TIMER.c **** *  An existing hardware capture could be overwritten.
 300:Generated_Source\PSoC5/UI_TIMER.c **** *
 301:Generated_Source\PSoC5/UI_TIMER.c **** *******************************************************************************/
 302:Generated_Source\PSoC5/UI_TIMER.c **** void UI_TIMER_SoftwareCapture(void) 
 303:Generated_Source\PSoC5/UI_TIMER.c **** {
 304:Generated_Source\PSoC5/UI_TIMER.c ****     /* Generate a software capture by reading the counter register */
 305:Generated_Source\PSoC5/UI_TIMER.c ****     #if(UI_TIMER_UsingFixedFunction)
 306:Generated_Source\PSoC5/UI_TIMER.c ****         (void)CY_GET_REG16(UI_TIMER_COUNTER_LSB_PTR);
 307:Generated_Source\PSoC5/UI_TIMER.c ****     #else
 308:Generated_Source\PSoC5/UI_TIMER.c ****         (void)CY_GET_REG8(UI_TIMER_COUNTER_LSB_PTR_8BIT);
 309:Generated_Source\PSoC5/UI_TIMER.c ****     #endif/* (UI_TIMER_UsingFixedFunction) */
 310:Generated_Source\PSoC5/UI_TIMER.c ****     /* Capture Data is now in the FIFO */
 311:Generated_Source\PSoC5/UI_TIMER.c **** }
 312:Generated_Source\PSoC5/UI_TIMER.c **** 
 313:Generated_Source\PSoC5/UI_TIMER.c **** 
 314:Generated_Source\PSoC5/UI_TIMER.c **** /*******************************************************************************
 315:Generated_Source\PSoC5/UI_TIMER.c **** * Function Name: UI_TIMER_ReadStatusRegister
 316:Generated_Source\PSoC5/UI_TIMER.c **** ********************************************************************************
 317:Generated_Source\PSoC5/UI_TIMER.c **** *
 318:Generated_Source\PSoC5/UI_TIMER.c **** * Summary:
 319:Generated_Source\PSoC5/UI_TIMER.c **** *  Reads the status register and returns it's state. This function should use
 320:Generated_Source\PSoC5/UI_TIMER.c **** *  defined types for the bit-field information as the bits in this register may
 321:Generated_Source\PSoC5/UI_TIMER.c **** *  be permuteable.
 322:Generated_Source\PSoC5/UI_TIMER.c **** *
 323:Generated_Source\PSoC5/UI_TIMER.c **** * Parameters:
 324:Generated_Source\PSoC5/UI_TIMER.c **** *  void
 325:Generated_Source\PSoC5/UI_TIMER.c **** *
 326:Generated_Source\PSoC5/UI_TIMER.c **** * Return:
 327:Generated_Source\PSoC5/UI_TIMER.c **** *  The contents of the status register
 328:Generated_Source\PSoC5/UI_TIMER.c **** *
 329:Generated_Source\PSoC5/UI_TIMER.c **** * Side Effects:
 330:Generated_Source\PSoC5/UI_TIMER.c **** *  Status register bits may be clear on read.
 331:Generated_Source\PSoC5/UI_TIMER.c **** *
 332:Generated_Source\PSoC5/UI_TIMER.c **** *******************************************************************************/
 333:Generated_Source\PSoC5/UI_TIMER.c **** uint8   UI_TIMER_ReadStatusRegister(void) 
 334:Generated_Source\PSoC5/UI_TIMER.c **** {
 335:Generated_Source\PSoC5/UI_TIMER.c ****     return (UI_TIMER_STATUS);
 336:Generated_Source\PSoC5/UI_TIMER.c **** }
 337:Generated_Source\PSoC5/UI_TIMER.c **** 
 338:Generated_Source\PSoC5/UI_TIMER.c **** 
 339:Generated_Source\PSoC5/UI_TIMER.c **** #if (!UI_TIMER_UDB_CONTROL_REG_REMOVED) /* Remove API if control register is unused */
 340:Generated_Source\PSoC5/UI_TIMER.c **** 
 341:Generated_Source\PSoC5/UI_TIMER.c **** 
 342:Generated_Source\PSoC5/UI_TIMER.c **** /*******************************************************************************
 343:Generated_Source\PSoC5/UI_TIMER.c **** * Function Name: UI_TIMER_ReadControlRegister
 344:Generated_Source\PSoC5/UI_TIMER.c **** ********************************************************************************
 345:Generated_Source\PSoC5/UI_TIMER.c **** *
ARM GAS  C:\Users\jmdevoto\AppData\Local\Temp\cccgutyM.s 			page 8


 346:Generated_Source\PSoC5/UI_TIMER.c **** * Summary:
 347:Generated_Source\PSoC5/UI_TIMER.c **** *  Reads the control register and returns it's value.
 348:Generated_Source\PSoC5/UI_TIMER.c **** *
 349:Generated_Source\PSoC5/UI_TIMER.c **** * Parameters:
 350:Generated_Source\PSoC5/UI_TIMER.c **** *  void
 351:Generated_Source\PSoC5/UI_TIMER.c **** *
 352:Generated_Source\PSoC5/UI_TIMER.c **** * Return:
 353:Generated_Source\PSoC5/UI_TIMER.c **** *  The contents of the control register
 354:Generated_Source\PSoC5/UI_TIMER.c **** *
 355:Generated_Source\PSoC5/UI_TIMER.c **** *******************************************************************************/
 356:Generated_Source\PSoC5/UI_TIMER.c **** uint8 UI_TIMER_ReadControlRegister(void) 
 357:Generated_Source\PSoC5/UI_TIMER.c **** {
 358:Generated_Source\PSoC5/UI_TIMER.c ****     #if (!UI_TIMER_UDB_CONTROL_REG_REMOVED) 
 359:Generated_Source\PSoC5/UI_TIMER.c ****         return ((uint8)UI_TIMER_CONTROL);
 360:Generated_Source\PSoC5/UI_TIMER.c ****     #else
 361:Generated_Source\PSoC5/UI_TIMER.c ****         return (0);
 362:Generated_Source\PSoC5/UI_TIMER.c ****     #endif /* (!UI_TIMER_UDB_CONTROL_REG_REMOVED) */
 363:Generated_Source\PSoC5/UI_TIMER.c **** }
 364:Generated_Source\PSoC5/UI_TIMER.c **** 
 365:Generated_Source\PSoC5/UI_TIMER.c **** 
 366:Generated_Source\PSoC5/UI_TIMER.c **** /*******************************************************************************
 367:Generated_Source\PSoC5/UI_TIMER.c **** * Function Name: UI_TIMER_WriteControlRegister
 368:Generated_Source\PSoC5/UI_TIMER.c **** ********************************************************************************
 369:Generated_Source\PSoC5/UI_TIMER.c **** *
 370:Generated_Source\PSoC5/UI_TIMER.c **** * Summary:
 371:Generated_Source\PSoC5/UI_TIMER.c **** *  Sets the bit-field of the control register.
 372:Generated_Source\PSoC5/UI_TIMER.c **** *
 373:Generated_Source\PSoC5/UI_TIMER.c **** * Parameters:
 374:Generated_Source\PSoC5/UI_TIMER.c **** *  control: The contents of the control register
 375:Generated_Source\PSoC5/UI_TIMER.c **** *
 376:Generated_Source\PSoC5/UI_TIMER.c **** * Return:
 377:Generated_Source\PSoC5/UI_TIMER.c **** *
 378:Generated_Source\PSoC5/UI_TIMER.c **** *******************************************************************************/
 379:Generated_Source\PSoC5/UI_TIMER.c **** void UI_TIMER_WriteControlRegister(uint8 control) 
 380:Generated_Source\PSoC5/UI_TIMER.c **** {
 381:Generated_Source\PSoC5/UI_TIMER.c ****     #if (!UI_TIMER_UDB_CONTROL_REG_REMOVED) 
 382:Generated_Source\PSoC5/UI_TIMER.c ****         UI_TIMER_CONTROL = control;
 383:Generated_Source\PSoC5/UI_TIMER.c ****     #else
 384:Generated_Source\PSoC5/UI_TIMER.c ****         control = 0u;
 385:Generated_Source\PSoC5/UI_TIMER.c ****     #endif /* (!UI_TIMER_UDB_CONTROL_REG_REMOVED) */
 386:Generated_Source\PSoC5/UI_TIMER.c **** }
 387:Generated_Source\PSoC5/UI_TIMER.c **** 
 388:Generated_Source\PSoC5/UI_TIMER.c **** #endif /* Remove API if control register is unused */
 389:Generated_Source\PSoC5/UI_TIMER.c **** 
 390:Generated_Source\PSoC5/UI_TIMER.c **** 
 391:Generated_Source\PSoC5/UI_TIMER.c **** /*******************************************************************************
 392:Generated_Source\PSoC5/UI_TIMER.c **** * Function Name: UI_TIMER_ReadPeriod
 393:Generated_Source\PSoC5/UI_TIMER.c **** ********************************************************************************
 394:Generated_Source\PSoC5/UI_TIMER.c **** *
 395:Generated_Source\PSoC5/UI_TIMER.c **** * Summary:
 396:Generated_Source\PSoC5/UI_TIMER.c **** *  This function returns the current value of the Period.
 397:Generated_Source\PSoC5/UI_TIMER.c **** *
 398:Generated_Source\PSoC5/UI_TIMER.c **** * Parameters:
 399:Generated_Source\PSoC5/UI_TIMER.c **** *  void
 400:Generated_Source\PSoC5/UI_TIMER.c **** *
 401:Generated_Source\PSoC5/UI_TIMER.c **** * Return:
 402:Generated_Source\PSoC5/UI_TIMER.c **** *  The present value of the counter.
ARM GAS  C:\Users\jmdevoto\AppData\Local\Temp\cccgutyM.s 			page 9


 403:Generated_Source\PSoC5/UI_TIMER.c **** *
 404:Generated_Source\PSoC5/UI_TIMER.c **** *******************************************************************************/
 405:Generated_Source\PSoC5/UI_TIMER.c **** uint8 UI_TIMER_ReadPeriod(void) 
 406:Generated_Source\PSoC5/UI_TIMER.c **** {
 407:Generated_Source\PSoC5/UI_TIMER.c ****    #if(UI_TIMER_UsingFixedFunction)
 408:Generated_Source\PSoC5/UI_TIMER.c ****        return ((uint8)CY_GET_REG16(UI_TIMER_PERIOD_LSB_PTR));
 409:Generated_Source\PSoC5/UI_TIMER.c ****    #else
 410:Generated_Source\PSoC5/UI_TIMER.c ****        return (CY_GET_REG8(UI_TIMER_PERIOD_LSB_PTR));
 411:Generated_Source\PSoC5/UI_TIMER.c ****    #endif /* (UI_TIMER_UsingFixedFunction) */
 412:Generated_Source\PSoC5/UI_TIMER.c **** }
 413:Generated_Source\PSoC5/UI_TIMER.c **** 
 414:Generated_Source\PSoC5/UI_TIMER.c **** 
 415:Generated_Source\PSoC5/UI_TIMER.c **** /*******************************************************************************
 416:Generated_Source\PSoC5/UI_TIMER.c **** * Function Name: UI_TIMER_WritePeriod
 417:Generated_Source\PSoC5/UI_TIMER.c **** ********************************************************************************
 418:Generated_Source\PSoC5/UI_TIMER.c **** *
 419:Generated_Source\PSoC5/UI_TIMER.c **** * Summary:
 420:Generated_Source\PSoC5/UI_TIMER.c **** *  This function is used to change the period of the counter.  The new period
 421:Generated_Source\PSoC5/UI_TIMER.c **** *  will be loaded the next time terminal count is detected.
 422:Generated_Source\PSoC5/UI_TIMER.c **** *
 423:Generated_Source\PSoC5/UI_TIMER.c **** * Parameters:
 424:Generated_Source\PSoC5/UI_TIMER.c **** *  period: This value may be between 1 and (2^Resolution)-1.  A value of 0 will
 425:Generated_Source\PSoC5/UI_TIMER.c **** *          result in the counter remaining at zero.
 426:Generated_Source\PSoC5/UI_TIMER.c **** *
 427:Generated_Source\PSoC5/UI_TIMER.c **** * Return:
 428:Generated_Source\PSoC5/UI_TIMER.c **** *  void
 429:Generated_Source\PSoC5/UI_TIMER.c **** *
 430:Generated_Source\PSoC5/UI_TIMER.c **** *******************************************************************************/
 431:Generated_Source\PSoC5/UI_TIMER.c **** void UI_TIMER_WritePeriod(uint8 period) 
 432:Generated_Source\PSoC5/UI_TIMER.c **** {
 433:Generated_Source\PSoC5/UI_TIMER.c ****     #if(UI_TIMER_UsingFixedFunction)
 434:Generated_Source\PSoC5/UI_TIMER.c ****         uint16 period_temp = (uint16)period;
 435:Generated_Source\PSoC5/UI_TIMER.c ****         CY_SET_REG16(UI_TIMER_PERIOD_LSB_PTR, period_temp);
  52              		.loc 1 435 0
  53 0012 134C     		ldr	r4, .L3+12
  54              	.LBE11:
  55              	.LBE10:
  60:Generated_Source\PSoC5/UI_TIMER.c ****         #endif /* CONTROL3 register exists only in PSoC3 OR PSoC5LP */
  56              		.loc 1 60 0
  57 0014 02F0FC02 		and	r2, r2, #252
  58 0018 0270     		strb	r2, [r0]
 106:Generated_Source\PSoC5/UI_TIMER.c ****         UI_TIMER_RT1 |= UI_TIMER_SYNC;
  59              		.loc 1 106 0
  60 001a 1A78     		ldrb	r2, [r3]	@ zero_extendqisi2
  61              	.LBB14:
  62              	.LBB15:
 436:Generated_Source\PSoC5/UI_TIMER.c ****     #else
 437:Generated_Source\PSoC5/UI_TIMER.c ****         CY_SET_REG8(UI_TIMER_PERIOD_LSB_PTR, period);
 438:Generated_Source\PSoC5/UI_TIMER.c ****     #endif /*Write Period value with appropriate resolution suffix depending on UDB or fixed functi
 439:Generated_Source\PSoC5/UI_TIMER.c **** }
 440:Generated_Source\PSoC5/UI_TIMER.c **** 
 441:Generated_Source\PSoC5/UI_TIMER.c **** 
 442:Generated_Source\PSoC5/UI_TIMER.c **** /*******************************************************************************
 443:Generated_Source\PSoC5/UI_TIMER.c **** * Function Name: UI_TIMER_ReadCapture
 444:Generated_Source\PSoC5/UI_TIMER.c **** ********************************************************************************
 445:Generated_Source\PSoC5/UI_TIMER.c **** *
 446:Generated_Source\PSoC5/UI_TIMER.c **** * Summary:
ARM GAS  C:\Users\jmdevoto\AppData\Local\Temp\cccgutyM.s 			page 10


 447:Generated_Source\PSoC5/UI_TIMER.c **** *  This function returns the last value captured.
 448:Generated_Source\PSoC5/UI_TIMER.c **** *
 449:Generated_Source\PSoC5/UI_TIMER.c **** * Parameters:
 450:Generated_Source\PSoC5/UI_TIMER.c **** *  void
 451:Generated_Source\PSoC5/UI_TIMER.c **** *
 452:Generated_Source\PSoC5/UI_TIMER.c **** * Return:
 453:Generated_Source\PSoC5/UI_TIMER.c **** *  Present Capture value.
 454:Generated_Source\PSoC5/UI_TIMER.c **** *
 455:Generated_Source\PSoC5/UI_TIMER.c **** *******************************************************************************/
 456:Generated_Source\PSoC5/UI_TIMER.c **** uint8 UI_TIMER_ReadCapture(void) 
 457:Generated_Source\PSoC5/UI_TIMER.c **** {
 458:Generated_Source\PSoC5/UI_TIMER.c ****    #if(UI_TIMER_UsingFixedFunction)
 459:Generated_Source\PSoC5/UI_TIMER.c ****        return ((uint8)CY_GET_REG16(UI_TIMER_CAPTURE_LSB_PTR));
 460:Generated_Source\PSoC5/UI_TIMER.c ****    #else
 461:Generated_Source\PSoC5/UI_TIMER.c ****        return (CY_GET_REG8(UI_TIMER_CAPTURE_LSB_PTR));
 462:Generated_Source\PSoC5/UI_TIMER.c ****    #endif /* (UI_TIMER_UsingFixedFunction) */
 463:Generated_Source\PSoC5/UI_TIMER.c **** }
 464:Generated_Source\PSoC5/UI_TIMER.c **** 
 465:Generated_Source\PSoC5/UI_TIMER.c **** 
 466:Generated_Source\PSoC5/UI_TIMER.c **** /*******************************************************************************
 467:Generated_Source\PSoC5/UI_TIMER.c **** * Function Name: UI_TIMER_WriteCounter
 468:Generated_Source\PSoC5/UI_TIMER.c **** ********************************************************************************
 469:Generated_Source\PSoC5/UI_TIMER.c **** *
 470:Generated_Source\PSoC5/UI_TIMER.c **** * Summary:
 471:Generated_Source\PSoC5/UI_TIMER.c **** *  This funtion is used to set the counter to a specific value
 472:Generated_Source\PSoC5/UI_TIMER.c **** *
 473:Generated_Source\PSoC5/UI_TIMER.c **** * Parameters:
 474:Generated_Source\PSoC5/UI_TIMER.c **** *  counter:  New counter value.
 475:Generated_Source\PSoC5/UI_TIMER.c **** *
 476:Generated_Source\PSoC5/UI_TIMER.c **** * Return:
 477:Generated_Source\PSoC5/UI_TIMER.c **** *  void
 478:Generated_Source\PSoC5/UI_TIMER.c **** *
 479:Generated_Source\PSoC5/UI_TIMER.c **** *******************************************************************************/
 480:Generated_Source\PSoC5/UI_TIMER.c **** void UI_TIMER_WriteCounter(uint8 counter) 
 481:Generated_Source\PSoC5/UI_TIMER.c **** {
 482:Generated_Source\PSoC5/UI_TIMER.c ****    #if(UI_TIMER_UsingFixedFunction)
 483:Generated_Source\PSoC5/UI_TIMER.c ****         /* This functionality is removed until a FixedFunction HW update to
 484:Generated_Source\PSoC5/UI_TIMER.c ****          * allow this register to be written
 485:Generated_Source\PSoC5/UI_TIMER.c ****          */
 486:Generated_Source\PSoC5/UI_TIMER.c ****         CY_SET_REG16(UI_TIMER_COUNTER_LSB_PTR, (uint16)counter);
  63              		.loc 1 486 0
  64 001c 114E     		ldr	r6, .L3+16
  65              	.LBE15:
  66              	.LBE14:
 106:Generated_Source\PSoC5/UI_TIMER.c ****         UI_TIMER_RT1 |= UI_TIMER_SYNC;
  67              		.loc 1 106 0
  68 001e 02F0CF02 		and	r2, r2, #207
  69 0022 1A70     		strb	r2, [r3]
 107:Generated_Source\PSoC5/UI_TIMER.c **** 
  70              		.loc 1 107 0
  71 0024 1A78     		ldrb	r2, [r3]	@ zero_extendqisi2
  72              	.LBB17:
  73              	.LBB18:
 281:Generated_Source\PSoC5/UI_TIMER.c **** }
  74              		.loc 1 281 0
  75 0026 104D     		ldr	r5, .L3+20
  76              	.LBE18:
ARM GAS  C:\Users\jmdevoto\AppData\Local\Temp\cccgutyM.s 			page 11


  77              	.LBE17:
 107:Generated_Source\PSoC5/UI_TIMER.c **** 
  78              		.loc 1 107 0
  79 0028 42F03002 		orr	r2, r2, #48
  80 002c 1A70     		strb	r2, [r3]
 110:Generated_Source\PSoC5/UI_TIMER.c ****         UI_TIMER_RT1 |= UI_TIMER_SYNCDSI_EN;
  81              		.loc 1 110 0
  82 002e 1A78     		ldrb	r2, [r3]	@ zero_extendqisi2
  83              	.LBB21:
  84              	.LBB12:
 435:Generated_Source\PSoC5/UI_TIMER.c ****     #else
  85              		.loc 1 435 0
  86 0030 0920     		movs	r0, #9
  87              	.LBE12:
  88              	.LBE21:
 110:Generated_Source\PSoC5/UI_TIMER.c ****         UI_TIMER_RT1 |= UI_TIMER_SYNCDSI_EN;
  89              		.loc 1 110 0
  90 0032 02F0F002 		and	r2, r2, #240
  91 0036 1A70     		strb	r2, [r3]
 111:Generated_Source\PSoC5/UI_TIMER.c **** 
  92              		.loc 1 111 0
  93 0038 1A78     		ldrb	r2, [r3]	@ zero_extendqisi2
  94 003a 42F00F02 		orr	r2, r2, #15
  95 003e 1A70     		strb	r2, [r3]
 114:Generated_Source\PSoC5/UI_TIMER.c ****     #endif /* Configuring registers of fixed function implementation */
  96              		.loc 1 114 0
  97 0040 4B78     		ldrb	r3, [r1, #1]	@ zero_extendqisi2
  98              	.LBB22:
  99              	.LBB19:
 281:Generated_Source\PSoC5/UI_TIMER.c **** }
 100              		.loc 1 281 0
 101 0042 0022     		movs	r2, #0
 102              	.LBE19:
 103              	.LBE22:
 114:Generated_Source\PSoC5/UI_TIMER.c ****     #endif /* Configuring registers of fixed function implementation */
 104              		.loc 1 114 0
 105 0044 43F00103 		orr	r3, r3, #1
 106 0048 4B70     		strb	r3, [r1, #1]
 107              	.LVL0:
 108              	.LBB23:
 109              	.LBB13:
 435:Generated_Source\PSoC5/UI_TIMER.c ****     #else
 110              		.loc 1 435 0
 111 004a 2080     		strh	r0, [r4]	@ movhi
 112              	.LVL1:
 113              	.LBE13:
 114              	.LBE23:
 115              	.LBB24:
 116              	.LBB16:
 117              		.loc 1 486 0
 118 004c 3080     		strh	r0, [r6]	@ movhi
 119              	.LVL2:
 120              	.LBE16:
 121              	.LBE24:
 122              	.LBB25:
 123              	.LBB20:
 281:Generated_Source\PSoC5/UI_TIMER.c **** }
ARM GAS  C:\Users\jmdevoto\AppData\Local\Temp\cccgutyM.s 			page 12


 124              		.loc 1 281 0
 125 004e 2A70     		strb	r2, [r5]
 126              	.LBE20:
 127              	.LBE25:
 163:Generated_Source\PSoC5/UI_TIMER.c **** 
 128              		.loc 1 163 0
 129 0050 70BC     		pop	{r4, r5, r6}
 130              		.cfi_restore 6
 131              		.cfi_restore 5
 132              		.cfi_restore 4
 133              		.cfi_def_cfa_offset 0
 134 0052 7047     		bx	lr
 135              	.L4:
 136              		.align	2
 137              	.L3:
 138 0054 004F0040 		.word	1073762048
 139 0058 024F0040 		.word	1073762050
 140 005c 0B4F0040 		.word	1073762059
 141 0060 044F0040 		.word	1073762052
 142 0064 064F0040 		.word	1073762054
 143 0068 034F0040 		.word	1073762051
 144              		.cfi_endproc
 145              	.LFE0:
 146              		.size	UI_TIMER_Init, .-UI_TIMER_Init
 147              		.section	.text.UI_TIMER_Enable,"ax",%progbits
 148              		.align	2
 149              		.global	UI_TIMER_Enable
 150              		.thumb
 151              		.thumb_func
 152              		.type	UI_TIMER_Enable, %function
 153              	UI_TIMER_Enable:
 154              	.LFB1:
 181:Generated_Source\PSoC5/UI_TIMER.c ****     /* Globally Enable the Fixed Function Block chosen */
 155              		.loc 1 181 0
 156              		.cfi_startproc
 157              		@ args = 0, pretend = 0, frame = 0
 158              		@ frame_needed = 0, uses_anonymous_args = 0
 159              		@ link register save eliminated.
 184:Generated_Source\PSoC5/UI_TIMER.c ****         UI_TIMER_GLOBAL_STBY_ENABLE |= UI_TIMER_BLOCK_STBY_EN_MASK;
 160              		.loc 1 184 0
 161 0000 0748     		ldr	r0, .L6
 185:Generated_Source\PSoC5/UI_TIMER.c ****     #endif /* Set Enable bit for enabling Fixed function timer*/
 162              		.loc 1 185 0
 163 0002 0849     		ldr	r1, .L6+4
 184:Generated_Source\PSoC5/UI_TIMER.c ****         UI_TIMER_GLOBAL_STBY_ENABLE |= UI_TIMER_BLOCK_STBY_EN_MASK;
 164              		.loc 1 184 0
 165 0004 0378     		ldrb	r3, [r0]	@ zero_extendqisi2
 190:Generated_Source\PSoC5/UI_TIMER.c ****     #endif /* Remove assignment if control register is removed */
 166              		.loc 1 190 0
 167 0006 084A     		ldr	r2, .L6+8
 184:Generated_Source\PSoC5/UI_TIMER.c ****         UI_TIMER_GLOBAL_STBY_ENABLE |= UI_TIMER_BLOCK_STBY_EN_MASK;
 168              		.loc 1 184 0
 169 0008 43F00103 		orr	r3, r3, #1
 170 000c 0370     		strb	r3, [r0]
 185:Generated_Source\PSoC5/UI_TIMER.c ****     #endif /* Set Enable bit for enabling Fixed function timer*/
 171              		.loc 1 185 0
 172 000e 0B78     		ldrb	r3, [r1]	@ zero_extendqisi2
ARM GAS  C:\Users\jmdevoto\AppData\Local\Temp\cccgutyM.s 			page 13


 173 0010 43F00103 		orr	r3, r3, #1
 174 0014 0B70     		strb	r3, [r1]
 190:Generated_Source\PSoC5/UI_TIMER.c ****     #endif /* Remove assignment if control register is removed */
 175              		.loc 1 190 0
 176 0016 1378     		ldrb	r3, [r2]	@ zero_extendqisi2
 177 0018 43F00103 		orr	r3, r3, #1
 178 001c 1370     		strb	r3, [r2]
 179 001e 7047     		bx	lr
 180              	.L7:
 181              		.align	2
 182              	.L6:
 183 0020 A3430040 		.word	1073759139
 184 0024 B3430040 		.word	1073759155
 185 0028 004F0040 		.word	1073762048
 186              		.cfi_endproc
 187              	.LFE1:
 188              		.size	UI_TIMER_Enable, .-UI_TIMER_Enable
 189              		.section	.text.UI_TIMER_Start,"ax",%progbits
 190              		.align	2
 191              		.global	UI_TIMER_Start
 192              		.thumb
 193              		.thumb_func
 194              		.type	UI_TIMER_Start, %function
 195              	UI_TIMER_Start:
 196              	.LFB2:
 216:Generated_Source\PSoC5/UI_TIMER.c ****     if(UI_TIMER_initVar == 0u)
 197              		.loc 1 216 0
 198              		.cfi_startproc
 199              		@ args = 0, pretend = 0, frame = 0
 200              		@ frame_needed = 0, uses_anonymous_args = 0
 201 0000 10B5     		push	{r4, lr}
 202              		.cfi_def_cfa_offset 8
 203              		.cfi_offset 4, -8
 204              		.cfi_offset 14, -4
 217:Generated_Source\PSoC5/UI_TIMER.c ****     {
 205              		.loc 1 217 0
 206 0002 0B4C     		ldr	r4, .L12
 207 0004 2378     		ldrb	r3, [r4]	@ zero_extendqisi2
 208 0006 1BB9     		cbnz	r3, .L9
 219:Generated_Source\PSoC5/UI_TIMER.c **** 
 209              		.loc 1 219 0
 210 0008 FFF7FEFF 		bl	UI_TIMER_Init
 211              	.LVL3:
 221:Generated_Source\PSoC5/UI_TIMER.c ****     }
 212              		.loc 1 221 0
 213 000c 0123     		movs	r3, #1
 214 000e 2370     		strb	r3, [r4]
 215              	.L9:
 216              	.LBB26:
 217              	.LBB27:
 184:Generated_Source\PSoC5/UI_TIMER.c ****         UI_TIMER_GLOBAL_STBY_ENABLE |= UI_TIMER_BLOCK_STBY_EN_MASK;
 218              		.loc 1 184 0
 219 0010 0848     		ldr	r0, .L12+4
 185:Generated_Source\PSoC5/UI_TIMER.c ****     #endif /* Set Enable bit for enabling Fixed function timer*/
 220              		.loc 1 185 0
 221 0012 0949     		ldr	r1, .L12+8
 184:Generated_Source\PSoC5/UI_TIMER.c ****         UI_TIMER_GLOBAL_STBY_ENABLE |= UI_TIMER_BLOCK_STBY_EN_MASK;
ARM GAS  C:\Users\jmdevoto\AppData\Local\Temp\cccgutyM.s 			page 14


 222              		.loc 1 184 0
 223 0014 0378     		ldrb	r3, [r0]	@ zero_extendqisi2
 190:Generated_Source\PSoC5/UI_TIMER.c ****     #endif /* Remove assignment if control register is removed */
 224              		.loc 1 190 0
 225 0016 094A     		ldr	r2, .L12+12
 184:Generated_Source\PSoC5/UI_TIMER.c ****         UI_TIMER_GLOBAL_STBY_ENABLE |= UI_TIMER_BLOCK_STBY_EN_MASK;
 226              		.loc 1 184 0
 227 0018 43F00103 		orr	r3, r3, #1
 228 001c 0370     		strb	r3, [r0]
 185:Generated_Source\PSoC5/UI_TIMER.c ****     #endif /* Set Enable bit for enabling Fixed function timer*/
 229              		.loc 1 185 0
 230 001e 0B78     		ldrb	r3, [r1]	@ zero_extendqisi2
 231 0020 43F00103 		orr	r3, r3, #1
 232 0024 0B70     		strb	r3, [r1]
 190:Generated_Source\PSoC5/UI_TIMER.c ****     #endif /* Remove assignment if control register is removed */
 233              		.loc 1 190 0
 234 0026 1378     		ldrb	r3, [r2]	@ zero_extendqisi2
 235 0028 43F00103 		orr	r3, r3, #1
 236 002c 1370     		strb	r3, [r2]
 237 002e 10BD     		pop	{r4, pc}
 238              	.L13:
 239              		.align	2
 240              	.L12:
 241 0030 00000000 		.word	.LANCHOR0
 242 0034 A3430040 		.word	1073759139
 243 0038 B3430040 		.word	1073759155
 244 003c 004F0040 		.word	1073762048
 245              	.LBE27:
 246              	.LBE26:
 247              		.cfi_endproc
 248              	.LFE2:
 249              		.size	UI_TIMER_Start, .-UI_TIMER_Start
 250              		.section	.text.UI_TIMER_Stop,"ax",%progbits
 251              		.align	2
 252              		.global	UI_TIMER_Stop
 253              		.thumb
 254              		.thumb_func
 255              		.type	UI_TIMER_Stop, %function
 256              	UI_TIMER_Stop:
 257              	.LFB3:
 248:Generated_Source\PSoC5/UI_TIMER.c ****     /* Disable Timer */
 258              		.loc 1 248 0
 259              		.cfi_startproc
 260              		@ args = 0, pretend = 0, frame = 0
 261              		@ frame_needed = 0, uses_anonymous_args = 0
 262              		@ link register save eliminated.
 251:Generated_Source\PSoC5/UI_TIMER.c ****     #endif /* Remove assignment if control register is removed */
 263              		.loc 1 251 0
 264 0000 0748     		ldr	r0, .L15
 256:Generated_Source\PSoC5/UI_TIMER.c ****         UI_TIMER_GLOBAL_STBY_ENABLE &= ((uint8)(~UI_TIMER_BLOCK_STBY_EN_MASK));
 265              		.loc 1 256 0
 266 0002 0849     		ldr	r1, .L15+4
 251:Generated_Source\PSoC5/UI_TIMER.c ****     #endif /* Remove assignment if control register is removed */
 267              		.loc 1 251 0
 268 0004 0378     		ldrb	r3, [r0]	@ zero_extendqisi2
 257:Generated_Source\PSoC5/UI_TIMER.c ****     #endif /* Disable global enable for the Timer Fixed function block to stop the Timer*/
 269              		.loc 1 257 0
ARM GAS  C:\Users\jmdevoto\AppData\Local\Temp\cccgutyM.s 			page 15


 270 0006 084A     		ldr	r2, .L15+8
 251:Generated_Source\PSoC5/UI_TIMER.c ****     #endif /* Remove assignment if control register is removed */
 271              		.loc 1 251 0
 272 0008 03F0FE03 		and	r3, r3, #254
 273 000c 0370     		strb	r3, [r0]
 256:Generated_Source\PSoC5/UI_TIMER.c ****         UI_TIMER_GLOBAL_STBY_ENABLE &= ((uint8)(~UI_TIMER_BLOCK_STBY_EN_MASK));
 274              		.loc 1 256 0
 275 000e 0B78     		ldrb	r3, [r1]	@ zero_extendqisi2
 276 0010 03F0FE03 		and	r3, r3, #254
 277 0014 0B70     		strb	r3, [r1]
 257:Generated_Source\PSoC5/UI_TIMER.c ****     #endif /* Disable global enable for the Timer Fixed function block to stop the Timer*/
 278              		.loc 1 257 0
 279 0016 1378     		ldrb	r3, [r2]	@ zero_extendqisi2
 280 0018 03F0FE03 		and	r3, r3, #254
 281 001c 1370     		strb	r3, [r2]
 282 001e 7047     		bx	lr
 283              	.L16:
 284              		.align	2
 285              	.L15:
 286 0020 004F0040 		.word	1073762048
 287 0024 A3430040 		.word	1073759139
 288 0028 B3430040 		.word	1073759155
 289              		.cfi_endproc
 290              	.LFE3:
 291              		.size	UI_TIMER_Stop, .-UI_TIMER_Stop
 292              		.section	.text.UI_TIMER_SetInterruptMode,"ax",%progbits
 293              		.align	2
 294              		.global	UI_TIMER_SetInterruptMode
 295              		.thumb
 296              		.thumb_func
 297              		.type	UI_TIMER_SetInterruptMode, %function
 298              	UI_TIMER_SetInterruptMode:
 299              	.LFB4:
 280:Generated_Source\PSoC5/UI_TIMER.c ****     UI_TIMER_STATUS_MASK = interruptMode;
 300              		.loc 1 280 0
 301              		.cfi_startproc
 302              		@ args = 0, pretend = 0, frame = 0
 303              		@ frame_needed = 0, uses_anonymous_args = 0
 304              		@ link register save eliminated.
 305              	.LVL4:
 281:Generated_Source\PSoC5/UI_TIMER.c **** }
 306              		.loc 1 281 0
 307 0000 014B     		ldr	r3, .L18
 308 0002 1870     		strb	r0, [r3]
 309 0004 7047     		bx	lr
 310              	.L19:
 311 0006 00BF     		.align	2
 312              	.L18:
 313 0008 034F0040 		.word	1073762051
 314              		.cfi_endproc
 315              	.LFE4:
 316              		.size	UI_TIMER_SetInterruptMode, .-UI_TIMER_SetInterruptMode
 317              		.section	.text.UI_TIMER_SoftwareCapture,"ax",%progbits
 318              		.align	2
 319              		.global	UI_TIMER_SoftwareCapture
 320              		.thumb
 321              		.thumb_func
ARM GAS  C:\Users\jmdevoto\AppData\Local\Temp\cccgutyM.s 			page 16


 322              		.type	UI_TIMER_SoftwareCapture, %function
 323              	UI_TIMER_SoftwareCapture:
 324              	.LFB5:
 303:Generated_Source\PSoC5/UI_TIMER.c ****     /* Generate a software capture by reading the counter register */
 325              		.loc 1 303 0
 326              		.cfi_startproc
 327              		@ args = 0, pretend = 0, frame = 0
 328              		@ frame_needed = 0, uses_anonymous_args = 0
 329              		@ link register save eliminated.
 306:Generated_Source\PSoC5/UI_TIMER.c ****     #else
 330              		.loc 1 306 0
 331 0000 014B     		ldr	r3, .L21
 332 0002 1B88     		ldrh	r3, [r3]
 333 0004 7047     		bx	lr
 334              	.L22:
 335 0006 00BF     		.align	2
 336              	.L21:
 337 0008 064F0040 		.word	1073762054
 338              		.cfi_endproc
 339              	.LFE5:
 340              		.size	UI_TIMER_SoftwareCapture, .-UI_TIMER_SoftwareCapture
 341              		.section	.text.UI_TIMER_ReadStatusRegister,"ax",%progbits
 342              		.align	2
 343              		.global	UI_TIMER_ReadStatusRegister
 344              		.thumb
 345              		.thumb_func
 346              		.type	UI_TIMER_ReadStatusRegister, %function
 347              	UI_TIMER_ReadStatusRegister:
 348              	.LFB6:
 334:Generated_Source\PSoC5/UI_TIMER.c ****     return (UI_TIMER_STATUS);
 349              		.loc 1 334 0
 350              		.cfi_startproc
 351              		@ args = 0, pretend = 0, frame = 0
 352              		@ frame_needed = 0, uses_anonymous_args = 0
 353              		@ link register save eliminated.
 335:Generated_Source\PSoC5/UI_TIMER.c **** }
 354              		.loc 1 335 0
 355 0000 014B     		ldr	r3, .L24
 356 0002 1878     		ldrb	r0, [r3]	@ zero_extendqisi2
 336:Generated_Source\PSoC5/UI_TIMER.c **** 
 357              		.loc 1 336 0
 358 0004 7047     		bx	lr
 359              	.L25:
 360 0006 00BF     		.align	2
 361              	.L24:
 362 0008 034F0040 		.word	1073762051
 363              		.cfi_endproc
 364              	.LFE6:
 365              		.size	UI_TIMER_ReadStatusRegister, .-UI_TIMER_ReadStatusRegister
 366              		.section	.text.UI_TIMER_ReadControlRegister,"ax",%progbits
 367              		.align	2
 368              		.global	UI_TIMER_ReadControlRegister
 369              		.thumb
 370              		.thumb_func
 371              		.type	UI_TIMER_ReadControlRegister, %function
 372              	UI_TIMER_ReadControlRegister:
 373              	.LFB7:
ARM GAS  C:\Users\jmdevoto\AppData\Local\Temp\cccgutyM.s 			page 17


 357:Generated_Source\PSoC5/UI_TIMER.c ****     #if (!UI_TIMER_UDB_CONTROL_REG_REMOVED) 
 374              		.loc 1 357 0
 375              		.cfi_startproc
 376              		@ args = 0, pretend = 0, frame = 0
 377              		@ frame_needed = 0, uses_anonymous_args = 0
 378              		@ link register save eliminated.
 359:Generated_Source\PSoC5/UI_TIMER.c ****     #else
 379              		.loc 1 359 0
 380 0000 014B     		ldr	r3, .L27
 381 0002 1878     		ldrb	r0, [r3]	@ zero_extendqisi2
 363:Generated_Source\PSoC5/UI_TIMER.c **** 
 382              		.loc 1 363 0
 383 0004 7047     		bx	lr
 384              	.L28:
 385 0006 00BF     		.align	2
 386              	.L27:
 387 0008 004F0040 		.word	1073762048
 388              		.cfi_endproc
 389              	.LFE7:
 390              		.size	UI_TIMER_ReadControlRegister, .-UI_TIMER_ReadControlRegister
 391              		.section	.text.UI_TIMER_WriteControlRegister,"ax",%progbits
 392              		.align	2
 393              		.global	UI_TIMER_WriteControlRegister
 394              		.thumb
 395              		.thumb_func
 396              		.type	UI_TIMER_WriteControlRegister, %function
 397              	UI_TIMER_WriteControlRegister:
 398              	.LFB8:
 380:Generated_Source\PSoC5/UI_TIMER.c ****     #if (!UI_TIMER_UDB_CONTROL_REG_REMOVED) 
 399              		.loc 1 380 0
 400              		.cfi_startproc
 401              		@ args = 0, pretend = 0, frame = 0
 402              		@ frame_needed = 0, uses_anonymous_args = 0
 403              		@ link register save eliminated.
 404              	.LVL5:
 382:Generated_Source\PSoC5/UI_TIMER.c ****     #else
 405              		.loc 1 382 0
 406 0000 014B     		ldr	r3, .L30
 407 0002 1870     		strb	r0, [r3]
 408 0004 7047     		bx	lr
 409              	.L31:
 410 0006 00BF     		.align	2
 411              	.L30:
 412 0008 004F0040 		.word	1073762048
 413              		.cfi_endproc
 414              	.LFE8:
 415              		.size	UI_TIMER_WriteControlRegister, .-UI_TIMER_WriteControlRegister
 416              		.section	.text.UI_TIMER_ReadPeriod,"ax",%progbits
 417              		.align	2
 418              		.global	UI_TIMER_ReadPeriod
 419              		.thumb
 420              		.thumb_func
 421              		.type	UI_TIMER_ReadPeriod, %function
 422              	UI_TIMER_ReadPeriod:
 423              	.LFB9:
 406:Generated_Source\PSoC5/UI_TIMER.c ****    #if(UI_TIMER_UsingFixedFunction)
 424              		.loc 1 406 0
ARM GAS  C:\Users\jmdevoto\AppData\Local\Temp\cccgutyM.s 			page 18


 425              		.cfi_startproc
 426              		@ args = 0, pretend = 0, frame = 0
 427              		@ frame_needed = 0, uses_anonymous_args = 0
 428              		@ link register save eliminated.
 408:Generated_Source\PSoC5/UI_TIMER.c ****    #else
 429              		.loc 1 408 0
 430 0000 014B     		ldr	r3, .L33
 431 0002 1888     		ldrh	r0, [r3]
 412:Generated_Source\PSoC5/UI_TIMER.c **** 
 432              		.loc 1 412 0
 433 0004 C0B2     		uxtb	r0, r0
 434 0006 7047     		bx	lr
 435              	.L34:
 436              		.align	2
 437              	.L33:
 438 0008 044F0040 		.word	1073762052
 439              		.cfi_endproc
 440              	.LFE9:
 441              		.size	UI_TIMER_ReadPeriod, .-UI_TIMER_ReadPeriod
 442              		.section	.text.UI_TIMER_WritePeriod,"ax",%progbits
 443              		.align	2
 444              		.global	UI_TIMER_WritePeriod
 445              		.thumb
 446              		.thumb_func
 447              		.type	UI_TIMER_WritePeriod, %function
 448              	UI_TIMER_WritePeriod:
 449              	.LFB10:
 432:Generated_Source\PSoC5/UI_TIMER.c ****     #if(UI_TIMER_UsingFixedFunction)
 450              		.loc 1 432 0
 451              		.cfi_startproc
 452              		@ args = 0, pretend = 0, frame = 0
 453              		@ frame_needed = 0, uses_anonymous_args = 0
 454              		@ link register save eliminated.
 455              	.LVL6:
 435:Generated_Source\PSoC5/UI_TIMER.c ****     #else
 456              		.loc 1 435 0
 457 0000 014B     		ldr	r3, .L36
 458 0002 1880     		strh	r0, [r3]	@ movhi
 459 0004 7047     		bx	lr
 460              	.L37:
 461 0006 00BF     		.align	2
 462              	.L36:
 463 0008 044F0040 		.word	1073762052
 464              		.cfi_endproc
 465              	.LFE10:
 466              		.size	UI_TIMER_WritePeriod, .-UI_TIMER_WritePeriod
 467              		.section	.text.UI_TIMER_ReadCapture,"ax",%progbits
 468              		.align	2
 469              		.global	UI_TIMER_ReadCapture
 470              		.thumb
 471              		.thumb_func
 472              		.type	UI_TIMER_ReadCapture, %function
 473              	UI_TIMER_ReadCapture:
 474              	.LFB11:
 457:Generated_Source\PSoC5/UI_TIMER.c ****    #if(UI_TIMER_UsingFixedFunction)
 475              		.loc 1 457 0
 476              		.cfi_startproc
ARM GAS  C:\Users\jmdevoto\AppData\Local\Temp\cccgutyM.s 			page 19


 477              		@ args = 0, pretend = 0, frame = 0
 478              		@ frame_needed = 0, uses_anonymous_args = 0
 479              		@ link register save eliminated.
 459:Generated_Source\PSoC5/UI_TIMER.c ****    #else
 480              		.loc 1 459 0
 481 0000 014B     		ldr	r3, .L39
 482 0002 1888     		ldrh	r0, [r3]
 463:Generated_Source\PSoC5/UI_TIMER.c **** 
 483              		.loc 1 463 0
 484 0004 C0B2     		uxtb	r0, r0
 485 0006 7047     		bx	lr
 486              	.L40:
 487              		.align	2
 488              	.L39:
 489 0008 084F0040 		.word	1073762056
 490              		.cfi_endproc
 491              	.LFE11:
 492              		.size	UI_TIMER_ReadCapture, .-UI_TIMER_ReadCapture
 493              		.section	.text.UI_TIMER_WriteCounter,"ax",%progbits
 494              		.align	2
 495              		.global	UI_TIMER_WriteCounter
 496              		.thumb
 497              		.thumb_func
 498              		.type	UI_TIMER_WriteCounter, %function
 499              	UI_TIMER_WriteCounter:
 500              	.LFB12:
 481:Generated_Source\PSoC5/UI_TIMER.c ****    #if(UI_TIMER_UsingFixedFunction)
 501              		.loc 1 481 0
 502              		.cfi_startproc
 503              		@ args = 0, pretend = 0, frame = 0
 504              		@ frame_needed = 0, uses_anonymous_args = 0
 505              		@ link register save eliminated.
 506              	.LVL7:
 507              		.loc 1 486 0
 508 0000 014B     		ldr	r3, .L42
 509 0002 1880     		strh	r0, [r3]	@ movhi
 510 0004 7047     		bx	lr
 511              	.L43:
 512 0006 00BF     		.align	2
 513              	.L42:
 514 0008 064F0040 		.word	1073762054
 515              		.cfi_endproc
 516              	.LFE12:
 517              		.size	UI_TIMER_WriteCounter, .-UI_TIMER_WriteCounter
 518              		.section	.text.UI_TIMER_ReadCounter,"ax",%progbits
 519              		.align	2
 520              		.global	UI_TIMER_ReadCounter
 521              		.thumb
 522              		.thumb_func
 523              		.type	UI_TIMER_ReadCounter, %function
 524              	UI_TIMER_ReadCounter:
 525              	.LFB13:
 487:Generated_Source\PSoC5/UI_TIMER.c ****         
 488:Generated_Source\PSoC5/UI_TIMER.c ****     #else
 489:Generated_Source\PSoC5/UI_TIMER.c ****         CY_SET_REG8(UI_TIMER_COUNTER_LSB_PTR, counter);
 490:Generated_Source\PSoC5/UI_TIMER.c ****     #endif /* Set Write Counter only for the UDB implementation (Write Counter not available in fix
 491:Generated_Source\PSoC5/UI_TIMER.c **** }
ARM GAS  C:\Users\jmdevoto\AppData\Local\Temp\cccgutyM.s 			page 20


 492:Generated_Source\PSoC5/UI_TIMER.c **** 
 493:Generated_Source\PSoC5/UI_TIMER.c **** 
 494:Generated_Source\PSoC5/UI_TIMER.c **** /*******************************************************************************
 495:Generated_Source\PSoC5/UI_TIMER.c **** * Function Name: UI_TIMER_ReadCounter
 496:Generated_Source\PSoC5/UI_TIMER.c **** ********************************************************************************
 497:Generated_Source\PSoC5/UI_TIMER.c **** *
 498:Generated_Source\PSoC5/UI_TIMER.c **** * Summary:
 499:Generated_Source\PSoC5/UI_TIMER.c **** *  This function returns the current counter value.
 500:Generated_Source\PSoC5/UI_TIMER.c **** *
 501:Generated_Source\PSoC5/UI_TIMER.c **** * Parameters:
 502:Generated_Source\PSoC5/UI_TIMER.c **** *  void
 503:Generated_Source\PSoC5/UI_TIMER.c **** *
 504:Generated_Source\PSoC5/UI_TIMER.c **** * Return:
 505:Generated_Source\PSoC5/UI_TIMER.c **** *  Present compare value.
 506:Generated_Source\PSoC5/UI_TIMER.c **** *
 507:Generated_Source\PSoC5/UI_TIMER.c **** *******************************************************************************/
 508:Generated_Source\PSoC5/UI_TIMER.c **** uint8 UI_TIMER_ReadCounter(void) 
 509:Generated_Source\PSoC5/UI_TIMER.c **** {
 526              		.loc 1 509 0
 527              		.cfi_startproc
 528              		@ args = 0, pretend = 0, frame = 0
 529              		@ frame_needed = 0, uses_anonymous_args = 0
 530              		@ link register save eliminated.
 510:Generated_Source\PSoC5/UI_TIMER.c ****     /* Force capture by reading Accumulator */
 511:Generated_Source\PSoC5/UI_TIMER.c ****     /* Must first do a software capture to be able to read the counter */
 512:Generated_Source\PSoC5/UI_TIMER.c ****     /* It is up to the user code to make sure there isn't already captured data in the FIFO */
 513:Generated_Source\PSoC5/UI_TIMER.c ****     #if(UI_TIMER_UsingFixedFunction)
 514:Generated_Source\PSoC5/UI_TIMER.c ****         (void)CY_GET_REG16(UI_TIMER_COUNTER_LSB_PTR);
 515:Generated_Source\PSoC5/UI_TIMER.c ****     #else
 516:Generated_Source\PSoC5/UI_TIMER.c ****         (void)CY_GET_REG8(UI_TIMER_COUNTER_LSB_PTR_8BIT);
 517:Generated_Source\PSoC5/UI_TIMER.c ****     #endif/* (UI_TIMER_UsingFixedFunction) */
 518:Generated_Source\PSoC5/UI_TIMER.c **** 
 519:Generated_Source\PSoC5/UI_TIMER.c ****     /* Read the data from the FIFO (or capture register for Fixed Function)*/
 520:Generated_Source\PSoC5/UI_TIMER.c ****     #if(UI_TIMER_UsingFixedFunction)
 521:Generated_Source\PSoC5/UI_TIMER.c ****         return ((uint8)CY_GET_REG16(UI_TIMER_CAPTURE_LSB_PTR));
 531              		.loc 1 521 0
 532 0000 024B     		ldr	r3, .L45
 514:Generated_Source\PSoC5/UI_TIMER.c ****     #else
 533              		.loc 1 514 0
 534 0002 034A     		ldr	r2, .L45+4
 535 0004 1288     		ldrh	r2, [r2]
 536              		.loc 1 521 0
 537 0006 1888     		ldrh	r0, [r3]
 522:Generated_Source\PSoC5/UI_TIMER.c ****     #else
 523:Generated_Source\PSoC5/UI_TIMER.c ****         return (CY_GET_REG8(UI_TIMER_CAPTURE_LSB_PTR));
 524:Generated_Source\PSoC5/UI_TIMER.c ****     #endif /* (UI_TIMER_UsingFixedFunction) */
 525:Generated_Source\PSoC5/UI_TIMER.c **** }
 538              		.loc 1 525 0
 539 0008 C0B2     		uxtb	r0, r0
 540 000a 7047     		bx	lr
 541              	.L46:
 542              		.align	2
 543              	.L45:
 544 000c 084F0040 		.word	1073762056
 545 0010 064F0040 		.word	1073762054
 546              		.cfi_endproc
 547              	.LFE13:
ARM GAS  C:\Users\jmdevoto\AppData\Local\Temp\cccgutyM.s 			page 21


 548              		.size	UI_TIMER_ReadCounter, .-UI_TIMER_ReadCounter
 549              		.global	UI_TIMER_initVar
 550              		.bss
 551              		.set	.LANCHOR0,. + 0
 552              		.type	UI_TIMER_initVar, %object
 553              		.size	UI_TIMER_initVar, 1
 554              	UI_TIMER_initVar:
 555 0000 00       		.space	1
 556              		.text
 557              	.Letext0:
 558              		.file 2 "Generated_Source\\PSoC5\\cytypes.h"